Microsoft (R) COFF/PE Dumper Version 10.00.30319.01
Copyright (C) Microsoft Corporation.  All rights reserved.


Dump of file Entities.dll

File Type: DLL

  Section contains the following exports for Entities.dll

    00000000 characteristics
    3D7E15AE time date stamp Tue Sep 10 18:54:22 2002
        0.00 version
           1 ordinal base
        2235 number of functions
        2235 number of names

    ordinal hint RVA      name

          1    0 0000AE50 ??0CCompMessageID@@QAE@ABV0@@Z
          2    1 0000AE30 ??0CCompMessageID@@QAE@XZ
          3    2 00014420 ??0CNavigationMarker@@QAE@ABV0@@Z
          4    3 00014390 ??0CNavigationMarker@@QAE@XZ
          5    4 00081050 ??0CPathNode@@QAE@ABV0@@Z
          6    5 0000DC00 ??0CPlayer@@QAE@AAV0@@Z
          7    6 00097A20 ??0CPlayer@@QAE@XZ
          8    7 0008C330 ??0CPlayerView@@QAE@ABV0@@Z
          9    8 0008C300 ??0CPlayerView@@QAE@XZ
         10    9 000ACB00 ??0CPulser@@QAE@ABV0@@Z
         11    A 000ACAD0 ??0CPulser@@QAE@XZ
         12    B 0000B160 ??0CReminder@@QAE@ABV0@@Z
         13    C 0000B140 ??0CReminder@@QAE@XZ
         14    D 00015390 ??0EAIMoveFinished@@QAE@ABV0@@Z
         15    E 00027B50 ??0EAIMoveFinished@@QAE@XZ
         16    F 00015490 ??0EAIMovePointHit@@QAE@ABV0@@Z
         17   10 00027B90 ??0EAIMovePointHit@@QAE@XZ
         18   11 00034D80 ??0EATVClicked@@QAE@ABV0@@Z
         19   12 00036020 ??0EATVClicked@@QAE@XZ
         20   13 00034FC0 ??0EATVLoadOnTruck@@QAE@ABV0@@Z
         21   14 000360D0 ??0EATVLoadOnTruck@@QAE@XZ
         22   15 00034A50 ??0EATVStart@@QAE@ABV0@@Z
         23   16 00035F30 ??0EATVStart@@QAE@XZ
         24   17 00034C80 ??0EATVStop@@QAE@ABV0@@Z
         25   18 00035FD0 ??0EATVStop@@QAE@XZ
         26   19 000351F0 ??0EATVUnloadOffTruck@@QAE@ABV0@@Z
         27   1A 00036190 ??0EATVUnloadOffTruck@@QAE@XZ
         28   1B 00008270 ??0EActivate@@QAE@ABV0@@Z
         29   1C 00062F70 ??0EActivate@@QAE@XZ
         30   1D 00014160 ??0EAimLeft@@QAE@ABV0@@Z
         31   1E 000B1B50 ??0EAimLeft@@QAE@XZ
         32   1F 00014260 ??0EAimRight@@QAE@ABV0@@Z
         33   20 000B1B90 ??0EAimRight@@QAE@XZ
         34   21 0000D1B0 ??0EAnimalClaimed@@QAE@ABV0@@Z
         35   22 000911C0 ??0EAnimalClaimed@@QAE@XZ
         36   23 00014A70 ??0EAnimalInit@@QAE@ABV0@@Z
         37   24 0002BB60 ??0EAnimalInit@@QAE@XZ
         38   25 0008D550 ??0EAnimatorInit@@QAE@ABV0@@Z
         39   26 000AE5E0 ??0EAnimatorInit@@QAE@XZ
         40   27 0000CC10 ??0EAutoAction@@QAE@ABV0@@Z
         41   28 00091000 ??0EAutoAction@@QAE@XZ
         42   29 00015CF0 ??0EBBAEat@@QAE@ABV0@@Z
         43   2A 0010D0A0 ??0EBBAEat@@QAE@XZ
         44   2B 000164F0 ??0EBBAFlare@@QAE@ABV0@@Z
         45   2C 0010D2A0 ??0EBBAFlare@@QAE@XZ
         46   2D 00015AF0 ??0EBBAFly@@QAE@ABV0@@Z
         47   2E 0010D020 ??0EBBAFly@@QAE@XZ
         48   2F 00015BF0 ??0EBBAFlyFast@@QAE@ABV0@@Z
         49   30 0010D060 ??0EBBAFlyFast@@QAE@XZ
         50   31 000161F0 ??0EBBALand@@QAE@ABV0@@Z
         51   32 0010D1E0 ??0EBBALand@@QAE@XZ
         52   33 000162F0 ??0EBBALandOnNormal@@QAE@ABV0@@Z
         53   34 0010D220 ??0EBBALandOnNormal@@QAE@XZ
         54   35 00015EF0 ??0EBBARest@@QAE@ABV0@@Z
         55   36 0010D120 ??0EBBARest@@QAE@XZ
         56   37 00015DF0 ??0EBBARoost@@QAE@ABV0@@Z
         57   38 0010D0E0 ??0EBBARoost@@QAE@XZ
         58   39 000160F0 ??0EBBARunTakeoff@@QAE@ABV0@@Z
         59   3A 0010D1A0 ??0EBBARunTakeoff@@QAE@XZ
         60   3B 000163F0 ??0EBBAStandby@@QAE@ABV0@@Z
         61   3C 0010D260 ??0EBBAStandby@@QAE@XZ
         62   3D 00015FF0 ??0EBBAVTakeoff@@QAE@ABV0@@Z
         63   3E 0010D160 ??0EBBAVTakeoff@@QAE@XZ
         64   3F 000165F0 ??0EBBAWounded@@QAE@ABV0@@Z
         65   40 0010D2E0 ??0EBBAWounded@@QAE@XZ
         66   41 001319A0 ??0EBMSDrink@@QAE@ABV0@@Z
         67   42 00133810 ??0EBMSDrink@@QAE@XZ
         68   43 001318A0 ??0EBMSEat@@QAE@ABV0@@Z
         69   44 001337D0 ??0EBMSEat@@QAE@XZ
         70   45 001317A0 ??0EBMSFlee@@QAE@ABV0@@Z
         71   46 00133790 ??0EBMSFlee@@QAE@XZ
         72   47 00131BA0 ??0EBMSIdle@@QAE@ABV0@@Z
         73   48 00133890 ??0EBMSIdle@@QAE@XZ
         74   49 00131CA0 ??0EBMSIgnore@@QAE@ABV0@@Z
         75   4A 001338D0 ??0EBMSIgnore@@QAE@XZ
         76   4B 00131AA0 ??0EBMSRoost@@QAE@ABV0@@Z
         77   4C 00133850 ??0EBMSRoost@@QAE@XZ
         78   4D 00047720 ??0EBoatClicked@@QAE@ABV0@@Z
         79   4E 00048350 ??0EBoatClicked@@QAE@XZ
         80   4F 000473F0 ??0EBoatStart@@QAE@ABV0@@Z
         81   50 00048260 ??0EBoatStart@@QAE@XZ
         82   51 00047620 ??0EBoatStop@@QAE@ABV0@@Z
         83   52 00048300 ??0EBoatStop@@QAE@XZ
         84   53 0007A6C0 ??0EBrushDestroyed@@QAE@ABV0@@Z
         85   54 0007B7B0 ??0EBrushDestroyed@@QAE@XZ
         86   55 0015FFE0 ??0EBuckVitalShot@@QAE@ABV0@@Z
         87   56 00161160 ??0EBuckVitalShot@@QAE@XZ
         88   57 00015890 ??0ECallMade@@QAE@ABV0@@Z
         89   58 0003E250 ??0ECallMade@@QAE@XZ
         90   59 00160740 ??0ECalledBuck@@QAE@ABV0@@Z
         91   5A 00161480 ??0ECalledBuck@@QAE@XZ
         92   5B 00160640 ??0ECalledDoe@@QAE@ABV0@@Z
         93   5C 00161440 ??0ECalledDoe@@QAE@XZ
         94   5D 0000C5B0 ??0ECameraStart@@QAE@ABV0@@Z
         95   5E 00090E20 ??0ECameraStart@@QAE@XZ
         96   5F 0000C7E0 ??0ECameraStop@@QAE@ABV0@@Z
         97   60 00090ED0 ??0ECameraStop@@QAE@XZ
         98   61 00009610 ??0ECenterMessage@@QAE@ABV0@@Z
         99   62 000634E0 ??0ECenterMessage@@QAE@XZ
        100   63 0000A5D0 ??0EChangeAnim@@QAE@ABV0@@Z
        101   64 000318C0 ??0EChangeAnim@@QAE@XZ
        102   65 00069F70 ??0EChangeGravity@@QAE@ABV0@@Z
        103   66 0006B1A0 ??0EChangeGravity@@QAE@XZ
        104   67 00012230 ??0EChangeMusic@@QAE@ABV0@@Z
        105   68 000801E0 ??0EChangeMusic@@QAE@XZ
        106   69 000170F0 ??0EChaseAmbientAnimal@@QAE@ABV0@@Z
        107   6A 00120AB0 ??0EChaseAmbientAnimal@@QAE@XZ
        108   6B 00009D60 ??0EClicked@@QAE@ABV0@@Z
        109   6C 00063810 ??0EClicked@@QAE@XZ
        110   6D 00009840 ??0EComputerMessage@@QAE@ABV0@@Z
        111   6E 000635F0 ??0EComputerMessage@@QAE@XZ
        112   6F 00008370 ??0EDeactivate@@QAE@ABV0@@Z
        113   70 00062FB0 ??0EDeactivate@@QAE@XZ
        114   71 00043D50 ??0EDecoyStart@@QAE@ABV0@@Z
        115   72 00044550 ??0EDecoyStart@@QAE@XZ
        116   73 000528C0 ??0EDeerCallInit@@QAE@ABV0@@Z
        117   74 00053640 ??0EDeerCallInit@@QAE@XZ
        118   75 00052B10 ??0EDeerCallMade@@QAE@ABV0@@Z
        119   76 00053770 ??0EDeerCallMade@@QAE@XZ
        120   77 00054FA0 ??0EDeerDecoyRecalled@@QAE@ABV0@@Z
        121   78 000555E0 ??0EDeerDecoyRecalled@@QAE@XZ
        122   79 00054D50 ??0EDeerDecoyStart@@QAE@ABV0@@Z
        123   7A 00055530 ??0EDeerDecoyStart@@QAE@XZ
        124   7B 0000CB10 ??0EDisconnected@@QAE@ABV0@@Z
        125   7C 00090FB0 ??0EDisconnected@@QAE@XZ
        126   7D 00051410 ??0EDoDecal@@QAE@ABV0@@Z
        127   7E 00051A40 ??0EDoDecal@@QAE@XZ
        128   7F 00160220 ??0EDoeVitalShot@@QAE@ABV0@@Z
        129   80 00161270 ??0EDoeVitalShot@@QAE@XZ
        130   81 00016FF0 ??0EDogEndRide@@QAE@ABV0@@Z
        131   82 00120A70 ??0EDogEndRide@@QAE@XZ
        132   83 000169F0 ??0EDogFetch@@QAE@ABV0@@Z
        133   84 001208F0 ??0EDogFetch@@QAE@XZ
        134   85 00016CF0 ??0EDogFlush@@QAE@ABV0@@Z
        135   86 001209B0 ??0EDogFlush@@QAE@XZ
        136   87 000167F0 ??0EDogHeel@@QAE@ABV0@@Z
        137   88 00120870 ??0EDogHeel@@QAE@XZ
        138   89 00016AF0 ??0EDogHunt@@QAE@ABV0@@Z
        139   8A 00120930 ??0EDogHunt@@QAE@XZ
        140   8B 000166F0 ??0EDogIPlay@@QAE@ABV0@@Z
        141   8C 00120830 ??0EDogIPlay@@QAE@XZ
        142   8D 00016BF0 ??0EDogPoint@@QAE@ABV0@@Z
        143   8E 00120970 ??0EDogPoint@@QAE@XZ
        144   8F 00016EF0 ??0EDogRideInBoat@@QAE@ABV0@@Z
        145   90 00120A30 ??0EDogRideInBoat@@QAE@XZ
        146   91 00016DF0 ??0EDogRideInTruck@@QAE@ABV0@@Z
        147   92 001209F0 ??0EDogRideInTruck@@QAE@XZ
        148   93 000168F0 ??0EDogStay@@QAE@ABV0@@Z
        149   94 001208B0 ??0EDogStay@@QAE@XZ
        150   95 000AD190 ??0EEat@@QAE@ABV0@@Z
        151   96 001654E0 ??0EEat@@QAE@XZ
        152   97 00008670 ??0EEnd@@QAE@ABV0@@Z
        153   98 00063070 ??0EEnd@@QAE@XZ
        154   99 000525A0 ??0EEndCall@@QAE@ABV0@@Z
        155   9A 00053550 ??0EEndCall@@QAE@XZ
        156   9B 0008CDC0 ??0EEnteredLauncher@@QAE@ABV0@@Z
        157   9C 000DA5C0 ??0EEnteredLauncher@@QAE@XZ
        158   9D 00008470 ??0EEnvironmentStart@@QAE@ABV0@@Z
        159   9E 00062FF0 ??0EEnvironmentStart@@QAE@XZ
        160   9F 00008570 ??0EEnvironmentStop@@QAE@ABV0@@Z
        161   A0 00063030 ??0EEnvironmentStop@@QAE@XZ
        162   A1 00013320 ??0EFireGun@@QAE@ABV0@@Z
        163   A2 000B1790 ??0EFireGun@@QAE@XZ
        164   A3 000AD090 ??0EFlee@@QAE@ABV0@@Z
        165   A4 001654A0 ??0EFlee@@QAE@XZ
        166   A5 00068310 ??0EGrasshopperParticlesInit@@QAE@ABV0@@Z
        167   A6 00068AD0 ??0EGrasshopperParticlesInit@@QAE@XZ
        168   A7 00013030 ??0EGunInit@@QAE@ABV0@@Z
        169   A8 000B16B0 ??0EGunInit@@QAE@XZ
        170   A9 00013840 ??0EGunIsUp@@QAE@ABV0@@Z
        171   AA 000B18F0 ??0EGunIsUp@@QAE@XZ
        172   AB 00013940 ??0EGunNotUp@@QAE@ABV0@@Z
        173   AC 000B1930 ??0EGunNotUp@@QAE@XZ
        174   AD 000C8270 ??0EHarbor@@QAE@ABV0@@Z
        175   AE 000C8A30 ??0EHarbor@@QAE@XZ
        176   AF 00013740 ??0EHeartbeat@@QAE@ABV0@@Z
        177   B0 000B18B0 ??0EHeartbeat@@QAE@XZ
        178   B1 0007A5C0 ??0EHit@@QAE@ABV0@@Z
        179   B2 0007B770 ??0EHit@@QAE@XZ
        180   B3 00009C60 ??0EHitBySpaceShipBeam@@QAE@ABV0@@Z
        181   B4 000637C0 ??0EHitBySpaceShipBeam@@QAE@XZ
        182   B5 0008D780 ??0EInitStand@@QAE@ABV0@@Z
        183   B6 000E2660 ??0EInitStand@@QAE@XZ
        184   B7 0000CF60 ??0EKilledDeer@@QAE@ABV0@@Z
        185   B8 00091110 ??0EKilledDeer@@QAE@XZ
        186   B9 000090E0 ??0EKilledEnemy@@QAE@ABV0@@Z
        187   BA 00063360 ??0EKilledEnemy@@QAE@XZ
        188   BB 0006BE50 ??0ELAAmbient@@QAE@ABV0@@Z
        189   BC 0006C720 ??0ELAAmbient@@QAE@XZ
        190   BD 0006BF50 ??0ELAFlee@@QAE@ABV0@@Z
        191   BE 0006C760 ??0ELAFlee@@QAE@XZ
        192   BF 0006C050 ??0ELASleep@@QAE@ABV0@@Z
        193   C0 0006C7A0 ??0ELASleep@@QAE@XZ
        194   C1 0008CFF0 ??0ELaunchSkeet@@QAE@ABV0@@Z
        195   C2 000DA670 ??0ELaunchSkeet@@QAE@XZ
        196   C3 0008D220 ??0ELaunchTrap@@QAE@ABV0@@Z
        197   C4 000DA720 ??0ELaunchTrap@@QAE@XZ
        198   C5 00013520 ??0ELowerGun@@QAE@ABV0@@Z
        199   C6 000B1820 ??0ELowerGun@@QAE@XZ
        200   C7 00012D00 ??0EMemberNotify@@QAE@ABV0@@Z
        201   C8 000BCC50 ??0EMemberNotify@@QAE@XZ
        202   C9 0000D9A0 ??0EMessage@@QAE@ABV0@@Z
        203   CA 000914A0 ??0EMessage@@QAE@XZ
        204   CB 00013C60 ??0EPin1Down@@QAE@ABV0@@Z
        205   CC 000B1A10 ??0EPin1Down@@QAE@XZ
        206   CD 00013B60 ??0EPin1Up@@QAE@ABV0@@Z
        207   CE 000B19D0 ??0EPin1Up@@QAE@XZ
        208   CF 00013E60 ??0EPin2Down@@QAE@ABV0@@Z
        209   D0 000B1A90 ??0EPin2Down@@QAE@XZ
        210   D1 00013D60 ??0EPin2Up@@QAE@ABV0@@Z
        211   D2 000B1A50 ??0EPin2Up@@QAE@XZ
        212   D3 00014060 ??0EPin3Down@@QAE@ABV0@@Z
        213   D4 000B1B10 ??0EPin3Down@@QAE@XZ
        214   D5 00013F60 ??0EPin3Up@@QAE@ABV0@@Z
        215   D6 000B1AD0 ??0EPin3Up@@QAE@XZ
        216   D7 0000D520 ??0EPlayerFired@@QAE@ABV0@@Z
        217   D8 000912E0 ??0EPlayerFired@@QAE@XZ
        218   D9 0000D3E0 ??0EProfileScore@@QAE@ABV0@@Z
        219   DA 00091270 ??0EProfileScore@@QAE@XZ
        220   DB 00012830 ??0EProjectileHit@@QAE@ABV0@@Z
        221   DC 000BCAD0 ??0EProjectileHit@@QAE@XZ
        222   DD 00012BE0 ??0EProjectileInit@@QAE@ABV0@@Z
        223   DE 000BCBD0 ??0EProjectileInit@@QAE@XZ
        224   DF 000AC960 ??0EPulse@@QAE@ABV0@@Z
        225   E0 000C3E90 ??0EPulse@@QAE@XZ
        226   E1 00015180 ??0EPulseAnimation@@QAE@ABV0@@Z
        227   E2 000EFF00 ??0EPulseAnimation@@QAE@XZ
        228   E3 00015280 ??0EPulseMover@@QAE@ABV0@@Z
        229   E4 000EFF40 ??0EPulseMover@@QAE@XZ
        230   E5 000AC730 ??0EPulserInit@@QAE@ABV0@@Z
        231   E6 000C3DE0 ??0EPulserInit@@QAE@XZ
        232   E7 000C4B50 ??0ERAmbient@@QAE@ABV0@@Z
        233   E8 000C5490 ??0ERAmbient@@QAE@XZ
        234   E9 000C4C50 ??0ERFlee@@QAE@ABV0@@Z
        235   EA 000C54D0 ??0ERFlee@@QAE@XZ
        236   EB 000C4D50 ??0ERSleep@@QAE@ABV0@@Z
        237   EC 000C5510 ??0ERSleep@@QAE@XZ
        238   ED 00013420 ??0ERaiseGun@@QAE@ABV0@@Z
        239   EE 000B17D0 ??0ERaiseGun@@QAE@XZ
        240   EF 0000A4A0 ??0ERangeModelDestruction@@QAE@ABV0@@Z
        241   F0 00072C90 ??0ERangeModelDestruction@@QAE@XZ
        242   F1 0000CA10 ??0ERebirth@@QAE@ABV0@@Z
        243   F2 00090F70 ??0ERebirth@@QAE@XZ
        244   F3 00008FC0 ??0EReceiveScore@@QAE@ABV0@@Z
        245   F4 00063310 ??0EReceiveScore@@QAE@XZ
        246   F5 0015FDA0 ??0ERecordBuckVitalShot@@QAE@ABV0@@Z
        247   F6 00161040 ??0ERecordBuckVitalShot@@QAE@XZ
        248   F7 00013640 ??0EReloadGun@@QAE@ABV0@@Z
        249   F8 000B1870 ??0EReloadGun@@QAE@XZ
        250   F9 00008AA0 ??0EReminder@@QAE@ABV0@@Z
        251   FA 000631B0 ??0EReminder@@QAE@XZ
        252   FB 0000AEF0 ??0EReminderInit@@QAE@ABV0@@Z
        253   FC 000C4820 ??0EReminderInit@@QAE@XZ
        254   FD 000AD290 ??0ERest@@QAE@ABV0@@Z
        255   FE 00165520 ??0ERest@@QAE@XZ
        256   FF 0000D670 ??0ERoundChange@@QAE@ABV0@@Z
        257  100 00091360 ??0ERoundChange@@QAE@XZ
        258  101 000CA160 ??0ESBAmbient@@QAE@ABV0@@Z
        259  102 000CAA90 ??0ESBAmbient@@QAE@XZ
        260  103 000CA260 ??0ESBFlee@@QAE@ABV0@@Z
        261  104 000CAAD0 ??0ESBFlee@@QAE@XZ
        262  105 000CA360 ??0ESBSleep@@QAE@ABV0@@Z
        263  106 000CAB10 ??0ESBSleep@@QAE@XZ
        264  107 00015590 ??0ESGAmbient@@QAE@ABV0@@Z
        265  108 000DBF50 ??0ESGAmbient@@QAE@XZ
        266  109 00015690 ??0ESGFlee@@QAE@ABV0@@Z
        267  10A 000DBF90 ??0ESGFlee@@QAE@XZ
        268  10B 00015790 ??0ESGSleep@@QAE@ABV0@@Z
        269  10C 000DBFD0 ??0ESGSleep@@QAE@XZ
        270  10D 000091E0 ??0ESecretFound@@QAE@ABV0@@Z
        271  10E 000633A0 ??0ESecretFound@@QAE@XZ
        272  10F 000527A0 ??0ESetCall@@QAE@ABV0@@Z
        273  110 000535E0 ??0ESetCall@@QAE@XZ
        274  111 00013A40 ??0ESetGunFireOffset@@QAE@ABV0@@Z
        275  112 000B1980 ??0ESetGunFireOffset@@QAE@XZ
        276  113 000124B0 ??0EShotPenalty@@QAE@ABV0@@Z
        277  114 000BC960 ??0EShotPenalty@@QAE@XZ
        278  115 000AD390 ??0ESleep@@QAE@ABV0@@Z
        279  116 00165560 ??0ESleep@@QAE@XZ
        280  117 0000CE40 ??0ESlideTreeStand@@QAE@ABV0@@Z
        281  118 000910B0 ??0ESlideTreeStand@@QAE@XZ
        282  119 000093C0 ??0ESound@@QAE@ABV0@@Z
        283  11A 000633F0 ??0ESound@@QAE@XZ
        284  11B 0000AA10 ??0ESpawnDebris@@QAE@ABV0@@Z
        285  11C 000507F0 ??0ESpawnDebris@@QAE@XZ
        286  11D 0000A800 ??0ESpawnEffect@@QAE@ABV0@@Z
        287  11E 0003BF30 ??0ESpawnEffect@@QAE@XZ
        288  11F 0000A1F0 ??0ESpawnSpray@@QAE@ABV0@@Z
        289  120 00046C40 ??0ESpawnSpray@@QAE@XZ
        290  121 00160C60 ??0EStalkedBuck@@QAE@ABV0@@Z
        291  122 001615F0 ??0EStalkedBuck@@QAE@XZ
        292  123 00160B40 ??0EStalkedDoe@@QAE@ABV0@@Z
        293  124 00161590 ??0EStalkedDoe@@QAE@XZ
        294  125 00008040 ??0EStart@@QAE@ABV0@@Z
        295  126 00062ED0 ??0EStart@@QAE@XZ
        296  127 00008BC0 ??0EStartAttack@@QAE@ABV0@@Z
        297  128 00063200 ??0EStartAttack@@QAE@XZ
        298  129 000524A0 ??0EStartCall@@QAE@ABV0@@Z
        299  12A 00053510 ??0EStartCall@@QAE@XZ
        300  12B 00007F40 ??0EStop@@QAE@ABV0@@Z
        301  12C 00062E80 ??0EStop@@QAE@XZ
        302  12D 00008CC0 ??0EStopAttack@@QAE@ABV0@@Z
        303  12E 00063240 ??0EStopAttack@@QAE@XZ
        304  12F 00008DC0 ??0EStopBlindness@@QAE@ABV0@@Z
        305  130 00063280 ??0EStopBlindness@@QAE@XZ
        306  131 00008EC0 ??0EStopDeafness@@QAE@ABV0@@Z
        307  132 000632C0 ??0EStopDeafness@@QAE@XZ
        308  133 0008D450 ??0EStrength@@QAE@ABV0@@Z
        309  134 000DA7C0 ??0EStrength@@QAE@XZ
        310  135 000ACE30 ??0ESurroundParticleSystemInit@@QAE@ABV0@@Z
        311  136 000E8340 ??0ESurroundParticleSystemInit@@QAE@XZ
        312  137 00160430 ??0ETargetBullsEye@@QAE@ABV0@@Z
        313  138 00161380 ??0ETargetBullsEye@@QAE@XZ
        314  139 000089A0 ??0ETeleportMovingBrush@@QAE@ABV0@@Z
        315  13A 00063160 ??0ETeleportMovingBrush@@QAE@XZ
        316  13B 00015080 ??0EThink@@QAE@ABV0@@Z
        317  13C 000EFEC0 ??0EThink@@QAE@XZ
        318  13D 00014E00 ??0EThinkerInit@@QAE@ABV0@@Z
        319  13E 000EFE20 ??0EThinkerInit@@QAE@XZ
        320  13F 0000C350 ??0ETimeDelayed@@QAE@ABV0@@Z
        321  140 000F0A60 ??0ETimeDelayed@@QAE@XZ
        322  141 00160A40 ??0ETrackedBloodTrail@@QAE@ABV0@@Z
        323  142 00161540 ??0ETrackedBloodTrail@@QAE@XZ
        324  143 00160940 ??0ETrackedBuck@@QAE@ABV0@@Z
        325  144 00161500 ??0ETrackedBuck@@QAE@XZ
        326  145 00160840 ??0ETrackedDoe@@QAE@ABV0@@Z
        327  146 001614C0 ??0ETrackedDoe@@QAE@XZ
        328  147 00008770 ??0ETrigger@@QAE@ABV0@@Z
        329  148 000630C0 ??0ETrigger@@QAE@XZ
        330  149 000345E0 ??0ETruckClicked@@QAE@ABV0@@Z
        331  14A 000F5830 ??0ETruckClicked@@QAE@XZ
        332  14B 000343E0 ??0ETruckFirstPersonView@@QAE@ABV0@@Z
        333  14C 000F57A0 ??0ETruckFirstPersonView@@QAE@XZ
        334  14D 00034810 ??0ETruckLoadATV@@QAE@ABV0@@Z
        335  14E 000F58E0 ??0ETruckLoadATV@@QAE@XZ
        336  14F 000340B0 ??0ETruckStart@@QAE@ABV0@@Z
        337  150 000F56C0 ??0ETruckStart@@QAE@XZ
        338  151 000342E0 ??0ETruckStop@@QAE@ABV0@@Z
        339  152 000F5760 ??0ETruckStop@@QAE@XZ
        340  153 000344E0 ??0ETruckThirdPersonView@@QAE@ABV0@@Z
        341  154 000F57E0 ??0ETruckThirdPersonView@@QAE@XZ
        342  155 00009F90 ??0EUseCall@@QAE@ABV0@@Z
        343  156 000638C0 ??0EUseCall@@QAE@XZ
        344  157 000526A0 ??0EUseNextCall@@QAE@ABV0@@Z
        345  158 00053590 ??0EUseNextCall@@QAE@XZ
        346  159 0008BFC0 ??0EViewInit@@QAE@ABV0@@Z
        347  15A 000BA9D0 ??0EViewInit@@QAE@XZ
        348  15B 00009A50 ??0EVoiceMessage@@QAE@ABV0@@Z
        349  15C 00063700 ??0EVoiceMessage@@QAE@XZ
        350  15D 0000D770 ??0EWorldClick@@QAE@ABV0@@Z
        351  15E 000913B0 ??0EWorldClick@@QAE@XZ
        352  15F 00033F90 ??0GPSCenterView@@QAE@ABV0@@Z
        353  160 00064830 ??0GPSCenterView@@QAE@XZ
        354  161 00033E90 ??0GPSClearWayPoint@@QAE@ABV0@@Z
        355  162 000647F0 ??0GPSClearWayPoint@@QAE@XZ
        356  163 00033A90 ??0GPSModeBig@@QAE@ABV0@@Z
        357  164 000646F0 ??0GPSModeBig@@QAE@XZ
        358  165 00033B90 ??0GPSModeSmall@@QAE@ABV0@@Z
        359  166 00064730 ??0GPSModeSmall@@QAE@XZ
        360  167 00033790 ??0GPSMoveDown@@QAE@ABV0@@Z
        361  168 00064630 ??0GPSMoveDown@@QAE@XZ
        362  169 00033490 ??0GPSMoveLeft@@QAE@ABV0@@Z
        363  16A 00064570 ??0GPSMoveLeft@@QAE@XZ
        364  16B 00033590 ??0GPSMoveRight@@QAE@ABV0@@Z
        365  16C 000645B0 ??0GPSMoveRight@@QAE@XZ
        366  16D 00033690 ??0GPSMoveUp@@QAE@ABV0@@Z
        367  16E 000645F0 ??0GPSMoveUp@@QAE@XZ
        368  16F 00033D90 ??0GPSNextWayPoint@@QAE@ABV0@@Z
        369  170 000647B0 ??0GPSNextWayPoint@@QAE@XZ
        370  171 00033890 ??0GPSRaiseLower@@QAE@ABV0@@Z
        371  172 00064670 ??0GPSRaiseLower@@QAE@XZ
        372  173 00033C90 ??0GPSSetWayPoint@@QAE@ABV0@@Z
        373  174 00064770 ??0GPSSetWayPoint@@QAE@XZ
        374  175 00033990 ??0GPSSwitchModes@@QAE@ABV0@@Z
        375  176 000646B0 ??0GPSSwitchModes@@QAE@XZ
        376  177 00033290 ??0GPSZoomIn@@QAE@ABV0@@Z
        377  178 000644F0 ??0GPSZoomIn@@QAE@XZ
        378  179 00033390 ??0GPSZoomOut@@QAE@ABV0@@Z
        379  17A 00064530 ??0GPSZoomOut@@QAE@XZ
        380  17B 0000AC20 ??0PlayerAnimState@@QAE@XZ
        381  17C 0000ABE0 ??0PlayerStats@@QAE@XZ
        382  17D 0000AEE0 ??1CCompMessageID@@QAE@XZ
        383  17E 00014910 ??1CNavigationMarker@@UAE@XZ
        384  17F 00011830 ??1CPlayer@@UAE@XZ
        385  180 0008CC80 ??1CPlayerView@@UAE@XZ
        386  181 000ACCD0 ??1CPulser@@UAE@XZ
        387  182 0000B320 ??1CReminder@@UAE@XZ
        388  183 000153D0 ??1EAIMoveFinished@@UAE@XZ
        389  184 000154D0 ??1EAIMovePointHit@@UAE@XZ
        390  185 00034DF0 ??1EATVClicked@@UAE@XZ
        391  186 00035030 ??1EATVLoadOnTruck@@UAE@XZ
        392  187 00034AC0 ??1EATVStart@@UAE@XZ
        393  188 00034CC0 ??1EATVStop@@UAE@XZ
        394  189 000352A0 ??1EATVUnloadOffTruck@@UAE@XZ
        395  18A 000082B0 ??1EActivate@@UAE@XZ
        396  18B 000141A0 ??1EAimLeft@@UAE@XZ
        397  18C 000142A0 ??1EAimRight@@UAE@XZ
        398  18D 0000D220 ??1EAnimalClaimed@@UAE@XZ
        399  18E 00014BB0 ??1EAnimalInit@@UAE@XZ
        400  18F 0008D5C0 ??1EAnimatorInit@@UAE@XZ
        401  190 0000CC80 ??1EAutoAction@@UAE@XZ
        402  191 00015D30 ??1EBBAEat@@UAE@XZ
        403  192 00016530 ??1EBBAFlare@@UAE@XZ
        404  193 00015B30 ??1EBBAFly@@UAE@XZ
        405  194 00015C30 ??1EBBAFlyFast@@UAE@XZ
        406  195 00016230 ??1EBBALand@@UAE@XZ
        407  196 00016330 ??1EBBALandOnNormal@@UAE@XZ
        408  197 00015F30 ??1EBBARest@@UAE@XZ
        409  198 00015E30 ??1EBBARoost@@UAE@XZ
        410  199 00016130 ??1EBBARunTakeoff@@UAE@XZ
        411  19A 00016430 ??1EBBAStandby@@UAE@XZ
        412  19B 00016030 ??1EBBAVTakeoff@@UAE@XZ
        413  19C 00016630 ??1EBBAWounded@@UAE@XZ
        414  19D 001319E0 ??1EBMSDrink@@UAE@XZ
        415  19E 001318E0 ??1EBMSEat@@UAE@XZ
        416  19F 001317E0 ??1EBMSFlee@@UAE@XZ
        417  1A0 00131BE0 ??1EBMSIdle@@UAE@XZ
        418  1A1 00131CE0 ??1EBMSIgnore@@UAE@XZ
        419  1A2 00131AE0 ??1EBMSRoost@@UAE@XZ
        420  1A3 00047790 ??1EBoatClicked@@UAE@XZ
        421  1A4 00047460 ??1EBoatStart@@UAE@XZ
        422  1A5 00047660 ??1EBoatStop@@UAE@XZ
        423  1A6 0007A700 ??1EBrushDestroyed@@UAE@XZ
        424  1A7 001600B0 ??1EBuckVitalShot@@UAE@XZ
        425  1A8 000159B0 ??1ECallMade@@UAE@XZ
        426  1A9 00160780 ??1ECalledBuck@@UAE@XZ
        427  1AA 00160680 ??1ECalledDoe@@UAE@XZ
        428  1AB 0000C620 ??1ECameraStart@@UAE@XZ
        429  1AC 0000C850 ??1ECameraStop@@UAE@XZ
        430  1AD 000096D0 ??1ECenterMessage@@UAE@XZ
        431  1AE 0000A680 ??1EChangeAnim@@UAE@XZ
        432  1AF 00069FE0 ??1EChangeGravity@@UAE@XZ
        433  1B0 00012300 ??1EChangeMusic@@UAE@XZ
        434  1B1 00017130 ??1EChaseAmbientAnimal@@UAE@XZ
        435  1B2 00009DD0 ??1EClicked@@UAE@XZ
        436  1B3 000098F0 ??1EComputerMessage@@UAE@XZ
        437  1B4 000083B0 ??1EDeactivate@@UAE@XZ
        438  1B5 00043E00 ??1EDecoyStart@@UAE@XZ
        439  1B6 00052950 ??1EDeerCallInit@@UAE@XZ
        440  1B7 00052C60 ??1EDeerCallMade@@UAE@XZ
        441  1B8 00055010 ??1EDeerDecoyRecalled@@UAE@XZ
        442  1B9 00054DE0 ??1EDeerDecoyStart@@UAE@XZ
        443  1BA 0000CB50 ??1EDisconnected@@UAE@XZ
        444  1BB 00051520 ??1EDoDecal@@UAE@XZ
        445  1BC 001602D0 ??1EDoeVitalShot@@UAE@XZ
        446  1BD 00017030 ??1EDogEndRide@@UAE@XZ
        447  1BE 00016A30 ??1EDogFetch@@UAE@XZ
        448  1BF 00016D30 ??1EDogFlush@@UAE@XZ
        449  1C0 00016830 ??1EDogHeel@@UAE@XZ
        450  1C1 00016B30 ??1EDogHunt@@UAE@XZ
        451  1C2 00016730 ??1EDogIPlay@@UAE@XZ
        452  1C3 00016C30 ??1EDogPoint@@UAE@XZ
        453  1C4 00016F30 ??1EDogRideInBoat@@UAE@XZ
        454  1C5 00016E30 ??1EDogRideInTruck@@UAE@XZ
        455  1C6 00016930 ??1EDogStay@@UAE@XZ
        456  1C7 000AD1D0 ??1EEat@@UAE@XZ
        457  1C8 000086B0 ??1EEnd@@UAE@XZ
        458  1C9 000525E0 ??1EEndCall@@UAE@XZ
        459  1CA 0008CE30 ??1EEnteredLauncher@@UAE@XZ
        460  1CB 000084B0 ??1EEnvironmentStart@@UAE@XZ
        461  1CC 000085B0 ??1EEnvironmentStop@@UAE@XZ
        462  1CD 00013360 ??1EFireGun@@UAE@XZ
        463  1CE 000AD0D0 ??1EFlee@@UAE@XZ
        464  1CF 000683A0 ??1EGrasshopperParticlesInit@@UAE@XZ
        465  1D0 00013120 ??1EGunInit@@UAE@XZ
        466  1D1 00013880 ??1EGunIsUp@@UAE@XZ
        467  1D2 00013980 ??1EGunNotUp@@UAE@XZ
        468  1D3 000C82B0 ??1EHarbor@@UAE@XZ
        469  1D4 00013780 ??1EHeartbeat@@UAE@XZ
        470  1D5 0007A600 ??1EHit@@UAE@XZ
        471  1D6 00009CA0 ??1EHitBySpaceShipBeam@@UAE@XZ
        472  1D7 0008D810 ??1EInitStand@@UAE@XZ
        473  1D8 0000CFF0 ??1EKilledDeer@@UAE@XZ
        474  1D9 00009120 ??1EKilledEnemy@@UAE@XZ
        475  1DA 0006BE90 ??1ELAAmbient@@UAE@XZ
        476  1DB 0006BF90 ??1ELAFlee@@UAE@XZ
        477  1DC 0006C090 ??1ELASleep@@UAE@XZ
        478  1DD 0008D060 ??1ELaunchSkeet@@UAE@XZ
        479  1DE 0008D290 ??1ELaunchTrap@@UAE@XZ
        480  1DF 00013570 ??1ELowerGun@@UAE@XZ
        481  1E0 00012DD0 ??1EMemberNotify@@UAE@XZ
        482  1E1 0000DA50 ??1EMessage@@UAE@XZ
        483  1E2 00013CA0 ??1EPin1Down@@UAE@XZ
        484  1E3 00013BA0 ??1EPin1Up@@UAE@XZ
        485  1E4 00013EA0 ??1EPin2Down@@UAE@XZ
        486  1E5 00013DA0 ??1EPin2Up@@UAE@XZ
        487  1E6 000140A0 ??1EPin3Down@@UAE@XZ
        488  1E7 00013FA0 ??1EPin3Up@@UAE@XZ
        489  1E8 0000D590 ??1EPlayerFired@@UAE@XZ
        490  1E9 0000D450 ??1EProfileScore@@UAE@XZ
        491  1EA 00012980 ??1EProjectileHit@@UAE@XZ
        492  1EB 00012C30 ??1EProjectileInit@@UAE@XZ
        493  1EC 000AC9B0 ??1EPulse@@UAE@XZ
        494  1ED 000151C0 ??1EPulseAnimation@@UAE@XZ
        495  1EE 000152C0 ??1EPulseMover@@UAE@XZ
        496  1EF 000AC7A0 ??1EPulserInit@@UAE@XZ
        497  1F0 000C4B90 ??1ERAmbient@@UAE@XZ
        498  1F1 000C4C90 ??1ERFlee@@UAE@XZ
        499  1F2 000C4D90 ??1ERSleep@@UAE@XZ
        500  1F3 00013460 ??1ERaiseGun@@UAE@XZ
        501  1F4 0000A4E0 ??1ERangeModelDestruction@@UAE@XZ
        502  1F5 0000CA50 ??1ERebirth@@UAE@XZ
        503  1F6 00009010 ??1EReceiveScore@@UAE@XZ
        504  1F7 0015FE70 ??1ERecordBuckVitalShot@@UAE@XZ
        505  1F8 00013680 ??1EReloadGun@@UAE@XZ
        506  1F9 00008AF0 ??1EReminder@@UAE@XZ
        507  1FA 0000AF80 ??1EReminderInit@@UAE@XZ
        508  1FB 000AD2D0 ??1ERest@@UAE@XZ
        509  1FC 0000D6B0 ??1ERoundChange@@UAE@XZ
        510  1FD 000CA1A0 ??1ESBAmbient@@UAE@XZ
        511  1FE 000CA2A0 ??1ESBFlee@@UAE@XZ
        512  1FF 000CA3A0 ??1ESBSleep@@UAE@XZ
        513  200 000155D0 ??1ESGAmbient@@UAE@XZ
        514  201 000156D0 ??1ESGFlee@@UAE@XZ
        515  202 000157D0 ??1ESGSleep@@UAE@XZ
        516  203 00009220 ??1ESecretFound@@UAE@XZ
        517  204 000527F0 ??1ESetCall@@UAE@XZ
        518  205 00013A90 ??1ESetGunFireOffset@@UAE@XZ
        519  206 000125D0 ??1EShotPenalty@@UAE@XZ
        520  207 000AD3D0 ??1ESleep@@UAE@XZ
        521  208 0000CE90 ??1ESlideTreeStand@@UAE@XZ
        522  209 00009450 ??1ESound@@UAE@XZ
        523  20A 0000AAE0 ??1ESpawnDebris@@UAE@XZ
        524  20B 0000A8F0 ??1ESpawnEffect@@UAE@XZ
        525  20C 0000A2C0 ??1ESpawnSpray@@UAE@XZ
        526  20D 00160CB0 ??1EStalkedBuck@@UAE@XZ
        527  20E 00160B90 ??1EStalkedDoe@@UAE@XZ
        528  20F 000080B0 ??1EStart@@UAE@XZ
        529  210 00008C00 ??1EStartAttack@@UAE@XZ
        530  211 000524E0 ??1EStartCall@@UAE@XZ
        531  212 00007F80 ??1EStop@@UAE@XZ
        532  213 00008D00 ??1EStopAttack@@UAE@XZ
        533  214 00008E00 ??1EStopBlindness@@UAE@XZ
        534  215 00008F00 ??1EStopDeafness@@UAE@XZ
        535  216 0008D490 ??1EStrength@@UAE@XZ
        536  217 000ACEA0 ??1ESurroundParticleSystemInit@@UAE@XZ
        537  218 001604E0 ??1ETargetBullsEye@@UAE@XZ
        538  219 000089E0 ??1ETeleportMovingBrush@@UAE@XZ
        539  21A 000150C0 ??1EThink@@UAE@XZ
        540  21B 00014EB0 ??1EThinkerInit@@UAE@XZ
        541  21C 0000C400 ??1ETimeDelayed@@UAE@XZ
        542  21D 00160A80 ??1ETrackedBloodTrail@@UAE@XZ
        543  21E 00160980 ??1ETrackedBuck@@UAE@XZ
        544  21F 00160880 ??1ETrackedDoe@@UAE@XZ
        545  220 000087E0 ??1ETrigger@@UAE@XZ
        546  221 00034650 ??1ETruckClicked@@UAE@XZ
        547  222 00034420 ??1ETruckFirstPersonView@@UAE@XZ
        548  223 00034880 ??1ETruckLoadATV@@UAE@XZ
        549  224 00034120 ??1ETruckStart@@UAE@XZ
        550  225 00034320 ??1ETruckStop@@UAE@XZ
        551  226 00034520 ??1ETruckThirdPersonView@@UAE@XZ
        552  227 0000A020 ??1EUseCall@@UAE@XZ
        553  228 000526E0 ??1EUseNextCall@@UAE@XZ
        554  229 0008C090 ??1EViewInit@@UAE@XZ
        555  22A 00009B00 ??1EVoiceMessage@@UAE@XZ
        556  22B 0000D7E0 ??1EWorldClick@@UAE@XZ
        557  22C 00033FD0 ??1GPSCenterView@@UAE@XZ
        558  22D 00033ED0 ??1GPSClearWayPoint@@UAE@XZ
        559  22E 00033AD0 ??1GPSModeBig@@UAE@XZ
        560  22F 00033BD0 ??1GPSModeSmall@@UAE@XZ
        561  230 000337D0 ??1GPSMoveDown@@UAE@XZ
        562  231 000334D0 ??1GPSMoveLeft@@UAE@XZ
        563  232 000335D0 ??1GPSMoveRight@@UAE@XZ
        564  233 000336D0 ??1GPSMoveUp@@UAE@XZ
        565  234 00033DD0 ??1GPSNextWayPoint@@UAE@XZ
        566  235 000338D0 ??1GPSRaiseLower@@UAE@XZ
        567  236 00033CD0 ??1GPSSetWayPoint@@UAE@XZ
        568  237 000339D0 ??1GPSSwitchModes@@UAE@XZ
        569  238 000332D0 ??1GPSZoomIn@@UAE@XZ
        570  239 000333D0 ??1GPSZoomOut@@UAE@XZ
        571  23A 0000AE90 ??4CCompMessageID@@QAEAAV0@ABV0@@Z
        572  23B 00014700 ??4CNavigationMarker@@QAEAAV0@AAV0@@Z
        573  23C 00081090 ??4CPathNode@@QAEAAV0@ABV0@@Z
        574  23D 0000FCB0 ??4CPlayer@@QAEAAV0@AAV0@@Z
        575  23E 0008C7C0 ??4CPlayerView@@QAEAAV0@AAV0@@Z
        576  23F 000ACBC0 ??4CPulser@@QAEAAV0@AAV0@@Z
        577  240 0000B210 ??4CReminder@@QAEAAV0@AAV0@@Z
        578  241 000153B0 ??4EAIMoveFinished@@QAEAAV0@ABV0@@Z
        579  242 000154B0 ??4EAIMovePointHit@@QAEAAV0@ABV0@@Z
        580  243 00034DB0 ??4EATVClicked@@QAEAAV0@ABV0@@Z
        581  244 00034FF0 ??4EATVLoadOnTruck@@QAEAAV0@ABV0@@Z
        582  245 00034A80 ??4EATVStart@@QAEAAV0@ABV0@@Z
        583  246 00034CA0 ??4EATVStop@@QAEAAV0@ABV0@@Z
        584  247 00035230 ??4EATVUnloadOffTruck@@QAEAAV0@ABV0@@Z
        585  248 00008290 ??4EActivate@@QAEAAV0@ABV0@@Z
        586  249 00014180 ??4EAimLeft@@QAEAAV0@ABV0@@Z
        587  24A 00014280 ??4EAimRight@@QAEAAV0@ABV0@@Z
        588  24B 0000D1E0 ??4EAnimalClaimed@@QAEAAV0@ABV0@@Z
        589  24C 00014B20 ??4EAnimalInit@@QAEAAV0@ABV0@@Z
        590  24D 0008D580 ??4EAnimatorInit@@QAEAAV0@ABV0@@Z
        591  24E 0000CC40 ??4EAutoAction@@QAEAAV0@ABV0@@Z
        592  24F 00015D10 ??4EBBAEat@@QAEAAV0@ABV0@@Z
        593  250 00016510 ??4EBBAFlare@@QAEAAV0@ABV0@@Z
        594  251 00015B10 ??4EBBAFly@@QAEAAV0@ABV0@@Z
        595  252 00015C10 ??4EBBAFlyFast@@QAEAAV0@ABV0@@Z
        596  253 00016210 ??4EBBALand@@QAEAAV0@ABV0@@Z
        597  254 00016310 ??4EBBALandOnNormal@@QAEAAV0@ABV0@@Z
        598  255 00015F10 ??4EBBARest@@QAEAAV0@ABV0@@Z
        599  256 00015E10 ??4EBBARoost@@QAEAAV0@ABV0@@Z
        600  257 00016110 ??4EBBARunTakeoff@@QAEAAV0@ABV0@@Z
        601  258 00016410 ??4EBBAStandby@@QAEAAV0@ABV0@@Z
        602  259 00016010 ??4EBBAVTakeoff@@QAEAAV0@ABV0@@Z
        603  25A 00016610 ??4EBBAWounded@@QAEAAV0@ABV0@@Z
        604  25B 001319C0 ??4EBMSDrink@@QAEAAV0@ABV0@@Z
        605  25C 001318C0 ??4EBMSEat@@QAEAAV0@ABV0@@Z
        606  25D 001317C0 ??4EBMSFlee@@QAEAAV0@ABV0@@Z
        607  25E 00131BC0 ??4EBMSIdle@@QAEAAV0@ABV0@@Z
        608  25F 00131CC0 ??4EBMSIgnore@@QAEAAV0@ABV0@@Z
        609  260 00131AC0 ??4EBMSRoost@@QAEAAV0@ABV0@@Z
        610  261 00047750 ??4EBoatClicked@@QAEAAV0@ABV0@@Z
        611  262 00047420 ??4EBoatStart@@QAEAAV0@ABV0@@Z
        612  263 00047640 ??4EBoatStop@@QAEAAV0@ABV0@@Z
        613  264 0007A6E0 ??4EBrushDestroyed@@QAEAAV0@ABV0@@Z
        614  265 00160060 ??4EBuckVitalShot@@QAEAAV0@ABV0@@Z
        615  266 00015920 ??4ECallMade@@QAEAAV0@ABV0@@Z
        616  267 00160760 ??4ECalledBuck@@QAEAAV0@ABV0@@Z
        617  268 00160660 ??4ECalledDoe@@QAEAAV0@ABV0@@Z
        618  269 0000C5E0 ??4ECameraStart@@QAEAAV0@ABV0@@Z
        619  26A 0000C810 ??4ECameraStop@@QAEAAV0@ABV0@@Z
        620  26B 00009680 ??4ECenterMessage@@QAEAAV0@ABV0@@Z
        621  26C 0000A630 ??4EChangeAnim@@QAEAAV0@ABV0@@Z
        622  26D 00069FA0 ??4EChangeGravity@@QAEAAV0@ABV0@@Z
        623  26E 000122B0 ??4EChangeMusic@@QAEAAV0@ABV0@@Z
        624  26F 00017110 ??4EChaseAmbientAnimal@@QAEAAV0@ABV0@@Z
        625  270 00009D90 ??4EClicked@@QAEAAV0@ABV0@@Z
        626  271 000098B0 ??4EComputerMessage@@QAEAAV0@ABV0@@Z
        627  272 00008390 ??4EDeactivate@@QAEAAV0@ABV0@@Z
        628  273 00043DA0 ??4EDecoyStart@@QAEAAV0@ABV0@@Z
        629  274 00052900 ??4EDeerCallInit@@QAEAAV0@ABV0@@Z
        630  275 00052BB0 ??4EDeerCallMade@@QAEAAV0@ABV0@@Z
        631  276 00054FD0 ??4EDeerDecoyRecalled@@QAEAAV0@ABV0@@Z
        632  277 00054D90 ??4EDeerDecoyStart@@QAEAAV0@ABV0@@Z
        633  278 0000CB30 ??4EDisconnected@@QAEAAV0@ABV0@@Z
        634  279 000514B0 ??4EDoDecal@@QAEAAV0@ABV0@@Z
        635  27A 00160290 ??4EDoeVitalShot@@QAEAAV0@ABV0@@Z
        636  27B 00017010 ??4EDogEndRide@@QAEAAV0@ABV0@@Z
        637  27C 00016A10 ??4EDogFetch@@QAEAAV0@ABV0@@Z
        638  27D 00016D10 ??4EDogFlush@@QAEAAV0@ABV0@@Z
        639  27E 00016810 ??4EDogHeel@@QAEAAV0@ABV0@@Z
        640  27F 00016B10 ??4EDogHunt@@QAEAAV0@ABV0@@Z
        641  280 00016710 ??4EDogIPlay@@QAEAAV0@ABV0@@Z
        642  281 00016C10 ??4EDogPoint@@QAEAAV0@ABV0@@Z
        643  282 00016F10 ??4EDogRideInBoat@@QAEAAV0@ABV0@@Z
        644  283 00016E10 ??4EDogRideInTruck@@QAEAAV0@ABV0@@Z
        645  284 00016910 ??4EDogStay@@QAEAAV0@ABV0@@Z
        646  285 000AD1B0 ??4EEat@@QAEAAV0@ABV0@@Z
        647  286 00008690 ??4EEnd@@QAEAAV0@ABV0@@Z
        648  287 000525C0 ??4EEndCall@@QAEAAV0@ABV0@@Z
        649  288 0008CDF0 ??4EEnteredLauncher@@QAEAAV0@ABV0@@Z
        650  289 00008490 ??4EEnvironmentStart@@QAEAAV0@ABV0@@Z
        651  28A 00008590 ??4EEnvironmentStop@@QAEAAV0@ABV0@@Z
        652  28B 00013340 ??4EFireGun@@QAEAAV0@ABV0@@Z
        653  28C 000AD0B0 ??4EFlee@@QAEAAV0@ABV0@@Z
        654  28D 00068350 ??4EGrasshopperParticlesInit@@QAEAAV0@ABV0@@Z
        655  28E 000130B0 ??4EGunInit@@QAEAAV0@ABV0@@Z
        656  28F 00013860 ??4EGunIsUp@@QAEAAV0@ABV0@@Z
        657  290 00013960 ??4EGunNotUp@@QAEAAV0@ABV0@@Z
        658  291 000C8290 ??4EHarbor@@QAEAAV0@ABV0@@Z
        659  292 00013760 ??4EHeartbeat@@QAEAAV0@ABV0@@Z
        660  293 0007A5E0 ??4EHit@@QAEAAV0@ABV0@@Z
        661  294 00009C80 ??4EHitBySpaceShipBeam@@QAEAAV0@ABV0@@Z
        662  295 0008D7C0 ??4EInitStand@@QAEAAV0@ABV0@@Z
        663  296 0000CFA0 ??4EKilledDeer@@QAEAAV0@ABV0@@Z
        664  297 00009100 ??4EKilledEnemy@@QAEAAV0@ABV0@@Z
        665  298 0006BE70 ??4ELAAmbient@@QAEAAV0@ABV0@@Z
        666  299 0006BF70 ??4ELAFlee@@QAEAAV0@ABV0@@Z
        667  29A 0006C070 ??4ELASleep@@QAEAAV0@ABV0@@Z
        668  29B 0008D020 ??4ELaunchSkeet@@QAEAAV0@ABV0@@Z
        669  29C 0008D250 ??4ELaunchTrap@@QAEAAV0@ABV0@@Z
        670  29D 00013550 ??4ELowerGun@@QAEAAV0@ABV0@@Z
        671  29E 00012D60 ??4EMemberNotify@@QAEAAV0@ABV0@@Z
        672  29F 0000DA10 ??4EMessage@@QAEAAV0@ABV0@@Z
        673  2A0 00013C80 ??4EPin1Down@@QAEAAV0@ABV0@@Z
        674  2A1 00013B80 ??4EPin1Up@@QAEAAV0@ABV0@@Z
        675  2A2 00013E80 ??4EPin2Down@@QAEAAV0@ABV0@@Z
        676  2A3 00013D80 ??4EPin2Up@@QAEAAV0@ABV0@@Z
        677  2A4 00014080 ??4EPin3Down@@QAEAAV0@ABV0@@Z
        678  2A5 00013F80 ??4EPin3Up@@QAEAAV0@ABV0@@Z
        679  2A6 0000D560 ??4EPlayerFired@@QAEAAV0@ABV0@@Z
        680  2A7 0000D420 ??4EProfileScore@@QAEAAV0@ABV0@@Z
        681  2A8 000128C0 ??4EProjectileHit@@QAEAAV0@ABV0@@Z
        682  2A9 00012C10 ??4EProjectileInit@@QAEAAV0@ABV0@@Z
        683  2AA 000AC990 ??4EPulse@@QAEAAV0@ABV0@@Z
        684  2AB 000151A0 ??4EPulseAnimation@@QAEAAV0@ABV0@@Z
        685  2AC 000152A0 ??4EPulseMover@@QAEAAV0@ABV0@@Z
        686  2AD 000AC760 ??4EPulserInit@@QAEAAV0@ABV0@@Z
        687  2AE 000C4B70 ??4ERAmbient@@QAEAAV0@ABV0@@Z
        688  2AF 000C4C70 ??4ERFlee@@QAEAAV0@ABV0@@Z
        689  2B0 000C4D70 ??4ERSleep@@QAEAAV0@ABV0@@Z
        690  2B1 00013440 ??4ERaiseGun@@QAEAAV0@ABV0@@Z
        691  2B2 0000A4C0 ??4ERangeModelDestruction@@QAEAAV0@ABV0@@Z
        692  2B3 0000CA30 ??4ERebirth@@QAEAAV0@ABV0@@Z
        693  2B4 00008FF0 ??4EReceiveScore@@QAEAAV0@ABV0@@Z
        694  2B5 0015FE20 ??4ERecordBuckVitalShot@@QAEAAV0@ABV0@@Z
        695  2B6 00013660 ??4EReloadGun@@QAEAAV0@ABV0@@Z
        696  2B7 00008AD0 ??4EReminder@@QAEAAV0@ABV0@@Z
        697  2B8 0000AF30 ??4EReminderInit@@QAEAAV0@ABV0@@Z
        698  2B9 000AD2B0 ??4ERest@@QAEAAV0@ABV0@@Z
        699  2BA 0000D690 ??4ERoundChange@@QAEAAV0@ABV0@@Z
        700  2BB 000CA180 ??4ESBAmbient@@QAEAAV0@ABV0@@Z
        701  2BC 000CA280 ??4ESBFlee@@QAEAAV0@ABV0@@Z
        702  2BD 000CA380 ??4ESBSleep@@QAEAAV0@ABV0@@Z
        703  2BE 000155B0 ??4ESGAmbient@@QAEAAV0@ABV0@@Z
        704  2BF 000156B0 ??4ESGFlee@@QAEAAV0@ABV0@@Z
        705  2C0 000157B0 ??4ESGSleep@@QAEAAV0@ABV0@@Z
        706  2C1 00009200 ??4ESecretFound@@QAEAAV0@ABV0@@Z
        707  2C2 000527D0 ??4ESetCall@@QAEAAV0@ABV0@@Z
        708  2C3 00013A70 ??4ESetGunFireOffset@@QAEAAV0@ABV0@@Z
        709  2C4 00012540 ??4EShotPenalty@@QAEAAV0@ABV0@@Z
        710  2C5 000AD3B0 ??4ESleep@@QAEAAV0@ABV0@@Z
        711  2C6 0000CE70 ??4ESlideTreeStand@@QAEAAV0@ABV0@@Z
        712  2C7 00009400 ??4ESound@@QAEAAV0@ABV0@@Z
        713  2C8 0000AA80 ??4ESpawnDebris@@QAEAAV0@ABV0@@Z
        714  2C9 0000A880 ??4ESpawnEffect@@QAEAAV0@ABV0@@Z
        715  2CA 0000A250 ??4ESpawnSpray@@QAEAAV0@ABV0@@Z
        716  2CB 00160C90 ??4EStalkedBuck@@QAEAAV0@ABV0@@Z
        717  2CC 00160B70 ??4EStalkedDoe@@QAEAAV0@ABV0@@Z
        718  2CD 00008070 ??4EStart@@QAEAAV0@ABV0@@Z
        719  2CE 00008BE0 ??4EStartAttack@@QAEAAV0@ABV0@@Z
        720  2CF 000524C0 ??4EStartCall@@QAEAAV0@ABV0@@Z
        721  2D0 00007F60 ??4EStop@@QAEAAV0@ABV0@@Z
        722  2D1 00008CE0 ??4EStopAttack@@QAEAAV0@ABV0@@Z
        723  2D2 00008DE0 ??4EStopBlindness@@QAEAAV0@ABV0@@Z
        724  2D3 00008EE0 ??4EStopDeafness@@QAEAAV0@ABV0@@Z
        725  2D4 0008D470 ??4EStrength@@QAEAAV0@ABV0@@Z
        726  2D5 000ACE60 ??4ESurroundParticleSystemInit@@QAEAAV0@ABV0@@Z
        727  2D6 001604A0 ??4ETargetBullsEye@@QAEAAV0@ABV0@@Z
        728  2D7 000089C0 ??4ETeleportMovingBrush@@QAEAAV0@ABV0@@Z
        729  2D8 000150A0 ??4EThink@@QAEAAV0@ABV0@@Z
        730  2D9 00014E50 ??4EThinkerInit@@QAEAAV0@ABV0@@Z
        731  2DA 0000C3C0 ??4ETimeDelayed@@QAEAAV0@ABV0@@Z
        732  2DB 00160A60 ??4ETrackedBloodTrail@@QAEAAV0@ABV0@@Z
        733  2DC 00160960 ??4ETrackedBuck@@QAEAAV0@ABV0@@Z
        734  2DD 00160860 ??4ETrackedDoe@@QAEAAV0@ABV0@@Z
        735  2DE 000087A0 ??4ETrigger@@QAEAAV0@ABV0@@Z
        736  2DF 00034610 ??4ETruckClicked@@QAEAAV0@ABV0@@Z
        737  2E0 00034400 ??4ETruckFirstPersonView@@QAEAAV0@ABV0@@Z
        738  2E1 00034840 ??4ETruckLoadATV@@QAEAAV0@ABV0@@Z
        739  2E2 000340E0 ??4ETruckStart@@QAEAAV0@ABV0@@Z
        740  2E3 00034300 ??4ETruckStop@@QAEAAV0@ABV0@@Z
        741  2E4 00034500 ??4ETruckThirdPersonView@@QAEAAV0@ABV0@@Z
        742  2E5 00009FD0 ??4EUseCall@@QAEAAV0@ABV0@@Z
        743  2E6 000526C0 ??4EUseNextCall@@QAEAAV0@ABV0@@Z
        744  2E7 0008C010 ??4EViewInit@@QAEAAV0@ABV0@@Z
        745  2E8 00009AC0 ??4EVoiceMessage@@QAEAAV0@ABV0@@Z
        746  2E9 0000D7A0 ??4EWorldClick@@QAEAAV0@ABV0@@Z
        747  2EA 00033FB0 ??4GPSCenterView@@QAEAAV0@ABV0@@Z
        748  2EB 00033EB0 ??4GPSClearWayPoint@@QAEAAV0@ABV0@@Z
        749  2EC 00033AB0 ??4GPSModeBig@@QAEAAV0@ABV0@@Z
        750  2ED 00033BB0 ??4GPSModeSmall@@QAEAAV0@ABV0@@Z
        751  2EE 000337B0 ??4GPSMoveDown@@QAEAAV0@ABV0@@Z
        752  2EF 000334B0 ??4GPSMoveLeft@@QAEAAV0@ABV0@@Z
        753  2F0 000335B0 ??4GPSMoveRight@@QAEAAV0@ABV0@@Z
        754  2F1 000336B0 ??4GPSMoveUp@@QAEAAV0@ABV0@@Z
        755  2F2 00033DB0 ??4GPSNextWayPoint@@QAEAAV0@ABV0@@Z
        756  2F3 000338B0 ??4GPSRaiseLower@@QAEAAV0@ABV0@@Z
        757  2F4 00033CB0 ??4GPSSetWayPoint@@QAEAAV0@ABV0@@Z
        758  2F5 000339B0 ??4GPSSwitchModes@@QAEAAV0@ABV0@@Z
        759  2F6 000332B0 ??4GPSZoomIn@@QAEAAV0@ABV0@@Z
        760  2F7 000333B0 ??4GPSZoomOut@@QAEAAV0@ABV0@@Z
        761  2F8 0000AE00 ??4PlayerAnimState@@QAEAAU0@ABU0@@Z
        762  2F9 0000AC00 ??4PlayerStats@@QAEAAU0@ABU0@@Z
        763  2FA 00196014 ??_7CNavigationMarker@@6B@
        764  2FB 00195E04 ??_7CPlayer@@6B@
        765  2FC 0019C4D4 ??_7CPlayerView@@6B@
        766  2FD 0019C660 ??_7CPulser@@6B@
        767  2FE 00195C48 ??_7CReminder@@6B@
        768  2FF 00196170 ??_7EAIMoveFinished@@6B@
        769  300 00196178 ??_7EAIMovePointHit@@6B@
        770  301 00196FA4 ??_7EATVClicked@@6B@
        771  302 00196FAC ??_7EATVLoadOnTruck@@6B@
        772  303 00196F94 ??_7EATVStart@@6B@
        773  304 00196F9C ??_7EATVStop@@6B@
        774  305 00196FB4 ??_7EATVUnloadOffTruck@@6B@
        775  306 00195B68 ??_7EActivate@@6B@
        776  307 00196004 ??_7EAimLeft@@6B@
        777  308 0019600C ??_7EAimRight@@6B@
        778  309 00195DD4 ??_7EAnimalClaimed@@6B@
        779  30A 00196148 ??_7EAnimalInit@@6B@
        780  30B 0019C640 ??_7EAnimatorInit@@6B@
        781  30C 00195DBC ??_7EAutoAction@@6B@
        782  30D 001961B0 ??_7EBBAEat@@6B@
        783  30E 001961F0 ??_7EBBAFlare@@6B@
        784  30F 001961A0 ??_7EBBAFly@@6B@
        785  310 001961A8 ??_7EBBAFlyFast@@6B@
        786  311 001961D8 ??_7EBBALand@@6B@
        787  312 001961E0 ??_7EBBALandOnNormal@@6B@
        788  313 001961C0 ??_7EBBARest@@6B@
        789  314 001961B8 ??_7EBBARoost@@6B@
        790  315 001961D0 ??_7EBBARunTakeoff@@6B@
        791  316 001961E8 ??_7EBBAStandby@@6B@
        792  317 001961C8 ??_7EBBAVTakeoff@@6B@
        793  318 001961F8 ??_7EBBAWounded@@6B@
        794  319 001A0E84 ??_7EBMSDrink@@6B@
        795  31A 001A0E7C ??_7EBMSEat@@6B@
        796  31B 001A0E74 ??_7EBMSFlee@@6B@
        797  31C 001A0E94 ??_7EBMSIdle@@6B@
        798  31D 001A0E9C ??_7EBMSIgnore@@6B@
        799  31E 001A0E8C ??_7EBMSRoost@@6B@
        800  31F 001985E4 ??_7EBoatClicked@@6B@
        801  320 001985D4 ??_7EBoatStart@@6B@
        802  321 001985DC ??_7EBoatStop@@6B@
        803  322 0019BA4C ??_7EBrushDestroyed@@6B@
        804  323 001A1B5C ??_7EBuckVitalShot@@6B@
        805  324 00196198 ??_7ECallMade@@6B@
        806  325 001A1B7C ??_7ECalledBuck@@6B@
        807  326 001A1B74 ??_7ECalledDoe@@6B@
        808  327 00195D9C ??_7ECameraStart@@6B@
        809  328 00195DA4 ??_7ECameraStop@@6B@
        810  329 00195BE8 ??_7ECenterMessage@@6B@
        811  32A 00195C28 ??_7EChangeAnim@@6B@
        812  32B 0019AA9C ??_7EChangeGravity@@6B@
        813  32C 00195F64 ??_7EChangeMusic@@6B@
        814  32D 00196250 ??_7EChaseAmbientAnimal@@6B@
        815  32E 00195C08 ??_7EClicked@@6B@
        816  32F 00195BF0 ??_7EComputerMessage@@6B@
        817  330 00195B70 ??_7EDeactivate@@6B@
        818  331 001980AC ??_7EDecoyStart@@6B@
        819  332 0019931C ??_7EDeerCallInit@@6B@
        820  333 00199324 ??_7EDeerCallMade@@6B@
        821  334 00199480 ??_7EDeerDecoyRecalled@@6B@
        822  335 00199478 ??_7EDeerDecoyStart@@6B@
        823  336 00195DB4 ??_7EDisconnected@@6B@
        824  337 001991A8 ??_7EDoDecal@@6B@
        825  338 001A1B64 ??_7EDoeVitalShot@@6B@
        826  339 00196248 ??_7EDogEndRide@@6B@
        827  33A 00196218 ??_7EDogFetch@@6B@
        828  33B 00196230 ??_7EDogFlush@@6B@
        829  33C 00196208 ??_7EDogHeel@@6B@
        830  33D 00196220 ??_7EDogHunt@@6B@
        831  33E 00196200 ??_7EDogIPlay@@6B@
        832  33F 00196228 ??_7EDogPoint@@6B@
        833  340 00196240 ??_7EDogRideInBoat@@6B@
        834  341 00196238 ??_7EDogRideInTruck@@6B@
        835  342 00196210 ??_7EDogStay@@6B@
        836  343 0019C7B8 ??_7EEat@@6B@
        837  344 00195B88 ??_7EEnd@@6B@
        838  345 00199304 ??_7EEndCall@@6B@
        839  346 0019C620 ??_7EEnteredLauncher@@6B@
        840  347 00195B78 ??_7EEnvironmentStart@@6B@
        841  348 00195B80 ??_7EEnvironmentStop@@6B@
        842  349 00195F94 ??_7EFireGun@@6B@
        843  34A 0019C7B0 ??_7EFlee@@6B@
        844  34B 0019A92C ??_7EGrasshopperParticlesInit@@6B@
        845  34C 00195F8C ??_7EGunInit@@6B@
        846  34D 00195FBC ??_7EGunIsUp@@6B@
        847  34E 00195FC4 ??_7EGunNotUp@@6B@
        848  34F 0019D1AC ??_7EHarbor@@6B@
        849  350 00195FB4 ??_7EHeartbeat@@6B@
        850  351 0019BA44 ??_7EHit@@6B@
        851  352 00195C00 ??_7EHitBySpaceShipBeam@@6B@
        852  353 0019C648 ??_7EInitStand@@6B@
        853  354 00195DCC ??_7EKilledDeer@@6B@
        854  355 00195BD0 ??_7EKilledEnemy@@6B@
        855  356 0019AE44 ??_7ELAAmbient@@6B@
        856  357 0019AE4C ??_7ELAFlee@@6B@
        857  358 0019AE54 ??_7ELASleep@@6B@
        858  359 0019C628 ??_7ELaunchSkeet@@6B@
        859  35A 0019C630 ??_7ELaunchTrap@@6B@
        860  35B 00195FA4 ??_7ELowerGun@@6B@
        861  35C 00195F84 ??_7EMemberNotify@@6B@
        862  35D 00195DFC ??_7EMessage@@6B@
        863  35E 00195FDC ??_7EPin1Down@@6B@
        864  35F 00195FD4 ??_7EPin1Up@@6B@
        865  360 00195FEC ??_7EPin2Down@@6B@
        866  361 00195FE4 ??_7EPin2Up@@6B@
        867  362 00195FFC ??_7EPin3Down@@6B@
        868  363 00195FF4 ??_7EPin3Up@@6B@
        869  364 00195DE4 ??_7EPlayerFired@@6B@
        870  365 00195DDC ??_7EProfileScore@@6B@
        871  366 00195F74 ??_7EProjectileHit@@6B@
        872  367 00195F7C ??_7EProjectileInit@@6B@
        873  368 0019C658 ??_7EPulse@@6B@
        874  369 00196160 ??_7EPulseAnimation@@6B@
        875  36A 00196168 ??_7EPulseMover@@6B@
        876  36B 0019C650 ??_7EPulserInit@@6B@
        877  36C 0019CFF4 ??_7ERAmbient@@6B@
        878  36D 0019CFFC ??_7ERFlee@@6B@
        879  36E 0019D004 ??_7ERSleep@@6B@
        880  36F 00195F9C ??_7ERaiseGun@@6B@
        881  370 00195C20 ??_7ERangeModelDestruction@@6B@
        882  371 00195DAC ??_7ERebirth@@6B@
        883  372 00195BC8 ??_7EReceiveScore@@6B@
        884  373 001A1B54 ??_7ERecordBuckVitalShot@@6B@
        885  374 00195FAC ??_7EReloadGun@@6B@
        886  375 00195BA0 ??_7EReminder@@6B@
        887  376 00195C40 ??_7EReminderInit@@6B@
        888  377 0019C7C0 ??_7ERest@@6B@
        889  378 00195DEC ??_7ERoundChange@@6B@
        890  379 0019D438 ??_7ESBAmbient@@6B@
        891  37A 0019D440 ??_7ESBFlee@@6B@
        892  37B 0019D448 ??_7ESBSleep@@6B@
        893  37C 00196180 ??_7ESGAmbient@@6B@
        894  37D 00196188 ??_7ESGFlee@@6B@
        895  37E 00196190 ??_7ESGSleep@@6B@
        896  37F 00195BD8 ??_7ESecretFound@@6B@
        897  380 00199314 ??_7ESetCall@@6B@
        898  381 00195FCC ??_7ESetGunFireOffset@@6B@
        899  382 00195F6C ??_7EShotPenalty@@6B@
        900  383 0019C7C8 ??_7ESleep@@6B@
        901  384 00195DC4 ??_7ESlideTreeStand@@6B@
        902  385 00195BE0 ??_7ESound@@6B@
        903  386 00195C38 ??_7ESpawnDebris@@6B@
        904  387 00195C30 ??_7ESpawnEffect@@6B@
        905  388 00195C18 ??_7ESpawnSpray@@6B@
        906  389 001A1BA4 ??_7EStalkedBuck@@6B@
        907  38A 001A1B9C ??_7EStalkedDoe@@6B@
        908  38B 00195B60 ??_7EStart@@6B@
        909  38C 00195BA8 ??_7EStartAttack@@6B@
        910  38D 001992FC ??_7EStartCall@@6B@
        911  38E 00195B58 ??_7EStop@@6B@
        912  38F 00195BB0 ??_7EStopAttack@@6B@
        913  390 00195BB8 ??_7EStopBlindness@@6B@
        914  391 00195BC0 ??_7EStopDeafness@@6B@
        915  392 0019C638 ??_7EStrength@@6B@
        916  393 0019C7A8 ??_7ESurroundParticleSystemInit@@6B@
        917  394 001A1B6C ??_7ETargetBullsEye@@6B@
        918  395 00195B98 ??_7ETeleportMovingBrush@@6B@
        919  396 00196158 ??_7EThink@@6B@
        920  397 00196150 ??_7EThinkerInit@@6B@
        921  398 00195D94 ??_7ETimeDelayed@@6B@
        922  399 001A1B94 ??_7ETrackedBloodTrail@@6B@
        923  39A 001A1B8C ??_7ETrackedBuck@@6B@
        924  39B 001A1B84 ??_7ETrackedDoe@@6B@
        925  39C 00195B90 ??_7ETrigger@@6B@
        926  39D 00196F84 ??_7ETruckClicked@@6B@
        927  39E 00196F74 ??_7ETruckFirstPersonView@@6B@
        928  39F 00196F8C ??_7ETruckLoadATV@@6B@
        929  3A0 00196F64 ??_7ETruckStart@@6B@
        930  3A1 00196F6C ??_7ETruckStop@@6B@
        931  3A2 00196F7C ??_7ETruckThirdPersonView@@6B@
        932  3A3 00195C10 ??_7EUseCall@@6B@
        933  3A4 0019930C ??_7EUseNextCall@@6B@
        934  3A5 0019C4CC ??_7EViewInit@@6B@
        935  3A6 00195BF8 ??_7EVoiceMessage@@6B@
        936  3A7 00195DF4 ??_7EWorldClick@@6B@
        937  3A8 00196F5C ??_7GPSCenterView@@6B@
        938  3A9 00196F54 ??_7GPSClearWayPoint@@6B@
        939  3AA 00196F34 ??_7GPSModeBig@@6B@
        940  3AB 00196F3C ??_7GPSModeSmall@@6B@
        941  3AC 00196F1C ??_7GPSMoveDown@@6B@
        942  3AD 00196F04 ??_7GPSMoveLeft@@6B@
        943  3AE 00196F0C ??_7GPSMoveRight@@6B@
        944  3AF 00196F14 ??_7GPSMoveUp@@6B@
        945  3B0 00196F4C ??_7GPSNextWayPoint@@6B@
        946  3B1 00196F24 ??_7GPSRaiseLower@@6B@
        947  3B2 00196F44 ??_7GPSSetWayPoint@@6B@
        948  3B3 00196F2C ??_7GPSSwitchModes@@6B@
        949  3B4 00196EF4 ??_7GPSZoomIn@@6B@
        950  3B5 00196EFC ??_7GPSZoomOut@@6B@
        951  3B6 001ED4B8 ?AISpecies_enum@@3VCEntityPropertyEnumType@@A
        952  3B7 001ED480 ?AISpecies_values@@3PAVCEntityPropertyEnumValue@@A
        953  3B8 000A9410 ?ATVPhysics@CPlayer@@QAEXXZ
        954  3B9 001EEA20 ?ATVWheelState_enum@@3VCEntityPropertyEnumType@@A
        955  3BA 001EEA08 ?ATVWheelState_values@@3PAVCEntityPropertyEnumValue@@A
        956  3BB 000C3F20 ?Active@CPulser@@QAEHABVCEntityEvent@@@Z
        957  3BC 000A0B80 ?ActiveActions@CPlayer@@QAEXABVCPlayerAction@@@Z
        958  3BD 000019C0 ?AddAttachmentToModel@@YAXPAVCEntity@@AAVCModelObject@@JKKKKK@Z
        959  3BE 00097FB0 ?AddDependentsToPrediction@CPlayer@@UAEXXZ
        960  3BF 000BAB60 ?AddDependentsToPrediction@CPlayerView@@UAEXXZ
        961  3C0 00095FA0 ?AdjustShaderParams@CPlayer@@UAEXJPAVCShader@@AAUShaderParams@@JPAVCModelInstance@@@Z
        962  3C1 0009A920 ?AdjustShadingParameters@CPlayer@@UAEHAAV?$Vector@M$02@@AAK1@Z
        963  3C2 000A0510 ?AliveActions@CPlayer@@QAEXABVCPlayerAction@@@Z
        964  3C3 0009D670 ?ApplyAction@CPlayer@@UAEXABVCPlayerAction@@M@Z
        965  3C4 000A8D00 ?AttachGuns@CPlayer@@QAEXXZ
        966  3C5 000A0610 ?AutoActions@CPlayer@@QAEXABVCPlayerAction@@@Z
        967  3C6 00082500 ?BSpline2@CNavigationMarker@@QAEXAAV?$Vector@M$02@@000M@Z
        968  3C7 00082570 ?BSpline3@CNavigationMarker@@QAEXAAV?$Vector@M$02@@0000M@Z
        969  3C8 001EF700 ?BasicEffectType_enum@@3VCEntityPropertyEnumType@@A
        970  3C9 001EF6B8 ?BasicEffectType_values@@3PAVCEntityPropertyEnumValue@@A
        971  3CA 00209558 ?BirdBaseAction_enum@@3VCEntityPropertyEnumType@@A
        972  3CB 002094B0 ?BirdBaseAction_values@@3PAVCEntityPropertyEnumValue@@A
        973  3CC 001F2040 ?BlendControllerType_enum@@3VCEntityPropertyEnumType@@A
        974  3CD 001F2008 ?BlendControllerType_values@@3PAVCEntityPropertyEnumValue@@A
        975  3CE 001F21F0 ?BlindType_enum@@3VCEntityPropertyEnumType@@A
        976  3CF 001F21D8 ?BlindType_values@@3PAVCEntityPropertyEnumValue@@A
        977  3D0 001F9268 ?BlockAction_enum@@3VCEntityPropertyEnumType@@A
        978  3D1 001F9250 ?BlockAction_values@@3PAVCEntityPropertyEnumValue@@A
        979  3D2 001F26B0 ?BoatBlindState_enum@@3VCEntityPropertyEnumType@@A
        980  3D3 001F26A0 ?BoatBlindState_values@@3PAVCEntityPropertyEnumValue@@A
        981  3D4 000A9490 ?BoatPhysics@CPlayer@@QAEXXZ
        982  3D5 001F58C8 ?BoolEType_enum@@3VCEntityPropertyEnumType@@A
        983  3D6 001F58B0 ?BoolEType_values@@3PAVCEntityPropertyEnumValue@@A
        984  3D7 000A3730 ?ButtonsActions@CPlayer@@QAEXAAVCPlayerAction@@@Z
        985  3D8 000A2810 ?CanCrouch@CPlayer@@QAEHXZ
        986  3D9 000A27A0 ?CanLayDown@CPlayer@@QAEHXZ
        987  3DA 000A2760 ?CanRaiseGun@CPlayer@@QAEHXZ
        988  3DB 000A92C0 ?ChangeAmmo@CPlayer@@QAEXJ@Z
        989  3DC 0009CB40 ?ChangePlayerView@CPlayer@@QAEXXZ
        990  3DD 0009FF00 ?CharacterChanged@CPlayer@@UAEXABVCPlayerCharacter@@@Z
        991  3DE 000A4B10 ?Cheats@CPlayer@@QAEXXZ
        992  3DF 000A4AD0 ?CheatsEnabled@CPlayer@@QAEHXZ
        993  3E0 0009D1F0 ?CheckGameEnd@CPlayer@@QAEXXZ
        994  3E1 0009E760 ?CheckGround@CPlayer@@QAEPAVCEntity@@AAV?$Vector@M$02@@AAJ@Z
        995  3E2 0009E970 ?CheckGroundFromPoint@CPlayer@@QAEPAVCEntity@@V?$Vector@M$02@@AAV3@AAJAAM@Z
        996  3E3 0009D2E0 ?CheckRoundEnd@CPlayer@@QAEXXZ
        997  3E4 0009C9F0 ?ChecksumForSync@CPlayer@@UAEXAAKJ@Z
        998  3E5 00207918 ?ClasificationBits_enum@@3VCEntityPropertyEnumType@@A
        999  3E6 00207898 ?ClasificationBits_values@@3PAVCEntityPropertyEnumValue@@A
       1000  3E7 00001000 ?Clear@CCompMessageID@@QAEXXZ
       1001  3E8 0000AC40 ?Clear@PlayerAnimState@@QAEXXZ
       1002  3E9 000979F0 ?ClearShellLaunchData@CPlayer@@QAEXXZ
       1003  3EA 00015470 ?ClearToDefault@@YAXAAVEAIMoveFinished@@@Z
       1004  3EB 00015570 ?ClearToDefault@@YAXAAVEAIMovePointHit@@@Z
       1005  3EC 00034F10 ?ClearToDefault@@YAXAAVEATVClicked@@@Z
       1006  3ED 00035150 ?ClearToDefault@@YAXAAVEATVLoadOnTruck@@@Z
       1007  3EE 00034BE0 ?ClearToDefault@@YAXAAVEATVStart@@@Z
       1008  3EF 00034D60 ?ClearToDefault@@YAXAAVEATVStop@@@Z
       1009  3F0 000353D0 ?ClearToDefault@@YAXAAVEATVUnloadOffTruck@@@Z
       1010  3F1 00008350 ?ClearToDefault@@YAXAAVEActivate@@@Z
       1011  3F2 00014240 ?ClearToDefault@@YAXAAVEAimLeft@@@Z
       1012  3F3 00014340 ?ClearToDefault@@YAXAAVEAimRight@@@Z
       1013  3F4 0000D340 ?ClearToDefault@@YAXAAVEAnimalClaimed@@@Z
       1014  3F5 00014CB0 ?ClearToDefault@@YAXAAVEAnimalInit@@@Z
       1015  3F6 0008D6E0 ?ClearToDefault@@YAXAAVEAnimatorInit@@@Z
       1016  3F7 0000CDA0 ?ClearToDefault@@YAXAAVEAutoAction@@@Z
       1017  3F8 00015DD0 ?ClearToDefault@@YAXAAVEBBAEat@@@Z
       1018  3F9 000165D0 ?ClearToDefault@@YAXAAVEBBAFlare@@@Z
       1019  3FA 00015BD0 ?ClearToDefault@@YAXAAVEBBAFly@@@Z
       1020  3FB 00015CD0 ?ClearToDefault@@YAXAAVEBBAFlyFast@@@Z
       1021  3FC 000162D0 ?ClearToDefault@@YAXAAVEBBALand@@@Z
       1022  3FD 000163D0 ?ClearToDefault@@YAXAAVEBBALandOnNormal@@@Z
       1023  3FE 00015FD0 ?ClearToDefault@@YAXAAVEBBARest@@@Z
       1024  3FF 00015ED0 ?ClearToDefault@@YAXAAVEBBARoost@@@Z
       1025  400 000161D0 ?ClearToDefault@@YAXAAVEBBARunTakeoff@@@Z
       1026  401 000164D0 ?ClearToDefault@@YAXAAVEBBAStandby@@@Z
       1027  402 000160D0 ?ClearToDefault@@YAXAAVEBBAVTakeoff@@@Z
       1028  403 000166D0 ?ClearToDefault@@YAXAAVEBBAWounded@@@Z
       1029  404 00131A80 ?ClearToDefault@@YAXAAVEBMSDrink@@@Z
       1030  405 00131980 ?ClearToDefault@@YAXAAVEBMSEat@@@Z
       1031  406 00131880 ?ClearToDefault@@YAXAAVEBMSFlee@@@Z
       1032  407 00131C80 ?ClearToDefault@@YAXAAVEBMSIdle@@@Z
       1033  408 00131D80 ?ClearToDefault@@YAXAAVEBMSIgnore@@@Z
       1034  409 00131B80 ?ClearToDefault@@YAXAAVEBMSRoost@@@Z
       1035  40A 000478B0 ?ClearToDefault@@YAXAAVEBoatClicked@@@Z
       1036  40B 00047580 ?ClearToDefault@@YAXAAVEBoatStart@@@Z
       1037  40C 00047700 ?ClearToDefault@@YAXAAVEBoatStop@@@Z
       1038  40D 0007A7A0 ?ClearToDefault@@YAXAAVEBrushDestroyed@@@Z
       1039  40E 00160190 ?ClearToDefault@@YAXAAVEBuckVitalShot@@@Z
       1040  40F 00015A50 ?ClearToDefault@@YAXAAVECallMade@@@Z
       1041  410 00160820 ?ClearToDefault@@YAXAAVECalledBuck@@@Z
       1042  411 00160720 ?ClearToDefault@@YAXAAVECalledDoe@@@Z
       1043  412 0000C740 ?ClearToDefault@@YAXAAVECameraStart@@@Z
       1044  413 0000C970 ?ClearToDefault@@YAXAAVECameraStop@@@Z
       1045  414 000097B0 ?ClearToDefault@@YAXAAVECenterMessage@@@Z
       1046  415 0000A720 ?ClearToDefault@@YAXAAVEChangeAnim@@@Z
       1047  416 0006A100 ?ClearToDefault@@YAXAAVEChangeGravity@@@Z
       1048  417 000123E0 ?ClearToDefault@@YAXAAVEChangeMusic@@@Z
       1049  418 000171D0 ?ClearToDefault@@YAXAAVEChaseAmbientAnimal@@@Z
       1050  419 00009EF0 ?ClearToDefault@@YAXAAVEClicked@@@Z
       1051  41A 000099D0 ?ClearToDefault@@YAXAAVEComputerMessage@@@Z
       1052  41B 00008450 ?ClearToDefault@@YAXAAVEDeactivate@@@Z
       1053  41C 00043F20 ?ClearToDefault@@YAXAAVEDecoyStart@@@Z
       1054  41D 00052A70 ?ClearToDefault@@YAXAAVEDeerCallInit@@@Z
       1055  41E 00052D80 ?ClearToDefault@@YAXAAVEDeerCallMade@@@Z
       1056  41F 00055130 ?ClearToDefault@@YAXAAVEDeerDecoyRecalled@@@Z
       1057  420 00054F00 ?ClearToDefault@@YAXAAVEDeerDecoyStart@@@Z
       1058  421 0000CBF0 ?ClearToDefault@@YAXAAVEDisconnected@@@Z
       1059  422 00051600 ?ClearToDefault@@YAXAAVEDoDecal@@@Z
       1060  423 001603B0 ?ClearToDefault@@YAXAAVEDoeVitalShot@@@Z
       1061  424 000170D0 ?ClearToDefault@@YAXAAVEDogEndRide@@@Z
       1062  425 00016AD0 ?ClearToDefault@@YAXAAVEDogFetch@@@Z
       1063  426 00016DD0 ?ClearToDefault@@YAXAAVEDogFlush@@@Z
       1064  427 000168D0 ?ClearToDefault@@YAXAAVEDogHeel@@@Z
       1065  428 00016BD0 ?ClearToDefault@@YAXAAVEDogHunt@@@Z
       1066  429 000167D0 ?ClearToDefault@@YAXAAVEDogIPlay@@@Z
       1067  42A 00016CD0 ?ClearToDefault@@YAXAAVEDogPoint@@@Z
       1068  42B 00016FD0 ?ClearToDefault@@YAXAAVEDogRideInBoat@@@Z
       1069  42C 00016ED0 ?ClearToDefault@@YAXAAVEDogRideInTruck@@@Z
       1070  42D 000169D0 ?ClearToDefault@@YAXAAVEDogStay@@@Z
       1071  42E 000AD270 ?ClearToDefault@@YAXAAVEEat@@@Z
       1072  42F 00008750 ?ClearToDefault@@YAXAAVEEnd@@@Z
       1073  430 00052680 ?ClearToDefault@@YAXAAVEEndCall@@@Z
       1074  431 0008CF50 ?ClearToDefault@@YAXAAVEEnteredLauncher@@@Z
       1075  432 00008550 ?ClearToDefault@@YAXAAVEEnvironmentStart@@@Z
       1076  433 00008650 ?ClearToDefault@@YAXAAVEEnvironmentStop@@@Z
       1077  434 00013400 ?ClearToDefault@@YAXAAVEFireGun@@@Z
       1078  435 000AD170 ?ClearToDefault@@YAXAAVEFlee@@@Z
       1079  436 000684C0 ?ClearToDefault@@YAXAAVEGrasshopperParticlesInit@@@Z
       1080  437 00013250 ?ClearToDefault@@YAXAAVEGunInit@@@Z
       1081  438 00013920 ?ClearToDefault@@YAXAAVEGunIsUp@@@Z
       1082  439 00013A20 ?ClearToDefault@@YAXAAVEGunNotUp@@@Z
       1083  43A 000C8350 ?ClearToDefault@@YAXAAVEHarbor@@@Z
       1084  43B 00013820 ?ClearToDefault@@YAXAAVEHeartbeat@@@Z
       1085  43C 0007A6A0 ?ClearToDefault@@YAXAAVEHit@@@Z
       1086  43D 00009D40 ?ClearToDefault@@YAXAAVEHitBySpaceShipBeam@@@Z
       1087  43E 0008D930 ?ClearToDefault@@YAXAAVEInitStand@@@Z
       1088  43F 0000D110 ?ClearToDefault@@YAXAAVEKilledDeer@@@Z
       1089  440 000091C0 ?ClearToDefault@@YAXAAVEKilledEnemy@@@Z
       1090  441 0006BF30 ?ClearToDefault@@YAXAAVELAAmbient@@@Z
       1091  442 0006C030 ?ClearToDefault@@YAXAAVELAFlee@@@Z
       1092  443 0006C130 ?ClearToDefault@@YAXAAVELASleep@@@Z
       1093  444 0008D180 ?ClearToDefault@@YAXAAVELaunchSkeet@@@Z
       1094  445 0008D3B0 ?ClearToDefault@@YAXAAVELaunchTrap@@@Z
       1095  446 00013610 ?ClearToDefault@@YAXAAVELowerGun@@@Z
       1096  447 00012EF0 ?ClearToDefault@@YAXAAVEMemberNotify@@@Z
       1097  448 0000DB30 ?ClearToDefault@@YAXAAVEMessage@@@Z
       1098  449 00013D40 ?ClearToDefault@@YAXAAVEPin1Down@@@Z
       1099  44A 00013C40 ?ClearToDefault@@YAXAAVEPin1Up@@@Z
       1100  44B 00013F40 ?ClearToDefault@@YAXAAVEPin2Down@@@Z
       1101  44C 00013E40 ?ClearToDefault@@YAXAAVEPin2Up@@@Z
       1102  44D 00014140 ?ClearToDefault@@YAXAAVEPin3Down@@@Z
       1103  44E 00014040 ?ClearToDefault@@YAXAAVEPin3Up@@@Z
       1104  44F 0000D630 ?ClearToDefault@@YAXAAVEPlayerFired@@@Z
       1105  450 0000D4F0 ?ClearToDefault@@YAXAAVEProfileScore@@@Z
       1106  451 00012AB0 ?ClearToDefault@@YAXAAVEProjectileHit@@@Z
       1107  452 00012CD0 ?ClearToDefault@@YAXAAVEProjectileInit@@@Z
       1108  453 000ACA50 ?ClearToDefault@@YAXAAVEPulse@@@Z
       1109  454 00015260 ?ClearToDefault@@YAXAAVEPulseAnimation@@@Z
       1110  455 00015360 ?ClearToDefault@@YAXAAVEPulseMover@@@Z
       1111  456 000AC8C0 ?ClearToDefault@@YAXAAVEPulserInit@@@Z
       1112  457 000C4C30 ?ClearToDefault@@YAXAAVERAmbient@@@Z
       1113  458 000C4D30 ?ClearToDefault@@YAXAAVERFlee@@@Z
       1114  459 000C4E30 ?ClearToDefault@@YAXAAVERSleep@@@Z
       1115  45A 00013500 ?ClearToDefault@@YAXAAVERaiseGun@@@Z
       1116  45B 0000A580 ?ClearToDefault@@YAXAAVERangeModelDestruction@@@Z
       1117  45C 0000CAF0 ?ClearToDefault@@YAXAAVERebirth@@@Z
       1118  45D 000090B0 ?ClearToDefault@@YAXAAVEReceiveScore@@@Z
       1119  45E 0015FF50 ?ClearToDefault@@YAXAAVERecordBuckVitalShot@@@Z
       1120  45F 00013720 ?ClearToDefault@@YAXAAVEReloadGun@@@Z
       1121  460 00008B90 ?ClearToDefault@@YAXAAVEReminder@@@Z
       1122  461 0000B0A0 ?ClearToDefault@@YAXAAVEReminderInit@@@Z
       1123  462 000AD370 ?ClearToDefault@@YAXAAVERest@@@Z
       1124  463 0000D750 ?ClearToDefault@@YAXAAVERoundChange@@@Z
       1125  464 000CA240 ?ClearToDefault@@YAXAAVESBAmbient@@@Z
       1126  465 000CA340 ?ClearToDefault@@YAXAAVESBFlee@@@Z
       1127  466 000CA440 ?ClearToDefault@@YAXAAVESBSleep@@@Z
       1128  467 00015670 ?ClearToDefault@@YAXAAVESGAmbient@@@Z
       1129  468 00015770 ?ClearToDefault@@YAXAAVESGFlee@@@Z
       1130  469 00015870 ?ClearToDefault@@YAXAAVESGSleep@@@Z
       1131  46A 000092C0 ?ClearToDefault@@YAXAAVESecretFound@@@Z
       1132  46B 00052890 ?ClearToDefault@@YAXAAVESetCall@@@Z
       1133  46C 00013B30 ?ClearToDefault@@YAXAAVESetGunFireOffset@@@Z
       1134  46D 00012710 ?ClearToDefault@@YAXAAVEShotPenalty@@@Z
       1135  46E 000AD470 ?ClearToDefault@@YAXAAVESleep@@@Z
       1136  46F 0000CF30 ?ClearToDefault@@YAXAAVESlideTreeStand@@@Z
       1137  470 00009570 ?ClearToDefault@@YAXAAVESound@@@Z
       1138  471 0000AB80 ?ClearToDefault@@YAXAAVESpawnDebris@@@Z
       1139  472 0000A990 ?ClearToDefault@@YAXAAVESpawnEffect@@@Z
       1140  473 0000A3E0 ?ClearToDefault@@YAXAAVESpawnSpray@@@Z
       1141  474 00160D50 ?ClearToDefault@@YAXAAVEStalkedBuck@@@Z
       1142  475 00160C30 ?ClearToDefault@@YAXAAVEStalkedDoe@@@Z
       1143  476 000081D0 ?ClearToDefault@@YAXAAVEStart@@@Z
       1144  477 00008CA0 ?ClearToDefault@@YAXAAVEStartAttack@@@Z
       1145  478 00052580 ?ClearToDefault@@YAXAAVEStartCall@@@Z
       1146  479 00008020 ?ClearToDefault@@YAXAAVEStop@@@Z
       1147  47A 00008DA0 ?ClearToDefault@@YAXAAVEStopAttack@@@Z
       1148  47B 00008EA0 ?ClearToDefault@@YAXAAVEStopBlindness@@@Z
       1149  47C 00008FA0 ?ClearToDefault@@YAXAAVEStopDeafness@@@Z
       1150  47D 0008D530 ?ClearToDefault@@YAXAAVEStrength@@@Z
       1151  47E 000ACFC0 ?ClearToDefault@@YAXAAVESurroundParticleSystemInit@@@Z
       1152  47F 001605C0 ?ClearToDefault@@YAXAAVETargetBullsEye@@@Z
       1153  480 00008A80 ?ClearToDefault@@YAXAAVETeleportMovingBrush@@@Z
       1154  481 00015160 ?ClearToDefault@@YAXAAVEThink@@@Z
       1155  482 00014FD0 ?ClearToDefault@@YAXAAVEThinkerInit@@@Z
       1156  483 0000C4E0 ?ClearToDefault@@YAXAAVETimeDelayed@@@Z
       1157  484 00160B20 ?ClearToDefault@@YAXAAVETrackedBloodTrail@@@Z
       1158  485 00160A20 ?ClearToDefault@@YAXAAVETrackedBuck@@@Z
       1159  486 00160920 ?ClearToDefault@@YAXAAVETrackedDoe@@@Z
       1160  487 00008900 ?ClearToDefault@@YAXAAVETrigger@@@Z
       1161  488 00034770 ?ClearToDefault@@YAXAAVETruckClicked@@@Z
       1162  489 000344C0 ?ClearToDefault@@YAXAAVETruckFirstPersonView@@@Z
       1163  48A 000349A0 ?ClearToDefault@@YAXAAVETruckLoadATV@@@Z
       1164  48B 00034240 ?ClearToDefault@@YAXAAVETruckStart@@@Z
       1165  48C 000343C0 ?ClearToDefault@@YAXAAVETruckStop@@@Z
       1166  48D 000345C0 ?ClearToDefault@@YAXAAVETruckThirdPersonView@@@Z
       1167  48E 0000A140 ?ClearToDefault@@YAXAAVEUseCall@@@Z
       1168  48F 00052780 ?ClearToDefault@@YAXAAVEUseNextCall@@@Z
       1169  490 0008C1C0 ?ClearToDefault@@YAXAAVEViewInit@@@Z
       1170  491 00009BE0 ?ClearToDefault@@YAXAAVEVoiceMessage@@@Z
       1171  492 0000D900 ?ClearToDefault@@YAXAAVEWorldClick@@@Z
       1172  493 00034070 ?ClearToDefault@@YAXAAVGPSCenterView@@@Z
       1173  494 00033F70 ?ClearToDefault@@YAXAAVGPSClearWayPoint@@@Z
       1174  495 00033B70 ?ClearToDefault@@YAXAAVGPSModeBig@@@Z
       1175  496 00033C70 ?ClearToDefault@@YAXAAVGPSModeSmall@@@Z
       1176  497 00033870 ?ClearToDefault@@YAXAAVGPSMoveDown@@@Z
       1177  498 00033570 ?ClearToDefault@@YAXAAVGPSMoveLeft@@@Z
       1178  499 00033670 ?ClearToDefault@@YAXAAVGPSMoveRight@@@Z
       1179  49A 00033770 ?ClearToDefault@@YAXAAVGPSMoveUp@@@Z
       1180  49B 00033E70 ?ClearToDefault@@YAXAAVGPSNextWayPoint@@@Z
       1181  49C 00033970 ?ClearToDefault@@YAXAAVGPSRaiseLower@@@Z
       1182  49D 00033D70 ?ClearToDefault@@YAXAAVGPSSetWayPoint@@@Z
       1183  49E 00033A70 ?ClearToDefault@@YAXAAVGPSSwitchModes@@@Z
       1184  49F 00033370 ?ClearToDefault@@YAXAAVGPSZoomIn@@@Z
       1185  4A0 00033470 ?ClearToDefault@@YAXAAVGPSZoomOut@@@Z
       1186  4A1 00015380 ?ClearToDefault@@YAXAAW4AISpecies@@@Z
       1187  4A2 00034FB0 ?ClearToDefault@@YAXAAW4ATVWheelState@@@Z
       1188  4A3 0000A7E0 ?ClearToDefault@@YAXAAW4BasicEffectType@@@Z
       1189  4A4 00015AE0 ?ClearToDefault@@YAXAAW4BirdBaseAction@@@Z
       1190  4A5 000452A0 ?ClearToDefault@@YAXAAW4BlendControllerType@@@Z
       1191  4A6 0000C340 ?ClearToDefault@@YAXAAW4BlindType@@@Z
       1192  4A7 0007A7C0 ?ClearToDefault@@YAXAAW4BlockAction@@@Z
       1193  4A8 00047950 ?ClearToDefault@@YAXAAW4BoatBlindState@@@Z
       1194  4A9 000092E0 ?ClearToDefault@@YAXAAW4BoolEType@@@Z
       1195  4AA 00067CD0 ?ClearToDefault@@YAXAAW4ClasificationBits@@@Z
       1196  4AB 0000A5B0 ?ClearToDefault@@YAXAAW4CustomShadingType@@@Z
       1197  4AC 00055ED0 ?ClearToDefault@@YAXAAW4DBState@@@Z
       1198  4AD 00052490 ?ClearToDefault@@YAXAAW4DEERCALLTYPE@@@Z
       1199  4AE 0000AA00 ?ClearToDefault@@YAXAAW4DebrisParticlesType@@@Z
       1200  4AF 00043D40 ?ClearToDefault@@YAXAAW4DecoyPlace@@@Z
       1201  4B0 0000A5A0 ?ClearToDefault@@YAXAAW4DestructionDebrisType@@@Z
       1202  4B1 00017200 ?ClearToDefault@@YAXAAW4DogBehavior@@@Z
       1203  4B2 000171F0 ?ClearToDefault@@YAXAAW4DogInterest@@@Z
       1204  4B3 00057F50 ?ClearToDefault@@YAXAAW4DoorType@@@Z
       1205  4B4 00014360 ?ClearToDefault@@YAXAAW4EMarkerType@@@Z
       1206  4B5 000092F0 ?ClearToDefault@@YAXAAW4ESEntityTypes@@@Z
       1207  4B6 0000A7F0 ?ClearToDefault@@YAXAAW4EffectParticlesType@@@Z
       1208  4B7 00009320 ?ClearToDefault@@YAXAAW4EntityInfoBodyType@@@Z
       1209  4B8 00009310 ?ClearToDefault@@YAXAAW4EventEType@@@Z
       1210  4B9 0005F640 ?ClearToDefault@@YAXAAW4FFSTime@@@Z
       1211  4BA 0005F630 ?ClearToDefault@@YAXAAW4FFState@@@Z
       1212  4BB 00131790 ?ClearToDefault@@YAXAAW4FlockMentalState@@@Z
       1213  4BC 00062240 ?ClearToDefault@@YAXAAW4FogAttenuationType@@@Z
       1214  4BD 00062250 ?ClearToDefault@@YAXAAW4FogGraduationType2@@@Z
       1215  4BE 000340A0 ?ClearToDefault@@YAXAAW4GPSMode@@@Z
       1216  4BF 00034090 ?ClearToDefault@@YAXAAW4GPSState@@@Z
       1217  4C0 0006A1A0 ?ClearToDefault@@YAXAAW4GravityType@@@Z
       1218  4C1 00012FC0 ?ClearToDefault@@YAXAAW4GunAction@@@Z
       1219  4C2 00013010 ?ClearToDefault@@YAXAAW4GunAmmo@@@Z
       1220  4C3 00012FD0 ?ClearToDefault@@YAXAAW4GunBarrel@@@Z
       1221  4C4 00012FE0 ?ClearToDefault@@YAXAAW4GunChoke@@@Z
       1222  4C5 00012490 ?ClearToDefault@@YAXAAW4GunGauge@@@Z
       1223  4C6 00012FF0 ?ClearToDefault@@YAXAAW4GunOptic@@@Z
       1224  4C7 00013000 ?ClearToDefault@@YAXAAW4GunReticle@@@Z
       1225  4C8 00012FB0 ?ClearToDefault@@YAXAAW4GunState@@@Z
       1226  4C9 000124A0 ?ClearToDefault@@YAXAAW4HitZone@@@Z
       1227  4CA 0000A790 ?ClearToDefault@@YAXAAW4LensFlareType@@@Z
       1228  4CB 0000A780 ?ClearToDefault@@YAXAAW4LightType@@@Z
       1229  4CC 00009330 ?ClearToDefault@@YAXAAW4MessageSound@@@Z
       1230  4CD 00012220 ?ClearToDefault@@YAXAAW4MusicType@@@Z
       1231  4CE 0000C5A0 ?ClearToDefault@@YAXAAW4OpticType@@@Z
       1232  4CF 00160D80 ?ClearToDefault@@YAXAAW4PP_BroadSkill@@@Z
       1233  4D0 00160D90 ?ClearToDefault@@YAXAAW4PP_Skill@@@Z
       1234  4D1 0000A7A0 ?ClearToDefault@@YAXAAW4PSBlendType@@@Z
       1235  4D2 0000A7C0 ?ClearToDefault@@YAXAAW4PSFadeType@@@Z
       1236  4D3 0000A7B0 ?ClearToDefault@@YAXAAW4PSPartType@@@Z
       1237  4D4 0000A7D0 ?ClearToDefault@@YAXAAW4PSScaleType@@@Z
       1238  4D5 00009340 ?ClearToDefault@@YAXAAW4ParticleTexture@@@Z
       1239  4D6 00082760 ?ClearToDefault@@YAXAAW4ParticlesHolderType@@@Z
       1240  4D7 0008CDB0 ?ClearToDefault@@YAXAAW4PlayerAutoAction@@@Z
       1241  4D8 0000C580 ?ClearToDefault@@YAXAAW4PlayerInterfaceType@@@Z
       1242  4D9 0000C590 ?ClearToDefault@@YAXAAW4PlayerPrimaryState@@@Z
       1243  4DA 0000C570 ?ClearToDefault@@YAXAAW4PlayerViewType@@@Z
       1244  4DB 000F0F50 ?ClearToDefault@@YAXAAW4RndType@@@Z
       1245  4DC 0007A5B0 ?ClearToDefault@@YAXAAW4SOUND_SEASON@@@Z
       1246  4DD 0000A5C0 ?ClearToDefault@@YAXAAW4ShadowType@@@Z
       1247  4DE 00013020 ?ClearToDefault@@YAXAAW4ShellEjectType@@@Z
       1248  4DF 00009350 ?ClearToDefault@@YAXAAW4SoundType@@@Z
       1249  4E0 0000A1E0 ?ClearToDefault@@YAXAAW4SprayParticlesType@@@Z
       1250  4E1 0008CD90 ?ClearToDefault@@YAXAAW4SwitchType@@@Z
       1251  4E2 0000C560 ?ClearToDefault@@YAXAAW4TDEGenericMessageType@@@Z
       1252  4E3 0007A7D0 ?ClearToDefault@@YAXAAW4TouchOrDamageEvent@@@Z
       1253  4E4 00034A40 ?ClearToDefault@@YAXAAW4TruckWheelState@@@Z
       1254  4E5 0008BFB0 ?ClearToDefault@@YAXAAW4ViewType@@@Z
       1255  4E6 00067CE0 ?ClearToDefault@@YAXAAW4VisibilityBits@@@Z
       1256  4E7 00067CC0 ?ClearToDefault@@YAXAAW4WarpRotation@@@Z
       1257  4E8 0008CDA0 ?ClearToDefault@@YAXAAW4WorldLinkType@@@Z
       1258  4E9 00014DF0 ?ClearToDefault@@YAXAAW4eAASpecies@@@Z
       1259  4EA 00049EB0 ?ClearToDefault@@YAXAAW4eCallType@@@Z
       1260  4EB 00014DB0 ?ClearToDefault@@YAXAAW4eDeerSpecies@@@Z
       1261  4EC 00014DC0 ?ClearToDefault@@YAXAAW4eFowlSpecies@@@Z
       1262  4ED 000AD080 ?ClearToDefault@@YAXAAW4eHeightMapSize@@@Z
       1263  4EE 00012480 ?ClearToDefault@@YAXAAW4eHitType@@@Z
       1264  4EF 00009360 ?ClearToDefault@@YAXAAW4eMarkerBehavior@@@Z
       1265  4F0 00014DE0 ?ClearToDefault@@YAXAAW4eMiscBirdSpecies@@@Z
       1266  4F1 00012470 ?ClearToDefault@@YAXAAW4eProjectileType@@@Z
       1267  4F2 000AD070 ?ClearToDefault@@YAXAAW4eQuadsPerTile@@@Z
       1268  4F3 00009380 ?ClearToDefault@@YAXAAW4eSkaMarkerAnimBehavior@@@Z
       1269  4F4 00009390 ?ClearToDefault@@YAXAAW4eSkaMarkerCollideBehavior@@@Z
       1270  4F5 000093A0 ?ClearToDefault@@YAXAAW4eSkaMarkerLightingBehavior@@@Z
       1271  4F6 00009370 ?ClearToDefault@@YAXAAW4eSkaMarkerPlacementBehavior2@@@Z
       1272  4F7 000093B0 ?ClearToDefault@@YAXAAW4eSkaMarkerTypeBehavior@@@Z
       1273  4F8 00009300 ?ClearToDefault@@YAXAAW4eSkaModelFlags@@@Z
       1274  4F9 000EB350 ?ClearToDefault@@YAXAAW4eTagType@@@Z
       1275  4FA 000AD060 ?ClearToDefault@@YAXAAW4eTopMapSize@@@Z
       1276  4FB 00014DD0 ?ClearToDefault@@YAXAAW4eUplandSpecies@@@Z
       1277  4FC 00014DA0 ?ClearToDefault@@YAXAAW4eZoneType@@@Z
       1278  4FD 0007A7E0 ?ClearToDefault@@YAXAAW4e_TimeMethods@@@Z
       1279  4FE 00018B60 ?CloseParticles@@YAXXZ
       1280  4FF 00096130 ?CloseToTruckWithATV@CPlayer@@QAEHXZ
       1281  500 000817B0 ?Copy@CNavigationMarker@@UAEXAAVCEntity@@K@Z
       1282  501 00096270 ?Copy@CPlayer@@UAEXAAVCEntity@@K@Z
       1283  502 000AEBD0 ?Copy@CPlayerAnimatorSKA@@UAEXAAVCEntity@@K@Z
       1284  503 000B21E0 ?Copy@CPlayerGun@@UAEXAAVCEntity@@K@Z
       1285  504 0000AC60 ?Copy@PlayerAnimState@@QAEXAAU1@@Z
       1286  505 000A8860 ?CreateHands@CPlayer@@QAEXXZ
       1287  506 00081970 ?CreateTrail@CNavigationMarker@@QAEXXZ
       1288  507 000A7800 ?CreateWeaponsAndItems@CPlayer@@QAEXXZ
       1289  508 001F88C8 ?CustomShadingType_enum@@3VCEntityPropertyEnumType@@A
       1290  509 001F88B0 ?CustomShadingType_values@@3PAVCEntityPropertyEnumValue@@A
       1291  50A 001F4148 ?DBState_enum@@3VCEntityPropertyEnumType@@A
       1292  50B 001F4120 ?DBState_values@@3PAVCEntityPropertyEnumValue@@A
       1293  50C 001F3940 ?DEERCALLTYPE_enum@@3VCEntityPropertyEnumType@@A
       1294  50D 001F3918 ?DEERCALLTYPE_values@@3PAVCEntityPropertyEnumValue@@A
       1295  50E 000067C0 ?DamageStrength@@YAMW4EntityInfoBodyType@@W4DamageType@@@Z
       1296  50F 001F36A0 ?DebrisParticlesType_enum@@3VCEntityPropertyEnumType@@A
       1297  510 001F3678 ?DebrisParticlesType_values@@3PAVCEntityPropertyEnumValue@@A
       1298  511 00006310 ?Debris_Begin@@YAXW4EntityInfoBodyType@@W4DebrisParticlesType@@W4BasicEffectType@@MABV?$Vector@M$02@@3MMK@Z
       1299  512 00006390 ?Debris_Spawn@@YA?AVCEntityPointer@@PAVCEntity@@0JJJJJJMABV?$Vector@M$02@@@Z
       1300  513 001F15A0 ?DecoyPlace_enum@@3VCEntityPropertyEnumType@@A
       1301  514 001F1588 ?DecoyPlace_values@@3PAVCEntityPropertyEnumValue@@A
       1302  515 0009E520 ?DeerDecoy_CheckGround@CPlayer@@QAEHAAV?$Vector@M$02@@AAJ@Z
       1303  516 0009D570 ?DemoAction@CPlayer@@QAEXAAVCPlayerAction@@@Z
       1304  517 00096D90 ?Destroy@CPlayer@@UAEXXZ
       1305  518 001F8390 ?DestructionDebrisType_enum@@3VCEntityPropertyEnumType@@A
       1306  519 001F8378 ?DestructionDebrisType_values@@3PAVCEntityPropertyEnumValue@@A
       1307  51A 000A90C0 ?DetachGuns@CPlayer@@QAEXXZ
       1308  51B 0009FD30 ?Disconnect@CPlayer@@UAEXXZ
       1309  51C 000AA7B0 ?DoAutoActions@CPlayer@@QAEHABVCEntityEvent@@@Z
       1310  51D 0009AF60 ?DoDescribeScene@CPlayer@@QAEXXZ
       1311  51E 000A8800 ?DoGPSCenterView@CPlayer@@QAEXXZ
       1312  51F 000A87A0 ?DoGPSClearWayPoint@CPlayer@@QAEXXZ
       1313  520 000A84E0 ?DoGPSDown@CPlayer@@QAEXXZ
       1314  521 000A8540 ?DoGPSLeft@CPlayer@@QAEXXZ
       1315  522 000A8740 ?DoGPSNextWayPoint@CPlayer@@QAEXXZ
       1316  523 000A85A0 ?DoGPSRight@CPlayer@@QAEXXZ
       1317  524 000A86E0 ?DoGPSSetWayPoint@CPlayer@@QAEXXZ
       1318  525 000A86C0 ?DoGPSSwitchModes@CPlayer@@QAEXXZ
       1319  526 000A8480 ?DoGPSUp@CPlayer@@QAEXXZ
       1320  527 000A8600 ?DoGPSZoomIn@CPlayer@@QAEXXZ
       1321  528 000A8660 ?DoGPSZoomOut@CPlayer@@QAEXXZ
       1322  529 0009C1A0 ?DoMoving@CPlayer@@UAEXXZ
       1323  52A 000BAB80 ?DoMoving@CPlayerView@@UAEXXZ
       1324  52B 0020AA18 ?DogBehavior_enum@@3VCEntityPropertyEnumType@@A
       1325  52C 0020A988 ?DogBehavior_values@@3PAVCEntityPropertyEnumValue@@A
       1326  52D 0020A980 ?DogInterest_enum@@3VCEntityPropertyEnumType@@A
       1327  52E 0020A928 ?DogInterest_values@@3PAVCEntityPropertyEnumValue@@A
       1328  52F 001F4340 ?DoorType_enum@@3VCEntityPropertyEnumType@@A
       1329  530 001F4320 ?DoorType_values@@3PAVCEntityPropertyEnumValue@@A
       1330  531 000A5B20 ?DrawGPS@CPlayer@@QAEXAAVCAnyProjection3D@@PAVCDrawPort@@@Z
       1331  532 000A5E00 ?DrawHands@CPlayer@@QAEXAAVCAnyProjection3D@@PAVCDrawPort@@@Z
       1332  533 00081710 ?DropsMarker@CNavigationMarker@@UBEHAAVCTFileName@@AAVCTString@@@Z
       1333  534 000C4290 ?Dummy@CPulser@@QAEHABVCEntityEvent@@@Z
       1334  535 0003C130 ?DumpSync_t@CBasicEffect@@UAEXAAVCTStream@@J@Z
       1335  536 0009CA90 ?DumpSync_t@CPlayer@@UAEXAAVCTStream@@J@Z
       1336  537 001F9FB8 ?EMarkerType_enum@@3VCEntityPropertyEnumType@@A
       1337  538 001F9FA0 ?EMarkerType_values@@3PAVCEntityPropertyEnumValue@@A
       1338  539 001F5A50 ?ESEntityTypes_enum@@3VCEntityPropertyEnumType@@A
       1339  53A 001F58D0 ?ESEntityTypes_values@@3PAVCEntityPropertyEnumValue@@A
       1340  53B 001EF760 ?EffectParticlesType_enum@@3VCEntityPropertyEnumType@@A
       1341  53C 001EF708 ?EffectParticlesType_values@@3PAVCEntityPropertyEnumValue@@A
       1342  53D 001F5B40 ?EntityInfoBodyType_enum@@3VCEntityPropertyEnumType@@A
       1343  53E 001F5AE8 ?EntityInfoBodyType_values@@3PAVCEntityPropertyEnumValue@@A
       1344  53F 001F5AE0 ?EventEType_enum@@3VCEntityPropertyEnumType@@A
       1345  540 001F5A78 ?EventEType_values@@3PAVCEntityPropertyEnumValue@@A
       1346  541 000A3060 ?ExitATV@CPlayer@@QAEXXZ
       1347  542 000A2BB0 ?ExitBoat@CPlayer@@QAEXXZ
       1348  543 000A33F0 ?ExitTruck@CPlayer@@QAEXXZ
       1349  544 001F5488 ?FFSTime_enum@@3VCEntityPropertyEnumType@@A
       1350  545 001F5478 ?FFSTime_values@@3PAVCEntityPropertyEnumValue@@A
       1351  546 001F5300 ?FFState_enum@@3VCEntityPropertyEnumType@@A
       1352  547 001F52D8 ?FFState_values@@3PAVCEntityPropertyEnumValue@@A
       1353  548 0009AA30 ?FindMusicHolder@CPlayer@@QAEXXZ
       1354  549 000AA580 ?FirstInit@CPlayer@@QAEHABVCEntityEvent@@@Z
       1355  54A 00006A50 ?FixupCausedToPlayer@@YAPAVCEntity@@PAV1@0H@Z
       1356  54B 0020C4C8 ?FlockMentalState_enum@@3VCEntityPropertyEnumType@@A
       1357  54C 0020C490 ?FlockMentalState_values@@3PAVCEntityPropertyEnumValue@@A
       1358  54D 001F5680 ?FogAttenuationType_enum@@3VCEntityPropertyEnumType@@A
       1359  54E 001F5668 ?FogAttenuationType_values@@3PAVCEntityPropertyEnumValue@@A
       1360  54F 001F56A0 ?FogGraduationType2_enum@@3VCEntityPropertyEnumType@@A
       1361  550 001F5688 ?FogGraduationType2_values@@3PAVCEntityPropertyEnumValue@@A
       1362  551 001F65C0 ?GPSMode_enum@@3VCEntityPropertyEnumType@@A
       1363  552 001F65B0 ?GPSMode_values@@3PAVCEntityPropertyEnumValue@@A
       1364  553 001F65A8 ?GPSState_enum@@3VCEntityPropertyEnumType@@A
       1365  554 001F6598 ?GPSState_values@@3PAVCEntityPropertyEnumValue@@A
       1366  555 000972A0 ?GameBagIsEmpty@CPlayer@@QAEHXZ
       1367  556 0011E710 ?GenerateNewDog@@YAXVCTString@@00@Z
       1368  557 0009AA20 ?GetActionMarker@CPlayer@@QAEPAVCPlayerActionMarker@@XZ
       1369  558 000974A0 ?GetBuckUrine@CPlayer@@QBEMXZ
       1370  559 000A8220 ?GetCall1ID@CPlayer@@QAEXXZ
       1371  55A 000A8250 ?GetCall2ID@CPlayer@@QAEXXZ
       1372  55B 000A6260 ?GetCompetitiveStartMarker@CPlayer@@QAEPAVCEntity@@XZ
       1373  55C 00097480 ?GetCoverScent@CPlayer@@QBEMXZ
       1374  55D 000A9330 ?GetCurAmmoSlot@CPlayer@@QBEJXZ
       1375  55E 000975A0 ?GetDeerDecoy@CPlayer@@QBE?AVCEntityPointer@@XZ
       1376  55F 000982C0 ?GetDetailStatsComp@CPlayer@@QAEXAAVCTString@@@Z
       1377  560 00099040 ?GetDetailStatsCoop@CPlayer@@QAEXAAVCTString@@@Z
       1378  561 00099BD0 ?GetDetailStatsSP@CPlayer@@QAEXAAVCTString@@J@Z
       1379  562 00097490 ?GetDoeInHeat@CPlayer@@QBEMXZ
       1380  563 0009CAD0 ?GetEntityInfo@CPlayer@@UAEPAXXZ
       1381  564 00001230 ?GetEntityInfoPosition@@YAXPAVCEntity@@PAMAAV?$Vector@M$02@@@Z
       1382  565 00006F80 ?GetGameDamageMultiplier@@YAMXZ
       1383  566 0009A7B0 ?GetGameSpyPlayerInfo@CPlayer@@UAEXJAAVCTString@@@Z
       1384  567 000A0970 ?GetGroundType@CPlayer@@QAEJXZ
       1385  568 00097540 ?GetGunIcon@CPlayer@@QBE?AVCTString@@J@Z
       1386  569 00097240 ?GetLargestBaggedGame@CPlayer@@QAE?AVCEntityPointer@@XZ
       1387  56A 000A4C40 ?GetLerpedAbsoluteViewPlacement@CPlayer@@QAEXAAVCPlacement3D@@@Z
       1388  56B 000BABB0 ?GetLerpedPlacement@CPlayerView@@UBE?AVCPlacement3D@@XZ
       1389  56C 000A08F0 ?GetLerpedWeaponPosition@CPlayer@@QAEXV?$Vector@M$02@@AAVCPlacement3D@@@Z
       1390  56D 000974B0 ?GetMaxScent@CPlayer@@QBEMXZ
       1391  56E 0009AA10 ?GetModelInstanceForRendering@CPlayer@@UAEPAVCModelInstance@@XZ
       1392  56F 00014370 ?GetName@CNavigationMarker@@UBEABVCTString@@XZ
       1393  570 000012E0 ?GetPositionCastRay@@YAXPAVCEntity@@0AAV?$Vector@M$02@@1@Z
       1394  571 00097F00 ?GetPredictName@CPlayer@@QBE?AVCTString@@XZ
       1395  572 0000DBB0 ?GetPredictionPair@CPlayer@@UAEPAVCEntity@@XZ
       1396  573 0008C2B0 ?GetPredictionPair@CPlayerView@@UAEPAVCEntity@@XZ
       1397  574 000ACA80 ?GetPredictionPair@CPulser@@UAEPAVCEntity@@XZ
       1398  575 00097FA0 ?GetPredictionRange@CPlayer@@UAEMXZ
       1399  576 00097F90 ?GetPredictionTime@CPlayer@@UAEMXZ
       1400  577 00097520 ?GetPresentGunAmmoCount@CPlayer@@QBEJXZ
       1401  578 000974E0 ?GetPresentGunAmmoType@CPlayer@@QBEJXZ
       1402  579 00097500 ?GetPresentGunMaxAmmoCount@CPlayer@@QBEJXZ
       1403  57A 000974C0 ?GetPresentGunNum@CPlayer@@QBEJXZ
       1404  57B 0009AE70 ?GetProjectileType@CPlayer@@QBEJJ@Z
       1405  57C 0000AE20 ?GetSP@@YAPBVCSessionProperties@@XZ
       1406  57D 000975D0 ?GetScrapeKit@CPlayer@@QBE?AVCEntityPointer@@XZ
       1407  57E 00097E10 ?GetSettings@CPlayer@@QAEPAVCPlayerSettings@@XZ
       1408  57F 00098200 ?GetShortStats@CPlayer@@QAEXAAVCTString@@@Z
       1409  580 000A08B0 ?GetSoundPosition@CPlayer@@UAE?AV?$Vector@M$02@@XZ
       1410  581 00098150 ?GetStats@CPlayer@@QAEXAAVCTString@@W4CompStatType@@J@Z
       1411  582 00098000 ?GetStatsInGameTimeGame@CPlayer@@QAEMXZ
       1412  583 00097FD0 ?GetStatsInGameTimeLevel@CPlayer@@QAEMXZ
       1413  584 00098080 ?GetStatsRealWorldStarted@CPlayer@@QAE?AVCTString@@XZ
       1414  585 00098030 ?GetStatsRealWorldTime@CPlayer@@QAEMXZ
       1415  586 00006740 ?GetStdEntityInfo@@YAPAUEntityInfo@@W4EntityInfoBodyType@@@Z
       1416  587 000A6680 ?GetTeleportingOffset@CPlayer@@QAE?AV?$Vector@M$02@@XZ
       1417  588 00081700 ?GetType@CNavigationMarker@@UAEJXZ
       1418  589 00096260 ?GetType@CPlayer@@UAEJXZ
       1419  58A 000A5AC0 ?GetViewEntity@CPlayer@@QAEPAVCEntity@@XZ
       1420  58B 0009ABE0 ?GetWorldGlaring@CPlayer@@QAEKXZ
       1421  58C 0009AD00 ?GetWorldWeatherTime@CPlayer@@QAEMXZ
       1422  58D 0009AD30 ?GetWorldWeatherTimeString@CPlayer@@QAE?AVCTString@@H@Z
       1423  58E 0009AE30 ?GetWorldWindDirectionAndSpeed@CPlayer@@QAEXAAM0@Z
       1424  58F 001F6F20 ?GravityType_enum@@3VCEntityPropertyEnumType@@A
       1425  590 001F6F00 ?GravityType_values@@3PAVCEntityPropertyEnumValue@@A
       1426  591 001FF7E8 ?GunAction_enum@@3VCEntityPropertyEnumType@@A
       1427  592 001FF780 ?GunAction_values@@3PAVCEntityPropertyEnumValue@@A
       1428  593 001FF8E0 ?GunAmmo_enum@@3VCEntityPropertyEnumType@@A
       1429  594 001FF8A0 ?GunAmmo_values@@3PAVCEntityPropertyEnumValue@@A
       1430  595 001FF808 ?GunBarrel_enum@@3VCEntityPropertyEnumType@@A
       1431  596 001FF7F0 ?GunBarrel_values@@3PAVCEntityPropertyEnumValue@@A
       1432  597 001FF838 ?GunChoke_enum@@3VCEntityPropertyEnumType@@A
       1433  598 001FF810 ?GunChoke_values@@3PAVCEntityPropertyEnumValue@@A
       1434  599 002010D0 ?GunGauge_enum@@3VCEntityPropertyEnumType@@A
       1435  59A 002010B0 ?GunGauge_values@@3PAVCEntityPropertyEnumValue@@A
       1436  59B 001FF878 ?GunOptic_enum@@3VCEntityPropertyEnumType@@A
       1437  59C 001FF840 ?GunOptic_values@@3PAVCEntityPropertyEnumValue@@A
       1438  59D 001FF898 ?GunReticle_enum@@3VCEntityPropertyEnumType@@A
       1439  59E 001FF880 ?GunReticle_values@@3PAVCEntityPropertyEnumValue@@A
       1440  59F 001FF778 ?GunState_enum@@3VCEntityPropertyEnumType@@A
       1441  5A0 001FF738 ?GunState_values@@3PAVCEntityPropertyEnumValue@@A
       1442  5A1 000AA920 ?H0x01910013_DoAutoActions_01@CPlayer@@QAEHABVCEntityEvent@@@Z
       1443  5A2 000AA9A0 ?H0x01910014_DoAutoActions_02@CPlayer@@QAEHABVCEntityEvent@@@Z
       1444  5A3 000AAAF0 ?H0x01910015_DoAutoActions_03@CPlayer@@QAEHABVCEntityEvent@@@Z
       1445  5A4 000AAA00 ?H0x01910016_DoAutoActions_04@CPlayer@@QAEHABVCEntityEvent@@@Z
       1446  5A5 000AA840 ?H0x01910017_DoAutoActions_05@CPlayer@@QAEHABVCEntityEvent@@@Z
       1447  5A6 000AABD0 ?H0x01910018_DoAutoActions_06@CPlayer@@QAEHABVCEntityEvent@@@Z
       1448  5A7 000AAFD0 ?H0x01910019_Main_01@CPlayer@@QAEHABVCEntityEvent@@@Z
       1449  5A8 000AB090 ?H0x0191001a_Main_02@CPlayer@@QAEHABVCEntityEvent@@@Z
       1450  5A9 000AB6B0 ?H0x0191001b_Main_03@CPlayer@@QAEHABVCEntityEvent@@@Z
       1451  5AA 000AC620 ?H0x0191001c_Main_04@CPlayer@@QAEHABVCEntityEvent@@@Z
       1452  5AB 000BB610 ?H0x01930001_Main_01@CPlayerView@@QAEHABVCEntityEvent@@@Z
       1453  5AC 000BB6D0 ?H0x01930002_Main_02@CPlayerView@@QAEHABVCEntityEvent@@@Z
       1454  5AD 000C49E0 ?H0x02bf0001_Main_01@CReminder@@QAEHABVCEntityEvent@@@Z
       1455  5AE 000C4A60 ?H0x02bf0002_Main_02@CReminder@@QAEHABVCEntityEvent@@@Z
       1456  5AF 000C4AF0 ?H0x02bf0003_Main_03@CReminder@@QAEHABVCEntityEvent@@@Z
       1457  5B0 000C4030 ?H0x77270003_Active_01@CPulser@@QAEHABVCEntityEvent@@@Z
       1458  5B1 000C4120 ?H0x77270004_Active_02@CPulser@@QAEHABVCEntityEvent@@@Z
       1459  5B2 000C3F80 ?H0x77270005_Active_03@CPulser@@QAEHABVCEntityEvent@@@Z
       1460  5B3 000C4180 ?H0x77270006_Active_04@CPulser@@QAEHABVCEntityEvent@@@Z
       1461  5B4 000C4200 ?H0x77270008_Inactive_01@CPulser@@QAEHABVCEntityEvent@@@Z
       1462  5B5 000C4280 ?H0x77270009_Inactive_02@CPulser@@QAEHABVCEntityEvent@@@Z
       1463  5B6 000C4300 ?H0x7727000b_Dummy_01@CPulser@@QAEHABVCEntityEvent@@@Z
       1464  5B7 000C4310 ?H0x7727000c_Dummy_02@CPulser@@QAEHABVCEntityEvent@@@Z
       1465  5B8 000C4400 ?H0x7727000d_Main_01@CPulser@@QAEHABVCEntityEvent@@@Z
       1466  5B9 000C44A0 ?H0x7727000e_Main_02@CPulser@@QAEHABVCEntityEvent@@@Z
       1467  5BA 00145560 ?HUDGetGameHUDVisible@@YAHXZ
       1468  5BB 00159CF0 ?HUDHandleWindowsMessage@@YAHABUtagMSG@@ABVCPlayer@@@Z
       1469  5BC 00145880 ?HUDRetrieveGameMenuCommand@@YA?AW4eGameMenuCommand@@PAVCPlayer@@@Z
       1470  5BD 001458E0 ?HUDSetBackpackUseKeyName@@YAXJABVCTString@@@Z
       1471  5BE 00145570 ?HUDSetGameHUDVisible@@YAXH@Z
       1472  5BF 001458C0 ?HUDSetGameMenuCommand@@YAXW4eGameMenuCommand@@PAVCPlayer@@@Z
       1473  5C0 0009C2B0 ?HandleFootprintsOverlay@CPlayer@@QAEXXZ
       1474  5C1 000A9CF0 ?HandleTimeDelayedEvent@CPlayer@@QAEXABVETimeDelayed@@@Z
       1475  5C2 000A9D60 ?HandleWaterTooDeepEvent@CPlayer@@QAEXXZ
       1476  5C3 00201108 ?HitZone_enum@@3VCEntityPropertyEnumType@@A
       1477  5C4 002010D8 ?HitZone_values@@3PAVCEntityPropertyEnumValue@@A
       1478  5C5 0009C660 ?InEdgeOfWorld@CPlayer@@QAEHXZ
       1479  5C6 0009B9D0 ?InVehicle@CPlayer@@QAEHXZ
       1480  5C7 000C4190 ?Inactive@CPulser@@QAEHABVCEntityEvent@@@Z
       1481  5C8 000187C0 ?InitParticles@@YAXXZ
       1482  5C9 000972B0 ?InitPulsers@CPlayer@@QAEXXZ
       1483  5CA 000A6500 ?InitializePlayer@CPlayer@@QAEXXZ
       1484  5CB 0009C9E0 ?IsConnected@CPlayer@@QBEHXZ
       1485  5CC 000A9640 ?IsCrawling@CPlayer@@QAEHXZ
       1486  5CD 000A9610 ?IsCrouchWalking@CPlayer@@QAEHXZ
       1487  5CE 000A96C0 ?IsDogMoving@CPlayer@@QAEHXZ
       1488  5CF 000A5B00 ?IsGpsRaised@CPlayer@@QAEHXZ
       1489  5D0 000816F0 ?IsMarker@CNavigationMarker@@UBEHXZ
       1490  5D1 000A9580 ?IsMovingTreeStand@CPlayer@@QAEHXZ
       1491  5D2 0009D420 ?IsPlayerLocalOrDemo@CPlayer@@QAEHXZ
       1492  5D3 000A95D0 ?IsRunning@CPlayer@@QAEHXZ
       1493  5D4 00014380 ?IsTargetable@CNavigationMarker@@UBEHXZ
       1494  5D5 000A9670 ?IsTurning@CPlayer@@QAEHXZ
       1495  5D6 000A96A0 ?IsTurningFast@CPlayer@@QAEHXZ
       1496  5D7 000A9590 ?IsWalking@CPlayer@@QAEHXZ
       1497  5D8 00049BD0 ?JumpFromBouncer@@YAXPAVCEntity@@0@Z
       1498  5D9 000018B0 ?KickEntity@@YAXPAVCEntity@@V?$Vector@M$02@@@Z
       1499  5DA 001F7720 ?LensFlareType_enum@@3VCEntityPropertyEnumType@@A
       1500  5DB 001F76B8 ?LensFlareType_values@@3PAVCEntityPropertyEnumValue@@A
       1501  5DC 00006B80 ?LerpPlacementsPrecise@@YA?AVCPlacement3D@@ABV1@0M@Z
       1502  5DD 001F76B0 ?LightType_enum@@3VCEntityPropertyEnumType@@A
       1503  5DE 001F7688 ?LightType_values@@3PAVCEntityPropertyEnumValue@@A
       1504  5DF 0009B420 ?ListenFromEntity@CPlayer@@QAEXPAVCEntity@@ABVCPlacement3D@@@Z
       1505  5E0 00082610 ?Main@CNavigationMarker@@QAEHABVCEntityEvent@@@Z
       1506  5E1 000AAC50 ?Main@CPlayer@@QAEHABVCEntityEvent@@@Z
       1507  5E2 000BB4C0 ?Main@CPlayerView@@QAEHABVCEntityEvent@@@Z
       1508  5E3 000C4320 ?Main@CPulser@@QAEHABVCEntityEvent@@@Z
       1509  5E4 000C48E0 ?Main@CReminder@@QAEHABVCEntityEvent@@@Z
       1510  5E5 00027B20 ?MakeCopy@EAIMoveFinished@@UAEPAVCEntityEvent@@XZ
       1511  5E6 00027B60 ?MakeCopy@EAIMovePointHit@@UAEPAVCEntityEvent@@XZ
       1512  5E7 00035FE0 ?MakeCopy@EATVClicked@@UAEPAVCEntityEvent@@XZ
       1513  5E8 00036090 ?MakeCopy@EATVLoadOnTruck@@UAEPAVCEntityEvent@@XZ
       1514  5E9 00035EF0 ?MakeCopy@EATVStart@@UAEPAVCEntityEvent@@XZ
       1515  5EA 00035FA0 ?MakeCopy@EATVStop@@UAEPAVCEntityEvent@@XZ
       1516  5EB 00036140 ?MakeCopy@EATVUnloadOffTruck@@UAEPAVCEntityEvent@@XZ
       1517  5EC 00062F40 ?MakeCopy@EActivate@@UAEPAVCEntityEvent@@XZ
       1518  5ED 000B1B20 ?MakeCopy@EAimLeft@@UAEPAVCEntityEvent@@XZ
       1519  5EE 000B1B60 ?MakeCopy@EAimRight@@UAEPAVCEntityEvent@@XZ
       1520  5EF 00091180 ?MakeCopy@EAnimalClaimed@@UAEPAVCEntityEvent@@XZ
       1521  5F0 0002BAA0 ?MakeCopy@EAnimalInit@@UAEPAVCEntityEvent@@XZ
       1522  5F1 000AE5A0 ?MakeCopy@EAnimatorInit@@UAEPAVCEntityEvent@@XZ
       1523  5F2 00090FC0 ?MakeCopy@EAutoAction@@UAEPAVCEntityEvent@@XZ
       1524  5F3 0010D070 ?MakeCopy@EBBAEat@@UAEPAVCEntityEvent@@XZ
       1525  5F4 0010D270 ?MakeCopy@EBBAFlare@@UAEPAVCEntityEvent@@XZ
       1526  5F5 0010CFF0 ?MakeCopy@EBBAFly@@UAEPAVCEntityEvent@@XZ
       1527  5F6 0010D030 ?MakeCopy@EBBAFlyFast@@UAEPAVCEntityEvent@@XZ
       1528  5F7 0010D1B0 ?MakeCopy@EBBALand@@UAEPAVCEntityEvent@@XZ
       1529  5F8 0010D1F0 ?MakeCopy@EBBALandOnNormal@@UAEPAVCEntityEvent@@XZ
       1530  5F9 0010D0F0 ?MakeCopy@EBBARest@@UAEPAVCEntityEvent@@XZ
       1531  5FA 0010D0B0 ?MakeCopy@EBBARoost@@UAEPAVCEntityEvent@@XZ
       1532  5FB 0010D170 ?MakeCopy@EBBARunTakeoff@@UAEPAVCEntityEvent@@XZ
       1533  5FC 0010D230 ?MakeCopy@EBBAStandby@@UAEPAVCEntityEvent@@XZ
       1534  5FD 0010D130 ?MakeCopy@EBBAVTakeoff@@UAEPAVCEntityEvent@@XZ
       1535  5FE 0010D2B0 ?MakeCopy@EBBAWounded@@UAEPAVCEntityEvent@@XZ
       1536  5FF 001337E0 ?MakeCopy@EBMSDrink@@UAEPAVCEntityEvent@@XZ
       1537  600 001337A0 ?MakeCopy@EBMSEat@@UAEPAVCEntityEvent@@XZ
       1538  601 00133760 ?MakeCopy@EBMSFlee@@UAEPAVCEntityEvent@@XZ
       1539  602 00133860 ?MakeCopy@EBMSIdle@@UAEPAVCEntityEvent@@XZ
       1540  603 001338A0 ?MakeCopy@EBMSIgnore@@UAEPAVCEntityEvent@@XZ
       1541  604 00133820 ?MakeCopy@EBMSRoost@@UAEPAVCEntityEvent@@XZ
       1542  605 00048310 ?MakeCopy@EBoatClicked@@UAEPAVCEntityEvent@@XZ
       1543  606 00048220 ?MakeCopy@EBoatStart@@UAEPAVCEntityEvent@@XZ
       1544  607 000482D0 ?MakeCopy@EBoatStop@@UAEPAVCEntityEvent@@XZ
       1545  608 0007B780 ?MakeCopy@EBrushDestroyed@@UAEPAVCEntityEvent@@XZ
       1546  609 001610D0 ?MakeCopy@EBuckVitalShot@@UAEPAVCEntityEvent@@XZ
       1547  60A 0003E1B0 ?MakeCopy@ECallMade@@UAEPAVCEntityEvent@@XZ
       1548  60B 00161450 ?MakeCopy@ECalledBuck@@UAEPAVCEntityEvent@@XZ
       1549  60C 00161410 ?MakeCopy@ECalledDoe@@UAEPAVCEntityEvent@@XZ
       1550  60D 00090DE0 ?MakeCopy@ECameraStart@@UAEPAVCEntityEvent@@XZ
       1551  60E 00090E90 ?MakeCopy@ECameraStop@@UAEPAVCEntityEvent@@XZ
       1552  60F 00063460 ?MakeCopy@ECenterMessage@@UAEPAVCEntityEvent@@XZ
       1553  610 00031850 ?MakeCopy@EChangeAnim@@UAEPAVCEntityEvent@@XZ
       1554  611 0006B160 ?MakeCopy@EChangeGravity@@UAEPAVCEntityEvent@@XZ
       1555  612 00080150 ?MakeCopy@EChangeMusic@@UAEPAVCEntityEvent@@XZ
       1556  613 00120A80 ?MakeCopy@EChaseAmbientAnimal@@UAEPAVCEntityEvent@@XZ
       1557  614 000637D0 ?MakeCopy@EClicked@@UAEPAVCEntityEvent@@XZ
       1558  615 00063570 ?MakeCopy@EComputerMessage@@UAEPAVCEntityEvent@@XZ
       1559  616 00062F80 ?MakeCopy@EDeactivate@@UAEPAVCEntityEvent@@XZ
       1560  617 00044500 ?MakeCopy@EDecoyStart@@UAEPAVCEntityEvent@@XZ
       1561  618 00053600 ?MakeCopy@EDeerCallInit@@UAEPAVCEntityEvent@@XZ
       1562  619 000536C0 ?MakeCopy@EDeerCallMade@@UAEPAVCEntityEvent@@XZ
       1563  61A 000555A0 ?MakeCopy@EDeerDecoyRecalled@@UAEPAVCEntityEvent@@XZ
       1564  61B 000554F0 ?MakeCopy@EDeerDecoyStart@@UAEPAVCEntityEvent@@XZ
       1565  61C 00090F80 ?MakeCopy@EDisconnected@@UAEPAVCEntityEvent@@XZ
       1566  61D 00051990 ?MakeCopy@EDoDecal@@UAEPAVCEntityEvent@@XZ
       1567  61E 001611F0 ?MakeCopy@EDoeVitalShot@@UAEPAVCEntityEvent@@XZ
       1568  61F 00120A40 ?MakeCopy@EDogEndRide@@UAEPAVCEntityEvent@@XZ
       1569  620 001208C0 ?MakeCopy@EDogFetch@@UAEPAVCEntityEvent@@XZ
       1570  621 00120980 ?MakeCopy@EDogFlush@@UAEPAVCEntityEvent@@XZ
       1571  622 00120840 ?MakeCopy@EDogHeel@@UAEPAVCEntityEvent@@XZ
       1572  623 00120900 ?MakeCopy@EDogHunt@@UAEPAVCEntityEvent@@XZ
       1573  624 00120800 ?MakeCopy@EDogIPlay@@UAEPAVCEntityEvent@@XZ
       1574  625 00120940 ?MakeCopy@EDogPoint@@UAEPAVCEntityEvent@@XZ
       1575  626 00120A00 ?MakeCopy@EDogRideInBoat@@UAEPAVCEntityEvent@@XZ
       1576  627 001209C0 ?MakeCopy@EDogRideInTruck@@UAEPAVCEntityEvent@@XZ
       1577  628 00120880 ?MakeCopy@EDogStay@@UAEPAVCEntityEvent@@XZ
       1578  629 001654B0 ?MakeCopy@EEat@@UAEPAVCEntityEvent@@XZ
       1579  62A 00063040 ?MakeCopy@EEnd@@UAEPAVCEntityEvent@@XZ
       1580  62B 00053520 ?MakeCopy@EEndCall@@UAEPAVCEntityEvent@@XZ
       1581  62C 000DA580 ?MakeCopy@EEnteredLauncher@@UAEPAVCEntityEvent@@XZ
       1582  62D 00062FC0 ?MakeCopy@EEnvironmentStart@@UAEPAVCEntityEvent@@XZ
       1583  62E 00063000 ?MakeCopy@EEnvironmentStop@@UAEPAVCEntityEvent@@XZ
       1584  62F 000B1760 ?MakeCopy@EFireGun@@UAEPAVCEntityEvent@@XZ
       1585  630 00165470 ?MakeCopy@EFlee@@UAEPAVCEntityEvent@@XZ
       1586  631 00068A90 ?MakeCopy@EGrasshopperParticlesInit@@UAEPAVCEntityEvent@@XZ
       1587  632 000B1610 ?MakeCopy@EGunInit@@UAEPAVCEntityEvent@@XZ
       1588  633 000B18C0 ?MakeCopy@EGunIsUp@@UAEPAVCEntityEvent@@XZ
       1589  634 000B1900 ?MakeCopy@EGunNotUp@@UAEPAVCEntityEvent@@XZ
       1590  635 000C8A00 ?MakeCopy@EHarbor@@UAEPAVCEntityEvent@@XZ
       1591  636 000B1880 ?MakeCopy@EHeartbeat@@UAEPAVCEntityEvent@@XZ
       1592  637 0007B740 ?MakeCopy@EHit@@UAEPAVCEntityEvent@@XZ
       1593  638 00063790 ?MakeCopy@EHitBySpaceShipBeam@@UAEPAVCEntityEvent@@XZ
       1594  639 000E2620 ?MakeCopy@EInitStand@@UAEPAVCEntityEvent@@XZ
       1595  63A 000910D0 ?MakeCopy@EKilledDeer@@UAEPAVCEntityEvent@@XZ
       1596  63B 00063330 ?MakeCopy@EKilledEnemy@@UAEPAVCEntityEvent@@XZ
       1597  63C 0006C6F0 ?MakeCopy@ELAAmbient@@UAEPAVCEntityEvent@@XZ
       1598  63D 0006C730 ?MakeCopy@ELAFlee@@UAEPAVCEntityEvent@@XZ
       1599  63E 0006C770 ?MakeCopy@ELASleep@@UAEPAVCEntityEvent@@XZ
       1600  63F 000DA630 ?MakeCopy@ELaunchSkeet@@UAEPAVCEntityEvent@@XZ
       1601  640 000DA6E0 ?MakeCopy@ELaunchTrap@@UAEPAVCEntityEvent@@XZ
       1602  641 000B17E0 ?MakeCopy@ELowerGun@@UAEPAVCEntityEvent@@XZ
       1603  642 000BCBF0 ?MakeCopy@EMemberNotify@@UAEPAVCEntityEvent@@XZ
       1604  643 00091420 ?MakeCopy@EMessage@@UAEPAVCEntityEvent@@XZ
       1605  644 000B19E0 ?MakeCopy@EPin1Down@@UAEPAVCEntityEvent@@XZ
       1606  645 000B19A0 ?MakeCopy@EPin1Up@@UAEPAVCEntityEvent@@XZ
       1607  646 000B1A60 ?MakeCopy@EPin2Down@@UAEPAVCEntityEvent@@XZ
       1608  647 000B1A20 ?MakeCopy@EPin2Up@@UAEPAVCEntityEvent@@XZ
       1609  648 000B1AE0 ?MakeCopy@EPin3Down@@UAEPAVCEntityEvent@@XZ
       1610  649 000B1AA0 ?MakeCopy@EPin3Up@@UAEPAVCEntityEvent@@XZ
       1611  64A 00091290 ?MakeCopy@EPlayerFired@@UAEPAVCEntityEvent@@XZ
       1612  64B 00091230 ?MakeCopy@EProfileScore@@UAEPAVCEntityEvent@@XZ
       1613  64C 000BCA30 ?MakeCopy@EProjectileHit@@UAEPAVCEntityEvent@@XZ
       1614  64D 000BCB90 ?MakeCopy@EProjectileInit@@UAEPAVCEntityEvent@@XZ
       1615  64E 000C3E50 ?MakeCopy@EPulse@@UAEPAVCEntityEvent@@XZ
       1616  64F 000EFED0 ?MakeCopy@EPulseAnimation@@UAEPAVCEntityEvent@@XZ
       1617  650 000EFF10 ?MakeCopy@EPulseMover@@UAEPAVCEntityEvent@@XZ
       1618  651 000C3DA0 ?MakeCopy@EPulserInit@@UAEPAVCEntityEvent@@XZ
       1619  652 000C5460 ?MakeCopy@ERAmbient@@UAEPAVCEntityEvent@@XZ
       1620  653 000C54A0 ?MakeCopy@ERFlee@@UAEPAVCEntityEvent@@XZ
       1621  654 000C54E0 ?MakeCopy@ERSleep@@UAEPAVCEntityEvent@@XZ
       1622  655 000B17A0 ?MakeCopy@ERaiseGun@@UAEPAVCEntityEvent@@XZ
       1623  656 00072C60 ?MakeCopy@ERangeModelDestruction@@UAEPAVCEntityEvent@@XZ
       1624  657 00090F40 ?MakeCopy@ERebirth@@UAEPAVCEntityEvent@@XZ
       1625  658 000632D0 ?MakeCopy@EReceiveScore@@UAEPAVCEntityEvent@@XZ
       1626  659 00160FB0 ?MakeCopy@ERecordBuckVitalShot@@UAEPAVCEntityEvent@@XZ
       1627  65A 000B1840 ?MakeCopy@EReloadGun@@UAEPAVCEntityEvent@@XZ
       1628  65B 00063170 ?MakeCopy@EReminder@@UAEPAVCEntityEvent@@XZ
       1629  65C 000C47D0 ?MakeCopy@EReminderInit@@UAEPAVCEntityEvent@@XZ
       1630  65D 001654F0 ?MakeCopy@ERest@@UAEPAVCEntityEvent@@XZ
       1631  65E 00091330 ?MakeCopy@ERoundChange@@UAEPAVCEntityEvent@@XZ
       1632  65F 000CAA60 ?MakeCopy@ESBAmbient@@UAEPAVCEntityEvent@@XZ
       1633  660 000CAAA0 ?MakeCopy@ESBFlee@@UAEPAVCEntityEvent@@XZ
       1634  661 000CAAE0 ?MakeCopy@ESBSleep@@UAEPAVCEntityEvent@@XZ
       1635  662 000DBF20 ?MakeCopy@ESGAmbient@@UAEPAVCEntityEvent@@XZ
       1636  663 000DBF60 ?MakeCopy@ESGFlee@@UAEPAVCEntityEvent@@XZ
       1637  664 000DBFA0 ?MakeCopy@ESGSleep@@UAEPAVCEntityEvent@@XZ
       1638  665 00063370 ?MakeCopy@ESecretFound@@UAEPAVCEntityEvent@@XZ
       1639  666 000535A0 ?MakeCopy@ESetCall@@UAEPAVCEntityEvent@@XZ
       1640  667 000B1940 ?MakeCopy@ESetGunFireOffset@@UAEPAVCEntityEvent@@XZ
       1641  668 000BC8B0 ?MakeCopy@EShotPenalty@@UAEPAVCEntityEvent@@XZ
       1642  669 00165530 ?MakeCopy@ESleep@@UAEPAVCEntityEvent@@XZ
       1643  66A 00091070 ?MakeCopy@ESlideTreeStand@@UAEPAVCEntityEvent@@XZ
       1644  66B 000633B0 ?MakeCopy@ESound@@UAEPAVCEntityEvent@@XZ
       1645  66C 00050780 ?MakeCopy@ESpawnDebris@@UAEPAVCEntityEvent@@XZ
       1646  66D 0003BEB0 ?MakeCopy@ESpawnEffect@@UAEPAVCEntityEvent@@XZ
       1647  66E 00046BD0 ?MakeCopy@ESpawnSpray@@UAEPAVCEntityEvent@@XZ
       1648  66F 001615B0 ?MakeCopy@EStalkedBuck@@UAEPAVCEntityEvent@@XZ
       1649  670 00161550 ?MakeCopy@EStalkedDoe@@UAEPAVCEntityEvent@@XZ
       1650  671 00062E90 ?MakeCopy@EStart@@UAEPAVCEntityEvent@@XZ
       1651  672 000631D0 ?MakeCopy@EStartAttack@@UAEPAVCEntityEvent@@XZ
       1652  673 000534E0 ?MakeCopy@EStartCall@@UAEPAVCEntityEvent@@XZ
       1653  674 00062E50 ?MakeCopy@EStop@@UAEPAVCEntityEvent@@XZ
       1654  675 00063210 ?MakeCopy@EStopAttack@@UAEPAVCEntityEvent@@XZ
       1655  676 00063250 ?MakeCopy@EStopBlindness@@UAEPAVCEntityEvent@@XZ
       1656  677 00063290 ?MakeCopy@EStopDeafness@@UAEPAVCEntityEvent@@XZ
       1657  678 000DA790 ?MakeCopy@EStrength@@UAEPAVCEntityEvent@@XZ
       1658  679 000E8300 ?MakeCopy@ESurroundParticleSystemInit@@UAEPAVCEntityEvent@@XZ
       1659  67A 00161300 ?MakeCopy@ETargetBullsEye@@UAEPAVCEntityEvent@@XZ
       1660  67B 00063130 ?MakeCopy@ETeleportMovingBrush@@UAEPAVCEntityEvent@@XZ
       1661  67C 000EFE90 ?MakeCopy@EThink@@UAEPAVCEntityEvent@@XZ
       1662  67D 000EFDD0 ?MakeCopy@EThinkerInit@@UAEPAVCEntityEvent@@XZ
       1663  67E 000F09E0 ?MakeCopy@ETimeDelayed@@UAEPAVCEntityEvent@@XZ
       1664  67F 00161510 ?MakeCopy@ETrackedBloodTrail@@UAEPAVCEntityEvent@@XZ
       1665  680 001614D0 ?MakeCopy@ETrackedBuck@@UAEPAVCEntityEvent@@XZ
       1666  681 00161490 ?MakeCopy@ETrackedDoe@@UAEPAVCEntityEvent@@XZ
       1667  682 00063080 ?MakeCopy@ETrigger@@UAEPAVCEntityEvent@@XZ
       1668  683 000F57F0 ?MakeCopy@ETruckClicked@@UAEPAVCEntityEvent@@XZ
       1669  684 000F5770 ?MakeCopy@ETruckFirstPersonView@@UAEPAVCEntityEvent@@XZ
       1670  685 000F58A0 ?MakeCopy@ETruckLoadATV@@UAEPAVCEntityEvent@@XZ
       1671  686 000F5680 ?MakeCopy@ETruckStart@@UAEPAVCEntityEvent@@XZ
       1672  687 000F5730 ?MakeCopy@ETruckStop@@UAEPAVCEntityEvent@@XZ
       1673  688 000F57B0 ?MakeCopy@ETruckThirdPersonView@@UAEPAVCEntityEvent@@XZ
       1674  689 00063880 ?MakeCopy@EUseCall@@UAEPAVCEntityEvent@@XZ
       1675  68A 00053560 ?MakeCopy@EUseNextCall@@UAEPAVCEntityEvent@@XZ
       1676  68B 000BA970 ?MakeCopy@EViewInit@@UAEPAVCEntityEvent@@XZ
       1677  68C 00063680 ?MakeCopy@EVoiceMessage@@UAEPAVCEntityEvent@@XZ
       1678  68D 00091370 ?MakeCopy@EWorldClick@@UAEPAVCEntityEvent@@XZ
       1679  68E 00064800 ?MakeCopy@GPSCenterView@@UAEPAVCEntityEvent@@XZ
       1680  68F 000647C0 ?MakeCopy@GPSClearWayPoint@@UAEPAVCEntityEvent@@XZ
       1681  690 000646C0 ?MakeCopy@GPSModeBig@@UAEPAVCEntityEvent@@XZ
       1682  691 00064700 ?MakeCopy@GPSModeSmall@@UAEPAVCEntityEvent@@XZ
       1683  692 00064600 ?MakeCopy@GPSMoveDown@@UAEPAVCEntityEvent@@XZ
       1684  693 00064540 ?MakeCopy@GPSMoveLeft@@UAEPAVCEntityEvent@@XZ
       1685  694 00064580 ?MakeCopy@GPSMoveRight@@UAEPAVCEntityEvent@@XZ
       1686  695 000645C0 ?MakeCopy@GPSMoveUp@@UAEPAVCEntityEvent@@XZ
       1687  696 00064780 ?MakeCopy@GPSNextWayPoint@@UAEPAVCEntityEvent@@XZ
       1688  697 00064640 ?MakeCopy@GPSRaiseLower@@UAEPAVCEntityEvent@@XZ
       1689  698 00064740 ?MakeCopy@GPSSetWayPoint@@UAEPAVCEntityEvent@@XZ
       1690  699 00064680 ?MakeCopy@GPSSwitchModes@@UAEPAVCEntityEvent@@XZ
       1691  69A 000644C0 ?MakeCopy@GPSZoomIn@@UAEPAVCEntityEvent@@XZ
       1692  69B 00064500 ?MakeCopy@GPSZoomOut@@UAEPAVCEntityEvent@@XZ
       1693  69C 001F5B58 ?MessageSound_enum@@3VCEntityPropertyEnumType@@A
       1694  69D 001F5B48 ?MessageSound_values@@3PAVCEntityPropertyEnumValue@@A
       1695  69E 001F9D58 ?MusicType_enum@@3VCEntityPropertyEnumType@@A
       1696  69F 001F9D30 ?MusicType_values@@3PAVCEntityPropertyEnumValue@@A
       1697  6A0 00096000 ?MyTruckLoaded@CPlayer@@UAEHXZ
       1698  6A1 000010D0 ?NewMessage@CCompMessageID@@QAEXABVCTFileName@@@Z
       1699  6A2 00096020 ?OnATVCloseToTruck@CPlayer@@QAEHXZ
       1700  6A3 001FACC8 ?OpticType_enum@@3VCEntityPropertyEnumType@@A
       1701  6A4 001FAC88 ?OpticType_values@@3PAVCEntityPropertyEnumValue@@A
       1702  6A5 0020F440 ?PP_BroadSkill_enum@@3VCEntityPropertyEnumType@@A
       1703  6A6 0020F420 ?PP_BroadSkill_values@@3PAVCEntityPropertyEnumValue@@A
       1704  6A7 0020F4F0 ?PP_Skill_enum@@3VCEntityPropertyEnumType@@A
       1705  6A8 0020F448 ?PP_Skill_values@@3PAVCEntityPropertyEnumValue@@A
       1706  6A9 001FA5A8 ?PSBlendType_enum@@3VCEntityPropertyEnumType@@A
       1707  6AA 001FA578 ?PSBlendType_values@@3PAVCEntityPropertyEnumValue@@A
       1708  6AB 001FA5E0 ?PSFadeType_enum@@3VCEntityPropertyEnumType@@A
       1709  6AC 001FA5C8 ?PSFadeType_values@@3PAVCEntityPropertyEnumValue@@A
       1710  6AD 001FA5C0 ?PSPartType_enum@@3VCEntityPropertyEnumType@@A
       1711  6AE 001FA5B0 ?PSPartType_values@@3PAVCEntityPropertyEnumValue@@A
       1712  6AF 001FA5F8 ?PSScaleType_enum@@3VCEntityPropertyEnumType@@A
       1713  6B0 001FA5E8 ?PSScaleType_values@@3PAVCEntityPropertyEnumValue@@A
       1714  6B1 001F5BD8 ?ParticleTexture_enum@@3VCEntityPropertyEnumType@@A
       1715  6B2 001F5B60 ?ParticleTexture_values@@3PAVCEntityPropertyEnumValue@@A
       1716  6B3 001FA2D0 ?ParticlesHolderType_enum@@3VCEntityPropertyEnumType@@A
       1717  6B4 001FA260 ?ParticlesHolderType_values@@3PAVCEntityPropertyEnumValue@@A
       1718  6B5 00022F60 ?Particles_Appearing@@YAXPAVCEntity@@M@Z
       1719  6B6 0001EB00 ?Particles_Atomic@@YAXPAVCEntity@@MMW4ParticleTexture@@J@Z
       1720  6B7 0001AA00 ?Particles_BeastBigProjectileTrail@@YAXPAVCEntity@@MMMJ@Z
       1721  6B8 0001A9F0 ?Particles_BeastBigProjectileTrail_Prepare@@YAXPAVCEntity@@@Z
       1722  6B9 0001A300 ?Particles_BeastProjectileDebrisTrail@@YAXPAVCEntity@@M@Z
       1723  6BA 0001A2F0 ?Particles_BeastProjectileDebrisTrail_Prepare@@YAXPAVCEntity@@@Z
       1724  6BB 0001A490 ?Particles_BeastProjectileTrail@@YAXPAVCEntity@@MMJ@Z
       1725  6BC 0001A480 ?Particles_BeastProjectileTrail_Prepare@@YAXPAVCEntity@@@Z
       1726  6BD 00023140 ?Particles_BloodSpray@@YAXW4SprayParticlesType@@PAVCEntity@@V?$Vector@M$02@@MV?$AABBox@M$02@@2MM@Z
       1727  6BE 0001B3E0 ?Particles_BloodTrail@@YAXPAVCEntity@@@Z
       1728  6BF 00019130 ?Particles_BombTrail@@YAXPAVCEntity@@@Z
       1729  6C0 00019120 ?Particles_BombTrail_Prepare@@YAXPAVCEntity@@@Z
       1730  6C1 00021450 ?Particles_BulletSpray@@YAXPAVCEntity@@V?$Vector@M$02@@W4EffectParticlesType@@M1@Z
       1731  6C2 00019E40 ?Particles_CannonBall@@YAXPAVCEntity@@M@Z
       1732  6C3 00019E30 ?Particles_CannonBall_Prepare@@YAXPAVCEntity@@@Z
       1733  6C4 00019700 ?Particles_ColoredStarsTrail@@YAXPAVCEntity@@@Z
       1734  6C5 0001DA70 ?Particles_DamageSmoke@@YAXPAVCEntity@@MV?$AABBox@M$02@@M@Z
       1735  6C6 00022AB0 ?Particles_Death@@YAXPAVCEntity@@M@Z
       1736  6C7 00023A50 ?Particles_DestroyingObelisk@@YAXPAVCEntity@@M@Z
       1737  6C8 00023DE0 ?Particles_DestroyingPylon@@YAXPAVCEntity@@V?$Vector@M$02@@M@Z
       1738  6C9 0001E480 ?Particles_ElectricitySparks@@YAXPAVCEntity@@MMMJ@Z
       1739  6CA 0001CDF0 ?Particles_Emanate@@YAXPAVCEntity@@MMW4ParticleTexture@@J@Z
       1740  6CB 0001D410 ?Particles_EmanatePlane@@YAXPAVCEntity@@MMMMMMW4ParticleTexture@@J@Z
       1741  6CC 000219A0 ?Particles_EmptyShells@@YAXPAVCEntity@@PAUShellLaunchData@@@Z
       1742  6CD 0001B5F0 ?Particles_FireBreath@@YAJPAVCEntity@@V?$Vector@M$02@@1MM@Z
       1743  6CE 00019950 ?Particles_Fireball01Trail@@YAXPAVCEntity@@@Z
       1744  6CF 00019940 ?Particles_Fireball01Trail_Prepare@@YAXPAVCEntity@@@Z
       1745  6D0 00019380 ?Particles_FirecrackerTrail@@YAXPAVCEntity@@@Z
       1746  6D1 00019370 ?Particles_FirecrackerTrail_Prepare@@YAXPAVCEntity@@@Z
       1747  6D2 0001C1B0 ?Particles_FlameThrower@@YAXABVCPlacement3D@@0MM@Z
       1748  6D3 0001D710 ?Particles_Fountain@@YAXPAVCEntity@@MMW4ParticleTexture@@J@Z
       1749  6D4 0001EF60 ?Particles_Ghostbuster@@YAXABV?$Vector@M$02@@0JMMM@Z
       1750  6D5 00019B80 ?Particles_GrenadeTrail@@YAXPAVCEntity@@@Z
       1751  6D6 00019B70 ?Particles_GrenadeTrail_Prepare@@YAXPAVCEntity@@@Z
       1752  6D7 00024260 ?Particles_HitGround@@YAXPAVCEntity@@MM@Z
       1753  6D8 0001A110 ?Particles_LavaBombTrail@@YAXPAVCEntity@@M@Z
       1754  6D9 0001A100 ?Particles_LavaBombTrail_Prepare@@YAXPAVCEntity@@@Z
       1755  6DA 0001E980 ?Particles_LavaErupting@@YAXPAVCEntity@@MMMMMM@Z
       1756  6DB 00021050 ?Particles_LavaFlow@@YAXPAVCEntity@@MMMMMJ@Z
       1757  6DC 00019F80 ?Particles_LavaTrail@@YAXPAVCEntity@@@Z
       1758  6DD 00019F70 ?Particles_LavaTrail_Prepare@@YAXPAVCEntity@@@Z
       1759  6DE 000207C0 ?Particles_Lightning@@YAXV?$Vector@M$02@@0M@Z
       1760  6DF 0001E120 ?Particles_MetalParts@@YAXPAVCEntity@@MV?$AABBox@M$02@@M@Z
       1761  6E0 0001F3E0 ?Particles_Rain@@YAXPAVCEntity@@MJMPAVCTextureData@@AAV?$AABBox@M$02@@@Z
       1762  6E1 0001B980 ?Particles_Regeneration@@YAJPAVCEntity@@MMMH@Z
       1763  6E2 0001C820 ?Particles_Rising@@YAXPAVCEntity@@MMMMMMMW4ParticleTexture@@J@Z
       1764  6E3 0001B000 ?Particles_RocketTrail@@YAXPAVCEntity@@M@Z
       1765  6E4 0001AFF0 ?Particles_RocketTrail_Prepare@@YAXPAVCEntity@@@Z
       1766  6E5 00018FD0 ?Particles_RomboidTrail@@YAXPAVCEntity@@@Z
       1767  6E6 0001DD80 ?Particles_RunningDust@@YAXPAVCEntity@@@Z
       1768  6E7 0001DD70 ?Particles_RunningDust_Prepare@@YAXPAVCEntity@@@Z
       1769  6E8 00020870 ?Particles_SandFlow@@YAXPAVCEntity@@MMMMMJ@Z
       1770  6E9 0001FD80 ?Particles_Snow@@YAXPAVCEntity@@MJMPAVCTextureData@@AAV?$AABBox@M$02@@MM@Z
       1771  6EA 0001CB80 ?Particles_Spiral@@YAXPAVCEntity@@MMW4ParticleTexture@@J@Z
       1772  6EB 000195D0 ?Particles_SpiralTrail@@YAXPAVCEntity@@@Z
       1773  6EC 0001C5E0 ?Particles_Stardust@@YAXPAVCEntity@@MMW4ParticleTexture@@J@Z
       1774  6ED 0001F890 ?Particles_VehicleSplash@@YAXPAVCEntity@@MJMM@Z
       1775  6EE 00018E30 ?Particles_ViewerLocal@@YAXPAVCEntity@@@Z
       1776  6EF 00020C60 ?Particles_WaterFlow@@YAXPAVCEntity@@MMMMMJ@Z
       1777  6F0 0001D040 ?Particles_WaterfallFoam@@YAXPAVCEntity@@MMMMMMMJ@Z
       1778  6F1 00019810 ?Particles_WhiteLineTrail@@YAXPAVCEntity@@@Z
       1779  6F2 000A23A0 ?PlayMovingSounds@CPlayer@@QAEXXZ
       1780  6F3 001FEF70 ?PlayerAutoAction_enum@@3VCEntityPropertyEnumType@@A
       1781  6F4 001FEEA8 ?PlayerAutoAction_values@@3PAVCEntityPropertyEnumValue@@A
       1782  6F5 001FABF8 ?PlayerInterfaceType_enum@@3VCEntityPropertyEnumType@@A
       1783  6F6 001FAB88 ?PlayerInterfaceType_values@@3PAVCEntityPropertyEnumValue@@A
       1784  6F7 000A9500 ?PlayerPhysics@CPlayer@@QAEXXZ
       1785  6F8 001FAC80 ?PlayerPrimaryState_enum@@3VCEntityPropertyEnumType@@A
       1786  6F9 001FAC00 ?PlayerPrimaryState_values@@3PAVCEntityPropertyEnumValue@@A
       1787  6FA 001FAB80 ?PlayerViewType_enum@@3VCEntityPropertyEnumType@@A
       1788  6FB 001FAB60 ?PlayerViewType_values@@3PAVCEntityPropertyEnumValue@@A
       1789  6FC 00097910 ?PopZoomOut@CPlayer@@QAEXXZ
       1790  6FD 0009C6C0 ?PostMoving@CPlayer@@UAEXXZ
       1791  6FE 000BABA0 ?PostMoving@CPlayerView@@UAEXXZ
       1792  6FF 0009C170 ?PreMoving@CPlayer@@UAEXXZ
       1793  700 000BAB70 ?PreMoving@CPlayerView@@UAEXXZ
       1794  701 0009D410 ?PreapplyAction@CPlayer@@QAEXABVCPlayerAction@@@Z
       1795  702 0009D450 ?PrepareDemoMode@CPlayer@@QAEXXZ
       1796  703 000068C0 ?PrintCenterMessage@@YAXPAVCEntity@@0ABVCTString@@MW4MessageSound@@@Z
       1797  704 000062B0 ?PrintConsole@@YAPBDXZ
       1798  705 000062C0 ?PrintStack@@YAPBDPAVCEntity@@@Z
       1799  706 000AA150 ?Pulse@CPlayer@@QAEHABVCEntityEvent@@@Z
       1800  707 000A0980 ?QueryGroundType@CPlayer@@QAEXXZ
       1801  708 000A4920 ?RaiseLowerWeapon@CPlayer@@QAEHXZ
       1802  709 000A4870 ?ReactToWorldClick@CPlayer@@QAEXJ@Z
       1803  70A 0000ACA0 ?Read@PlayerAnimState@@QAEXPAVCTStream@@@Z
       1804  70B 00001030 ?Read_t@CCompMessageID@@QAEXAAVCTStream@@@Z
       1805  70C 000818A0 ?Read_t@CNavigationMarker@@UAEXPAVCTStream@@@Z
       1806  70D 00096830 ?Read_t@CPlayer@@UAEXPAVCTStream@@@Z
       1807  70E 000E0C10 ?Read_t@CSoundHolder@@UAEXPAVCTStream@@@Z
       1808  70F 000FCE10 ?Read_t@CVoiceHolder@@UAEXPAVCTStream@@@Z
       1809  710 000AA6F0 ?Rebirth@CPlayer@@QAEHABVCEntityEvent@@@Z
       1810  711 000A7670 ?RecordEndOfLevelData@CPlayer@@QAEXXZ
       1811  712 00001A00 ?RemoveAttachmentFromModel@@YAXAAVCModelObject@@J@Z
       1812  713 0009BC80 ?RenderCameraView@CPlayer@@QAEXPAVCDrawPort@@H@Z
       1813  714 0009B4F0 ?RenderDummyView@CPlayer@@QAEXPAVCDrawPort@@@Z
       1814  715 0009BEF0 ?RenderGameView@CPlayer@@UAEXPAVCDrawPort@@PAX@Z
       1815  716 000A6170 ?RenderHUD@CPlayer@@QAEXAAVCPerspectiveProjection3D@@PAVCDrawPort@@V?$Vector@M$02@@KKHJ@Z
       1816  717 00081960 ?RenderParticles@CNavigationMarker@@UAEXXZ
       1817  718 000A77D0 ?RenderParticles@CPlayer@@UAEXXZ
       1818  719 000BAC00 ?RenderParticles@CPlayerView@@UAEXXZ
       1819  71A 0009B620 ?RenderPlayerView@CPlayer@@QAEXPAVCDrawPort@@H@Z
       1820  71B 0009BA00 ?RenderSunGlare@CPlayer@@QAEXPAVCDrawPort@@@Z
       1821  71C 00205F40 ?RndType_enum@@3VCEntityPropertyEnumType@@A
       1822  71D 00205F28 ?RndType_values@@3PAVCEntityPropertyEnumValue@@A
       1823  71E 000A26E0 ?RoundViewAngle@CPlayer@@QAEXAAMM@Z
       1824  71F 000A2740 ?RoundViewAngleDown@CPlayer@@QAEXAAMM@Z
       1825  720 000A2720 ?RoundViewAngleUp@CPlayer@@QAEXAAMM@Z
       1826  721 00203E50 ?SOUND_SEASON_enum@@3VCEntityPropertyEnumType@@A
       1827  722 00203E00 ?SOUND_SEASON_values@@3PAVCEntityPropertyEnumValue@@A
       1828  723 00096EA0 ?SaveGameBag@CPlayer@@QAEXXZ
       1829  724 0009A8E0 ?SayVoiceMessage@CPlayer@@QAEXABVCTFileName@@@Z
       1830  725 00001590 ?SendInRange@@YAXPAVCEntity@@W4EventEType@@ABV?$AABBox@M$02@@@Z
       1831  726 000013A0 ?SendToTarget@@YAXPAVCEntity@@W4EventEType@@0@Z
       1832  727 00001370 ?SetBoolFromBoolEType@@YAXAAHW4BoolEType@@@Z
       1833  728 000BAD40 ?SetCameraPosition@CPlayerView@@QAEXXZ
       1834  729 000BAC20 ?SetCameraPositionForDemo@CPlayerView@@QAEXXZ
       1835  72A 00001920 ?SetComponents@@YAXPAVCEntity@@AAVCModelObject@@KKKKK@Z
       1836  72B 0009C9A0 ?SetConnected@CPlayer@@QAEXXZ
       1837  72C 000A8BE0 ?SetCurrentGun@CPlayer@@QAEXJ@Z
       1838  72D 00097600 ?SetCurrentScope@CPlayer@@QAEXJ@Z
       1839  72E 0009AB00 ?SetDefaultMouthPitch@CPlayer@@QAEXXZ
       1840  72F 000264D0 ?SetDefaultProperties@CAIAnimator@@UAEXXZ
       1841  730 00027BA0 ?SetDefaultProperties@CAIBase@@UAEXXZ
       1842  731 0002BC40 ?SetDefaultProperties@CAIController@@UAEXXZ
       1843  732 0002F920 ?SetDefaultProperties@CAIMover@@UAEXXZ
       1844  733 000362D0 ?SetDefaultProperties@CATV@@UAEXXZ
       1845  734 00030A90 ?SetDefaultProperties@CAmmoShell@@UAEXXZ
       1846  735 00031900 ?SetDefaultProperties@CAnimationChanger@@UAEXXZ
       1847  736 000327E0 ?SetDefaultProperties@CAnimationHub@@UAEXXZ
       1848  737 001080C0 ?SetDefaultProperties@CBFly@@UAEXXZ
       1849  738 000395D0 ?SetDefaultProperties@CBackgroundViewer@@UAEXXZ
       1850  739 0003A6F0 ?SetDefaultProperties@CBaggedGame@@UAEXXZ
       1851  73A 0003C000 ?SetDefaultProperties@CBasicEffect@@UAEXXZ
       1852  73B 0010A6D0 ?SetDefaultProperties@CBirdAnimator@@UAEXXZ
       1853  73C 0010D2F0 ?SetDefaultProperties@CBirdBase@@UAEXXZ
       1854  73D 0003E2C0 ?SetDefaultProperties@CBirdCall@@UAEXXZ
       1855  73E 0003F1C0 ?SetDefaultProperties@CBirdCallDoubleReed@@UAEXXZ
       1856  73F 0003FBD0 ?SetDefaultProperties@CBirdCallGooseFlute@@UAEXXZ
       1857  740 000405C0 ?SetDefaultProperties@CBirdCallPintailWhistle@@UAEXXZ
       1858  741 00040FB0 ?SetDefaultProperties@CBirdCallSingleReed@@UAEXXZ
       1859  742 000419A0 ?SetDefaultProperties@CBirdCallTealWhistle@@UAEXXZ
       1860  743 00042390 ?SetDefaultProperties@CBirdCallTurkeyBox@@UAEXXZ
       1861  744 00042D80 ?SetDefaultProperties@CBirdCallTurkeyDiaph@@UAEXXZ
       1862  745 00043770 ?SetDefaultProperties@CBirdCallTurkeySlate@@UAEXXZ
       1863  746 000445C0 ?SetDefaultProperties@CBirdDecoy@@UAEXXZ
       1864  747 001178D0 ?SetDefaultProperties@CBirdMover@@UAEXXZ
       1865  748 000454E0 ?SetDefaultProperties@CBlendController@@UAEXXZ
       1866  749 00045CA0 ?SetDefaultProperties@CBlind@@UAEXXZ
       1867  74A 00046CD0 ?SetDefaultProperties@CBloodSpray@@UAEXXZ
       1868  74B 00048450 ?SetDefaultProperties@CBoat@@UAEXXZ
       1869  74C 00049C50 ?SetDefaultProperties@CBouncer@@UAEXXZ
       1870  74D 0004A210 ?SetDefaultProperties@CCall@@UAEXXZ
       1871  74E 0004AD30 ?SetDefaultProperties@CCamera@@UAEXXZ
       1872  74F 0004DD10 ?SetDefaultProperties@CCameraMarker@@UAEXXZ
       1873  750 0004E400 ?SetDefaultProperties@CCopier@@UAEXXZ
       1874  751 0004F030 ?SetDefaultProperties@CCounter@@UAEXXZ
       1875  752 0004FE20 ?SetDefaultProperties@CDamager@@UAEXXZ
       1876  753 00050830 ?SetDefaultProperties@CDebris@@UAEXXZ
       1877  754 00051AF0 ?SetDefaultProperties@CDecalManager@@UAEXXZ
       1878  755 00053820 ?SetDefaultProperties@CDeerCall@@UAEXXZ
       1879  756 00055650 ?SetDefaultProperties@CDeerDecoy@@UAEXXZ
       1880  757 00056650 ?SetDefaultProperties@CDistantBirds@@UAEXXZ
       1881  758 00120AC0 ?SetDefaultProperties@CDog@@UAEXXZ
       1882  759 0012D4B0 ?SetDefaultProperties@CDogAnimator@@UAEXXZ
       1883  75A 0012E9C0 ?SetDefaultProperties@CDogMover@@UAEXXZ
       1884  75B 000584F0 ?SetDefaultProperties@CDoorController@@UAEXXZ
       1885  75C 00059B30 ?SetDefaultProperties@CEdgeMarker@@UAEXXZ
       1886  75D 0005A980 ?SetDefaultProperties@CEntityBreath@@UAEXXZ
       1887  75E 0005C8D0 ?SetDefaultProperties@CEnvironmentBase@@UAEXXZ
       1888  75F 0005EA40 ?SetDefaultProperties@CEnvironmentMarker@@UAEXXZ
       1889  760 0012FD40 ?SetDefaultProperties@CFeatherSystem@@UAEXXZ
       1890  761 0005F130 ?SetDefaultProperties@CFieldBlind@@UAEXXZ
       1891  762 0005FD00 ?SetDefaultProperties@CFirefly@@UAEXXZ
       1892  763 00061500 ?SetDefaultProperties@CFireflySpawner@@UAEXXZ
       1893  764 001338E0 ?SetDefaultProperties@CFlockBase@@UAEXXZ
       1894  765 0013FA30 ?SetDefaultProperties@CFlockMover@@UAEXXZ
       1895  766 00140D70 ?SetDefaultProperties@CFlockRegular@@UAEXXZ
       1896  767 00142450 ?SetDefaultProperties@CFlockUpland@@UAEXXZ
       1897  768 00144C50 ?SetDefaultProperties@CFlockV@@UAEXXZ
       1898  769 000627B0 ?SetDefaultProperties@CFogMarker@@UAEXXZ
       1899  76A 00064840 ?SetDefaultProperties@CGPS@@UAEXXZ
       1900  76B 000679A0 ?SetDefaultProperties@CGPSText@@UAEXXZ
       1901  76C 00063930 ?SetDefaultProperties@CGlobal@@UAEXXZ
       1902  76D 00067FE0 ?SetDefaultProperties@CGradientMarker@@UAEXXZ
       1903  76E 00068B40 ?SetDefaultProperties@CGrasshopperParticles@@UAEXXZ
       1904  76F 0006A650 ?SetDefaultProperties@CGravityMarker@@UAEXXZ
       1905  770 0006B210 ?SetDefaultProperties@CGravityRouter@@UAEXXZ
       1906  771 0006B960 ?SetDefaultProperties@CHazeMarker@@UAEXXZ
       1907  772 0006C7B0 ?SetDefaultProperties@CLargeAnimal@@UAEXXZ
       1908  773 0015E510 ?SetDefaultProperties@CLeafSystem@@UAEXXZ
       1909  774 0006F3B0 ?SetDefaultProperties@CLight@@UAEXXZ
       1910  775 000705A0 ?SetDefaultProperties@CLightning@@UAEXXZ
       1911  776 00071600 ?SetDefaultProperties@CMarker@@UAEXXZ
       1912  777 00071C00 ?SetDefaultProperties@CMessageHolder@@UAEXXZ
       1913  778 00072390 ?SetDefaultProperties@CMirrorMarker@@UAEXXZ
       1914  779 00072CA0 ?SetDefaultProperties@CModelDestruction@@UAEXXZ
       1915  77A 00075610 ?SetDefaultProperties@CModelHolder2@@UAEXXZ
       1916  77B 00073F20 ?SetDefaultProperties@CModelHolder@@UAEXXZ
       1917  77C 00078410 ?SetDefaultProperties@CMoveableModelHolder@@UAEXXZ
       1918  77D 0007B7C0 ?SetDefaultProperties@CMovingBrush@@UAEXXZ
       1919  77E 0007E8A0 ?SetDefaultProperties@CMovingBrushMarker@@UAEXXZ
       1920  77F 0007EFF0 ?SetDefaultProperties@CMusicChanger@@UAEXXZ
       1921  780 000802B0 ?SetDefaultProperties@CMusicHolder@@UAEXXZ
       1922  781 000815E0 ?SetDefaultProperties@CNavigationMarker@@UAEXXZ
       1923  782 000846D0 ?SetDefaultProperties@CParticleSystem@@UAEXXZ
       1924  783 00082D40 ?SetDefaultProperties@CParticlesHolder@@UAEXXZ
       1925  784 000886F0 ?SetDefaultProperties@CPathFinding@@UAEXXZ
       1926  785 0008BB60 ?SetDefaultProperties@CPendulum@@UAEXXZ
       1927  786 00095600 ?SetDefaultProperties@CPlayer@@UAEXXZ
       1928  787 000ADE60 ?SetDefaultProperties@CPlayerActionMarker@@UAEXXZ
       1929  788 000AE650 ?SetDefaultProperties@CPlayerAnimatorSKA@@UAEXXZ
       1930  789 000B1BA0 ?SetDefaultProperties@CPlayerGun@@UAEXXZ
       1931  78A 000BA1A0 ?SetDefaultProperties@CPlayerMarker@@UAEXXZ
       1932  78B 00161630 ?SetDefaultProperties@CPlayerProfile@@UAEXXZ
       1933  78C 000BAA90 ?SetDefaultProperties@CPlayerView@@UAEXXZ
       1934  78D 000BCD00 ?SetDefaultProperties@CProjectile@@UAEXXZ
       1935  78E 000C2520 ?SetDefaultProperties@CProjectileMgr@@UAEXXZ
       1936  78F 000C3EB0 ?SetDefaultProperties@CPulser@@UAEXXZ
       1937  790 000C4890 ?SetDefaultProperties@CReminder@@UAEXXZ
       1938  791 000C5520 ?SetDefaultProperties@CReptile@@UAEXXZ
       1939  792 000C8AA0 ?SetDefaultProperties@CShip@@UAEXXZ
       1940  793 000C9F60 ?SetDefaultProperties@CShipMarker@@UAEXXZ
       1941  794 000CAB20 ?SetDefaultProperties@CSimpleBird@@UAEXXZ
       1942  795 000CE270 ?SetDefaultProperties@CSkaMarker@@UAEXXZ
       1943  796 000D3D50 ?SetDefaultProperties@CSkaMarkerManager@@UAEXXZ
       1944  797 000D70E0 ?SetDefaultProperties@CSkaModelHolder@@UAEXXZ
       1945  798 000D8E90 ?SetDefaultProperties@CSkeet@@UAEXXZ
       1946  799 000D9940 ?SetDefaultProperties@CSkeetLauncher@@UAEXXZ
       1947  79A 000DA7D0 ?SetDefaultProperties@CSkeetLauncherController@@UAEXXZ
       1948  79B 000DBFE0 ?SetDefaultProperties@CSmallGame@@UAEXXZ
       1949  79C 000E0870 ?SetDefaultProperties@CSoundHolder@@UAEXXZ
       1950  79D 000E26D0 ?SetDefaultProperties@CStand@@UAEXXZ
       1951  79E 000E3A20 ?SetDefaultProperties@CStormController@@UAEXXZ
       1952  79F 000E5900 ?SetDefaultProperties@CStormGlobe@@UAEXXZ
       1953  7A0 000E83B0 ?SetDefaultProperties@CSurroundParticleSystem@@UAEXXZ
       1954  7A1 000EA7D0 ?SetDefaultProperties@CSwitch@@UAEXXZ
       1955  7A2 000F2370 ?SetDefaultProperties@CTODController@@UAEXXZ
       1956  7A3 000EB6B0 ?SetDefaultProperties@CTag@@UAEXXZ
       1957  7A4 000EBDF0 ?SetDefaultProperties@CTeleport@@UAEXXZ
       1958  7A5 000EC710 ?SetDefaultProperties@CTerrainEntity@@UAEXXZ
       1959  7A6 000ED300 ?SetDefaultProperties@CTerrainMarker@@UAEXXZ
       1960  7A7 000EFF50 ?SetDefaultProperties@CThinker@@UAEXXZ
       1961  7A8 000F14A0 ?SetDefaultProperties@CTimeCounter@@UAEXXZ
       1962  7A9 000F0AF0 ?SetDefaultProperties@CTimeDelayedEvent@@UAEXXZ
       1963  7AA 000F2BE0 ?SetDefaultProperties@CTouchField@@UAEXXZ
       1964  7AB 000F3E00 ?SetDefaultProperties@CTrigger@@UAEXXZ
       1965  7AC 000F59C0 ?SetDefaultProperties@CTruck@@UAEXXZ
       1966  7AD 00165570 ?SetDefaultProperties@CTurkey@@UAEXXZ
       1967  7AE 000F89B0 ?SetDefaultProperties@CUpland@@UAEXXZ
       1968  7AF 000FCD40 ?SetDefaultProperties@CVoiceHolder@@UAEXXZ
       1969  7B0 000FD630 ?SetDefaultProperties@CVoiceOver@@UAEXXZ
       1970  7B1 000FE650 ?SetDefaultProperties@CWatchPlayers@@UAEXXZ
       1971  7B2 00173930 ?SetDefaultProperties@CWaterFowl@@UAEXXZ
       1972  7B3 000FF420 ?SetDefaultProperties@CWaterRinglet@@UAEXXZ
       1973  7B4 001036A0 ?SetDefaultProperties@CWorldBase@@UAEXXZ
       1974  7B5 00105240 ?SetDefaultProperties@CWorldLink@@UAEXXZ
       1975  7B6 00106270 ?SetDefaultProperties@CWorldSettingsController@@UAEXXZ
       1976  7B7 001071F0 ?SetDefaultProperties@CZone@@UAEXXZ
       1977  7B8 0009D0D0 ?SetGameEnd@CPlayer@@QAEXXZ
       1978  7B9 000A9190 ?SetInterfaceType@CPlayer@@QAEXJ@Z
       1979  7BA 00005CD0 ?SetPlayerAppearance@@YAHPAPAVCModelInstance@@PAVCPlayerCharacter@@AAVCTString@@@Z
       1980  7BB 0000DBC0 ?SetPredictionPair@CPlayer@@UAEXPAVCEntity@@@Z
       1981  7BC 0008C2C0 ?SetPredictionPair@CPlayerView@@UAEXPAVCEntity@@@Z
       1982  7BD 000ACA90 ?SetPredictionPair@CPulser@@UAEXPAVCEntity@@@Z
       1983  7BE 00097F60 ?SetPredictionTime@CPlayer@@UAEXM@Z
       1984  7BF 0009AB30 ?SetRandomMouthPitch@CPlayer@@QAEXMM@Z
       1985  7C0 0009D130 ?SetRoundEnd@CPlayer@@QAEXXZ
       1986  7C1 0009ABB0 ?SetSpeakMouthPitch@CPlayer@@QAEXXZ
       1987  7C2 0009C910 ?SetUnconnected@CPlayer@@QAEXXZ
       1988  7C3 000A7CE0 ?SetupItems@CPlayer@@QAEXXZ
       1989  7C4 000A91E0 ?SetupTestPlayer@CPlayer@@QAEXXZ
       1990  7C5 0009B120 ?SetupView@CPlayer@@QAEXPAVCDrawPort@@AAVCAnyProjection3D@@AAPAVCEntity@@AAVCPlacement3D@@AAKH@Z
       1991  7C6 001F88E8 ?ShadowType_enum@@3VCEntityPropertyEnumType@@A
       1992  7C7 001F88D0 ?ShadowType_values@@3PAVCEntityPropertyEnumValue@@A
       1993  7C8 001FF900 ?ShellEjectType_enum@@3VCEntityPropertyEnumType@@A
       1994  7C9 001FF8E8 ?ShellEjectType_values@@3PAVCEntityPropertyEnumValue@@A
       1995  7CA 0009B090 ?ShowTextMessage@CPlayer@@QAEXVCTString@@M@Z
       1996  7CB 000A9EE0 ?SlideStand@CPlayer@@QAEHABVCEntityEvent@@@Z
       1997  7CC 001F5C08 ?SoundType_enum@@3VCEntityPropertyEnumType@@A
       1998  7CD 001F5BE0 ?SoundType_values@@3PAVCEntityPropertyEnumValue@@A
       1999  7CE 000A9710 ?SpawnATV@CPlayer@@QAEXXZ
       2000  7CF 00006960 ?SpawnRangeSound@@YAXPAVCEntity@@0W4SoundType@@M@Z
       2001  7D0 00001740 ?SpawnReminder@@YA?AVCEntityPointer@@PAVCEntity@@MJ@Z
       2002  7D1 000A77C0 ?SpawnTeleport@CPlayer@@QAEXXZ
       2003  7D2 000A9A00 ?SpawnTruck@CPlayer@@QAEXXZ
       2004  7D3 001F2548 ?SprayParticlesType_enum@@3VCEntityPropertyEnumType@@A
       2005  7D4 001F24F0 ?SprayParticlesType_values@@3PAVCEntityPropertyEnumValue@@A
       2006  7D5 0009E4C0 ?StopUsingItem@CPlayer@@QAEXE@Z
       2007  7D6 000A8280 ?SwapCall1@CPlayer@@QAEXXZ
       2008  7D7 000A82C0 ?SwapCall2@CPlayer@@QAEXXZ
       2009  7D8 000A91C0 ?SwapWeapons@CPlayer@@QAEXXZ
       2010  7D9 000A2A40 ?SwitchInterface@CPlayer@@QAEXXZ
       2011  7DA 002050C8 ?SwitchType_enum@@3VCEntityPropertyEnumType@@A
       2012  7DB 002050B8 ?SwitchType_values@@3PAVCEntityPropertyEnumValue@@A
       2013  7DC 00205E60 ?TDEGenericMessageType_enum@@3VCEntityPropertyEnumType@@A
       2014  7DD 00205E48 ?TDEGenericMessageType_values@@3PAVCEntityPropertyEnumValue@@A
       2015  7DE 000A6980 ?TeleportPlayer@CPlayer@@QAEXW4WorldLinkType@@H@Z
       2016  7DF 000A6740 ?Teleport_CheckGround@CPlayer@@QAEHAAV?$Vector@M$02@@AAJ@Z
       2017  7E0 001F9288 ?TouchOrDamageEvent_enum@@3VCEntityPropertyEnumType@@A
       2018  7E1 001F9270 ?TouchOrDamageEvent_values@@3PAVCEntityPropertyEnumValue@@A
       2019  7E2 000A9450 ?TruckPhysics@CPlayer@@QAEXXZ
       2020  7E3 00206928 ?TruckWheelState_enum@@3VCEntityPropertyEnumType@@A
       2021  7E4 00206910 ?TruckWheelState_values@@3PAVCEntityPropertyEnumValue@@A
       2022  7E5 00097E20 ?UpdateLatency@CPlayer@@QAEXM@Z
       2023  7E6 0009AAD0 ?UpdateLevelStats@CPlayer@@QAEXXZ
       2024  7E7 0009C1D0 ?UpdateRangingInfo@CPlayer@@QAEXXZ
       2025  7E8 0009F5D0 ?UseBirdDecoy@CPlayer@@QAEXJW4DecoyPlace@@@Z
       2026  7E9 0009F910 ?UseBlind@CPlayer@@QAEXAAVCEntityPointer@@W4BlindType@@@Z
       2027  7EA 000A8300 ?UseCall1@CPlayer@@QAEXJ@Z
       2028  7EB 000A83C0 ?UseCall2@CPlayer@@QAEXJ@Z
       2029  7EC 0009EAF0 ?UseDeerDecoy@CPlayer@@QAEXJ@Z
       2030  7ED 0009DAA0 ?UseItem@CPlayer@@QAEXE@Z
       2031  7EE 0009CE10 ?UsePressed@CPlayer@@QAEXH@Z
       2032  7EF 0009EDF0 ?UseTreeStand@CPlayer@@QAEXJ@Z
       2033  7F0 00097ED0 ?ValidateCharacter@CPlayer@@QAEXXZ
       2034  7F1 00200F40 ?ViewType_enum@@3VCEntityPropertyEnumType@@A
       2035  7F2 00200F20 ?ViewType_values@@3PAVCEntityPropertyEnumValue@@A
       2036  7F3 002079A0 ?VisibilityBits_enum@@3VCEntityPropertyEnumType@@A
       2037  7F4 00207920 ?VisibilityBits_values@@3PAVCEntityPropertyEnumValue@@A
       2038  7F5 001F81F8 ?WarpRotation_enum@@3VCEntityPropertyEnumType@@A
       2039  7F6 001F81E0 ?WarpRotation_values@@3PAVCEntityPropertyEnumValue@@A
       2040  7F7 000AA410 ?WorldChange@CPlayer@@QAEHABVCEntityEvent@@@Z
       2041  7F8 00208778 ?WorldLinkType_enum@@3VCEntityPropertyEnumType@@A
       2042  7F9 00208768 ?WorldLinkType_values@@3PAVCEntityPropertyEnumValue@@A
       2043  7FA 0000AD50 ?Write@PlayerAnimState@@QAEXPAVCTStream@@@Z
       2044  7FB 00001080 ?Write_t@CCompMessageID@@QAEXAAVCTStream@@@Z
       2045  7FC 000817F0 ?Write_t@CNavigationMarker@@UAEXPAVCTStream@@@Z
       2046  7FD 00096540 ?Write_t@CPlayer@@UAEXPAVCTStream@@@Z
       2047  7FE 000E0CA0 ?Write_t@CSoundHolder@@UAEXPAVCTStream@@@Z
       2048  7FF 000FCE30 ?Write_t@CVoiceHolder@@UAEXPAVCTStream@@@Z
       2049  800 00097710 ?ZoomIn@CPlayer@@QAEXXZ
       2050  801 00097810 ?ZoomOut@CPlayer@@QAEXXZ
       2051  802 00097940 ?_AdjustMouseSensitivity@CPlayer@@QAEXXZ
       2052  803 00240E34 ?cmp_ppenPlayer@@3PAVCPlayer@@A
       2053  804 000918A0 ?ctl_ComposeActionPacket@@YAXABVCPlayerCharacter@@AAVCPlayerAction@@H@Z
       2054  805 00092330 ?ctl_ComposeDemoActionPacket@@YAXAAVCPlayerAction@@H@Z
       2055  806 001FAEFC ?ctl_pvPlayerControls@@3PAXA
       2056  807 0019C4C8 ?ctl_slPlayerControlsSize@@3JB
       2057  808 00208CB8 ?eAASpecies_enum@@3VCEntityPropertyEnumType@@A
       2058  809 00208C80 ?eAASpecies_values@@3PAVCEntityPropertyEnumValue@@A
       2059  80A 001F2B50 ?eCallType_enum@@3VCEntityPropertyEnumType@@A
       2060  80B 001F2B30 ?eCallType_values@@3PAVCEntityPropertyEnumValue@@A
       2061  80C 00208BD0 ?eDeerSpecies_enum@@3VCEntityPropertyEnumType@@A
       2062  80D 00208B98 ?eDeerSpecies_values@@3PAVCEntityPropertyEnumValue@@A
       2063  80E 00208C18 ?eFowlSpecies_enum@@3VCEntityPropertyEnumType@@A
       2064  80F 00208BD8 ?eFowlSpecies_values@@3PAVCEntityPropertyEnumValue@@A
       2065  810 00205658 ?eHeightMapSize_enum@@3VCEntityPropertyEnumType@@A
       2066  811 00205628 ?eHeightMapSize_values@@3PAVCEntityPropertyEnumValue@@A
       2067  812 002010A8 ?eHitType_enum@@3VCEntityPropertyEnumType@@A
       2068  813 00201050 ?eHitType_values@@3PAVCEntityPropertyEnumValue@@A
       2069  814 001F5C50 ?eMarkerBehavior_enum@@3VCEntityPropertyEnumType@@A
       2070  815 001F5C10 ?eMarkerBehavior_values@@3PAVCEntityPropertyEnumValue@@A
       2071  816 00208C78 ?eMiscBirdSpecies_enum@@3VCEntityPropertyEnumType@@A
       2072  817 00208C60 ?eMiscBirdSpecies_values@@3PAVCEntityPropertyEnumValue@@A
       2073  818 00201048 ?eProjectileType_enum@@3VCEntityPropertyEnumType@@A
       2074  819 00201010 ?eProjectileType_values@@3PAVCEntityPropertyEnumValue@@A
       2075  81A 00205620 ?eQuadsPerTile_enum@@3VCEntityPropertyEnumType@@A
       2076  81B 002055E0 ?eQuadsPerTile_values@@3PAVCEntityPropertyEnumValue@@A
       2077  81C 001F5C98 ?eSkaMarkerAnimBehavior_enum@@3VCEntityPropertyEnumType@@A
       2078  81D 001F5C80 ?eSkaMarkerAnimBehavior_values@@3PAVCEntityPropertyEnumValue@@A
       2079  81E 001F5CD0 ?eSkaMarkerCollideBehavior_enum@@3VCEntityPropertyEnumType@@A
       2080  81F 001F5CA0 ?eSkaMarkerCollideBehavior_values@@3PAVCEntityPropertyEnumValue@@A
       2081  820 001F5CF0 ?eSkaMarkerLightingBehavior_enum@@3VCEntityPropertyEnumType@@A
       2082  821 001F5CD8 ?eSkaMarkerLightingBehavior_values@@3PAVCEntityPropertyEnumValue@@A
       2083  822 001F5C78 ?eSkaMarkerPlacementBehavior2_enum@@3VCEntityPropertyEnumType@@A
       2084  823 001F5C58 ?eSkaMarkerPlacementBehavior2_values@@3PAVCEntityPropertyEnumValue@@A
       2085  824 001F5D10 ?eSkaMarkerTypeBehavior_enum@@3VCEntityPropertyEnumType@@A
       2086  825 001F5CF8 ?eSkaMarkerTypeBehavior_values@@3PAVCEntityPropertyEnumValue@@A
       2087  826 001F5A70 ?eSkaModelFlags_enum@@3VCEntityPropertyEnumType@@A
       2088  827 001F5A58 ?eSkaModelFlags_values@@3PAVCEntityPropertyEnumValue@@A
       2089  828 002052E8 ?eTagType_enum@@3VCEntityPropertyEnumType@@A
       2090  829 002052D8 ?eTagType_values@@3PAVCEntityPropertyEnumValue@@A
       2091  82A 002055D8 ?eTopMapSize_enum@@3VCEntityPropertyEnumType@@A
       2092  82B 002055A8 ?eTopMapSize_values@@3PAVCEntityPropertyEnumValue@@A
       2093  82C 00208C58 ?eUplandSpecies_enum@@3VCEntityPropertyEnumType@@A
       2094  82D 00208C20 ?eUplandSpecies_values@@3PAVCEntityPropertyEnumValue@@A
       2095  82E 00208B90 ?eZoneType_enum@@3VCEntityPropertyEnumType@@A
       2096  82F 00208B38 ?eZoneType_values@@3PAVCEntityPropertyEnumValue@@A
       2097  830 001F92A0 ?e_TimeMethods_enum@@3VCEntityPropertyEnumType@@A
       2098  831 001F9290 ?e_TimeMethods_values@@3PAVCEntityPropertyEnumValue@@A
       2099  832 001ED410 CAIAnimator_DLLClass
       2100  833 001ED520 CAIBase_DLLClass
       2101  834 001ED8D0 CAIController_DLLClass
       2102  835 001EE2E8 CAIMover_DLLClass
       2103  836 001EEA78 CATV_DLLClass
       2104  837 001EE3A8 CAmmoShell_DLLClass
       2105  838 001EE470 CAnimationChanger_DLLClass
       2106  839 001EE7E8 CAnimationHub_DLLClass
       2107  83A 002091A8 CBFly_DLLClass
       2108  83B 001EF140 CBackgroundViewer_DLLClass
       2109  83C 001EF290 CBaggedGame_DLLClass
       2110  83D 001EF868 CBasicEffect_DLLClass
       2111  83E 00209310 CBirdAnimator_DLLClass
       2112  83F 00209F50 CBirdBase_DLLClass
       2113  840 001EFAD8 CBirdCallDoubleReed_DLLClass
       2114  841 001EFE38 CBirdCallGooseFlute_DLLClass
       2115  842 001F0198 CBirdCallPintailWhistle_DLLClass
       2116  843 001F0500 CBirdCallSingleReed_DLLClass
       2117  844 001F0860 CBirdCallTealWhistle_DLLClass
       2118  845 001F0BC0 CBirdCallTurkeyBox_DLLClass
       2119  846 001F0F18 CBirdCallTurkeyDiaph_DLLClass
       2120  847 001F1278 CBirdCallTurkeySlate_DLLClass
       2121  848 001EF998 CBirdCall_DLLClass
       2122  849 001F15F8 CBirdDecoy_DLLClass
       2123  84A 0020A7C0 CBirdMover_DLLClass
       2124  84B 001F2058 CBlendController_DLLClass
       2125  84C 001F2248 CBlind_DLLClass
       2126  84D 001F2580 CBloodSpray_DLLClass
       2127  84E 001F2728 CBoat_DLLClass
       2128  84F 001F2A28 CBouncer_DLLClass
       2129  850 001F2B88 CCall_DLLClass
       2130  851 001F2FB8 CCameraMarker_DLLClass
       2131  852 001F2D60 CCamera_DLLClass
       2132  853 001F31C8 CCopier_DLLClass
       2133  854 001F3388 CCounter_DLLClass
       2134  855 001F3560 CDamager_DLLClass
       2135  856 001F36F8 CDebris_DLLClass
       2136  857 001F37C0 CDecalManager_DLLClass
       2137  858 001F3A88 CDeerCall_DLLClass
       2138  859 001F3F90 CDeerDecoy_DLLClass
       2139  85A 001F41A0 CDistantBirds_DLLClass
       2140  85B 0020C128 CDogAnimator_DLLClass
       2141  85C 0020C278 CDogMover_DLLClass
       2142  85D 0020B4F0 CDog_DLLClass
       2143  85E 001F4578 CDoorController_DLLClass
       2144  85F 001F4788 CEdgeMarker_DLLClass
       2145  860 001F48E8 CEntityBreath_DLLClass
       2146  861 001F4C38 CEnvironmentBase_DLLClass
       2147  862 001F4F98 CEnvironmentMarker_DLLClass
       2148  863 0020C348 CFeatherSystem_DLLClass
       2149  864 001F51F8 CFieldBlind_DLLClass
       2150  865 001F54E0 CFireflySpawner_DLLClass
       2151  866 001F5358 CFirefly_DLLClass
       2152  867 0020CE60 CFlockBase_DLLClass
       2153  868 0020D780 CFlockMover_DLLClass
       2154  869 0020D7F0 CFlockRegular_DLLClass
       2155  86A 0020DB60 CFlockUpland_DLLClass
       2156  86B 0020DC20 CFlockV_DLLClass
       2157  86C 001F56B8 CFogMarker_DLLClass
       2158  86D 001F6B48 CGPSText_DLLClass
       2159  86E 001F6638 CGPS_DLLClass
       2160  86F 001F5D28 CGlobal_DLLClass
       2161  870 001F6C38 CGradientMarker_DLLClass
       2162  871 001F6DE0 CGrasshopperParticles_DLLClass
       2163  872 001F6F38 CGravityMarker_DLLClass
       2164  873 001F70E8 CGravityRouter_DLLClass
       2165  874 001F7240 CHazeMarker_DLLClass
       2166  875 001F7600 CLargeAnimal_DLLClass
       2167  876 0020F2B8 CLeafSystem_DLLClass
       2168  877 001F7738 CLight_DLLClass
       2169  878 001F7D18 CLightning_DLLClass
       2170  879 001F7F70 CMarker_DLLClass
       2171  87A 001F80B8 CMessageHolder_DLLClass
       2172  87B 001F8210 CMirrorMarker_DLLClass
       2173  87C 001F83A8 CModelDestruction_DLLClass
       2174  87D 001F8930 CModelHolder2_DLLClass
       2175  87E 001F86F0 CModelHolder_DLLClass
       2176  87F 001F8DE0 CMoveableModelHolder_DLLClass
       2177  880 001F9978 CMovingBrushMarker_DLLClass
       2178  881 001F9478 CMovingBrush_DLLClass
       2179  882 001F9BD0 CMusicChanger_DLLClass
       2180  883 001F9DF0 CMusicHolder_DLLClass
       2181  884 001F9FD0 CNavigationMarker_DLLClass
       2182  885 001FA670 CParticleSystem_DLLClass
       2183  886 001FA368 CParticlesHolder_DLLClass
       2184  887 001FA9C0 CPathFinding_DLLClass
       2185  888 001FAA50 CPendulum_DLLClass
       2186  889 001FEF88 CPlayerActionMarker_DLLClass
       2187  88A 001FF288 CPlayerAnimatorSKA_DLLClass
       2188  88B 001FFB88 CPlayerGun_DLLClass
       2189  88C 00200D68 CPlayerMarker_DLLClass
       2190  88D 0020F528 CPlayerProfile_DLLClass
       2191  88E 00200F78 CPlayerView_DLLClass
       2192  88F 001FADE0 CPlayer_DLLClass
       2193  890 00201628 CProjectileMgr_DLLClass
       2194  891 002011C0 CProjectile_DLLClass
       2195  892 002019B0 CPulser_DLLClass
       2196  893 00201A48 CReminder_DLLClass
       2197  894 00201D78 CReptile_DLLClass
       2198  895 00202108 CShipMarker_DLLClass
       2199  896 00201EF8 CShip_DLLClass
       2200  897 00202488 CSimpleBird_DLLClass
       2201  898 00202CE8 CSkaMarkerManager_DLLClass
       2202  899 00202600 CSkaMarker_DLLClass
       2203  89A 00202F18 CSkaModelHolder_DLLClass
       2204  89B 002036A0 CSkeetLauncherController_DLLClass
       2205  89C 002034C0 CSkeetLauncher_DLLClass
       2206  89D 00203300 CSkeet_DLLClass
       2207  89E 00203C78 CSmallGame_DLLClass
       2208  89F 00203EC8 CSoundHolder_DLLClass
       2209  8A0 00204240 CStand_DLLClass
       2210  8A1 002045C8 CStormController_DLLClass
       2211  8A2 002048C0 CStormGlobe_DLLClass
       2212  8A3 00204F30 CSurroundParticleSystem_DLLClass
       2213  8A4 002051A0 CSwitch_DLLClass
       2214  8A5 002061E8 CTODController_DLLClass
       2215  8A6 00205320 CTag_DLLClass
       2216  8A7 00205478 CTeleport_DLLClass
       2217  8A8 00205670 CTerrainEntity_DLLClass
       2218  8A9 00205870 CTerrainMarker_DLLClass
       2219  8AA 00205DD8 CThinker_DLLClass
       2220  8AB 00206068 CTimeCounter_DLLClass
       2221  8AC 00205EB8 CTimeDelayedEvent_DLLClass
       2222  8AD 002063C0 CTouchField_DLLClass
       2223  8AE 00206618 CTrigger_DLLClass
       2224  8AF 00206980 CTruck_DLLClass
       2225  8B0 00210358 CTurkey_DLLClass
       2226  8B1 002071E8 CUpland_DLLClass
       2227  8B2 00207360 CVoiceHolder_DLLClass
       2228  8B3 002074A0 CVoiceOver_DLLClass
       2229  8B4 00207650 CWatchPlayers_DLLClass
       2230  8B5 00211040 CWaterFowl_DLLClass
       2231  8B6 002077F0 CWaterRinglet_DLLClass
       2232  8B7 002079B8 CWorldBase_DLLClass
       2233  8B8 00208790 CWorldLink_DLLClass
       2234  8B9 002088B8 CWorldSettingsController_DLLClass
       2235  8BA 00208D10 CZone_DLLClass

  Summary

       6F000 .data
       56000 .rdata
       37000 .reloc
      194000 .text
