Microsoft (R) COFF/PE Dumper Version 10.00.30319.01
Copyright (C) Microsoft Corporation.  All rights reserved.


Dump of file EntitiesMP.dll

File Type: DLL

  Section contains the following exports for EntitiesMP.dll

    00000000 characteristics
    3C1E260B time date stamp Mon Dec 17 20:06:19 2001
        0.00 version
           1 ordinal base
        2589 number of functions
        2589 number of names

    ordinal hint RVA      name

          1    0 00005D00 ??0CBullet@@QAE@ABV0@@Z
          2    1 00005CE0 ??0CBullet@@QAE@XZ
          3    2 00012F80 ??0CCannonBall@@QAE@ABV0@@Z
          4    3 00012EE0 ??0CCannonBall@@QAE@XZ
          5    4 00037300 ??0CCompMessageID@@QAE@ABV0@@Z
          6    5 0000EA60 ??0CCompMessageID@@QAE@XZ
          7    6 0000EB50 ??0CEmiter@@QAE@XZ
          8    7 0000EA80 ??0CEmittedParticle@@QAE@XZ
          9    8 00011AB0 ??0CEnemyBase@@QAE@ABV0@@Z
         10    9 0008A990 ??0CEnemyBase@@QAE@XZ
         11    A 00096210 ??0CEnemyDive@@QAE@ABV0@@Z
         12    B 000961F0 ??0CEnemyDive@@QAE@XZ
         13    C 000972E0 ??0CEnemyFly@@QAE@ABV0@@Z
         14    D 000972C0 ??0CEnemyFly@@QAE@XZ
         15    E 0005E630 ??0CEnemyRunInto@@QAE@ABV0@@Z
         16    F 0005E610 ??0CEnemyRunInto@@QAE@XZ
         17   10 000102E0 ??0CItem@@QAE@ABV0@@Z
         18   11 00010240 ??0CItem@@QAE@XZ
         19   12 000A42F0 ??0CLarvaOffspring@@QAE@ABV0@@Z
         20   13 000A4280 ??0CLarvaOffspring@@QAE@XZ
         21   14 00035380 ??0CNavigationMarker@@QAE@ABV0@@Z
         22   15 000D8E40 ??0CNavigationMarker@@QAE@XZ
         23   16 000352E0 ??0CPathNode@@QAE@ABV0@@Z
         24   17 000357F0 ??0CPathNode@@QAE@PAVCNavigationMarker@@@Z
         25   18 00002E00 ??0CPlayer@@QAE@AAV0@@Z
         26   19 000E2810 ??0CPlayer@@QAE@XZ
         27   1A 000DC090 ??0CPlayerAnimator@@QAE@ABV0@@Z
         28   1B 000DC060 ??0CPlayerAnimator@@QAE@XZ
         29   1C 000DCA40 ??0CPlayerView@@QAE@ABV0@@Z
         30   1D 000DCA10 ??0CPlayerView@@QAE@XZ
         31   1E 000140E0 ??0CPlayerWeapons@@QAE@ABV0@@Z
         32   1F 00014040 ??0CPlayerWeapons@@QAE@XZ
         33   20 0000F8E0 ??0CProjectile@@QAE@ABV0@@Z
         34   21 0000F840 ??0CProjectile@@QAE@XZ
         35   22 00001270 ??0CReminder@@QAE@ABV0@@Z
         36   23 00001250 ??0CReminder@@QAE@XZ
         37   24 00037730 ??0CSpinner@@QAE@ABV0@@Z
         38   25 00037710 ??0CSpinner@@QAE@XZ
         39   26 00011180 ??0CWatcher@@QAE@ABV0@@Z
         40   27 00011150 ??0CWatcher@@QAE@XZ
         41   28 00035F80 ??0EActivate@@QAE@ABV0@@Z
         42   29 000B6390 ??0EActivate@@QAE@XZ
         43   2A 000A3EE0 ??0EActivateBeam@@QAE@ABV0@@Z
         44   2B 000AD780 ??0EActivateBeam@@QAE@XZ
         45   2C 000109E0 ??0EAmmoItem@@QAE@ABV0@@Z
         46   2D 0003BFE0 ??0EAmmoItem@@QAE@XZ
         47   2E 00010B10 ??0EAmmoPackItem@@QAE@ABV0@@Z
         48   2F 0003D630 ??0EAmmoPackItem@@QAE@XZ
         49   30 000DBDE0 ??0EAnimatorInit@@QAE@ABV0@@Z
         50   31 000F8CF0 ??0EAnimatorInit@@QAE@XZ
         51   32 00040340 ??0EArmor@@QAE@ABV0@@Z
         52   33 00040960 ??0EArmor@@QAE@XZ
         53   34 00002B80 ??0EAutoAction@@QAE@ABV0@@Z
         54   35 000DFA60 ??0EAutoAction@@QAE@XZ
         55   36 00013AE0 ??0EBoringWeapon@@QAE@ABV0@@Z
         56   37 000FF3F0 ??0EBoringWeapon@@QAE@XZ
         57   38 00041D70 ??0EBrushDestroyed@@QAE@ABV0@@Z
         58   39 000D2800 ??0EBrushDestroyed@@QAE@XZ
         59   3A 00055010 ??0EBrushDestroyedByDevil@@QAE@ABV0@@Z
         60   3B 0006E3D0 ??0EBrushDestroyedByDevil@@QAE@XZ
         61   3C 00005A90 ??0EBulletInit@@QAE@ABV0@@Z
         62   3D 0004EEF0 ??0EBulletInit@@QAE@XZ
         63   3E 00002520 ??0ECameraStart@@QAE@ABV0@@Z
         64   3F 000DF880 ??0ECameraStart@@QAE@XZ
         65   40 00002750 ??0ECameraStop@@QAE@ABV0@@Z
         66   41 000DF930 ??0ECameraStop@@QAE@XZ
         67   42 00036CC0 ??0ECenterMessage@@QAE@ABV0@@Z
         68   43 000B6BC0 ??0ECenterMessage@@QAE@XZ
         69   44 00001550 ??0EChangeAnim@@QAE@ABV0@@Z
         70   45 0003E470 ??0EChangeAnim@@QAE@XZ
         71   46 000B7540 ??0EChangeGravity@@QAE@ABV0@@Z
         72   47 000B8740 ??0EChangeGravity@@QAE@XZ
         73   48 000114E0 ??0EChangeMusic@@QAE@ABV0@@Z
         74   49 000D7650 ??0EChangeMusic@@QAE@XZ
         75   4A 00036E10 ??0EComputerMessage@@QAE@ABV0@@Z
         76   4B 000B6CD0 ??0EComputerMessage@@QAE@XZ
         77   4C 00036B90 ??0ECredits@@QAE@ABV0@@Z
         78   4D 000B6AD0 ??0ECredits@@QAE@XZ
         79   4E 00035FE0 ??0EDeactivate@@QAE@ABV0@@Z
         80   4F 000B63D0 ??0EDeactivate@@QAE@XZ
         81   50 00055270 ??0EDevilCommand@@QAE@ABV0@@Z
         82   51 0006E4C0 ??0EDevilCommand@@QAE@XZ
         83   52 0007D610 ??0EDevilProjectile@@QAE@ABV0@@Z
         84   53 0007DD60 ??0EDevilProjectile@@QAE@XZ
         85   54 00002A80 ??0EDisconnected@@QAE@ABV0@@Z
         86   55 000DFA10 ??0EDisconnected@@QAE@XZ
         87   56 00037DB0 ??0EElementalGrow@@QAE@ABV0@@Z
         88   57 00038910 ??0EElementalGrow@@QAE@XZ
         89   58 00036100 ??0EEnd@@QAE@ABV0@@Z
         90   59 000B6490 ??0EEnd@@QAE@XZ
         91   5A 00036040 ??0EEnvironmentStart@@QAE@ABV0@@Z
         92   5B 000B6410 ??0EEnvironmentStart@@QAE@XZ
         93   5C 000360A0 ??0EEnvironmentStop@@QAE@ABV0@@Z
         94   5D 000B6450 ??0EEnvironmentStop@@QAE@XZ
         95   5E 00013BE0 ??0EFireWeapon@@QAE@ABV0@@Z
         96   5F 000FF430 ??0EFireWeapon@@QAE@XZ
         97   60 00002120 ??0EFlame@@QAE@ABV0@@Z
         98   61 000B2C30 ??0EFlame@@QAE@XZ
         99   62 00012DE0 ??0EForceExplode@@QAE@ABV0@@Z
        100   63 00055C80 ??0EForceExplode@@QAE@XZ
        101   64 0006D1B0 ??0EForcePathMarker@@QAE@ABV0@@Z
        102   65 00121E10 ??0EForcePathMarker@@QAE@XZ
        103   66 00011920 ??0EForceWound@@QAE@ABV0@@Z
        104   67 0008A4A0 ??0EForceWound@@QAE@XZ
        105   68 0012F410 ??0EHarbor@@QAE@ABV0@@Z
        106   69 0012FBD0 ??0EHarbor@@QAE@XZ
        107   6A 000BFC20 ??0EHealth@@QAE@ABV0@@Z
        108   6B 000C0250 ??0EHealth@@QAE@XZ
        109   6C 00041C70 ??0EHit@@QAE@ABV0@@Z
        110   6D 000D27C0 ??0EHit@@QAE@XZ
        111   6E 00037070 ??0EHitBySpaceShipBeam@@QAE@ABV0@@Z
        112   6F 000B6EA0 ??0EHitBySpaceShipBeam@@QAE@XZ
        113   70 00036A60 ??0EHudPicFX@@QAE@ABV0@@Z
        114   71 000B6A20 ??0EHudPicFX@@QAE@XZ
        115   72 0007EAA0 ??0EKey@@QAE@ABV0@@Z
        116   73 000C3A60 ??0EKey@@QAE@XZ
        117   74 00036550 ??0EKilledEnemy@@QAE@ABV0@@Z
        118   75 000B6780 ??0EKilledEnemy@@QAE@XZ
        119   76 000A4850 ??0ELarvaArmDestroyed@@QAE@ABV0@@Z
        120   77 000A5990 ??0ELarvaArmDestroyed@@QAE@XZ
        121   78 000A4970 ??0ELarvaRechargePose@@QAE@ABV0@@Z
        122   79 000A59F0 ??0ELarvaRechargePose@@QAE@XZ
        123   7A 00012B60 ??0ELaunchCannonBall@@QAE@ABV0@@Z
        124   7B 00055BE0 ??0ELaunchCannonBall@@QAE@XZ
        125   7C 000A4000 ??0ELaunchLarvaOffspring@@QAE@ABV0@@Z
        126   7D 000C5020 ??0ELaunchLarvaOffspring@@QAE@XZ
        127   7E 0000F570 ??0ELaunchProjectile@@QAE@ABV0@@Z
        128   7F 001158F0 ??0ELaunchProjectile@@QAE@XZ
        129   80 000C9800 ??0EMessageItem@@QAE@ABV0@@Z
        130   81 000C9E30 ??0EMessageItem@@QAE@XZ
        131   82 000DD490 ??0EPowerUp@@QAE@ABV0@@Z
        132   83 00113D50 ??0EPowerUp@@QAE@XZ
        133   84 00001FF0 ??0ERangeModelDestruction@@QAE@ABV0@@Z
        134   85 000CC120 ??0ERangeModelDestruction@@QAE@XZ
        135   86 00002980 ??0ERebirth@@QAE@ABV0@@Z
        136   87 000DF9D0 ??0ERebirth@@QAE@XZ
        137   88 000364D0 ??0EReceiveScore@@QAE@ABV0@@Z
        138   89 000B6730 ??0EReceiveScore@@QAE@XZ
        139   8A 00011820 ??0EReconsiderBehavior@@QAE@ABV0@@Z
        140   8B 0008A460 ??0EReconsiderBehavior@@QAE@XZ
        141   8C 00055160 ??0ERegenerationImpuls@@QAE@ABV0@@Z
        142   8D 0006E450 ??0ERegenerationImpuls@@QAE@XZ
        143   8E 00013CE0 ??0EReleaseWeapon@@QAE@ABV0@@Z
        144   8F 000FF470 ??0EReleaseWeapon@@QAE@XZ
        145   90 00013DE0 ??0EReloadWeapon@@QAE@ABV0@@Z
        146   91 000FF4B0 ??0EReloadWeapon@@QAE@XZ
        147   92 000362D0 ??0EReminder@@QAE@ABV0@@Z
        148   93 000B65D0 ??0EReminder@@QAE@XZ
        149   94 00001000 ??0EReminderInit@@QAE@ABV0@@Z
        150   95 00127DC0 ??0EReminderInit@@QAE@XZ
        151   96 00011720 ??0ERestartAttack@@QAE@ABV0@@Z
        152   97 0008A420 ??0ERestartAttack@@QAE@XZ
        153   98 00036800 ??0EScroll@@QAE@ABV0@@Z
        154   99 000B68C0 ??0EScroll@@QAE@XZ
        155   9A 000365B0 ??0ESecretFound@@QAE@ABV0@@Z
        156   9B 000B67C0 ??0ESecretFound@@QAE@XZ
        157   9C 000139C0 ??0ESelectWeapon@@QAE@ABV0@@Z
        158   9D 000FF3A0 ??0ESelectWeapon@@QAE@XZ
        159   9E 000DD5C0 ??0ESeriousBomb@@QAE@ABV0@@Z
        160   9F 0012EB50 ??0ESeriousBomb@@QAE@XZ
        161   A0 000366D0 ??0ESound@@QAE@ABV0@@Z
        162   A1 000B6810 ??0ESound@@QAE@XZ
        163   A2 00001C20 ??0ESpawnDebris@@QAE@ABV0@@Z
        164   A3 00068140 ??0ESpawnDebris@@QAE@XZ
        165   A4 00001A10 ??0ESpawnEffect@@QAE@ABV0@@Z
        166   A5 00042AB0 ??0ESpawnEffect@@QAE@XZ
        167   A6 0006B2D0 ??0ESpawnEffector@@QAE@ABV0@@Z
        168   A7 000821B0 ??0ESpawnEffector@@QAE@XZ
        169   A8 00001700 ??0ESpawnSpray@@QAE@ABV0@@Z
        170   A9 0004B590 ??0ESpawnSpray@@QAE@XZ
        171   AA 000623F0 ??0ESpawnerProjectile@@QAE@ABV0@@Z
        172   AB 00134700 ??0ESpawnerProjectile@@QAE@XZ
        173   AC 000373C0 ??0ESpinnerInit@@QAE@ABV0@@Z
        174   AD 00135370 ??0ESpinnerInit@@QAE@XZ
        175   AE 00035E70 ??0EStart@@QAE@ABV0@@Z
        176   AF 000B62F0 ??0EStart@@QAE@XZ
        177   B0 00036350 ??0EStartAttack@@QAE@ABV0@@Z
        178   B1 000B6620 ??0EStartAttack@@QAE@XZ
        179   B2 00035E10 ??0EStop@@QAE@ABV0@@Z
        180   B3 000B62A0 ??0EStop@@QAE@XZ
        181   B4 000363B0 ??0EStopAttack@@QAE@ABV0@@Z
        182   B5 000B6660 ??0EStopAttack@@QAE@XZ
        183   B6 00036410 ??0EStopBlindness@@QAE@ABV0@@Z
        184   B7 000B66A0 ??0EStopBlindness@@QAE@XZ
        185   B8 00036470 ??0EStopDeafness@@QAE@ABV0@@Z
        186   B9 000B66E0 ??0EStopDeafness@@QAE@XZ
        187   BA 000023E0 ??0EStopFlaming@@QAE@ABV0@@Z
        188   BB 000B2D00 ??0EStopFlaming@@QAE@XZ
        189   BC 000622D0 ??0ESummonerTeleport@@QAE@ABV0@@Z
        190   BD 00138C60 ??0ESummonerTeleport@@QAE@XZ
        191   BE 00036270 ??0ETeleportMovingBrush@@QAE@ABV0@@Z
        192   BF 000B6580 ??0ETeleportMovingBrush@@QAE@XZ
        193   C0 00036930 ??0ETextFX@@QAE@ABV0@@Z
        194   C1 000B6970 ??0ETextFX@@QAE@XZ
        195   C2 00036160 ??0ETrigger@@QAE@ABV0@@Z
        196   C3 000B64E0 ??0ETrigger@@QAE@XZ
        197   C4 00037B10 ??0ETwister@@QAE@ABV0@@Z
        198   C5 00146F20 ??0ETwister@@QAE@XZ
        199   C6 000DC6D0 ??0EViewInit@@QAE@ABV0@@Z
        200   C7 000FC8D0 ??0EViewInit@@QAE@XZ
        201   C8 00036F40 ??0EVoiceMessage@@QAE@ABV0@@Z
        202   C9 000B6DE0 ??0EVoiceMessage@@QAE@XZ
        203   CA 00010ED0 ??0EWatch@@QAE@ABV0@@Z
        204   CB 0014B330 ??0EWatch@@QAE@XZ
        205   CC 00010CA0 ??0EWatcherInit@@QAE@ABV0@@Z
        206   CD 0014B280 ??0EWatcherInit@@QAE@XZ
        207   CE 0014D210 ??0EWater@@QAE@ABV0@@Z
        208   CF 0014D870 ??0EWater@@QAE@XZ
        209   D0 00013EE0 ??0EWeaponChanged@@QAE@ABV0@@Z
        210   D1 000FF4F0 ??0EWeaponChanged@@QAE@XZ
        211   D2 0000F300 ??0EWeaponEffectInit@@QAE@ABV0@@Z
        212   D3 00112EC0 ??0EWeaponEffectInit@@QAE@XZ
        213   D4 00010890 ??0EWeaponItem@@QAE@ABV0@@Z
        214   D5 0014EB70 ??0EWeaponItem@@QAE@XZ
        215   D6 00013790 ??0EWeaponsInit@@QAE@ABV0@@Z
        216   D7 000FF2F0 ??0EWeaponsInit@@QAE@XZ
        217   D8 000370D0 ??0PlayerStats@@QAE@XZ
        218   D9 00005F60 ??1CBullet@@UAE@XZ
        219   DA 00013650 ??1CCannonBall@@UAE@XZ
        220   DB 0000E7B0 ??1CCompMessageID@@QAE@XZ
        221   DC 000372D0 ??1CEmiter@@QAE@XZ
        222   DD 00012920 ??1CEnemyBase@@UAE@XZ
        223   DE 000963C0 ??1CEnemyDive@@UAE@XZ
        224   DF 00097550 ??1CEnemyFly@@UAE@XZ
        225   E0 0005E780 ??1CEnemyRunInto@@UAE@XZ
        226   E1 00010730 ??1CItem@@UAE@XZ
        227   E2 000A4700 ??1CLarvaOffspring@@UAE@XZ
        228   E3 000D8ED0 ??1CNavigationMarker@@UAE@XZ
        229   E4 00035820 ??1CPathNode@@QAE@XZ
        230   E5 000054E0 ??1CPlayer@@UAE@XZ
        231   E6 000DC560 ??1CPlayerAnimator@@UAE@XZ
        232   E7 000DD350 ??1CPlayerView@@UAE@XZ
        233   E8 00014CD0 ??1CPlayerWeapons@@UAE@XZ
        234   E9 00010020 ??1CProjectile@@UAE@XZ
        235   EA 00001410 ??1CReminder@@UAE@XZ
        236   EB 000379D0 ??1CSpinner@@UAE@XZ
        237   EC 00011370 ??1CWatcher@@UAE@XZ
        238   ED 0000D070 ??1EActivate@@UAE@XZ
        239   EE 000A3F30 ??1EActivateBeam@@UAE@XZ
        240   EF 00010A30 ??1EAmmoItem@@UAE@XZ
        241   F0 00010BB0 ??1EAmmoPackItem@@UAE@XZ
        242   F1 000DBE50 ??1EAnimatorInit@@UAE@XZ
        243   F2 00040390 ??1EArmor@@UAE@XZ
        244   F3 00002BF0 ??1EAutoAction@@UAE@XZ
        245   F4 00013B20 ??1EBoringWeapon@@UAE@XZ
        246   F5 00041DB0 ??1EBrushDestroyed@@UAE@XZ
        247   F6 00055080 ??1EBrushDestroyedByDevil@@UAE@XZ
        248   F7 00005B20 ??1EBulletInit@@UAE@XZ
        249   F8 00002590 ??1ECameraStart@@UAE@XZ
        250   F9 000027C0 ??1ECameraStop@@UAE@XZ
        251   FA 0000E3A0 ??1ECenterMessage@@UAE@XZ
        252   FB 00001600 ??1EChangeAnim@@UAE@XZ
        253   FC 000B75B0 ??1EChangeGravity@@UAE@XZ
        254   FD 000115B0 ??1EChangeMusic@@UAE@XZ
        255   FE 0000E4D0 ??1EComputerMessage@@UAE@XZ
        256   FF 0000E250 ??1ECredits@@UAE@XZ
        257  100 0000D110 ??1EDeactivate@@UAE@XZ
        258  101 00055340 ??1EDevilCommand@@UAE@XZ
        259  102 0007D6C0 ??1EDevilProjectile@@UAE@XZ
        260  103 00002AC0 ??1EDisconnected@@UAE@XZ
        261  104 00037DF0 ??1EElementalGrow@@UAE@XZ
        262  105 0000D320 ??1EEnd@@UAE@XZ
        263  106 0000D1B0 ??1EEnvironmentStart@@UAE@XZ
        264  107 0000D250 ??1EEnvironmentStop@@UAE@XZ
        265  108 00013C20 ??1EFireWeapon@@UAE@XZ
        266  109 000021D0 ??1EFlame@@UAE@XZ
        267  10A 00012E20 ??1EForceExplode@@UAE@XZ
        268  10B 0006D220 ??1EForcePathMarker@@UAE@XZ
        269  10C 00011960 ??1EForceWound@@UAE@XZ
        270  10D 0012F450 ??1EHarbor@@UAE@XZ
        271  10E 000BFC70 ??1EHealth@@UAE@XZ
        272  10F 00041CB0 ??1EHit@@UAE@XZ
        273  110 0000E6B0 ??1EHitBySpaceShipBeam@@UAE@XZ
        274  111 0000DF50 ??1EHudPicFX@@UAE@XZ
        275  112 0007EAF0 ??1EKey@@UAE@XZ
        276  113 0000D940 ??1EKilledEnemy@@UAE@XZ
        277  114 000A48A0 ??1ELarvaArmDestroyed@@UAE@XZ
        278  115 000A49C0 ??1ELarvaRechargePose@@UAE@XZ
        279  116 00012C10 ??1ELaunchCannonBall@@UAE@XZ
        280  117 000A4070 ??1ELaunchLarvaOffspring@@UAE@XZ
        281  118 0000F620 ??1ELaunchProjectile@@UAE@XZ
        282  119 000C98B0 ??1EMessageItem@@UAE@XZ
        283  11A 000DD4E0 ??1EPowerUp@@UAE@XZ
        284  11B 00002030 ??1ERangeModelDestruction@@UAE@XZ
        285  11C 000029C0 ??1ERebirth@@UAE@XZ
        286  11D 0000D8A0 ??1EReceiveScore@@UAE@XZ
        287  11E 00011860 ??1EReconsiderBehavior@@UAE@XZ
        288  11F 000551A0 ??1ERegenerationImpuls@@UAE@XZ
        289  120 00013D20 ??1EReleaseWeapon@@UAE@XZ
        290  121 00013E20 ??1EReloadWeapon@@UAE@XZ
        291  122 0000D580 ??1EReminder@@UAE@XZ
        292  123 00001090 ??1EReminderInit@@UAE@XZ
        293  124 00011760 ??1ERestartAttack@@UAE@XZ
        294  125 0000DC40 ??1EScroll@@UAE@XZ
        295  126 0000DA80 ??1ESecretFound@@UAE@XZ
        296  127 00013A10 ??1ESelectWeapon@@UAE@XZ
        297  128 000DD630 ??1ESeriousBomb@@UAE@XZ
        298  129 0000DAF0 ??1ESound@@UAE@XZ
        299  12A 00001DB0 ??1ESpawnDebris@@UAE@XZ
        300  12B 00001B00 ??1ESpawnEffect@@UAE@XZ
        301  12C 0006B410 ??1ESpawnEffector@@UAE@XZ
        302  12D 000017F0 ??1ESpawnSpray@@UAE@XZ
        303  12E 000624A0 ??1ESpawnerProjectile@@UAE@XZ
        304  12F 000374D0 ??1ESpinnerInit@@UAE@XZ
        305  130 0000CF50 ??1EStart@@UAE@XZ
        306  131 0000D5F0 ??1EStartAttack@@UAE@XZ
        307  132 0000CEB0 ??1EStop@@UAE@XZ
        308  133 0000D690 ??1EStopAttack@@UAE@XZ
        309  134 0000D730 ??1EStopBlindness@@UAE@XZ
        310  135 0000D7D0 ??1EStopDeafness@@UAE@XZ
        311  136 00002430 ??1EStopFlaming@@UAE@XZ
        312  137 00062320 ??1ESummonerTeleport@@UAE@XZ
        313  138 0000D4B0 ??1ETeleportMovingBrush@@UAE@XZ
        314  139 0000DE30 ??1ETextFX@@UAE@XZ
        315  13A 0000D390 ??1ETrigger@@UAE@XZ
        316  13B 00037BD0 ??1ETwister@@UAE@XZ
        317  13C 000DC7A0 ??1EViewInit@@UAE@XZ
        318  13D 0000E5D0 ??1EVoiceMessage@@UAE@XZ
        319  13E 00010F40 ??1EWatch@@UAE@XZ
        320  13F 00010D10 ??1EWatcherInit@@UAE@XZ
        321  140 0014D2A0 ??1EWater@@UAE@XZ
        322  141 00013F20 ??1EWeaponChanged@@UAE@XZ
        323  142 0000F390 ??1EWeaponEffectInit@@UAE@XZ
        324  143 00010900 ??1EWeaponItem@@UAE@XZ
        325  144 00013800 ??1EWeaponsInit@@UAE@XZ
        326  145 00005E80 ??4CBullet@@QAEAAV0@AAV0@@Z
        327  146 00013300 ??4CCannonBall@@QAEAAV0@AAV0@@Z
        328  147 00037340 ??4CCompMessageID@@QAEAAV0@ABV0@@Z
        329  148 00037190 ??4CEmiter@@QAEAAV0@ABV0@@Z
        330  149 00037170 ??4CEmittedParticle@@QAEAAV0@ABV0@@Z
        331  14A 00012150 ??4CEnemyBase@@QAEAAV0@AAV0@@Z
        332  14B 000962F0 ??4CEnemyDive@@QAEAAV0@AAV0@@Z
        333  14C 00097420 ??4CEnemyFly@@QAEAAV0@AAV0@@Z
        334  14D 0005E6D0 ??4CEnemyRunInto@@QAEAAV0@AAV0@@Z
        335  14E 000104E0 ??4CItem@@QAEAAV0@AAV0@@Z
        336  14F 000A44F0 ??4CLarvaOffspring@@QAEAAV0@AAV0@@Z
        337  150 00035530 ??4CNavigationMarker@@QAEAAV0@AAV0@@Z
        338  151 00035320 ??4CPathNode@@QAEAAV0@ABV0@@Z
        339  152 00004360 ??4CPlayer@@QAEAAV0@AAV0@@Z
        340  153 000DC2D0 ??4CPlayerAnimator@@QAEAAV0@AAV0@@Z
        341  154 000DCEB0 ??4CPlayerView@@QAEAAV0@AAV0@@Z
        342  155 000146E0 ??4CPlayerWeapons@@QAEAAV0@AAV0@@Z
        343  156 0000FD20 ??4CProjectile@@QAEAAV0@AAV0@@Z
        344  157 00001320 ??4CReminder@@QAEAAV0@AAV0@@Z
        345  158 00037860 ??4CSpinner@@QAEAAV0@AAV0@@Z
        346  159 00011250 ??4CWatcher@@QAEAAV0@AAV0@@Z
        347  15A 00035FA0 ??4EActivate@@QAEAAV0@ABV0@@Z
        348  15B 000A3F10 ??4EActivateBeam@@QAEAAV0@ABV0@@Z
        349  15C 00010A10 ??4EAmmoItem@@QAEAAV0@ABV0@@Z
        350  15D 00010B60 ??4EAmmoPackItem@@QAEAAV0@ABV0@@Z
        351  15E 000DBE10 ??4EAnimatorInit@@QAEAAV0@ABV0@@Z
        352  15F 00040370 ??4EArmor@@QAEAAV0@ABV0@@Z
        353  160 00002BB0 ??4EAutoAction@@QAEAAV0@ABV0@@Z
        354  161 00013B00 ??4EBoringWeapon@@QAEAAV0@ABV0@@Z
        355  162 00041D90 ??4EBrushDestroyed@@QAEAAV0@ABV0@@Z
        356  163 00055050 ??4EBrushDestroyedByDevil@@QAEAAV0@ABV0@@Z
        357  164 00005AD0 ??4EBulletInit@@QAEAAV0@ABV0@@Z
        358  165 00002550 ??4ECameraStart@@QAEAAV0@ABV0@@Z
        359  166 00002780 ??4ECameraStop@@QAEAAV0@ABV0@@Z
        360  167 00036D30 ??4ECenterMessage@@QAEAAV0@ABV0@@Z
        361  168 000015B0 ??4EChangeAnim@@QAEAAV0@ABV0@@Z
        362  169 000B7570 ??4EChangeGravity@@QAEAAV0@ABV0@@Z
        363  16A 00011560 ??4EChangeMusic@@QAEAAV0@ABV0@@Z
        364  16B 00036E80 ??4EComputerMessage@@QAEAAV0@ABV0@@Z
        365  16C 00036BD0 ??4ECredits@@QAEAAV0@ABV0@@Z
        366  16D 00036000 ??4EDeactivate@@QAEAAV0@ABV0@@Z
        367  16E 000552D0 ??4EDevilCommand@@QAEAAV0@ABV0@@Z
        368  16F 0007D650 ??4EDevilProjectile@@QAEAAV0@ABV0@@Z
        369  170 00002AA0 ??4EDisconnected@@QAEAAV0@ABV0@@Z
        370  171 00037DD0 ??4EElementalGrow@@QAEAAV0@ABV0@@Z
        371  172 00036120 ??4EEnd@@QAEAAV0@ABV0@@Z
        372  173 00036060 ??4EEnvironmentStart@@QAEAAV0@ABV0@@Z
        373  174 000360C0 ??4EEnvironmentStop@@QAEAAV0@ABV0@@Z
        374  175 00013C00 ??4EFireWeapon@@QAEAAV0@ABV0@@Z
        375  176 00002160 ??4EFlame@@QAEAAV0@ABV0@@Z
        376  177 00012E00 ??4EForceExplode@@QAEAAV0@ABV0@@Z
        377  178 0006D1E0 ??4EForcePathMarker@@QAEAAV0@ABV0@@Z
        378  179 00011940 ??4EForceWound@@QAEAAV0@ABV0@@Z
        379  17A 0012F430 ??4EHarbor@@QAEAAV0@ABV0@@Z
        380  17B 000BFC50 ??4EHealth@@QAEAAV0@ABV0@@Z
        381  17C 00041C90 ??4EHit@@QAEAAV0@ABV0@@Z
        382  17D 00037090 ??4EHitBySpaceShipBeam@@QAEAAV0@ABV0@@Z
        383  17E 00036AA0 ??4EHudPicFX@@QAEAAV0@ABV0@@Z
        384  17F 0007EAD0 ??4EKey@@QAEAAV0@ABV0@@Z
        385  180 00036570 ??4EKilledEnemy@@QAEAAV0@ABV0@@Z
        386  181 000A4880 ??4ELarvaArmDestroyed@@QAEAAV0@ABV0@@Z
        387  182 000A49A0 ??4ELarvaRechargePose@@QAEAAV0@ABV0@@Z
        388  183 00012BB0 ??4ELaunchCannonBall@@QAEAAV0@ABV0@@Z
        389  184 000A4030 ??4ELaunchLarvaOffspring@@QAEAAV0@ABV0@@Z
        390  185 0000F5C0 ??4ELaunchProjectile@@QAEAAV0@ABV0@@Z
        391  186 000C9870 ??4EMessageItem@@QAEAAV0@ABV0@@Z
        392  187 000DD4C0 ??4EPowerUp@@QAEAAV0@ABV0@@Z
        393  188 00002010 ??4ERangeModelDestruction@@QAEAAV0@ABV0@@Z
        394  189 000029A0 ??4ERebirth@@QAEAAV0@ABV0@@Z
        395  18A 00036500 ??4EReceiveScore@@QAEAAV0@ABV0@@Z
        396  18B 00011840 ??4EReconsiderBehavior@@QAEAAV0@ABV0@@Z
        397  18C 00055180 ??4ERegenerationImpuls@@QAEAAV0@ABV0@@Z
        398  18D 00013D00 ??4EReleaseWeapon@@QAEAAV0@ABV0@@Z
        399  18E 00013E00 ??4EReloadWeapon@@QAEAAV0@ABV0@@Z
        400  18F 00036300 ??4EReminder@@QAEAAV0@ABV0@@Z
        401  190 00001040 ??4EReminderInit@@QAEAAV0@ABV0@@Z
        402  191 00011740 ??4ERestartAttack@@QAEAAV0@ABV0@@Z
        403  192 00036840 ??4EScroll@@QAEAAV0@ABV0@@Z
        404  193 000365D0 ??4ESecretFound@@QAEAAV0@ABV0@@Z
        405  194 000139F0 ??4ESelectWeapon@@QAEAAV0@ABV0@@Z
        406  195 000DD5F0 ??4ESeriousBomb@@QAEAAV0@ABV0@@Z
        407  196 00036710 ??4ESound@@QAEAAV0@ABV0@@Z
        408  197 00001CE0 ??4ESpawnDebris@@QAEAAV0@ABV0@@Z
        409  198 00001A90 ??4ESpawnEffect@@QAEAAV0@ABV0@@Z
        410  199 0006B360 ??4ESpawnEffector@@QAEAAV0@ABV0@@Z
        411  19A 00001770 ??4ESpawnSpray@@QAEAAV0@ABV0@@Z
        412  19B 00062430 ??4ESpawnerProjectile@@QAEAAV0@ABV0@@Z
        413  19C 00037430 ??4ESpinnerInit@@QAEAAV0@ABV0@@Z
        414  19D 00035EA0 ??4EStart@@QAEAAV0@ABV0@@Z
        415  19E 00036370 ??4EStartAttack@@QAEAAV0@ABV0@@Z
        416  19F 00035E30 ??4EStop@@QAEAAV0@ABV0@@Z
        417  1A0 000363D0 ??4EStopAttack@@QAEAAV0@ABV0@@Z
        418  1A1 00036430 ??4EStopBlindness@@QAEAAV0@ABV0@@Z
        419  1A2 00036490 ??4EStopDeafness@@QAEAAV0@ABV0@@Z
        420  1A3 00002410 ??4EStopFlaming@@QAEAAV0@ABV0@@Z
        421  1A4 00062300 ??4ESummonerTeleport@@QAEAAV0@ABV0@@Z
        422  1A5 00036290 ??4ETeleportMovingBrush@@QAEAAV0@ABV0@@Z
        423  1A6 00036970 ??4ETextFX@@QAEAAV0@ABV0@@Z
        424  1A7 00036190 ??4ETrigger@@QAEAAV0@ABV0@@Z
        425  1A8 00037B70 ??4ETwister@@QAEAAV0@ABV0@@Z
        426  1A9 000DC720 ??4EViewInit@@QAEAAV0@ABV0@@Z
        427  1AA 00036FB0 ??4EVoiceMessage@@QAEAAV0@ABV0@@Z
        428  1AB 00010F00 ??4EWatch@@QAEAAV0@ABV0@@Z
        429  1AC 00010CD0 ??4EWatcherInit@@QAEAAV0@ABV0@@Z
        430  1AD 0014D250 ??4EWater@@QAEAAV0@ABV0@@Z
        431  1AE 00013F00 ??4EWeaponChanged@@QAEAAV0@ABV0@@Z
        432  1AF 0000F340 ??4EWeaponEffectInit@@QAEAAV0@ABV0@@Z
        433  1B0 000108D0 ??4EWeaponItem@@QAEAAV0@ABV0@@Z
        434  1B1 000137C0 ??4EWeaponsInit@@QAEAAV0@ABV0@@Z
        435  1B2 000370F0 ??4PlayerStats@@QAEAAU0@ABU0@@Z
        436  1B3 00176C04 ??_7CBullet@@6B@
        437  1B4 001772A0 ??_7CCannonBall@@6B@
        438  1B5 001770E8 ??_7CEnemyBase@@6B@
        439  1B6 0017ADC8 ??_7CEnemyDive@@6B@
        440  1B7 0017AF78 ??_7CEnemyFly@@6B@
        441  1B8 00179470 ??_7CEnemyRunInto@@6B@
        442  1B9 00176E88 ??_7CItem@@6B@
        443  1BA 0017B860 ??_7CLarvaOffspring@@6B@
        444  1BB 00177984 ??_7CNavigationMarker@@6B@
        445  1BC 00176ADC ??_7CPlayer@@6B@
        446  1BD 0017E3C4 ??_7CPlayerAnimator@@6B@
        447  1BE 0017E4D4 ??_7CPlayerView@@6B@
        448  1BF 001773E4 ??_7CPlayerWeapons@@6B@
        449  1C0 00176D7C ??_7CProjectile@@6B@
        450  1C1 00176974 ??_7CReminder@@6B@
        451  1C2 00177B58 ??_7CSpinner@@6B@
        452  1C3 00176FC0 ??_7CWatcher@@6B@
        453  1C4 00177A90 ??_7EActivate@@6B@
        454  1C5 0017B850 ??_7EActivateBeam@@6B@
        455  1C6 00176FA0 ??_7EAmmoItem@@6B@
        456  1C7 00176FA8 ??_7EAmmoPackItem@@6B@
        457  1C8 0017E3BC ??_7EAnimatorInit@@6B@
        458  1C9 00178378 ??_7EArmor@@6B@
        459  1CA 00176AD4 ??_7EAutoAction@@6B@
        460  1CB 001773BC ??_7EBoringWeapon@@6B@
        461  1CC 00178590 ??_7EBrushDestroyed@@6B@
        462  1CD 001790D8 ??_7EBrushDestroyedByDevil@@6B@
        463  1CE 00176BFC ??_7EBulletInit@@6B@
        464  1CF 00176AB4 ??_7ECameraStart@@6B@
        465  1D0 00176ABC ??_7ECameraStop@@6B@
        466  1D1 00177B30 ??_7ECenterMessage@@6B@
        467  1D2 00176A7C ??_7EChangeAnim@@6B@
        468  1D3 0017C7B4 ??_7EChangeGravity@@6B@
        469  1D4 001770C8 ??_7EChangeMusic@@6B@
        470  1D5 00177B38 ??_7EComputerMessage@@6B@
        471  1D6 00177B28 ??_7ECredits@@6B@
        472  1D7 00177A98 ??_7EDeactivate@@6B@
        473  1D8 001790E8 ??_7EDevilCommand@@6B@
        474  1D9 0017A6B8 ??_7EDevilProjectile@@6B@
        475  1DA 00176ACC ??_7EDisconnected@@6B@
        476  1DB 00177C68 ??_7EElementalGrow@@6B@
        477  1DC 00177AB0 ??_7EEnd@@6B@
        478  1DD 00177AA0 ??_7EEnvironmentStart@@6B@
        479  1DE 00177AA8 ??_7EEnvironmentStop@@6B@
        480  1DF 001773C4 ??_7EFireWeapon@@6B@
        481  1E0 00176AA4 ??_7EFlame@@6B@
        482  1E1 00177298 ??_7EForceExplode@@6B@
        483  1E2 0017A3CC ??_7EForcePathMarker@@6B@
        484  1E3 001770E0 ??_7EForceWound@@6B@
        485  1E4 0017F3E0 ??_7EHarbor@@6B@
        486  1E5 0017CFC8 ??_7EHealth@@6B@
        487  1E6 00178588 ??_7EHit@@6B@
        488  1E7 00177B48 ??_7EHitBySpaceShipBeam@@6B@
        489  1E8 00177B20 ??_7EHudPicFX@@6B@
        490  1E9 0017A7D0 ??_7EKey@@6B@
        491  1EA 00177AF8 ??_7EKilledEnemy@@6B@
        492  1EB 0017B96C ??_7ELarvaArmDestroyed@@6B@
        493  1EC 0017B974 ??_7ELarvaRechargePose@@6B@
        494  1ED 00177290 ??_7ELaunchCannonBall@@6B@
        495  1EE 0017B858 ??_7ELaunchLarvaOffspring@@6B@
        496  1EF 00176D74 ??_7ELaunchProjectile@@6B@
        497  1F0 0017D610 ??_7EMessageItem@@6B@
        498  1F1 0017E5E0 ??_7EPowerUp@@6B@
        499  1F2 00176A9C ??_7ERangeModelDestruction@@6B@
        500  1F3 00176AC4 ??_7ERebirth@@6B@
        501  1F4 00177AF0 ??_7EReceiveScore@@6B@
        502  1F5 001770D8 ??_7EReconsiderBehavior@@6B@
        503  1F6 001790E0 ??_7ERegenerationImpuls@@6B@
        504  1F7 001773CC ??_7EReleaseWeapon@@6B@
        505  1F8 001773D4 ??_7EReloadWeapon@@6B@
        506  1F9 00177AC8 ??_7EReminder@@6B@
        507  1FA 0017696C ??_7EReminderInit@@6B@
        508  1FB 001770D0 ??_7ERestartAttack@@6B@
        509  1FC 00177B10 ??_7EScroll@@6B@
        510  1FD 00177B00 ??_7ESecretFound@@6B@
        511  1FE 001773B4 ??_7ESelectWeapon@@6B@
        512  1FF 0017E5E8 ??_7ESeriousBomb@@6B@
        513  200 00177B08 ??_7ESound@@6B@
        514  201 00176A94 ??_7ESpawnDebris@@6B@
        515  202 00176A8C ??_7ESpawnEffect@@6B@
        516  203 0017A2A4 ??_7ESpawnEffector@@6B@
        517  204 00176A84 ??_7ESpawnSpray@@6B@
        518  205 00179A00 ??_7ESpawnerProjectile@@6B@
        519  206 00177B50 ??_7ESpinnerInit@@6B@
        520  207 00177A88 ??_7EStart@@6B@
        521  208 00177AD0 ??_7EStartAttack@@6B@
        522  209 00177A80 ??_7EStop@@6B@
        523  20A 00177AD8 ??_7EStopAttack@@6B@
        524  20B 00177AE0 ??_7EStopBlindness@@6B@
        525  20C 00177AE8 ??_7EStopDeafness@@6B@
        526  20D 00176AAC ??_7EStopFlaming@@6B@
        527  20E 001799F8 ??_7ESummonerTeleport@@6B@
        528  20F 00177AC0 ??_7ETeleportMovingBrush@@6B@
        529  210 00177B18 ??_7ETextFX@@6B@
        530  211 00177AB8 ??_7ETrigger@@6B@
        531  212 00177C60 ??_7ETwister@@6B@
        532  213 0017E4CC ??_7EViewInit@@6B@
        533  214 00177B40 ??_7EVoiceMessage@@6B@
        534  215 00176FB8 ??_7EWatch@@6B@
        535  216 00176FB0 ??_7EWatcherInit@@6B@
        536  217 00180A08 ??_7EWater@@6B@
        537  218 001773DC ??_7EWeaponChanged@@6B@
        538  219 00176D6C ??_7EWeaponEffectInit@@6B@
        539  21A 00176F98 ??_7EWeaponItem@@6B@
        540  21B 001773AC ??_7EWeaponsInit@@6B@
        541  21C 00094B30 ?Active@CEnemyBase@@QAEHABVCEntityEvent@@@Z
        542  21D 0014BC10 ?Active@CWatcher@@QAEHABVCEntityEvent@@@Z
        543  21E 000EB940 ?ActiveActions@CPlayer@@QAEXABVCPlayerAction@@@Z
        544  21F 000F9460 ?AddAttachmentModel@CPlayerAnimator@@QAEXPAVCModelObject@@JKKKKK@Z
        545  220 000073C0 ?AddAttachmentToModel@@YAXPAVCEntity@@AAVCModelObject@@JKKKKK@Z
        546  221 000E2500 ?AddBouble@CPlayer@@QAEXV?$Vector@M$02@@0@Z
        547  222 000E2620 ?AddBulletSpray@CPlayer@@QAEXV?$Vector@M$02@@W4EffectParticlesType@@0@Z
        548  223 00106AE0 ?AddDefaultAmmoForWeapon@CPlayerWeapons@@QAEXJM@Z
        549  224 0008BEB0 ?AddDependentsToPrediction@CEnemyBase@@UAEXXZ
        550  225 000E33A0 ?AddDependentsToPrediction@CPlayer@@UAEXXZ
        551  226 000FCA60 ?AddDependentsToPrediction@CPlayerView@@UAEXXZ
        552  227 00101010 ?AddDependentsToPrediction@CPlayerWeapons@@UAEXXZ
        553  228 000C2CF0 ?AddFlare@CItem@@QAEXKKABV?$Vector@M$02@@0@Z
        554  229 000E2700 ?AddGoreSpray@CPlayer@@QAEXV?$Vector@M$02@@0W4SprayParticlesType@@0V?$AABBox@M$02@@MK@Z
        555  22A 000C2C10 ?AddItem@CItem@@QAEXKKKKK@Z
        556  22B 000C2C70 ?AddItemAttachment@CItem@@QAEXJKKKKK@Z
        557  22C 000C2C40 ?AddItemSpecial@CItem@@QAEXJKKKKK@Z
        558  22D 001069D0 ?AddManaToPlayer@CPlayerWeapons@@QAEXJ@Z
        559  22E 0000ECD0 ?AddParticle@CEmiter@@QAEXV?$Vector@M$02@@0MMMMMK@Z
        560  22F 0008CC00 ?AddToFuss@CEnemyBase@@QAEXXZ
        561  230 000F94A0 ?AddWeaponAttachment@CPlayerAnimator@@QAEXJKKKKK@Z
        562  231 00090200 ?AdjustDifficulty@CEnemyBase@@UAEXXZ
        563  232 00096B50 ?AdjustDifficulty@CEnemyDive@@UAEXXZ
        564  233 00097F80 ?AdjustDifficulty@CEnemyFly@@UAEXXZ
        565  234 0009A000 ?AdjustDifficulty@CEnemyRunInto@@UAEXXZ
        566  235 000C2950 ?AdjustDifficulty@CItem@@UAEXXZ
        567  236 000C2960 ?AdjustMipFactor@CItem@@UAEXAAM@Z
        568  237 00055F30 ?AdjustShadingParameters@CCannonBall@@UAEHAAV?$Vector@M$02@@AAK1@Z
        569  238 0008C9D0 ?AdjustShadingParameters@CEnemyBase@@UAEHAAV?$Vector@M$02@@AAK1@Z
        570  239 000C2AA0 ?AdjustShadingParameters@CItem@@UAEHAAV?$Vector@M$02@@AAK1@Z
        571  23A 000E65B0 ?AdjustShadingParameters@CPlayer@@UAEHAAV?$Vector@M$02@@AAK1@Z
        572  23B 00116440 ?AdjustShadingParameters@CProjectile@@UAEHAAV?$Vector@M$02@@AAK1@Z
        573  23C 0011D3E0 ?AfterburnerDebris@CProjectile@@QAEXXZ
        574  23D 00098630 ?AirToGround@CEnemyFly@@QAEHABVCEntityEvent@@@Z
        575  23E 000982D0 ?AirToGroundAnim@CEnemyFly@@UAEMXZ
        576  23F 000EB200 ?AliveActions@CPlayer@@QAEXABVCPlayerAction@@@Z
        577  240 001D5268 ?AmmoItemType_enum@@3VCEntityPropertyEnumType@@A
        578  241 001D5210 ?AmmoItemType_values@@3PAVCEntityPropertyEnumValue@@A
        579  242 001D5C70 ?AmmoPackType_enum@@3VCEntityPropertyEnumType@@A
        580  243 001D5C60 ?AmmoPackType_values@@3PAVCEntityPropertyEnumValue@@A
        581  244 000904F0 ?AnimForDamage@CEnemyBase@@UAEJM@Z
        582  245 00090510 ?AnimForDeath@CEnemyBase@@UAEJXZ
        583  246 000FA060 ?AnimateBanking@CPlayerAnimator@@QAEXXZ
        584  247 0000ED70 ?AnimateParticles@CEmiter@@QAEXXZ
        585  248 000FA870 ?AnimatePlayer@CPlayerAnimator@@QAEXXZ
        586  249 000FA240 ?AnimateSoftEyes@CPlayerAnimator@@QAEXXZ
        587  24A 000EA7F0 ?ApplyAction@CPlayer@@UAEXABVCPlayerAction@@M@Z
        588  24B 000E6BC0 ?ApplyShaking@CPlayer@@QAEXAAVCPlacement3D@@@Z
        589  24C 000ECF60 ?ApplySniperZoom@CPlayer@@QAEXH@Z
        590  24D 0008DEE0 ?ApplyTactics@CEnemyBase@@UAEXAAV?$Vector@M$02@@@Z
        591  24E 001D66A0 ?ArmorItemType_enum@@3VCEntityPropertyEnumType@@A
        592  24F 001D6670 ?ArmorItemType_values@@3PAVCEntityPropertyEnumValue@@A
        593  250 00091FB0 ?AttackEnemy@CEnemyBase@@QAEHABVCEntityEvent@@@Z
        594  251 00098C80 ?AttackEnemy@CEnemyFly@@QAEHABVCEntityEvent@@@Z
        595  252 000EB300 ?AutoActions@CPlayer@@QAEXABVCPlayerAction@@@Z
        596  253 000F2840 ?AutoAppear@CPlayer@@QAEHABVCEntityEvent@@@Z
        597  254 000F21E0 ?AutoFallDown@CPlayer@@QAEHABVCEntityEvent@@@Z
        598  255 000F2360 ?AutoFallToAbys@CPlayer@@QAEHABVCEntityEvent@@@Z
        599  256 000F1480 ?AutoGoToMarker@CPlayer@@QAEHABVCEntityEvent@@@Z
        600  257 000F1750 ?AutoGoToMarkerAndStop@CPlayer@@QAEHABVCEntityEvent@@@Z
        601  258 000F24E0 ?AutoLookAround@CPlayer@@QAEHABVCEntityEvent@@@Z
        602  259 000F1E90 ?AutoPickItem@CPlayer@@QAEHABVCEntityEvent@@@Z
        603  25A 000F3550 ?AutoStoreWeapon@CPlayer@@QAEHABVCEntityEvent@@@Z
        604  25B 000F27E0 ?AutoTeleport@CPlayer@@QAEHABVCEntityEvent@@@Z
        605  25C 000F1A50 ?AutoUseItem@CPlayer@@QAEHABVCEntityEvent@@@Z
        606  25D 00056470 ?BallTouchExplode@CCannonBall@@QAEHVCEntityPointer@@@Z
        607  25E 001D6EB0 ?BasicEffectType_enum@@3VCEntityPropertyEnumType@@A
        608  25F 001D6D40 ?BasicEffectType_values@@3PAVCEntityPropertyEnumValue@@A
        609  260 00090FC0 ?BeIdle@CEnemyBase@@QAEHABVCEntityEvent@@@Z
        610  261 00093A60 ?BeWounded@CEnemyBase@@QAEHABVCEntityEvent@@@Z
        611  262 00098370 ?BeWounded@CEnemyFly@@QAEHABVCEntityEvent@@@Z
        612  263 00119BB0 ?BeastBigDebris@CProjectile@@QAEXXZ
        613  264 00119EA0 ?BeastBigDebrisExplosion@CProjectile@@QAEXXZ
        614  265 001198C0 ?BeastBigProjectile@CProjectile@@QAEXXZ
        615  266 0011A480 ?BeastBigProjectileExplosion@CProjectile@@QAEXXZ
        616  267 00119A70 ?BeastDebris@CProjectile@@QAEXXZ
        617  268 00119CF0 ?BeastDebrisExplosion@CProjectile@@QAEXXZ
        618  269 00119710 ?BeastProjectile@CProjectile@@QAEXXZ
        619  26A 0011A050 ?BeastProjectileExplosion@CProjectile@@QAEXXZ
        620  26B 001D7EC8 ?BeastType_enum@@3VCEntityPropertyEnumType@@A
        621  26C 001D7EB0 ?BeastType_values@@3PAVCEntityPropertyEnumValue@@A
        622  26D 001D86C0 ?BigHeadType_enum@@3VCEntityPropertyEnumType@@A
        623  26E 001D86A8 ?BigHeadType_values@@3PAVCEntityPropertyEnumValue@@A
        624  26F 001D8B98 ?BlendControllerType_enum@@3VCEntityPropertyEnumType@@A
        625  270 001D8B60 ?BlendControllerType_values@@3PAVCEntityPropertyEnumValue@@A
        626  271 001EB7F0 ?BlockAction_enum@@3VCEntityPropertyEnumType@@A
        627  272 001EB7D8 ?BlockAction_values@@3PAVCEntityPropertyEnumValue@@A
        628  273 0008F980 ?BlowUp@CEnemyBase@@UAEXXZ
        629  274 000E9870 ?BlowUp@CPlayer@@QAEXXZ
        630  275 0008F970 ?BlowUpBase@CEnemyBase@@QAEXXZ
        631  276 00090500 ?BlowUpNotify@CEnemyBase@@UAEXXZ
        632  277 000FA7C0 ?BodyAndHeadOrientation@CPlayerAnimator@@QAEXAAVCPlacement3D@@@Z
        633  278 000FB190 ?BodyAnimationTemplate@CPlayerAnimator@@QAEXJJJJK@Z
        634  279 000FB510 ?BodyPickItemAnimation@CPlayerAnimator@@QAEXXZ
        635  27A 000FB410 ?BodyPullAnimation@CPlayerAnimator@@QAEXXZ
        636  27B 000FB4A0 ?BodyPullItemAnimation@CPlayerAnimator@@QAEXXZ
        637  27C 000FB270 ?BodyPushAnimation@CPlayerAnimator@@QAEXXZ
        638  27D 000FB580 ?BodyRemoveItem@CPlayerAnimator@@QAEXXZ
        639  27E 000FB260 ?BodyStillAnimation@CPlayerAnimator@@QAEXXZ
        640  27F 000FB250 ?BodyWalkAnimation@CPlayerAnimator@@QAEXXZ
        641  280 00118590 ?BonemanProjectile@CProjectile@@QAEXXZ
        642  281 001E62C0 ?BoolEType_enum@@3VCEntityPropertyEnumType@@A
        643  282 001E62A8 ?BoolEType_values@@3PAVCEntityPropertyEnumValue@@A
        644  283 001122A0 ?BoringWeaponAnimation@CPlayerWeapons@@QAEHABVCEntityEvent@@@Z
        645  284 000567E0 ?Bounce@CCannonBall@@QAEHABVCEntityEvent@@@Z
        646  285 00056740 ?BounceSound@CCannonBall@@QAEXM@Z
        647  286 0011D9B0 ?BounceSound@CProjectile@@QAEXXZ
        648  287 00109CB0 ?BringUp@CPlayerWeapons@@QAEHABVCEntityEvent@@@Z
        649  288 001FE2B0 ?BullChar_enum@@3VCEntityPropertyEnumType@@A
        650  289 001FE2A0 ?BullChar_values@@3PAVCEntityPropertyEnumValue@@A
        651  28A 001E64B0 ?BulletHitType_enum@@3VCEntityPropertyEnumType@@A
        652  28B 001E6458 ?BulletHitType_values@@3PAVCEntityPropertyEnumValue@@A
        653  28C 000ECB90 ?ButtonsActions@CPlayer@@QAEXAAVCPlayerAction@@@Z
        654  28D 0008ADF0 ?CalcDelta@CEnemyBase@@QAE?AV?$Vector@M$02@@PAVCEntity@@@Z
        655  28E 0008AE50 ?CalcDist@CEnemyBase@@QAEMPAVCEntity@@@Z
        656  28F 0008D6C0 ?CalcDistanceInPlaneToDestination@CEnemyBase@@QAEMXZ
        657  290 0004F260 ?CalcJitterTarget@CBullet@@QAEXM@Z
        658  291 0004F380 ?CalcJitterTargetFixed@CBullet@@QAEXMMM@Z
        659  292 00103E00 ?CalcLerpedWeaponPosition@CPlayerWeapons@@QAEXV?$Vector@M$02@@AAVCPlacement3D@@H@Z
        660  293 0008AF00 ?CalcPlaneDelta@CEnemyBase@@QAE?AV?$Vector@M$02@@PAVCEntity@@@Z
        661  294 0008AFD0 ?CalcPlaneDist@CEnemyBase@@QAEMPAVCEntity@@@Z
        662  295 0004F0D0 ?CalcTarget@CBullet@@QAEXM@Z
        663  296 0004F150 ?CalcTarget@CBullet@@QAEXPAVCEntity@@M@Z
        664  297 00103990 ?CalcWeaponPosition3rdPersonView@CPlayerWeapons@@QAEXV?$Vector@M$02@@AAVCPlacement3D@@H@Z
        665  298 00103BB0 ?CalcWeaponPosition@CPlayerWeapons@@QAEXV?$Vector@M$02@@AAVCPlacement3D@@H@Z
        666  299 00104040 ?CalcWeaponPositionImprecise@CPlayerWeapons@@QAEXV?$Vector@M$02@@AAVCPlacement3D@@HM@Z
        667  29A 0008B730 ?CalculateAngularLaunchParams@CEnemyBase@@QAEXV?$Vector@M$02@@M00MAAM1@Z
        668  29B 000561B0 ?CalculateDamageToInflict@CCannonBall@@QAEMXZ
        669  29C 0008BAD0 ?CalculatePredictedPosition@CEnemyBase@@QAE?AV?$Vector@M$02@@V2@0M0M@Z
        670  29D 0008E950 ?CanAttackEnemy@CEnemyBase@@QAEHPAVCEntity@@M@Z
        671  29E 0008E990 ?CanHitEnemy@CEnemyBase@@UAEHPAVCEntity@@M@Z
        672  29F 00096C00 ?CanHitEnemy@CEnemyDive@@UAEHPAVCEntity@@M@Z
        673  2A0 00098040 ?CanHitEnemy@CEnemyFly@@UAEHPAVCEntity@@M@Z
        674  2A1 001D9AD8 ?CannonBallType_enum@@3VCEntityPropertyEnumType@@A
        675  2A2 001D9AC8 ?CannonBallType_values@@3PAVCEntityPropertyEnumValue@@A
        676  2A3 00108B30 ?CannonBoring@CPlayerWeapons@@QAEMXZ
        677  2A4 001115A0 ?CannonFireStart@CPlayerWeapons@@QAEHABVCEntityEvent@@@Z
        678  2A5 00117CB0 ?CatmanProjectile@CProjectile@@QAEXXZ
        679  2A6 00108AB0 ?ChainsawBoring@CPlayerWeapons@@QAEMXZ
        680  2A7 001110A0 ?ChainsawBringUp@CPlayerWeapons@@QAEHABVCEntityEvent@@@Z
        681  2A8 001109F0 ?ChainsawFire@CPlayerWeapons@@QAEHABVCEntityEvent@@@Z
        682  2A9 000982F0 ?ChangeCollisionToAir@CEnemyFly@@UAEXXZ
        683  2AA 00096F70 ?ChangeCollisionToGround@CEnemyDive@@UAEXXZ
        684  2AB 00098300 ?ChangeCollisionToGround@CEnemyFly@@UAEXXZ
        685  2AC 00096F60 ?ChangeCollisionToLiquid@CEnemyDive@@UAEXXZ
        686  2AD 001121D0 ?ChangeKnifeStand@CPlayerWeapons@@QAEHABVCEntityEvent@@@Z
        687  2AE 000EA300 ?ChangePlayerView@CPlayer@@QAEXXZ
        688  2AF 00112230 ?ChangeToIronCannon@CPlayerWeapons@@QAEHABVCEntityEvent@@@Z
        689  2B0 000FA590 ?ChangeView@CPlayerAnimator@@QAEXAAVCPlacement3D@@@Z
        690  2B1 00109210 ?ChangeWeapon@CPlayerWeapons@@QAEHABVCEntityEvent@@@Z
        691  2B2 000EAEF0 ?CharacterChanged@CPlayer@@UAEXABVCPlayerCharacter@@@Z
        692  2B3 000904E0 ?ChargeAnim@CEnemyBase@@UAEXXZ
        693  2B4 0009A0C0 ?ChargeAnim@CEnemyRunInto@@UAEXXZ
        694  2B5 000935C0 ?ChargeHitEnemy@CEnemyBase@@QAEHABVCEntityEvent@@@Z
        695  2B6 000E62A0 ?CheatAllMessages@CPlayer@@QAEXXZ
        696  2B7 000E6100 ?CheatAllMessagesDir@CPlayer@@QAEXABVCTString@@K@Z
        697  2B8 00106960 ?CheatGiveAll@CPlayerWeapons@@QAEXXZ
        698  2B9 001068D0 ?CheatOpen@CPlayerWeapons@@QAEXXZ
        699  2BA 000ED060 ?Cheats@CPlayer@@QAEXXZ
        700  2BB 000ED020 ?CheatsEnabled@CPlayer@@QAEHXZ
        701  2BC 0014BA90 ?CheckAnotherPlayer@CWatcher@@QAEPAVCEntity@@PAV2@@Z
        702  2BD 0014B910 ?CheckCloserPlayer@CWatcher@@QAEPAVCEntity@@PAV2@M@Z
        703  2BE 000F00C0 ?CheckDeathForRespawnInPlace@CPlayer@@QAEXVEDeath@@@Z
        704  2BF 0008DA70 ?CheckFallForPathFinding@CEnemyBase@@QAEHABVEWouldFall@@@Z
        705  2C0 000EA740 ?CheckGameEnd@CPlayer@@QAEXXZ
        706  2C1 000E2FB0 ?CheckHighScore@CPlayer@@QAEXXZ
        707  2C2 0014B630 ?CheckIfPlayerVisible@CWatcher@@QAEXXZ
        708  2C3 00101F40 ?CheckTargetPrediction@CPlayerWeapons@@QAEXPAVCEntity@@@Z
        709  2C4 0008D910 ?CheckTouchForPathFinding@CEnemyBase@@QAEHABVETouch@@@Z
        710  2C5 0008BEE0 ?ChecksumForSync@CEnemyBase@@UAEXAAKJ@Z
        711  2C6 000E8480 ?ChecksumForSync@CPlayer@@UAEXAAKJ@Z
        712  2C7 00106A10 ?ClampAllAmmo@CPlayerWeapons@@QAEXXZ
        713  2C8 001E6720 ?ClasificationBits_enum@@3VCEntityPropertyEnumType@@A
        714  2C9 001E66A0 ?ClasificationBits_values@@3PAVCEntityPropertyEnumValue@@A
        715  2CA 00006050 ?Clear@CCompMessageID@@QAEXXZ
        716  2CB 000E26D0 ?ClearBulletSprayLaunchData@CPlayer@@QAEXXZ
        717  2CC 000E27E0 ?ClearGoreSprayLaunchData@CPlayer@@QAEXXZ
        718  2CD 000E25F0 ?ClearShellLaunchData@CPlayer@@QAEXXZ
        719  2CE 00035FC0 ?ClearToDefault@@YAXAAVEActivate@@@Z
        720  2CF 000A3FD0 ?ClearToDefault@@YAXAAVEActivateBeam@@@Z
        721  2D0 00010AD0 ?ClearToDefault@@YAXAAVEAmmoItem@@@Z
        722  2D1 00010C50 ?ClearToDefault@@YAXAAVEAmmoPackItem@@@Z
        723  2D2 000DBF70 ?ClearToDefault@@YAXAAVEAnimatorInit@@@Z
        724  2D3 00040430 ?ClearToDefault@@YAXAAVEArmor@@@Z
        725  2D4 00002D10 ?ClearToDefault@@YAXAAVEAutoAction@@@Z
        726  2D5 00013BC0 ?ClearToDefault@@YAXAAVEBoringWeapon@@@Z
        727  2D6 00041E50 ?ClearToDefault@@YAXAAVEBrushDestroyed@@@Z
        728  2D7 00055120 ?ClearToDefault@@YAXAAVEBrushDestroyedByDevil@@@Z
        729  2D8 00005C40 ?ClearToDefault@@YAXAAVEBulletInit@@@Z
        730  2D9 000026B0 ?ClearToDefault@@YAXAAVECameraStart@@@Z
        731  2DA 000028E0 ?ClearToDefault@@YAXAAVECameraStop@@@Z
        732  2DB 00036D80 ?ClearToDefault@@YAXAAVECenterMessage@@@Z
        733  2DC 000016A0 ?ClearToDefault@@YAXAAVEChangeAnim@@@Z
        734  2DD 000B76D0 ?ClearToDefault@@YAXAAVEChangeGravity@@@Z
        735  2DE 00011690 ?ClearToDefault@@YAXAAVEChangeMusic@@@Z
        736  2DF 00036EC0 ?ClearToDefault@@YAXAAVEComputerMessage@@@Z
        737  2E0 00036C20 ?ClearToDefault@@YAXAAVECredits@@@Z
        738  2E1 00036020 ?ClearToDefault@@YAXAAVEDeactivate@@@Z
        739  2E2 00055460 ?ClearToDefault@@YAXAAVEDevilCommand@@@Z
        740  2E3 0007D7F0 ?ClearToDefault@@YAXAAVEDevilProjectile@@@Z
        741  2E4 00002B60 ?ClearToDefault@@YAXAAVEDisconnected@@@Z
        742  2E5 00037E90 ?ClearToDefault@@YAXAAVEElementalGrow@@@Z
        743  2E6 00036140 ?ClearToDefault@@YAXAAVEEnd@@@Z
        744  2E7 00036080 ?ClearToDefault@@YAXAAVEEnvironmentStart@@@Z
        745  2E8 000360E0 ?ClearToDefault@@YAXAAVEEnvironmentStop@@@Z
        746  2E9 00013CC0 ?ClearToDefault@@YAXAAVEFireWeapon@@@Z
        747  2EA 00002300 ?ClearToDefault@@YAXAAVEFlame@@@Z
        748  2EB 00012EC0 ?ClearToDefault@@YAXAAVEForceExplode@@@Z
        749  2EC 0006D340 ?ClearToDefault@@YAXAAVEForcePathMarker@@@Z
        750  2ED 00011A00 ?ClearToDefault@@YAXAAVEForceWound@@@Z
        751  2EE 0012F4F0 ?ClearToDefault@@YAXAAVEHarbor@@@Z
        752  2EF 000BFD10 ?ClearToDefault@@YAXAAVEHealth@@@Z
        753  2F0 00041D50 ?ClearToDefault@@YAXAAVEHit@@@Z
        754  2F1 000370B0 ?ClearToDefault@@YAXAAVEHitBySpaceShipBeam@@@Z
        755  2F2 00036AF0 ?ClearToDefault@@YAXAAVEHudPicFX@@@Z
        756  2F3 0007EB90 ?ClearToDefault@@YAXAAVEKey@@@Z
        757  2F4 00036590 ?ClearToDefault@@YAXAAVEKilledEnemy@@@Z
        758  2F5 000A4940 ?ClearToDefault@@YAXAAVELarvaArmDestroyed@@@Z
        759  2F6 000A4A60 ?ClearToDefault@@YAXAAVELarvaRechargePose@@@Z
        760  2F7 00012D30 ?ClearToDefault@@YAXAAVELaunchCannonBall@@@Z
        761  2F8 000A4190 ?ClearToDefault@@YAXAAVELaunchLarvaOffspring@@@Z
        762  2F9 0000F740 ?ClearToDefault@@YAXAAVELaunchProjectile@@@Z
        763  2FA 000C9990 ?ClearToDefault@@YAXAAVEMessageItem@@@Z
        764  2FB 000DD580 ?ClearToDefault@@YAXAAVEPowerUp@@@Z
        765  2FC 000020D0 ?ClearToDefault@@YAXAAVERangeModelDestruction@@@Z
        766  2FD 00002A60 ?ClearToDefault@@YAXAAVERebirth@@@Z
        767  2FE 00036520 ?ClearToDefault@@YAXAAVEReceiveScore@@@Z
        768  2FF 00011900 ?ClearToDefault@@YAXAAVEReconsiderBehavior@@@Z
        769  300 00055240 ?ClearToDefault@@YAXAAVERegenerationImpuls@@@Z
        770  301 00013DC0 ?ClearToDefault@@YAXAAVEReleaseWeapon@@@Z
        771  302 00013EC0 ?ClearToDefault@@YAXAAVEReloadWeapon@@@Z
        772  303 00036320 ?ClearToDefault@@YAXAAVEReminder@@@Z
        773  304 000011B0 ?ClearToDefault@@YAXAAVEReminderInit@@@Z
        774  305 00011800 ?ClearToDefault@@YAXAAVERestartAttack@@@Z
        775  306 00036890 ?ClearToDefault@@YAXAAVEScroll@@@Z
        776  307 000365F0 ?ClearToDefault@@YAXAAVESecretFound@@@Z
        777  308 00013AB0 ?ClearToDefault@@YAXAAVESelectWeapon@@@Z
        778  309 000DD750 ?ClearToDefault@@YAXAAVESeriousBomb@@@Z
        779  30A 00036760 ?ClearToDefault@@YAXAAVESound@@@Z
        780  30B 00001ED0 ?ClearToDefault@@YAXAAVESpawnDebris@@@Z
        781  30C 00001BA0 ?ClearToDefault@@YAXAAVESpawnEffect@@@Z
        782  30D 0006B540 ?ClearToDefault@@YAXAAVESpawnEffector@@@Z
        783  30E 00001910 ?ClearToDefault@@YAXAAVESpawnSpray@@@Z
        784  30F 000625D0 ?ClearToDefault@@YAXAAVESpawnerProjectile@@@Z
        785  310 00037600 ?ClearToDefault@@YAXAAVESpinnerInit@@@Z
        786  311 00035EE0 ?ClearToDefault@@YAXAAVEStart@@@Z
        787  312 00036390 ?ClearToDefault@@YAXAAVEStartAttack@@@Z
        788  313 00035E50 ?ClearToDefault@@YAXAAVEStop@@@Z
        789  314 000363F0 ?ClearToDefault@@YAXAAVEStopAttack@@@Z
        790  315 00036450 ?ClearToDefault@@YAXAAVEStopBlindness@@@Z
        791  316 000364B0 ?ClearToDefault@@YAXAAVEStopDeafness@@@Z
        792  317 000024D0 ?ClearToDefault@@YAXAAVEStopFlaming@@@Z
        793  318 000623C0 ?ClearToDefault@@YAXAAVESummonerTeleport@@@Z
        794  319 000362B0 ?ClearToDefault@@YAXAAVETeleportMovingBrush@@@Z
        795  31A 000369C0 ?ClearToDefault@@YAXAAVETextFX@@@Z
        796  31B 000361D0 ?ClearToDefault@@YAXAAVETrigger@@@Z
        797  31C 00037CF0 ?ClearToDefault@@YAXAAVETwister@@@Z
        798  31D 000DC8D0 ?ClearToDefault@@YAXAAVEViewInit@@@Z
        799  31E 00036FF0 ?ClearToDefault@@YAXAAVEVoiceMessage@@@Z
        800  31F 00011060 ?ClearToDefault@@YAXAAVEWatch@@@Z
        801  320 00010E30 ?ClearToDefault@@YAXAAVEWatcherInit@@@Z
        802  321 0014D3C0 ?ClearToDefault@@YAXAAVEWater@@@Z
        803  322 00013FC0 ?ClearToDefault@@YAXAAVEWeaponChanged@@@Z
        804  323 0000F4B0 ?ClearToDefault@@YAXAAVEWeaponEffectInit@@@Z
        805  324 000109A0 ?ClearToDefault@@YAXAAVEWeaponItem@@@Z
        806  325 00013920 ?ClearToDefault@@YAXAAVEWeaponsInit@@@Z
        807  326 000109D0 ?ClearToDefault@@YAXAAW4AmmoItemType@@@Z
        808  327 00010B00 ?ClearToDefault@@YAXAAW4AmmoPackType@@@Z
        809  328 00040330 ?ClearToDefault@@YAXAAW4ArmorItemType@@@Z
        810  329 00001A00 ?ClearToDefault@@YAXAAW4BasicEffectType@@@Z
        811  32A 00046330 ?ClearToDefault@@YAXAAW4BeastType@@@Z
        812  32B 00049580 ?ClearToDefault@@YAXAAW4BigHeadType@@@Z
        813  32C 0004AAF0 ?ClearToDefault@@YAXAAW4BlendControllerType@@@Z
        814  32D 00041E70 ?ClearToDefault@@YAXAAW4BlockAction@@@Z
        815  32E 00036610 ?ClearToDefault@@YAXAAW4BoolEType@@@Z
        816  32F 0014FD70 ?ClearToDefault@@YAXAAW4BullChar@@@Z
        817  330 00036670 ?ClearToDefault@@YAXAAW4BulletHitType@@@Z
        818  331 00012B50 ?ClearToDefault@@YAXAAW4CannonBallType@@@Z
        819  332 000366B0 ?ClearToDefault@@YAXAAW4ClasificationBits@@@Z
        820  333 000019E0 ?ClearToDefault@@YAXAAW4CustomShadingType@@@Z
        821  334 00001C10 ?ClearToDefault@@YAXAAW4DebrisParticlesType@@@Z
        822  335 00011A30 ?ClearToDefault@@YAXAAW4DestinationType@@@Z
        823  336 000020F0 ?ClearToDefault@@YAXAAW4DestructionDebrisType@@@Z
        824  337 00055000 ?ClearToDefault@@YAXAAW4DevilActionType@@@Z
        825  338 00055530 ?ClearToDefault@@YAXAAW4DevilAttackPower@@@Z
        826  339 00055260 ?ClearToDefault@@YAXAAW4DevilCommandType@@@Z
        827  33A 00055520 ?ClearToDefault@@YAXAAW4DevilState@@@Z
        828  33B 0007EBC0 ?ClearToDefault@@YAXAAW4DoorType@@@Z
        829  33C 00080840 ?ClearToDefault@@YAXAAW4EffectMarkerType@@@Z
        830  33D 00036680 ?ClearToDefault@@YAXAAW4EffectParticlesType@@@Z
        831  33E 0006B2C0 ?ClearToDefault@@YAXAAW4EffectorEffectType@@@Z
        832  33F 000373A0 ?ClearToDefault@@YAXAAW4ElementalCharacter@@@Z
        833  340 000373B0 ?ClearToDefault@@YAXAAW4ElementalState@@@Z
        834  341 00037390 ?ClearToDefault@@YAXAAW4ElementalType@@@Z
        835  342 000961E0 ?ClearToDefault@@YAXAAW4EnemyDiveType@@@Z
        836  343 000972B0 ?ClearToDefault@@YAXAAW4EnemyFlyType@@@Z
        837  344 0009AF80 ?ClearToDefault@@YAXAAW4EnemySpawnerType@@@Z
        838  345 00036630 ?ClearToDefault@@YAXAAW4EntityInfoBodyType@@@Z
        839  346 00019CA0 ?ClearToDefault@@YAXAAW4EnvironmentParticlesHolderType@@@Z
        840  347 00036620 ?ClearToDefault@@YAXAAW4EventEType@@@Z
        841  348 000AE4B0 ?ClearToDefault@@YAXAAW4EyemanChar@@@Z
        842  349 000AE4C0 ?ClearToDefault@@YAXAAW4EyemanEnv@@@Z
        843  34A 001147D0 ?ClearToDefault@@YAXAAW4FireType@@@Z
        844  34B 00055540 ?ClearToDefault@@YAXAAW4FogAttenuationType@@@Z
        845  34C 00055550 ?ClearToDefault@@YAXAAW4FogGraduationType2@@@Z
        846  34D 000B7770 ?ClearToDefault@@YAXAAW4GravityType@@@Z
        847  34E 000B8A40 ?ClearToDefault@@YAXAAW4GruntType@@@Z
        848  34F 000BC730 ?ClearToDefault@@YAXAAW4HeadmanType@@@Z
        849  350 000BFC10 ?ClearToDefault@@YAXAAW4HealthItemType@@@Z
        850  351 0007EA90 ?ClearToDefault@@YAXAAW4KeyItemType@@@Z
        851  352 000A4840 ?ClearToDefault@@YAXAAW4LarvaTarget@@@Z
        852  353 00002110 ?ClearToDefault@@YAXAAW4LensFlareType@@@Z
        853  354 00002100 ?ClearToDefault@@YAXAAW4LightType@@@Z
        854  355 00036640 ?ClearToDefault@@YAXAAW4MessageSound@@@Z
        855  356 000114D0 ?ClearToDefault@@YAXAAW4MusicType@@@Z
        856  357 0006D1A0 ?ClearToDefault@@YAXAAW4PSSState@@@Z
        857  358 00036650 ?ClearToDefault@@YAXAAW4ParticleTexture@@@Z
        858  359 000D9330 ?ClearToDefault@@YAXAAW4ParticlesHolderType@@@Z
        859  35A 000DD5B0 ?ClearToDefault@@YAXAAW4PlayerAutoAction@@@Z
        860  35B 00002510 ?ClearToDefault@@YAXAAW4PlayerState@@@Z
        861  35C 00002500 ?ClearToDefault@@YAXAAW4PlayerViewType@@@Z
        862  35D 000DD480 ?ClearToDefault@@YAXAAW4PowerUpItemType@@@Z
        863  35E 0000F560 ?ClearToDefault@@YAXAAW4ProjectileMovingType@@@Z
        864  35F 0000F550 ?ClearToDefault@@YAXAAW4ProjectileType@@@Z
        865  360 0012AD80 ?ClearToDefault@@YAXAAW4ScorpmanType@@@Z
        866  361 000019F0 ?ClearToDefault@@YAXAAW4ShadowType@@@Z
        867  362 00036660 ?ClearToDefault@@YAXAAW4SoundType@@@Z
        868  363 00036690 ?ClearToDefault@@YAXAAW4SprayParticlesType@@@Z
        869  364 000DD460 ?ClearToDefault@@YAXAAW4SwitchType@@@Z
        870  365 00088E10 ?ClearToDefault@@YAXAAW4TacticType@@@Z
        871  366 00011A20 ?ClearToDefault@@YAXAAW4TargetType@@@Z
        872  367 00041E80 ?ClearToDefault@@YAXAAW4TouchOrDamageEvent@@@Z
        873  368 000DC6C0 ?ClearToDefault@@YAXAAW4ViewType@@@Z
        874  369 000366C0 ?ClearToDefault@@YAXAAW4VisibilityBits@@@Z
        875  36A 001489B0 ?ClearToDefault@@YAXAAW4WalkerChar@@@Z
        876  36B 00041C60 ?ClearToDefault@@YAXAAW4WarpRotation@@@Z
        877  36C 0014D200 ?ClearToDefault@@YAXAAW4WaterSize@@@Z
        878  36D 000366A0 ?ClearToDefault@@YAXAAW4WeaponBits@@@Z
        879  36E 0000F2F0 ?ClearToDefault@@YAXAAW4WeaponEffectType@@@Z
        880  36F 00010880 ?ClearToDefault@@YAXAAW4WeaponItemType@@@Z
        881  370 00013FE0 ?ClearToDefault@@YAXAAW4WeaponType@@@Z
        882  371 000DD470 ?ClearToDefault@@YAXAAW4WorldLinkType@@@Z
        883  372 00106490 ?ClearWeapons@CPlayerWeapons@@QAEXXZ
        884  373 0001C900 ?CloseParticles@@YAXXZ
        885  374 001087D0 ?ColtBoring@CPlayerWeapons@@QAEMXZ
        886  375 000EA490 ?ComputerPressed@CPlayer@@QAEXXZ
        887  376 000FB730 ?ControlFlareAttachment@CPlayerAnimator@@QAEXXZ
        888  377 00102E20 ?ControlFlareAttachment@CPlayerWeapons@@QAEXXZ
        889  378 0008ACC0 ?Copy@CEnemyBase@@UAEXAAVCEntity@@K@Z
        890  379 000E2B50 ?Copy@CPlayer@@UAEXAAVCEntity@@K@Z
        891  37A 00116410 ?Copy@CProjectile@@UAEXAAVCEntity@@K@Z
        892  37B 0008AB60 ?CountAsKill@CEnemyBase@@UAEHXZ
        893  37C 000FAF00 ?Crouch@CPlayerAnimator@@QAEXXZ
        894  37D 001EB2E8 ?CustomShadingType_enum@@3VCEntityPropertyEnumType@@A
        895  37E 001EB2D0 ?CustomShadingType_values@@3PAVCEntityPropertyEnumValue@@A
        896  37F 00104CD0 ?CutWithChainsaw@CPlayerWeapons@@QAEHMMMMMM@Z
        897  380 00104350 ?CutWithKnife@CPlayerWeapons@@QAEHMMMMMM@Z
        898  381 0011B710 ?CyborgBomb@CProjectile@@QAEXXZ
        899  382 00118360 ?CyborgBombExplosion@CProjectile@@QAEXXZ
        900  383 0011B630 ?CyborgLaser@CProjectile@@QAEXXZ
        901  384 000E8A70 ?DamageImpact@CPlayer@@QAEXW4DamageType@@MABV?$Vector@M$02@@1@Z
        902  385 0000C2F0 ?DamageStrength@@YAMW4EntityInfoBodyType@@W4DamageType@@@Z
        903  386 00093FB0 ?Death@CEnemyBase@@QAEHABVCEntityEvent@@@Z
        904  387 00099230 ?Death@CEnemyFly@@QAEHABVCEntityEvent@@@Z
        905  388 000F0640 ?Death@CPlayer@@QAEHABVCEntityEvent@@@Z
        906  389 000EC8A0 ?DeathActions@CPlayer@@QAEXABVCPlayerAction@@@Z
        907  38A 00090530 ?DeathNotify@CEnemyBase@@UAEXXZ
        908  38B 00094650 ?DeathSequence@CEnemyBase@@QAEHABVCEntityEvent@@@Z
        909  38C 00090570 ?DeathSound@CEnemyBase@@UAEXXZ
        910  38D 001DBE28 ?DebrisParticlesType_enum@@3VCEntityPropertyEnumType@@A
        911  38E 001DBDF8 ?DebrisParticlesType_values@@3PAVCEntityPropertyEnumValue@@A
        912  38F 0000B940 ?Debris_Begin@@YAXW4EntityInfoBodyType@@W4DebrisParticlesType@@W4BasicEffectType@@MABV?$Vector@M$02@@3MMK@Z
        913  390 0000B9C0 ?Debris_Spawn@@YA?AVCEntityPointer@@PAVCEntity@@0JJJJJJMABV?$Vector@M$02@@@Z
        914  391 0000BDE0 ?Debris_Spawn_Independent@@YA?AVCEntityPointer@@PAVCEntity@@0JJJJJJMVCPlacement3D@@V?$Vector@M$02@@2@Z
        915  392 0000BFA0 ?Debris_Spawn_Template@@YA?AVCEntityPointer@@W4EntityInfoBodyType@@W4DebrisParticlesType@@W4BasicEffectType@@PAVCModelHolder2@@PAVCEntity@@3V?$Vector@M$02@@MVCPlacement3D@@55HMK@Z
        916  393 0011BE10 ?DemonFireball@CProjectile@@QAEXXZ
        917  394 0011BFC0 ?DemonFireballExplosion@CProjectile@@QAEXXZ
        918  395 001E10C8 ?DestinationType_enum@@3VCEntityPropertyEnumType@@A
        919  396 001E10A8 ?DestinationType_values@@3PAVCEntityPropertyEnumValue@@A
        920  397 0004F920 ?DestroyBullet@CBullet@@QAEXXZ
        921  398 001EAC20 ?DestructionDebrisType_enum@@3VCEntityPropertyEnumType@@A
        922  399 001EAC00 ?DestructionDebrisType_values@@3PAVCEntityPropertyEnumValue@@A
        923  39A 001DF388 ?DevilActionType_enum@@3VCEntityPropertyEnumType@@A
        924  39B 001DF2E0 ?DevilActionType_values@@3PAVCEntityPropertyEnumValue@@A
        925  39C 001DCC78 ?DevilAttackPower_enum@@3VCEntityPropertyEnumType@@A
        926  39D 001DCC50 ?DevilAttackPower_values@@3PAVCEntityPropertyEnumValue@@A
        927  39E 001DCC10 ?DevilCommandType_enum@@3VCEntityPropertyEnumType@@A
        928  39F 001DCBD0 ?DevilCommandType_values@@3PAVCEntityPropertyEnumValue@@A
        929  3A0 0011B040 ?DevilGuidedProjectile@CProjectile@@QAEXXZ
        930  3A1 0011B1F0 ?DevilGuidedProjectileExplosion@CProjectile@@QAEXXZ
        931  3A2 0011AA80 ?DevilLaser@CProjectile@@QAEXXZ
        932  3A3 0011AB80 ?DevilRocket@CProjectile@@QAEXXZ
        933  3A4 0011AD00 ?DevilRocketExplosion@CProjectile@@QAEXXZ
        934  3A5 001DCC48 ?DevilState_enum@@3VCEntityPropertyEnumType@@A
        935  3A6 001DCC18 ?DevilState_values@@3PAVCEntityPropertyEnumValue@@A
        936  3A7 00093BD0 ?Die@CEnemyBase@@QAEHABVCEntityEvent@@@Z
        937  3A8 000EAE30 ?Disconnect@CPlayer@@UAEXXZ
        938  3A9 00037120 ?DistanceTo@@YAMPAVCEntity@@0@Z
        939  3AA 00097250 ?DiveFire@CEnemyDive@@QAEHABVCEntityEvent@@@Z
        940  3AB 000971F0 ?DiveHit@CEnemyDive@@QAEHABVCEntityEvent@@@Z
        941  3AC 000F3840 ?DoAutoActions@CPlayer@@QAEHABVCEntityEvent@@@Z
        942  3AD 000E81D0 ?DoMoving@CPlayer@@UAEXXZ
        943  3AE 000FCA80 ?DoMoving@CPlayerView@@UAEXXZ
        944  3AF 00090CE0 ?DoPatrolling@CEnemyBase@@QAEHABVCEntityEvent@@@Z
        945  3B0 001010C0 ?DoRecoil@CPlayerWeapons@@QAEXXZ
        946  3B1 001DF7E8 ?DoorType_enum@@3VCEntityPropertyEnumType@@A
        947  3B2 001DF7C8 ?DoorType_values@@3PAVCEntityPropertyEnumValue@@A
        948  3B3 00108820 ?DoubleColtBoring@CPlayerWeapons@@QAEMXZ
        949  3B4 001088D0 ?DoubleShotgunBoring@CPlayerWeapons@@QAEMXZ
        950  3B5 00118770 ?DragonmanProjectile@CProjectile@@QAEXJ@Z
        951  3B6 00106DA0 ?DropWeapon@CPlayerWeapons@@QAEXXZ
        952  3B7 0008BD20 ?DropsMarker@CEnemyBase@@UBEHAAVCTFileName@@AAVCTString@@@Z
        953  3B8 000D9140 ?DropsMarker@CNavigationMarker@@UBEHAAVCTFileName@@AAVCTString@@@Z
        954  3B9 0014BF40 ?Dummy@CWatcher@@QAEHABVCEntityEvent@@@Z
        955  3BA 00043090 ?DumpSync_t@CBasicEffect@@UAEXAAVCTStream@@J@Z
        956  3BB 0008BF00 ?DumpSync_t@CEnemyBase@@UAEXAAVCTStream@@J@Z
        957  3BC 000E86B0 ?DumpSync_t@CPlayer@@UAEXAAVCTStream@@J@Z
        958  3BD 00116350 ?DumpSync_t@CProjectile@@UAEXAAVCTStream@@J@Z
        959  3BE 001DFCF0 ?EffectMarkerType_enum@@3VCEntityPropertyEnumType@@A
        960  3BF 001DFC78 ?EffectMarkerType_values@@3PAVCEntityPropertyEnumValue@@A
        961  3C0 001E6500 ?EffectParticlesType_enum@@3VCEntityPropertyEnumType@@A
        962  3C1 001E64B8 ?EffectParticlesType_values@@3PAVCEntityPropertyEnumValue@@A
        963  3C2 001E00D8 ?EffectorEffectType_enum@@3VCEntityPropertyEnumType@@A
        964  3C3 001E0068 ?EffectorEffectType_values@@3PAVCEntityPropertyEnumValue@@A
        965  3C4 001E03C0 ?ElementalCharacter_enum@@3VCEntityPropertyEnumType@@A
        966  3C5 001E03A8 ?ElementalCharacter_values@@3PAVCEntityPropertyEnumValue@@A
        967  3C6 001188A0 ?ElementalRock@CProjectile@@QAEXJJ@Z
        968  3C7 001E03E0 ?ElementalState_enum@@3VCEntityPropertyEnumType@@A
        969  3C8 001E03C8 ?ElementalState_values@@3PAVCEntityPropertyEnumValue@@A
        970  3C9 001E03A0 ?ElementalType_enum@@3VCEntityPropertyEnumType@@A
        971  3CA 001E0378 ?ElementalType_values@@3PAVCEntityPropertyEnumValue@@A
        972  3CB 001E1FF8 ?EnemyDiveType_enum@@3VCEntityPropertyEnumType@@A
        973  3CC 001E1FE0 ?EnemyDiveType_values@@3PAVCEntityPropertyEnumValue@@A
        974  3CD 001E2168 ?EnemyFlyType_enum@@3VCEntityPropertyEnumType@@A
        975  3CE 001E2138 ?EnemyFlyType_values@@3PAVCEntityPropertyEnumValue@@A
        976  3CF 000905D0 ?EnemyPostInit@CEnemyBase@@UAEXXZ
        977  3D0 001E2860 ?EnemySpawnerType_enum@@3VCEntityPropertyEnumType@@A
        978  3D1 001E2820 ?EnemySpawnerType_values@@3PAVCEntityPropertyEnumValue@@A
        979  3D2 001E6388 ?EntityInfoBodyType_enum@@3VCEntityPropertyEnumType@@A
        980  3D3 001E6338 ?EntityInfoBodyType_values@@3PAVCEntityPropertyEnumValue@@A
        981  3D4 001E37C8 ?EnvironmentParticlesHolderType_enum@@3VCEntityPropertyEnumType@@A
        982  3D5 001E37A8 ?EnvironmentParticlesHolderType_values@@3PAVCEntityPropertyEnumValue@@A
        983  3D6 001E6330 ?EventEType_enum@@3VCEntityPropertyEnumType@@A
        984  3D7 001E62C8 ?EventEType_values@@3PAVCEntityPropertyEnumValue@@A
        985  3D8 00056220 ?Explosion@CCannonBall@@QAEXV?$Vector@M$02@@ABV2@11HHHH@Z
        986  3D9 001E5238 ?EyemanChar_enum@@3VCEntityPropertyEnumType@@A
        987  3DA 001E5228 ?EyemanChar_values@@3PAVCEntityPropertyEnumValue@@A
        988  3DB 001E5250 ?EyemanEnv_enum@@3VCEntityPropertyEnumType@@A
        989  3DC 001E5240 ?EyemanEnv_values@@3PAVCEntityPropertyEnumValue@@A
        990  3DD 000FB000 ?Fall@CPlayerAnimator@@QAEXXZ
        991  3DE 0008C040 ?FillEntityStatistics@CEnemyBase@@UAEHPAUEntityStats@@@Z
        992  3DF 0014B4B0 ?FindClosestPlayer@CWatcher@@QAEPAVCEntity@@XZ
        993  3E0 000E6990 ?FindMusicHolder@CPlayer@@QAEXXZ
        994  3E1 0008D840 ?FindNextPathMarker@CEnemyBase@@UAEXXZ
        995  3E2 00108B90 ?FindRemapedPos@CPlayerWeapons@@QAE?AW4WeaponType@@W42@@Z
        996  3E3 00108C80 ?FindWeaponInDirection@CPlayerWeapons@@QAE?AW4WeaponType@@J@Z
        997  3E4 00093250 ?Fire@CEnemyBase@@QAEHABVCEntityEvent@@@Z
        998  3E5 00097000 ?Fire@CEnemyDive@@QAEHABVCEntityEvent@@@Z
        999  3E6 000991B0 ?Fire@CEnemyFly@@QAEHABVCEntityEvent@@@Z
       1000  3E7 0009A0D0 ?Fire@CEnemyRunInto@@QAEHABVCEntityEvent@@@Z
       1001  3E8 0010A1D0 ?Fire@CPlayerWeapons@@QAEHABVCEntityEvent@@@Z
       1002  3E9 000FB090 ?FireAnimation@CPlayerAnimator@@QAEXJK@Z
       1003  3EA 000FB180 ?FireAnimationOff@CPlayerAnimator@@QAEXXZ
       1004  3EB 00105A90 ?FireBullets@CPlayerWeapons@@QAEXMMMMJPAMMM@Z
       1005  3EC 001062E0 ?FireCannonBall@CPlayerWeapons@@QAEXJ@Z
       1006  3ED 0010B560 ?FireColt@CPlayerWeapons@@QAEHABVCEntityEvent@@@Z
       1007  3EE 0010B9F0 ?FireDoubleColt@CPlayerWeapons@@QAEHABVCEntityEvent@@@Z
       1008  3EF 0010C990 ?FireDoubleShotgun@CPlayerWeapons@@QAEHABVCEntityEvent@@@Z
       1009  3F0 00105F00 ?FireFlame@CPlayerWeapons@@QAEXXZ
       1010  3F1 00105BD0 ?FireGrenade@CPlayerWeapons@@QAEXJ@Z
       1011  3F2 0010F8D0 ?FireGrenadeLauncher@CPlayerWeapons@@QAEHABVCEntityEvent@@@Z
       1012  3F3 00111210 ?FireLaser@CPlayerWeapons@@QAEHABVCEntityEvent@@@Z
       1013  3F4 001060A0 ?FireLaserRay@CPlayerWeapons@@QAEXXZ
       1014  3F5 00105B60 ?FireMachineBullet@CPlayerWeapons@@QAEXMMMMMM@Z
       1015  3F6 00105A30 ?FireOneBullet@CPlayerWeapons@@QAEXMMMM@Z
       1016  3F7 00092C00 ?FireOrHit@CEnemyBase@@QAEHABVCEntityEvent@@@Z
       1017  3F8 00105D10 ?FireRocket@CPlayerWeapons@@QAEXXZ
       1018  3F9 0010F470 ?FireRocketLauncher@CPlayerWeapons@@QAEHABVCEntityEvent@@@Z
       1019  3FA 0010C160 ?FireSingleShotgun@CPlayerWeapons@@QAEHABVCEntityEvent@@@Z
       1020  3FB 0010DB90 ?FireSniper@CPlayerWeapons@@QAEHABVCEntityEvent@@@Z
       1021  3FC 001058F0 ?FireSniperBullet@CPlayerWeapons@@QAEXMMMMM@Z
       1022  3FD 0010D600 ?FireTommyGun@CPlayerWeapons@@QAEHABVCEntityEvent@@@Z
       1023  3FE 001F9268 ?FireType_enum@@3VCEntityPropertyEnumType@@A
       1024  3FF 001F9240 ?FireType_values@@3PAVCEntityPropertyEnumValue@@A
       1025  400 000F11D0 ?FirstInit@CPlayer@@QAEHABVCEntityEvent@@@Z
       1026  401 0011A8C0 ?FishmanProjectile@CProjectile@@QAEXXZ
       1027  402 0000C580 ?FixupCausedToPlayer@@YAPAVCEntity@@PAV1@0H@Z
       1028  403 00108A40 ?FlamerBoring@CPlayerWeapons@@QAEMXZ
       1029  404 00110530 ?FlamerFire@CPlayerWeapons@@QAEHABVCEntityEvent@@@Z
       1030  405 001101F0 ?FlamerStart@CPlayerWeapons@@QAEHABVCEntityEvent@@@Z
       1031  406 001107A0 ?FlamerStop@CPlayerWeapons@@QAEHABVCEntityEvent@@@Z
       1032  407 00099480 ?FlyFire@CEnemyFly@@QAEHABVCEntityEvent@@@Z
       1033  408 00099420 ?FlyHit@CEnemyFly@@QAEHABVCEntityEvent@@@Z
       1034  409 001E5D68 ?FogAttenuationType_enum@@3VCEntityPropertyEnumType@@A
       1035  40A 001E5D50 ?FogAttenuationType_values@@3PAVCEntityPropertyEnumValue@@A
       1036  40B 001E5D88 ?FogGraduationType2_enum@@3VCEntityPropertyEnumType@@A
       1037  40C 001E5D70 ?FogGraduationType2_values@@3PAVCEntityPropertyEnumValue@@A
       1038  40D 0008AB70 ?ForcesCannonballToExplode@CEnemyBase@@UAEHXZ
       1039  40E 000E24E0 ?GenderSound@CPlayer@@QAEJJ@Z
       1040  40F 000E6980 ?GetActionMarker@CPlayer@@QAEPAVCPlayerActionMarker@@XZ
       1041  410 00108320 ?GetAltWeapon@CPlayerWeapons@@QAE?AW4WeaponType@@W42@@Z
       1042  411 001067B0 ?GetAmmo@CPlayerWeapons@@QAEJXZ
       1043  412 00101050 ?GetAnimator@CPlayerWeapons@@QAEPAVCPlayerAnimator@@XZ
       1044  413 0008D180 ?GetAttackMoveFrequency@CEnemyBase@@UAEMM@Z
       1045  414 000F9370 ?GetBody@CPlayerAnimator@@QAEPAVCModelObject@@XZ
       1046  415 000F9390 ?GetBodyRen@CPlayerAnimator@@QAEPAVCModelObject@@XZ
       1047  416 00101060 ?GetChainSawTeeth@CPlayerWeapons@@QAEPAVCModelObject@@XZ
       1048  417 0008BE00 ?GetComputerMessageName@CEnemyBase@@UBEABVCTFileName@@XZ
       1049  418 0008AB50 ?GetCrushHealth@CEnemyBase@@UAEMXZ
       1050  419 000EE870 ?GetDeathmatchStartMarker@CPlayer@@QAEPAVCEntity@@XZ
       1051  41A 0008BDC0 ?GetDescription@CEnemyBase@@UBEABVCTString@@XZ
       1052  41B 000101D0 ?GetDescription@CItem@@UBEABVCTString@@XZ
       1053  41C 000D9100 ?GetDescription@CNavigationMarker@@UBEABVCTString@@XZ
       1054  41D 000E43A0 ?GetDetailStatsCoop@CPlayer@@QAEXAAVCTString@@@Z
       1055  41E 000E36C0 ?GetDetailStatsDM@CPlayer@@QAEXAAVCTString@@@Z
       1056  41F 000E4F30 ?GetDetailStatsSP@CPlayer@@QAEXAAVCTString@@J@Z
       1057  420 000D9010 ?GetEntityInfo@CNavigationMarker@@UAEPAXXZ
       1058  421 000E9C10 ?GetEntityInfo@CPlayer@@UAEPAXXZ
       1059  422 00006280 ?GetEntityInfoPosition@@YAXPAVCEntity@@PAMAAV?$Vector@M$02@@@Z
       1060  423 00105E40 ?GetFlamerSourcePlacement@CPlayerWeapons@@QAEXAAVCPlacement3D@@0@Z
       1061  424 0008B010 ?GetFrustumAngle@CEnemyBase@@QAEMABV?$Vector@M$02@@@Z
       1062  425 0000CAB0 ?GetGameDamageMultiplier@@YAMXZ
       1063  426 000E5DE0 ?GetGameSpyPlayerInfo@CPlayer@@UAEXJAAVCTString@@@Z
       1064  427 0000EC50 ?GetGravity@CEmiter@@QAE?AV?$Vector@M$02@@PAVCEntity@@@Z
       1065  428 000C3A80 ?GetKeyName@@YAPBDW4KeyItemType@@@Z
       1066  429 000ED2E0 ?GetLerpedAbsoluteViewPlacement@CPlayer@@QAEXAAVCPlacement3D@@@Z
       1067  42A 000FCAB0 ?GetLerpedPlacement@CPlayerView@@UBE?AVCPlacement3D@@XZ
       1068  42B 000EB730 ?GetLerpedWeaponPosition@CPlayer@@QAEXV?$Vector@M$02@@AAVCPlacement3D@@@Z
       1069  42C 000E3330 ?GetLightSource@CPlayer@@UAEPAVCLightSource@@XZ
       1070  42D 001163F0 ?GetLightSource@CProjectile@@UAEPAVCLightSource@@XZ
       1071  42E 000D90D0 ?GetLink@CNavigationMarker@@QAEPAV1@J@Z
       1072  42F 00035900 ?GetLink@CPathNode@@QAEPAV1@J@Z
       1073  430 00090580 ?GetLockRotationSpeed@CEnemyBase@@UAEMXZ
       1074  431 00106840 ?GetMaxAmmo@CPlayerWeapons@@QAEJXZ
       1075  432 000E66F0 ?GetModelForRendering@CPlayer@@UAEPAVCModelObject@@XZ
       1076  433 00011A40 ?GetName@CEnemyBase@@UBEABVCTString@@XZ
       1077  434 000101C0 ?GetName@CItem@@UBEABVCTString@@XZ
       1078  435 00035360 ?GetName@CNavigationMarker@@UBEABVCTString@@XZ
       1079  436 000358A0 ?GetName@CPathNode@@QAEABVCTString@@XZ
       1080  437 0014B420 ?GetOwner@CWatcher@@QAEPAVCEnemyBase@@XZ
       1081  438 000D9020 ?GetPathNode@CNavigationMarker@@QAEPAVCPathNode@@XZ
       1082  439 0008B0D0 ?GetPlaneFrustumAngle@CEnemyBase@@QAEMABV?$Vector@M$02@@@Z
       1083  43A 000F9360 ?GetPlayer@CPlayerAnimator@@QAEPAVCPlayer@@XZ
       1084  43B 00101040 ?GetPlayer@CPlayerWeapons@@QAEPAVCPlayer@@XZ
       1085  43C 000E2B30 ?GetPlayerAnimator@CPlayer@@QAEPAVCPlayerAnimator@@XZ
       1086  43D 0008AAA0 ?GetPlayerKillDescription@CEnemyBase@@UAE?AVCTString@@ABV2@ABVEDeath@@@Z
       1087  43E 000E2B20 ?GetPlayerWeapons@CPlayer@@QAEPAVCPlayerWeapons@@XZ
       1088  43F 00006330 ?GetPositionCastRay@@YAXPAVCEntity@@0AAV?$Vector@M$02@@1@Z
       1089  440 000E3020 ?GetPredictName@CPlayer@@QBE?AVCTString@@XZ
       1090  441 00011A60 ?GetPredictionPair@CEnemyBase@@UAEPAVCEntity@@XZ
       1091  442 000101F0 ?GetPredictionPair@CItem@@UAEPAVCEntity@@XZ
       1092  443 000A4230 ?GetPredictionPair@CLarvaOffspring@@UAEPAVCEntity@@XZ
       1093  444 00002DB0 ?GetPredictionPair@CPlayer@@UAEPAVCEntity@@XZ
       1094  445 000DC010 ?GetPredictionPair@CPlayerAnimator@@UAEPAVCEntity@@XZ
       1095  446 000DC9C0 ?GetPredictionPair@CPlayerView@@UAEPAVCEntity@@XZ
       1096  447 00013FF0 ?GetPredictionPair@CPlayerWeapons@@UAEPAVCEntity@@XZ
       1097  448 0000F7F0 ?GetPredictionPair@CProjectile@@UAEPAVCEntity@@XZ
       1098  449 00011100 ?GetPredictionPair@CWatcher@@UAEPAVCEntity@@XZ
       1099  44A 000C2A90 ?GetPredictionRange@CItem@@UAEMXZ
       1100  44B 000E3390 ?GetPredictionRange@CPlayer@@UAEMXZ
       1101  44C 0008AA90 ?GetPredictionTime@CEnemyBase@@UAEMXZ
       1102  44D 000E3380 ?GetPredictionTime@CPlayer@@UAEMXZ
       1103  44E 0008AB80 ?GetPropA@CEnemyBase@@UAEAAMAAM@Z
       1104  44F 00096AF0 ?GetPropA@CEnemyDive@@UAEAAMAAM@Z
       1105  450 00097E10 ?GetPropA@CEnemyFly@@UAEAAMAAM@Z
       1106  451 0014B430 ?GetRandomPlayer@CWatcher@@QAEJXZ
       1107  452 000C59A0 ?GetRotationSpeed@CLarvaOffspring@@QAEMMMM@Z
       1108  453 0011DA30 ?GetRotationSpeed@CProjectile@@QAEMMMM@Z
       1109  454 00037110 ?GetSP@@YAPBVCSessionProperties@@XZ
       1110  455 00108280 ?GetSelectedWeapon@CPlayerWeapons@@QAEJW4WeaponType@@@Z
       1111  456 0000CB70 ?GetSeriousDamageMultiplier@@YAMPAVCEntity@@@Z
       1112  457 000E2B40 ?GetSettings@CPlayer@@QAEPAVCPlayerSettings@@XZ
       1113  458 000E3600 ?GetShortStats@CPlayer@@QAEXAAVCTString@@@Z
       1114  459 000E3550 ?GetStats@CPlayer@@QAEXAAVCTString@@W4CompStatType@@J@Z
       1115  45A 000E3400 ?GetStatsInGameTimeGame@CPlayer@@QAEMXZ
       1116  45B 000E33D0 ?GetStatsInGameTimeLevel@CPlayer@@QAEMXZ
       1117  45C 000E3480 ?GetStatsRealWorldStarted@CPlayer@@QAE?AVCTString@@XZ
       1118  45D 000E3430 ?GetStatsRealWorldTime@CPlayer@@QAEMXZ
       1119  45E 0000C260 ?GetStdEntityInfo@@YAPAUEntityInfo@@W4EntityInfoBodyType@@@Z
       1120  45F 001081F0 ?GetStrongerWeapon@CPlayerWeapons@@QAE?AW4WeaponType@@J@Z
       1121  460 000D9000 ?GetTarget@CNavigationMarker@@UBEPAVCEntity@@XZ
       1122  461 000EEC90 ?GetTeleportingOffset@CPlayer@@QAE?AV?$Vector@M$02@@XZ
       1123  462 0008AB90 ?GetThreatDistance@CEnemyBase@@UAEMXZ
       1124  463 000EE260 ?GetViewEntity@CPlayer@@QAEPAVCEntity@@XZ
       1125  464 0000CBC0 ?GetWSC@@YAPAVCWorldSettingsController@@PAVCEntity@@@Z
       1126  465 0008ACB0 ?GetWatcher@CEnemyBase@@QAEPAVCWatcher@@XZ
       1127  466 000E6E40 ?GetWorldGlaring@CPlayer@@QAEKXZ
       1128  467 001E6DF8 ?GravityType_enum@@3VCEntityPropertyEnumType@@A
       1129  468 001E6DD8 ?GravityType_values@@3PAVCEntityPropertyEnumValue@@A
       1130  469 00108A20 ?GrenadeLauncherBoring@CPlayerWeapons@@QAEMXZ
       1131  46A 00097190 ?GroundFire@CEnemyDive@@QAEHABVCEntityEvent@@@Z
       1132  46B 000993C0 ?GroundFire@CEnemyFly@@QAEHABVCEntityEvent@@@Z
       1133  46C 00097130 ?GroundHit@CEnemyDive@@QAEHABVCEntityEvent@@@Z
       1134  46D 00099360 ?GroundHit@CEnemyFly@@QAEHABVCEntityEvent@@@Z
       1135  46E 00098940 ?GroundToAir@CEnemyFly@@QAEHABVCEntityEvent@@@Z
       1136  46F 000982E0 ?GroundToAirAnim@CEnemyFly@@UAEMXZ
       1137  470 0011BB60 ?GruntCommanderLaser@CProjectile@@QAEXXZ
       1138  471 0011BA50 ?GruntSoldierLaser@CProjectile@@QAEXXZ
       1139  472 001E7118 ?GruntType_enum@@3VCEntityPropertyEnumType@@A
       1140  473 001E7108 ?GruntType_values@@3PAVCEntityPropertyEnumValue@@A
       1141  474 0011BC70 ?GuffyProjectile@CProjectile@@QAEXXZ
       1142  475 0011BE00 ?GuffyProjectileExplosion@CProjectile@@QAEXXZ
       1143  476 00090890 ?H0x01360004_MoveToDestination_01@CEnemyBase@@QAEHABVCEntityEvent@@@Z
       1144  477 00090930 ?H0x01360005_MoveToDestination_02@CEnemyBase@@QAEHABVCEntityEvent@@@Z
       1145  478 000907D0 ?H0x01360006_MoveToDestination_03@CEnemyBase@@QAEHABVCEntityEvent@@@Z
       1146  479 00090990 ?H0x01360007_MoveToDestination_04@CEnemyBase@@QAEHABVCEntityEvent@@@Z
       1147  47A 00090BE0 ?H0x01360009_MoveToRandomPatrolPosition_01@CEnemyBase@@QAEHABVCEntityEvent@@@Z
       1148  47B 00090C80 ?H0x0136000a_MoveToRandomPatrolPosition_02@CEnemyBase@@QAEHABVCEntityEvent@@@Z
       1149  47C 00090DD0 ?H0x0136000c_DoPatrolling_01@CEnemyBase@@QAEHABVCEntityEvent@@@Z
       1150  47D 00090E50 ?H0x0136000d_DoPatrolling_02@CEnemyBase@@QAEHABVCEntityEvent@@@Z
       1151  47E 00090EB0 ?H0x0136000e_DoPatrolling_03@CEnemyBase@@QAEHABVCEntityEvent@@@Z
       1152  47F 00090F50 ?H0x0136000f_DoPatrolling_04@CEnemyBase@@QAEHABVCEntityEvent@@@Z
       1153  480 00090D40 ?H0x01360010_DoPatrolling_05@CEnemyBase@@QAEHABVCEntityEvent@@@Z
       1154  481 00090FB0 ?H0x01360011_DoPatrolling_06@CEnemyBase@@QAEHABVCEntityEvent@@@Z
       1155  482 00091120 ?H0x01360013_BeIdle_01@CEnemyBase@@QAEHABVCEntityEvent@@@Z
       1156  483 000911A0 ?H0x01360014_BeIdle_02@CEnemyBase@@QAEHABVCEntityEvent@@@Z
       1157  484 00091070 ?H0x01360015_BeIdle_03@CEnemyBase@@QAEHABVCEntityEvent@@@Z
       1158  485 00091210 ?H0x01360016_BeIdle_04@CEnemyBase@@QAEHABVCEntityEvent@@@Z
       1159  486 000914F0 ?H0x01360019_MoveThroughMarkers_01@CEnemyBase@@QAEHABVCEntityEvent@@@Z
       1160  487 00091590 ?H0x0136001a_MoveThroughMarkers_02@CEnemyBase@@QAEHABVCEntityEvent@@@Z
       1161  488 000916B0 ?H0x0136001b_MoveThroughMarkers_03@CEnemyBase@@QAEHABVCEntityEvent@@@Z
       1162  489 00091760 ?H0x0136001c_MoveThroughMarkers_04@CEnemyBase@@QAEHABVCEntityEvent@@@Z
       1163  48A 000917C0 ?H0x0136001d_MoveThroughMarkers_05@CEnemyBase@@QAEHABVCEntityEvent@@@Z
       1164  48B 00091870 ?H0x0136001e_MoveThroughMarkers_06@CEnemyBase@@QAEHABVCEntityEvent@@@Z
       1165  48C 000918F0 ?H0x0136001f_MoveThroughMarkers_07@CEnemyBase@@QAEHABVCEntityEvent@@@Z
       1166  48D 00091950 ?H0x01360020_MoveThroughMarkers_08@CEnemyBase@@QAEHABVCEntityEvent@@@Z
       1167  48E 000919C0 ?H0x01360021_MoveThroughMarkers_09@CEnemyBase@@QAEHABVCEntityEvent@@@Z
       1168  48F 00091A40 ?H0x01360022_MoveThroughMarkers_10@CEnemyBase@@QAEHABVCEntityEvent@@@Z
       1169  490 00091330 ?H0x01360023_MoveThroughMarkers_11@CEnemyBase@@QAEHABVCEntityEvent@@@Z
       1170  491 00091AE0 ?H0x01360024_MoveThroughMarkers_12@CEnemyBase@@QAEHABVCEntityEvent@@@Z
       1171  492 00091C60 ?H0x01360026_NewEnemySpotted_01@CEnemyBase@@QAEHABVCEntityEvent@@@Z
       1172  493 00091D10 ?H0x01360027_NewEnemySpotted_02@CEnemyBase@@QAEHABVCEntityEvent@@@Z
       1173  494 00091D70 ?H0x01360028_NewEnemySpotted_03@CEnemyBase@@QAEHABVCEntityEvent@@@Z
       1174  495 00092010 ?H0x0136002c_AttackEnemy_01@CEnemyBase@@QAEHABVCEntityEvent@@@Z
       1175  496 000920B0 ?H0x0136002d_AttackEnemy_02@CEnemyBase@@QAEHABVCEntityEvent@@@Z
       1176  497 00092190 ?H0x0136002e_AttackEnemy_03@CEnemyBase@@QAEHABVCEntityEvent@@@Z
       1177  498 00092230 ?H0x0136002f_AttackEnemy_04@CEnemyBase@@QAEHABVCEntityEvent@@@Z
       1178  499 00092110 ?H0x01360030_AttackEnemy_05@CEnemyBase@@QAEHABVCEntityEvent@@@Z
       1179  49A 00092290 ?H0x01360031_AttackEnemy_06@CEnemyBase@@QAEHABVCEntityEvent@@@Z
       1180  49B 000922F0 ?H0x01360032_AttackEnemy_07@CEnemyBase@@QAEHABVCEntityEvent@@@Z
       1181  49C 00092390 ?H0x01360033_AttackEnemy_08@CEnemyBase@@QAEHABVCEntityEvent@@@Z
       1182  49D 000925C0 ?H0x01360035_PerformAttack_01@CEnemyBase@@QAEHABVCEntityEvent@@@Z
       1183  49E 00092B90 ?H0x01360036_PerformAttack_02@CEnemyBase@@QAEHABVCEntityEvent@@@Z
       1184  49F 00092490 ?H0x01360037_PerformAttack_03@CEnemyBase@@QAEHABVCEntityEvent@@@Z
       1185  4A0 00092BF0 ?H0x01360038_PerformAttack_04@CEnemyBase@@QAEHABVCEntityEvent@@@Z
       1186  4A1 00092D20 ?H0x0136003a_FireOrHit_01@CEnemyBase@@QAEHABVCEntityEvent@@@Z
       1187  4A2 00092DC0 ?H0x0136003b_FireOrHit_02@CEnemyBase@@QAEHABVCEntityEvent@@@Z
       1188  4A3 00092FB0 ?H0x0136003c_FireOrHit_03@CEnemyBase@@QAEHABVCEntityEvent@@@Z
       1189  4A4 00093050 ?H0x0136003d_FireOrHit_04@CEnemyBase@@QAEHABVCEntityEvent@@@Z
       1190  4A5 00093130 ?H0x0136003e_FireOrHit_05@CEnemyBase@@QAEHABVCEntityEvent@@@Z
       1191  4A6 000930B0 ?H0x0136003f_FireOrHit_06@CEnemyBase@@QAEHABVCEntityEvent@@@Z
       1192  4A7 00093190 ?H0x01360040_FireOrHit_07@CEnemyBase@@QAEHABVCEntityEvent@@@Z
       1193  4A8 00092E20 ?H0x01360041_FireOrHit_08@CEnemyBase@@QAEHABVCEntityEvent@@@Z
       1194  4A9 000933F0 ?H0x01360045_LockOnEnemy_01@CEnemyBase@@QAEHABVCEntityEvent@@@Z
       1195  4AA 00093500 ?H0x01360046_LockOnEnemy_02@CEnemyBase@@QAEHABVCEntityEvent@@@Z
       1196  4AB 00093330 ?H0x01360047_LockOnEnemy_03@CEnemyBase@@QAEHABVCEntityEvent@@@Z
       1197  4AC 00093560 ?H0x01360048_LockOnEnemy_04@CEnemyBase@@QAEHABVCEntityEvent@@@Z
       1198  4AD 00093640 ?H0x0136004a_ChargeHitEnemy_01@CEnemyBase@@QAEHABVCEntityEvent@@@Z
       1199  4AE 00093830 ?H0x0136004b_ChargeHitEnemy_02@CEnemyBase@@QAEHABVCEntityEvent@@@Z
       1200  4AF 00093900 ?H0x0136004c_ChargeHitEnemy_03@CEnemyBase@@QAEHABVCEntityEvent@@@Z
       1201  4B0 000939A0 ?H0x0136004d_ChargeHitEnemy_04@CEnemyBase@@QAEHABVCEntityEvent@@@Z
       1202  4B1 00093A00 ?H0x0136004e_ChargeHitEnemy_05@CEnemyBase@@QAEHABVCEntityEvent@@@Z
       1203  4B2 00093AF0 ?H0x01360050_BeWounded_01@CEnemyBase@@QAEHABVCEntityEvent@@@Z
       1204  4B3 00093B70 ?H0x01360051_BeWounded_02@CEnemyBase@@QAEHABVCEntityEvent@@@Z
       1205  4B4 00093E30 ?H0x01360053_Die_01@CEnemyBase@@QAEHABVCEntityEvent@@@Z
       1206  4B5 00093F50 ?H0x01360054_Die_02@CEnemyBase@@QAEHABVCEntityEvent@@@Z
       1207  4B6 00094110 ?H0x01360056_Death_01@CEnemyBase@@QAEHABVCEntityEvent@@@Z
       1208  4B7 00094190 ?H0x01360057_Death_02@CEnemyBase@@QAEHABVCEntityEvent@@@Z
       1209  4B8 00094310 ?H0x01360058_Death_03@CEnemyBase@@QAEHABVCEntityEvent@@@Z
       1210  4B9 00094390 ?H0x01360059_Death_04@CEnemyBase@@QAEHABVCEntityEvent@@@Z
       1211  4BA 00094250 ?H0x0136005a_Death_05@CEnemyBase@@QAEHABVCEntityEvent@@@Z
       1212  4BB 00094530 ?H0x0136005b_Death_06@CEnemyBase@@QAEHABVCEntityEvent@@@Z
       1213  4BC 00094590 ?H0x0136005c_Death_07@CEnemyBase@@QAEHABVCEntityEvent@@@Z
       1214  4BD 000945F0 ?H0x0136005d_Death_08@CEnemyBase@@QAEHABVCEntityEvent@@@Z
       1215  4BE 000941F0 ?H0x0136005e_Death_09@CEnemyBase@@QAEHABVCEntityEvent@@@Z
       1216  4BF 000946B0 ?H0x01360060_DeathSequence_01@CEnemyBase@@QAEHABVCEntityEvent@@@Z
       1217  4C0 00094750 ?H0x01360061_DeathSequence_02@CEnemyBase@@QAEHABVCEntityEvent@@@Z
       1218  4C1 00094830 ?H0x01360062_DeathSequence_03@CEnemyBase@@QAEHABVCEntityEvent@@@Z
       1219  4C2 000948B0 ?H0x01360063_DeathSequence_04@CEnemyBase@@QAEHABVCEntityEvent@@@Z
       1220  4C3 00094960 ?H0x01360064_DeathSequence_05@CEnemyBase@@QAEHABVCEntityEvent@@@Z
       1221  4C4 000949E0 ?H0x01360065_DeathSequence_06@CEnemyBase@@QAEHABVCEntityEvent@@@Z
       1222  4C5 00094A50 ?H0x01360066_DeathSequence_07@CEnemyBase@@QAEHABVCEntityEvent@@@Z
       1223  4C6 00094AD0 ?H0x01360067_DeathSequence_08@CEnemyBase@@QAEHABVCEntityEvent@@@Z
       1224  4C7 00094BA0 ?H0x01360069_Active_01@CEnemyBase@@QAEHABVCEntityEvent@@@Z
       1225  4C8 00094FB0 ?H0x0136006a_Active_02@CEnemyBase@@QAEHABVCEntityEvent@@@Z
       1226  4C9 00095080 ?H0x0136006c_Inactive_01@CEnemyBase@@QAEHABVCEntityEvent@@@Z
       1227  4CA 000951B0 ?H0x0136006d_Inactive_02@CEnemyBase@@QAEHABVCEntityEvent@@@Z
       1228  4CB 00095310 ?H0x01360070_MainLoop_01@CEnemyBase@@QAEHABVCEntityEvent@@@Z
       1229  4CC 00095390 ?H0x01360071_MainLoop_02@CEnemyBase@@QAEHABVCEntityEvent@@@Z
       1230  4CD 00095570 ?H0x01360072_MainLoop_03@CEnemyBase@@QAEHABVCEntityEvent@@@Z
       1231  4CE 00095610 ?H0x01360073_MainLoop_04@CEnemyBase@@QAEHABVCEntityEvent@@@Z
       1232  4CF 000956E0 ?H0x01360075_StandardBehavior_01@CEnemyBase@@QAEHABVCEntityEvent@@@Z
       1233  4D0 00095840 ?H0x01360076_StandardBehavior_02@CEnemyBase@@QAEHABVCEntityEvent@@@Z
       1234  4D1 00098470 ?H0x01370002_BeWounded_01@CEnemyFly@@QAEHABVCEntityEvent@@@Z
       1235  4D2 00098510 ?H0x01370003_BeWounded_02@CEnemyFly@@QAEHABVCEntityEvent@@@Z
       1236  4D3 00098570 ?H0x01370004_BeWounded_03@CEnemyFly@@QAEHABVCEntityEvent@@@Z
       1237  4D4 000985D0 ?H0x01370005_BeWounded_04@CEnemyFly@@QAEHABVCEntityEvent@@@Z
       1238  4D5 00098400 ?H0x01370006_BeWounded_05@CEnemyFly@@QAEHABVCEntityEvent@@@Z
       1239  4D6 000986F0 ?H0x01370008_AirToGround_01@CEnemyFly@@QAEHABVCEntityEvent@@@Z
       1240  4D7 000987B0 ?H0x01370009_AirToGround_02@CEnemyFly@@QAEHABVCEntityEvent@@@Z
       1241  4D8 00098850 ?H0x0137000a_AirToGround_03@CEnemyFly@@QAEHABVCEntityEvent@@@Z
       1242  4D9 000988E0 ?H0x0137000b_AirToGround_04@CEnemyFly@@QAEHABVCEntityEvent@@@Z
       1243  4DA 00098A20 ?H0x0137000d_GroundToAir_01@CEnemyFly@@QAEHABVCEntityEvent@@@Z
       1244  4DB 00098AB0 ?H0x0137000e_GroundToAir_02@CEnemyFly@@QAEHABVCEntityEvent@@@Z
       1245  4DC 00098B70 ?H0x0137000f_GroundToAir_03@CEnemyFly@@QAEHABVCEntityEvent@@@Z
       1246  4DD 00098C00 ?H0x01370010_GroundToAir_04@CEnemyFly@@QAEHABVCEntityEvent@@@Z
       1247  4DE 00098D30 ?H0x01370012_AttackEnemy_01@CEnemyFly@@QAEHABVCEntityEvent@@@Z
       1248  4DF 00098DD0 ?H0x01370013_AttackEnemy_02@CEnemyFly@@QAEHABVCEntityEvent@@@Z
       1249  4E0 00098E30 ?H0x01370014_AttackEnemy_03@CEnemyFly@@QAEHABVCEntityEvent@@@Z
       1250  4E1 00098F10 ?H0x01370015_AttackEnemy_04@CEnemyFly@@QAEHABVCEntityEvent@@@Z
       1251  4E2 00098FB0 ?H0x01370016_AttackEnemy_05@CEnemyFly@@QAEHABVCEntityEvent@@@Z
       1252  4E3 00099010 ?H0x01370017_AttackEnemy_06@CEnemyFly@@QAEHABVCEntityEvent@@@Z
       1253  4E4 00099070 ?H0x01370018_AttackEnemy_07@CEnemyFly@@QAEHABVCEntityEvent@@@Z
       1254  4E5 000990D0 ?H0x01370019_AttackEnemy_08@CEnemyFly@@QAEHABVCEntityEvent@@@Z
       1255  4E6 00098E90 ?H0x0137001a_AttackEnemy_09@CEnemyFly@@QAEHABVCEntityEvent@@@Z
       1256  4E7 0009A2A0 ?H0x01380002_RotateToEnemy_01@CEnemyRunInto@@QAEHABVCEntityEvent@@@Z
       1257  4E8 0009A3D0 ?H0x01380003_RotateToEnemy_02@CEnemyRunInto@@QAEHABVCEntityEvent@@@Z
       1258  4E9 0009A200 ?H0x01380004_RotateToEnemy_03@CEnemyRunInto@@QAEHABVCEntityEvent@@@Z
       1259  4EA 0009A430 ?H0x01380005_RotateToEnemy_04@CEnemyRunInto@@QAEHABVCEntityEvent@@@Z
       1260  4EB 0009A5D0 ?H0x01380007_RunIntoEnemy_01@CEnemyRunInto@@QAEHABVCEntityEvent@@@Z
       1261  4EC 0009A940 ?H0x01380008_RunIntoEnemy_02@CEnemyRunInto@@QAEHABVCEntityEvent@@@Z
       1262  4ED 0009A530 ?H0x01380009_RunIntoEnemy_03@CEnemyRunInto@@QAEHABVCEntityEvent@@@Z
       1263  4EE 0009A9A0 ?H0x0138000a_RunIntoEnemy_04@CEnemyRunInto@@QAEHABVCEntityEvent@@@Z
       1264  4EF 0009AAB0 ?H0x0138000c_RunAwayFromEnemy_01@CEnemyRunInto@@QAEHABVCEntityEvent@@@Z
       1265  4F0 0009ACF0 ?H0x0138000d_RunAwayFromEnemy_02@CEnemyRunInto@@QAEHABVCEntityEvent@@@Z
       1266  4F1 0009AD70 ?H0x0138000e_RunAwayFromEnemy_03@CEnemyRunInto@@QAEHABVCEntityEvent@@@Z
       1267  4F2 0009AE10 ?H0x0138000f_RunAwayFromEnemy_04@CEnemyRunInto@@QAEHABVCEntityEvent@@@Z
       1268  4F3 001359F0 ?H0x015c0001_Main_01@CSpinner@@QAEHABVCEntityEvent@@@Z
       1269  4F4 00135A70 ?H0x015c0002_Main_02@CSpinner@@QAEHABVCEntityEvent@@@Z
       1270  4F5 00135810 ?H0x015c0003_Main_03@CSpinner@@QAEHABVCEntityEvent@@@Z
       1271  4F6 00135AD0 ?H0x015c0004_Main_04@CSpinner@@QAEHABVCEntityEvent@@@Z
       1272  4F7 00135BC0 ?H0x015c0005_Main_05@CSpinner@@QAEHABVCEntityEvent@@@Z
       1273  4F8 00135C40 ?H0x015c0006_Main_06@CSpinner@@QAEHABVCEntityEvent@@@Z
       1274  4F9 00135CA0 ?H0x015c0007_Main_07@CSpinner@@QAEHABVCEntityEvent@@@Z
       1275  4FA 000C5DB0 ?H0x01610002_LarvaOffspringGuidedSlide_01@CLarvaOffspring@@QAEHABVCEntityEvent@@@Z
       1276  4FB 000C5F40 ?H0x01610003_LarvaOffspringGuidedSlide_02@CLarvaOffspring@@QAEHABVCEntityEvent@@@Z
       1277  4FC 000C5AA0 ?H0x01610004_LarvaOffspringGuidedSlide_03@CLarvaOffspring@@QAEHABVCEntityEvent@@@Z
       1278  4FD 000C5FA0 ?H0x01610005_LarvaOffspringGuidedSlide_04@CLarvaOffspring@@QAEHABVCEntityEvent@@@Z
       1279  4FE 000C60D0 ?H0x01610006_Main_01@CLarvaOffspring@@QAEHABVCEntityEvent@@@Z
       1280  4FF 000C6170 ?H0x01610007_Main_02@CLarvaOffspring@@QAEHABVCEntityEvent@@@Z
       1281  500 000F0530 ?H0x01910008_WorldChangeDead_01@CPlayer@@QAEHABVCEntityEvent@@@Z
       1282  501 000F05D0 ?H0x01910009_WorldChangeDead_02@CPlayer@@QAEHABVCEntityEvent@@@Z
       1283  502 000F0D40 ?H0x0191000b_Death_01@CPlayer@@QAEHABVCEntityEvent@@@Z
       1284  503 000F0F40 ?H0x0191000c_Death_02@CPlayer@@QAEHABVCEntityEvent@@@Z
       1285  504 000F1190 ?H0x0191000e_TheEnd_01@CPlayer@@QAEHABVCEntityEvent@@@Z
       1286  505 000F11C0 ?H0x0191000f_TheEnd_02@CPlayer@@QAEHABVCEntityEvent@@@Z
       1287  506 000F1610 ?H0x01910013_AutoGoToMarker_01@CPlayer@@QAEHABVCEntityEvent@@@Z
       1288  507 000F1690 ?H0x01910014_AutoGoToMarker_02@CPlayer@@QAEHABVCEntityEvent@@@Z
       1289  508 000F1530 ?H0x01910015_AutoGoToMarker_03@CPlayer@@QAEHABVCEntityEvent@@@Z
       1290  509 000F16F0 ?H0x01910016_AutoGoToMarker_04@CPlayer@@QAEHABVCEntityEvent@@@Z
       1291  50A 000F18F0 ?H0x01910018_AutoGoToMarkerAndStop_01@CPlayer@@QAEHABVCEntityEvent@@@Z
       1292  50B 000F1970 ?H0x01910019_AutoGoToMarkerAndStop_02@CPlayer@@QAEHABVCEntityEvent@@@Z
       1293  50C 000F1800 ?H0x0191001a_AutoGoToMarkerAndStop_03@CPlayer@@QAEHABVCEntityEvent@@@Z
       1294  50D 000F19D0 ?H0x0191001b_AutoGoToMarkerAndStop_04@CPlayer@@QAEHABVCEntityEvent@@@Z
       1295  50E 000F1AD0 ?H0x0191001d_AutoUseItem_01@CPlayer@@QAEHABVCEntityEvent@@@Z
       1296  50F 000F1B50 ?H0x0191001e_AutoUseItem_02@CPlayer@@QAEHABVCEntityEvent@@@Z
       1297  510 000F1C00 ?H0x0191001f_AutoUseItem_03@CPlayer@@QAEHABVCEntityEvent@@@Z
       1298  511 000F1C80 ?H0x01910020_AutoUseItem_04@CPlayer@@QAEHABVCEntityEvent@@@Z
       1299  512 000F1DB0 ?H0x01910021_AutoUseItem_05@CPlayer@@QAEHABVCEntityEvent@@@Z
       1300  513 000F1E30 ?H0x01910022_AutoUseItem_06@CPlayer@@QAEHABVCEntityEvent@@@Z
       1301  514 000F1F10 ?H0x01910024_AutoPickItem_01@CPlayer@@QAEHABVCEntityEvent@@@Z
       1302  515 000F1F90 ?H0x01910025_AutoPickItem_02@CPlayer@@QAEHABVCEntityEvent@@@Z
       1303  516 000F2100 ?H0x01910026_AutoPickItem_03@CPlayer@@QAEHABVCEntityEvent@@@Z
       1304  517 000F2180 ?H0x01910027_AutoPickItem_04@CPlayer@@QAEHABVCEntityEvent@@@Z
       1305  518 000F2280 ?H0x01910029_AutoFallDown_01@CPlayer@@QAEHABVCEntityEvent@@@Z
       1306  519 000F2300 ?H0x0191002a_AutoFallDown_02@CPlayer@@QAEHABVCEntityEvent@@@Z
       1307  51A 000F2400 ?H0x0191002c_AutoFallToAbys_01@CPlayer@@QAEHABVCEntityEvent@@@Z
       1308  51B 000F2480 ?H0x0191002d_AutoFallToAbys_02@CPlayer@@QAEHABVCEntityEvent@@@Z
       1309  51C 000F25B0 ?H0x0191002f_AutoLookAround_01@CPlayer@@QAEHABVCEntityEvent@@@Z
       1310  51D 000F2630 ?H0x01910030_AutoLookAround_02@CPlayer@@QAEHABVCEntityEvent@@@Z
       1311  51E 000F2700 ?H0x01910031_AutoLookAround_03@CPlayer@@QAEHABVCEntityEvent@@@Z
       1312  51F 000F2780 ?H0x01910032_AutoLookAround_04@CPlayer@@QAEHABVCEntityEvent@@@Z
       1313  520 000F2940 ?H0x01910035_AutoAppear_01@CPlayer@@QAEHABVCEntityEvent@@@Z
       1314  521 000F29C0 ?H0x01910036_AutoAppear_02@CPlayer@@QAEHABVCEntityEvent@@@Z
       1315  522 000F2A40 ?H0x01910037_AutoAppear_03@CPlayer@@QAEHABVCEntityEvent@@@Z
       1316  523 000F2AC0 ?H0x01910038_AutoAppear_04@CPlayer@@QAEHABVCEntityEvent@@@Z
       1317  524 000F2BB0 ?H0x01910039_AutoAppear_05@CPlayer@@QAEHABVCEntityEvent@@@Z
       1318  525 000F2C30 ?H0x0191003a_AutoAppear_06@CPlayer@@QAEHABVCEntityEvent@@@Z
       1319  526 000F2CD0 ?H0x0191003b_AutoAppear_07@CPlayer@@QAEHABVCEntityEvent@@@Z
       1320  527 000F2D50 ?H0x0191003c_AutoAppear_08@CPlayer@@QAEHABVCEntityEvent@@@Z
       1321  528 000F2EB0 ?H0x0191003e_TravellingInBeam_01@CPlayer@@QAEHABVCEntityEvent@@@Z
       1322  529 000F2F30 ?H0x0191003f_TravellingInBeam_02@CPlayer@@QAEHABVCEntityEvent@@@Z
       1323  52A 000F30D0 ?H0x01910041_LogoFireMinigun_01@CPlayer@@QAEHABVCEntityEvent@@@Z
       1324  52B 000F3150 ?H0x01910042_LogoFireMinigun_02@CPlayer@@QAEHABVCEntityEvent@@@Z
       1325  52C 000F3200 ?H0x01910043_LogoFireMinigun_03@CPlayer@@QAEHABVCEntityEvent@@@Z
       1326  52D 000F3280 ?H0x01910044_LogoFireMinigun_04@CPlayer@@QAEHABVCEntityEvent@@@Z
       1327  52E 000F3370 ?H0x01910045_LogoFireMinigun_05@CPlayer@@QAEHABVCEntityEvent@@@Z
       1328  52F 000F33F0 ?H0x01910046_LogoFireMinigun_06@CPlayer@@QAEHABVCEntityEvent@@@Z
       1329  530 000F3470 ?H0x01910047_LogoFireMinigun_07@CPlayer@@QAEHABVCEntityEvent@@@Z
       1330  531 000F34F0 ?H0x01910048_LogoFireMinigun_08@CPlayer@@QAEHABVCEntityEvent@@@Z
       1331  532 000F35E0 ?H0x0191004a_AutoStoreWeapon_01@CPlayer@@QAEHABVCEntityEvent@@@Z
       1332  533 000F3660 ?H0x0191004b_AutoStoreWeapon_02@CPlayer@@QAEHABVCEntityEvent@@@Z
       1333  534 000F3760 ?H0x0191004c_AutoStoreWeapon_03@CPlayer@@QAEHABVCEntityEvent@@@Z
       1334  535 000F37E0 ?H0x0191004d_AutoStoreWeapon_04@CPlayer@@QAEHABVCEntityEvent@@@Z
       1335  536 000F39D0 ?H0x0191004f_DoAutoActions_01@CPlayer@@QAEHABVCEntityEvent@@@Z
       1336  537 000F3A50 ?H0x01910050_DoAutoActions_02@CPlayer@@QAEHABVCEntityEvent@@@Z
       1337  538 000F3B70 ?H0x01910051_DoAutoActions_03@CPlayer@@QAEHABVCEntityEvent@@@Z
       1338  539 000F3BF0 ?H0x01910052_DoAutoActions_04@CPlayer@@QAEHABVCEntityEvent@@@Z
       1339  53A 000F3CE0 ?H0x01910053_DoAutoActions_05@CPlayer@@QAEHABVCEntityEvent@@@Z
       1340  53B 000F3D80 ?H0x01910054_DoAutoActions_06@CPlayer@@QAEHABVCEntityEvent@@@Z
       1341  53C 000F3E70 ?H0x01910055_DoAutoActions_07@CPlayer@@QAEHABVCEntityEvent@@@Z
       1342  53D 000F3F10 ?H0x01910056_DoAutoActions_08@CPlayer@@QAEHABVCEntityEvent@@@Z
       1343  53E 000F40B0 ?H0x01910057_DoAutoActions_09@CPlayer@@QAEHABVCEntityEvent@@@Z
       1344  53F 000F4150 ?H0x01910058_DoAutoActions_10@CPlayer@@QAEHABVCEntityEvent@@@Z
       1345  540 000F4240 ?H0x01910059_DoAutoActions_11@CPlayer@@QAEHABVCEntityEvent@@@Z
       1346  541 000F42E0 ?H0x0191005a_DoAutoActions_12@CPlayer@@QAEHABVCEntityEvent@@@Z
       1347  542 000F43D0 ?H0x0191005b_DoAutoActions_13@CPlayer@@QAEHABVCEntityEvent@@@Z
       1348  543 000F4470 ?H0x0191005c_DoAutoActions_14@CPlayer@@QAEHABVCEntityEvent@@@Z
       1349  544 000F4560 ?H0x0191005d_DoAutoActions_15@CPlayer@@QAEHABVCEntityEvent@@@Z
       1350  545 000F4580 ?H0x0191005e_DoAutoActions_16@CPlayer@@QAEHABVCEntityEvent@@@Z
       1351  546 000F4670 ?H0x0191005f_DoAutoActions_17@CPlayer@@QAEHABVCEntityEvent@@@Z
       1352  547 000F4710 ?H0x01910060_DoAutoActions_18@CPlayer@@QAEHABVCEntityEvent@@@Z
       1353  548 000F48B0 ?H0x01910061_DoAutoActions_19@CPlayer@@QAEHABVCEntityEvent@@@Z
       1354  549 000F4950 ?H0x01910062_DoAutoActions_20@CPlayer@@QAEHABVCEntityEvent@@@Z
       1355  54A 000F4A40 ?H0x01910063_DoAutoActions_21@CPlayer@@QAEHABVCEntityEvent@@@Z
       1356  54B 000F4AE0 ?H0x01910064_DoAutoActions_22@CPlayer@@QAEHABVCEntityEvent@@@Z
       1357  54C 000F4BD0 ?H0x01910065_DoAutoActions_23@CPlayer@@QAEHABVCEntityEvent@@@Z
       1358  54D 000F4C70 ?H0x01910066_DoAutoActions_24@CPlayer@@QAEHABVCEntityEvent@@@Z
       1359  54E 000F4D60 ?H0x01910067_DoAutoActions_25@CPlayer@@QAEHABVCEntityEvent@@@Z
       1360  54F 000F4E00 ?H0x01910068_DoAutoActions_26@CPlayer@@QAEHABVCEntityEvent@@@Z
       1361  550 000F5320 ?H0x01910069_DoAutoActions_27@CPlayer@@QAEHABVCEntityEvent@@@Z
       1362  551 000F53C0 ?H0x0191006a_DoAutoActions_28@CPlayer@@QAEHABVCEntityEvent@@@Z
       1363  552 000F54C0 ?H0x0191006b_DoAutoActions_29@CPlayer@@QAEHABVCEntityEvent@@@Z
       1364  553 000F5560 ?H0x0191006c_DoAutoActions_30@CPlayer@@QAEHABVCEntityEvent@@@Z
       1365  554 000F5830 ?H0x0191006d_DoAutoActions_31@CPlayer@@QAEHABVCEntityEvent@@@Z
       1366  555 000F5900 ?H0x0191006e_DoAutoActions_32@CPlayer@@QAEHABVCEntityEvent@@@Z
       1367  556 000F57A0 ?H0x0191006f_DoAutoActions_33@CPlayer@@QAEHABVCEntityEvent@@@Z
       1368  557 000F5960 ?H0x01910070_DoAutoActions_34@CPlayer@@QAEHABVCEntityEvent@@@Z
       1369  558 000F59D0 ?H0x01910071_DoAutoActions_35@CPlayer@@QAEHABVCEntityEvent@@@Z
       1370  559 000F5B20 ?H0x01910072_DoAutoActions_36@CPlayer@@QAEHABVCEntityEvent@@@Z
       1371  55A 000F5A30 ?H0x01910073_DoAutoActions_37@CPlayer@@QAEHABVCEntityEvent@@@Z
       1372  55B 000F5B80 ?H0x01910074_DoAutoActions_38@CPlayer@@QAEHABVCEntityEvent@@@Z
       1373  55C 000F56B0 ?H0x01910075_DoAutoActions_39@CPlayer@@QAEHABVCEntityEvent@@@Z
       1374  55D 000F5BE0 ?H0x01910076_DoAutoActions_40@CPlayer@@QAEHABVCEntityEvent@@@Z
       1375  55E 000F55C0 ?H0x01910077_DoAutoActions_41@CPlayer@@QAEHABVCEntityEvent@@@Z
       1376  55F 000F5C40 ?H0x01910078_DoAutoActions_42@CPlayer@@QAEHABVCEntityEvent@@@Z
       1377  560 000F5420 ?H0x01910079_DoAutoActions_43@CPlayer@@QAEHABVCEntityEvent@@@Z
       1378  561 000F5CA0 ?H0x0191007a_DoAutoActions_44@CPlayer@@QAEHABVCEntityEvent@@@Z
       1379  562 000F5280 ?H0x0191007b_DoAutoActions_45@CPlayer@@QAEHABVCEntityEvent@@@Z
       1380  563 000F5D00 ?H0x0191007c_DoAutoActions_46@CPlayer@@QAEHABVCEntityEvent@@@Z
       1381  564 000F51C0 ?H0x0191007d_DoAutoActions_47@CPlayer@@QAEHABVCEntityEvent@@@Z
       1382  565 000F5D60 ?H0x0191007e_DoAutoActions_48@CPlayer@@QAEHABVCEntityEvent@@@Z
       1383  566 000F5100 ?H0x0191007f_DoAutoActions_49@CPlayer@@QAEHABVCEntityEvent@@@Z
       1384  567 000F5DC0 ?H0x01910080_DoAutoActions_50@CPlayer@@QAEHABVCEntityEvent@@@Z
       1385  568 000F5040 ?H0x01910081_DoAutoActions_51@CPlayer@@QAEHABVCEntityEvent@@@Z
       1386  569 000F5E20 ?H0x01910082_DoAutoActions_52@CPlayer@@QAEHABVCEntityEvent@@@Z
       1387  56A 000F4F80 ?H0x01910083_DoAutoActions_53@CPlayer@@QAEHABVCEntityEvent@@@Z
       1388  56B 000F5E80 ?H0x01910084_DoAutoActions_54@CPlayer@@QAEHABVCEntityEvent@@@Z
       1389  56C 000F4E60 ?H0x01910085_DoAutoActions_55@CPlayer@@QAEHABVCEntityEvent@@@Z
       1390  56D 000F5EE0 ?H0x01910086_DoAutoActions_56@CPlayer@@QAEHABVCEntityEvent@@@Z
       1391  56E 000F4CD0 ?H0x01910087_DoAutoActions_57@CPlayer@@QAEHABVCEntityEvent@@@Z
       1392  56F 000F5F40 ?H0x01910088_DoAutoActions_58@CPlayer@@QAEHABVCEntityEvent@@@Z
       1393  570 000F4B40 ?H0x01910089_DoAutoActions_59@CPlayer@@QAEHABVCEntityEvent@@@Z
       1394  571 000F5FA0 ?H0x0191008a_DoAutoActions_60@CPlayer@@QAEHABVCEntityEvent@@@Z
       1395  572 000F49B0 ?H0x0191008b_DoAutoActions_61@CPlayer@@QAEHABVCEntityEvent@@@Z
       1396  573 000F6000 ?H0x0191008c_DoAutoActions_62@CPlayer@@QAEHABVCEntityEvent@@@Z
       1397  574 000F4820 ?H0x0191008d_DoAutoActions_63@CPlayer@@QAEHABVCEntityEvent@@@Z
       1398  575 000F6060 ?H0x0191008e_DoAutoActions_64@CPlayer@@QAEHABVCEntityEvent@@@Z
       1399  576 000F4770 ?H0x0191008f_DoAutoActions_65@CPlayer@@QAEHABVCEntityEvent@@@Z
       1400  577 000F60C0 ?H0x01910090_DoAutoActions_66@CPlayer@@QAEHABVCEntityEvent@@@Z
       1401  578 000F45E0 ?H0x01910091_DoAutoActions_67@CPlayer@@QAEHABVCEntityEvent@@@Z
       1402  579 000F6120 ?H0x01910092_DoAutoActions_68@CPlayer@@QAEHABVCEntityEvent@@@Z
       1403  57A 000F44D0 ?H0x01910093_DoAutoActions_69@CPlayer@@QAEHABVCEntityEvent@@@Z
       1404  57B 000F6180 ?H0x01910094_DoAutoActions_70@CPlayer@@QAEHABVCEntityEvent@@@Z
       1405  57C 000F4340 ?H0x01910095_DoAutoActions_71@CPlayer@@QAEHABVCEntityEvent@@@Z
       1406  57D 000F61E0 ?H0x01910096_DoAutoActions_72@CPlayer@@QAEHABVCEntityEvent@@@Z
       1407  57E 000F41B0 ?H0x01910097_DoAutoActions_73@CPlayer@@QAEHABVCEntityEvent@@@Z
       1408  57F 000F6240 ?H0x01910098_DoAutoActions_74@CPlayer@@QAEHABVCEntityEvent@@@Z
       1409  580 000F4020 ?H0x01910099_DoAutoActions_75@CPlayer@@QAEHABVCEntityEvent@@@Z
       1410  581 000F62A0 ?H0x0191009a_DoAutoActions_76@CPlayer@@QAEHABVCEntityEvent@@@Z
       1411  582 000F3F70 ?H0x0191009b_DoAutoActions_77@CPlayer@@QAEHABVCEntityEvent@@@Z
       1412  583 000F6300 ?H0x0191009c_DoAutoActions_78@CPlayer@@QAEHABVCEntityEvent@@@Z
       1413  584 000F3DE0 ?H0x0191009d_DoAutoActions_79@CPlayer@@QAEHABVCEntityEvent@@@Z
       1414  585 000F6360 ?H0x0191009e_DoAutoActions_80@CPlayer@@QAEHABVCEntityEvent@@@Z
       1415  586 000F3C50 ?H0x0191009f_DoAutoActions_81@CPlayer@@QAEHABVCEntityEvent@@@Z
       1416  587 000F63C0 ?H0x019100a0_DoAutoActions_82@CPlayer@@QAEHABVCEntityEvent@@@Z
       1417  588 000F3AB0 ?H0x019100a1_DoAutoActions_83@CPlayer@@QAEHABVCEntityEvent@@@Z
       1418  589 000F38E0 ?H0x019100a2_DoAutoActions_84@CPlayer@@QAEHABVCEntityEvent@@@Z
       1419  58A 000F64A0 ?H0x019100a3_DoAutoActions_85@CPlayer@@QAEHABVCEntityEvent@@@Z
       1420  58B 000F6670 ?H0x019100a4_Main_01@CPlayer@@QAEHABVCEntityEvent@@@Z
       1421  58C 000F6730 ?H0x019100a5_Main_02@CPlayer@@QAEHABVCEntityEvent@@@Z
       1422  58D 000F6A90 ?H0x019100a6_Main_03@CPlayer@@QAEHABVCEntityEvent@@@Z
       1423  58E 000F70C0 ?H0x019100a7_Main_04@CPlayer@@QAEHABVCEntityEvent@@@Z
       1424  58F 00109300 ?H0x01920008_ChangeWeapon_01@CPlayerWeapons@@QAEHABVCEntityEvent@@@Z
       1425  590 001093A0 ?H0x01920009_ChangeWeapon_02@CPlayerWeapons@@QAEHABVCEntityEvent@@@Z
       1426  591 00109410 ?H0x0192000a_ChangeWeapon_03@CPlayerWeapons@@QAEHABVCEntityEvent@@@Z
       1427  592 001094B0 ?H0x0192000b_ChangeWeapon_04@CPlayerWeapons@@QAEHABVCEntityEvent@@@Z
       1428  593 00109610 ?H0x0192000c_ChangeWeapon_05@CPlayerWeapons@@QAEHABVCEntityEvent@@@Z
       1429  594 001096B0 ?H0x0192000d_ChangeWeapon_06@CPlayerWeapons@@QAEHABVCEntityEvent@@@Z
       1430  595 00109710 ?H0x0192000e_ChangeWeapon_07@CPlayerWeapons@@QAEHABVCEntityEvent@@@Z
       1431  596 00109770 ?H0x0192000f_ChangeWeapon_08@CPlayerWeapons@@QAEHABVCEntityEvent@@@Z
       1432  597 00109580 ?H0x01920010_ChangeWeapon_09@CPlayerWeapons@@QAEHABVCEntityEvent@@@Z
       1433  598 00109A10 ?H0x01920012_PutDown_01@CPlayerWeapons@@QAEHABVCEntityEvent@@@Z
       1434  599 00109A90 ?H0x01920013_PutDown_02@CPlayerWeapons@@QAEHABVCEntityEvent@@@Z
       1435  59A 00109AF0 ?H0x01920014_PutDown_03@CPlayerWeapons@@QAEHABVCEntityEvent@@@Z
       1436  59B 00109BD0 ?H0x01920015_PutDown_04@CPlayerWeapons@@QAEHABVCEntityEvent@@@Z
       1437  59C 00109C50 ?H0x01920016_PutDown_05@CPlayerWeapons@@QAEHABVCEntityEvent@@@Z
       1438  59D 00109F60 ?H0x01920018_BringUp_01@CPlayerWeapons@@QAEHABVCEntityEvent@@@Z
       1439  59E 00109FE0 ?H0x01920019_BringUp_02@CPlayerWeapons@@QAEHABVCEntityEvent@@@Z
       1440  59F 0010A050 ?H0x0192001a_BringUp_03@CPlayerWeapons@@QAEHABVCEntityEvent@@@Z
       1441  5A0 0010A0E0 ?H0x0192001b_BringUp_04@CPlayerWeapons@@QAEHABVCEntityEvent@@@Z
       1442  5A1 0010A160 ?H0x0192001c_BringUp_05@CPlayerWeapons@@QAEHABVCEntityEvent@@@Z
       1443  5A2 0010A4D0 ?H0x0192001e_Fire_01@CPlayerWeapons@@QAEHABVCEntityEvent@@@Z
       1444  5A3 0010A570 ?H0x0192001f_Fire_02@CPlayerWeapons@@QAEHABVCEntityEvent@@@Z
       1445  5A4 0010A650 ?H0x01920020_Fire_03@CPlayerWeapons@@QAEHABVCEntityEvent@@@Z
       1446  5A5 0010A5D0 ?H0x01920021_Fire_04@CPlayerWeapons@@QAEHABVCEntityEvent@@@Z
       1447  5A6 0010A6B0 ?H0x01920022_Fire_05@CPlayerWeapons@@QAEHABVCEntityEvent@@@Z
       1448  5A7 0010A450 ?H0x01920023_Fire_06@CPlayerWeapons@@QAEHABVCEntityEvent@@@Z
       1449  5A8 0010A710 ?H0x01920024_Fire_07@CPlayerWeapons@@QAEHABVCEntityEvent@@@Z
       1450  5A9 0010A3C0 ?H0x01920025_Fire_08@CPlayerWeapons@@QAEHABVCEntityEvent@@@Z
       1451  5AA 0010A770 ?H0x01920026_Fire_09@CPlayerWeapons@@QAEHABVCEntityEvent@@@Z
       1452  5AB 0010A340 ?H0x01920027_Fire_10@CPlayerWeapons@@QAEHABVCEntityEvent@@@Z
       1453  5AC 0010A7D0 ?H0x01920028_Fire_11@CPlayerWeapons@@QAEHABVCEntityEvent@@@Z
       1454  5AD 0010A2C0 ?H0x01920029_Fire_12@CPlayerWeapons@@QAEHABVCEntityEvent@@@Z
       1455  5AE 0010A940 ?H0x0192002a_Fire_13@CPlayerWeapons@@QAEHABVCEntityEvent@@@Z
       1456  5AF 0010ABB0 ?H0x0192002b_Fire_14@CPlayerWeapons@@QAEHABVCEntityEvent@@@Z
       1457  5B0 0010A860 ?H0x0192002c_Fire_15@CPlayerWeapons@@QAEHABVCEntityEvent@@@Z
       1458  5B1 0010AC10 ?H0x0192002d_Fire_16@CPlayerWeapons@@QAEHABVCEntityEvent@@@Z
       1459  5B2 0010AF90 ?H0x0192002f_SwingKnife_01@CPlayerWeapons@@QAEHABVCEntityEvent@@@Z
       1460  5B3 0010B010 ?H0x01920030_SwingKnife_02@CPlayerWeapons@@QAEHABVCEntityEvent@@@Z
       1461  5B4 0010B0E0 ?H0x01920031_SwingKnife_03@CPlayerWeapons@@QAEHABVCEntityEvent@@@Z
       1462  5B5 0010B160 ?H0x01920032_SwingKnife_04@CPlayerWeapons@@QAEHABVCEntityEvent@@@Z
       1463  5B6 0010B220 ?H0x01920033_SwingKnife_05@CPlayerWeapons@@QAEHABVCEntityEvent@@@Z
       1464  5B7 0010B2A0 ?H0x01920034_SwingKnife_06@CPlayerWeapons@@QAEHABVCEntityEvent@@@Z
       1465  5B8 0010B300 ?H0x01920035_SwingKnife_07@CPlayerWeapons@@QAEHABVCEntityEvent@@@Z
       1466  5B9 0010B360 ?H0x01920036_SwingKnife_08@CPlayerWeapons@@QAEHABVCEntityEvent@@@Z
       1467  5BA 0010B070 ?H0x01920037_SwingKnife_09@CPlayerWeapons@@QAEHABVCEntityEvent@@@Z
       1468  5BB 0010B420 ?H0x01920038_SwingKnife_10@CPlayerWeapons@@QAEHABVCEntityEvent@@@Z
       1469  5BC 0010B4A0 ?H0x01920039_SwingKnife_11@CPlayerWeapons@@QAEHABVCEntityEvent@@@Z
       1470  5BD 0010B500 ?H0x0192003a_SwingKnife_12@CPlayerWeapons@@QAEHABVCEntityEvent@@@Z
       1471  5BE 0010B6F0 ?H0x0192003c_FireColt_01@CPlayerWeapons@@QAEHABVCEntityEvent@@@Z
       1472  5BF 0010B770 ?H0x0192003d_FireColt_02@CPlayerWeapons@@QAEHABVCEntityEvent@@@Z
       1473  5C0 0010B910 ?H0x0192003f_ReloadColt_01@CPlayerWeapons@@QAEHABVCEntityEvent@@@Z
       1474  5C1 0010B990 ?H0x01920040_ReloadColt_02@CPlayerWeapons@@QAEHABVCEntityEvent@@@Z
       1475  5C2 0010BB70 ?H0x01920042_FireDoubleColt_01@CPlayerWeapons@@QAEHABVCEntityEvent@@@Z
       1476  5C3 0010BBF0 ?H0x01920043_FireDoubleColt_02@CPlayerWeapons@@QAEHABVCEntityEvent@@@Z
       1477  5C4 0010BD40 ?H0x01920044_FireDoubleColt_03@CPlayerWeapons@@QAEHABVCEntityEvent@@@Z
       1478  5C5 0010BDC0 ?H0x01920045_FireDoubleColt_04@CPlayerWeapons@@QAEHABVCEntityEvent@@@Z
       1479  5C6 0010BF30 ?H0x01920047_ReloadDoubleColt_01@CPlayerWeapons@@QAEHABVCEntityEvent@@@Z
       1480  5C7 0010BFB0 ?H0x01920048_ReloadDoubleColt_02@CPlayerWeapons@@QAEHABVCEntityEvent@@@Z
       1481  5C8 0010C080 ?H0x01920049_ReloadDoubleColt_03@CPlayerWeapons@@QAEHABVCEntityEvent@@@Z
       1482  5C9 0010C100 ?H0x0192004a_ReloadDoubleColt_04@CPlayerWeapons@@QAEHABVCEntityEvent@@@Z
       1483  5CA 0010C520 ?H0x0192004c_FireSingleShotgun_01@CPlayerWeapons@@QAEHABVCEntityEvent@@@Z
       1484  5CB 0010C5A0 ?H0x0192004d_FireSingleShotgun_02@CPlayerWeapons@@QAEHABVCEntityEvent@@@Z
       1485  5CC 0010C7D0 ?H0x0192004e_FireSingleShotgun_03@CPlayerWeapons@@QAEHABVCEntityEvent@@@Z
       1486  5CD 0010C850 ?H0x0192004f_FireSingleShotgun_04@CPlayerWeapons@@QAEHABVCEntityEvent@@@Z
       1487  5CE 0010C930 ?H0x01920050_FireSingleShotgun_05@CPlayerWeapons@@QAEHABVCEntityEvent@@@Z
       1488  5CF 0010C8C0 ?H0x01920051_FireSingleShotgun_06@CPlayerWeapons@@QAEHABVCEntityEvent@@@Z
       1489  5D0 0010CED0 ?H0x01920053_FireDoubleShotgun_01@CPlayerWeapons@@QAEHABVCEntityEvent@@@Z
       1490  5D1 0010CF50 ?H0x01920054_FireDoubleShotgun_02@CPlayerWeapons@@QAEHABVCEntityEvent@@@Z
       1491  5D2 0010D030 ?H0x01920055_FireDoubleShotgun_03@CPlayerWeapons@@QAEHABVCEntityEvent@@@Z
       1492  5D3 0010D0B0 ?H0x01920056_FireDoubleShotgun_04@CPlayerWeapons@@QAEHABVCEntityEvent@@@Z
       1493  5D4 0010D190 ?H0x01920057_FireDoubleShotgun_05@CPlayerWeapons@@QAEHABVCEntityEvent@@@Z
       1494  5D5 0010D120 ?H0x01920058_FireDoubleShotgun_06@CPlayerWeapons@@QAEHABVCEntityEvent@@@Z
       1495  5D6 0010D9D0 ?H0x0192005c_FireTommyGun_01@CPlayerWeapons@@QAEHABVCEntityEvent@@@Z
       1496  5D7 0010DA50 ?H0x0192005d_FireTommyGun_02@CPlayerWeapons@@QAEHABVCEntityEvent@@@Z
       1497  5D8 0010DB30 ?H0x0192005e_FireTommyGun_03@CPlayerWeapons@@QAEHABVCEntityEvent@@@Z
       1498  5D9 0010DAC0 ?H0x0192005f_FireTommyGun_04@CPlayerWeapons@@QAEHABVCEntityEvent@@@Z
       1499  5DA 0010DDA0 ?H0x01920061_FireSniper_01@CPlayerWeapons@@QAEHABVCEntityEvent@@@Z
       1500  5DB 0010DE20 ?H0x01920062_FireSniper_02@CPlayerWeapons@@QAEHABVCEntityEvent@@@Z
       1501  5DC 0010E100 ?H0x01920063_FireSniper_03@CPlayerWeapons@@QAEHABVCEntityEvent@@@Z
       1502  5DD 0010E180 ?H0x01920064_FireSniper_04@CPlayerWeapons@@QAEHABVCEntityEvent@@@Z
       1503  5DE 0010E260 ?H0x01920065_FireSniper_05@CPlayerWeapons@@QAEHABVCEntityEvent@@@Z
       1504  5DF 0010E1F0 ?H0x01920066_FireSniper_06@CPlayerWeapons@@QAEHABVCEntityEvent@@@Z
       1505  5E0 0010E4E0 ?H0x01920068_MiniGunSpinUp_01@CPlayerWeapons@@QAEHABVCEntityEvent@@@Z
       1506  5E1 0010E560 ?H0x01920069_MiniGunSpinUp_02@CPlayerWeapons@@QAEHABVCEntityEvent@@@Z
       1507  5E2 0010E440 ?H0x0192006a_MiniGunSpinUp_03@CPlayerWeapons@@QAEHABVCEntityEvent@@@Z
       1508  5E3 0010E600 ?H0x0192006b_MiniGunSpinUp_04@CPlayerWeapons@@QAEHABVCEntityEvent@@@Z
       1509  5E4 0010EC60 ?H0x0192006d_MiniGunFire_01@CPlayerWeapons@@QAEHABVCEntityEvent@@@Z
       1510  5E5 0010ECE0 ?H0x0192006e_MiniGunFire_02@CPlayerWeapons@@QAEHABVCEntityEvent@@@Z
       1511  5E6 0010E790 ?H0x0192006f_MiniGunFire_03@CPlayerWeapons@@QAEHABVCEntityEvent@@@Z
       1512  5E7 0010ED60 ?H0x01920070_MiniGunFire_04@CPlayerWeapons@@QAEHABVCEntityEvent@@@Z
       1513  5E8 0010EFA0 ?H0x01920072_MiniGunSpinDown_01@CPlayerWeapons@@QAEHABVCEntityEvent@@@Z
       1514  5E9 0010F020 ?H0x01920073_MiniGunSpinDown_02@CPlayerWeapons@@QAEHABVCEntityEvent@@@Z
       1515  5EA 0010EEF0 ?H0x01920074_MiniGunSpinDown_03@CPlayerWeapons@@QAEHABVCEntityEvent@@@Z
       1516  5EB 0010F120 ?H0x01920075_MiniGunSpinDown_04@CPlayerWeapons@@QAEHABVCEntityEvent@@@Z
       1517  5EC 0010F2C0 ?H0x01920076_MiniGunSpinDown_05@CPlayerWeapons@@QAEHABVCEntityEvent@@@Z
       1518  5ED 0010F340 ?H0x01920077_MiniGunSpinDown_06@CPlayerWeapons@@QAEHABVCEntityEvent@@@Z
       1519  5EE 0010F220 ?H0x01920078_MiniGunSpinDown_07@CPlayerWeapons@@QAEHABVCEntityEvent@@@Z
       1520  5EF 0010F3A0 ?H0x01920079_MiniGunSpinDown_08@CPlayerWeapons@@QAEHABVCEntityEvent@@@Z
       1521  5F0 0010F410 ?H0x0192007a_MiniGunSpinDown_09@CPlayerWeapons@@QAEHABVCEntityEvent@@@Z
       1522  5F1 0010F5B0 ?H0x0192007c_FireRocketLauncher_01@CPlayerWeapons@@QAEHABVCEntityEvent@@@Z
       1523  5F2 0010F630 ?H0x0192007d_FireRocketLauncher_02@CPlayerWeapons@@QAEHABVCEntityEvent@@@Z
       1524  5F3 0010F6E0 ?H0x0192007e_FireRocketLauncher_03@CPlayerWeapons@@QAEHABVCEntityEvent@@@Z
       1525  5F4 0010F760 ?H0x0192007f_FireRocketLauncher_04@CPlayerWeapons@@QAEHABVCEntityEvent@@@Z
       1526  5F5 0010F870 ?H0x01920080_FireRocketLauncher_05@CPlayerWeapons@@QAEHABVCEntityEvent@@@Z
       1527  5F6 0010F800 ?H0x01920081_FireRocketLauncher_06@CPlayerWeapons@@QAEHABVCEntityEvent@@@Z
       1528  5F7 0010FA30 ?H0x01920083_FireGrenadeLauncher_01@CPlayerWeapons@@QAEHABVCEntityEvent@@@Z
       1529  5F8 0010FAB0 ?H0x01920084_FireGrenadeLauncher_02@CPlayerWeapons@@QAEHABVCEntityEvent@@@Z
       1530  5F9 0010F980 ?H0x01920085_FireGrenadeLauncher_03@CPlayerWeapons@@QAEHABVCEntityEvent@@@Z
       1531  5FA 0010FB60 ?H0x01920086_FireGrenadeLauncher_04@CPlayerWeapons@@QAEHABVCEntityEvent@@@Z
       1532  5FB 0010FD50 ?H0x01920087_FireGrenadeLauncher_05@CPlayerWeapons@@QAEHABVCEntityEvent@@@Z
       1533  5FC 0010FDD0 ?H0x01920088_FireGrenadeLauncher_06@CPlayerWeapons@@QAEHABVCEntityEvent@@@Z
       1534  5FD 0010FCB0 ?H0x01920089_FireGrenadeLauncher_07@CPlayerWeapons@@QAEHABVCEntityEvent@@@Z
       1535  5FE 0010FE80 ?H0x0192008a_FireGrenadeLauncher_08@CPlayerWeapons@@QAEHABVCEntityEvent@@@Z
       1536  5FF 0010FF80 ?H0x0192008b_FireGrenadeLauncher_09@CPlayerWeapons@@QAEHABVCEntityEvent@@@Z
       1537  600 00110000 ?H0x0192008c_FireGrenadeLauncher_10@CPlayerWeapons@@QAEHABVCEntityEvent@@@Z
       1538  601 00110060 ?H0x0192008d_FireGrenadeLauncher_11@CPlayerWeapons@@QAEHABVCEntityEvent@@@Z
       1539  602 001100C0 ?H0x0192008e_FireGrenadeLauncher_12@CPlayerWeapons@@QAEHABVCEntityEvent@@@Z
       1540  603 0010FF10 ?H0x0192008f_FireGrenadeLauncher_13@CPlayerWeapons@@QAEHABVCEntityEvent@@@Z
       1541  604 00110190 ?H0x01920090_FireGrenadeLauncher_14@CPlayerWeapons@@QAEHABVCEntityEvent@@@Z
       1542  605 00110120 ?H0x01920091_FireGrenadeLauncher_15@CPlayerWeapons@@QAEHABVCEntityEvent@@@Z
       1543  606 00110290 ?H0x01920093_FlamerStart_01@CPlayerWeapons@@QAEHABVCEntityEvent@@@Z
       1544  607 00110310 ?H0x01920094_FlamerStart_02@CPlayerWeapons@@QAEHABVCEntityEvent@@@Z
       1545  608 00110450 ?H0x01920095_FlamerStart_03@CPlayerWeapons@@QAEHABVCEntityEvent@@@Z
       1546  609 001104D0 ?H0x01920096_FlamerStart_04@CPlayerWeapons@@QAEHABVCEntityEvent@@@Z
       1547  60A 00110650 ?H0x01920098_FlamerFire_01@CPlayerWeapons@@QAEHABVCEntityEvent@@@Z
       1548  60B 001106D0 ?H0x01920099_FlamerFire_02@CPlayerWeapons@@QAEHABVCEntityEvent@@@Z
       1549  60C 00110590 ?H0x0192009a_FlamerFire_03@CPlayerWeapons@@QAEHABVCEntityEvent@@@Z
       1550  60D 00110730 ?H0x0192009b_FlamerFire_04@CPlayerWeapons@@QAEHABVCEntityEvent@@@Z
       1551  60E 00110900 ?H0x0192009d_FlamerStop_01@CPlayerWeapons@@QAEHABVCEntityEvent@@@Z
       1552  60F 00110980 ?H0x0192009e_FlamerStop_02@CPlayerWeapons@@QAEHABVCEntityEvent@@@Z
       1553  610 00110AE0 ?H0x019200a0_ChainsawFire_01@CPlayerWeapons@@QAEHABVCEntityEvent@@@Z
       1554  611 00110B60 ?H0x019200a1_ChainsawFire_02@CPlayerWeapons@@QAEHABVCEntityEvent@@@Z
       1555  612 00110D30 ?H0x019200a2_ChainsawFire_03@CPlayerWeapons@@QAEHABVCEntityEvent@@@Z
       1556  613 00110DB0 ?H0x019200a3_ChainsawFire_04@CPlayerWeapons@@QAEHABVCEntityEvent@@@Z
       1557  614 00110CA0 ?H0x019200a4_ChainsawFire_05@CPlayerWeapons@@QAEHABVCEntityEvent@@@Z
       1558  615 00110E50 ?H0x019200a5_ChainsawFire_06@CPlayerWeapons@@QAEHABVCEntityEvent@@@Z
       1559  616 00110F80 ?H0x019200a6_ChainsawFire_07@CPlayerWeapons@@QAEHABVCEntityEvent@@@Z
       1560  617 00111000 ?H0x019200a7_ChainsawFire_08@CPlayerWeapons@@QAEHABVCEntityEvent@@@Z
       1561  618 00111130 ?H0x019200a9_ChainsawBringUp_01@CPlayerWeapons@@QAEHABVCEntityEvent@@@Z
       1562  619 001111B0 ?H0x019200aa_ChainsawBringUp_02@CPlayerWeapons@@QAEHABVCEntityEvent@@@Z
       1563  61A 001112A0 ?H0x019200ac_FireLaser_01@CPlayerWeapons@@QAEHABVCEntityEvent@@@Z
       1564  61B 00111320 ?H0x019200ad_FireLaser_02@CPlayerWeapons@@QAEHABVCEntityEvent@@@Z
       1565  61C 00111540 ?H0x019200ae_FireLaser_03@CPlayerWeapons@@QAEHABVCEntityEvent@@@Z
       1566  61D 001114D0 ?H0x019200af_FireLaser_04@CPlayerWeapons@@QAEHABVCEntityEvent@@@Z
       1567  61E 00111760 ?H0x019200b1_CannonFireStart_01@CPlayerWeapons@@QAEHABVCEntityEvent@@@Z
       1568  61F 001117E0 ?H0x019200b2_CannonFireStart_02@CPlayerWeapons@@QAEHABVCEntityEvent@@@Z
       1569  620 001116B0 ?H0x019200b3_CannonFireStart_03@CPlayerWeapons@@QAEHABVCEntityEvent@@@Z
       1570  621 00111890 ?H0x019200b4_CannonFireStart_04@CPlayerWeapons@@QAEHABVCEntityEvent@@@Z
       1571  622 00111B90 ?H0x019200b5_CannonFireStart_05@CPlayerWeapons@@QAEHABVCEntityEvent@@@Z
       1572  623 00111C10 ?H0x019200b6_CannonFireStart_06@CPlayerWeapons@@QAEHABVCEntityEvent@@@Z
       1573  624 00111AC0 ?H0x019200b7_CannonFireStart_07@CPlayerWeapons@@QAEHABVCEntityEvent@@@Z
       1574  625 00111CB0 ?H0x019200b8_CannonFireStart_08@CPlayerWeapons@@QAEHABVCEntityEvent@@@Z
       1575  626 00111DA0 ?H0x019200b9_CannonFireStart_09@CPlayerWeapons@@QAEHABVCEntityEvent@@@Z
       1576  627 00111D30 ?H0x019200ba_CannonFireStart_10@CPlayerWeapons@@QAEHABVCEntityEvent@@@Z
       1577  628 00111E90 ?H0x019200bc_Reload_01@CPlayerWeapons@@QAEHABVCEntityEvent@@@Z
       1578  629 00111F30 ?H0x019200bd_Reload_02@CPlayerWeapons@@QAEHABVCEntityEvent@@@Z
       1579  62A 00112010 ?H0x019200be_Reload_03@CPlayerWeapons@@QAEHABVCEntityEvent@@@Z
       1580  62B 001120B0 ?H0x019200bf_Reload_04@CPlayerWeapons@@QAEHABVCEntityEvent@@@Z
       1581  62C 00112110 ?H0x019200c0_Reload_05@CPlayerWeapons@@QAEHABVCEntityEvent@@@Z
       1582  62D 00112170 ?H0x019200c1_Reload_06@CPlayerWeapons@@QAEHABVCEntityEvent@@@Z
       1583  62E 00111F90 ?H0x019200c2_Reload_07@CPlayerWeapons@@QAEHABVCEntityEvent@@@Z
       1584  62F 00112400 ?H0x019200c6_BoringWeaponAnimation_01@CPlayerWeapons@@QAEHABVCEntityEvent@@@Z
       1585  630 00112480 ?H0x019200c7_BoringWeaponAnimation_02@CPlayerWeapons@@QAEHABVCEntityEvent@@@Z
       1586  631 001124E0 ?H0x019200c8_BoringWeaponAnimation_03@CPlayerWeapons@@QAEHABVCEntityEvent@@@Z
       1587  632 001125B0 ?H0x019200ca_Idle_01@CPlayerWeapons@@QAEHABVCEntityEvent@@@Z
       1588  633 00112740 ?H0x019200cb_Idle_02@CPlayerWeapons@@QAEHABVCEntityEvent@@@Z
       1589  634 00112840 ?H0x019200cd_Stopped_01@CPlayerWeapons@@QAEHABVCEntityEvent@@@Z
       1590  635 001128C0 ?H0x019200ce_Stopped_02@CPlayerWeapons@@QAEHABVCEntityEvent@@@Z
       1591  636 001129A0 ?H0x019200cf_Main_01@CPlayerWeapons@@QAEHABVCEntityEvent@@@Z
       1592  637 00112B00 ?H0x019200d0_Main_02@CPlayerWeapons@@QAEHABVCEntityEvent@@@Z
       1593  638 000FD670 ?H0x01930001_Main_01@CPlayerView@@QAEHABVCEntityEvent@@@Z
       1594  639 000FD760 ?H0x01930002_Main_02@CPlayerView@@QAEHABVCEntityEvent@@@Z
       1595  63A 000FBAE0 ?H0x01960002_Main_01@CPlayerAnimator@@QAEHABVCEntityEvent@@@Z
       1596  63B 000FBB90 ?H0x01960003_Main_02@CPlayerAnimator@@QAEHABVCEntityEvent@@@Z
       1597  63C 0011DBB0 ?H0x01f50002_ProjectileFly_01@CProjectile@@QAEHABVCEntityEvent@@@Z
       1598  63D 0011DDF0 ?H0x01f50003_ProjectileFly_02@CProjectile@@QAEHABVCEntityEvent@@@Z
       1599  63E 0011E260 ?H0x01f50005_ProjectileGuidedFly_01@CProjectile@@QAEHABVCEntityEvent@@@Z
       1600  63F 0011E430 ?H0x01f50006_ProjectileGuidedFly_02@CProjectile@@QAEHABVCEntityEvent@@@Z
       1601  640 0011DF00 ?H0x01f50007_ProjectileGuidedFly_03@CProjectile@@QAEHABVCEntityEvent@@@Z
       1602  641 0011E490 ?H0x01f50008_ProjectileGuidedFly_04@CProjectile@@QAEHABVCEntityEvent@@@Z
       1603  642 0011E970 ?H0x01f5000a_ProjectileGuidedFastFly_01@CProjectile@@QAEHABVCEntityEvent@@@Z
       1604  643 0011ECB0 ?H0x01f5000b_ProjectileGuidedFastFly_02@CProjectile@@QAEHABVCEntityEvent@@@Z
       1605  644 0011E5A0 ?H0x01f5000c_ProjectileGuidedFastFly_03@CProjectile@@QAEHABVCEntityEvent@@@Z
       1606  645 0011ED10 ?H0x01f5000d_ProjectileGuidedFastFly_04@CProjectile@@QAEHABVCEntityEvent@@@Z
       1607  646 0011F130 ?H0x01f5000f_ProjectileGuidedSlide_01@CProjectile@@QAEHABVCEntityEvent@@@Z
       1608  647 0011F300 ?H0x01f50010_ProjectileGuidedSlide_02@CProjectile@@QAEHABVCEntityEvent@@@Z
       1609  648 0011EE20 ?H0x01f50011_ProjectileGuidedSlide_03@CProjectile@@QAEHABVCEntityEvent@@@Z
       1610  649 0011F360 ?H0x01f50012_ProjectileGuidedSlide_04@CProjectile@@QAEHABVCEntityEvent@@@Z
       1611  64A 0011F480 ?H0x01f50014_ProjectileSlide_01@CProjectile@@QAEHABVCEntityEvent@@@Z
       1612  64B 0011F810 ?H0x01f50015_ProjectileSlide_02@CProjectile@@QAEHABVCEntityEvent@@@Z
       1613  64C 0011F930 ?H0x01f50017_ProjectileFlyRebounding_01@CProjectile@@QAEHABVCEntityEvent@@@Z
       1614  64D 0011FD50 ?H0x01f50018_ProjectileFlyRebounding_02@CProjectile@@QAEHABVCEntityEvent@@@Z
       1615  64E 001202F0 ?H0x01f50019_Main_01@CProjectile@@QAEHABVCEntityEvent@@@Z
       1616  64F 00120390 ?H0x01f5001a_Main_02@CProjectile@@QAEHABVCEntityEvent@@@Z
       1617  650 00120470 ?H0x01f5001b_Main_03@CProjectile@@QAEHABVCEntityEvent@@@Z
       1618  651 00120510 ?H0x01f5001c_Main_04@CProjectile@@QAEHABVCEntityEvent@@@Z
       1619  652 001205F0 ?H0x01f5001d_Main_05@CProjectile@@QAEHABVCEntityEvent@@@Z
       1620  653 00120690 ?H0x01f5001e_Main_06@CProjectile@@QAEHABVCEntityEvent@@@Z
       1621  654 00120770 ?H0x01f5001f_Main_07@CProjectile@@QAEHABVCEntityEvent@@@Z
       1622  655 00120810 ?H0x01f50020_Main_08@CProjectile@@QAEHABVCEntityEvent@@@Z
       1623  656 001208F0 ?H0x01f50021_Main_09@CProjectile@@QAEHABVCEntityEvent@@@Z
       1624  657 00120990 ?H0x01f50022_Main_10@CProjectile@@QAEHABVCEntityEvent@@@Z
       1625  658 00120A70 ?H0x01f50023_Main_11@CProjectile@@QAEHABVCEntityEvent@@@Z
       1626  659 00120B10 ?H0x01f50024_Main_12@CProjectile@@QAEHABVCEntityEvent@@@Z
       1627  65A 00120B70 ?H0x01f50025_Main_13@CProjectile@@QAEHABVCEntityEvent@@@Z
       1628  65B 00120BD0 ?H0x01f50026_Main_14@CProjectile@@QAEHABVCEntityEvent@@@Z
       1629  65C 001209F0 ?H0x01f50027_Main_15@CProjectile@@QAEHABVCEntityEvent@@@Z
       1630  65D 00120C30 ?H0x01f50028_Main_16@CProjectile@@QAEHABVCEntityEvent@@@Z
       1631  65E 00120870 ?H0x01f50029_Main_17@CProjectile@@QAEHABVCEntityEvent@@@Z
       1632  65F 00120C90 ?H0x01f5002a_Main_18@CProjectile@@QAEHABVCEntityEvent@@@Z
       1633  660 001206F0 ?H0x01f5002b_Main_19@CProjectile@@QAEHABVCEntityEvent@@@Z
       1634  661 00120CF0 ?H0x01f5002c_Main_20@CProjectile@@QAEHABVCEntityEvent@@@Z
       1635  662 00120570 ?H0x01f5002d_Main_21@CProjectile@@QAEHABVCEntityEvent@@@Z
       1636  663 00120D50 ?H0x01f5002e_Main_22@CProjectile@@QAEHABVCEntityEvent@@@Z
       1637  664 001203F0 ?H0x01f5002f_Main_23@CProjectile@@QAEHABVCEntityEvent@@@Z
       1638  665 00120FB0 ?H0x01f50030_Main_24@CProjectile@@QAEHABVCEntityEvent@@@Z
       1639  666 00121030 ?H0x01f50031_Main_25@CProjectile@@QAEHABVCEntityEvent@@@Z
       1640  667 00121090 ?H0x01f50032_Main_26@CProjectile@@QAEHABVCEntityEvent@@@Z
       1641  668 00056890 ?H0x01fa0003_Bounce_01@CCannonBall@@QAEHABVCEntityEvent@@@Z
       1642  669 00056C10 ?H0x01fa0004_Bounce_02@CCannonBall@@QAEHABVCEntityEvent@@@Z
       1643  66A 00056D80 ?H0x01fa0005_Main_01@CCannonBall@@QAEHABVCEntityEvent@@@Z
       1644  66B 00056E10 ?H0x01fa0006_Main_02@CCannonBall@@QAEHABVCEntityEvent@@@Z
       1645  66C 00056F60 ?H0x01fa0007_Main_03@CCannonBall@@QAEHABVCEntityEvent@@@Z
       1646  66D 00057000 ?H0x01fa0008_Main_04@CCannonBall@@QAEHABVCEntityEvent@@@Z
       1647  66E 00057490 ?H0x01fa0009_Main_05@CCannonBall@@QAEHABVCEntityEvent@@@Z
       1648  66F 00057510 ?H0x01fa000a_Main_06@CCannonBall@@QAEHABVCEntityEvent@@@Z
       1649  670 00057600 ?H0x01fa000b_Main_07@CCannonBall@@QAEHABVCEntityEvent@@@Z
       1650  671 00057680 ?H0x01fa000c_Main_08@CCannonBall@@QAEHABVCEntityEvent@@@Z
       1651  672 00057770 ?H0x01fa000d_Main_09@CCannonBall@@QAEHABVCEntityEvent@@@Z
       1652  673 000577F0 ?H0x01fa000e_Main_10@CCannonBall@@QAEHABVCEntityEvent@@@Z
       1653  674 000578E0 ?H0x01fa000f_Main_11@CCannonBall@@QAEHABVCEntityEvent@@@Z
       1654  675 00057960 ?H0x01fa0010_Main_12@CCannonBall@@QAEHABVCEntityEvent@@@Z
       1655  676 00057A50 ?H0x01fa0011_Main_13@CCannonBall@@QAEHABVCEntityEvent@@@Z
       1656  677 00057AD0 ?H0x01fa0012_Main_14@CCannonBall@@QAEHABVCEntityEvent@@@Z
       1657  678 00057BC0 ?H0x01fa0013_Main_15@CCannonBall@@QAEHABVCEntityEvent@@@Z
       1658  679 00057C40 ?H0x01fa0014_Main_16@CCannonBall@@QAEHABVCEntityEvent@@@Z
       1659  67A 00057D30 ?H0x01fa0015_Main_17@CCannonBall@@QAEHABVCEntityEvent@@@Z
       1660  67B 00057DB0 ?H0x01fa0016_Main_18@CCannonBall@@QAEHABVCEntityEvent@@@Z
       1661  67C 00057EA0 ?H0x01fa0017_Main_19@CCannonBall@@QAEHABVCEntityEvent@@@Z
       1662  67D 00057F20 ?H0x01fa0018_Main_20@CCannonBall@@QAEHABVCEntityEvent@@@Z
       1663  67E 00058010 ?H0x01fa0019_Main_21@CCannonBall@@QAEHABVCEntityEvent@@@Z
       1664  67F 00058090 ?H0x01fa001a_Main_22@CCannonBall@@QAEHABVCEntityEvent@@@Z
       1665  680 00058180 ?H0x01fa001b_Main_23@CCannonBall@@QAEHABVCEntityEvent@@@Z
       1666  681 00058200 ?H0x01fa001c_Main_24@CCannonBall@@QAEHABVCEntityEvent@@@Z
       1667  682 000582F0 ?H0x01fa001d_Main_25@CCannonBall@@QAEHABVCEntityEvent@@@Z
       1668  683 00058370 ?H0x01fa001e_Main_26@CCannonBall@@QAEHABVCEntityEvent@@@Z
       1669  684 00058460 ?H0x01fa001f_Main_27@CCannonBall@@QAEHABVCEntityEvent@@@Z
       1670  685 000584E0 ?H0x01fa0020_Main_28@CCannonBall@@QAEHABVCEntityEvent@@@Z
       1671  686 000585C0 ?H0x01fa0021_Main_29@CCannonBall@@QAEHABVCEntityEvent@@@Z
       1672  687 00058620 ?H0x01fa0022_Main_30@CCannonBall@@QAEHABVCEntityEvent@@@Z
       1673  688 00057370 ?H0x01fa0023_Main_31@CCannonBall@@QAEHABVCEntityEvent@@@Z
       1674  689 0014BCE0 ?H0x02bc0003_Active_01@CWatcher@@QAEHABVCEntityEvent@@@Z
       1675  68A 0014BDD0 ?H0x02bc0004_Active_02@CWatcher@@QAEHABVCEntityEvent@@@Z
       1676  68B 0014BC70 ?H0x02bc0005_Active_03@CWatcher@@QAEHABVCEntityEvent@@@Z
       1677  68C 0014BE30 ?H0x02bc0006_Active_04@CWatcher@@QAEHABVCEntityEvent@@@Z
       1678  68D 0014BEB0 ?H0x02bc0008_Inactive_01@CWatcher@@QAEHABVCEntityEvent@@@Z
       1679  68E 0014BF30 ?H0x02bc0009_Inactive_02@CWatcher@@QAEHABVCEntityEvent@@@Z
       1680  68F 0014BFB0 ?H0x02bc000b_Dummy_01@CWatcher@@QAEHABVCEntityEvent@@@Z
       1681  690 0014BFC0 ?H0x02bc000c_Dummy_02@CWatcher@@QAEHABVCEntityEvent@@@Z
       1682  691 0014C0B0 ?H0x02bc000d_Main_01@CWatcher@@QAEHABVCEntityEvent@@@Z
       1683  692 0014C150 ?H0x02bc000e_Main_02@CWatcher@@QAEHABVCEntityEvent@@@Z
       1684  693 00127F80 ?H0x02bf0001_Main_01@CReminder@@QAEHABVCEntityEvent@@@Z
       1685  694 00128000 ?H0x02bf0002_Main_02@CReminder@@QAEHABVCEntityEvent@@@Z
       1686  695 00128090 ?H0x02bf0003_Main_03@CReminder@@QAEHABVCEntityEvent@@@Z
       1687  696 000C2E80 ?H0x03200002_ItemLoop_01@CItem@@QAEHABVCEntityEvent@@@Z
       1688  697 000C2F00 ?H0x03200003_ItemLoop_02@CItem@@QAEHABVCEntityEvent@@@Z
       1689  698 000C2F80 ?H0x03200004_ItemLoop_03@CItem@@QAEHABVCEntityEvent@@@Z
       1690  699 000C30B0 ?H0x03200005_ItemLoop_04@CItem@@QAEHABVCEntityEvent@@@Z
       1691  69A 000C3120 ?H0x03200006_ItemLoop_05@CItem@@QAEHABVCEntityEvent@@@Z
       1692  69B 000C31A0 ?H0x03200007_ItemLoop_06@CItem@@QAEHABVCEntityEvent@@@Z
       1693  69C 000C32C0 ?H0x03200009_ItemReceived_01@CItem@@QAEHABVCEntityEvent@@@Z
       1694  69D 000C3330 ?H0x0320000a_ItemReceived_02@CItem@@QAEHABVCEntityEvent@@@Z
       1695  69E 000C33F0 ?H0x0320000b_ItemReceived_03@CItem@@QAEHABVCEntityEvent@@@Z
       1696  69F 000C3390 ?H0x0320000c_ItemReceived_04@CItem@@QAEHABVCEntityEvent@@@Z
       1697  6A0 000905E0 ?HandleEvent@CEnemyBase@@UAEHABVCEntityEvent@@@Z
       1698  6A1 001085A0 ?HasAmmo@CPlayerWeapons@@QAEHW4WeaponType@@@Z
       1699  6A2 000E5F10 ?HasMessage@CPlayer@@QAEHABVCTFileName@@@Z
       1700  6A3 00118000 ?HeadmanBomberman@CProjectile@@QAEXXZ
       1701  6A4 00118130 ?HeadmanBombermanExplosion@CProjectile@@QAEXXZ
       1702  6A5 00117D90 ?HeadmanFirecracker@CProjectile@@QAEXXZ
       1703  6A6 00117EB0 ?HeadmanRocketman@CProjectile@@QAEXXZ
       1704  6A7 001E7B98 ?HeadmanType_enum@@3VCEntityPropertyEnumType@@A
       1705  6A8 001E7B78 ?HeadmanType_values@@3PAVCEntityPropertyEnumValue@@A
       1706  6A9 001E85D8 ?HealthItemType_enum@@3VCEntityPropertyEnumType@@A
       1707  6AA 001E85B0 ?HealthItemType_values@@3PAVCEntityPropertyEnumValue@@A
       1708  6AB 000FB6D0 ?HideFlare@CPlayerAnimator@@QAEXJJJ@Z
       1709  6AC 00102D70 ?HideFlare@CPlayerWeapons@@QAEXAAVCModelObject@@JJ@Z
       1710  6AD 0009A0B0 ?HigherMass@CEnemyRunInto@@UAEHXZ
       1711  6AE 000931F0 ?Hit@CEnemyBase@@QAEHABVCEntityEvent@@@Z
       1712  6AF 00096F80 ?Hit@CEnemyDive@@QAEHABVCEntityEvent@@@Z
       1713  6B0 00099130 ?Hit@CEnemyFly@@QAEHABVCEntityEvent@@@Z
       1714  6B1 001010D0 ?HoldingFire@CPlayerWeapons@@QAEHXZ
       1715  6B2 001195F0 ?HuanmanProjectile@CProjectile@@QAEXXZ
       1716  6B3 00112540 ?Idle@CPlayerWeapons@@QAEHABVCEntityEvent@@@Z
       1717  6B4 00090540 ?IdleSound@CEnemyBase@@UAEXXZ
       1718  6B5 0008AE90 ?IfTargetCrushed@CEnemyBase@@QAEHPAVCEntity@@ABV?$Vector@M$02@@@Z
       1719  6B6 00094FC0 ?Inactive@CEnemyBase@@QAEHABVCEntityEvent@@@Z
       1720  6B7 0014BE40 ?Inactive@CWatcher@@QAEHABVCEntityEvent@@@Z
       1721  6B8 0009A030 ?IncreaseKickedMass@CEnemyRunInto@@QAEXPAVCEntity@@@Z
       1722  6B9 0001B640 ?InitParticles@@YAXXZ
       1723  6BA 00056060 ?Initialize@CCannonBall@@QAEXXZ
       1724  6BB 0000EBF0 ?Initialize@CEmiter@@QAEXPAVCEntity@@@Z
       1725  6BC 000C2B80 ?Initialize@CItem@@QAEXXZ
       1726  6BD 000F9F60 ?Initialize@CPlayerAnimator@@QAEXXZ
       1727  6BE 00091E90 ?InitializeAttack@CEnemyBase@@QAEHABVCEntityEvent@@@Z
       1728  6BF 000EEB10 ?InitializePlayer@CPlayer@@QAEXXZ
       1729  6C0 000C5210 ?InitializeProjectile@CLarvaOffspring@@QAEXXZ
       1730  6C1 0008DAD0 ?InitializeTactics@CEnemyBase@@QAEXXZ
       1731  6C2 00106500 ?InitializeWeapons@CPlayerWeapons@@QAEXJJJM@Z
       1732  6C3 000E8470 ?IsConnected@CPlayer@@QBEHXZ
       1733  6C4 000E6AC0 ?IsFuss@CPlayer@@QAEHXZ
       1734  6C5 0008B310 ?IsInFrustum@CEnemyBase@@QAEHPAVCEntity@@M@Z
       1735  6C6 0008B3E0 ?IsInPlaneFrustum@CEnemyBase@@QAEHPAVCEntity@@M@Z
       1736  6C7 000D91E0 ?IsMarker@CNavigationMarker@@UBEHXZ
       1737  6C8 00011A50 ?IsTargetable@CEnemyBase@@UBEHXZ
       1738  6C9 000101E0 ?IsTargetable@CItem@@UBEHXZ
       1739  6CA 00035370 ?IsTargetable@CNavigationMarker@@UBEHXZ
       1740  6CB 0008CF90 ?IsValidForEnemy@CEnemyBase@@QAEHPAVCEntity@@@Z
       1741  6CC 0008B5D0 ?IsVisible@CEnemyBase@@QAEHPAVCEntity@@@Z
       1742  6CD 0008B680 ?IsVisibleCheckAll@CEnemyBase@@QAEHPAVCEntity@@@Z
       1743  6CE 000C2D90 ?ItemCollected@CItem@@QAEHABVCEntityEvent@@@Z
       1744  6CF 000C2DF0 ?ItemLoop@CItem@@QAEHABVCEntityEvent@@@Z
       1745  6D0 000E6430 ?ItemPicked@CPlayer@@QAEXABVCTString@@M@Z
       1746  6D1 000C3200 ?ItemReceived@CItem@@QAEHABVCEntityEvent@@@Z
       1747  6D2 0004E7E0 ?JumpFromBouncer@@YAXPAVCEntity@@0@Z
       1748  6D3 001E8FC8 ?KeyItemType_enum@@3VCEntityPropertyEnumType@@A
       1749  6D4 001E8F48 ?KeyItemType_values@@3PAVCEntityPropertyEnumValue@@A
       1750  6D5 000072B0 ?KickEntity@@YAXPAVCEntity@@V?$Vector@M$02@@@Z
       1751  6D6 00108790 ?KnifeBoring@CPlayerWeapons@@QAEMXZ
       1752  6D7 000C59F0 ?LarvaOffspringGuidedSlide@CLarvaOffspring@@QAEHABVCEntityEvent@@@Z
       1753  6D8 0011C170 ?LarvaPlasma@CProjectile@@QAEXXZ
       1754  6D9 0011C340 ?LarvaPlasmaExplosion@CProjectile@@QAEXXZ
       1755  6DA 0011C4D0 ?LarvaTail@CProjectile@@QAEXXZ
       1756  6DB 000C5380 ?LarvaTailExplosion@CLarvaOffspring@@QAEXXZ
       1757  6DC 0011C670 ?LarvaTailExplosion@CProjectile@@QAEXXZ
       1758  6DD 001E3DB0 ?LarvaTarget_enum@@3VCEntityPropertyEnumType@@A
       1759  6DE 001E3D98 ?LarvaTarget_values@@3PAVCEntityPropertyEnumValue@@A
       1760  6DF 00108B10 ?LaserBoring@CPlayerWeapons@@QAEMXZ
       1761  6E0 0004F4A0 ?LaunchBullet@CBullet@@QAEXHHH@Z
       1762  6E1 0011B820 ?LavaBall@CProjectile@@QAEXXZ
       1763  6E2 0011B940 ?LavaBallExplosion@CProjectile@@QAEXXZ
       1764  6E3 00118B00 ?LavaManBomb@CProjectile@@QAEXXZ
       1765  6E4 00119350 ?LavamanBombDebrisExplosion@CProjectile@@QAEXXZ
       1766  6E5 00118DF0 ?LavamanBombExplosion@CProjectile@@QAEXXZ
       1767  6E6 0008FED0 ?LeaveStain@CEnemyBase@@UAEXH@Z
       1768  6E7 000E8740 ?LeaveStain@CPlayer@@UAEXH@Z
       1769  6E8 001E9BC0 ?LensFlareType_enum@@3VCEntityPropertyEnumType@@A
       1770  6E9 001E9B58 ?LensFlareType_values@@3PAVCEntityPropertyEnumValue@@A
       1771  6EA 0000C6B0 ?LerpPlacementsPrecise@@YA?AVCPlacement3D@@ABV1@0M@Z
       1772  6EB 001E9B50 ?LightType_enum@@3VCEntityPropertyEnumType@@A
       1773  6EC 001E9B28 ?LightType_values@@3PAVCEntityPropertyEnumValue@@A
       1774  6ED 000E7570 ?ListenFromEntity@CPlayer@@QAEXPAVCEntity@@ABVCPlacement3D@@@Z
       1775  6EE 0009A060 ?LiveEntityTouched@CEnemyRunInto@@UAEXVETouch@@@Z
       1776  6EF 000932B0 ?LockOnEnemy@CEnemyBase@@QAEHABVCEntityEvent@@@Z
       1777  6F0 000F2F90 ?LogoFireMinigun@CPlayer@@QAEHABVCEntityEvent@@@Z
       1778  6F1 0004FD90 ?Main@CBullet@@QAEHABVCEntityEvent@@@Z
       1779  6F2 00056C70 ?Main@CCannonBall@@QAEHABVCEntityEvent@@@Z
       1780  6F3 00095850 ?Main@CEnemyBase@@QAEHABVCEntityEvent@@@Z
       1781  6F4 000970E0 ?Main@CEnemyDive@@QAEHABVCEntityEvent@@@Z
       1782  6F5 00099310 ?Main@CEnemyFly@@QAEHABVCEntityEvent@@@Z
       1783  6F6 0009AF30 ?Main@CEnemyRunInto@@QAEHABVCEntityEvent@@@Z
       1784  6F7 000C6000 ?Main@CLarvaOffspring@@QAEHABVCEntityEvent@@@Z
       1785  6F8 000D91F0 ?Main@CNavigationMarker@@QAEHABVCEntityEvent@@@Z
       1786  6F9 000F6530 ?Main@CPlayer@@QAEHABVCEntityEvent@@@Z
       1787  6FA 000FBA00 ?Main@CPlayerAnimator@@QAEHABVCEntityEvent@@@Z
       1788  6FB 000FD520 ?Main@CPlayerView@@QAEHABVCEntityEvent@@@Z
       1789  6FC 001128D0 ?Main@CPlayerWeapons@@QAEHABVCEntityEvent@@@Z
       1790  6FD 0011FDB0 ?Main@CProjectile@@QAEHABVCEntityEvent@@@Z
       1791  6FE 00127E80 ?Main@CReminder@@QAEHABVCEntityEvent@@@Z
       1792  6FF 00135540 ?Main@CSpinner@@QAEHABVCEntityEvent@@@Z
       1793  700 0014BFD0 ?Main@CWatcher@@QAEHABVCEntityEvent@@@Z
       1794  701 00095220 ?MainLoop@CEnemyBase@@QAEHABVCEntityEvent@@@Z
       1795  702 00097080 ?MainLoop@CEnemyDive@@QAEHABVCEntityEvent@@@Z
       1796  703 000992B0 ?MainLoop@CEnemyFly@@QAEHABVCEntityEvent@@@Z
       1797  704 0009AED0 ?MainLoop@CEnemyRunInto@@QAEHABVCEntityEvent@@@Z
       1798  705 000B6360 ?MakeCopy@EActivate@@UAEPAVCEntityEvent@@XZ
       1799  706 000AD740 ?MakeCopy@EActivateBeam@@UAEPAVCEntityEvent@@XZ
       1800  707 0003BFA0 ?MakeCopy@EAmmoItem@@UAEPAVCEntityEvent@@XZ
       1801  708 0003D5D0 ?MakeCopy@EAmmoPackItem@@UAEPAVCEntityEvent@@XZ
       1802  709 000F8CB0 ?MakeCopy@EAnimatorInit@@UAEPAVCEntityEvent@@XZ
       1803  70A 00040920 ?MakeCopy@EArmor@@UAEPAVCEntityEvent@@XZ
       1804  70B 000DFA20 ?MakeCopy@EAutoAction@@UAEPAVCEntityEvent@@XZ
       1805  70C 000FF3C0 ?MakeCopy@EBoringWeapon@@UAEPAVCEntityEvent@@XZ
       1806  70D 000D27D0 ?MakeCopy@EBrushDestroyed@@UAEPAVCEntityEvent@@XZ
       1807  70E 0006E380 ?MakeCopy@EBrushDestroyedByDevil@@UAEPAVCEntityEvent@@XZ
       1808  70F 0004EEB0 ?MakeCopy@EBulletInit@@UAEPAVCEntityEvent@@XZ
       1809  710 000DF840 ?MakeCopy@ECameraStart@@UAEPAVCEntityEvent@@XZ
       1810  711 000DF8F0 ?MakeCopy@ECameraStop@@UAEPAVCEntityEvent@@XZ
       1811  712 000B6B40 ?MakeCopy@ECenterMessage@@UAEPAVCEntityEvent@@XZ
       1812  713 0003E400 ?MakeCopy@EChangeAnim@@UAEPAVCEntityEvent@@XZ
       1813  714 000B8700 ?MakeCopy@EChangeGravity@@UAEPAVCEntityEvent@@XZ
       1814  715 000D75C0 ?MakeCopy@EChangeMusic@@UAEPAVCEntityEvent@@XZ
       1815  716 000B6C50 ?MakeCopy@EComputerMessage@@UAEPAVCEntityEvent@@XZ
       1816  717 000B6A90 ?MakeCopy@ECredits@@UAEPAVCEntityEvent@@XZ
       1817  718 000B63A0 ?MakeCopy@EDeactivate@@UAEPAVCEntityEvent@@XZ
       1818  719 0006E460 ?MakeCopy@EDevilCommand@@UAEPAVCEntityEvent@@XZ
       1819  71A 0007DD10 ?MakeCopy@EDevilProjectile@@UAEPAVCEntityEvent@@XZ
       1820  71B 000DF9E0 ?MakeCopy@EDisconnected@@UAEPAVCEntityEvent@@XZ
       1821  71C 000388E0 ?MakeCopy@EElementalGrow@@UAEPAVCEntityEvent@@XZ
       1822  71D 000B6460 ?MakeCopy@EEnd@@UAEPAVCEntityEvent@@XZ
       1823  71E 000B63E0 ?MakeCopy@EEnvironmentStart@@UAEPAVCEntityEvent@@XZ
       1824  71F 000B6420 ?MakeCopy@EEnvironmentStop@@UAEPAVCEntityEvent@@XZ
       1825  720 000FF400 ?MakeCopy@EFireWeapon@@UAEPAVCEntityEvent@@XZ
       1826  721 000B2BE0 ?MakeCopy@EFlame@@UAEPAVCEntityEvent@@XZ
       1827  722 00055C50 ?MakeCopy@EForceExplode@@UAEPAVCEntityEvent@@XZ
       1828  723 00121DD0 ?MakeCopy@EForcePathMarker@@UAEPAVCEntityEvent@@XZ
       1829  724 0008A470 ?MakeCopy@EForceWound@@UAEPAVCEntityEvent@@XZ
       1830  725 0012FBA0 ?MakeCopy@EHarbor@@UAEPAVCEntityEvent@@XZ
       1831  726 000C0210 ?MakeCopy@EHealth@@UAEPAVCEntityEvent@@XZ
       1832  727 000D2790 ?MakeCopy@EHit@@UAEPAVCEntityEvent@@XZ
       1833  728 000B6E70 ?MakeCopy@EHitBySpaceShipBeam@@UAEPAVCEntityEvent@@XZ
       1834  729 000B69E0 ?MakeCopy@EHudPicFX@@UAEPAVCEntityEvent@@XZ
       1835  72A 000C3A20 ?MakeCopy@EKey@@UAEPAVCEntityEvent@@XZ
       1836  72B 000B6750 ?MakeCopy@EKilledEnemy@@UAEPAVCEntityEvent@@XZ
       1837  72C 000A5950 ?MakeCopy@ELarvaArmDestroyed@@UAEPAVCEntityEvent@@XZ
       1838  72D 000A59B0 ?MakeCopy@ELarvaRechargePose@@UAEPAVCEntityEvent@@XZ
       1839  72E 00055B90 ?MakeCopy@ELaunchCannonBall@@UAEPAVCEntityEvent@@XZ
       1840  72F 000C4FE0 ?MakeCopy@ELaunchLarvaOffspring@@UAEPAVCEntityEvent@@XZ
       1841  730 001158A0 ?MakeCopy@ELaunchProjectile@@UAEPAVCEntityEvent@@XZ
       1842  731 000C9DB0 ?MakeCopy@EMessageItem@@UAEPAVCEntityEvent@@XZ
       1843  732 00113D10 ?MakeCopy@EPowerUp@@UAEPAVCEntityEvent@@XZ
       1844  733 000CC0F0 ?MakeCopy@ERangeModelDestruction@@UAEPAVCEntityEvent@@XZ
       1845  734 000DF9A0 ?MakeCopy@ERebirth@@UAEPAVCEntityEvent@@XZ
       1846  735 000B66F0 ?MakeCopy@EReceiveScore@@UAEPAVCEntityEvent@@XZ
       1847  736 0008A430 ?MakeCopy@EReconsiderBehavior@@UAEPAVCEntityEvent@@XZ
       1848  737 0006E420 ?MakeCopy@ERegenerationImpuls@@UAEPAVCEntityEvent@@XZ
       1849  738 000FF440 ?MakeCopy@EReleaseWeapon@@UAEPAVCEntityEvent@@XZ
       1850  739 000FF480 ?MakeCopy@EReloadWeapon@@UAEPAVCEntityEvent@@XZ
       1851  73A 000B6590 ?MakeCopy@EReminder@@UAEPAVCEntityEvent@@XZ
       1852  73B 00127D70 ?MakeCopy@EReminderInit@@UAEPAVCEntityEvent@@XZ
       1853  73C 0008A3F0 ?MakeCopy@ERestartAttack@@UAEPAVCEntityEvent@@XZ
       1854  73D 000B6880 ?MakeCopy@EScroll@@UAEPAVCEntityEvent@@XZ
       1855  73E 000B6790 ?MakeCopy@ESecretFound@@UAEPAVCEntityEvent@@XZ
       1856  73F 000FF360 ?MakeCopy@ESelectWeapon@@UAEPAVCEntityEvent@@XZ
       1857  740 0012EB10 ?MakeCopy@ESeriousBomb@@UAEPAVCEntityEvent@@XZ
       1858  741 000B67D0 ?MakeCopy@ESound@@UAEPAVCEntityEvent@@XZ
       1859  742 00068070 ?MakeCopy@ESpawnDebris@@UAEPAVCEntityEvent@@XZ
       1860  743 00042A30 ?MakeCopy@ESpawnEffect@@UAEPAVCEntityEvent@@XZ
       1861  744 00082120 ?MakeCopy@ESpawnEffector@@UAEPAVCEntityEvent@@XZ
       1862  745 0004B510 ?MakeCopy@ESpawnSpray@@UAEPAVCEntityEvent@@XZ
       1863  746 001346B0 ?MakeCopy@ESpawnerProjectile@@UAEPAVCEntityEvent@@XZ
       1864  747 001352F0 ?MakeCopy@ESpinnerInit@@UAEPAVCEntityEvent@@XZ
       1865  748 000B62B0 ?MakeCopy@EStart@@UAEPAVCEntityEvent@@XZ
       1866  749 000B65F0 ?MakeCopy@EStartAttack@@UAEPAVCEntityEvent@@XZ
       1867  74A 000B6270 ?MakeCopy@EStop@@UAEPAVCEntityEvent@@XZ
       1868  74B 000B6630 ?MakeCopy@EStopAttack@@UAEPAVCEntityEvent@@XZ
       1869  74C 000B6670 ?MakeCopy@EStopBlindness@@UAEPAVCEntityEvent@@XZ
       1870  74D 000B66B0 ?MakeCopy@EStopDeafness@@UAEPAVCEntityEvent@@XZ
       1871  74E 000B2CC0 ?MakeCopy@EStopFlaming@@UAEPAVCEntityEvent@@XZ
       1872  74F 00138C20 ?MakeCopy@ESummonerTeleport@@UAEPAVCEntityEvent@@XZ
       1873  750 000B6550 ?MakeCopy@ETeleportMovingBrush@@UAEPAVCEntityEvent@@XZ
       1874  751 000B6930 ?MakeCopy@ETextFX@@UAEPAVCEntityEvent@@XZ
       1875  752 000B64A0 ?MakeCopy@ETrigger@@UAEPAVCEntityEvent@@XZ
       1876  753 00146EC0 ?MakeCopy@ETwister@@UAEPAVCEntityEvent@@XZ
       1877  754 000FC870 ?MakeCopy@EViewInit@@UAEPAVCEntityEvent@@XZ
       1878  755 000B6D60 ?MakeCopy@EVoiceMessage@@UAEPAVCEntityEvent@@XZ
       1879  756 0014B2F0 ?MakeCopy@EWatch@@UAEPAVCEntityEvent@@XZ
       1880  757 0014B240 ?MakeCopy@EWatcherInit@@UAEPAVCEntityEvent@@XZ
       1881  758 0014D830 ?MakeCopy@EWater@@UAEPAVCEntityEvent@@XZ
       1882  759 000FF4C0 ?MakeCopy@EWeaponChanged@@UAEPAVCEntityEvent@@XZ
       1883  75A 00112E80 ?MakeCopy@EWeaponEffectInit@@UAEPAVCEntityEvent@@XZ
       1884  75B 0014EB30 ?MakeCopy@EWeaponItem@@UAEPAVCEntityEvent@@XZ
       1885  75C 000FF2B0 ?MakeCopy@EWeaponsInit@@UAEPAVCEntityEvent@@XZ
       1886  75D 0011A9A0 ?MantamanProjectile@CProjectile@@QAEXXZ
       1887  75E 000C2A40 ?MarkPickedBy@CItem@@QAEHPAVCEntity@@@Z
       1888  75F 0008F890 ?MayMoveToAttack@CEnemyBase@@UAEHXZ
       1889  760 00096EF0 ?MayMoveToAttack@CEnemyDive@@UAEHXZ
       1890  761 0008ABE0 ?MaybeSwitchToAnotherPlayer@CEnemyBase@@QAEXXZ
       1891  762 001E63A0 ?MessageSound_enum@@3VCEntityPropertyEnumType@@A
       1892  763 001E6390 ?MessageSound_values@@3PAVCEntityPropertyEnumValue@@A
       1893  764 0011C790 ?Meteor@CProjectile@@QAEXXZ
       1894  765 0011C930 ?MeteorExplosion@CProjectile@@QAEXXZ
       1895  766 001089A0 ?MiniGunBoring@CPlayerWeapons@@QAEMXZ
       1896  767 0010E6A0 ?MiniGunFire@CPlayerWeapons@@QAEHABVCEntityEvent@@@Z
       1897  768 0010EE10 ?MiniGunSpinDown@CPlayerWeapons@@QAEHABVCEntityEvent@@@Z
       1898  769 0010E2C0 ?MiniGunSpinUp@CPlayerWeapons@@QAEHABVCEntityEvent@@@Z
       1899  76A 00108E00 ?MinigunSmoke@CPlayerWeapons@@QAEXXZ
       1900  76B 00091280 ?MoveThroughMarkers@CEnemyBase@@QAEHABVCEntityEvent@@@Z
       1901  76C 00090750 ?MoveToDestination@CEnemyBase@@QAEHABVCEntityEvent@@@Z
       1902  76D 000909F0 ?MoveToRandomPatrolPosition@CEnemyBase@@QAEHABVCEntityEvent@@@Z
       1903  76E 0008D330 ?MovementAnimation@CEnemyBase@@UAEXK@Z
       1904  76F 0008BCF0 ?MovesByTargetedRoute@CEnemyBase@@UBEHAAVCTString@@@Z
       1905  770 000D9110 ?MovesByTargetedRoute@CNavigationMarker@@UBEHAAVCTString@@@Z
       1906  771 001EC2F8 ?MusicType_enum@@3VCEntityPropertyEnumType@@A
       1907  772 001EC2D0 ?MusicType_values@@3PAVCEntityPropertyEnumValue@@A
       1908  773 00091B50 ?NewEnemySpotted@CEnemyBase@@QAEHABVCEntityEvent@@@Z
       1909  774 00006120 ?NewMessage@CCompMessageID@@QAEXABVCTFileName@@@Z
       1910  775 000FB5B0 ?OnPreRender@CPlayerAnimator@@QAEXXZ
       1911  776 00035930 ?PATH_FindFirstMarker@@YAXPAVCEntity@@ABV?$Vector@M$02@@1AAPAV1@AAV2@@Z
       1912  777 00035AE0 ?PATH_FindNextMarker@@YAXPAVCEntity@@ABV?$Vector@M$02@@1AAPAV1@AAV2@@Z
       1913  778 001F73B0 ?PSSState_enum@@3VCEntityPropertyEnumType@@A
       1914  779 001F7380 ?PSSState_values@@3PAVCEntityPropertyEnumValue@@A
       1915  77A 000E2EB0 ?ParseGender@CPlayer@@QAEXAAVCTString@@@Z
       1916  77B 001E6420 ?ParticleTexture_enum@@3VCEntityPropertyEnumType@@A
       1917  77C 001E63A8 ?ParticleTexture_values@@3PAVCEntityPropertyEnumValue@@A
       1918  77D 001EC7E0 ?ParticlesHolderType_enum@@3VCEntityPropertyEnumType@@A
       1919  77E 001EC748 ?ParticlesHolderType_values@@3PAVCEntityPropertyEnumValue@@A
       1920  77F 0002DB30 ?Particles_AfterBurner@@YAXPAVCEntity@@MMJ@Z
       1921  780 0002DB20 ?Particles_AfterBurner_Prepare@@YAXPAVCEntity@@@Z
       1922  781 000328F0 ?Particles_AirElemental@@YAXPAVCEntity@@MMMK@Z
       1923  782 000325E0 ?Particles_AirElementalBlow@@YAXAAVCEmiter@@@Z
       1924  783 00033CF0 ?Particles_AirElemental_Comp@@YAXPAVCModelObject@@MMVCPlacement3D@@@Z
       1925  784 0002BF10 ?Particles_Appearing@@YAXPAVCEntity@@M@Z
       1926  785 00025AE0 ?Particles_Atomic@@YAXPAVCEntity@@MMW4ParticleTexture@@J@Z
       1927  786 0001EC20 ?Particles_BeastBigProjectileTrail@@YAXPAVCEntity@@MMMJ@Z
       1928  787 0001EC10 ?Particles_BeastBigProjectileTrail_Prepare@@YAXPAVCEntity@@@Z
       1929  788 0001E510 ?Particles_BeastProjectileDebrisTrail@@YAXPAVCEntity@@M@Z
       1930  789 0001E500 ?Particles_BeastProjectileDebrisTrail_Prepare@@YAXPAVCEntity@@@Z
       1931  78A 0001E6A0 ?Particles_BeastProjectileTrail@@YAXPAVCEntity@@MMJ@Z
       1932  78B 0001E690 ?Particles_BeastProjectileTrail_Prepare@@YAXPAVCEntity@@@Z
       1933  78C 0002C0F0 ?Particles_BloodSpray@@YAXW4SprayParticlesType@@V?$Vector@M$02@@1MV?$AABBox@M$02@@1MMK@Z
       1934  78D 000217A0 ?Particles_BloodTrail@@YAXPAVCEntity@@@Z
       1935  78E 0001D340 ?Particles_BombTrail@@YAXPAVCEntity@@@Z
       1936  78F 0001D330 ?Particles_BombTrail_Prepare@@YAXPAVCEntity@@@Z
       1937  790 0002B980 ?Particles_BrushBurning@@YAXPAVCEntity@@QAV?$Vector@M$02@@JV2@MM@Z
       1938  791 00029390 ?Particles_BulletSpray@@YAXJV?$Vector@M$02@@0W4EffectParticlesType@@M0M@Z
       1939  792 0002B330 ?Particles_Burning@@YAXPAVCEntity@@MM@Z
       1940  793 0002B6A0 ?Particles_Burning_Comp@@YAXPAVCModelObject@@MVCPlacement3D@@@Z
       1941  794 0001E050 ?Particles_CannonBall@@YAXPAVCEntity@@M@Z
       1942  795 0001E040 ?Particles_CannonBall_Prepare@@YAXPAVCEntity@@@Z
       1943  796 00020BA0 ?Particles_ChimneySmoke@@YAXPAVCEntity@@JMM@Z
       1944  797 00030DD0 ?Particles_CollectEnergy@@YAXPAVCEntity@@MM@Z
       1945  798 0001D910 ?Particles_ColoredStarsTrail@@YAXPAVCEntity@@@Z
       1946  799 000244E0 ?Particles_DamageSmoke@@YAXPAVCEntity@@MV?$AABBox@M$02@@M@Z
       1947  79A 0002AE80 ?Particles_Death@@YAXPAVCEntity@@M@Z
       1948  79B 0002CF70 ?Particles_DestroyingObelisk@@YAXPAVCEntity@@M@Z
       1949  79C 0002D300 ?Particles_DestroyingPylon@@YAXPAVCEntity@@V?$Vector@M$02@@M@Z
       1950  79D 00031D60 ?Particles_DisappearDust@@YAXPAVCEntity@@MM@Z
       1951  79E 00024B80 ?Particles_DustFall@@YAXPAVCEntity@@MV?$Vector@M$02@@@Z
       1952  79F 00025470 ?Particles_ElectricitySparks@@YAXPAVCEntity@@MMMJ@Z
       1953  7A0 000236F0 ?Particles_Emanate@@YAXPAVCEntity@@MMW4ParticleTexture@@JM@Z
       1954  7A1 00023DD0 ?Particles_EmanatePlane@@YAXPAVCEntity@@MMMMMMW4ParticleTexture@@JM@Z
       1955  7A2 00029D80 ?Particles_EmptyShells@@YAXPAVCEntity@@PAUShellLaunchData@@@Z
       1956  7A3 0002FF20 ?Particles_ExotechLarvaLaser@@YAXPAVCEntity@@V?$Vector@M$02@@1@Z
       1957  7A4 0001F610 ?Particles_ExplosionDebris1@@YAXPAVCEntity@@MV?$Vector@M$02@@K@Z
       1958  7A5 0001FAD0 ?Particles_ExplosionDebris2@@YAXPAVCEntity@@MV?$Vector@M$02@@K@Z
       1959  7A6 0001FF30 ?Particles_ExplosionDebris3@@YAXPAVCEntity@@MV?$Vector@M$02@@K@Z
       1960  7A7 000206F0 ?Particles_ExplosionSmoke@@YAXPAVCEntity@@MV?$Vector@M$02@@K@Z
       1961  7A8 00021A10 ?Particles_FireBreath@@YAJPAVCEntity@@V?$Vector@M$02@@1MM@Z
       1962  7A9 0001DB60 ?Particles_Fireball01Trail@@YAXPAVCEntity@@@Z
       1963  7AA 0001DB50 ?Particles_Fireball01Trail_Prepare@@YAXPAVCEntity@@@Z
       1964  7AB 0001D590 ?Particles_FirecrackerTrail@@YAXPAVCEntity@@@Z
       1965  7AC 0001D580 ?Particles_FirecrackerTrail_Prepare@@YAXPAVCEntity@@@Z
       1966  7AD 00034E60 ?Particles_Fireworks01@@YAXAAVCEmiter@@@Z
       1967  7AE 000225D0 ?Particles_FlameThrower@@YAXABVCPlacement3D@@0V?$Vector@M$02@@1MMJH@Z
       1968  7AF 000228A0 ?Particles_FlameThrowerStart@@YAXABVCPlacement3D@@MM@Z
       1969  7B0 00024180 ?Particles_Fountain@@YAXPAVCEntity@@MMW4ParticleTexture@@J@Z
       1970  7B1 000263C0 ?Particles_Ghostbuster@@YAXABV?$Vector@M$02@@0JMMM@Z
       1971  7B2 0001DD90 ?Particles_GrenadeTrail@@YAXPAVCEntity@@@Z
       1972  7B3 0001DD80 ?Particles_GrenadeTrail_Prepare@@YAXPAVCEntity@@@Z
       1973  7B4 00031D70 ?Particles_GrowingSwirl@@YAXPAVCEntity@@MM@Z
       1974  7B5 00027280 ?Particles_Growth@@YAXPAVCEntity@@PAVCTextureData@@AAV?$AABBox@M$02@@0J@Z
       1975  7B6 0002D780 ?Particles_HitGround@@YAXPAVCEntity@@MM@Z
       1976  7B7 00033490 ?Particles_LarvaEnergy@@YAXPAVCEntity@@V?$Vector@M$02@@@Z
       1977  7B8 0001E320 ?Particles_LavaBombTrail@@YAXPAVCEntity@@M@Z
       1978  7B9 0001E310 ?Particles_LavaBombTrail_Prepare@@YAXPAVCEntity@@@Z
       1979  7BA 00025970 ?Particles_LavaErupting@@YAXPAVCEntity@@MMMMMM@Z
       1980  7BB 00028F90 ?Particles_LavaFlow@@YAXPAVCEntity@@MMMMMJ@Z
       1981  7BC 0001E190 ?Particles_LavaTrail@@YAXPAVCEntity@@@Z
       1982  7BD 0001E180 ?Particles_LavaTrail_Prepare@@YAXPAVCEntity@@@Z
       1983  7BE 00032E00 ?Particles_Leaves@@YAXPAVCEntity@@V?$AABBox@M$02@@V?$Vector@M$02@@MM2MMK@Z
       1984  7BF 00028700 ?Particles_Lightning@@YAXV?$Vector@M$02@@0M@Z
       1985  7C0 00025120 ?Particles_MetalParts@@YAXPAVCEntity@@MV?$AABBox@M$02@@M@Z
       1986  7C1 00032C50 ?Particles_MeteorTrail@@YAXPAVCEntity@@MMV?$Vector@M$02@@@Z
       1987  7C2 00034150 ?Particles_ModelGlow2@@YAXPAVCModelObject@@VCPlacement3D@@MW4ParticleTexture@@MMMK@Z
       1988  7C3 00033FE0 ?Particles_ModelGlow@@YAXPAVCEntity@@MW4ParticleTexture@@MMMK@Z
       1989  7C4 00025F40 ?Particles_PowerUpIndicator@@YAXPAVCEntity@@W4ParticleTexture@@MMMJJ@Z
       1990  7C5 00027860 ?Particles_Rain@@YAXPAVCEntity@@MJMPAVCTextureData@@AAV?$AABBox@M$02@@@Z
       1991  7C6 00021DA0 ?Particles_Regeneration@@YAJPAVCEntity@@MMMH@Z
       1992  7C7 00023120 ?Particles_Rising@@YAXPAVCEntity@@MMMMMMMW4ParticleTexture@@J@Z
       1993  7C8 0002E750 ?Particles_RocketMotorBurning@@YAXPAVCEntity@@MV?$Vector@M$02@@MM@Z
       1994  7C9 0001F230 ?Particles_RocketTrail@@YAXPAVCEntity@@M@Z
       1995  7CA 0001F220 ?Particles_RocketTrail_Prepare@@YAXPAVCEntity@@@Z
       1996  7CB 0001D1E0 ?Particles_RomboidTrail@@YAXPAVCEntity@@@Z
       1997  7CC 000342C0 ?Particles_RunAfterBurner@@YAXPAVCEntity@@MMJ@Z
       1998  7CD 000247F0 ?Particles_RunningDust@@YAXPAVCEntity@@@Z
       1999  7CE 000247E0 ?Particles_RunningDust_Prepare@@YAXPAVCEntity@@@Z
       2000  7CF 000287B0 ?Particles_SandFlow@@YAXPAVCEntity@@MMMMMJ@Z
       2001  7D0 00022C80 ?Particles_ShooterFlame@@YAXABVCPlacement3D@@0MM@Z
       2002  7D1 000300D0 ?Particles_Smoke@@YAXPAVCEntity@@V?$Vector@M$02@@JMMMM@Z
       2003  7D2 000321E0 ?Particles_SniperResidue@@YAXPAVCEntity@@V?$Vector@M$02@@1@Z
       2004  7D3 00027C30 ?Particles_Snow@@YAXPAVCEntity@@MJMPAVCTextureData@@AAV?$AABBox@M$02@@M@Z
       2005  7D4 00023480 ?Particles_Spiral@@YAXPAVCEntity@@MMW4ParticleTexture@@J@Z
       2006  7D5 0001D7E0 ?Particles_SpiralTrail@@YAXPAVCEntity@@@Z
       2007  7D6 00022EE0 ?Particles_Stardust@@YAXPAVCEntity@@MMW4ParticleTexture@@J@Z
       2008  7D7 00031630 ?Particles_SummonerDisappear@@YAXPAVCEntity@@M@Z
       2009  7D8 0002F350 ?Particles_SummonerExplode@@YAXPAVCEntity@@V?$Vector@M$02@@MMMM@Z
       2010  7D9 0002F0F0 ?Particles_SummonerProjectileExplode@@YAXPAVCEntity@@MMMM@Z
       2011  7DA 00032380 ?Particles_SummonerStaff@@YAXAAVCEmiter@@@Z
       2012  7DB 0002F530 ?Particles_Twister@@YAXPAVCEntity@@MMMM@Z
       2013  7DC 0001CE60 ?Particles_ViewerLocal@@YAXPAVCEntity@@@Z
       2014  7DD 00028BA0 ?Particles_WaterFlow@@YAXPAVCEntity@@MMMMMJ@Z
       2015  7DE 00020F90 ?Particles_Waterfall@@YAXPAVCEntity@@JMMMMMMM@Z
       2016  7DF 00023A00 ?Particles_WaterfallFoam@@YAXPAVCEntity@@MMMMMMMJ@Z
       2017  7E0 0001DA20 ?Particles_WhiteLineTrail@@YAXPAVCEntity@@@Z
       2018  7E1 000304B0 ?Particles_Windblast@@YAXPAVCEntity@@MM@Z
       2019  7E2 000923F0 ?PerformAttack@CEnemyBase@@QAEHABVCEntityEvent@@@Z
       2020  7E3 001086A0 ?PlayDefaultAnim@CPlayerWeapons@@QAEXXZ
       2021  7E4 000E6580 ?PlayLightAnim@CPlayer@@QAEXJK@Z
       2022  7E5 00103020 ?PlayLightAnim@CPlayerWeapons@@QAEXJK@Z
       2023  7E6 000EB900 ?PlayPowerUpSound@CPlayer@@QAEXXZ
       2024  7E7 001F09A8 ?PlayerAutoAction_enum@@3VCEntityPropertyEnumType@@A
       2025  7E8 001F08C8 ?PlayerAutoAction_values@@3PAVCEntityPropertyEnumValue@@A
       2026  7E9 0008ADC0 ?PlayerDestinationPos@CEnemyBase@@UAE?AV?$Vector@M$02@@XZ
       2027  7EA 00097E30 ?PlayerDestinationPos@CEnemyFly@@UAE?AV?$Vector@M$02@@XZ
       2028  7EB 00117900 ?PlayerFlame@CProjectile@@QAEXXZ
       2029  7EC 001174B0 ?PlayerGrenade@CProjectile@@QAEXXZ
       2030  7ED 00117630 ?PlayerGrenadeExplosion@CProjectile@@QAEXXZ
       2031  7EE 00117A90 ?PlayerLaserRay@CProjectile@@QAEXXZ
       2032  7EF 00117BA0 ?PlayerLaserWave@CProjectile@@QAEXXZ
       2033  7F0 00116EA0 ?PlayerRocket@CProjectile@@QAEXXZ
       2034  7F1 001171B0 ?PlayerRocketExplosion@CProjectile@@QAEXXZ
       2035  7F2 001ED070 ?PlayerState_enum@@3VCEntityPropertyEnumType@@A
       2036  7F3 001ED048 ?PlayerState_values@@3PAVCEntityPropertyEnumValue@@A
       2037  7F4 001ED040 ?PlayerViewType_enum@@3VCEntityPropertyEnumType@@A
       2038  7F5 001ED020 ?PlayerViewType_values@@3PAVCEntityPropertyEnumValue@@A
       2039  7F6 00055E30 ?PostMoving@CCannonBall@@UAEXXZ
       2040  7F7 00096C30 ?PostMoving@CEnemyDive@@UAEXXZ
       2041  7F8 000E8210 ?PostMoving@CPlayer@@UAEXXZ
       2042  7F9 000FCAA0 ?PostMoving@CPlayerView@@UAEXXZ
       2043  7FA 00116290 ?PostMoving@CProjectile@@UAEXXZ
       2044  7FB 0009AE70 ?PostRunAwayFromEnemy@CEnemyRunInto@@QAEHABVCEntityEvent@@@Z
       2045  7FC 001F5090 ?PowerUpItemType_enum@@3VCEntityPropertyEnumType@@A
       2046  7FD 001F5068 ?PowerUpItemType_values@@3PAVCEntityPropertyEnumValue@@A
       2047  7FE 000951C0 ?PreMainLoop@CEnemyBase@@QAEHABVCEntityEvent@@@Z
       2048  7FF 00055DD0 ?PreMoving@CCannonBall@@UAEXXZ
       2049  800 000C5160 ?PreMoving@CLarvaOffspring@@UAEXXZ
       2050  801 000E81B0 ?PreMoving@CPlayer@@UAEXXZ
       2051  802 000FCA70 ?PreMoving@CPlayerView@@UAEXXZ
       2052  803 00116230 ?PreMoving@CProjectile@@UAEXXZ
       2053  804 000EA7E0 ?PreapplyAction@CPlayer@@QAEXABVCPlayerAction@@@Z
       2054  805 0008ACE0 ?Precache@CEnemyBase@@UAEXXZ
       2055  806 000C51C0 ?Precache@CLarvaOffspring@@UAEXXZ
       2056  807 000F9340 ?Precache@CPlayerAnimator@@UAEXXZ
       2057  808 00101030 ?Precache@CPlayerWeapons@@UAEXXZ
       2058  809 001057F0 ?PrepareBullet@CPlayerWeapons@@QAEXMMM@Z
       2059  80A 0008EEB0 ?PrepareFreeFlyingProjectile@CEnemyBase@@QAEXAAVCPlacement3D@@V?$Vector@M$02@@AAV3@2@Z
       2060  80B 0008EA30 ?PreparePropelledProjectile@CEnemyBase@@QAEXAAVCPlacement3D@@V?$Vector@M$02@@AAV3@2@Z
       2061  80C 001056D0 ?PrepareSniperBullet@CPlayerWeapons@@QAEXMMMM@Z
       2062  80D 00108BC0 ?PrimaryToSecondary@CPlayerWeapons@@QAE?AW4WeaponType@@W42@@Z
       2063  80E 0000C3F0 ?PrintCenterMessage@@YAXPAVCEntity@@0ABVCTString@@MW4MessageSound@@@Z
       2064  80F 0000B8E0 ?PrintConsole@@YAPBDXZ
       2065  810 0000B8F0 ?PrintStack@@YAPBDPAVCEntity@@@Z
       2066  811 0011DAF0 ?ProjectileFly@CProjectile@@QAEHABVCEntityEvent@@@Z
       2067  812 0011F870 ?ProjectileFlyRebounding@CProjectile@@QAEHABVCEntityEvent@@@Z
       2068  813 0011E4F0 ?ProjectileGuidedFastFly@CProjectile@@QAEHABVCEntityEvent@@@Z
       2069  814 0011DE50 ?ProjectileGuidedFly@CProjectile@@QAEHABVCEntityEvent@@@Z
       2070  815 0011ED70 ?ProjectileGuidedSlide@CProjectile@@QAEHABVCEntityEvent@@@Z
       2071  816 000C57E0 ?ProjectileHit@CLarvaOffspring@@QAEXXZ
       2072  817 0011D7D0 ?ProjectileHit@CProjectile@@QAEXXZ
       2073  818 001F57D0 ?ProjectileMovingType_enum@@3VCEntityPropertyEnumType@@A
       2074  819 001F57A0 ?ProjectileMovingType_values@@3PAVCEntityPropertyEnumValue@@A
       2075  81A 0011F3C0 ?ProjectileSlide@CProjectile@@QAEHABVCEntityEvent@@@Z
       2076  81B 000C5680 ?ProjectileTouch@CLarvaOffspring@@QAEXVCEntityPointer@@@Z
       2077  81C 0011D500 ?ProjectileTouch@CProjectile@@QAEXVCEntityPointer@@@Z
       2078  81D 001F5798 ?ProjectileType_enum@@3VCEntityPropertyEnumType@@A
       2079  81E 001F5618 ?ProjectileType_values@@3PAVCEntityPropertyEnumValue@@A
       2080  81F 001097D0 ?PutDown@CPlayerWeapons@@QAEHABVCEntityEvent@@@Z
       2081  820 00056640 ?RangeDamage@CCannonBall@@QAEXXZ
       2082  821 00055F10 ?Read_t@CCannonBall@@UAEXPAVCTStream@@@Z
       2083  822 00006080 ?Read_t@CCompMessageID@@QAEXAAVCTStream@@@Z
       2084  823 0000EFA0 ?Read_t@CEmiter@@QAEXAAVCTStream@@@Z
       2085  824 0000EB30 ?Read_t@CEmittedParticle@@QAEXAAVCTStream@@@Z
       2086  825 0008BF60 ?Read_t@CEnemyBase@@UAEXPAVCTStream@@@Z
       2087  826 000D8FE0 ?Read_t@CNavigationMarker@@UAEXPAVCTStream@@@Z
       2088  827 000E3160 ?Read_t@CPlayer@@UAEXPAVCTStream@@@Z
       2089  828 000F9320 ?Read_t@CPlayerAnimator@@UAEXPAVCTStream@@@Z
       2090  829 00116320 ?Read_t@CProjectile@@UAEXPAVCTStream@@@Z
       2091  82A 000F12F0 ?Rebirth@CPlayer@@QAEHABVCEntityEvent@@@Z
       2092  82B 001076F0 ?ReceiveAmmo@CPlayerWeapons@@QAEHABVCEntityEvent@@@Z
       2093  82C 000E5F80 ?ReceiveComputerMessage@CPlayer@@QAEXABVCTFileName@@K@Z
       2094  82D 0008C0B0 ?ReceiveDamage@CEnemyBase@@UAEXPAVCEntity@@W4DamageType@@MABV?$Vector@M$02@@2@Z
       2095  82E 000E9270 ?ReceiveDamage@CPlayer@@UAEXPAVCEntity@@W4DamageType@@MABV?$Vector@M$02@@2@Z
       2096  82F 0011DA80 ?ReceiveDamage@CProjectile@@UAEXPAVCEntity@@W4DamageType@@MABV?$Vector@M$02@@2@Z
       2097  830 000E9C50 ?ReceiveItem@CPlayer@@UAEHABVCEntityEvent@@@Z
       2098  831 00107DF0 ?ReceivePackAmmo@CPlayerWeapons@@QAEHABVCEntityEvent@@@Z
       2099  832 00106F60 ?ReceiveWeapon@CPlayerWeapons@@QAEHABVCEntityEvent@@@Z
       2100  833 000EF8F0 ?RecordEndOfLevelData@CPlayer@@QAEXXZ
       2101  834 00111E00 ?Reload@CPlayerWeapons@@QAEHABVCEntityEvent@@@Z
       2102  835 0010B810 ?ReloadColt@CPlayerWeapons@@QAEHABVCEntityEvent@@@Z
       2103  836 0010BE50 ?ReloadDoubleColt@CPlayerWeapons@@QAEHABVCEntityEvent@@@Z
       2104  837 000EED50 ?RemapLevelNames@CPlayer@@QAEXAAJ@Z
       2105  838 000FB940 ?ReminderAction@CPlayerAnimator@@QAEHABVCEntityEvent@@@Z
       2106  839 00007400 ?RemoveAttachmentFromModel@@YAXAAVCModelObject@@J@Z
       2107  83A 0008CD70 ?RemoveFromFuss@CEnemyBase@@QAEXXZ
       2108  83B 000FB2A0 ?RemoveWeapon@CPlayerAnimator@@QAEXXZ
       2109  83C 000E7C40 ?RenderCameraView@CPlayer@@QAEXPAVCDrawPort@@H@Z
       2110  83D 000EE2B0 ?RenderChainsawParticles@CPlayer@@QAEXH@Z
       2111  83E 000E6F80 ?RenderCredits@CPlayer@@QAEXPAVCDrawPort@@@Z
       2112  83F 00102660 ?RenderCrosshair@CPlayerWeapons@@QAEXAAVCProjection3D@@PAVCDrawPort@@AAVCPlacement3D@@@Z
       2113  840 000E7660 ?RenderDummyView@CPlayer@@QAEXPAVCDrawPort@@@Z
       2114  841 000E7F00 ?RenderGameView@CPlayer@@UAEXPAVCDrawPort@@PAX@Z
       2115  842 000EE480 ?RenderHUD@CPlayer@@QAEXAAVCPerspectiveProjection3D@@PAVCDrawPort@@V?$Vector@M$02@@KKH@Z
       2116  843 000E6FE0 ?RenderHudPicFX@CPlayer@@QAEXPAVCDrawPort@@@Z
       2117  844 00055F90 ?RenderParticles@CCannonBall@@UAEXXZ
       2118  845 0000EF70 ?RenderParticles@CEmiter@@QAEXXZ
       2119  846 00090590 ?RenderParticles@CEnemyBase@@UAEXXZ
       2120  847 000EFC30 ?RenderParticles@CPlayer@@UAEXXZ
       2121  848 000FCB00 ?RenderParticles@CPlayerView@@UAEXXZ
       2122  849 00116740 ?RenderParticles@CProjectile@@UAEXXZ
       2123  84A 000E7790 ?RenderPlayerView@CPlayer@@QAEXPAVCDrawPort@@H@Z
       2124  84B 000E6F50 ?RenderScroll@CPlayer@@QAEXPAVCDrawPort@@@Z
       2125  84C 000E6FB0 ?RenderTextFX@CPlayer@@QAEXPAVCDrawPort@@@Z
       2126  84D 001010F0 ?RenderWeaponModel@CPlayerWeapons@@QAEXAAVCPerspectiveProjection3D@@PAVCDrawPort@@V?$Vector@M$02@@KKH@Z
       2127  84E 001064E0 ?ResetWeaponMovingOffset@CPlayerWeapons@@QAEXXZ
       2128  84F 00091220 ?ReturnToStartPosition@CEnemyBase@@QAEHABVCEntityEvent@@@Z
       2129  850 00098310 ?ReturnToStartPosition@CEnemyFly@@QAEHABVCEntityEvent@@@Z
       2130  851 000FAF80 ?Rise@CPlayerAnimator@@QAEXXZ
       2131  852 00108A00 ?RocketLauncherBoring@CPlayerWeapons@@QAEMXZ
       2132  853 00103920 ?RotateMinigun@CPlayerWeapons@@QAEXXZ
       2133  854 0009A160 ?RotateToEnemy@CEnemyRunInto@@QAEHABVCEntityEvent@@@Z
       2134  855 000904D0 ?RotatingAnim@CEnemyBase@@UAEXXZ
       2135  856 000EC860 ?RoundViewAngle@CPlayer@@QAEXAAMM@Z
       2136  857 0009AA00 ?RunAwayFromEnemy@CEnemyRunInto@@QAEHABVCEntityEvent@@@Z
       2137  858 0009A490 ?RunIntoEnemy@CEnemyRunInto@@QAEHABVCEntityEvent@@@Z
       2138  859 000904C0 ?RunningAnim@CEnemyBase@@UAEXXZ
       2139  85A 000E60C0 ?SayVoiceMessage@CPlayer@@QAEXABVCTFileName@@@Z
       2140  85B 001F84C0 ?ScorpmanType_enum@@3VCEntityPropertyEnumType@@A
       2141  85C 001F84A8 ?ScorpmanType_values@@3PAVCEntityPropertyEnumValue@@A
       2142  85D 00108C20 ?SecondaryToPrimary@CPlayerWeapons@@QAE?AW4WeaponType@@W42@@Z
       2143  85E 0008E9C0 ?SeeEntity@CEnemyBase@@QAEHPAVCEntity@@M@Z
       2144  85F 0008E9F0 ?SeeEntityInPlane@CEnemyBase@@QAEHPAVCEntity@@M@Z
       2145  860 000903A0 ?SeeNotify@CEnemyBase@@QAEXXZ
       2146  861 00108460 ?SelectNewWeapon@CPlayerWeapons@@QAEXXZ
       2147  862 00108D00 ?SelectWeaponChange@CPlayerWeapons@@QAEXJ@Z
       2148  863 000065E0 ?SendInRange@@YAXPAVCEntity@@W4EventEType@@ABV?$AABBox@M$02@@@Z
       2149  864 000063F0 ?SendToTarget@@YAXPAVCEntity@@W4EventEType@@0@Z
       2150  865 0014B590 ?SendWatchEvent@CWatcher@@QAEXPAVCEntity@@@Z
       2151  866 000F94D0 ?SetAttachment@CPlayerAnimator@@QAEXJ@Z
       2152  867 000F9F00 ?SetBodyAnimation@CPlayerAnimator@@QAEXJK@Z
       2153  868 000063C0 ?SetBoolFromBoolEType@@YAXAAHW4BoolEType@@@Z
       2154  869 000FCB20 ?SetCameraPosition@CPlayerView@@QAEXXZ
       2155  86A 00007320 ?SetComponents@@YAXPAVCEntity@@AAVCModelObject@@KKKKK@Z
       2156  86B 000F93B0 ?SetComponents@CPlayerAnimator@@QAEXPAVCModelObject@@KKKKK@Z
       2157  86C 000E8430 ?SetConnected@CPlayer@@QAEXXZ
       2158  86D 00103050 ?SetCurrentWeaponModel@CPlayerWeapons@@QAEXXZ
       2159  86E 0004F0C0 ?SetDamage@CBullet@@QAEXM@Z
       2160  86F 000E6AE0 ?SetDefaultMouthPitch@CPlayer@@QAEXXZ
       2161  870 00038920 ?SetDefaultProperties@CAirElemental@@UAEXXZ
       2162  871 0003C000 ?SetDefaultProperties@CAmmoItem@@UAEXXZ
       2163  872 0003D660 ?SetDefaultProperties@CAmmoPack@@UAEXXZ
       2164  873 0003E4B0 ?SetDefaultProperties@CAnimationChanger@@UAEXXZ
       2165  874 0003F320 ?SetDefaultProperties@CAnimationHub@@UAEXXZ
       2166  875 000400D0 ?SetDefaultProperties@CAreaMarker@@UAEXXZ
       2167  876 00040980 ?SetDefaultProperties@CArmorItem@@UAEXXZ
       2168  877 00041960 ?SetDefaultProperties@CBackgroundViewer@@UAEXXZ
       2169  878 00042F60 ?SetDefaultProperties@CBasicEffect@@UAEXXZ
       2170  879 000466E0 ?SetDefaultProperties@CBeast@@UAEXXZ
       2171  87A 00049B20 ?SetDefaultProperties@CBigHead@@UAEXXZ
       2172  87B 0004AD30 ?SetDefaultProperties@CBlendController@@UAEXXZ
       2173  87C 0004B630 ?SetDefaultProperties@CBloodSpray@@UAEXXZ
       2174  87D 0004C590 ?SetDefaultProperties@CBoneman@@UAEXXZ
       2175  87E 0004E860 ?SetDefaultProperties@CBouncer@@UAEXXZ
       2176  87F 0004EFE0 ?SetDefaultProperties@CBullet@@UAEXXZ
       2177  880 00050970 ?SetDefaultProperties@CCamera@@UAEXXZ
       2178  881 00054BD0 ?SetDefaultProperties@CCameraMarker@@UAEXXZ
       2179  882 00055D10 ?SetDefaultProperties@CCannonBall@@UAEXXZ
       2180  883 00058DC0 ?SetDefaultProperties@CCannonRotating@@UAEXXZ
       2181  884 0005C030 ?SetDefaultProperties@CCannonStatic@@UAEXXZ
       2182  885 0005EE10 ?SetDefaultProperties@CChainsawFreak@@UAEXXZ
       2183  886 00060A70 ?SetDefaultProperties@CCopier@@UAEXXZ
       2184  887 00061850 ?SetDefaultProperties@CCounter@@UAEXXZ
       2185  888 000631B0 ?SetDefaultProperties@CCrateBus@@UAEXXZ
       2186  889 00064B50 ?SetDefaultProperties@CCrateRider@@UAEXXZ
       2187  88A 00065730 ?SetDefaultProperties@CCreditsHolder@@UAEXXZ
       2188  88B 000675C0 ?SetDefaultProperties@CDamager@@UAEXXZ
       2189  88C 00068220 ?SetDefaultProperties@CDebris@@UAEXXZ
       2190  88D 00069DC0 ?SetDefaultProperties@CDemon@@UAEXXZ
       2191  88E 0006BD80 ?SetDefaultProperties@CDestroyableArchitecture@@UAEXXZ
       2192  88F 0006E580 ?SetDefaultProperties@CDevil@@UAEXXZ
       2193  890 0007CE70 ?SetDefaultProperties@CDevilMarker@@UAEXXZ
       2194  891 0007DDF0 ?SetDefaultProperties@CDevilProjectile@@UAEXXZ
       2195  892 0007F180 ?SetDefaultProperties@CDoorController@@UAEXXZ
       2196  893 00080DB0 ?SetDefaultProperties@CEffectMarker@@UAEXXZ
       2197  894 000822F0 ?SetDefaultProperties@CEffector@@UAEXXZ
       2198  895 00084080 ?SetDefaultProperties@CElemental@@UAEXXZ
       2199  896 0008A4B0 ?SetDefaultProperties@CEnemyBase@@UAEXXZ
       2200  897 00095C80 ?SetDefaultProperties@CEnemyCounter@@UAEXXZ
       2201  898 00096A70 ?SetDefaultProperties@CEnemyDive@@UAEXXZ
       2202  899 00097D50 ?SetDefaultProperties@CEnemyFly@@UAEXXZ
       2203  89A 00099930 ?SetDefaultProperties@CEnemyMarker@@UAEXXZ
       2204  89B 00099F90 ?SetDefaultProperties@CEnemyRunInto@@UAEXXZ
       2205  89C 0009B6A0 ?SetDefaultProperties@CEnemySpawner@@UAEXXZ
       2206  89D 00069610 ?SetDefaultProperties@CEntityStateDisplay@@UAEXXZ
       2207  89E 0009EEA0 ?SetDefaultProperties@CEnvironmentBase@@UAEXXZ
       2208  89F 000A1010 ?SetDefaultProperties@CEnvironmentMarker@@UAEXXZ
       2209  8A0 000A1BD0 ?SetDefaultProperties@CEnvironmentParticlesHolder@@UAEXXZ
       2210  8A1 000A2B30 ?SetDefaultProperties@CEruptor@@UAEXXZ
       2211  8A2 000A5A10 ?SetDefaultProperties@CExotechLarva@@UAEXXZ
       2212  8A3 000AC280 ?SetDefaultProperties@CExotechLarvaBattery@@UAEXXZ
       2213  8A4 000AD7A0 ?SetDefaultProperties@CExotechLarvaCharger@@UAEXXZ
       2214  8A5 000AE8D0 ?SetDefaultProperties@CEyeman@@UAEXXZ
       2215  8A6 000B06A0 ?SetDefaultProperties@CFireworks@@UAEXXZ
       2216  8A7 000B1540 ?SetDefaultProperties@CFish@@UAEXXZ
       2217  8A8 000B2D60 ?SetDefaultProperties@CFlame@@UAEXXZ
       2218  8A9 000B46D0 ?SetDefaultProperties@CFogMarker@@UAEXXZ
       2219  8AA 000B4DF0 ?SetDefaultProperties@CGizmo@@UAEXXZ
       2220  8AB 000B6EB0 ?SetDefaultProperties@CGlobal@@UAEXXZ
       2221  8AC 000B7200 ?SetDefaultProperties@CGradientMarker@@UAEXXZ
       2222  8AD 000B7C20 ?SetDefaultProperties@CGravityMarker@@UAEXXZ
       2223  8AE 000B87B0 ?SetDefaultProperties@CGravityRouter@@UAEXXZ
       2224  8AF 000B8DF0 ?SetDefaultProperties@CGrunt@@UAEXXZ
       2225  8B0 000BADA0 ?SetDefaultProperties@CGuffy@@UAEXXZ
       2226  8B1 000BC240 ?SetDefaultProperties@CHazeMarker@@UAEXXZ
       2227  8B2 000BCBE0 ?SetDefaultProperties@CHeadman@@UAEXXZ
       2228  8B3 000C0270 ?SetDefaultProperties@CHealthItem@@UAEXXZ
       2229  8B4 000C1390 ?SetDefaultProperties@CHudPicHolder@@UAEXXZ
       2230  8B5 000C2870 ?SetDefaultProperties@CItem@@UAEXXZ
       2231  8B6 000C3C10 ?SetDefaultProperties@CKeyItem@@UAEXXZ
       2232  8B7 000C5090 ?SetDefaultProperties@CLarvaOffspring@@UAEXXZ
       2233  8B8 000C6A00 ?SetDefaultProperties@CLight@@UAEXXZ
       2234  8B9 000C7C40 ?SetDefaultProperties@CLightning@@UAEXXZ
       2235  8BA 000C8D30 ?SetDefaultProperties@CMarker@@UAEXXZ
       2236  8BB 000C9320 ?SetDefaultProperties@CMessageHolder@@UAEXXZ
       2237  8BC 000C9EC0 ?SetDefaultProperties@CMessageItem@@UAEXXZ
       2238  8BD 000CA860 ?SetDefaultProperties@CMeteorShower@@UAEXXZ
       2239  8BE 000CB480 ?SetDefaultProperties@CMirrorMarker@@UAEXXZ
       2240  8BF 000CC130 ?SetDefaultProperties@CModelDestruction@@UAEXXZ
       2241  8C0 000CF240 ?SetDefaultProperties@CModelHolder2@@UAEXXZ
       2242  8C1 000CDA40 ?SetDefaultProperties@CModelHolder@@UAEXXZ
       2243  8C2 000D2810 ?SetDefaultProperties@CMovingBrush@@UAEXXZ
       2244  8C3 000D5CE0 ?SetDefaultProperties@CMovingBrushMarker@@UAEXXZ
       2245  8C4 000D6430 ?SetDefaultProperties@CMusicChanger@@UAEXXZ
       2246  8C5 000D7720 ?SetDefaultProperties@CMusicHolder@@UAEXXZ
       2247  8C6 000D8D40 ?SetDefaultProperties@CNavigationMarker@@UAEXXZ
       2248  8C7 000D9940 ?SetDefaultProperties@CParticlesHolder@@UAEXXZ
       2249  8C8 000DAA60 ?SetDefaultProperties@CPendulum@@UAEXXZ
       2250  8C9 000DB330 ?SetDefaultProperties@CPhotoAlbum@@UAEXXZ
       2251  8CA 000E1EC0 ?SetDefaultProperties@CPlayer@@UAEXXZ
       2252  8CB 000F7810 ?SetDefaultProperties@CPlayerActionMarker@@UAEXXZ
       2253  8CC 000F91C0 ?SetDefaultProperties@CPlayerAnimator@@UAEXXZ
       2254  8CD 000FC0C0 ?SetDefaultProperties@CPlayerMarker@@UAEXXZ
       2255  8CE 000FC990 ?SetDefaultProperties@CPlayerView@@UAEXXZ
       2256  8CF 00100C80 ?SetDefaultProperties@CPlayerWeapons@@UAEXXZ
       2257  8D0 00112F80 ?SetDefaultProperties@CPlayerWeaponsEffects@@UAEXXZ
       2258  8D1 00113D70 ?SetDefaultProperties@CPowerUpItem@@UAEXXZ
       2259  8D2 001160B0 ?SetDefaultProperties@CProjectile@@UAEXXZ
       2260  8D3 00121E80 ?SetDefaultProperties@CPyramidSpaceShip@@UAEXXZ
       2261  8D4 00127590 ?SetDefaultProperties@CPyramidSpaceShipMarker@@UAEXXZ
       2262  8D5 00127E30 ?SetDefaultProperties@CReminder@@UAEXXZ
       2263  8D6 00128850 ?SetDefaultProperties@CRollingStone@@UAEXXZ
       2264  8D7 0012A360 ?SetDefaultProperties@CSanta@@UAEXXZ
       2265  8D8 0012B200 ?SetDefaultProperties@CScorpman@@UAEXXZ
       2266  8D9 0012D720 ?SetDefaultProperties@CScrollHolder@@UAEXXZ
       2267  8DA 0012EBE0 ?SetDefaultProperties@CSeriousBomb@@UAEXXZ
       2268  8DB 0012FC40 ?SetDefaultProperties@CShip@@UAEXXZ
       2269  8DC 00131100 ?SetDefaultProperties@CShipMarker@@UAEXXZ
       2270  8DD 00131930 ?SetDefaultProperties@CShooter@@UAEXXZ
       2271  8DE 00133AA0 ?SetDefaultProperties@CSoundHolder@@UAEXXZ
       2272  8DF 001347C0 ?SetDefaultProperties@CSpawnerProjectile@@UAEXXZ
       2273  8E0 00135430 ?SetDefaultProperties@CSpinner@@UAEXXZ
       2274  8E1 001366A0 ?SetDefaultProperties@CStormController@@UAEXXZ
       2275  8E2 00138C80 ?SetDefaultProperties@CSummoner@@UAEXXZ
       2276  8E3 0013E510 ?SetDefaultProperties@CSummonerMarker@@UAEXXZ
       2277  8E4 0013ED80 ?SetDefaultProperties@CSwitch@@UAEXXZ
       2278  8E5 0013FE40 ?SetDefaultProperties@CTacticsChanger@@UAEXXZ
       2279  8E6 001408D0 ?SetDefaultProperties@CTacticsHolder@@UAEXXZ
       2280  8E7 001411C0 ?SetDefaultProperties@CTeleport@@UAEXXZ
       2281  8E8 00141E30 ?SetDefaultProperties@CTextFXHolder@@UAEXXZ
       2282  8E9 00143470 ?SetDefaultProperties@CTimeController@@UAEXXZ
       2283  8EA 00144610 ?SetDefaultProperties@CTouchField@@UAEXXZ
       2284  8EB 001458D0 ?SetDefaultProperties@CTrigger@@UAEXXZ
       2285  8EC 00146FE0 ?SetDefaultProperties@CTwister@@UAEXXZ
       2286  8ED 00148460 ?SetDefaultProperties@CVoiceHolder@@UAEXXZ
       2287  8EE 00148FA0 ?SetDefaultProperties@CWalker@@UAEXXZ
       2288  8EF 0014C690 ?SetDefaultProperties@CWatchPlayers@@UAEXXZ
       2289  8F0 0014B3A0 ?SetDefaultProperties@CWatcher@@UAEXXZ
       2290  8F1 0014D8E0 ?SetDefaultProperties@CWater@@UAEXXZ
       2291  8F2 0014EB90 ?SetDefaultProperties@CWeaponItem@@UAEXXZ
       2292  8F3 00150120 ?SetDefaultProperties@CWerebull@@UAEXXZ
       2293  8F4 001516E0 ?SetDefaultProperties@CWoman@@UAEXXZ
       2294  8F5 00157920 ?SetDefaultProperties@CWorldBase@@UAEXXZ
       2295  8F6 00159510 ?SetDefaultProperties@CWorldLink@@UAEXXZ
       2296  8F7 0015A290 ?SetDefaultProperties@CWorldSettingsController@@UAEXXZ
       2297  8F8 0008D400 ?SetDesiredMovement@CEnemyBase@@UAEKXZ
       2298  8F9 00096D70 ?SetDesiredMovement@CEnemyDive@@UAEKXZ
       2299  8FA 00098070 ?SetDesiredMovement@CEnemyFly@@UAEKXZ
       2300  8FB 00096F00 ?SetEntityPosition@CEnemyDive@@QAEXXZ
       2301  8FC 000981F0 ?SetEntityPosition@CEnemyFly@@QAEXXZ
       2302  8FD 00102DC0 ?SetFlare@CPlayerWeapons@@QAEXJJ@Z
       2303  8FE 000EA6E0 ?SetGameEnd@CPlayer@@QAEXXZ
       2304  8FF 000F9DF0 ?SetItem@CPlayerAnimator@@QAEXPAVCModelObject@@@Z
       2305  900 000C2CB0 ?SetItemAttachmentAnim@CItem@@QAEXJJ@Z
       2306  901 0000B6F0 ?SetPlayerAppearance@@YAHPAVCModelObject@@PAVCPlayerCharacter@@AAVCTString@@H@Z
       2307  902 00011A70 ?SetPredictionPair@CEnemyBase@@UAEXPAVCEntity@@@Z
       2308  903 00010200 ?SetPredictionPair@CItem@@UAEXPAVCEntity@@@Z
       2309  904 000A4240 ?SetPredictionPair@CLarvaOffspring@@UAEXPAVCEntity@@@Z
       2310  905 00002DC0 ?SetPredictionPair@CPlayer@@UAEXPAVCEntity@@@Z
       2311  906 000DC020 ?SetPredictionPair@CPlayerAnimator@@UAEXPAVCEntity@@@Z
       2312  907 000DC9D0 ?SetPredictionPair@CPlayerView@@UAEXPAVCEntity@@@Z
       2313  908 00014000 ?SetPredictionPair@CPlayerWeapons@@UAEXPAVCEntity@@@Z
       2314  909 0000F800 ?SetPredictionPair@CProjectile@@UAEXPAVCEntity@@@Z
       2315  90A 00011110 ?SetPredictionPair@CWatcher@@UAEXPAVCEntity@@@Z
       2316  90B 0008AA60 ?SetPredictionTime@CEnemyBase@@UAEXM@Z
       2317  90C 000E3350 ?SetPredictionTime@CPlayer@@UAEXM@Z
       2318  90D 000E6B10 ?SetRandomMouthPitch@CPlayer@@QAEXMM@Z
       2319  90E 000E6B90 ?SetSpeakMouthPitch@CPlayer@@QAEXXZ
       2320  90F 0008D1C0 ?SetSpeedsToDesiredPosition@CEnemyBase@@UAEXABV?$Vector@M$02@@MH@Z
       2321  910 0008D090 ?SetTargetHard@CEnemyBase@@QAEHPAVCEntity@@@Z
       2322  911 0008D110 ?SetTargetHardForce@CEnemyBase@@QAEHPAVCEntity@@@Z
       2323  912 0008CFD0 ?SetTargetNone@CEnemyBase@@QAEXXZ
       2324  913 0008D010 ?SetTargetSoft@CEnemyBase@@QAEHPAVCEntity@@@Z
       2325  914 000E8380 ?SetUnconnected@CPlayer@@QAEXXZ
       2326  915 0014B6F0 ?SetWatchDelays@CWatcher@@QAEXXZ
       2327  916 000F95C0 ?SetWeapon@CPlayerAnimator@@QAEXXZ
       2328  917 001042B0 ?Setup3DSoundParameters@CPlayerWeapons@@QAEXXZ
       2329  918 000E64F0 ?SetupLightSource@CPlayer@@QAEXXZ
       2330  919 001164A0 ?SetupLightSource@CProjectile@@QAEXH@Z
       2331  91A 000E7010 ?SetupView@CPlayer@@QAEXPAVCDrawPort@@AAVCAnyProjection3D@@AAPAVCEntity@@AAVCPlacement3D@@AAKH@Z
       2332  91B 001EB308 ?ShadowType_enum@@3VCEntityPropertyEnumType@@A
       2333  91C 001EB2F0 ?ShadowType_values@@3PAVCEntityPropertyEnumValue@@A
       2334  91D 0008F580 ?ShootPredictedProjectile@CEnemyBase@@QAEPAVCEntity@@W4ProjectileType@@V?$Vector@M$02@@AAV4@2@Z
       2335  91E 0008F330 ?ShootProjectile@CEnemyBase@@QAEPAVCEntity@@W4ProjectileType@@AAV?$Vector@M$02@@1@Z
       2336  91F 0008F470 ?ShootProjectileAt@CEnemyBase@@QAEPAVCEntity@@V?$Vector@M$02@@W4ProjectileType@@AAV3@2@Z
       2337  920 0011D040 ?ShooterFireball@CProjectile@@QAEXXZ
       2338  921 0011D180 ?ShooterFireballExplosion@CProjectile@@QAEXXZ
       2339  922 0011D300 ?ShooterFlame@CProjectile@@QAEXXZ
       2340  923 0011CDB0 ?ShooterWoodenDart@CProjectile@@QAEXXZ
       2341  924 0011CEC0 ?ShooterWoodenDartExplosion@CProjectile@@QAEXXZ
       2342  925 0008F8D0 ?ShouldBlowUp@CEnemyBase@@UAEHXZ
       2343  926 000E97F0 ?ShouldBlowUp@CPlayer@@QAEHXZ
       2344  927 0008CE60 ?ShouldCeaseAttack@CEnemyBase@@QAEHXZ
       2345  928 000FB650 ?ShowFlare@CPlayerAnimator@@QAEXJJJ@Z
       2346  929 00102D00 ?ShowFlare@CPlayerWeapons@@QAEXAAVCModelObject@@JJM@Z
       2347  92A 000C2A10 ?ShowItemParticles@CItem@@QAEHXZ
       2348  92B 00090550 ?SightSound@CEnemyBase@@UAEXXZ
       2349  92C 00108880 ?SingleShotgunBoring@CPlayerWeapons@@QAEMXZ
       2350  92D 0008CEB0 ?SizeModel@CEnemyBase@@UAEXXZ
       2351  92E 00108980 ?SniperBoring@CPlayerWeapons@@QAEMXZ
       2352  92F 00109140 ?SniperZoomDiscrete@CPlayerWeapons@@QAEHJAAH@Z
       2353  930 001E6450 ?SoundType_enum@@3VCEntityPropertyEnumType@@A
       2354  931 001E6428 ?SoundType_values@@3PAVCEntityPropertyEnumValue@@A
       2355  932 000EB7C0 ?SpawnBubbles@CPlayer@@QAEXJ@Z
       2356  933 000566C0 ?SpawnEffect@CCannonBall@@QAEXABVCPlacement3D@@ABVESpawnEffect@@@Z
       2357  934 000C5920 ?SpawnEffect@CLarvaOffspring@@QAEXABVCPlacement3D@@ABVESpawnEffect@@@Z
       2358  935 0011D930 ?SpawnEffect@CProjectile@@QAEXABVCPlacement3D@@ABVESpawnEffect@@@Z
       2359  936 00007010 ?SpawnFlame@@YA?AVCEntityPointer@@PAVCEntity@@0ABV?$Vector@M$02@@@Z
       2360  937 0000C490 ?SpawnRangeSound@@YAXPAVCEntity@@0W4SoundType@@M@Z
       2361  938 00106430 ?SpawnRangeSound@CPlayerWeapons@@QAEXM@Z
       2362  939 00006790 ?SpawnReminder@@YA?AVCEntityPointer@@PAVCEntity@@MJ@Z
       2363  93A 000EFAB0 ?SpawnTeleport@CPlayer@@QAEXXZ
       2364  93B 0004F930 ?SpawnTrail@CBullet@@QAEXXZ
       2365  93C 001E6590 ?SprayParticlesType_enum@@3VCEntityPropertyEnumType@@A
       2366  93D 001E6508 ?SprayParticlesType_values@@3PAVCEntityPropertyEnumValue@@A
       2367  93E 000FB060 ?Stand@CPlayerAnimator@@QAEXXZ
       2368  93F 00095670 ?StandardBehavior@CEnemyBase@@QAEHABVCEntityEvent@@@Z
       2369  940 00090490 ?StandingAnim@CEnemyBase@@UAEXXZ
       2370  941 000904A0 ?StandingAnimFight@CEnemyBase@@UAEXXZ
       2371  942 0008D780 ?StartPathFinding@CEnemyBase@@UAEXXZ
       2372  943 00096B10 ?StartPathFinding@CEnemyDive@@UAEXXZ
       2373  944 00097F20 ?StartPathFinding@CEnemyFly@@UAEXXZ
       2374  945 0008E940 ?StartTacticsNow@CEnemyBase@@QAEXXZ
       2375  946 00091DD0 ?StopAttack@CEnemyBase@@QAEHABVCEntityEvent@@@Z
       2376  947 0008D640 ?StopMoving@CEnemyBase@@QAEXXZ
       2377  948 0008D660 ?StopRotating@CEnemyBase@@QAEXXZ
       2378  949 0008D690 ?StopTranslating@CEnemyBase@@QAEXXZ
       2379  94A 00112750 ?Stopped@CPlayerWeapons@@QAEHABVCEntityEvent@@@Z
       2380  94B 000FA000 ?StoreLast@CPlayerAnimator@@QAEXXZ
       2381  94C 000C2D60 ?StretchItem@CItem@@QAEXABV?$Vector@M$02@@@Z
       2382  94D 000FB030 ?Swim@CPlayerAnimator@@QAEXXZ
       2383  94E 0010AD10 ?SwingKnife@CPlayerWeapons@@QAEHABVCEntityEvent@@@Z
       2384  94F 001FB038 ?SwitchType_enum@@3VCEntityPropertyEnumType@@A
       2385  950 001FB028 ?SwitchType_values@@3PAVCEntityPropertyEnumValue@@A
       2386  951 000F9500 ?SyncWeapon@CPlayerAnimator@@QAEXXZ
       2387  952 001FB460 ?TacticType_enum@@3VCEntityPropertyEnumType@@A
       2388  953 001FB440 ?TacticType_values@@3PAVCEntityPropertyEnumValue@@A
       2389  954 000D90B0 ?Target@CNavigationMarker@@QAEAAV1@J@Z
       2390  955 000D9090 ?TargetPointer@CNavigationMarker@@QAEAAVCEntityPointer@@J@Z
       2391  956 001E10A0 ?TargetType_enum@@3VCEntityPropertyEnumType@@A
       2392  957 001E1088 ?TargetType_values@@3PAVCEntityPropertyEnumValue@@A
       2393  958 000EEE50 ?TeleportPlayer@CPlayer@@QAEXW4WorldLinkType@@@Z
       2394  959 000EFEE0 ?TeleportToAutoMarker@CPlayer@@QAEXPAVCPlayerActionMarker@@@Z
       2395  95A 000F0FA0 ?TheEnd@CPlayer@@QAEHABVCEntityEvent@@@Z
       2396  95B 00108930 ?TommyGunBoring@CPlayerWeapons@@QAEMXZ
       2397  95C 0010D1F0 ?TommyGunStart@CPlayerWeapons@@QAEHABVCEntityEvent@@@Z
       2398  95D 0010D2C0 ?TommyGunStop@CPlayerWeapons@@QAEHABVCEntityEvent@@@Z
       2399  95E 001EB810 ?TouchOrDamageEvent_enum@@3VCEntityPropertyEnumType@@A
       2400  95F 001EB7F8 ?TouchOrDamageEvent_values@@3PAVCEntityPropertyEnumValue@@A
       2401  960 000F2DB0 ?TravellingInBeam@CPlayer@@QAEHABVCEntityEvent@@@Z
       2402  961 000E2DC0 ?UpdateLatency@CPlayer@@QAEXM@Z
       2403  962 000E6A30 ?UpdateLevelStats@CPlayer@@QAEXXZ
       2404  963 001020B0 ?UpdateTargetingInfo@CPlayerWeapons@@QAEXXZ
       2405  964 000EA4E0 ?UsePressed@CPlayer@@QAEXH@Z
       2406  965 000E2E80 ?ValidateCharacter@CPlayer@@QAEXXZ
       2407  966 001F1DF8 ?ViewType_enum@@3VCEntityPropertyEnumType@@A
       2408  967 001F1DD8 ?ViewType_values@@3PAVCEntityPropertyEnumValue@@A
       2409  968 001E67A8 ?VisibilityBits_enum@@3VCEntityPropertyEnumType@@A
       2410  969 001E6728 ?VisibilityBits_values@@3PAVCEntityPropertyEnumValue@@A
       2411  96A 00090520 ?WaitForDust@CEnemyBase@@UAEMAAV?$Vector@M$02@@@Z
       2412  96B 001FC680 ?WalkerChar_enum@@3VCEntityPropertyEnumType@@A
       2413  96C 001FC670 ?WalkerChar_values@@3PAVCEntityPropertyEnumValue@@A
       2414  96D 00117020 ?WalkerRocket@CProjectile@@QAEXXZ
       2415  96E 001171A0 ?WalkerRocketExplosion@CProjectile@@QAEXXZ
       2416  96F 000904B0 ?WalkingAnim@CEnemyBase@@UAEXXZ
       2417  970 001EAA80 ?WarpRotation_enum@@3VCEntityPropertyEnumType@@A
       2418  971 001EAA68 ?WarpRotation_values@@3PAVCEntityPropertyEnumValue@@A
       2419  972 0014B7A0 ?Watch@CWatcher@@QAEXXZ
       2420  973 001FD078 ?WaterSize_enum@@3VCEntityPropertyEnumType@@A
       2421  974 001FD060 ?WaterSize_values@@3PAVCEntityPropertyEnumValue@@A
       2422  975 001E6698 ?WeaponBits_enum@@3VCEntityPropertyEnumType@@A
       2423  976 001E6598 ?WeaponBits_values@@3PAVCEntityPropertyEnumValue@@A
       2424  977 001F4E48 ?WeaponEffectType_enum@@3VCEntityPropertyEnumType@@A
       2425  978 001F4E38 ?WeaponEffectType_values@@3PAVCEntityPropertyEnumValue@@A
       2426  979 001FD2A8 ?WeaponItemType_enum@@3VCEntityPropertyEnumType@@A
       2427  97A 001FD240 ?WeaponItemType_values@@3PAVCEntityPropertyEnumValue@@A
       2428  97B 00101CA0 ?WeaponMovingOffset@CPlayerWeapons@@QAEXAAV?$Vector@M$02@@@Z
       2429  97C 00108400 ?WeaponSelectOk@CPlayerWeapons@@QAEHW4WeaponType@@@Z
       2430  97D 001F1F48 ?WeaponType_enum@@3VCEntityPropertyEnumType@@A
       2431  97E 001F1EC8 ?WeaponType_values@@3PAVCEntityPropertyEnumValue@@A
       2432  97F 0011C680 ?WindBlast@CProjectile@@QAEXXZ
       2433  980 00118680 ?WomanProjectile@CProjectile@@QAEXXZ
       2434  981 000F0230 ?WorldChange@CPlayer@@QAEHABVCEntityEvent@@@Z
       2435  982 000F03F0 ?WorldChangeDead@CPlayer@@QAEHABVCEntityEvent@@@Z
       2436  983 001FFB30 ?WorldLinkType_enum@@3VCEntityPropertyEnumType@@A
       2437  984 001FFB20 ?WorldLinkType_values@@3PAVCEntityPropertyEnumValue@@A
       2438  985 0008F760 ?WouldNotLeaveAttackRadius@CEnemyBase@@QAEHXZ
       2439  986 00090560 ?WoundSound@CEnemyBase@@UAEXXZ
       2440  987 000F01D0 ?Wounded@CPlayer@@QAEHABVCEntityEvent@@@Z
       2441  988 00090290 ?WoundedNotify@CEnemyBase@@QAEXABVEDamage@@@Z
       2442  989 000060D0 ?Write_t@CCompMessageID@@QAEXAAVCTStream@@@Z
       2443  98A 0000F0D0 ?Write_t@CEmiter@@QAEXAAVCTStream@@@Z
       2444  98B 0000EB10 ?Write_t@CEmittedParticle@@QAEXAAVCTStream@@@Z
       2445  98C 000E3080 ?Write_t@CPlayer@@UAEXPAVCTStream@@@Z
       2446  98D 00221764 ?cmp_bInitialStart@@3HA
       2447  98E 00221760 ?cmp_bUpdateInBackground@@3HA
       2448  98F 0022175C ?cmp_ppenDHPlayer@@3PAVCPlayer@@A
       2449  990 00221758 ?cmp_ppenPlayer@@3PAVCPlayer@@A
       2450  991 000DFBB0 ?ctl_ComposeActionPacket@@YAXABVCPlayerCharacter@@AAVCPlayerAction@@H@Z
       2451  992 001EDBC0 ?ctl_pvPlayerControls@@3PAXA
       2452  993 0017E3B8 ?ctl_slPlayerControlsSize@@3JB
       2453  994 00221768 ?plr_iHiScore@@3JA
       2454  995 001D4D48 CAirElemental_DLLClass
       2455  996 001D5290 CAmmoItem_DLLClass
       2456  997 001D5C98 CAmmoPack_DLLClass
       2457  998 001D6040 CAnimationChanger_DLLClass
       2458  999 001D6378 CAnimationHub_DLLClass
       2459  99A 001D6580 CAreaMarker_DLLClass
       2460  99B 001D66C8 CArmorItem_DLLClass
       2461  99C 001D6C08 CBackgroundViewer_DLLClass
       2462  99D 001D6FB8 CBasicEffect_DLLClass
       2463  99E 001D82A0 CBeast_DLLClass
       2464  99F 001D87B8 CBigHead_DLLClass
       2465  9A0 001D8BB0 CBlendController_DLLClass
       2466  9A1 001D8D60 CBloodSpray_DLLClass
       2467  9A2 001D8F68 CBoneman_DLLClass
       2468  9A3 001D9300 CBouncer_DLLClass
       2469  9A4 001D9418 CBullet_DLLClass
       2470  9A5 001D98E0 CCameraMarker_DLLClass
       2471  9A6 001D95C0 CCamera_DLLClass
       2472  9A7 001D9D10 CCannonBall_DLLClass
       2473  9A8 001DA128 CCannonRotating_DLLClass
       2474  9A9 001DA7A0 CCannonStatic_DLLClass
       2475  9AA 001DACC0 CChainsawFreak_DLLClass
       2476  9AB 001DB068 CCopier_DLLClass
       2477  9AC 001DB230 CCounter_DLLClass
       2478  9AD 001DB410 CCrateBus_DLLClass
       2479  9AE 001DB810 CCrateRider_DLLClass
       2480  9AF 001DBAF8 CCreditsHolder_DLLClass
       2481  9B0 001DBCE0 CDamager_DLLClass
       2482  9B1 001DBE80 CDebris_DLLClass
       2483  9B2 001DC1A8 CDemon_DLLClass
       2484  9B3 001DC4B8 CDestroyableArchitecture_DLLClass
       2485  9B4 001DF3A0 CDevilMarker_DLLClass
       2486  9B5 001DF6E0 CDevilProjectile_DLLClass
       2487  9B6 001DE090 CDevil_DLLClass
       2488  9B7 001DFA90 CDoorController_DLLClass
       2489  9B8 001DFD08 CEffectMarker_DLLClass
       2490  9B9 001E0150 CEffector_DLLClass
       2491  9BA 001E08D8 CElemental_DLLClass
       2492  9BB 001E1820 CEnemyBase_DLLClass
       2493  9BC 001E1ED8 CEnemyCounter_DLLClass
       2494  9BD 001E2080 CEnemyDive_DLLClass
       2495  9BE 001E23B0 CEnemyFly_DLLClass
       2496  9BF 001E24C8 CEnemyMarker_DLLClass
       2497  9C0 001E27A0 CEnemyRunInto_DLLClass
       2498  9C1 001E2CE8 CEnemySpawner_DLLClass
       2499  9C2 001DBF50 CEntityStateDisplay_DLLClass
       2500  9C3 001E3210 CEnvironmentBase_DLLClass
       2501  9C4 001E3598 CEnvironmentMarker_DLLClass
       2502  9C5 001E3800 CEnvironmentParticlesHolder_DLLClass
       2503  9C6 001E3BE8 CEruptor_DLLClass
       2504  9C7 001E4A68 CExotechLarvaBattery_DLLClass
       2505  9C8 001E4E78 CExotechLarvaCharger_DLLClass
       2506  9C9 001E40B8 CExotechLarva_DLLClass
       2507  9CA 001E5328 CEyeman_DLLClass
       2508  9CB 001E5780 CFireworks_DLLClass
       2509  9CC 001E5930 CFish_DLLClass
       2510  9CD 001E5C70 CFlame_DLLClass
       2511  9CE 001E5DA0 CFogMarker_DLLClass
       2512  9CF 001E6068 CGizmo_DLLClass
       2513  9D0 001E67C0 CGlobal_DLLClass
       2514  9D1 001E6CA0 CGradientMarker_DLLClass
       2515  9D2 001E6E10 CGravityMarker_DLLClass
       2516  9D3 001E6FC0 CGravityRouter_DLLClass
       2517  9D4 001E7300 CGrunt_DLLClass
       2518  9D5 001E7738 CGuffy_DLLClass
       2519  9D6 001E79E8 CHazeMarker_DLLClass
       2520  9D7 001E7EC0 CHeadman_DLLClass
       2521  9D8 001E8600 CHealthItem_DLLClass
       2522  9D9 001E8C10 CHudPicHolder_DLLClass
       2523  9DA 001E8E68 CItem_DLLClass
       2524  9DB 001E8FF0 CKeyItem_DLLClass
       2525  9DC 001E99C8 CLarvaOffspring_DLLClass
       2526  9DD 001E9BD8 CLight_DLLClass
       2527  9DE 001EA1C8 CLightning_DLLClass
       2528  9DF 001EA420 CMarker_DLLClass
       2529  9E0 001EA568 CMessageHolder_DLLClass
       2530  9E1 001EA6B0 CMessageItem_DLLClass
       2531  9E2 001EA8F0 CMeteorShower_DLLClass
       2532  9E3 001EAA98 CMirrorMarker_DLLClass
       2533  9E4 001EAC38 CModelDestruction_DLLClass
       2534  9E5 001EB350 CModelHolder2_DLLClass
       2535  9E6 001EB110 CModelHolder_DLLClass
       2536  9E7 001EBEC8 CMovingBrushMarker_DLLClass
       2537  9E8 001EB988 CMovingBrush_DLLClass
       2538  9E9 001EC170 CMusicChanger_DLLClass
       2539  9EA 001EC390 CMusicHolder_DLLClass
       2540  9EB 001EC580 CNavigationMarker_DLLClass
       2541  9EC 001EC878 CParticlesHolder_DLLClass
       2542  9ED 001ECB10 CPendulum_DLLClass
       2543  9EE 001ECD20 CPhotoAlbum_DLLClass
       2544  9EF 001F09C0 CPlayerActionMarker_DLLClass
       2545  9F0 001F0D00 CPlayerAnimator_DLLClass
       2546  9F1 001F1C10 CPlayerMarker_DLLClass
       2547  9F2 001F1E30 CPlayerView_DLLClass
       2548  9F3 001F4F40 CPlayerWeaponsEffects_DLLClass
       2549  9F4 001F2C00 CPlayerWeapons_DLLClass
       2550  9F5 001EDAB8 CPlayer_DLLClass
       2551  9F6 001F50B8 CPowerUpItem_DLLClass
       2552  9F7 001F5B08 CProjectile_DLLClass
       2553  9F8 001F7CD0 CPyramidSpaceShipMarker_DLLClass
       2554  9F9 001F76D8 CPyramidSpaceShip_DLLClass
       2555  9FA 001F7F10 CReminder_DLLClass
       2556  9FB 001F7FC0 CRollingStone_DLLClass
       2557  9FC 001F82A8 CSanta_DLLClass
       2558  9FD 001F8658 CScorpman_DLLClass
       2559  9FE 001F8B98 CScrollHolder_DLLClass
       2560  9FF 001F8D38 CSeriousBomb_DLLClass
       2561  A00 001F90E0 CShipMarker_DLLClass
       2562  A01 001F8ED0 CShip_DLLClass
       2563  A02 001F9410 CShooter_DLLClass
       2564  A03 001F9700 CSoundHolder_DLLClass
       2565  A04 001F98B0 CSpawnerProjectile_DLLClass
       2566  A05 001F9A00 CSpinner_DLLClass
       2567  A06 001F9B88 CStormController_DLLClass
       2568  A07 001FAED0 CSummonerMarker_DLLClass
       2569  A08 001FA298 CSummoner_DLLClass
       2570  A09 001FB110 CSwitch_DLLClass
       2571  A0A 001FB2E8 CTacticsChanger_DLLClass
       2572  A0B 001FB4D8 CTacticsHolder_DLLClass
       2573  A0C 001FB6E8 CTeleport_DLLClass
       2574  A0D 001FB8F8 CTextFXHolder_DLLClass
       2575  A0E 001FBB88 CTimeController_DLLClass
       2576  A0F 001FBD90 CTouchField_DLLClass
       2577  A10 001FC000 CTrigger_DLLClass
       2578  A11 001FC3A8 CTwister_DLLClass
       2579  A12 001FC560 CVoiceHolder_DLLClass
       2580  A13 001FC808 CWalker_DLLClass
       2581  A14 001FCF08 CWatchPlayers_DLLClass
       2582  A15 001FCDA0 CWatcher_DLLClass
       2583  A16 001FD0E0 CWater_DLLClass
       2584  A17 001FD320 CWeaponItem_DLLClass
       2585  A18 001FE348 CWerebull_DLLClass
       2586  A19 001FE7C8 CWoman_DLLClass
       2587  A1A 001FEB98 CWorldBase_DLLClass
       2588  A1B 001FFB48 CWorldLink_DLLClass
       2589  A1C 001FFC70 CWorldSettingsController_DLLClass

  Summary

       5C000 .data
       5B000 .rdata
       36000 .reloc
      175000 .text
