 Entities

 Timestamp is 3d6fd383 (Fri Aug 30 15:20:19 2002)

 Preferred load address is 10000000

 Start         Length     Name                   Class
 0001:00000000 001749feH .text                   CODE
 0001:00174a00 0001e1c0H .text$x                 CODE
 0002:00000000 00000b00H .idata$5                DATA
 0002:00000b00 0000c5bcH .rdata                  DATA
 0002:0000d0c0 00000044H .rdata$r                DATA
 0002:0000d108 00027698H .xdata$x                DATA
 0002:000347a0 0000003cH .idata$2                DATA
 0002:000347dc 00000014H .idata$3                DATA
 0002:000347f0 00000b00H .idata$4                DATA
 0002:000352f0 00007086H .idata$6                DATA
 0002:0003c380 00018a18H .edata                  DATA
 0003:00000000 00000004H .CRT$XCA                DATA
 0003:00000004 00000a5cH .CRT$XCU                DATA
 0003:00000a60 00000004H .CRT$XCZ                DATA
 0003:00000a64 00000004H .CRT$XIA                DATA
 0003:00000a68 00000004H .CRT$XIZ                DATA
 0003:00000a70 000259c0H .data                   DATA
 0003:00026430 00047ef8H .bss                    DATA

  Address         Publics by Value              Rva+Base     Lib:Object

 0001:00000000       ?Clear@CCompMessageID@@QAEXXZ 10001000 f   Common.obj
 0001:00000030       ?Read_t@CCompMessageID@@QAEXAAVCTStream@@@Z 10001030 f   Common.obj
 0001:00000080       ?Write_t@CCompMessageID@@QAEXAAVCTStream@@@Z 10001080 f   Common.obj
 0001:000000d0       ?NewMessage@CCompMessageID@@QAEXABVCTFileName@@@Z 100010d0 f   Common.obj
 0001:00000230       ?GetEntityInfoPosition@@YAXPAVCEntity@@PAMAAV?$Vector@M$02@@@Z 10001230 f   Common.obj
 0001:000002e0       ?GetPositionCastRay@@YAXPAVCEntity@@0AAV?$Vector@M$02@@1@Z 100012e0 f   Common.obj
 0001:00000370       ?SetBoolFromBoolEType@@YAXAAHW4BoolEType@@@Z 10001370 f   Common.obj
 0001:000003a0       ?SendToTarget@@YAXPAVCEntity@@W4EventEType@@0@Z 100013a0 f   Common.obj
 0001:00000590       ?SendInRange@@YAXPAVCEntity@@W4EventEType@@ABV?$AABBox@M$02@@@Z 10001590 f   Common.obj
 0001:00000740       ?SpawnReminder@@YA?AVCEntityPointer@@PAVCEntity@@MJ@Z 10001740 f   Common.obj
 0001:000008b0       ?KickEntity@@YAXPAVCEntity@@V?$Vector@M$02@@@Z 100018b0 f   Common.obj
 0001:00000920       ?SetComponents@@YAXPAVCEntity@@AAVCModelObject@@KKKKK@Z 10001920 f   Common.obj
 0001:000009c0       ?AddAttachmentToModel@@YAXPAVCEntity@@AAVCModelObject@@JKKKKK@Z 100019c0 f   Common.obj
 0001:00000a00       ?RemoveAttachmentFromModel@@YAXAAVCModelObject@@J@Z 10001a00 f   Common.obj
 0001:00000e20       ?InitLensFlares@@YAXXZ     10001e20 f   Common.obj
 0001:00003e40       ?CloseLensFlares@@YAXXZ    10004e40 f   Common.obj
 0001:000040a0       ?SetModelData_t@@YAXPAVCModelObject@@ABVCTFileName@@@Z 100050a0 f   Common.obj
 0001:000040c0       ?SetTextureData_t@@YAXPAVCModelObject@@ABVCTFileName@@@Z 100050c0 f   Common.obj
 0001:000040e0       ?SetModel_t@@YAXPAVCModelObject@@ABVCTFileName@@1@Z 100050e0 f   Common.obj
 0001:00004110       ?ModelAddAttachment_t@@YAXPAVCModelObject@@JABVCTFileName@@1@Z 10005110 f   Common.obj
 0001:000041f0       ?GetNonEmptyLine_t@@YA?AVCTString@@AAVCTStream@@@Z 100051f0 f   Common.obj
 0001:00004330       ?FixupFileName_t@@YAXAAVCTString@@@Z 10005330 f   Common.obj
 0001:00004410       ?SkipBlock_t@@YAXAAVCTStream@@@Z 10005410 f   Common.obj
 0001:00004540       ?ParseAMC_t@@YAXPAVCModelObject@@AAVCTStream@@H@Z 10005540 f   Common.obj
 0001:00004b70       ?SetPlayerAppearance_internal@@YAHPAPAVCModelInstance@@ABVCTFileName@@1AAVCTString@@@Z 10005b70 f   Common.obj
 0001:00004cd0       ?SetPlayerAppearance@@YAHPAPAVCModelInstance@@PAVCPlayerCharacter@@AAVCTString@@@Z 10005cd0 f   Common.obj
 0001:000052b0       ?PrintConsole@@YAPBDXZ     100062b0 f   Common.obj
 0001:000052c0       ?PrintStack@@YAPBDPAVCEntity@@@Z 100062c0 f   Common.obj
 0001:00005310       ?Debris_Begin@@YAXW4EntityInfoBodyType@@W4DebrisParticlesType@@W4BasicEffectType@@MABV?$Vector@M$02@@3MMK@Z 10006310 f   Common.obj
 0001:00005390       ?Debris_Spawn@@YA?AVCEntityPointer@@PAVCEntity@@0JJJJJJMABV?$Vector@M$02@@@Z 10006390 f   Common.obj
 0001:00005740       ?GetStdEntityInfo@@YAPAUEntityInfo@@W4EntityInfoBodyType@@@Z 10006740 f   Common.obj
 0001:000057c0       ?DamageStrength@@YAMW4EntityInfoBodyType@@W4DamageType@@@Z 100067c0 f   Common.obj
 0001:000058c0       ?PrintCenterMessage@@YAXPAVCEntity@@0ABVCTString@@MW4MessageSound@@@Z 100068c0 f   Common.obj
 0001:00005960       ?SpawnRangeSound@@YAXPAVCEntity@@0W4SoundType@@M@Z 10006960 f   Common.obj
 0001:00005a50       ?FixupCausedToPlayer@@YAPAVCEntity@@PAV1@0H@Z 10006a50 f   Common.obj
 0001:00005b80       ?LerpPlacementsPrecise@@YA?AVCPlacement3D@@ABV1@0M@Z 10006b80 f   Common.obj
 0001:00005f80       ?GetGameDamageMultiplier@@YAMXZ 10006f80 f   Common.obj
 0001:00005f90       ??1WorldChange@@QAE@XZ     10006f90 f i Common.obj
 0001:00005fa0       ??0WorldChange@@QAE@XZ     10006fa0 f i Common.obj
 0001:00005fc0       ?AngleDeg@@YAMM@Z          10006fc0 f i Common.obj
 0001:00005fd0       ?GrowPointers@?$CDynamicArray@VCInfoEntry@@@@QAEXJ@Z 10006fd0 f i Common.obj
 0001:00006020       ?ShrinkPointers@?$CDynamicArray@VCInfoEntry@@@@QAEXJ@Z 10007020 f i Common.obj
 0001:00006070       ?AllocBlock@?$CDynamicArray@VCInfoEntry@@@@QAEPAVCInfoEntry@@J@Z 10007070 f i Common.obj
 0001:00006120       ?GetIndex@?$CDynamicArray@VCInfoEntry@@@@QAEJPAVCInfoEntry@@@Z 10007120 f i Common.obj
 0001:00006150       ??0?$CDynamicArray@VCInfoEntry@@@@QAE@AAV0@@Z 10007150 f i Common.obj
 0001:00006270       ??0?$CDynamicArray@VCInfoEntry@@@@QAE@XZ 10007270 f i Common.obj
 0001:00006290       ??1?$CDynamicArray@VCInfoEntry@@@@QAE@XZ 10007290 f i Common.obj
 0001:00006320       ?Clear@CInfoEntry@@QAEXXZ  10007320 f i Common.obj
 0001:000063c0       ?New@?$CDynamicArray@VCInfoEntry@@@@QAEPAVCInfoEntry@@J@Z 100073c0 f i Common.obj
 0001:00006450       ?Delete@?$CDynamicArray@VCInfoEntry@@@@QAEXPAVCInfoEntry@@@Z 10007450 f i Common.obj
 0001:000064d0       ?Clear@?$CDynamicArray@VCInfoEntry@@@@QAEXXZ 100074d0 f i Common.obj
 0001:00006560       ?Pointer@?$CDynamicArray@VCInfoEntry@@@@QBEPBVCInfoEntry@@J@Z 10007560 f i Common.obj
 0001:00006570       ?Pointer@?$CDynamicArray@VCInfoEntry@@@@QAEPAVCInfoEntry@@J@Z 10007570 f i Common.obj
 0001:00006580       ??A?$CDynamicArray@VCInfoEntry@@@@QBEABVCInfoEntry@@J@Z 10007580 f i Common.obj
 0001:00006590       ??A?$CDynamicArray@VCInfoEntry@@@@QAEAAVCInfoEntry@@J@Z 10007590 f i Common.obj
 0001:000065a0       ??4?$CDynamicArray@VCInfoEntry@@@@QAEAAV0@AAV0@@Z 100075a0 f i Common.obj
 0001:00006730       ?MoveArray@?$CDynamicArray@VCInfoEntry@@@@QAEXAAV1@@Z 10007730 f i Common.obj
 0001:000067e0       ?Lock@?$CDynamicArray@VCInfoEntry@@@@QAEXXZ 100077e0 f i Common.obj
 0001:000067f0       ?Unlock@?$CDynamicArray@VCInfoEntry@@@@QAEXXZ 100077f0 f i Common.obj
 0001:00006800       ?Index@?$CDynamicArray@VCInfoEntry@@@@QAEJPAVCInfoEntry@@@Z 10007800 f i Common.obj
 0001:00006830       ?Count@?$CDynamicArray@VCInfoEntry@@@@QBEJXZ 10007830 f i Common.obj
 0001:00006840       ??1CEntityPointer@@QAE@XZ  10007840 f i Common.obj
 0001:00006860       ?ToMatrix@?$Quaternion@M@@QBEXAAV?$Matrix@M$02$02@@@Z 10007860 f i Common.obj
 0001:00006930       ?New@?$CStaticArray@VCOneLensFlare@@@@QAEXJ@Z 10007930 f i Common.obj
 0001:000069b0       ??A?$CStaticArray@VCOneLensFlare@@@@QAEAAVCOneLensFlare@@J@Z 100079b0 f i Common.obj
 0001:000069d0       ??_ECInfoEntry@@QAEPAXI@Z  100079d0 f i Common.obj
 0001:00006a30       ??0CInfoEntry@@QAE@XZ      10007a30 f i Common.obj
 0001:00006a90       ??1CInfoEntry@@QAE@XZ      10007a90 f i Common.obj
 0001:00006af0       ??_GCDABlockInfo@@QAEPAXI@Z 10007af0 f i Common.obj
 0001:00006b20       ??_ECOneLensFlare@@QAEPAXI@Z 10007b20 f i Common.obj
 0001:00006b80       ??1CDABlockInfo@@QAE@XZ    10007b80 f i Common.obj
 0001:00006ba0       ??D?$Quaternion@M@@QBE?AV0@ABV0@@Z 10007ba0 f i Common.obj
 0001:00006c30       ??D?$Quaternion@M@@QBE?AV0@M@Z 10007c30 f i Common.obj
 0001:00006c60       ??H?$Quaternion@M@@QBE?AV0@ABV0@@Z 10007c60 f i Common.obj
 0001:00006c90       ??L?$Quaternion@M@@QBEMABV0@@Z 10007c90 f i Common.obj
 0001:00006cc0       ??_ECMapAnimal@@QAEPAXI@Z  10007cc0 f i Common.obj
 0001:00006d20       ??_H@YGXPAXIHP6EX0@Z@Z     10007d20 f i Common.obj
 0001:00006d50       ??1CMapAnimal@@QAE@XZ      10007d50 f i Common.obj
 0001:00006d60       ??0?$Quaternion@M@@QAE@MMMM@Z 10007d60 f i Common.obj
 0001:00006d80       ??_ETileLayer@@QAEPAXI@Z   10007d80 f i Common.obj
 0001:00006de0       ??1TileLayer@@QAE@XZ       10007de0 f i Common.obj
 0001:00006e90       ??1?$CStaticStackArray@J@@QAE@XZ 10007e90 f i Common.obj
 0001:00006ec0       ??1?$CStaticStackArray@UGFXColor@@@@QAE@XZ 10007ec0 f i Common.obj
 0001:00006ef0       ??1?$CStaticStackArray@UGFXTexCoord@@@@QAE@XZ 10007ef0 f i Common.obj
 0001:00006f20       ??0EStop@@QAE@ABV0@@Z      10007f20 f i Common.obj
 0001:00006f40       ??4EStop@@QAEAAV0@ABV0@@Z  10007f40 f i Common.obj
 0001:00006f60       ??1EStop@@UAE@XZ           10007f60 f i Common.obj
 0001:00006f70       ??_GEStop@@UAEPAXI@Z       10007f70 f i Common.obj
 0001:00006fa0       ??_EEStop@@UAEPAXI@Z       10007fa0 f i Common.obj
 0001:00007000       ?ClearToDefault@@YAXAAVEStop@@@Z 10008000 f i Common.obj
 0001:00007020       ??0EStart@@QAE@ABV0@@Z     10008020 f i Common.obj
 0001:00007050       ??4EStart@@QAEAAV0@ABV0@@Z 10008050 f i Common.obj
 0001:00007090       ??1EStart@@UAE@XZ          10008090 f i Common.obj
 0001:00007120       ??_GEStart@@UAEPAXI@Z      10008120 f i Common.obj
 0001:00007150       ??_EEStart@@UAEPAXI@Z      10008150 f i Common.obj
 0001:000071b0       ?ClearToDefault@@YAXAAVEStart@@@Z 100081b0 f i Common.obj
 0001:00007250       ??0EActivate@@QAE@ABV0@@Z  10008250 f i Common.obj
 0001:00007270       ??4EActivate@@QAEAAV0@ABV0@@Z 10008270 f i Common.obj
 0001:00007290       ??1EActivate@@UAE@XZ       10008290 f i Common.obj
 0001:000072a0       ??_GEActivate@@UAEPAXI@Z   100082a0 f i Common.obj
 0001:000072d0       ??_EEActivate@@UAEPAXI@Z   100082d0 f i Common.obj
 0001:00007330       ?ClearToDefault@@YAXAAVEActivate@@@Z 10008330 f i Common.obj
 0001:00007350       ??0EDeactivate@@QAE@ABV0@@Z 10008350 f i Common.obj
 0001:00007370       ??4EDeactivate@@QAEAAV0@ABV0@@Z 10008370 f i Common.obj
 0001:00007390       ??1EDeactivate@@UAE@XZ     10008390 f i Common.obj
 0001:000073a0       ??_GEDeactivate@@UAEPAXI@Z 100083a0 f i Common.obj
 0001:000073d0       ??_EEDeactivate@@UAEPAXI@Z 100083d0 f i Common.obj
 0001:00007430       ?ClearToDefault@@YAXAAVEDeactivate@@@Z 10008430 f i Common.obj
 0001:00007450       ??0EEnvironmentStart@@QAE@ABV0@@Z 10008450 f i Common.obj
 0001:00007470       ??4EEnvironmentStart@@QAEAAV0@ABV0@@Z 10008470 f i Common.obj
 0001:00007490       ??1EEnvironmentStart@@UAE@XZ 10008490 f i Common.obj
 0001:000074a0       ??_GEEnvironmentStart@@UAEPAXI@Z 100084a0 f i Common.obj
 0001:000074d0       ??_EEEnvironmentStart@@UAEPAXI@Z 100084d0 f i Common.obj
 0001:00007530       ?ClearToDefault@@YAXAAVEEnvironmentStart@@@Z 10008530 f i Common.obj
 0001:00007550       ??0EEnvironmentStop@@QAE@ABV0@@Z 10008550 f i Common.obj
 0001:00007570       ??4EEnvironmentStop@@QAEAAV0@ABV0@@Z 10008570 f i Common.obj
 0001:00007590       ??1EEnvironmentStop@@UAE@XZ 10008590 f i Common.obj
 0001:000075a0       ??_GEEnvironmentStop@@UAEPAXI@Z 100085a0 f i Common.obj
 0001:000075d0       ??_EEEnvironmentStop@@UAEPAXI@Z 100085d0 f i Common.obj
 0001:00007630       ?ClearToDefault@@YAXAAVEEnvironmentStop@@@Z 10008630 f i Common.obj
 0001:00007650       ??0EEnd@@QAE@ABV0@@Z       10008650 f i Common.obj
 0001:00007670       ??4EEnd@@QAEAAV0@ABV0@@Z   10008670 f i Common.obj
 0001:00007690       ??1EEnd@@UAE@XZ            10008690 f i Common.obj
 0001:000076a0       ??_GEEnd@@UAEPAXI@Z        100086a0 f i Common.obj
 0001:000076d0       ??_EEEnd@@UAEPAXI@Z        100086d0 f i Common.obj
 0001:00007730       ?ClearToDefault@@YAXAAVEEnd@@@Z 10008730 f i Common.obj
 0001:00007750       ??0ETrigger@@QAE@ABV0@@Z   10008750 f i Common.obj
 0001:00007780       ??4ETrigger@@QAEAAV0@ABV0@@Z 10008780 f i Common.obj
 0001:000077c0       ??1ETrigger@@UAE@XZ        100087c0 f i Common.obj
 0001:00007850       ??_GETrigger@@UAEPAXI@Z    10008850 f i Common.obj
 0001:00007880       ??_EETrigger@@UAEPAXI@Z    10008880 f i Common.obj
 0001:000078e0       ?ClearToDefault@@YAXAAVETrigger@@@Z 100088e0 f i Common.obj
 0001:00007980       ??0ETeleportMovingBrush@@QAE@ABV0@@Z 10008980 f i Common.obj
 0001:000079a0       ??4ETeleportMovingBrush@@QAEAAV0@ABV0@@Z 100089a0 f i Common.obj
 0001:000079c0       ??1ETeleportMovingBrush@@UAE@XZ 100089c0 f i Common.obj
 0001:000079d0       ??_GETeleportMovingBrush@@UAEPAXI@Z 100089d0 f i Common.obj
 0001:00007a00       ??_EETeleportMovingBrush@@UAEPAXI@Z 10008a00 f i Common.obj
 0001:00007a60       ?ClearToDefault@@YAXAAVETeleportMovingBrush@@@Z 10008a60 f i Common.obj
 0001:00007a80       ??0EReminder@@QAE@ABV0@@Z  10008a80 f i Common.obj
 0001:00007ab0       ??4EReminder@@QAEAAV0@ABV0@@Z 10008ab0 f i Common.obj
 0001:00007ad0       ??1EReminder@@UAE@XZ       10008ad0 f i Common.obj
 0001:00007ae0       ??_GEReminder@@UAEPAXI@Z   10008ae0 f i Common.obj
 0001:00007b10       ??_EEReminder@@UAEPAXI@Z   10008b10 f i Common.obj
 0001:00007b70       ?ClearToDefault@@YAXAAVEReminder@@@Z 10008b70 f i Common.obj
 0001:00007ba0       ??0EStartAttack@@QAE@ABV0@@Z 10008ba0 f i Common.obj
 0001:00007bc0       ??4EStartAttack@@QAEAAV0@ABV0@@Z 10008bc0 f i Common.obj
 0001:00007be0       ??1EStartAttack@@UAE@XZ    10008be0 f i Common.obj
 0001:00007bf0       ??_GEStartAttack@@UAEPAXI@Z 10008bf0 f i Common.obj
 0001:00007c20       ??_EEStartAttack@@UAEPAXI@Z 10008c20 f i Common.obj
 0001:00007c80       ?ClearToDefault@@YAXAAVEStartAttack@@@Z 10008c80 f i Common.obj
 0001:00007ca0       ??0EStopAttack@@QAE@ABV0@@Z 10008ca0 f i Common.obj
 0001:00007cc0       ??4EStopAttack@@QAEAAV0@ABV0@@Z 10008cc0 f i Common.obj
 0001:00007ce0       ??1EStopAttack@@UAE@XZ     10008ce0 f i Common.obj
 0001:00007cf0       ??_GEStopAttack@@UAEPAXI@Z 10008cf0 f i Common.obj
 0001:00007d20       ??_EEStopAttack@@UAEPAXI@Z 10008d20 f i Common.obj
 0001:00007d80       ?ClearToDefault@@YAXAAVEStopAttack@@@Z 10008d80 f i Common.obj
 0001:00007da0       ??0EStopBlindness@@QAE@ABV0@@Z 10008da0 f i Common.obj
 0001:00007dc0       ??4EStopBlindness@@QAEAAV0@ABV0@@Z 10008dc0 f i Common.obj
 0001:00007de0       ??1EStopBlindness@@UAE@XZ  10008de0 f i Common.obj
 0001:00007df0       ??_GEStopBlindness@@UAEPAXI@Z 10008df0 f i Common.obj
 0001:00007e20       ??_EEStopBlindness@@UAEPAXI@Z 10008e20 f i Common.obj
 0001:00007e80       ?ClearToDefault@@YAXAAVEStopBlindness@@@Z 10008e80 f i Common.obj
 0001:00007ea0       ??0EStopDeafness@@QAE@ABV0@@Z 10008ea0 f i Common.obj
 0001:00007ec0       ??4EStopDeafness@@QAEAAV0@ABV0@@Z 10008ec0 f i Common.obj
 0001:00007ee0       ??1EStopDeafness@@UAE@XZ   10008ee0 f i Common.obj
 0001:00007ef0       ??_GEStopDeafness@@UAEPAXI@Z 10008ef0 f i Common.obj
 0001:00007f20       ??_EEStopDeafness@@UAEPAXI@Z 10008f20 f i Common.obj
 0001:00007f80       ?ClearToDefault@@YAXAAVEStopDeafness@@@Z 10008f80 f i Common.obj
 0001:00007fa0       ??0EReceiveScore@@QAE@ABV0@@Z 10008fa0 f i Common.obj
 0001:00007fd0       ??4EReceiveScore@@QAEAAV0@ABV0@@Z 10008fd0 f i Common.obj
 0001:00007ff0       ??1EReceiveScore@@UAE@XZ   10008ff0 f i Common.obj
 0001:00008000       ??_GEReceiveScore@@UAEPAXI@Z 10009000 f i Common.obj
 0001:00008030       ??_EEReceiveScore@@UAEPAXI@Z 10009030 f i Common.obj
 0001:00008090       ?ClearToDefault@@YAXAAVEReceiveScore@@@Z 10009090 f i Common.obj
 0001:000080c0       ??0EKilledEnemy@@QAE@ABV0@@Z 100090c0 f i Common.obj
 0001:000080e0       ??4EKilledEnemy@@QAEAAV0@ABV0@@Z 100090e0 f i Common.obj
 0001:00008100       ??1EKilledEnemy@@UAE@XZ    10009100 f i Common.obj
 0001:00008110       ??_GEKilledEnemy@@UAEPAXI@Z 10009110 f i Common.obj
 0001:00008140       ??_EEKilledEnemy@@UAEPAXI@Z 10009140 f i Common.obj
 0001:000081a0       ?ClearToDefault@@YAXAAVEKilledEnemy@@@Z 100091a0 f i Common.obj
 0001:000081c0       ??0ESecretFound@@QAE@ABV0@@Z 100091c0 f i Common.obj
 0001:000081e0       ??4ESecretFound@@QAEAAV0@ABV0@@Z 100091e0 f i Common.obj
 0001:00008200       ??1ESecretFound@@UAE@XZ    10009200 f i Common.obj
 0001:00008210       ??_GESecretFound@@UAEPAXI@Z 10009210 f i Common.obj
 0001:00008240       ??_EESecretFound@@UAEPAXI@Z 10009240 f i Common.obj
 0001:000082a0       ?ClearToDefault@@YAXAAVESecretFound@@@Z 100092a0 f i Common.obj
 0001:000082c0       ?ClearToDefault@@YAXAAW4BoolEType@@@Z 100092c0 f i Common.obj
 0001:000082d0       ?ClearToDefault@@YAXAAW4ESEntityTypes@@@Z 100092d0 f i Common.obj
 0001:000082e0       ?ClearToDefault@@YAXAAW4eSkaModelFlags@@@Z 100092e0 f i Common.obj
 0001:000082f0       ?ClearToDefault@@YAXAAW4EventEType@@@Z 100092f0 f i Common.obj
 0001:00008300       ?ClearToDefault@@YAXAAW4EntityInfoBodyType@@@Z 10009300 f i Common.obj
 0001:00008310       ?ClearToDefault@@YAXAAW4MessageSound@@@Z 10009310 f i Common.obj
 0001:00008320       ?ClearToDefault@@YAXAAW4ParticleTexture@@@Z 10009320 f i Common.obj
 0001:00008330       ?ClearToDefault@@YAXAAW4SoundType@@@Z 10009330 f i Common.obj
 0001:00008340       ?ClearToDefault@@YAXAAW4eMarkerBehavior@@@Z 10009340 f i Common.obj
 0001:00008350       ?ClearToDefault@@YAXAAW4eSkaMarkerPlacementBehavior2@@@Z 10009350 f i Common.obj
 0001:00008360       ?ClearToDefault@@YAXAAW4eSkaMarkerAnimBehavior@@@Z 10009360 f i Common.obj
 0001:00008370       ?ClearToDefault@@YAXAAW4eSkaMarkerCollideBehavior@@@Z 10009370 f i Common.obj
 0001:00008380       ?ClearToDefault@@YAXAAW4eSkaMarkerLightingBehavior@@@Z 10009380 f i Common.obj
 0001:00008390       ?ClearToDefault@@YAXAAW4eSkaMarkerTypeBehavior@@@Z 10009390 f i Common.obj
 0001:000083a0       ??0ESound@@QAE@ABV0@@Z     100093a0 f i Common.obj
 0001:000083e0       ??4ESound@@QAEAAV0@ABV0@@Z 100093e0 f i Common.obj
 0001:00008430       ??1ESound@@UAE@XZ          10009430 f i Common.obj
 0001:000084c0       ??_GESound@@UAEPAXI@Z      100094c0 f i Common.obj
 0001:000084f0       ??_EESound@@UAEPAXI@Z      100094f0 f i Common.obj
 0001:00008550       ?ClearToDefault@@YAXAAVESound@@@Z 10009550 f i Common.obj
 0001:000085f0       ??0ECenterMessage@@QAE@ABV0@@Z 100095f0 f i Common.obj
 0001:00008660       ??4ECenterMessage@@QAEAAV0@ABV0@@Z 10009660 f i Common.obj
 0001:000086b0       ??1ECenterMessage@@UAE@XZ  100096b0 f i Common.obj
 0001:00008700       ??_GECenterMessage@@UAEPAXI@Z 10009700 f i Common.obj
 0001:00008730       ??_EECenterMessage@@UAEPAXI@Z 10009730 f i Common.obj
 0001:00008790       ?ClearToDefault@@YAXAAVECenterMessage@@@Z 10009790 f i Common.obj
 0001:00008820       ??0EComputerMessage@@QAE@ABV0@@Z 10009820 f i Common.obj
 0001:00008890       ??4EComputerMessage@@QAEAAV0@ABV0@@Z 10009890 f i Common.obj
 0001:000088d0       ??1EComputerMessage@@UAE@XZ 100098d0 f i Common.obj
 0001:00008920       ??_GEComputerMessage@@UAEPAXI@Z 10009920 f i Common.obj
 0001:00008950       ??_EEComputerMessage@@UAEPAXI@Z 10009950 f i Common.obj
 0001:000089b0       ?ClearToDefault@@YAXAAVEComputerMessage@@@Z 100099b0 f i Common.obj
 0001:00008a30       ??0EVoiceMessage@@QAE@ABV0@@Z 10009a30 f i Common.obj
 0001:00008aa0       ??4EVoiceMessage@@QAEAAV0@ABV0@@Z 10009aa0 f i Common.obj
 0001:00008ae0       ??1EVoiceMessage@@UAE@XZ   10009ae0 f i Common.obj
 0001:00008b30       ??_GEVoiceMessage@@UAEPAXI@Z 10009b30 f i Common.obj
 0001:00008b60       ??_EEVoiceMessage@@UAEPAXI@Z 10009b60 f i Common.obj
 0001:00008bc0       ?ClearToDefault@@YAXAAVEVoiceMessage@@@Z 10009bc0 f i Common.obj
 0001:00008c40       ??0EHitBySpaceShipBeam@@QAE@ABV0@@Z 10009c40 f i Common.obj
 0001:00008c60       ??4EHitBySpaceShipBeam@@QAEAAV0@ABV0@@Z 10009c60 f i Common.obj
 0001:00008c80       ??1EHitBySpaceShipBeam@@UAE@XZ 10009c80 f i Common.obj
 0001:00008c90       ??_GEHitBySpaceShipBeam@@UAEPAXI@Z 10009c90 f i Common.obj
 0001:00008cc0       ??_EEHitBySpaceShipBeam@@UAEPAXI@Z 10009cc0 f i Common.obj
 0001:00008d20       ?ClearToDefault@@YAXAAVEHitBySpaceShipBeam@@@Z 10009d20 f i Common.obj
 0001:00008d40       ??0EClicked@@QAE@ABV0@@Z   10009d40 f i Common.obj
 0001:00008d70       ??4EClicked@@QAEAAV0@ABV0@@Z 10009d70 f i Common.obj
 0001:00008db0       ??1EClicked@@UAE@XZ        10009db0 f i Common.obj
 0001:00008e40       ??_GEClicked@@UAEPAXI@Z    10009e40 f i Common.obj
 0001:00008e70       ??_EEClicked@@UAEPAXI@Z    10009e70 f i Common.obj
 0001:00008ed0       ?ClearToDefault@@YAXAAVEClicked@@@Z 10009ed0 f i Common.obj
 0001:00008f70       ??0EUseCall@@QAE@ABV0@@Z   10009f70 f i Common.obj
 0001:00008fb0       ??4EUseCall@@QAEAAV0@ABV0@@Z 10009fb0 f i Common.obj
 0001:00009000       ??1EUseCall@@UAE@XZ        1000a000 f i Common.obj
 0001:00009090       ??_GEUseCall@@UAEPAXI@Z    1000a090 f i Common.obj
 0001:000090c0       ??_EEUseCall@@UAEPAXI@Z    1000a0c0 f i Common.obj
 0001:00009120       ?ClearToDefault@@YAXAAVEUseCall@@@Z 1000a120 f i Common.obj
 0001:000091c0       ?ClearToDefault@@YAXAAW4SprayParticlesType@@@Z 1000a1c0 f i Common.obj
 0001:000091d0       ??0ESpawnSpray@@QAE@ABV0@@Z 1000a1d0 f i Common.obj
 0001:00009230       ??4ESpawnSpray@@QAEAAV0@ABV0@@Z 1000a230 f i Common.obj
 0001:000092a0       ??1ESpawnSpray@@UAE@XZ     1000a2a0 f i Common.obj
 0001:00009330       ??_GESpawnSpray@@UAEPAXI@Z 1000a330 f i Common.obj
 0001:00009360       ??_EESpawnSpray@@UAEPAXI@Z 1000a360 f i Common.obj
 0001:000093c0       ?ClearToDefault@@YAXAAVESpawnSpray@@@Z 1000a3c0 f i Common.obj
 0001:00009480       ??0ERangeModelDestruction@@QAE@ABV0@@Z 1000a480 f i Common.obj
 0001:000094a0       ??4ERangeModelDestruction@@QAEAAV0@ABV0@@Z 1000a4a0 f i Common.obj
 0001:000094c0       ??1ERangeModelDestruction@@UAE@XZ 1000a4c0 f i Common.obj
 0001:000094d0       ??_GERangeModelDestruction@@UAEPAXI@Z 1000a4d0 f i Common.obj
 0001:00009500       ??_EERangeModelDestruction@@UAEPAXI@Z 1000a500 f i Common.obj
 0001:00009560       ?ClearToDefault@@YAXAAVERangeModelDestruction@@@Z 1000a560 f i Common.obj
 0001:00009580       ?ClearToDefault@@YAXAAW4DestructionDebrisType@@@Z 1000a580 f i Common.obj
 0001:00009590       ?ClearToDefault@@YAXAAW4CustomShadingType@@@Z 1000a590 f i Common.obj
 0001:000095a0       ?ClearToDefault@@YAXAAW4ShadowType@@@Z 1000a5a0 f i Common.obj
 0001:000095b0       ??0EChangeAnim@@QAE@ABV0@@Z 1000a5b0 f i Common.obj
 0001:00009610       ??4EChangeAnim@@QAEAAV0@ABV0@@Z 1000a610 f i Common.obj
 0001:00009660       ??1EChangeAnim@@UAE@XZ     1000a660 f i Common.obj
 0001:00009670       ??_GEChangeAnim@@UAEPAXI@Z 1000a670 f i Common.obj
 0001:000096a0       ??_EEChangeAnim@@UAEPAXI@Z 1000a6a0 f i Common.obj
 0001:00009700       ?ClearToDefault@@YAXAAVEChangeAnim@@@Z 1000a700 f i Common.obj
 0001:00009760       ?ClearToDefault@@YAXAAW4LightType@@@Z 1000a760 f i Common.obj
 0001:00009770       ?ClearToDefault@@YAXAAW4LensFlareType@@@Z 1000a770 f i Common.obj
 0001:00009780       ?ClearToDefault@@YAXAAW4PSBlendType@@@Z 1000a780 f i Common.obj
 0001:00009790       ?ClearToDefault@@YAXAAW4PSPartType@@@Z 1000a790 f i Common.obj
 0001:000097a0       ?ClearToDefault@@YAXAAW4PSFadeType@@@Z 1000a7a0 f i Common.obj
 0001:000097b0       ?ClearToDefault@@YAXAAW4PSScaleType@@@Z 1000a7b0 f i Common.obj
 0001:000097c0       ?ClearToDefault@@YAXAAW4BasicEffectType@@@Z 1000a7c0 f i Common.obj
 0001:000097d0       ?ClearToDefault@@YAXAAW4EffectParticlesType@@@Z 1000a7d0 f i Common.obj
 0001:000097e0       ??0ESpawnEffect@@QAE@ABV0@@Z 1000a7e0 f i Common.obj
 0001:00009860       ??4ESpawnEffect@@QAEAAV0@ABV0@@Z 1000a860 f i Common.obj
 0001:000098d0       ??1ESpawnEffect@@UAE@XZ    1000a8d0 f i Common.obj
 0001:000098e0       ??_GESpawnEffect@@UAEPAXI@Z 1000a8e0 f i Common.obj
 0001:00009910       ??_EESpawnEffect@@UAEPAXI@Z 1000a910 f i Common.obj
 0001:00009970       ?ClearToDefault@@YAXAAVESpawnEffect@@@Z 1000a970 f i Common.obj
 0001:000099e0       ?ClearToDefault@@YAXAAW4DebrisParticlesType@@@Z 1000a9e0 f i Common.obj
 0001:000099f0       ??0ESpawnDebris@@QAE@ABV0@@Z 1000a9f0 f i Common.obj
 0001:00009a60       ??4ESpawnDebris@@QAEAAV0@ABV0@@Z 1000aa60 f i Common.obj
 0001:00009ac0       ??1ESpawnDebris@@UAE@XZ    1000aac0 f i Common.obj
 0001:00009ad0       ??_GESpawnDebris@@UAEPAXI@Z 1000aad0 f i Common.obj
 0001:00009b00       ??_EESpawnDebris@@UAEPAXI@Z 1000ab00 f i Common.obj
 0001:00009b60       ?ClearToDefault@@YAXAAVESpawnDebris@@@Z 1000ab60 f i Common.obj
 0001:00009bc0       ??0PlayerStats@@QAE@XZ     1000abc0 f i Common.obj
 0001:00009be0       ??4PlayerStats@@QAEAAU0@ABU0@@Z 1000abe0 f i Common.obj
 0001:00009c00       ??0PlayerAnimState@@QAE@XZ 1000ac00 f i Common.obj
 0001:00009c20       ?Clear@PlayerAnimState@@QAEXXZ 1000ac20 f i Common.obj
 0001:00009c40       ?Copy@PlayerAnimState@@QAEXAAU1@@Z 1000ac40 f i Common.obj
 0001:00009c80       ?Read@PlayerAnimState@@QAEXPAVCTStream@@@Z 1000ac80 f i Common.obj
 0001:00009d30       ?Write@PlayerAnimState@@QAEXPAVCTStream@@@Z 1000ad30 f i Common.obj
 0001:00009de0       ??4PlayerAnimState@@QAEAAU0@ABU0@@Z 1000ade0 f i Common.obj
 0001:00009e00       ?GetSP@@YAPBVCSessionProperties@@XZ 1000ae00 f i Common.obj
 0001:00009e10       ??0CCompMessageID@@QAE@XZ  1000ae10 f i Common.obj
 0001:00009e30       ??0CCompMessageID@@QAE@ABV0@@Z 1000ae30 f i Common.obj
 0001:00009e70       ??4CCompMessageID@@QAEAAV0@ABV0@@Z 1000ae70 f i Common.obj
 0001:00009ec0       ??1CCompMessageID@@QAE@XZ  1000aec0 f i Common.obj
 0001:00009ed0       ??0EReminderInit@@QAE@ABV0@@Z 1000aed0 f i Common.obj
 0001:00009f10       ??4EReminderInit@@QAEAAV0@ABV0@@Z 1000af10 f i Common.obj
 0001:00009f60       ??1EReminderInit@@UAE@XZ   1000af60 f i Common.obj
 0001:00009ff0       ??_GEReminderInit@@UAEPAXI@Z 1000aff0 f i Common.obj
 0001:0000a020       ??_EEReminderInit@@UAEPAXI@Z 1000b020 f i Common.obj
 0001:0000a080       ?ClearToDefault@@YAXAAVEReminderInit@@@Z 1000b080 f i Common.obj
 0001:0000a120       ??0CReminder@@QAE@XZ       1000b120 f i Common.obj
 0001:0000a140       ??0CReminder@@QAE@ABV0@@Z  1000b140 f i Common.obj
 0001:0000a1f0       ??4CReminder@@QAEAAV0@AAV0@@Z 1000b1f0 f i Common.obj
 0001:0000a2e0       ?Delete@?$CStaticArray@J@@QAEXXZ 1000b2e0 f i Common.obj
 0001:0000a300       ??1CReminder@@UAE@XZ       1000b300 f i Common.obj
 0001:0000a3b0       ??_GCReminder@@UAEPAXI@Z   1000b3b0 f i Common.obj
 0001:0000a3e0       ??_ECReminder@@UAEPAXI@Z   1000b3e0 f i Common.obj
 0001:0000a720       ?SetAllPlayersStats@@YAJJ@Z 1000b720 f   HUD.obj
 0001:0000a930       ?DrawHUD@@YAXPBVCPlayer@@PAVCDrawPort@@H@Z 1000b930 f   HUD.obj
 0001:0000a990       ?ReloadOpticsReticle@@YAXPAVCPlayer@@@Z 1000b990 f   HUD.obj
 0001:0000a9b0       ?InitOpticsReticle@@YAXPAVCPlayer@@@Z 1000b9b0 f   HUD.obj
 0001:0000ab70       ?ReleaseOpticsArt@@YAXXZ   1000bb70 f   HUD.obj
 0001:0000ab90       ?ShowReticle@@YAXH@Z       1000bb90 f   HUD.obj
 0001:0000aba0       ?RenderOptics@@YAXPAVCPlayer@@@Z 1000bba0 f   HUD.obj
 0001:0000add0       ?RenderRange@@YAXXZ        1000bdd0 f   HUD.obj
 0001:0000ade0       ?InitHUD@@YAXXZ            1000bde0 f   HUD.obj
 0001:0000adf0       ?EndHUD@@YAXXZ             1000bdf0 f   HUD.obj
 0001:0000ae00       ?GetHUDHotItem@@YAJJ@Z     1000be00 f   HUD.obj
 0001:0000ae20       ?TransferHUDData@@YAXPAVCPlayer@@@Z 1000be20 f   HUD.obj
 0001:0000b2c0       ??_ECCompMessageID@@QAEPAXI@Z 1000c2c0 f i HUD.obj
 0001:0000b320       ?ClearToDefault@@YAXAAW4BlindType@@@Z 1000c320 f i HUD.obj
 0001:0000b330       ??0ETimeDelayed@@QAE@ABV0@@Z 1000c330 f i HUD.obj
 0001:0000b3a0       ??4ETimeDelayed@@QAEAAV0@ABV0@@Z 1000c3a0 f i HUD.obj
 0001:0000b3e0       ??1ETimeDelayed@@UAE@XZ    1000c3e0 f i HUD.obj
 0001:0000b430       ??_GETimeDelayed@@UAEPAXI@Z 1000c430 f i HUD.obj
 0001:0000b460       ??_EETimeDelayed@@UAEPAXI@Z 1000c460 f i HUD.obj
 0001:0000b4c0       ?ClearToDefault@@YAXAAVETimeDelayed@@@Z 1000c4c0 f i HUD.obj
 0001:0000b540       ?ClearToDefault@@YAXAAW4TDEGenericMessageType@@@Z 1000c540 f i HUD.obj
 0001:0000b550       ?ClearToDefault@@YAXAAW4PlayerViewType@@@Z 1000c550 f i HUD.obj
 0001:0000b560       ?ClearToDefault@@YAXAAW4PlayerInterfaceType@@@Z 1000c560 f i HUD.obj
 0001:0000b570       ?ClearToDefault@@YAXAAW4PlayerPrimaryState@@@Z 1000c570 f i HUD.obj
 0001:0000b580       ?ClearToDefault@@YAXAAW4OpticType@@@Z 1000c580 f i HUD.obj
 0001:0000b590       ??0ECameraStart@@QAE@ABV0@@Z 1000c590 f i HUD.obj
 0001:0000b5c0       ??4ECameraStart@@QAEAAV0@ABV0@@Z 1000c5c0 f i HUD.obj
 0001:0000b600       ??1ECameraStart@@UAE@XZ    1000c600 f i HUD.obj
 0001:0000b690       ??_GECameraStart@@UAEPAXI@Z 1000c690 f i HUD.obj
 0001:0000b6c0       ??_EECameraStart@@UAEPAXI@Z 1000c6c0 f i HUD.obj
 0001:0000b720       ?ClearToDefault@@YAXAAVECameraStart@@@Z 1000c720 f i HUD.obj
 0001:0000b7c0       ??0ECameraStop@@QAE@ABV0@@Z 1000c7c0 f i HUD.obj
 0001:0000b7f0       ??4ECameraStop@@QAEAAV0@ABV0@@Z 1000c7f0 f i HUD.obj
 0001:0000b830       ??1ECameraStop@@UAE@XZ     1000c830 f i HUD.obj
 0001:0000b8c0       ??_GECameraStop@@UAEPAXI@Z 1000c8c0 f i HUD.obj
 0001:0000b8f0       ??_EECameraStop@@UAEPAXI@Z 1000c8f0 f i HUD.obj
 0001:0000b950       ?ClearToDefault@@YAXAAVECameraStop@@@Z 1000c950 f i HUD.obj
 0001:0000b9f0       ??0ERebirth@@QAE@ABV0@@Z   1000c9f0 f i HUD.obj
 0001:0000ba10       ??4ERebirth@@QAEAAV0@ABV0@@Z 1000ca10 f i HUD.obj
 0001:0000ba30       ??1ERebirth@@UAE@XZ        1000ca30 f i HUD.obj
 0001:0000ba40       ??_GERebirth@@UAEPAXI@Z    1000ca40 f i HUD.obj
 0001:0000ba70       ??_EERebirth@@UAEPAXI@Z    1000ca70 f i HUD.obj
 0001:0000bad0       ?ClearToDefault@@YAXAAVERebirth@@@Z 1000cad0 f i HUD.obj
 0001:0000baf0       ??0EDisconnected@@QAE@ABV0@@Z 1000caf0 f i HUD.obj
 0001:0000bb10       ??4EDisconnected@@QAEAAV0@ABV0@@Z 1000cb10 f i HUD.obj
 0001:0000bb30       ??1EDisconnected@@UAE@XZ   1000cb30 f i HUD.obj
 0001:0000bb40       ??_GEDisconnected@@UAEPAXI@Z 1000cb40 f i HUD.obj
 0001:0000bb70       ??_EEDisconnected@@UAEPAXI@Z 1000cb70 f i HUD.obj
 0001:0000bbd0       ?ClearToDefault@@YAXAAVEDisconnected@@@Z 1000cbd0 f i HUD.obj
 0001:0000bbf0       ??0EAutoAction@@QAE@ABV0@@Z 1000cbf0 f i HUD.obj
 0001:0000bc20       ??4EAutoAction@@QAEAAV0@ABV0@@Z 1000cc20 f i HUD.obj
 0001:0000bc60       ??1EAutoAction@@UAE@XZ     1000cc60 f i HUD.obj
 0001:0000bcf0       ??_GEAutoAction@@UAEPAXI@Z 1000ccf0 f i HUD.obj
 0001:0000bd20       ??_EEAutoAction@@UAEPAXI@Z 1000cd20 f i HUD.obj
 0001:0000bd80       ?ClearToDefault@@YAXAAVEAutoAction@@@Z 1000cd80 f i HUD.obj
 0001:0000be20       ??0ESlideTreeStand@@QAE@ABV0@@Z 1000ce20 f i HUD.obj
 0001:0000be50       ??4ESlideTreeStand@@QAEAAV0@ABV0@@Z 1000ce50 f i HUD.obj
 0001:0000be70       ??1ESlideTreeStand@@UAE@XZ 1000ce70 f i HUD.obj
 0001:0000be80       ??_GESlideTreeStand@@UAEPAXI@Z 1000ce80 f i HUD.obj
 0001:0000beb0       ??_EESlideTreeStand@@UAEPAXI@Z 1000ceb0 f i HUD.obj
 0001:0000bf10       ?ClearToDefault@@YAXAAVESlideTreeStand@@@Z 1000cf10 f i HUD.obj
 0001:0000bf40       ??0EKilledDeer@@QAE@ABV0@@Z 1000cf40 f i HUD.obj
 0001:0000bf80       ??4EKilledDeer@@QAEAAV0@ABV0@@Z 1000cf80 f i HUD.obj
 0001:0000bfd0       ??1EKilledDeer@@UAE@XZ     1000cfd0 f i HUD.obj
 0001:0000c060       ??_GEKilledDeer@@UAEPAXI@Z 1000d060 f i HUD.obj
 0001:0000c090       ??_EEKilledDeer@@UAEPAXI@Z 1000d090 f i HUD.obj
 0001:0000c0f0       ?ClearToDefault@@YAXAAVEKilledDeer@@@Z 1000d0f0 f i HUD.obj
 0001:0000c190       ??0EAnimalClaimed@@QAE@ABV0@@Z 1000d190 f i HUD.obj
 0001:0000c1c0       ??4EAnimalClaimed@@QAEAAV0@ABV0@@Z 1000d1c0 f i HUD.obj
 0001:0000c200       ??1EAnimalClaimed@@UAE@XZ  1000d200 f i HUD.obj
 0001:0000c290       ??_GEAnimalClaimed@@UAEPAXI@Z 1000d290 f i HUD.obj
 0001:0000c2c0       ??_EEAnimalClaimed@@UAEPAXI@Z 1000d2c0 f i HUD.obj
 0001:0000c320       ?ClearToDefault@@YAXAAVEAnimalClaimed@@@Z 1000d320 f i HUD.obj
 0001:0000c3c0       ??0EProfileScore@@QAE@ABV0@@Z 1000d3c0 f i HUD.obj
 0001:0000c400       ??4EProfileScore@@QAEAAV0@ABV0@@Z 1000d400 f i HUD.obj
 0001:0000c430       ??1EProfileScore@@UAE@XZ   1000d430 f i HUD.obj
 0001:0000c440       ??_GEProfileScore@@UAEPAXI@Z 1000d440 f i HUD.obj
 0001:0000c470       ??_EEProfileScore@@UAEPAXI@Z 1000d470 f i HUD.obj
 0001:0000c4d0       ?ClearToDefault@@YAXAAVEProfileScore@@@Z 1000d4d0 f i HUD.obj
 0001:0000c500       ??0EPlayerFired@@QAE@ABV0@@Z 1000d500 f i HUD.obj
 0001:0000c540       ??4EPlayerFired@@QAEAAV0@ABV0@@Z 1000d540 f i HUD.obj
 0001:0000c570       ??1EPlayerFired@@UAE@XZ    1000d570 f i HUD.obj
 0001:0000c580       ??_GEPlayerFired@@UAEPAXI@Z 1000d580 f i HUD.obj
 0001:0000c5b0       ??_EEPlayerFired@@UAEPAXI@Z 1000d5b0 f i HUD.obj
 0001:0000c610       ?ClearToDefault@@YAXAAVEPlayerFired@@@Z 1000d610 f i HUD.obj
 0001:0000c650       ??0ERoundChange@@QAE@ABV0@@Z 1000d650 f i HUD.obj
 0001:0000c670       ??4ERoundChange@@QAEAAV0@ABV0@@Z 1000d670 f i HUD.obj
 0001:0000c690       ??1ERoundChange@@UAE@XZ    1000d690 f i HUD.obj
 0001:0000c6a0       ??_GERoundChange@@UAEPAXI@Z 1000d6a0 f i HUD.obj
 0001:0000c6d0       ??_EERoundChange@@UAEPAXI@Z 1000d6d0 f i HUD.obj
 0001:0000c730       ?ClearToDefault@@YAXAAVERoundChange@@@Z 1000d730 f i HUD.obj
 0001:0000c750       ??0EWorldClick@@QAE@ABV0@@Z 1000d750 f i HUD.obj
 0001:0000c780       ??4EWorldClick@@QAEAAV0@ABV0@@Z 1000d780 f i HUD.obj
 0001:0000c7c0       ??1EWorldClick@@UAE@XZ     1000d7c0 f i HUD.obj
 0001:0000c850       ??_GEWorldClick@@UAEPAXI@Z 1000d850 f i HUD.obj
 0001:0000c880       ??_EEWorldClick@@UAEPAXI@Z 1000d880 f i HUD.obj
 0001:0000c8e0       ?ClearToDefault@@YAXAAVEWorldClick@@@Z 1000d8e0 f i HUD.obj
 0001:0000c980       ??0EMessage@@QAE@ABV0@@Z   1000d980 f i HUD.obj
 0001:0000c9f0       ??4EMessage@@QAEAAV0@ABV0@@Z 1000d9f0 f i HUD.obj
 0001:0000ca30       ??1EMessage@@UAE@XZ        1000da30 f i HUD.obj
 0001:0000ca80       ??_GEMessage@@UAEPAXI@Z    1000da80 f i HUD.obj
 0001:0000cab0       ??_EEMessage@@UAEPAXI@Z    1000dab0 f i HUD.obj
 0001:0000cb10       ?ClearToDefault@@YAXAAVEMessage@@@Z 1000db10 f i HUD.obj
 0001:0000cb90       ?GetPredictionPair@CPlayer@@UAEPAVCEntity@@XZ 1000db90 f i HUD.obj
 0001:0000cba0       ?SetPredictionPair@CPlayer@@UAEXPAVCEntity@@@Z 1000dba0 f i HUD.obj
 0001:0000cbe0       ??0CPlayer@@QAE@AAV0@@Z    1000dbe0 f i HUD.obj
 0001:0000e910       ??0?$CDynamicArray@VCCompMessageID@@@@QAE@AAV0@@Z 1000f910 f i HUD.obj
 0001:0000ea30       ??1?$CDynamicStackArray@VCCompMessageID@@@@QAE@XZ 1000fa30 f i HUD.obj
 0001:0000ead0       ??0?$CDynamicContainer@VCBaggedGame@@@@QAE@AAV0@@Z 1000fad0 f i HUD.obj
 0001:0000eb60       ??1?$CStaticStackArray@PAVCBaggedGame@@@@QAE@XZ 1000fb60 f i HUD.obj
 0001:0000eb90       ?GrowPointers@?$CDynamicArray@VCCompMessageID@@@@QAEXJ@Z 1000fb90 f i HUD.obj
 0001:0000ebe0       ?AllocBlock@?$CDynamicArray@VCCompMessageID@@@@QAEPAVCCompMessageID@@J@Z 1000fbe0 f i HUD.obj
 0001:0000ec90       ??4CPlayer@@QAEAAV0@AAV0@@Z 1000fc90 f i HUD.obj
 0001:00010620       ??4CEntityPointer@@QAEABV0@ABV0@@Z 10011620 f i HUD.obj
 0001:00010660       ??4?$CDynamicStackArray@VCCompMessageID@@@@QAEAAV0@AAV0@@Z 10011660 f i HUD.obj
 0001:000107a0       ??4?$CStaticStackArray@PAVCBaggedGame@@@@QAEAAV0@ABV0@@Z 100117a0 f i HUD.obj
 0001:00010810       ??1CPlayer@@UAE@XZ         10011810 f i HUD.obj
 0001:00010f60       ?Clear@?$CDynamicArray@VCCompMessageID@@@@QAEXXZ 10011f60 f i HUD.obj
 0001:00010ff0       ?Clear@?$CStaticStackArray@PAVCBaggedGame@@@@QAEXXZ 10011ff0 f i HUD.obj
 0001:00011020       ??1?$CStaticArray@PAVCBaggedGame@@@@QAE@XZ 10012020 f i HUD.obj
 0001:00011050       ??_GCPlayer@@UAEPAXI@Z     10012050 f i HUD.obj
 0001:00011080       ??_ECPlayer@@UAEPAXI@Z     10012080 f i HUD.obj
 0001:000110e0       ??0CSoundListener@@QAE@ABV0@@Z 100120e0 f i HUD.obj
 0001:00011160       ??1CSoundListener@@QAE@XZ  10012160 f i HUD.obj
 0001:00011180       ??4CSoundListener@@QAEAAV0@ABV0@@Z 10012180 f i HUD.obj
 0001:00011200       ?ClearToDefault@@YAXAAW4MusicType@@@Z 10012200 f i HUD.obj
 0001:00011210       ??0EChangeMusic@@QAE@ABV0@@Z 10012210 f i HUD.obj
 0001:00011290       ??4EChangeMusic@@QAEAAV0@ABV0@@Z 10012290 f i HUD.obj
 0001:000112e0       ??1EChangeMusic@@UAE@XZ    100122e0 f i HUD.obj
 0001:00011330       ??_GEChangeMusic@@UAEPAXI@Z 10012330 f i HUD.obj
 0001:00011360       ??_EEChangeMusic@@UAEPAXI@Z 10012360 f i HUD.obj
 0001:000113c0       ?ClearToDefault@@YAXAAVEChangeMusic@@@Z 100123c0 f i HUD.obj
 0001:00011450       ?ClearToDefault@@YAXAAW4eProjectileType@@@Z 10012450 f i HUD.obj
 0001:00011460       ?ClearToDefault@@YAXAAW4eHitType@@@Z 10012460 f i HUD.obj
 0001:00011470       ?ClearToDefault@@YAXAAW4GunGauge@@@Z 10012470 f i HUD.obj
 0001:00011480       ?ClearToDefault@@YAXAAW4HitZone@@@Z 10012480 f i HUD.obj
 0001:00011490       ??0EShotPenalty@@QAE@ABV0@@Z 10012490 f i HUD.obj
 0001:00011520       ??4EShotPenalty@@QAEAAV0@ABV0@@Z 10012520 f i HUD.obj
 0001:000115b0       ??1EShotPenalty@@UAE@XZ    100125b0 f i HUD.obj
 0001:00011660       ??_GEShotPenalty@@UAEPAXI@Z 10012660 f i HUD.obj
 0001:00011690       ??_EEShotPenalty@@UAEPAXI@Z 10012690 f i HUD.obj
 0001:000116f0       ?ClearToDefault@@YAXAAVEShotPenalty@@@Z 100126f0 f i HUD.obj
 0001:00011810       ??0EProjectileHit@@QAE@ABV0@@Z 10012810 f i HUD.obj
 0001:000118a0       ??4EProjectileHit@@QAEAAV0@ABV0@@Z 100128a0 f i HUD.obj
 0001:00011960       ??1EProjectileHit@@UAE@XZ  10012960 f i HUD.obj
 0001:00011a00       ??_GEProjectileHit@@UAEPAXI@Z 10012a00 f i HUD.obj
 0001:00011a30       ??_EEProjectileHit@@UAEPAXI@Z 10012a30 f i HUD.obj
 0001:00011a90       ?ClearToDefault@@YAXAAVEProjectileHit@@@Z 10012a90 f i HUD.obj
 0001:00011bc0       ??0EProjectileInit@@QAE@ABV0@@Z 10012bc0 f i HUD.obj
 0001:00011bf0       ??4EProjectileInit@@QAEAAV0@ABV0@@Z 10012bf0 f i HUD.obj
 0001:00011c10       ??1EProjectileInit@@UAE@XZ 10012c10 f i HUD.obj
 0001:00011c20       ??_GEProjectileInit@@UAEPAXI@Z 10012c20 f i HUD.obj
 0001:00011c50       ??_EEProjectileInit@@UAEPAXI@Z 10012c50 f i HUD.obj
 0001:00011cb0       ?ClearToDefault@@YAXAAVEProjectileInit@@@Z 10012cb0 f i HUD.obj
 0001:00011ce0       ??0EMemberNotify@@QAE@ABV0@@Z 10012ce0 f i HUD.obj
 0001:00011d40       ??4EMemberNotify@@QAEAAV0@ABV0@@Z 10012d40 f i HUD.obj
 0001:00011db0       ??1EMemberNotify@@UAE@XZ   10012db0 f i HUD.obj
 0001:00011e40       ??_GEMemberNotify@@UAEPAXI@Z 10012e40 f i HUD.obj
 0001:00011e70       ??_EEMemberNotify@@UAEPAXI@Z 10012e70 f i HUD.obj
 0001:00011ed0       ?ClearToDefault@@YAXAAVEMemberNotify@@@Z 10012ed0 f i HUD.obj
 0001:00011f90       ?ClearToDefault@@YAXAAW4GunState@@@Z 10012f90 f i HUD.obj
 0001:00011fa0       ?ClearToDefault@@YAXAAW4GunAction@@@Z 10012fa0 f i HUD.obj
 0001:00011fb0       ?ClearToDefault@@YAXAAW4GunBarrel@@@Z 10012fb0 f i HUD.obj
 0001:00011fc0       ?ClearToDefault@@YAXAAW4GunChoke@@@Z 10012fc0 f i HUD.obj
 0001:00011fd0       ?ClearToDefault@@YAXAAW4GunOptic@@@Z 10012fd0 f i HUD.obj
 0001:00011fe0       ?ClearToDefault@@YAXAAW4GunReticle@@@Z 10012fe0 f i HUD.obj
 0001:00011ff0       ?ClearToDefault@@YAXAAW4GunAmmo@@@Z 10012ff0 f i HUD.obj
 0001:00012000       ?ClearToDefault@@YAXAAW4ShellEjectType@@@Z 10013000 f i HUD.obj
 0001:00012010       ??0EGunInit@@QAE@ABV0@@Z   10013010 f i HUD.obj
 0001:00012090       ??4EGunInit@@QAEAAV0@ABV0@@Z 10013090 f i HUD.obj
 0001:00012100       ??1EGunInit@@UAE@XZ        10013100 f i HUD.obj
 0001:000121a0       ??_GEGunInit@@UAEPAXI@Z    100131a0 f i HUD.obj
 0001:000121d0       ??_EEGunInit@@UAEPAXI@Z    100131d0 f i HUD.obj
 0001:00012230       ?ClearToDefault@@YAXAAVEGunInit@@@Z 10013230 f i HUD.obj
 0001:00012300       ??0EFireGun@@QAE@ABV0@@Z   10013300 f i HUD.obj
 0001:00012320       ??4EFireGun@@QAEAAV0@ABV0@@Z 10013320 f i HUD.obj
 0001:00012340       ??1EFireGun@@UAE@XZ        10013340 f i HUD.obj
 0001:00012350       ??_GEFireGun@@UAEPAXI@Z    10013350 f i HUD.obj
 0001:00012380       ??_EEFireGun@@UAEPAXI@Z    10013380 f i HUD.obj
 0001:000123e0       ?ClearToDefault@@YAXAAVEFireGun@@@Z 100133e0 f i HUD.obj
 0001:00012400       ??0ERaiseGun@@QAE@ABV0@@Z  10013400 f i HUD.obj
 0001:00012420       ??4ERaiseGun@@QAEAAV0@ABV0@@Z 10013420 f i HUD.obj
 0001:00012440       ??1ERaiseGun@@UAE@XZ       10013440 f i HUD.obj
 0001:00012450       ??_GERaiseGun@@UAEPAXI@Z   10013450 f i HUD.obj
 0001:00012480       ??_EERaiseGun@@UAEPAXI@Z   10013480 f i HUD.obj
 0001:000124e0       ?ClearToDefault@@YAXAAVERaiseGun@@@Z 100134e0 f i HUD.obj
 0001:00012500       ??0ELowerGun@@QAE@ABV0@@Z  10013500 f i HUD.obj
 0001:00012530       ??4ELowerGun@@QAEAAV0@ABV0@@Z 10013530 f i HUD.obj
 0001:00012550       ??1ELowerGun@@UAE@XZ       10013550 f i HUD.obj
 0001:00012560       ??_GELowerGun@@UAEPAXI@Z   10013560 f i HUD.obj
 0001:00012590       ??_EELowerGun@@UAEPAXI@Z   10013590 f i HUD.obj
 0001:000125f0       ?ClearToDefault@@YAXAAVELowerGun@@@Z 100135f0 f i HUD.obj
 0001:00012620       ??0EReloadGun@@QAE@ABV0@@Z 10013620 f i HUD.obj
 0001:00012640       ??4EReloadGun@@QAEAAV0@ABV0@@Z 10013640 f i HUD.obj
 0001:00012660       ??1EReloadGun@@UAE@XZ      10013660 f i HUD.obj
 0001:00012670       ??_GEReloadGun@@UAEPAXI@Z  10013670 f i HUD.obj
 0001:000126a0       ??_EEReloadGun@@UAEPAXI@Z  100136a0 f i HUD.obj
 0001:00012700       ?ClearToDefault@@YAXAAVEReloadGun@@@Z 10013700 f i HUD.obj
 0001:00012720       ??0EHeartbeat@@QAE@ABV0@@Z 10013720 f i HUD.obj
 0001:00012740       ??4EHeartbeat@@QAEAAV0@ABV0@@Z 10013740 f i HUD.obj
 0001:00012760       ??1EHeartbeat@@UAE@XZ      10013760 f i HUD.obj
 0001:00012770       ??_GEHeartbeat@@UAEPAXI@Z  10013770 f i HUD.obj
 0001:000127a0       ??_EEHeartbeat@@UAEPAXI@Z  100137a0 f i HUD.obj
 0001:00012800       ?ClearToDefault@@YAXAAVEHeartbeat@@@Z 10013800 f i HUD.obj
 0001:00012820       ??0EGunIsUp@@QAE@ABV0@@Z   10013820 f i HUD.obj
 0001:00012840       ??4EGunIsUp@@QAEAAV0@ABV0@@Z 10013840 f i HUD.obj
 0001:00012860       ??1EGunIsUp@@UAE@XZ        10013860 f i HUD.obj
 0001:00012870       ??_GEGunIsUp@@UAEPAXI@Z    10013870 f i HUD.obj
 0001:000128a0       ??_EEGunIsUp@@UAEPAXI@Z    100138a0 f i HUD.obj
 0001:00012900       ?ClearToDefault@@YAXAAVEGunIsUp@@@Z 10013900 f i HUD.obj
 0001:00012920       ??0EGunNotUp@@QAE@ABV0@@Z  10013920 f i HUD.obj
 0001:00012940       ??4EGunNotUp@@QAEAAV0@ABV0@@Z 10013940 f i HUD.obj
 0001:00012960       ??1EGunNotUp@@UAE@XZ       10013960 f i HUD.obj
 0001:00012970       ??_GEGunNotUp@@UAEPAXI@Z   10013970 f i HUD.obj
 0001:000129a0       ??_EEGunNotUp@@UAEPAXI@Z   100139a0 f i HUD.obj
 0001:00012a00       ?ClearToDefault@@YAXAAVEGunNotUp@@@Z 10013a00 f i HUD.obj
 0001:00012a20       ??0ESetGunFireOffset@@QAE@ABV0@@Z 10013a20 f i HUD.obj
 0001:00012a50       ??4ESetGunFireOffset@@QAEAAV0@ABV0@@Z 10013a50 f i HUD.obj
 0001:00012a70       ??1ESetGunFireOffset@@UAE@XZ 10013a70 f i HUD.obj
 0001:00012a80       ??_GESetGunFireOffset@@UAEPAXI@Z 10013a80 f i HUD.obj
 0001:00012ab0       ??_EESetGunFireOffset@@UAEPAXI@Z 10013ab0 f i HUD.obj
 0001:00012b10       ?ClearToDefault@@YAXAAVESetGunFireOffset@@@Z 10013b10 f i HUD.obj
 0001:00012b40       ??0EPin1Up@@QAE@ABV0@@Z    10013b40 f i HUD.obj
 0001:00012b60       ??4EPin1Up@@QAEAAV0@ABV0@@Z 10013b60 f i HUD.obj
 0001:00012b80       ??1EPin1Up@@UAE@XZ         10013b80 f i HUD.obj
 0001:00012b90       ??_GEPin1Up@@UAEPAXI@Z     10013b90 f i HUD.obj
 0001:00012bc0       ??_EEPin1Up@@UAEPAXI@Z     10013bc0 f i HUD.obj
 0001:00012c20       ?ClearToDefault@@YAXAAVEPin1Up@@@Z 10013c20 f i HUD.obj
 0001:00012c40       ??0EPin1Down@@QAE@ABV0@@Z  10013c40 f i HUD.obj
 0001:00012c60       ??4EPin1Down@@QAEAAV0@ABV0@@Z 10013c60 f i HUD.obj
 0001:00012c80       ??1EPin1Down@@UAE@XZ       10013c80 f i HUD.obj
 0001:00012c90       ??_GEPin1Down@@UAEPAXI@Z   10013c90 f i HUD.obj
 0001:00012cc0       ??_EEPin1Down@@UAEPAXI@Z   10013cc0 f i HUD.obj
 0001:00012d20       ?ClearToDefault@@YAXAAVEPin1Down@@@Z 10013d20 f i HUD.obj
 0001:00012d40       ??0EPin2Up@@QAE@ABV0@@Z    10013d40 f i HUD.obj
 0001:00012d60       ??4EPin2Up@@QAEAAV0@ABV0@@Z 10013d60 f i HUD.obj
 0001:00012d80       ??1EPin2Up@@UAE@XZ         10013d80 f i HUD.obj
 0001:00012d90       ??_GEPin2Up@@UAEPAXI@Z     10013d90 f i HUD.obj
 0001:00012dc0       ??_EEPin2Up@@UAEPAXI@Z     10013dc0 f i HUD.obj
 0001:00012e20       ?ClearToDefault@@YAXAAVEPin2Up@@@Z 10013e20 f i HUD.obj
 0001:00012e40       ??0EPin2Down@@QAE@ABV0@@Z  10013e40 f i HUD.obj
 0001:00012e60       ??4EPin2Down@@QAEAAV0@ABV0@@Z 10013e60 f i HUD.obj
 0001:00012e80       ??1EPin2Down@@UAE@XZ       10013e80 f i HUD.obj
 0001:00012e90       ??_GEPin2Down@@UAEPAXI@Z   10013e90 f i HUD.obj
 0001:00012ec0       ??_EEPin2Down@@UAEPAXI@Z   10013ec0 f i HUD.obj
 0001:00012f20       ?ClearToDefault@@YAXAAVEPin2Down@@@Z 10013f20 f i HUD.obj
 0001:00012f40       ??0EPin3Up@@QAE@ABV0@@Z    10013f40 f i HUD.obj
 0001:00012f60       ??4EPin3Up@@QAEAAV0@ABV0@@Z 10013f60 f i HUD.obj
 0001:00012f80       ??1EPin3Up@@UAE@XZ         10013f80 f i HUD.obj
 0001:00012f90       ??_GEPin3Up@@UAEPAXI@Z     10013f90 f i HUD.obj
 0001:00012fc0       ??_EEPin3Up@@UAEPAXI@Z     10013fc0 f i HUD.obj
 0001:00013020       ?ClearToDefault@@YAXAAVEPin3Up@@@Z 10014020 f i HUD.obj
 0001:00013040       ??0EPin3Down@@QAE@ABV0@@Z  10014040 f i HUD.obj
 0001:00013060       ??4EPin3Down@@QAEAAV0@ABV0@@Z 10014060 f i HUD.obj
 0001:00013080       ??1EPin3Down@@UAE@XZ       10014080 f i HUD.obj
 0001:00013090       ??_GEPin3Down@@UAEPAXI@Z   10014090 f i HUD.obj
 0001:000130c0       ??_EEPin3Down@@UAEPAXI@Z   100140c0 f i HUD.obj
 0001:00013120       ?ClearToDefault@@YAXAAVEPin3Down@@@Z 10014120 f i HUD.obj
 0001:00013140       ??0EAimLeft@@QAE@ABV0@@Z   10014140 f i HUD.obj
 0001:00013160       ??4EAimLeft@@QAEAAV0@ABV0@@Z 10014160 f i HUD.obj
 0001:00013180       ??1EAimLeft@@UAE@XZ        10014180 f i HUD.obj
 0001:00013190       ??_GEAimLeft@@UAEPAXI@Z    10014190 f i HUD.obj
 0001:000131c0       ??_EEAimLeft@@UAEPAXI@Z    100141c0 f i HUD.obj
 0001:00013220       ?ClearToDefault@@YAXAAVEAimLeft@@@Z 10014220 f i HUD.obj
 0001:00013240       ??0EAimRight@@QAE@ABV0@@Z  10014240 f i HUD.obj
 0001:00013260       ??4EAimRight@@QAEAAV0@ABV0@@Z 10014260 f i HUD.obj
 0001:00013280       ??1EAimRight@@UAE@XZ       10014280 f i HUD.obj
 0001:00013290       ??_GEAimRight@@UAEPAXI@Z   10014290 f i HUD.obj
 0001:000132c0       ??_EEAimRight@@UAEPAXI@Z   100142c0 f i HUD.obj
 0001:00013320       ?ClearToDefault@@YAXAAVEAimRight@@@Z 10014320 f i HUD.obj
 0001:00013340       ?ClearToDefault@@YAXAAW4EMarkerType@@@Z 10014340 f i HUD.obj
 0001:00013350       ?GetName@CNavigationMarker@@UBEABVCTString@@XZ 10014350 f i HUD.obj
 0001:00013360       ?IsTargetable@CNavigationMarker@@UBEHXZ 10014360 f i HUD.obj
 0001:00013370       ??0CNavigationMarker@@QAE@XZ 10014370 f i HUD.obj
 0001:00013400       ??0CNavigationMarker@@QAE@ABV0@@Z 10014400 f i HUD.obj
 0001:000136e0       ??4CNavigationMarker@@QAEAAV0@AAV0@@Z 100146e0 f i HUD.obj
 0001:000138f0       ??1CNavigationMarker@@UAE@XZ 100148f0 f i HUD.obj
 0001:00013990       ??_GCNavigationMarker@@UAEPAXI@Z 10014990 f i HUD.obj
 0001:000139c0       ??_ECNavigationMarker@@UAEPAXI@Z 100149c0 f i HUD.obj
 0001:00013a20       ??_EHDecalGroup@@UAEPAXI@Z 10014a20 f i HUD.obj
 0001:00013a20       ??_GHDecalGroup@@UAEPAXI@Z 10014a20 f i HUD.obj
 0001:00013a50       ??0EAnimalInit@@QAE@ABV0@@Z 10014a50 f i HUD.obj
 0001:00013b00       ??4EAnimalInit@@QAEAAV0@ABV0@@Z 10014b00 f i HUD.obj
 0001:00013b90       ??1EAnimalInit@@UAE@XZ     10014b90 f i HUD.obj
 0001:00013c00       ??_GEAnimalInit@@UAEPAXI@Z 10014c00 f i HUD.obj
 0001:00013c30       ??_EEAnimalInit@@UAEPAXI@Z 10014c30 f i HUD.obj
 0001:00013c90       ?ClearToDefault@@YAXAAVEAnimalInit@@@Z 10014c90 f i HUD.obj
 0001:00013d80       ?ClearToDefault@@YAXAAW4eZoneType@@@Z 10014d80 f i HUD.obj
 0001:00013d90       ?ClearToDefault@@YAXAAW4eDeerSpecies@@@Z 10014d90 f i HUD.obj
 0001:00013da0       ?ClearToDefault@@YAXAAW4eFowlSpecies@@@Z 10014da0 f i HUD.obj
 0001:00013db0       ?ClearToDefault@@YAXAAW4eUplandSpecies@@@Z 10014db0 f i HUD.obj
 0001:00013dc0       ?ClearToDefault@@YAXAAW4eMiscBirdSpecies@@@Z 10014dc0 f i HUD.obj
 0001:00013dd0       ?ClearToDefault@@YAXAAW4eAASpecies@@@Z 10014dd0 f i HUD.obj
 0001:00013de0       ??0EThinkerInit@@QAE@ABV0@@Z 10014de0 f i HUD.obj
 0001:00013e30       ??4EThinkerInit@@QAEAAV0@ABV0@@Z 10014e30 f i HUD.obj
 0001:00013e90       ??1EThinkerInit@@UAE@XZ    10014e90 f i HUD.obj
 0001:00013f20       ??_GEThinkerInit@@UAEPAXI@Z 10014f20 f i HUD.obj
 0001:00013f50       ??_EEThinkerInit@@UAEPAXI@Z 10014f50 f i HUD.obj
 0001:00013fb0       ?ClearToDefault@@YAXAAVEThinkerInit@@@Z 10014fb0 f i HUD.obj
 0001:00014060       ??0EThink@@QAE@ABV0@@Z     10015060 f i HUD.obj
 0001:00014080       ??4EThink@@QAEAAV0@ABV0@@Z 10015080 f i HUD.obj
 0001:000140a0       ??1EThink@@UAE@XZ          100150a0 f i HUD.obj
 0001:000140b0       ??_GEThink@@UAEPAXI@Z      100150b0 f i HUD.obj
 0001:000140e0       ??_EEThink@@UAEPAXI@Z      100150e0 f i HUD.obj
 0001:00014140       ?ClearToDefault@@YAXAAVEThink@@@Z 10015140 f i HUD.obj
 0001:00014160       ??0EPulseAnimation@@QAE@ABV0@@Z 10015160 f i HUD.obj
 0001:00014180       ??4EPulseAnimation@@QAEAAV0@ABV0@@Z 10015180 f i HUD.obj
 0001:000141a0       ??1EPulseAnimation@@UAE@XZ 100151a0 f i HUD.obj
 0001:000141b0       ??_GEPulseAnimation@@UAEPAXI@Z 100151b0 f i HUD.obj
 0001:000141e0       ??_EEPulseAnimation@@UAEPAXI@Z 100151e0 f i HUD.obj
 0001:00014240       ?ClearToDefault@@YAXAAVEPulseAnimation@@@Z 10015240 f i HUD.obj
 0001:00014260       ??0EPulseMover@@QAE@ABV0@@Z 10015260 f i HUD.obj
 0001:00014280       ??4EPulseMover@@QAEAAV0@ABV0@@Z 10015280 f i HUD.obj
 0001:000142a0       ??1EPulseMover@@UAE@XZ     100152a0 f i HUD.obj
 0001:000142b0       ??_GEPulseMover@@UAEPAXI@Z 100152b0 f i HUD.obj
 0001:000142e0       ??_EEPulseMover@@UAEPAXI@Z 100152e0 f i HUD.obj
 0001:00014340       ?ClearToDefault@@YAXAAVEPulseMover@@@Z 10015340 f i HUD.obj
 0001:00014360       ?ClearToDefault@@YAXAAW4AISpecies@@@Z 10015360 f i HUD.obj
 0001:00014370       ??0EAIMoveFinished@@QAE@ABV0@@Z 10015370 f i HUD.obj
 0001:00014390       ??4EAIMoveFinished@@QAEAAV0@ABV0@@Z 10015390 f i HUD.obj
 0001:000143b0       ??1EAIMoveFinished@@UAE@XZ 100153b0 f i HUD.obj
 0001:000143c0       ??_GEAIMoveFinished@@UAEPAXI@Z 100153c0 f i HUD.obj
 0001:000143f0       ??_EEAIMoveFinished@@UAEPAXI@Z 100153f0 f i HUD.obj
 0001:00014450       ?ClearToDefault@@YAXAAVEAIMoveFinished@@@Z 10015450 f i HUD.obj
 0001:00014470       ??0EAIMovePointHit@@QAE@ABV0@@Z 10015470 f i HUD.obj
 0001:00014490       ??4EAIMovePointHit@@QAEAAV0@ABV0@@Z 10015490 f i HUD.obj
 0001:000144b0       ??1EAIMovePointHit@@UAE@XZ 100154b0 f i HUD.obj
 0001:000144c0       ??_GEAIMovePointHit@@UAEPAXI@Z 100154c0 f i HUD.obj
 0001:000144f0       ??_EEAIMovePointHit@@UAEPAXI@Z 100154f0 f i HUD.obj
 0001:00014550       ?ClearToDefault@@YAXAAVEAIMovePointHit@@@Z 10015550 f i HUD.obj
 0001:00014570       ??0ESGAmbient@@QAE@ABV0@@Z 10015570 f i HUD.obj
 0001:00014590       ??4ESGAmbient@@QAEAAV0@ABV0@@Z 10015590 f i HUD.obj
 0001:000145b0       ??1ESGAmbient@@UAE@XZ      100155b0 f i HUD.obj
 0001:000145c0       ??_GESGAmbient@@UAEPAXI@Z  100155c0 f i HUD.obj
 0001:000145f0       ??_EESGAmbient@@UAEPAXI@Z  100155f0 f i HUD.obj
 0001:00014650       ?ClearToDefault@@YAXAAVESGAmbient@@@Z 10015650 f i HUD.obj
 0001:00014670       ??0ESGFlee@@QAE@ABV0@@Z    10015670 f i HUD.obj
 0001:00014690       ??4ESGFlee@@QAEAAV0@ABV0@@Z 10015690 f i HUD.obj
 0001:000146b0       ??1ESGFlee@@UAE@XZ         100156b0 f i HUD.obj
 0001:000146c0       ??_GESGFlee@@UAEPAXI@Z     100156c0 f i HUD.obj
 0001:000146f0       ??_EESGFlee@@UAEPAXI@Z     100156f0 f i HUD.obj
 0001:00014750       ?ClearToDefault@@YAXAAVESGFlee@@@Z 10015750 f i HUD.obj
 0001:00014770       ??0ESGSleep@@QAE@ABV0@@Z   10015770 f i HUD.obj
 0001:00014790       ??4ESGSleep@@QAEAAV0@ABV0@@Z 10015790 f i HUD.obj
 0001:000147b0       ??1ESGSleep@@UAE@XZ        100157b0 f i HUD.obj
 0001:000147c0       ??_GESGSleep@@UAEPAXI@Z    100157c0 f i HUD.obj
 0001:000147f0       ??_EESGSleep@@UAEPAXI@Z    100157f0 f i HUD.obj
 0001:00014850       ?ClearToDefault@@YAXAAVESGSleep@@@Z 10015850 f i HUD.obj
 0001:00014870       ??0ECallMade@@QAE@ABV0@@Z  10015870 f i HUD.obj
 0001:00014900       ??4ECallMade@@QAEAAV0@ABV0@@Z 10015900 f i HUD.obj
 0001:00014990       ??1ECallMade@@UAE@XZ       10015990 f i HUD.obj
 0001:000149a0       ??_GECallMade@@UAEPAXI@Z   100159a0 f i HUD.obj
 0001:000149d0       ??_EECallMade@@UAEPAXI@Z   100159d0 f i HUD.obj
 0001:00014a30       ?ClearToDefault@@YAXAAVECallMade@@@Z 10015a30 f i HUD.obj
 0001:00014ac0       ?ClearToDefault@@YAXAAW4BirdBaseAction@@@Z 10015ac0 f i HUD.obj
 0001:00014ad0       ??0EBBAFly@@QAE@ABV0@@Z    10015ad0 f i HUD.obj
 0001:00014af0       ??4EBBAFly@@QAEAAV0@ABV0@@Z 10015af0 f i HUD.obj
 0001:00014b10       ??1EBBAFly@@UAE@XZ         10015b10 f i HUD.obj
 0001:00014b20       ??_GEBBAFly@@UAEPAXI@Z     10015b20 f i HUD.obj
 0001:00014b50       ??_EEBBAFly@@UAEPAXI@Z     10015b50 f i HUD.obj
 0001:00014bb0       ?ClearToDefault@@YAXAAVEBBAFly@@@Z 10015bb0 f i HUD.obj
 0001:00014bd0       ??0EBBAFlyFast@@QAE@ABV0@@Z 10015bd0 f i HUD.obj
 0001:00014bf0       ??4EBBAFlyFast@@QAEAAV0@ABV0@@Z 10015bf0 f i HUD.obj
 0001:00014c10       ??1EBBAFlyFast@@UAE@XZ     10015c10 f i HUD.obj
 0001:00014c20       ??_GEBBAFlyFast@@UAEPAXI@Z 10015c20 f i HUD.obj
 0001:00014c50       ??_EEBBAFlyFast@@UAEPAXI@Z 10015c50 f i HUD.obj
 0001:00014cb0       ?ClearToDefault@@YAXAAVEBBAFlyFast@@@Z 10015cb0 f i HUD.obj
 0001:00014cd0       ??0EBBAEat@@QAE@ABV0@@Z    10015cd0 f i HUD.obj
 0001:00014cf0       ??4EBBAEat@@QAEAAV0@ABV0@@Z 10015cf0 f i HUD.obj
 0001:00014d10       ??1EBBAEat@@UAE@XZ         10015d10 f i HUD.obj
 0001:00014d20       ??_GEBBAEat@@UAEPAXI@Z     10015d20 f i HUD.obj
 0001:00014d50       ??_EEBBAEat@@UAEPAXI@Z     10015d50 f i HUD.obj
 0001:00014db0       ?ClearToDefault@@YAXAAVEBBAEat@@@Z 10015db0 f i HUD.obj
 0001:00014dd0       ??0EBBARoost@@QAE@ABV0@@Z  10015dd0 f i HUD.obj
 0001:00014df0       ??4EBBARoost@@QAEAAV0@ABV0@@Z 10015df0 f i HUD.obj
 0001:00014e10       ??1EBBARoost@@UAE@XZ       10015e10 f i HUD.obj
 0001:00014e20       ??_GEBBARoost@@UAEPAXI@Z   10015e20 f i HUD.obj
 0001:00014e50       ??_EEBBARoost@@UAEPAXI@Z   10015e50 f i HUD.obj
 0001:00014eb0       ?ClearToDefault@@YAXAAVEBBARoost@@@Z 10015eb0 f i HUD.obj
 0001:00014ed0       ??0EBBARest@@QAE@ABV0@@Z   10015ed0 f i HUD.obj
 0001:00014ef0       ??4EBBARest@@QAEAAV0@ABV0@@Z 10015ef0 f i HUD.obj
 0001:00014f10       ??1EBBARest@@UAE@XZ        10015f10 f i HUD.obj
 0001:00014f20       ??_GEBBARest@@UAEPAXI@Z    10015f20 f i HUD.obj
 0001:00014f50       ??_EEBBARest@@UAEPAXI@Z    10015f50 f i HUD.obj
 0001:00014fb0       ?ClearToDefault@@YAXAAVEBBARest@@@Z 10015fb0 f i HUD.obj
 0001:00014fd0       ??0EBBAVTakeoff@@QAE@ABV0@@Z 10015fd0 f i HUD.obj
 0001:00014ff0       ??4EBBAVTakeoff@@QAEAAV0@ABV0@@Z 10015ff0 f i HUD.obj
 0001:00015010       ??1EBBAVTakeoff@@UAE@XZ    10016010 f i HUD.obj
 0001:00015020       ??_GEBBAVTakeoff@@UAEPAXI@Z 10016020 f i HUD.obj
 0001:00015050       ??_EEBBAVTakeoff@@UAEPAXI@Z 10016050 f i HUD.obj
 0001:000150b0       ?ClearToDefault@@YAXAAVEBBAVTakeoff@@@Z 100160b0 f i HUD.obj
 0001:000150d0       ??0EBBARunTakeoff@@QAE@ABV0@@Z 100160d0 f i HUD.obj
 0001:000150f0       ??4EBBARunTakeoff@@QAEAAV0@ABV0@@Z 100160f0 f i HUD.obj
 0001:00015110       ??1EBBARunTakeoff@@UAE@XZ  10016110 f i HUD.obj
 0001:00015120       ??_GEBBARunTakeoff@@UAEPAXI@Z 10016120 f i HUD.obj
 0001:00015150       ??_EEBBARunTakeoff@@UAEPAXI@Z 10016150 f i HUD.obj
 0001:000151b0       ?ClearToDefault@@YAXAAVEBBARunTakeoff@@@Z 100161b0 f i HUD.obj
 0001:000151d0       ??0EBBALand@@QAE@ABV0@@Z   100161d0 f i HUD.obj
 0001:000151f0       ??4EBBALand@@QAEAAV0@ABV0@@Z 100161f0 f i HUD.obj
 0001:00015210       ??1EBBALand@@UAE@XZ        10016210 f i HUD.obj
 0001:00015220       ??_GEBBALand@@UAEPAXI@Z    10016220 f i HUD.obj
 0001:00015250       ??_EEBBALand@@UAEPAXI@Z    10016250 f i HUD.obj
 0001:000152b0       ?ClearToDefault@@YAXAAVEBBALand@@@Z 100162b0 f i HUD.obj
 0001:000152d0       ??0EBBALandOnNormal@@QAE@ABV0@@Z 100162d0 f i HUD.obj
 0001:000152f0       ??4EBBALandOnNormal@@QAEAAV0@ABV0@@Z 100162f0 f i HUD.obj
 0001:00015310       ??1EBBALandOnNormal@@UAE@XZ 10016310 f i HUD.obj
 0001:00015320       ??_GEBBALandOnNormal@@UAEPAXI@Z 10016320 f i HUD.obj
 0001:00015350       ??_EEBBALandOnNormal@@UAEPAXI@Z 10016350 f i HUD.obj
 0001:000153b0       ?ClearToDefault@@YAXAAVEBBALandOnNormal@@@Z 100163b0 f i HUD.obj
 0001:000153d0       ??0EBBAStandby@@QAE@ABV0@@Z 100163d0 f i HUD.obj
 0001:000153f0       ??4EBBAStandby@@QAEAAV0@ABV0@@Z 100163f0 f i HUD.obj
 0001:00015410       ??1EBBAStandby@@UAE@XZ     10016410 f i HUD.obj
 0001:00015420       ??_GEBBAStandby@@UAEPAXI@Z 10016420 f i HUD.obj
 0001:00015450       ??_EEBBAStandby@@UAEPAXI@Z 10016450 f i HUD.obj
 0001:000154b0       ?ClearToDefault@@YAXAAVEBBAStandby@@@Z 100164b0 f i HUD.obj
 0001:000154d0       ??0EBBAFlare@@QAE@ABV0@@Z  100164d0 f i HUD.obj
 0001:000154f0       ??4EBBAFlare@@QAEAAV0@ABV0@@Z 100164f0 f i HUD.obj
 0001:00015510       ??1EBBAFlare@@UAE@XZ       10016510 f i HUD.obj
 0001:00015520       ??_GEBBAFlare@@UAEPAXI@Z   10016520 f i HUD.obj
 0001:00015550       ??_EEBBAFlare@@UAEPAXI@Z   10016550 f i HUD.obj
 0001:000155b0       ?ClearToDefault@@YAXAAVEBBAFlare@@@Z 100165b0 f i HUD.obj
 0001:000155d0       ??0EBBAWounded@@QAE@ABV0@@Z 100165d0 f i HUD.obj
 0001:000155f0       ??4EBBAWounded@@QAEAAV0@ABV0@@Z 100165f0 f i HUD.obj
 0001:00015610       ??1EBBAWounded@@UAE@XZ     10016610 f i HUD.obj
 0001:00015620       ??_GEBBAWounded@@UAEPAXI@Z 10016620 f i HUD.obj
 0001:00015650       ??_EEBBAWounded@@UAEPAXI@Z 10016650 f i HUD.obj
 0001:000156b0       ?ClearToDefault@@YAXAAVEBBAWounded@@@Z 100166b0 f i HUD.obj
 0001:000156d0       ??0EDogIPlay@@QAE@ABV0@@Z  100166d0 f i HUD.obj
 0001:000156f0       ??4EDogIPlay@@QAEAAV0@ABV0@@Z 100166f0 f i HUD.obj
 0001:00015710       ??1EDogIPlay@@UAE@XZ       10016710 f i HUD.obj
 0001:00015720       ??_GEDogIPlay@@UAEPAXI@Z   10016720 f i HUD.obj
 0001:00015750       ??_EEDogIPlay@@UAEPAXI@Z   10016750 f i HUD.obj
 0001:000157b0       ?ClearToDefault@@YAXAAVEDogIPlay@@@Z 100167b0 f i HUD.obj
 0001:000157d0       ??0EDogHeel@@QAE@ABV0@@Z   100167d0 f i HUD.obj
 0001:000157f0       ??4EDogHeel@@QAEAAV0@ABV0@@Z 100167f0 f i HUD.obj
 0001:00015810       ??1EDogHeel@@UAE@XZ        10016810 f i HUD.obj
 0001:00015820       ??_GEDogHeel@@UAEPAXI@Z    10016820 f i HUD.obj
 0001:00015850       ??_EEDogHeel@@UAEPAXI@Z    10016850 f i HUD.obj
 0001:000158b0       ?ClearToDefault@@YAXAAVEDogHeel@@@Z 100168b0 f i HUD.obj
 0001:000158d0       ??0EDogStay@@QAE@ABV0@@Z   100168d0 f i HUD.obj
 0001:000158f0       ??4EDogStay@@QAEAAV0@ABV0@@Z 100168f0 f i HUD.obj
 0001:00015910       ??1EDogStay@@UAE@XZ        10016910 f i HUD.obj
 0001:00015920       ??_GEDogStay@@UAEPAXI@Z    10016920 f i HUD.obj
 0001:00015950       ??_EEDogStay@@UAEPAXI@Z    10016950 f i HUD.obj
 0001:000159b0       ?ClearToDefault@@YAXAAVEDogStay@@@Z 100169b0 f i HUD.obj
 0001:000159d0       ??0EDogFetch@@QAE@ABV0@@Z  100169d0 f i HUD.obj
 0001:000159f0       ??4EDogFetch@@QAEAAV0@ABV0@@Z 100169f0 f i HUD.obj
 0001:00015a10       ??1EDogFetch@@UAE@XZ       10016a10 f i HUD.obj
 0001:00015a20       ??_GEDogFetch@@UAEPAXI@Z   10016a20 f i HUD.obj
 0001:00015a50       ??_EEDogFetch@@UAEPAXI@Z   10016a50 f i HUD.obj
 0001:00015ab0       ?ClearToDefault@@YAXAAVEDogFetch@@@Z 10016ab0 f i HUD.obj
 0001:00015ad0       ??0EDogHunt@@QAE@ABV0@@Z   10016ad0 f i HUD.obj
 0001:00015af0       ??4EDogHunt@@QAEAAV0@ABV0@@Z 10016af0 f i HUD.obj
 0001:00015b10       ??1EDogHunt@@UAE@XZ        10016b10 f i HUD.obj
 0001:00015b20       ??_GEDogHunt@@UAEPAXI@Z    10016b20 f i HUD.obj
 0001:00015b50       ??_EEDogHunt@@UAEPAXI@Z    10016b50 f i HUD.obj
 0001:00015bb0       ?ClearToDefault@@YAXAAVEDogHunt@@@Z 10016bb0 f i HUD.obj
 0001:00015bd0       ??0EDogPoint@@QAE@ABV0@@Z  10016bd0 f i HUD.obj
 0001:00015bf0       ??4EDogPoint@@QAEAAV0@ABV0@@Z 10016bf0 f i HUD.obj
 0001:00015c10       ??1EDogPoint@@UAE@XZ       10016c10 f i HUD.obj
 0001:00015c20       ??_GEDogPoint@@UAEPAXI@Z   10016c20 f i HUD.obj
 0001:00015c50       ??_EEDogPoint@@UAEPAXI@Z   10016c50 f i HUD.obj
 0001:00015cb0       ?ClearToDefault@@YAXAAVEDogPoint@@@Z 10016cb0 f i HUD.obj
 0001:00015cd0       ??0EDogFlush@@QAE@ABV0@@Z  10016cd0 f i HUD.obj
 0001:00015cf0       ??4EDogFlush@@QAEAAV0@ABV0@@Z 10016cf0 f i HUD.obj
 0001:00015d10       ??1EDogFlush@@UAE@XZ       10016d10 f i HUD.obj
 0001:00015d20       ??_GEDogFlush@@UAEPAXI@Z   10016d20 f i HUD.obj
 0001:00015d50       ??_EEDogFlush@@UAEPAXI@Z   10016d50 f i HUD.obj
 0001:00015db0       ?ClearToDefault@@YAXAAVEDogFlush@@@Z 10016db0 f i HUD.obj
 0001:00015dd0       ??0EDogRideInTruck@@QAE@ABV0@@Z 10016dd0 f i HUD.obj
 0001:00015df0       ??4EDogRideInTruck@@QAEAAV0@ABV0@@Z 10016df0 f i HUD.obj
 0001:00015e10       ??1EDogRideInTruck@@UAE@XZ 10016e10 f i HUD.obj
 0001:00015e20       ??_GEDogRideInTruck@@UAEPAXI@Z 10016e20 f i HUD.obj
 0001:00015e50       ??_EEDogRideInTruck@@UAEPAXI@Z 10016e50 f i HUD.obj
 0001:00015eb0       ?ClearToDefault@@YAXAAVEDogRideInTruck@@@Z 10016eb0 f i HUD.obj
 0001:00015ed0       ??0EDogRideInBoat@@QAE@ABV0@@Z 10016ed0 f i HUD.obj
 0001:00015ef0       ??4EDogRideInBoat@@QAEAAV0@ABV0@@Z 10016ef0 f i HUD.obj
 0001:00015f10       ??1EDogRideInBoat@@UAE@XZ  10016f10 f i HUD.obj
 0001:00015f20       ??_GEDogRideInBoat@@UAEPAXI@Z 10016f20 f i HUD.obj
 0001:00015f50       ??_EEDogRideInBoat@@UAEPAXI@Z 10016f50 f i HUD.obj
 0001:00015fb0       ?ClearToDefault@@YAXAAVEDogRideInBoat@@@Z 10016fb0 f i HUD.obj
 0001:00015fd0       ??0EDogEndRide@@QAE@ABV0@@Z 10016fd0 f i HUD.obj
 0001:00015ff0       ??4EDogEndRide@@QAEAAV0@ABV0@@Z 10016ff0 f i HUD.obj
 0001:00016010       ??1EDogEndRide@@UAE@XZ     10017010 f i HUD.obj
 0001:00016020       ??_GEDogEndRide@@UAEPAXI@Z 10017020 f i HUD.obj
 0001:00016050       ??_EEDogEndRide@@UAEPAXI@Z 10017050 f i HUD.obj
 0001:000160b0       ?ClearToDefault@@YAXAAVEDogEndRide@@@Z 100170b0 f i HUD.obj
 0001:000160d0       ??0EChaseAmbientAnimal@@QAE@ABV0@@Z 100170d0 f i HUD.obj
 0001:000160f0       ??4EChaseAmbientAnimal@@QAEAAV0@ABV0@@Z 100170f0 f i HUD.obj
 0001:00016110       ??1EChaseAmbientAnimal@@UAE@XZ 10017110 f i HUD.obj
 0001:00016120       ??_GEChaseAmbientAnimal@@UAEPAXI@Z 10017120 f i HUD.obj
 0001:00016150       ??_EEChaseAmbientAnimal@@UAEPAXI@Z 10017150 f i HUD.obj
 0001:000161b0       ?ClearToDefault@@YAXAAVEChaseAmbientAnimal@@@Z 100171b0 f i HUD.obj
 0001:000161d0       ?ClearToDefault@@YAXAAW4DogInterest@@@Z 100171d0 f i HUD.obj
 0001:000161e0       ?ClearToDefault@@YAXAAW4DogBehavior@@@Z 100171e0 f i HUD.obj
 0001:000161f0       ?GetItemsGame@@YA?AW4ItemGame@@J@Z 100171f0 f   Items.obj
 0001:00017700       ?FindStormGlobe@@YAHPAVCEntity@@@Z 10018700 f   Particles.obj
 0001:000177a0       ?InitParticles@@YAXXZ      100187a0 f   Particles.obj
 0001:00017b40       ?CloseParticles@@YAXXZ     10018b40 f   Particles.obj
 0001:00017e10       ?Particles_ViewerLocal@@YAXPAVCEntity@@@Z 10018e10 f   Particles.obj
 0001:00017fb0       ?Particles_RomboidTrail@@YAXPAVCEntity@@@Z 10018fb0 f   Particles.obj
 0001:00018100       ?Particles_BombTrail_Prepare@@YAXPAVCEntity@@@Z 10019100 f   Particles.obj
 0001:00018110       ?Particles_BombTrail@@YAXPAVCEntity@@@Z 10019110 f   Particles.obj
 0001:00018350       ?Particles_FirecrackerTrail_Prepare@@YAXPAVCEntity@@@Z 10019350 f   Particles.obj
 0001:00018360       ?Particles_FirecrackerTrail@@YAXPAVCEntity@@@Z 10019360 f   Particles.obj
 0001:000185b0       ?Particles_SpiralTrail@@YAXPAVCEntity@@@Z 100195b0 f   Particles.obj
 0001:000186e0       ?Particles_ColoredStarsTrail@@YAXPAVCEntity@@@Z 100196e0 f   Particles.obj
 0001:000187f0       ?Particles_WhiteLineTrail@@YAXPAVCEntity@@@Z 100197f0 f   Particles.obj
 0001:00018920       ?Particles_Fireball01Trail_Prepare@@YAXPAVCEntity@@@Z 10019920 f   Particles.obj
 0001:00018930       ?Particles_Fireball01Trail@@YAXPAVCEntity@@@Z 10019930 f   Particles.obj
 0001:00018b50       ?Particles_GrenadeTrail_Prepare@@YAXPAVCEntity@@@Z 10019b50 f   Particles.obj
 0001:00018b60       ?Particles_GrenadeTrail@@YAXPAVCEntity@@@Z 10019b60 f   Particles.obj
 0001:00018e10       ?Particles_CannonBall_Prepare@@YAXPAVCEntity@@@Z 10019e10 f   Particles.obj
 0001:00018e20       ?Particles_CannonBall@@YAXPAVCEntity@@M@Z 10019e20 f   Particles.obj
 0001:00018f50       ?Particles_LavaTrail_Prepare@@YAXPAVCEntity@@@Z 10019f50 f   Particles.obj
 0001:00018f60       ?Particles_LavaTrail@@YAXPAVCEntity@@@Z 10019f60 f   Particles.obj
 0001:000190e0       ?Particles_LavaBombTrail_Prepare@@YAXPAVCEntity@@@Z 1001a0e0 f   Particles.obj
 0001:000190f0       ?Particles_LavaBombTrail@@YAXPAVCEntity@@M@Z 1001a0f0 f   Particles.obj
 0001:000192d0       ?Particles_BeastProjectileDebrisTrail_Prepare@@YAXPAVCEntity@@@Z 1001a2d0 f   Particles.obj
 0001:000192e0       ?Particles_BeastProjectileDebrisTrail@@YAXPAVCEntity@@M@Z 1001a2e0 f   Particles.obj
 0001:00019460       ?Particles_BeastProjectileTrail_Prepare@@YAXPAVCEntity@@@Z 1001a460 f   Particles.obj
 0001:00019470       ?Particles_BeastProjectileTrail@@YAXPAVCEntity@@MMJ@Z 1001a470 f   Particles.obj
 0001:000199d0       ?Particles_BeastBigProjectileTrail_Prepare@@YAXPAVCEntity@@@Z 1001a9d0 f   Particles.obj
 0001:000199e0       ?Particles_BeastBigProjectileTrail@@YAXPAVCEntity@@MMMJ@Z 1001a9e0 f   Particles.obj
 0001:00019fd0       ?Particles_RocketTrail_Prepare@@YAXPAVCEntity@@@Z 1001afd0 f   Particles.obj
 0001:00019fe0       ?Particles_RocketTrail@@YAXPAVCEntity@@M@Z 1001afe0 f   Particles.obj
 0001:0001a3c0       ?Particles_BloodTrail@@YAXPAVCEntity@@@Z 1001b3c0 f   Particles.obj
 0001:0001a5d0       ?Particles_FireBreath@@YAJPAVCEntity@@V?$Vector@M$02@@1MM@Z 1001b5d0 f   Particles.obj
 0001:0001a960       ?Particles_Regeneration@@YAJPAVCEntity@@MMMH@Z 1001b960 f   Particles.obj
 0001:0001b190       ?Particles_FlameThrower@@YAXABVCPlacement3D@@0MM@Z 1001c190 f   Particles.obj
 0001:0001b3d0       ?SetupParticleTexture@@YAXW4ParticleTexture@@@Z 1001c3d0 f   Particles.obj
 0001:0001b4d0       ?InitParticleTables@@YAXXZ 1001c4d0 f   Particles.obj
 0001:0001b5c0       ?Particles_Stardust@@YAXPAVCEntity@@MMW4ParticleTexture@@J@Z 1001c5c0 f   Particles.obj
 0001:0001b800       ?Particles_Rising@@YAXPAVCEntity@@MMMMMMMW4ParticleTexture@@J@Z 1001c800 f   Particles.obj
 0001:0001bb60       ?Particles_Spiral@@YAXPAVCEntity@@MMW4ParticleTexture@@J@Z 1001cb60 f   Particles.obj
 0001:0001bdd0       ?Particles_Emanate@@YAXPAVCEntity@@MMW4ParticleTexture@@J@Z 1001cdd0 f   Particles.obj
 0001:0001c020       ?Particles_WaterfallFoam@@YAXPAVCEntity@@MMMMMMMJ@Z 1001d020 f   Particles.obj
 0001:0001c3f0       ?Particles_EmanatePlane@@YAXPAVCEntity@@MMMMMMW4ParticleTexture@@J@Z 1001d3f0 f   Particles.obj
 0001:0001c6f0       ?Particles_Fountain@@YAXPAVCEntity@@MMW4ParticleTexture@@J@Z 1001d6f0 f   Particles.obj
 0001:0001ca50       ?Particles_DamageSmoke@@YAXPAVCEntity@@MV?$AABBox@M$02@@M@Z 1001da50 f   Particles.obj
 0001:0001cd50       ?Particles_RunningDust_Prepare@@YAXPAVCEntity@@@Z 1001dd50 f   Particles.obj
 0001:0001cd60       ?Particles_RunningDust@@YAXPAVCEntity@@@Z 1001dd60 f   Particles.obj
 0001:0001d100       ?Particles_MetalParts@@YAXPAVCEntity@@MV?$AABBox@M$02@@M@Z 1001e100 f   Particles.obj
 0001:0001d460       ?Particles_ElectricitySparks@@YAXPAVCEntity@@MMMJ@Z 1001e460 f   Particles.obj
 0001:0001d960       ?Particles_LavaErupting@@YAXPAVCEntity@@MMMMMM@Z 1001e960 f   Particles.obj
 0001:0001dae0       ?Particles_Atomic@@YAXPAVCEntity@@MMW4ParticleTexture@@J@Z 1001eae0 f   Particles.obj
 0001:0001df40       ?Particles_Ghostbuster@@YAXABV?$Vector@M$02@@0JMMM@Z 1001ef40 f   Particles.obj
 0001:0001e380       ?SnapFloat@@YAXAAMM@Z      1001f380 f   Particles.obj
 0001:0001e3c0       ?Particles_Rain@@YAXPAVCEntity@@MJMPAVCTextureData@@AAV?$AABBox@M$02@@@Z 1001f3c0 f   Particles.obj
 0001:0001e790       ?Init_Particle_VehicleSplash@@YAXPAVParticle@@V?$Vector@M$02@@@Z 1001f790 f   Particles.obj
 0001:0001e880       ?GetVehicleSplashParticlePtr@@YAPAVCTextureObject@@H@Z 1001f880 f   Particles.obj
 0001:0001e8b0       ?Particles_VehicleSplash@@YAXPAVCEntity@@MJMM@Z 1001f8b0 f   Particles.obj
 0001:0001eb20       ?Init_Particle_Snow@@YAXPAVParticle@@V?$Vector@M$02@@MMMH@Z 1001fb20 f   Particles.obj
 0001:0001ed30       ?GetSnowParticlePtr@@YAPAVCTextureObject@@H@Z 1001fd30 f   Particles.obj
 0001:0001eda0       ?Particles_Snow@@YAXPAVCEntity@@MJMPAVCTextureData@@AAV?$AABBox@M$02@@MM@Z 1001fda0 f   Particles.obj
 0001:0001f190       ?RenderOneLightningBranch@@YAXV?$Vector@M$02@@0MMMMJ@Z 10020190 f   Particles.obj
 0001:0001f800       ?Particles_Lightning@@YAXV?$Vector@M$02@@0M@Z 10020800 f   Particles.obj
 0001:0001f8b0       ?Particles_SandFlow@@YAXPAVCEntity@@MMMMMJ@Z 100208b0 f   Particles.obj
 0001:0001fca0       ?Particles_WaterFlow@@YAXPAVCEntity@@MMMMMJ@Z 10020ca0 f   Particles.obj
 0001:00020090       ?Particles_LavaFlow@@YAXPAVCEntity@@MMMMMJ@Z 10021090 f   Particles.obj
 0001:00020490       ?Particles_BulletSpray@@YAXPAVCEntity@@V?$Vector@M$02@@W4EffectParticlesType@@M1@Z 10021490 f   Particles.obj
 0001:00020890       ?MakeBaseFromVector@@YAXABV?$Vector@M$02@@AAV1@1@Z 10021890 f   Particles.obj
 0001:000209d0       ?Particles_EmptyShells@@YAXPAVCEntity@@PAUShellLaunchData@@@Z 100219d0 f   Particles.obj
 0001:00021ae0       ?Particles_Death@@YAXPAVCEntity@@M@Z 10022ae0 f   Particles.obj
 0001:00021f90       ?Particles_Appearing@@YAXPAVCEntity@@M@Z 10022f90 f   Particles.obj
 0001:00022170       ?Particles_BloodSpray@@YAXW4SprayParticlesType@@PAVCEntity@@V?$Vector@M$02@@MV?$AABBox@M$02@@2MM@Z 10023170 f   Particles.obj
 0001:00022a80       ?Particles_DestroyingObelisk@@YAXPAVCEntity@@M@Z 10023a80 f   Particles.obj
 0001:00022e10       ?Particles_DestroyingPylon@@YAXPAVCEntity@@V?$Vector@M$02@@M@Z 10023e10 f   Particles.obj
 0001:00023290       ?Particles_HitGround@@YAXPAVCEntity@@MM@Z 10024290 f   Particles.obj
 0001:00023630       ?Ceil@@YAJV?$FixInt@$0BA@$0BA@@@@Z 10024630 f i Particles.obj
 0001:00023640       ??0?$CStaticStackArray@V?$Vector@M$02@@@@QAE@XZ 10024640 f i Particles.obj
 0001:00023660       ??1?$CStaticStackArray@V?$Vector@M$02@@@@QAE@XZ 10024660 f i Particles.obj
 0001:00023690       ??1?$CDynamicContainerIterator@VCEntity@@@@QAE@XZ 10024690 f i Particles.obj
 0001:000236e0       ??0CReticle@@QAE@XZ        100246e0 f   Reticle.obj
 0001:00023940       ??1CReticle@@UAE@XZ        10024940 f   Reticle.obj
 0001:000239c0       ?ReleaseImages@CReticle@@QAEXXZ 100249c0 f   Reticle.obj
 0001:00023a40       ?ReLoadReticle@CReticle@@QAEHXZ 10024a40 f   Reticle.obj
 0001:00023aa0       ?LoadReticle@CReticle@@QAEHVCTFileName@@@Z 10024aa0 f   Reticle.obj
 0001:00024940       ?_BuildPicCoords@CReticle@@IAEXJJ@Z 10025940 f   Reticle.obj
 0001:00024c70       ?DrawReticle@CReticle@@QAEXPAVCDrawPort@@@Z 10025c70 f   Reticle.obj
 0001:00025050       ?FadeReticleOut@CReticle@@QAEXXZ 10026050 f   Reticle.obj
 0001:000250a0       ?FadeReticleIn@CReticle@@QAEXXZ 100260a0 f   Reticle.obj
 0001:000250e0       ??_GCReticle@@UAEPAXI@Z    100260e0 f i Reticle.obj
 0001:000250e0       ??_ECReticle@@UAEPAXI@Z    100260e0 f i Reticle.obj
 0001:00025110       ?SetToNormalizedEmpty@?$AABBox@J$01@@QAEXXZ 10026110 f i Reticle.obj
 0001:00025330       ?CAIAnimator_New@@YAPAVCEntity@@XZ 10026330 f   AIAnimator.obj
 0001:000253d0       ?CAIAnimator_OnInitClass@@YAXXZ 100263d0 f   AIAnimator.obj
 0001:000253e0       ?CAIAnimator_OnEndClass@@YAXXZ 100263e0 f   AIAnimator.obj
 0001:000253f0       ?CAIAnimator_OnPrecache@@YAXPAVCDLLEntityClass@@J@Z 100263f0 f   AIAnimator.obj
 0001:00025400       ?CAIAnimator_OnWorldEnd@@YAXPAVCWorld@@@Z 10026400 f   AIAnimator.obj
 0001:00025410       ?CAIAnimator_OnWorldInit@@YAXPAVCWorld@@@Z 10026410 f   AIAnimator.obj
 0001:00025420       ?CAIAnimator_OnWorldTick@@YAXPAVCWorld@@@Z 10026420 f   AIAnimator.obj
 0001:00025430       ?CAIAnimator_OnWorldRender@@YAXPAVCWorld@@@Z 10026430 f   AIAnimator.obj
 0001:00025500       ?SetDefaultProperties@CAIAnimator@@UAEXXZ 10026500 f   AIAnimator.obj
 0001:00025600       ?UpdatePrimaryAnimation@CAIAnimator@@UAEXXZ 10026600 f   AIAnimator.obj
 0001:00025680       ?RemovePrimaryAnimations@CAIAnimator@@UAEXXZ 10026680 f   AIAnimator.obj
 0001:00025700       ?UpdateAmbientAnimations@CAIAnimator@@UAEXXZ 10026700 f   AIAnimator.obj
 0001:00025710       ?UpdateCreatureSpecificAnimations@CAIAnimator@@UAEXXZ 10026710 f   AIAnimator.obj
 0001:00025720       ?LoadAnimationList@CAIAnimator@@UAEXVCTFileName@@@Z 10026720 f   AIAnimator.obj
 0001:00025940       ?Main@CAIAnimator@@QAEHABVCEntityEvent@@@Z 10026940 f   AIAnimator.obj
 0001:000259c0       ?H0x74380000_Main_01@CAIAnimator@@QAEHABVCEntityEvent@@@Z 100269c0 f   AIAnimator.obj
 0001:00025a40       ?H0x74380001_Main_02@CAIAnimator@@QAEHABVCEntityEvent@@@Z 10026a40 f   AIAnimator.obj
 0001:00025ab0       ?H0x74380004_Main_05@CAIAnimator@@QAEHABVCEntityEvent@@@Z 10026ab0 f   AIAnimator.obj
 0001:00025b20       ?H0x74380002_Main_03@CAIAnimator@@QAEHABVCEntityEvent@@@Z 10026b20 f   AIAnimator.obj
 0001:00025bd0       ?H0x74380003_Main_04@CAIAnimator@@QAEHABVCEntityEvent@@@Z 10026bd0 f   AIAnimator.obj
 0001:00025c30       ?H0x74380005_Main_06@CAIAnimator@@QAEHABVCEntityEvent@@@Z 10026c30 f   AIAnimator.obj
 0001:00025c40       ??_ECAIAnimator@@UAEPAXI@Z 10026c40 f i AIAnimator.obj
 0001:00025c40       ??_GCAIAnimator@@UAEPAXI@Z 10026c40 f i AIAnimator.obj
 0001:00025c70       ??1CAIAnimator@@UAE@XZ     10026c70 f i AIAnimator.obj
 0001:000268d0       ?CAIBase_New@@YAPAVCEntity@@XZ 100278d0 f   AIBase.obj
 0001:00026a20       ?CAIBase_OnInitClass@@YAXXZ 10027a20 f   AIBase.obj
 0001:00026a30       ?CAIBase_OnEndClass@@YAXXZ 10027a30 f   AIBase.obj
 0001:00026a40       ?CAIBase_OnPrecache@@YAXPAVCDLLEntityClass@@J@Z 10027a40 f   AIBase.obj
 0001:00026a50       ?CAIBase_OnWorldEnd@@YAXPAVCWorld@@@Z 10027a50 f   AIBase.obj
 0001:00026a60       ?CAIBase_OnWorldInit@@YAXPAVCWorld@@@Z 10027a60 f   AIBase.obj
 0001:00026a70       ?CAIBase_OnWorldTick@@YAXPAVCWorld@@@Z 10027a70 f   AIBase.obj
 0001:00026a80       ?CAIBase_OnWorldRender@@YAXPAVCWorld@@@Z 10027a80 f   AIBase.obj
 0001:00026b50       ?MakeCopy@EAIMoveFinished@@UAEPAVCEntityEvent@@XZ 10027b50 f   AIBase.obj
 0001:00026b80       ??0EAIMoveFinished@@QAE@XZ 10027b80 f   AIBase.obj
 0001:00026b90       ?MakeCopy@EAIMovePointHit@@UAEPAVCEntityEvent@@XZ 10027b90 f   AIBase.obj
 0001:00026bc0       ??0EAIMovePointHit@@QAE@XZ 10027bc0 f   AIBase.obj
 0001:00026bd0       ?SetDefaultProperties@CAIBase@@UAEXXZ 10027bd0 f   AIBase.obj
 0001:00027030       ?AdjustShaderParams@CAIBase@@UAEXJPAVCShader@@AAUShaderParams@@JPAVCModelInstance@@@Z 10028030 f   AIBase.obj
 0001:00027050       ?Copy@CAIBase@@UAEXAAVCEntity@@K@Z 10028050 f   AIBase.obj
 0001:000270d0       ?Write_t@CAIBase@@UAEXPAVCTStream@@@Z 100280d0 f   AIBase.obj
 0001:00027160       ?Read_t@CAIBase@@UAEXPAVCTStream@@@Z 10028160 f   AIBase.obj
 0001:00027230       ?Destroy@CAIBase@@UAEXXZ   10028230 f   AIBase.obj
 0001:00027240       ?GameInit@CAIBase@@UAEXXZ  10028240 f   AIBase.obj
 0001:00027290       ?CreateHelperObjects@CAIBase@@UAEXXZ 10028290 f   AIBase.obj
 0001:000274e0       ?StatisticsInit@CAIBase@@UAEXXZ 100284e0 f   AIBase.obj
 0001:00027e70       ?VisibleInit@CAIBase@@UAEXXZ 10028e70 f   AIBase.obj
 0001:00028060       ?GetType@CAIBase@@UAEJXZ   10029060 f   AIBase.obj
 0001:00028070       ?ChooseStartPosition@CAIBase@@UAEXXZ 10029070 f   AIBase.obj
 0001:00028080       ?OnDamage@CAIBase@@UAEXVEDamage@@@Z 10029080 f   AIBase.obj
 0001:000280f0       ?SpawnBlood@CAIBase@@QAEXV?$Vector@M$02@@J@Z 100290f0 f   AIBase.obj
 0001:00028350       ?UpdateAnimations@CAIBase@@UAEXXZ 10029350 f   AIBase.obj
 0001:00028360       ?UpdateMover@CAIBase@@UAEXXZ 10029360 f   AIBase.obj
 0001:00028370       ?HasReachedCurrentDestination@CAIBase@@UAE_NXZ 10029370 f   AIBase.obj
 0001:000285c0       ?UpdateMovements@CAIBase@@UAEXXZ 100295c0 f   AIBase.obj
 0001:000286d0       ?CheckForNewMovement@CAIBase@@UAEXXZ 100296d0 f   AIBase.obj
 0001:00028700       ?StartMovement@CAIBase@@UAEXXZ 10029700 f   AIBase.obj
 0001:00028820       ?GetRotateSpeed@CAIBase@@QAEMXZ 10029820 f   AIBase.obj
 0001:00028830       ?GetMoveSpeed@CAIBase@@QAEMXZ 10029830 f   AIBase.obj
 0001:00028840       ?SetDesiredMovement@CAIBase@@UAEXXZ 10029840 f   AIBase.obj
 0001:000289a0       ?UpdatePrimaryAnimation@CAIBase@@UAEXXZ 100299a0 f   AIBase.obj
 0001:00028a20       ?RemovePrimaryAnimations@CAIBase@@UAEXXZ 10029a20 f   AIBase.obj
 0001:00028a90       ?UpdateAmbientAnimations@CAIBase@@UAEXXZ 10029a90 f   AIBase.obj
 0001:00028aa0       ?UpdateCreatureSpecificAnimations@CAIBase@@UAEXXZ 10029aa0 f   AIBase.obj
 0001:00028ab0       ?LoadAnimationList@CAIBase@@UAEXXZ 10029ab0 f   AIBase.obj
 0001:00028ca0       ?ZoneMatch@CAIBase@@QAE_NVCEntityPointer@@H@Z 10029ca0 f   AIBase.obj
 0001:00028d70       ?IsZoneSpeciesCorrect@CAIBase@@QAE_NVCEntityPointer@@@Z 10029d70 f   AIBase.obj
 0001:00028f00       ?FindZone@CAIBase@@QAE?AVCEntityPointer@@H@Z 10029f00 f   AIBase.obj
 0001:00029040       ?PickZoneInFrontOfMe@CAIBase@@QAE?AVCEntityPointer@@M@Z 1002a040 f   AIBase.obj
 0001:00029060       ?FindRandomZone@CAIBase@@QAE?AVCEntityPointer@@H@Z 1002a060 f   AIBase.obj
 0001:00029220       ?FindRandomZone@CAIBase@@QAE?AVCEntityPointer@@XZ 1002a220 f   AIBase.obj
 0001:000293c0       ?FindZoneNear@CAIBase@@QAE?AVCEntityPointer@@HV?$Vector@M$02@@@Z 1002a3c0 f   AIBase.obj
 0001:00029540       ?FindAnyTypeZoneNear@CAIBase@@QAE?AVCEntityPointer@@V?$Vector@M$02@@@Z 1002a540 f   AIBase.obj
 0001:000296a0       ?PickDestinationInZone@CAIBase@@QAEXVCEntityPointer@@@Z 1002a6a0 f   AIBase.obj
 0001:000297c0       ?PickDestinationInFullZone@CAIBase@@QAEXVCEntityPointer@@@Z 1002a7c0 f   AIBase.obj
 0001:000298d0       ?ChooseDestinationStraightAhead@CAIBase@@QAEXM@Z 1002a8d0 f   AIBase.obj
 0001:00029a10       ?PickRandomDestination@CAIBase@@QAE?AV?$Vector@M$02@@M@Z 1002aa10 f   AIBase.obj
 0001:00029ac0       ?PickDestinationAwayFromPoint@CAIBase@@QAE?AV?$Vector@M$02@@MV2@@Z 1002aac0 f   AIBase.obj
 0001:00029b90       ?PickDestinationTowardsPoint@CAIBase@@QAE?AV?$Vector@M$02@@MV2@@Z 1002ab90 f   AIBase.obj
 0001:00029c60       ?ChooseAngledDest@CAIBase@@QAE?AV?$Vector@M$02@@V2@MM@Z 1002ac60 f   AIBase.obj
 0001:00029db0       ?GetRange@CAIBase@@QAEMMM@Z 1002adb0 f   AIBase.obj
 0001:00029dd0       ?DistScale@CAIBase@@QAEMMMMM@Z 1002add0 f   AIBase.obj
 0001:00029e20       ?DoDescriptiveVoiceOver@CAIBase@@UAEXM@Z 1002ae20 f   AIBase.obj
 0001:00029ed0       ?BagCheat@CAIBase@@UAEXVCEntityPointer@@@Z 1002aed0 f   AIBase.obj
 0001:00029fb0       ?MainLoop@CAIBase@@QAEHABVCEntityEvent@@@Z 1002afb0 f   AIBase.obj
 0001:0002a010       ?Main@CAIBase@@QAEHABVCEntityEvent@@@Z 1002b010 f   AIBase.obj
 0001:0002a100       ?H0x79180003_Main_01@CAIBase@@QAEHABVCEntityEvent@@@Z 1002b100 f   AIBase.obj
 0001:0002a180       ?H0x79180004_Main_02@CAIBase@@QAEHABVCEntityEvent@@@Z 1002b180 f   AIBase.obj
 0001:0002a1e0       ?H0x79180005_Main_03@CAIBase@@QAEHABVCEntityEvent@@@Z 1002b1e0 f   AIBase.obj
 0001:0002a280       ?H0x79180006_Main_04@CAIBase@@QAEHABVCEntityEvent@@@Z 1002b280 f   AIBase.obj
 0001:0002a290       ??_ECAIBase@@UAEPAXI@Z     1002b290 f i AIBase.obj
 0001:0002a290       ??_GCAIBase@@UAEPAXI@Z     1002b290 f i AIBase.obj
 0001:0002a2c0       ??1CAIBase@@UAE@XZ         1002b2c0 f i AIBase.obj
 0001:0002a3c0       ??DCEntityPointer@@QBEAAVCEntity@@XZ 1002b3c0 f i AIBase.obj
 0001:0002a3d0       ??0CEntityPointer@@QAE@PAVCEntity@@@Z 1002b3d0 f i AIBase.obj
 0001:0002a3f0       ??1?$CDynamicContainer@VCEntity@@@@QAE@XZ 1002b3f0 f i AIBase.obj
 0001:0002a460       ?SetToNormalizedEmpty@?$AABBox@M$02@@QAEXXZ 1002b460 f i AIBase.obj
 0001:0002a480       ??0?$CStaticStackArray@PAVCEntity@@@@QAE@XZ 1002b480 f i AIBase.obj
 0001:0002a4a0       ??1?$CStaticStackArray@PAVCEntity@@@@QAE@XZ 1002b4a0 f i AIBase.obj
 0001:0002a4d0       ?Expand@?$CStaticArray@PAVCEntity@@@@QAEXJ@Z 1002b4d0 f i AIBase.obj
 0001:0002a550       ?Expand@?$CStaticArray@V?$Vector@M$02@@@@QAEXJ@Z 1002b550 f i AIBase.obj
 0001:0002a610       ?Delete@?$CStaticArray@V?$Vector@M$02@@@@QAEXXZ 1002b610 f i AIBase.obj
 0001:0002a630       ?Delete@?$CStaticArray@PAVCEntity@@@@QAEXXZ 1002b630 f i AIBase.obj
 0001:0002a8f0       ?CAIController_New@@YAPAVCEntity@@XZ 1002b8f0 f   AIController.obj
 0001:0002a9a0       ?CAIController_OnInitClass@@YAXXZ 1002b9a0 f   AIController.obj
 0001:0002a9b0       ?CAIController_OnEndClass@@YAXXZ 1002b9b0 f   AIController.obj
 0001:0002a9c0       ?CAIController_OnPrecache@@YAXPAVCDLLEntityClass@@J@Z 1002b9c0 f   AIController.obj
 0001:0002a9d0       ?CAIController_OnWorldEnd@@YAXPAVCWorld@@@Z 1002b9d0 f   AIController.obj
 0001:0002a9e0       ?CAIController_OnWorldInit@@YAXPAVCWorld@@@Z 1002b9e0 f   AIController.obj
 0001:0002a9f0       ?CAIController_OnWorldTick@@YAXPAVCWorld@@@Z 1002b9f0 f   AIController.obj
 0001:0002aa00       ?CAIController_OnWorldRender@@YAXPAVCWorld@@@Z 1002ba00 f   AIController.obj
 0001:0002aad0       ?MakeCopy@EAnimalInit@@UAEPAVCEntityEvent@@XZ 1002bad0 f   AIController.obj
 0001:0002ab90       ??0EAnimalInit@@QAE@XZ     1002bb90 f   AIController.obj
 0001:0002ac70       ?SetDefaultProperties@CAIController@@UAEXXZ 1002bc70 f   AIController.obj
 0001:0002ad60       ?GetType@CAIController@@UAEJXZ 1002bd60 f   AIController.obj
 0001:0002ad70       ?Destroy@CAIController@@UAEXXZ 1002bd70 f   AIController.obj
 0001:0002ad90       ?DumpAIFiles@CAIController@@QAEXXZ 1002bd90 f   AIController.obj
 0001:0002ae20       ?SpawnNewAnimal@CAIController@@QAEXMVCPlacement3D@@@Z 1002be20 f   AIController.obj
 0001:0002b4b0       ?SpawnReplacement@CAIController@@QAEXXZ 1002c4b0 f   AIController.obj
 0001:0002ba10       ?GetAIFile@CAIController@@QAEPAVCInfoFile@@AAVCTFileName@@@Z 1002ca10 f   AIController.obj
 0001:0002bb50       ?InitPathFinding@CAIController@@QAEXXZ 1002cb50 f   AIController.obj
 0001:0002bc70       ?InitThinking@CAIController@@QAEXXZ 1002cc70 f   AIController.obj
 0001:0002bdf0       ?GetAIClass@CAIController@@QAEJVCTString@@@Z 1002cdf0 f   AIController.obj
 0001:0002c0d0       ?GetGender@CAIController@@QAEHVCTString@@@Z 1002d0d0 f   AIController.obj
 0001:0002c150       ?MaxAnimalsAvailable@CAIController@@QAEHJW4AISpecies@@HHVCTString@@@Z 1002d150 f   AIController.obj
 0001:0002c5b0       ?GenerateAI@CAIController@@QAEXVCTFileName@@AAV?$CDynamicContainer@VCEntity@@@@@Z 1002d5b0 f   AIController.obj
 0001:0002ca20       ?GerateAIFromWorld@CAIController@@QAEXXZ 1002da20 f   AIController.obj
 0001:0002cef0       ?GetSpecies@CAIController@@QAEXVCTString@@AAW4AISpecies@@AAH@Z 1002def0 f   AIController.obj
 0001:0002d480       ?SpawnAIGroup@CAIController@@QAEXJVEAnimalInit@@HHAAV?$CDynamicContainer@VCEntity@@@@@Z 1002e480 f   AIController.obj
 0001:0002d6a0       ?ReloadAISettings@CAIController@@QAEXXZ 1002e6a0 f   AIController.obj
 0001:0002d7d0       ?Main@CAIController@@QAEHABVCEntityEvent@@@Z 1002e7d0 f   AIController.obj
 0001:0002d8b0       ?H0x74360001_Main_01@CAIController@@QAEHABVCEntityEvent@@@Z 1002e8b0 f   AIController.obj
 0001:0002d930       ?H0x74360002_Main_02@CAIController@@QAEHABVCEntityEvent@@@Z 1002e930 f   AIController.obj
 0001:0002da30       ??_GCAIController@@UAEPAXI@Z 1002ea30 f i AIController.obj
 0001:0002da30       ??_ECAIController@@UAEPAXI@Z 1002ea30 f i AIController.obj
 0001:0002da60       ??1CAIController@@UAE@XZ   1002ea60 f i AIController.obj
 0001:0002db80       ?GetFileName@CMapAnimal@@QBE?AVCTFileName@@XZ 1002eb80 f i AIController.obj
 0001:0002dbb0       ?WriteToStream@CSunstormWorldVariables@@UAEXPAVCTStream@@@Z 1002ebb0 f i AIController.obj
 0001:0002dcd0       ?ReadFromStream@CSunstormWorldVariables@@UAEXPAVCTStream@@@Z 1002ecd0 f i AIController.obj
 0001:0002e320       ?Clear@CMapAnimal@@UAEXXZ  1002f320 f i AIController.obj
 0001:0002e3a0       ?GetVersionString@CSunstormWorldVariables@@UBE?AVCTString@@XZ 1002f3a0 f i AIController.obj
 0001:0002e3d0       ??1CSunstormWorldVariables@@QAE@XZ 1002f3d0 f i AIController.obj
 0001:0002e4b0       ??0?$CDynamicStackArray@VCMapAnimal@@@@QAE@AAV0@@Z 1002f4b0 f i AIController.obj
 0001:0002e5d0       ??0?$CDynamicArray@VCMapAnimal@@@@QAE@AAV0@@Z 1002f5d0 f i AIController.obj
 0001:0002e6e0       ??1?$CDynamicStackArray@VCMapAnimal@@@@QAE@XZ 1002f6e0 f i AIController.obj
 0001:0002e7e0       ?Push@?$CDynamicStackArray@VCMapAnimal@@@@QAEAAVCMapAnimal@@XZ 1002f7e0 f i AIController.obj
 0001:0002e880       ??1?$CDynamicContainerIterator@VCInfoFile@@@@QAE@XZ 1002f880 f i AIController.obj
 0001:0002e890       ?New@?$CDynamicArray@VCMapAnimal@@@@QAEPAVCMapAnimal@@J@Z 1002f890 f i AIController.obj
 0001:0002e920       ?Clear@?$CDynamicArray@VCMapAnimal@@@@QAEXXZ 1002f920 f i AIController.obj
 0001:0002e9b0       ??1?$CStaticStackArray@PAVCInfoFile@@@@QAE@XZ 1002f9b0 f i AIController.obj
 0001:0002e9e0       ?Clear@?$CStaticStackArray@PAVCEntity@@@@QAEXXZ 1002f9e0 f i AIController.obj
 0001:0002ea10       ??1?$CStaticArray@PAVCEntity@@@@QAE@XZ 1002fa10 f i AIController.obj
 0001:0002ea40       ?New@?$CStaticArray@PAVCEntity@@@@QAEXJ@Z 1002fa40 f i AIController.obj
 0001:0002ea70       ?GrowPointers@?$CDynamicArray@VCMapAnimal@@@@QAEXJ@Z 1002fa70 f i AIController.obj
 0001:0002eac0       ?AllocBlock@?$CDynamicArray@VCMapAnimal@@@@QAEPAVCMapAnimal@@J@Z 1002fac0 f i AIController.obj
 0001:0002eb70       ??0CMapAnimal@@QAE@XZ      1002fb70 f i AIController.obj
 0001:0002eba0       ?WriteToStream@CMapAnimal@@UAEXPAVCTStream@@@Z 1002fba0 f i AIController.obj
 0001:0002ec70       ?ReadFromStream@CMapAnimal@@UAEXPAVCTStream@@@Z 1002fc70 f i AIController.obj
 0001:0002edc0       ?Expand@?$CStaticArray@PAVCInfoFile@@@@QAEXJ@Z 1002fdc0 f i AIController.obj
 0001:0002ee40       ?Delete@?$CStaticArray@PAVCInfoFile@@@@QAEXXZ 1002fe40 f i AIController.obj
 0001:0002f060       ?CAIMover_New@@YAPAVCEntity@@XZ 10030060 f   AIMover.obj
 0001:0002f0f0       ?CAIMover_OnInitClass@@YAXXZ 100300f0 f   AIMover.obj
 0001:0002f100       ?CAIMover_OnEndClass@@YAXXZ 10030100 f   AIMover.obj
 0001:0002f110       ?CAIMover_OnPrecache@@YAXPAVCDLLEntityClass@@J@Z 10030110 f   AIMover.obj
 0001:0002f120       ?CAIMover_OnWorldEnd@@YAXPAVCWorld@@@Z 10030120 f   AIMover.obj
 0001:0002f130       ?CAIMover_OnWorldInit@@YAXPAVCWorld@@@Z 10030130 f   AIMover.obj
 0001:0002f140       ?CAIMover_OnWorldTick@@YAXPAVCWorld@@@Z 10030140 f   AIMover.obj
 0001:0002f150       ?CAIMover_OnWorldRender@@YAXPAVCWorld@@@Z 10030150 f   AIMover.obj
 0001:0002f220       ?SetDefaultProperties@CAIMover@@UAEXXZ 10030220 f   AIMover.obj
 0001:0002f2b0       ?Copy@CAIMover@@UAEXAAVCEntity@@K@Z 100302b0 f   AIMover.obj
 0001:0002f330       ?Write_t@CAIMover@@UAEXPAVCTStream@@@Z 10030330 f   AIMover.obj
 0001:0002f3c0       ?Read_t@CAIMover@@UAEXPAVCTStream@@@Z 100303c0 f   AIMover.obj
 0001:0002f490       ?Destroy@CAIMover@@UAEXXZ  10030490 f   AIMover.obj
 0001:0002f4a0       ?HasReachedCurrentDestination@CAIMover@@UAE_NXZ 100304a0 f   AIMover.obj
 0001:0002f710       ?UpdateMovements@CAIMover@@UAEXXZ 10030710 f   AIMover.obj
 0001:0002f830       ?CheckForNewMovement@CAIMover@@UAEXXZ 10030830 f   AIMover.obj
 0001:0002f870       ?StartMovement@CAIMover@@UAEXXZ 10030870 f   AIMover.obj
 0001:0002f9b0       ?GetRotateSpeed@CAIMover@@QAEMXZ 100309b0 f   AIMover.obj
 0001:0002f9c0       ?GetMoveSpeed@CAIMover@@UAEMXZ 100309c0 f   AIMover.obj
 0001:0002f9d0       ?SetDesiredMovement@CAIMover@@UAEXXZ 100309d0 f   AIMover.obj
 0001:0002fb50       ?Main@CAIMover@@QAEHABVCEntityEvent@@@Z 10030b50 f   AIMover.obj
 0001:0002fbd0       ?H0x74390000_Main_01@CAIMover@@QAEHABVCEntityEvent@@@Z 10030bd0 f   AIMover.obj
 0001:0002fc50       ?H0x74390001_Main_02@CAIMover@@QAEHABVCEntityEvent@@@Z 10030c50 f   AIMover.obj
 0001:0002fcd0       ?H0x74390002_Main_03@CAIMover@@QAEHABVCEntityEvent@@@Z 10030cd0 f   AIMover.obj
 0001:0002fd50       ?H0x74390003_Main_04@CAIMover@@QAEHABVCEntityEvent@@@Z 10030d50 f   AIMover.obj
 0001:0002fdb0       ?H0x74390006_Main_07@CAIMover@@QAEHABVCEntityEvent@@@Z 10030db0 f   AIMover.obj
 0001:0002fe20       ?H0x74390004_Main_05@CAIMover@@QAEHABVCEntityEvent@@@Z 10030e20 f   AIMover.obj
 0001:0002ff30       ?H0x74390005_Main_06@CAIMover@@QAEHABVCEntityEvent@@@Z 10030f30 f   AIMover.obj
 0001:0002ff90       ?H0x74390007_Main_08@CAIMover@@QAEHABVCEntityEvent@@@Z 10030f90 f   AIMover.obj
 0001:0002ffa0       ??_ECAIMover@@UAEPAXI@Z    10030fa0 f i AIMover.obj
 0001:0002ffa0       ??_GCAIMover@@UAEPAXI@Z    10030fa0 f i AIMover.obj
 0001:0002ffd0       ??1CAIMover@@UAE@XZ        10030fd0 f i AIMover.obj
 0001:00030200       ?CAmmoShell_New@@YAPAVCEntity@@XZ 10031200 f   AmmoShell.obj
 0001:00030260       ?CAmmoShell_OnInitClass@@YAXXZ 10031260 f   AmmoShell.obj
 0001:00030270       ?CAmmoShell_OnEndClass@@YAXXZ 10031270 f   AmmoShell.obj
 0001:00030280       ?CAmmoShell_OnPrecache@@YAXPAVCDLLEntityClass@@J@Z 10031280 f   AmmoShell.obj
 0001:00030290       ?CAmmoShell_OnWorldEnd@@YAXPAVCWorld@@@Z 10031290 f   AmmoShell.obj
 0001:000302a0       ?CAmmoShell_OnWorldInit@@YAXPAVCWorld@@@Z 100312a0 f   AmmoShell.obj
 0001:000302b0       ?CAmmoShell_OnWorldTick@@YAXPAVCWorld@@@Z 100312b0 f   AmmoShell.obj
 0001:000302c0       ?CAmmoShell_OnWorldRender@@YAXPAVCWorld@@@Z 100312c0 f   AmmoShell.obj
 0001:00030390       ?SetDefaultProperties@CAmmoShell@@UAEXXZ 10031390 f   AmmoShell.obj
 0001:00030430       ??0CAmmoShell@@QAE@XZ      10031430 f   AmmoShell.obj
 0001:000304a0       ??1CAmmoShell@@UAE@XZ      100314a0 f   AmmoShell.obj
 0001:00030500       ?Copy@CAmmoShell@@UAEXAAVCEntity@@K@Z 10031500 f   AmmoShell.obj
 0001:00030520       ?Write_t@CAmmoShell@@UAEXPAVCTStream@@@Z 10031520 f   AmmoShell.obj
 0001:00030540       ?Read_t@CAmmoShell@@UAEXPAVCTStream@@@Z 10031540 f   AmmoShell.obj
 0001:00030560       ?Setup@CAmmoShell@@QAEXXZ  10031560 f   AmmoShell.obj
 0001:00030600       ?AdjustShadingParameters@CAmmoShell@@UAEHAAV?$Vector@M$02@@AAK1@Z 10031600 f   AmmoShell.obj
 0001:00030690       ?Main@CAmmoShell@@QAEHABVCEntityEvent@@@Z 10031690 f   AmmoShell.obj
 0001:00030700       ?H0x762d0000_Main_01@CAmmoShell@@QAEHABVCEntityEvent@@@Z 10031700 f   AmmoShell.obj
 0001:00030a80       ?H0x762d0001_Main_02@CAmmoShell@@QAEHABVCEntityEvent@@@Z 10031a80 f   AmmoShell.obj
 0001:00030b10       ?H0x762d0002_Main_03@CAmmoShell@@QAEHABVCEntityEvent@@@Z 10031b10 f   AmmoShell.obj
 0001:00030b90       ?H0x762d0003_Main_04@CAmmoShell@@QAEHABVCEntityEvent@@@Z 10031b90 f   AmmoShell.obj
 0001:00030bf0       ??_ECAmmoShell@@UAEPAXI@Z  10031bf0 f i AmmoShell.obj
 0001:00030bf0       ??_GCAmmoShell@@UAEPAXI@Z  10031bf0 f i AmmoShell.obj
 0001:00030f80       ?CAnimationChanger_New@@YAPAVCEntity@@XZ 10031f80 f   AnimationChanger.obj
 0001:00031020       ?CAnimationChanger_OnInitClass@@YAXXZ 10032020 f   AnimationChanger.obj
 0001:00031030       ?CAnimationChanger_OnEndClass@@YAXXZ 10032030 f   AnimationChanger.obj
 0001:00031040       ?CAnimationChanger_OnPrecache@@YAXPAVCDLLEntityClass@@J@Z 10032040 f   AnimationChanger.obj
 0001:00031050       ?CAnimationChanger_OnWorldEnd@@YAXPAVCWorld@@@Z 10032050 f   AnimationChanger.obj
 0001:00031060       ?CAnimationChanger_OnWorldInit@@YAXPAVCWorld@@@Z 10032060 f   AnimationChanger.obj
 0001:00031070       ?CAnimationChanger_OnWorldTick@@YAXPAVCWorld@@@Z 10032070 f   AnimationChanger.obj
 0001:00031080       ?CAnimationChanger_OnWorldRender@@YAXPAVCWorld@@@Z 10032080 f   AnimationChanger.obj
 0001:00031150       ?MakeCopy@EChangeAnim@@UAEPAVCEntityEvent@@XZ 10032150 f   AnimationChanger.obj
 0001:000311c0       ??0EChangeAnim@@QAE@XZ     100321c0 f   AnimationChanger.obj
 0001:00031200       ?SetDefaultProperties@CAnimationChanger@@UAEXXZ 10032200 f   AnimationChanger.obj
 0001:000312c0       ?GetDescription@CAnimationChanger@@UBEABVCTString@@XZ 100322c0 f   AnimationChanger.obj
 0001:00031300       ?GetAnimData@CAnimationChanger@@UAEPAVCAnimData@@J@Z 10032300 f   AnimationChanger.obj
 0001:00031450       ?Main@CAnimationChanger@@QAEHABVCEntityEvent@@@Z 10032450 f   AnimationChanger.obj
 0001:000315b0       ?H0x00da0001_Main_01@CAnimationChanger@@QAEHABVCEntityEvent@@@Z 100325b0 f   AnimationChanger.obj
 0001:00031680       ?H0x00da0002_Main_02@CAnimationChanger@@QAEHABVCEntityEvent@@@Z 10032680 f   AnimationChanger.obj
 0001:000316e0       ?GetName@CAnimationChanger@@UBEABVCTString@@XZ 100326e0 f i AnimationChanger.obj
 0001:000316f0       ?GetTarget@CAnimationChanger@@UBEPAVCEntity@@XZ 100326f0 f i AnimationChanger.obj
 0001:00031700       ?IsTargetable@CAnimationChanger@@UBEHXZ 10032700 f i AnimationChanger.obj
 0001:00031710       ??_GCAnimationChanger@@UAEPAXI@Z 10032710 f i AnimationChanger.obj
 0001:00031710       ??_ECAnimationChanger@@UAEPAXI@Z 10032710 f i AnimationChanger.obj
 0001:00031740       ??1CAnimationChanger@@UAE@XZ 10032740 f i AnimationChanger.obj
 0001:00031ed0       ?CAnimationHub_New@@YAPAVCEntity@@XZ 10032ed0 f   AnimationHub.obj
 0001:00031fb0       ?CAnimationHub_OnInitClass@@YAXXZ 10032fb0 f   AnimationHub.obj
 0001:00031fc0       ?CAnimationHub_OnEndClass@@YAXXZ 10032fc0 f   AnimationHub.obj
 0001:00031fd0       ?CAnimationHub_OnPrecache@@YAXPAVCDLLEntityClass@@J@Z 10032fd0 f   AnimationHub.obj
 0001:00031fe0       ?CAnimationHub_OnWorldEnd@@YAXPAVCWorld@@@Z 10032fe0 f   AnimationHub.obj
 0001:00031ff0       ?CAnimationHub_OnWorldInit@@YAXPAVCWorld@@@Z 10032ff0 f   AnimationHub.obj
 0001:00032000       ?CAnimationHub_OnWorldTick@@YAXPAVCWorld@@@Z 10033000 f   AnimationHub.obj
 0001:00032010       ?CAnimationHub_OnWorldRender@@YAXPAVCWorld@@@Z 10033010 f   AnimationHub.obj
 0001:000320e0       ?SetDefaultProperties@CAnimationHub@@UAEXXZ 100330e0 f   AnimationHub.obj
 0001:000322b0       ?GetDescription@CAnimationHub@@UBEABVCTString@@XZ 100332b0 f   AnimationHub.obj
 0001:000322f0       ?RelayEvents@CAnimationHub@@QAEHABVCEntityEvent@@@Z 100332f0 f   AnimationHub.obj
 0001:00032360       ?H0x00e40004_RelayEvents_04@CAnimationHub@@QAEHABVCEntityEvent@@@Z 10033360 f   AnimationHub.obj
 0001:00032430       ?H0x00e40001_RelayEvents_01@CAnimationHub@@QAEHABVCEntityEvent@@@Z 10033430 f   AnimationHub.obj
 0001:000324b0       ?H0x00e40002_RelayEvents_02@CAnimationHub@@QAEHABVCEntityEvent@@@Z 100334b0 f   AnimationHub.obj
 0001:00032510       ?H0x00e40003_RelayEvents_03@CAnimationHub@@QAEHABVCEntityEvent@@@Z 10033510 f   AnimationHub.obj
 0001:00032610       ?H0x00e40005_RelayEvents_05@CAnimationHub@@QAEHABVCEntityEvent@@@Z 10033610 f   AnimationHub.obj
 0001:00032670       ?WaitChange@CAnimationHub@@QAEHABVCEntityEvent@@@Z 10033670 f   AnimationHub.obj
 0001:000326d0       ?H0x00e40009_WaitChange_03@CAnimationHub@@QAEHABVCEntityEvent@@@Z 100336d0 f   AnimationHub.obj
 0001:00032740       ?H0x00e40007_WaitChange_01@CAnimationHub@@QAEHABVCEntityEvent@@@Z 10033740 f   AnimationHub.obj
 0001:00032800       ?H0x00e40008_WaitChange_02@CAnimationHub@@QAEHABVCEntityEvent@@@Z 10033800 f   AnimationHub.obj
 0001:00032860       ?H0x00e4000a_WaitChange_04@CAnimationHub@@QAEHABVCEntityEvent@@@Z 10033860 f   AnimationHub.obj
 0001:00032870       ?Main@CAnimationHub@@QAEHABVCEntityEvent@@@Z 10033870 f   AnimationHub.obj
 0001:00032980       ?GetName@CAnimationHub@@UBEABVCTString@@XZ 10033980 f i AnimationHub.obj
 0001:00032990       ?IsTargetable@CAnimationHub@@UBEHXZ 10033990 f i AnimationHub.obj
 0001:000329a0       ??_GCAnimationHub@@UAEPAXI@Z 100339a0 f i AnimationHub.obj
 0001:000329a0       ??_ECAnimationHub@@UAEPAXI@Z 100339a0 f i AnimationHub.obj
 0001:000329d0       ??1CAnimationHub@@UAE@XZ   100339d0 f i AnimationHub.obj
 0001:00032b90       ??0ETruckStart@@QAE@ABV0@@Z 10033b90 f i ATV.obj
 0001:00032bc0       ??4ETruckStart@@QAEAAV0@ABV0@@Z 10033bc0 f i ATV.obj
 0001:00032c00       ??1ETruckStart@@UAE@XZ     10033c00 f i ATV.obj
 0001:00032c90       ??_GETruckStart@@UAEPAXI@Z 10033c90 f i ATV.obj
 0001:00032cc0       ??_EETruckStart@@UAEPAXI@Z 10033cc0 f i ATV.obj
 0001:00032d20       ?ClearToDefault@@YAXAAVETruckStart@@@Z 10033d20 f i ATV.obj
 0001:00032dc0       ??0ETruckStop@@QAE@ABV0@@Z 10033dc0 f i ATV.obj
 0001:00032de0       ??4ETruckStop@@QAEAAV0@ABV0@@Z 10033de0 f i ATV.obj
 0001:00032e00       ??1ETruckStop@@UAE@XZ      10033e00 f i ATV.obj
 0001:00032e10       ??_GETruckStop@@UAEPAXI@Z  10033e10 f i ATV.obj
 0001:00032e40       ??_EETruckStop@@UAEPAXI@Z  10033e40 f i ATV.obj
 0001:00032ea0       ?ClearToDefault@@YAXAAVETruckStop@@@Z 10033ea0 f i ATV.obj
 0001:00032ec0       ??0ETruckFirstPersonView@@QAE@ABV0@@Z 10033ec0 f i ATV.obj
 0001:00032ee0       ??4ETruckFirstPersonView@@QAEAAV0@ABV0@@Z 10033ee0 f i ATV.obj
 0001:00032f00       ??1ETruckFirstPersonView@@UAE@XZ 10033f00 f i ATV.obj
 0001:00032f10       ??_GETruckFirstPersonView@@UAEPAXI@Z 10033f10 f i ATV.obj
 0001:00032f40       ??_EETruckFirstPersonView@@UAEPAXI@Z 10033f40 f i ATV.obj
 0001:00032fa0       ?ClearToDefault@@YAXAAVETruckFirstPersonView@@@Z 10033fa0 f i ATV.obj
 0001:00032fc0       ??0ETruckThirdPersonView@@QAE@ABV0@@Z 10033fc0 f i ATV.obj
 0001:00032fe0       ??4ETruckThirdPersonView@@QAEAAV0@ABV0@@Z 10033fe0 f i ATV.obj
 0001:00033000       ??1ETruckThirdPersonView@@UAE@XZ 10034000 f i ATV.obj
 0001:00033010       ??_GETruckThirdPersonView@@UAEPAXI@Z 10034010 f i ATV.obj
 0001:00033040       ??_EETruckThirdPersonView@@UAEPAXI@Z 10034040 f i ATV.obj
 0001:000330a0       ?ClearToDefault@@YAXAAVETruckThirdPersonView@@@Z 100340a0 f i ATV.obj
 0001:000330c0       ??0ETruckClicked@@QAE@ABV0@@Z 100340c0 f i ATV.obj
 0001:000330f0       ??4ETruckClicked@@QAEAAV0@ABV0@@Z 100340f0 f i ATV.obj
 0001:00033130       ??1ETruckClicked@@UAE@XZ   10034130 f i ATV.obj
 0001:000331c0       ??_GETruckClicked@@UAEPAXI@Z 100341c0 f i ATV.obj
 0001:000331f0       ??_EETruckClicked@@UAEPAXI@Z 100341f0 f i ATV.obj
 0001:00033250       ?ClearToDefault@@YAXAAVETruckClicked@@@Z 10034250 f i ATV.obj
 0001:000332f0       ??0ETruckLoadATV@@QAE@ABV0@@Z 100342f0 f i ATV.obj
 0001:00033320       ??4ETruckLoadATV@@QAEAAV0@ABV0@@Z 10034320 f i ATV.obj
 0001:00033360       ??1ETruckLoadATV@@UAE@XZ   10034360 f i ATV.obj
 0001:000333f0       ??_GETruckLoadATV@@UAEPAXI@Z 100343f0 f i ATV.obj
 0001:00033420       ??_EETruckLoadATV@@UAEPAXI@Z 10034420 f i ATV.obj
 0001:00033480       ?ClearToDefault@@YAXAAVETruckLoadATV@@@Z 10034480 f i ATV.obj
 0001:00033520       ?ClearToDefault@@YAXAAW4TruckWheelState@@@Z 10034520 f i ATV.obj
 0001:00033530       ??0EATVStart@@QAE@ABV0@@Z  10034530 f i ATV.obj
 0001:00033560       ??4EATVStart@@QAEAAV0@ABV0@@Z 10034560 f i ATV.obj
 0001:000335a0       ??1EATVStart@@UAE@XZ       100345a0 f i ATV.obj
 0001:00033630       ??_GEATVStart@@UAEPAXI@Z   10034630 f i ATV.obj
 0001:00033660       ??_EEATVStart@@UAEPAXI@Z   10034660 f i ATV.obj
 0001:000336c0       ?ClearToDefault@@YAXAAVEATVStart@@@Z 100346c0 f i ATV.obj
 0001:00033760       ??0EATVStop@@QAE@ABV0@@Z   10034760 f i ATV.obj
 0001:00033780       ??4EATVStop@@QAEAAV0@ABV0@@Z 10034780 f i ATV.obj
 0001:000337a0       ??1EATVStop@@UAE@XZ        100347a0 f i ATV.obj
 0001:000337b0       ??_GEATVStop@@UAEPAXI@Z    100347b0 f i ATV.obj
 0001:000337e0       ??_EEATVStop@@UAEPAXI@Z    100347e0 f i ATV.obj
 0001:00033840       ?ClearToDefault@@YAXAAVEATVStop@@@Z 10034840 f i ATV.obj
 0001:00033860       ??0EATVClicked@@QAE@ABV0@@Z 10034860 f i ATV.obj
 0001:00033890       ??4EATVClicked@@QAEAAV0@ABV0@@Z 10034890 f i ATV.obj
 0001:000338d0       ??1EATVClicked@@UAE@XZ     100348d0 f i ATV.obj
 0001:00033960       ??_GEATVClicked@@UAEPAXI@Z 10034960 f i ATV.obj
 0001:00033990       ??_EEATVClicked@@UAEPAXI@Z 10034990 f i ATV.obj
 0001:000339f0       ?ClearToDefault@@YAXAAVEATVClicked@@@Z 100349f0 f i ATV.obj
 0001:00033a90       ?ClearToDefault@@YAXAAW4ATVWheelState@@@Z 10034a90 f i ATV.obj
 0001:00033aa0       ??0EATVLoadOnTruck@@QAE@ABV0@@Z 10034aa0 f i ATV.obj
 0001:00033ad0       ??4EATVLoadOnTruck@@QAEAAV0@ABV0@@Z 10034ad0 f i ATV.obj
 0001:00033b10       ??1EATVLoadOnTruck@@UAE@XZ 10034b10 f i ATV.obj
 0001:00033ba0       ??_GEATVLoadOnTruck@@UAEPAXI@Z 10034ba0 f i ATV.obj
 0001:00033bd0       ??_EEATVLoadOnTruck@@UAEPAXI@Z 10034bd0 f i ATV.obj
 0001:00033c30       ?ClearToDefault@@YAXAAVEATVLoadOnTruck@@@Z 10034c30 f i ATV.obj
 0001:00033cd0       ??0EATVUnloadOffTruck@@QAE@ABV0@@Z 10034cd0 f i ATV.obj
 0001:00033d10       ??4EATVUnloadOffTruck@@QAEAAV0@ABV0@@Z 10034d10 f i ATV.obj
 0001:00033d80       ??1EATVUnloadOffTruck@@UAE@XZ 10034d80 f i ATV.obj
 0001:00033e20       ??_GEATVUnloadOffTruck@@UAEPAXI@Z 10034e20 f i ATV.obj
 0001:00033e50       ??_EEATVUnloadOffTruck@@UAEPAXI@Z 10034e50 f i ATV.obj
 0001:00033eb0       ?ClearToDefault@@YAXAAVEATVUnloadOffTruck@@@Z 10034eb0 f i ATV.obj
 0001:00034770       ?CATV_New@@YAPAVCEntity@@XZ 10035770 f   ATV.obj
 0001:000348b0       ?CATV_OnEndClass@@YAXXZ    100358b0 f   ATV.obj
 0001:000348c0       ?CATV_OnPrecache@@YAXPAVCDLLEntityClass@@J@Z 100358c0 f   ATV.obj
 0001:000348d0       ?CATV_OnWorldEnd@@YAXPAVCWorld@@@Z 100358d0 f   ATV.obj
 0001:000348e0       ?CATV_OnWorldInit@@YAXPAVCWorld@@@Z 100358e0 f   ATV.obj
 0001:000348f0       ?CATV_OnWorldTick@@YAXPAVCWorld@@@Z 100358f0 f   ATV.obj
 0001:00034900       ?CATV_OnWorldRender@@YAXPAVCWorld@@@Z 10035900 f   ATV.obj
 0001:000349d0       ?MakeCopy@EATVStart@@UAEPAVCEntityEvent@@XZ 100359d0 f   ATV.obj
 0001:00034a10       ??0EATVStart@@QAE@XZ       10035a10 f   ATV.obj
 0001:00034a80       ?MakeCopy@EATVStop@@UAEPAVCEntityEvent@@XZ 10035a80 f   ATV.obj
 0001:00034ab0       ??0EATVStop@@QAE@XZ        10035ab0 f   ATV.obj
 0001:00034ac0       ?MakeCopy@EATVClicked@@UAEPAVCEntityEvent@@XZ 10035ac0 f   ATV.obj
 0001:00034b00       ??0EATVClicked@@QAE@XZ     10035b00 f   ATV.obj
 0001:00034b70       ?MakeCopy@EATVLoadOnTruck@@UAEPAVCEntityEvent@@XZ 10035b70 f   ATV.obj
 0001:00034bb0       ??0EATVLoadOnTruck@@QAE@XZ 10035bb0 f   ATV.obj
 0001:00034c20       ?MakeCopy@EATVUnloadOffTruck@@UAEPAVCEntityEvent@@XZ 10035c20 f   ATV.obj
 0001:00034c70       ??0EATVUnloadOffTruck@@QAE@XZ 10035c70 f   ATV.obj
 0001:00034d00       ?CATV_Precache@@YAXXZ      10035d00 f   ATV.obj
 0001:00034da0       ?CATV_OnInitClass@@YAXXZ   10035da0 f   ATV.obj
 0001:00034db0       ?SetDefaultProperties@CATV@@UAEXXZ 10035db0 f   ATV.obj
 0001:00035110       ?GetType@CATV@@UAEJXZ      10036110 f   ATV.obj
 0001:00035120       ?Read_t@CATV@@UAEXPAVCTStream@@@Z 10036120 f   ATV.obj
 0001:000351f0       ?GetSnowmobileFlag@CATV@@QAEHXZ 100361f0 f   ATV.obj
 0001:00035200       ?WheelForward@CATV@@QAEXXZ 10036200 f   ATV.obj
 0001:00035270       ?WheelBackward@CATV@@QAEXXZ 10036270 f   ATV.obj
 0001:000352e0       ?WheelStop@CATV@@QAEXXZ    100362e0 f   ATV.obj
 0001:000352f0       ?WheelLeft@CATV@@QAEXXZ    100362f0 f   ATV.obj
 0001:00035350       ?WheelRight@CATV@@QAEXXZ   10036350 f   ATV.obj
 0001:000353b0       ?CreateParticles@CATV@@QAEXXZ 100363b0 f   ATV.obj
 0001:00035ac0       ?PreMoving@CATV@@UAEXXZ    10036ac0 f   ATV.obj
 0001:00036600       ?DoMoving@CATV@@UAEXXZ     10037600 f   ATV.obj
 0001:00036670       ?HandleSounds@CATV@@QAEXXZ 10037670 f   ATV.obj
 0001:000369d0       ?PostMoving@CATV@@UAEXXZ   100379d0 f   ATV.obj
 0001:00036ae0       ?SetupAnims@CATV@@QAEXXZ   10037ae0 f   ATV.obj
 0001:00036b70       ?SetupTexture@CATV@@QAEXXZ 10037b70 f   ATV.obj
 0001:00036d70       ?ClaimOwnership@CATV@@QAEXVCEntityPointer@@@Z 10037d70 f   ATV.obj
 0001:00036f10       ?ATVStart@CATV@@QAEXXZ     10037f10 f   ATV.obj
 0001:00036f60       ?ATVStop@CATV@@QAEXXZ      10037f60 f   ATV.obj
 0001:00036fe0       ?ATVLoadOnTruck@CATV@@QAEXVCEntityPointer@@@Z 10037fe0 f   ATV.obj
 0001:00037150       ?ATVUnloadOffTruck@CATV@@QAEXVCEntityPointer@@0@Z 10038150 f   ATV.obj
 0001:000373f0       ?Main@CATV@@QAEHABVCEntityEvent@@@Z 100383f0 f   ATV.obj
 0001:00037620       ?H0x76300005_Main_01@CATV@@QAEHABVCEntityEvent@@@Z 10038620 f   ATV.obj
 0001:000376a0       ?H0x76300006_Main_02@CATV@@QAEHABVCEntityEvent@@@Z 100386a0 f   ATV.obj
 0001:00037800       ?H0x76300007_Main_03@CATV@@QAEHABVCEntityEvent@@@Z 10038800 f   ATV.obj
 0001:00037ad0       ?H0x76300008_Main_04@CATV@@QAEHABVCEntityEvent@@@Z 10038ad0 f   ATV.obj
 0001:00037b30       ?GetName@CATV@@UBEABVCTString@@XZ 10038b30 f i ATV.obj
 0001:00037b40       ?IsTargetable@CATV@@UBEHXZ 10038b40 f i ATV.obj
 0001:00037b50       ??_ECATV@@UAEPAXI@Z        10038b50 f i ATV.obj
 0001:00037b50       ??_GCATV@@UAEPAXI@Z        10038b50 f i ATV.obj
 0001:00037b80       ??1CATV@@UAE@XZ            10038b80 f i ATV.obj
 0001:00037cf0       ??0CEntityPointer@@QAE@ABV0@@Z 10038cf0 f i ATV.obj
 0001:00037e20       ?CBackgroundViewer_New@@YAPAVCEntity@@XZ 10038e20 f   BackgroundViewer.obj
 0001:00037ed0       ?CBackgroundViewer_OnInitClass@@YAXXZ 10038ed0 f   BackgroundViewer.obj
 0001:00037ee0       ?CBackgroundViewer_OnEndClass@@YAXXZ 10038ee0 f   BackgroundViewer.obj
 0001:00037ef0       ?CBackgroundViewer_OnPrecache@@YAXPAVCDLLEntityClass@@J@Z 10038ef0 f   BackgroundViewer.obj
 0001:00037f00       ?CBackgroundViewer_OnWorldEnd@@YAXPAVCWorld@@@Z 10038f00 f   BackgroundViewer.obj
 0001:00037f10       ?CBackgroundViewer_OnWorldInit@@YAXPAVCWorld@@@Z 10038f10 f   BackgroundViewer.obj
 0001:00037f20       ?CBackgroundViewer_OnWorldTick@@YAXPAVCWorld@@@Z 10038f20 f   BackgroundViewer.obj
 0001:00037f30       ?CBackgroundViewer_OnWorldRender@@YAXPAVCWorld@@@Z 10038f30 f   BackgroundViewer.obj
 0001:00037f90       ?SetDefaultProperties@CBackgroundViewer@@UAEXXZ 10038f90 f   BackgroundViewer.obj
 0001:00037fd0       ?IsTargetValid@CBackgroundViewer@@UAEHJPAVCEntity@@@Z 10038fd0 f   BackgroundViewer.obj
 0001:00038020       ?HandleEvent@CBackgroundViewer@@UAEHABVCEntityEvent@@@Z 10039020 f   BackgroundViewer.obj
 0001:00038050       ?Main@CBackgroundViewer@@QAEHABVCEntityEvent@@@Z 10039050 f   BackgroundViewer.obj
 0001:000380f0       ?GetName@CMarker@@UBEABVCTString@@XZ 100390f0 f i BackgroundViewer.obj
 0001:00038100       ?GetTarget@CMarker@@UBEPAVCEntity@@XZ 10039100 f i BackgroundViewer.obj
 0001:00038110       ?IsTargetable@CMarker@@UBEHXZ 10039110 f i BackgroundViewer.obj
 0001:00038120       ?IsImportant@CBackgroundViewer@@UBEHXZ 10039120 f i BackgroundViewer.obj
 0001:00038130       ??_GCBackgroundViewer@@UAEPAXI@Z 10039130 f i BackgroundViewer.obj
 0001:00038130       ??_ECBackgroundViewer@@UAEPAXI@Z 10039130 f i BackgroundViewer.obj
 0001:00038160       ??1CBackgroundViewer@@UAE@XZ 10039160 f i BackgroundViewer.obj
 0001:00038210       ??1CMarker@@UAE@XZ         10039210 f i BackgroundViewer.obj
 0001:00038d70       ?CBaggedGame_New@@YAPAVCEntity@@XZ 10039d70 f   BaggedGame.obj
 0001:00038f80       ?CBaggedGame_OnInitClass@@YAXXZ 10039f80 f   BaggedGame.obj
 0001:00038f90       ?CBaggedGame_OnEndClass@@YAXXZ 10039f90 f   BaggedGame.obj
 0001:00038fa0       ?CBaggedGame_OnPrecache@@YAXPAVCDLLEntityClass@@J@Z 10039fa0 f   BaggedGame.obj
 0001:00038fb0       ?CBaggedGame_OnWorldEnd@@YAXPAVCWorld@@@Z 10039fb0 f   BaggedGame.obj
 0001:00038fc0       ?CBaggedGame_OnWorldInit@@YAXPAVCWorld@@@Z 10039fc0 f   BaggedGame.obj
 0001:00038fd0       ?CBaggedGame_OnWorldTick@@YAXPAVCWorld@@@Z 10039fd0 f   BaggedGame.obj
 0001:00038fe0       ?CBaggedGame_OnWorldRender@@YAXPAVCWorld@@@Z 10039fe0 f   BaggedGame.obj
 0001:000390b0       ?SetDefaultProperties@CBaggedGame@@UAEXXZ 1003a0b0 f   BaggedGame.obj
 0001:00039460       ?AddGameToInfoFile@CBaggedGame@@QAEXAAVCInfoFile@@J@Z 1003a460 f   BaggedGame.obj
 0001:00039ea0       ?Main@CBaggedGame@@QAEHABVCEntityEvent@@@Z 1003aea0 f   BaggedGame.obj
 0001:00039f10       ?H0x77290000_Main_01@CBaggedGame@@QAEHABVCEntityEvent@@@Z 1003af10 f   BaggedGame.obj
 0001:00039f30       ?H0x77290001_Main_02@CBaggedGame@@QAEHABVCEntityEvent@@@Z 1003af30 f   BaggedGame.obj
 0001:00039f40       ?GetName@CBaggedGame@@UBEABVCTString@@XZ 1003af40 f i BaggedGame.obj
 0001:00039f50       ??_GCBaggedGame@@UAEPAXI@Z 1003af50 f i BaggedGame.obj
 0001:00039f50       ??_ECBaggedGame@@UAEPAXI@Z 1003af50 f i BaggedGame.obj
 0001:00039f80       ??1CBaggedGame@@UAE@XZ     1003af80 f i BaggedGame.obj
 0001:0003a6a0       ?CBasicEffect_New@@YAPAVCEntity@@XZ 1003b6a0 f   BasicEffects.obj
 0001:0003a750       ?CBasicEffect_OnInitClass@@YAXXZ 1003b750 f   BasicEffects.obj
 0001:0003a760       ?CBasicEffect_OnEndClass@@YAXXZ 1003b760 f   BasicEffects.obj
 0001:0003a770       ?CBasicEffect_OnWorldEnd@@YAXPAVCWorld@@@Z 1003b770 f   BasicEffects.obj
 0001:0003a780       ?CBasicEffect_OnWorldInit@@YAXPAVCWorld@@@Z 1003b780 f   BasicEffects.obj
 0001:0003a790       ?CBasicEffect_OnWorldTick@@YAXPAVCWorld@@@Z 1003b790 f   BasicEffects.obj
 0001:0003a7a0       ?CBasicEffect_OnWorldRender@@YAXPAVCWorld@@@Z 1003b7a0 f   BasicEffects.obj
 0001:0003a870       ?MakeCopy@ESpawnEffect@@UAEPAVCEntityEvent@@XZ 1003b870 f   BasicEffects.obj
 0001:0003a8f0       ??0ESpawnEffect@@QAE@XZ    1003b8f0 f   BasicEffects.obj
 0001:0003a9a0       ?CBasicEffect_OnPrecache@@YAXPAVCDLLEntityClass@@J@Z 1003b9a0 f   BasicEffects.obj
 0001:0003a9c0       ?SetDefaultProperties@CBasicEffect@@UAEXXZ 1003b9c0 f   BasicEffects.obj
 0001:0003aaf0       ?DumpSync_t@CBasicEffect@@UAEXAAVCTStream@@J@Z 1003baf0 f   BasicEffects.obj
 0001:0003ab30       ?Read_t@CBasicEffect@@UAEXPAVCTStream@@@Z 1003bb30 f   BasicEffects.obj
 0001:0003ab60       ?GetLightSource@CBasicEffect@@UAEPAVCLightSource@@XZ 1003bb60 f   BasicEffects.obj
 0001:0003ab80       ?SetupLightSource@CBasicEffect@@QAEXXZ 1003bb80 f   BasicEffects.obj
 0001:0003ab90       ?RenderParticles@CBasicEffect@@UAEXXZ 1003bb90 f   BasicEffects.obj
 0001:0003abf0       ?AdjustShadingParameters@CBasicEffect@@UAEHAAV?$Vector@M$02@@AAK1@Z 1003bbf0 f   BasicEffects.obj
 0001:0003ad00       ?GetDepthSortOffset@CBasicEffect@@UAEMXZ 1003bd00 f   BasicEffects.obj
 0001:0003ad10       ?SetNonLoopingTexAnims@CBasicEffect@@QAEXXZ 1003bd10 f   BasicEffects.obj
 0001:0003ad40       ?SetNormalForHalfFaceForward@CBasicEffect@@QAEXXZ 1003bd40 f   BasicEffects.obj
 0001:0003ad80       ?SetNormal@CBasicEffect@@QAEXXZ 1003bd80 f   BasicEffects.obj
 0001:0003adc0       ?SetNormalWithRandomBanking@CBasicEffect@@QAEXXZ 1003bdc0 f   BasicEffects.obj
 0001:0003ae10       ?FindGravityVectorFromSector@CBasicEffect@@QAEXXZ 1003be10 f   BasicEffects.obj
 0001:0003ae80       ?SetNormalAndDirection@CBasicEffect@@QAEXXZ 1003be80 f   BasicEffects.obj
 0001:0003b0d0       ?RandomBanking@CBasicEffect@@QAEXXZ 1003c0d0 f   BasicEffects.obj
 0001:0003b110       ?Stretch@CBasicEffect@@QAEXXZ 1003c110 f   BasicEffects.obj
 0001:0003b130       ?ParentToNearestPolygonAndStretch@CBasicEffect@@QAEXXZ 1003c130 f   BasicEffects.obj
 0001:0003b3c0       ?ProjectileExplosion@CBasicEffect@@QAEXXZ 1003c3c0 f   BasicEffects.obj
 0001:0003b3d0       ?ProjectilePlaneExplosion@CBasicEffect@@QAEXXZ 1003c3d0 f   BasicEffects.obj
 0001:0003b3e0       ?BombExplosion@CBasicEffect@@QAEXXZ 1003c3e0 f   BasicEffects.obj
 0001:0003b3f0       ?GizmoSplashFX@CBasicEffect@@QAEXXZ 1003c3f0 f   BasicEffects.obj
 0001:0003b400       ?GrenadeExplosion@CBasicEffect@@QAEXXZ 1003c400 f   BasicEffects.obj
 0001:0003b410       ?GrenadePlaneExplosion@CBasicEffect@@QAEXXZ 1003c410 f   BasicEffects.obj
 0001:0003b420       ?CannonExplosion@CBasicEffect@@QAEXHH@Z 1003c420 f   BasicEffects.obj
 0001:0003b430       ?CannonPlaneExplosion@CBasicEffect@@QAEXXZ 1003c430 f   BasicEffects.obj
 0001:0003b440       ?Stain@CBasicEffect@@QAEXXZ 1003c440 f   BasicEffects.obj
 0001:0003b450       ?CannonStain@CBasicEffect@@QAEXXZ 1003c450 f   BasicEffects.obj
 0001:0003b460       ?ShockWave@CBasicEffect@@QAEXXZ 1003c460 f   BasicEffects.obj
 0001:0003b470       ?CannonShockWave@CBasicEffect@@QAEXXZ 1003c470 f   BasicEffects.obj
 0001:0003b480       ?LaserWave@CBasicEffect@@QAEXXZ 1003c480 f   BasicEffects.obj
 0001:0003b490       ?TeleportEffect@CBasicEffect@@QAEXXZ 1003c490 f   BasicEffects.obj
 0001:0003b4a0       ?BulletStainMetal@CBasicEffect@@QAEXH@Z 1003c4a0 f   BasicEffects.obj
 0001:0003b4b0       ?BulletStainPaper@CBasicEffect@@QAEXH@Z 1003c4b0 f   BasicEffects.obj
 0001:0003b4c0       ?BulletStainWood@CBasicEffect@@QAEXH@Z 1003c4c0 f   BasicEffects.obj
 0001:0003b4d0       ?BulletStainSand@CBasicEffect@@QAEXH@Z 1003c4d0 f   BasicEffects.obj
 0001:0003b4e0       ?CreateParticles@CBasicEffect@@QAEXJ@Z 1003c4e0 f   BasicEffects.obj
 0001:0003b4f0       ?BulletStainRedSand@CBasicEffect@@QAEXH@Z 1003c4f0 f   BasicEffects.obj
 0001:0003b500       ?BulletStainStone@CBasicEffect@@QAEXHH@Z 1003c500 f   BasicEffects.obj
 0001:0003b510       ?BulletStainDefault@CBasicEffect@@QAEXH@Z 1003c510 f   BasicEffects.obj
 0001:0003b5a0       ?BulletStainDirt@CBasicEffect@@QAEXH@Z 1003c5a0 f   BasicEffects.obj
 0001:0003b630       ?BulletStainSnow@CBasicEffect@@QAEXH@Z 1003c630 f   BasicEffects.obj
 0001:0003b6c0       ?BulletStainRock@CBasicEffect@@QAEXH@Z 1003c6c0 f   BasicEffects.obj
 0001:0003b750       ?BulletStainTree@CBasicEffect@@QAEXH@Z 1003c750 f   BasicEffects.obj
 0001:0003b7e0       ?BulletStainWater@CBasicEffect@@QAEXH@Z 1003c7e0 f   BasicEffects.obj
 0001:0003b870       ?BulletTrail@CBasicEffect@@QAEXXZ 1003c870 f   BasicEffects.obj
 0001:0003b880       ?BloodExplode@CBasicEffect@@QAEXXZ 1003c880 f   BasicEffects.obj
 0001:0003b890       ?BloodStain@CBasicEffect@@QAEXXZ 1003c890 f   BasicEffects.obj
 0001:0003b8a0       ?BloodStainGrow@CBasicEffect@@QAEXXZ 1003c8a0 f   BasicEffects.obj
 0001:0003b8b0       ?GizmoStain@CBasicEffect@@QAEXXZ 1003c8b0 f   BasicEffects.obj
 0001:0003b8c0       ?BloodSpill@CBasicEffect@@QAEXK@Z 1003c8c0 f   BasicEffects.obj
 0001:0003b8d0       ?Main@CBasicEffect@@QAEHABVCEntityEvent@@@Z 1003c8d0 f   BasicEffects.obj
 0001:0003ba60       ?H0x02590001_Main_01@CBasicEffect@@QAEHABVCEntityEvent@@@Z 1003ca60 f   BasicEffects.obj
 0001:0003bb10       ?H0x02590002_Main_02@CBasicEffect@@QAEHABVCEntityEvent@@@Z 1003cb10 f   BasicEffects.obj
 0001:0003bb70       ?EffectLoop@CBasicEffect@@QAEHABVCEntityEvent@@@Z 1003cb70 f   BasicEffects.obj
 0001:0003bc10       ?H0x02590004_EffectLoop_01@CBasicEffect@@QAEHABVCEntityEvent@@@Z 1003cc10 f   BasicEffects.obj
 0001:0003bc90       ?H0x02590005_EffectLoop_02@CBasicEffect@@QAEHABVCEntityEvent@@@Z 1003cc90 f   BasicEffects.obj
 0001:0003bcf0       ?H0x02590006_EffectLoop_03@CBasicEffect@@QAEHABVCEntityEvent@@@Z 1003ccf0 f   BasicEffects.obj
 0001:0003bdd0       ?H0x02590007_EffectLoop_04@CBasicEffect@@QAEHABVCEntityEvent@@@Z 1003cdd0 f   BasicEffects.obj
 0001:0003be50       ?H0x02590008_EffectLoop_05@CBasicEffect@@QAEHABVCEntityEvent@@@Z 1003ce50 f   BasicEffects.obj
 0001:0003bec0       ?H0x02590009_EffectLoop_06@CBasicEffect@@QAEHABVCEntityEvent@@@Z 1003cec0 f   BasicEffects.obj
 0001:0003bf80       ?H0x0259000a_EffectLoop_07@CBasicEffect@@QAEHABVCEntityEvent@@@Z 1003cf80 f   BasicEffects.obj
 0001:0003c000       ?H0x0259000b_EffectLoop_08@CBasicEffect@@QAEHABVCEntityEvent@@@Z 1003d000 f   BasicEffects.obj
 0001:0003c060       ?H0x0259000c_EffectLoop_09@CBasicEffect@@QAEHABVCEntityEvent@@@Z 1003d060 f   BasicEffects.obj
 0001:0003c110       ?H0x0259000d_EffectLoop_10@CBasicEffect@@QAEHABVCEntityEvent@@@Z 1003d110 f   BasicEffects.obj
 0001:0003c190       ?H0x0259000e_EffectLoop_11@CBasicEffect@@QAEHABVCEntityEvent@@@Z 1003d190 f   BasicEffects.obj
 0001:0003c1f0       ?H0x0259000f_EffectLoop_12@CBasicEffect@@QAEHABVCEntityEvent@@@Z 1003d1f0 f   BasicEffects.obj
 0001:0003c250       ?GetPredictionPair@CBasicEffect@@UAEPAVCEntity@@XZ 1003d250 f i BasicEffects.obj
 0001:0003c260       ?SetPredictionPair@CBasicEffect@@UAEXPAVCEntity@@@Z 1003d260 f i BasicEffects.obj
 0001:0003c2a0       ??_GCBasicEffect@@UAEPAXI@Z 1003d2a0 f i BasicEffects.obj
 0001:0003c2a0       ??_ECBasicEffect@@UAEPAXI@Z 1003d2a0 f i BasicEffects.obj
 0001:0003c2d0       ??1CBasicEffect@@UAE@XZ    1003d2d0 f i BasicEffects.obj
 0001:0003c920       ?CBirdCall_New@@YAPAVCEntity@@XZ 1003d920 f   BirdCall.obj
 0001:0003ca40       ?CBirdCall_OnInitClass@@YAXXZ 1003da40 f   BirdCall.obj
 0001:0003ca50       ?CBirdCall_OnEndClass@@YAXXZ 1003da50 f   BirdCall.obj
 0001:0003ca60       ?CBirdCall_OnPrecache@@YAXPAVCDLLEntityClass@@J@Z 1003da60 f   BirdCall.obj
 0001:0003ca70       ?CBirdCall_OnWorldEnd@@YAXPAVCWorld@@@Z 1003da70 f   BirdCall.obj
 0001:0003ca80       ?CBirdCall_OnWorldInit@@YAXPAVCWorld@@@Z 1003da80 f   BirdCall.obj
 0001:0003ca90       ?CBirdCall_OnWorldTick@@YAXPAVCWorld@@@Z 1003da90 f   BirdCall.obj
 0001:0003caa0       ?CBirdCall_OnWorldRender@@YAXPAVCWorld@@@Z 1003daa0 f   BirdCall.obj
 0001:0003cb70       ?MakeCopy@ECallMade@@UAEPAVCEntityEvent@@XZ 1003db70 f   BirdCall.obj
 0001:0003cc10       ??0ECallMade@@QAE@XZ       1003dc10 f   BirdCall.obj
 0001:0003cc80       ?SetDefaultProperties@CBirdCall@@UAEXXZ 1003dc80 f   BirdCall.obj
 0001:0003ce20       ?GetCallID@CBirdCall@@QAEJXZ 1003de20 f   BirdCall.obj
 0001:0003ce30       ?PlayCallSound@CBirdCall@@QAEXJ@Z 1003de30 f   BirdCall.obj
 0001:0003ceb0       ?UseCall@CBirdCall@@QAEXVCEntityPointer@@J@Z 1003deb0 f   BirdCall.obj
 0001:0003d120       ?SendCall@CBirdCall@@QAEXXZ 1003e120 f   BirdCall.obj
 0001:0003d300       ?LoadEasyCalls@CBirdCall@@QAEXXZ 1003e300 f   BirdCall.obj
 0001:0003d590       ?Main@CBirdCall@@QAEHABVCEntityEvent@@@Z 1003e590 f   BirdCall.obj
 0001:0003d5f0       ?GetName@CBirdCall@@UBEABVCTString@@XZ 1003e5f0 f i BirdCall.obj
 0001:0003d600       ??_GCBirdCall@@UAEPAXI@Z   1003e600 f i BirdCall.obj
 0001:0003d600       ??_ECBirdCall@@UAEPAXI@Z   1003e600 f i BirdCall.obj
 0001:0003d630       ??1CBirdCall@@UAE@XZ       1003e630 f i BirdCall.obj
 0001:0003d920       ?CBirdCallDoubleReed_New@@YAPAVCEntity@@XZ 1003e920 f   BirdCallDoubleReed.obj
 0001:0003da60       ?CBirdCallDoubleReed_OnEndClass@@YAXXZ 1003ea60 f   BirdCallDoubleReed.obj
 0001:0003da70       ?CBirdCallDoubleReed_OnPrecache@@YAXPAVCDLLEntityClass@@J@Z 1003ea70 f   BirdCallDoubleReed.obj
 0001:0003da80       ?CBirdCallDoubleReed_OnWorldEnd@@YAXPAVCWorld@@@Z 1003ea80 f   BirdCallDoubleReed.obj
 0001:0003da90       ?CBirdCallDoubleReed_OnWorldInit@@YAXPAVCWorld@@@Z 1003ea90 f   BirdCallDoubleReed.obj
 0001:0003daa0       ?CBirdCallDoubleReed_OnWorldTick@@YAXPAVCWorld@@@Z 1003eaa0 f   BirdCallDoubleReed.obj
 0001:0003dab0       ?CBirdCallDoubleReed_OnWorldRender@@YAXPAVCWorld@@@Z 1003eab0 f   BirdCallDoubleReed.obj
 0001:0003db10       ?CBirdCallDoubleReed_Precache@@YAXXZ 1003eb10 f   BirdCallDoubleReed.obj
 0001:0003db70       ?CBirdCallDoubleReed_OnInitClass@@YAXXZ 1003eb70 f   BirdCallDoubleReed.obj
 0001:0003db80       ?SetDefaultProperties@CBirdCallDoubleReed@@UAEXXZ 1003eb80 f   BirdCallDoubleReed.obj
 0001:0003dbc0       ?UseCall@CBirdCallDoubleReed@@QAEXVCEntityPointer@@J@Z 1003ebc0 f   BirdCallDoubleReed.obj
 0001:0003dd20       ?Main@CBirdCallDoubleReed@@QAEHABVCEntityEvent@@@Z 1003ed20 f   BirdCallDoubleReed.obj
 0001:0003ddc0       ?H0x7a1c0002_Main_03@CBirdCallDoubleReed@@QAEHABVCEntityEvent@@@Z 1003edc0 f   BirdCallDoubleReed.obj
 0001:0003de30       ?H0x7a1c0000_Main_01@CBirdCallDoubleReed@@QAEHABVCEntityEvent@@@Z 1003ee30 f   BirdCallDoubleReed.obj
 0001:0003df10       ?H0x7a1c0001_Main_02@CBirdCallDoubleReed@@QAEHABVCEntityEvent@@@Z 1003ef10 f   BirdCallDoubleReed.obj
 0001:0003df70       ?H0x7a1c0003_Main_04@CBirdCallDoubleReed@@QAEHABVCEntityEvent@@@Z 1003ef70 f   BirdCallDoubleReed.obj
 0001:0003dfd0       ?GetName@CBirdCallDoubleReed@@UBEABVCTString@@XZ 1003efd0 f i BirdCallDoubleReed.obj
 0001:0003dfe0       ??_ECBirdCallDoubleReed@@UAEPAXI@Z 1003efe0 f i BirdCallDoubleReed.obj
 0001:0003dfe0       ??_GCBirdCallDoubleReed@@UAEPAXI@Z 1003efe0 f i BirdCallDoubleReed.obj
 0001:0003e010       ??1CBirdCallDoubleReed@@UAE@XZ 1003f010 f i BirdCallDoubleReed.obj
 0001:0003e310       ?CBirdCallGooseFlute_New@@YAPAVCEntity@@XZ 1003f310 f   BirdCallGooseFlute.obj
 0001:0003e450       ?CBirdCallGooseFlute_OnEndClass@@YAXXZ 1003f450 f   BirdCallGooseFlute.obj
 0001:0003e460       ?CBirdCallGooseFlute_OnPrecache@@YAXPAVCDLLEntityClass@@J@Z 1003f460 f   BirdCallGooseFlute.obj
 0001:0003e470       ?CBirdCallGooseFlute_OnWorldEnd@@YAXPAVCWorld@@@Z 1003f470 f   BirdCallGooseFlute.obj
 0001:0003e480       ?CBirdCallGooseFlute_OnWorldInit@@YAXPAVCWorld@@@Z 1003f480 f   BirdCallGooseFlute.obj
 0001:0003e490       ?CBirdCallGooseFlute_OnWorldTick@@YAXPAVCWorld@@@Z 1003f490 f   BirdCallGooseFlute.obj
 0001:0003e4a0       ?CBirdCallGooseFlute_OnWorldRender@@YAXPAVCWorld@@@Z 1003f4a0 f   BirdCallGooseFlute.obj
 0001:0003e500       ?CBirdCallGooseFlute_Precache@@YAXXZ 1003f500 f   BirdCallGooseFlute.obj
 0001:0003e560       ?CBirdCallGooseFlute_OnInitClass@@YAXXZ 1003f560 f   BirdCallGooseFlute.obj
 0001:0003e570       ?SetDefaultProperties@CBirdCallGooseFlute@@UAEXXZ 1003f570 f   BirdCallGooseFlute.obj
 0001:0003e5b0       ?UseCall@CBirdCallGooseFlute@@QAEXVCEntityPointer@@J@Z 1003f5b0 f   BirdCallGooseFlute.obj
 0001:0003e710       ?Main@CBirdCallGooseFlute@@QAEHABVCEntityEvent@@@Z 1003f710 f   BirdCallGooseFlute.obj
 0001:0003e7b0       ?H0x7a1f0002_Main_03@CBirdCallGooseFlute@@QAEHABVCEntityEvent@@@Z 1003f7b0 f   BirdCallGooseFlute.obj
 0001:0003e820       ?H0x7a1f0000_Main_01@CBirdCallGooseFlute@@QAEHABVCEntityEvent@@@Z 1003f820 f   BirdCallGooseFlute.obj
 0001:0003e900       ?H0x7a1f0001_Main_02@CBirdCallGooseFlute@@QAEHABVCEntityEvent@@@Z 1003f900 f   BirdCallGooseFlute.obj
 0001:0003e960       ?H0x7a1f0003_Main_04@CBirdCallGooseFlute@@QAEHABVCEntityEvent@@@Z 1003f960 f   BirdCallGooseFlute.obj
 0001:0003e9c0       ?GetName@CBirdCallGooseFlute@@UBEABVCTString@@XZ 1003f9c0 f i BirdCallGooseFlute.obj
 0001:0003e9d0       ??_ECBirdCallGooseFlute@@UAEPAXI@Z 1003f9d0 f i BirdCallGooseFlute.obj
 0001:0003e9d0       ??_GCBirdCallGooseFlute@@UAEPAXI@Z 1003f9d0 f i BirdCallGooseFlute.obj
 0001:0003ea00       ??1CBirdCallGooseFlute@@UAE@XZ 1003fa00 f i BirdCallGooseFlute.obj
 0001:0003ed00       ?CBirdCallPintailWhistle_New@@YAPAVCEntity@@XZ 1003fd00 f   BirdCallPintailWhistle.obj
 0001:0003ee40       ?CBirdCallPintailWhistle_OnEndClass@@YAXXZ 1003fe40 f   BirdCallPintailWhistle.obj
 0001:0003ee50       ?CBirdCallPintailWhistle_OnPrecache@@YAXPAVCDLLEntityClass@@J@Z 1003fe50 f   BirdCallPintailWhistle.obj
 0001:0003ee60       ?CBirdCallPintailWhistle_OnWorldEnd@@YAXPAVCWorld@@@Z 1003fe60 f   BirdCallPintailWhistle.obj
 0001:0003ee70       ?CBirdCallPintailWhistle_OnWorldInit@@YAXPAVCWorld@@@Z 1003fe70 f   BirdCallPintailWhistle.obj
 0001:0003ee80       ?CBirdCallPintailWhistle_OnWorldTick@@YAXPAVCWorld@@@Z 1003fe80 f   BirdCallPintailWhistle.obj
 0001:0003ee90       ?CBirdCallPintailWhistle_OnWorldRender@@YAXPAVCWorld@@@Z 1003fe90 f   BirdCallPintailWhistle.obj
 0001:0003eef0       ?CBirdCallPintailWhistle_Precache@@YAXXZ 1003fef0 f   BirdCallPintailWhistle.obj
 0001:0003ef50       ?CBirdCallPintailWhistle_OnInitClass@@YAXXZ 1003ff50 f   BirdCallPintailWhistle.obj
 0001:0003ef60       ?SetDefaultProperties@CBirdCallPintailWhistle@@UAEXXZ 1003ff60 f   BirdCallPintailWhistle.obj
 0001:0003efa0       ?UseCall@CBirdCallPintailWhistle@@QAEXVCEntityPointer@@J@Z 1003ffa0 f   BirdCallPintailWhistle.obj
 0001:0003f100       ?Main@CBirdCallPintailWhistle@@QAEHABVCEntityEvent@@@Z 10040100 f   BirdCallPintailWhistle.obj
 0001:0003f1a0       ?H0x7a1e0002_Main_03@CBirdCallPintailWhistle@@QAEHABVCEntityEvent@@@Z 100401a0 f   BirdCallPintailWhistle.obj
 0001:0003f210       ?H0x7a1e0000_Main_01@CBirdCallPintailWhistle@@QAEHABVCEntityEvent@@@Z 10040210 f   BirdCallPintailWhistle.obj
 0001:0003f2f0       ?H0x7a1e0001_Main_02@CBirdCallPintailWhistle@@QAEHABVCEntityEvent@@@Z 100402f0 f   BirdCallPintailWhistle.obj
 0001:0003f350       ?H0x7a1e0003_Main_04@CBirdCallPintailWhistle@@QAEHABVCEntityEvent@@@Z 10040350 f   BirdCallPintailWhistle.obj
 0001:0003f3b0       ?GetName@CBirdCallPintailWhistle@@UBEABVCTString@@XZ 100403b0 f i BirdCallPintailWhistle.obj
 0001:0003f3c0       ??_ECBirdCallPintailWhistle@@UAEPAXI@Z 100403c0 f i BirdCallPintailWhistle.obj
 0001:0003f3c0       ??_GCBirdCallPintailWhistle@@UAEPAXI@Z 100403c0 f i BirdCallPintailWhistle.obj
 0001:0003f3f0       ??1CBirdCallPintailWhistle@@UAE@XZ 100403f0 f i BirdCallPintailWhistle.obj
 0001:0003f6f0       ?CBirdCallSingleReed_New@@YAPAVCEntity@@XZ 100406f0 f   BirdCallSingleReed.obj
 0001:0003f830       ?CBirdCallSingleReed_OnEndClass@@YAXXZ 10040830 f   BirdCallSingleReed.obj
 0001:0003f840       ?CBirdCallSingleReed_OnPrecache@@YAXPAVCDLLEntityClass@@J@Z 10040840 f   BirdCallSingleReed.obj
 0001:0003f850       ?CBirdCallSingleReed_OnWorldEnd@@YAXPAVCWorld@@@Z 10040850 f   BirdCallSingleReed.obj
 0001:0003f860       ?CBirdCallSingleReed_OnWorldInit@@YAXPAVCWorld@@@Z 10040860 f   BirdCallSingleReed.obj
 0001:0003f870       ?CBirdCallSingleReed_OnWorldTick@@YAXPAVCWorld@@@Z 10040870 f   BirdCallSingleReed.obj
 0001:0003f880       ?CBirdCallSingleReed_OnWorldRender@@YAXPAVCWorld@@@Z 10040880 f   BirdCallSingleReed.obj
 0001:0003f8e0       ?CBirdCallSingleReed_Precache@@YAXXZ 100408e0 f   BirdCallSingleReed.obj
 0001:0003f940       ?CBirdCallSingleReed_OnInitClass@@YAXXZ 10040940 f   BirdCallSingleReed.obj
 0001:0003f950       ?SetDefaultProperties@CBirdCallSingleReed@@UAEXXZ 10040950 f   BirdCallSingleReed.obj
 0001:0003f990       ?UseCall@CBirdCallSingleReed@@QAEXVCEntityPointer@@J@Z 10040990 f   BirdCallSingleReed.obj
 0001:0003faf0       ?Main@CBirdCallSingleReed@@QAEHABVCEntityEvent@@@Z 10040af0 f   BirdCallSingleReed.obj
 0001:0003fb90       ?H0x7a1b0002_Main_03@CBirdCallSingleReed@@QAEHABVCEntityEvent@@@Z 10040b90 f   BirdCallSingleReed.obj
 0001:0003fc00       ?H0x7a1b0000_Main_01@CBirdCallSingleReed@@QAEHABVCEntityEvent@@@Z 10040c00 f   BirdCallSingleReed.obj
 0001:0003fce0       ?H0x7a1b0001_Main_02@CBirdCallSingleReed@@QAEHABVCEntityEvent@@@Z 10040ce0 f   BirdCallSingleReed.obj
 0001:0003fd40       ?H0x7a1b0003_Main_04@CBirdCallSingleReed@@QAEHABVCEntityEvent@@@Z 10040d40 f   BirdCallSingleReed.obj
 0001:0003fda0       ?GetName@CBirdCallSingleReed@@UBEABVCTString@@XZ 10040da0 f i BirdCallSingleReed.obj
 0001:0003fdb0       ??_ECBirdCallSingleReed@@UAEPAXI@Z 10040db0 f i BirdCallSingleReed.obj
 0001:0003fdb0       ??_GCBirdCallSingleReed@@UAEPAXI@Z 10040db0 f i BirdCallSingleReed.obj
 0001:0003fde0       ??1CBirdCallSingleReed@@UAE@XZ 10040de0 f i BirdCallSingleReed.obj
 0001:000400e0       ?CBirdCallTealWhistle_New@@YAPAVCEntity@@XZ 100410e0 f   BirdCallTealWhistle.obj
 0001:00040220       ?CBirdCallTealWhistle_OnEndClass@@YAXXZ 10041220 f   BirdCallTealWhistle.obj
 0001:00040230       ?CBirdCallTealWhistle_OnPrecache@@YAXPAVCDLLEntityClass@@J@Z 10041230 f   BirdCallTealWhistle.obj
 0001:00040240       ?CBirdCallTealWhistle_OnWorldEnd@@YAXPAVCWorld@@@Z 10041240 f   BirdCallTealWhistle.obj
 0001:00040250       ?CBirdCallTealWhistle_OnWorldInit@@YAXPAVCWorld@@@Z 10041250 f   BirdCallTealWhistle.obj
 0001:00040260       ?CBirdCallTealWhistle_OnWorldTick@@YAXPAVCWorld@@@Z 10041260 f   BirdCallTealWhistle.obj
 0001:00040270       ?CBirdCallTealWhistle_OnWorldRender@@YAXPAVCWorld@@@Z 10041270 f   BirdCallTealWhistle.obj
 0001:000402d0       ?CBirdCallTealWhistle_Precache@@YAXXZ 100412d0 f   BirdCallTealWhistle.obj
 0001:00040330       ?CBirdCallTealWhistle_OnInitClass@@YAXXZ 10041330 f   BirdCallTealWhistle.obj
 0001:00040340       ?SetDefaultProperties@CBirdCallTealWhistle@@UAEXXZ 10041340 f   BirdCallTealWhistle.obj
 0001:00040380       ?UseCall@CBirdCallTealWhistle@@QAEXVCEntityPointer@@J@Z 10041380 f   BirdCallTealWhistle.obj
 0001:000404e0       ?Main@CBirdCallTealWhistle@@QAEHABVCEntityEvent@@@Z 100414e0 f   BirdCallTealWhistle.obj
 0001:00040580       ?H0x7a1d0002_Main_03@CBirdCallTealWhistle@@QAEHABVCEntityEvent@@@Z 10041580 f   BirdCallTealWhistle.obj
 0001:000405f0       ?H0x7a1d0000_Main_01@CBirdCallTealWhistle@@QAEHABVCEntityEvent@@@Z 100415f0 f   BirdCallTealWhistle.obj
 0001:000406d0       ?H0x7a1d0001_Main_02@CBirdCallTealWhistle@@QAEHABVCEntityEvent@@@Z 100416d0 f   BirdCallTealWhistle.obj
 0001:00040730       ?H0x7a1d0003_Main_04@CBirdCallTealWhistle@@QAEHABVCEntityEvent@@@Z 10041730 f   BirdCallTealWhistle.obj
 0001:00040790       ?GetName@CBirdCallTealWhistle@@UBEABVCTString@@XZ 10041790 f i BirdCallTealWhistle.obj
 0001:000407a0       ??_ECBirdCallTealWhistle@@UAEPAXI@Z 100417a0 f i BirdCallTealWhistle.obj
 0001:000407a0       ??_GCBirdCallTealWhistle@@UAEPAXI@Z 100417a0 f i BirdCallTealWhistle.obj
 0001:000407d0       ??1CBirdCallTealWhistle@@UAE@XZ 100417d0 f i BirdCallTealWhistle.obj
 0001:00040ad0       ?CBirdCallTurkeyBox_New@@YAPAVCEntity@@XZ 10041ad0 f   BirdCallTurkeyBox.obj
 0001:00040c10       ?CBirdCallTurkeyBox_OnEndClass@@YAXXZ 10041c10 f   BirdCallTurkeyBox.obj
 0001:00040c20       ?CBirdCallTurkeyBox_OnPrecache@@YAXPAVCDLLEntityClass@@J@Z 10041c20 f   BirdCallTurkeyBox.obj
 0001:00040c30       ?CBirdCallTurkeyBox_OnWorldEnd@@YAXPAVCWorld@@@Z 10041c30 f   BirdCallTurkeyBox.obj
 0001:00040c40       ?CBirdCallTurkeyBox_OnWorldInit@@YAXPAVCWorld@@@Z 10041c40 f   BirdCallTurkeyBox.obj
 0001:00040c50       ?CBirdCallTurkeyBox_OnWorldTick@@YAXPAVCWorld@@@Z 10041c50 f   BirdCallTurkeyBox.obj
 0001:00040c60       ?CBirdCallTurkeyBox_OnWorldRender@@YAXPAVCWorld@@@Z 10041c60 f   BirdCallTurkeyBox.obj
 0001:00040cc0       ?CBirdCallTurkeyBox_Precache@@YAXXZ 10041cc0 f   BirdCallTurkeyBox.obj
 0001:00040d20       ?CBirdCallTurkeyBox_OnInitClass@@YAXXZ 10041d20 f   BirdCallTurkeyBox.obj
 0001:00040d30       ?SetDefaultProperties@CBirdCallTurkeyBox@@UAEXXZ 10041d30 f   BirdCallTurkeyBox.obj
 0001:00040d70       ?UseCall@CBirdCallTurkeyBox@@QAEXVCEntityPointer@@J@Z 10041d70 f   BirdCallTurkeyBox.obj
 0001:00040ed0       ?Main@CBirdCallTurkeyBox@@QAEHABVCEntityEvent@@@Z 10041ed0 f   BirdCallTurkeyBox.obj
 0001:00040f70       ?H0x7a200002_Main_03@CBirdCallTurkeyBox@@QAEHABVCEntityEvent@@@Z 10041f70 f   BirdCallTurkeyBox.obj
 0001:00040fe0       ?H0x7a200000_Main_01@CBirdCallTurkeyBox@@QAEHABVCEntityEvent@@@Z 10041fe0 f   BirdCallTurkeyBox.obj
 0001:000410c0       ?H0x7a200001_Main_02@CBirdCallTurkeyBox@@QAEHABVCEntityEvent@@@Z 100420c0 f   BirdCallTurkeyBox.obj
 0001:00041120       ?H0x7a200003_Main_04@CBirdCallTurkeyBox@@QAEHABVCEntityEvent@@@Z 10042120 f   BirdCallTurkeyBox.obj
 0001:00041180       ?GetName@CBirdCallTurkeyBox@@UBEABVCTString@@XZ 10042180 f i BirdCallTurkeyBox.obj
 0001:00041190       ??_GCBirdCallTurkeyBox@@UAEPAXI@Z 10042190 f i BirdCallTurkeyBox.obj
 0001:00041190       ??_ECBirdCallTurkeyBox@@UAEPAXI@Z 10042190 f i BirdCallTurkeyBox.obj
 0001:000411c0       ??1CBirdCallTurkeyBox@@UAE@XZ 100421c0 f i BirdCallTurkeyBox.obj
 0001:000414c0       ?CBirdCallTurkeyDiaph_New@@YAPAVCEntity@@XZ 100424c0 f   BirdCallTurkeyDiaph.obj
 0001:00041600       ?CBirdCallTurkeyDiaph_OnEndClass@@YAXXZ 10042600 f   BirdCallTurkeyDiaph.obj
 0001:00041610       ?CBirdCallTurkeyDiaph_OnPrecache@@YAXPAVCDLLEntityClass@@J@Z 10042610 f   BirdCallTurkeyDiaph.obj
 0001:00041620       ?CBirdCallTurkeyDiaph_OnWorldEnd@@YAXPAVCWorld@@@Z 10042620 f   BirdCallTurkeyDiaph.obj
 0001:00041630       ?CBirdCallTurkeyDiaph_OnWorldInit@@YAXPAVCWorld@@@Z 10042630 f   BirdCallTurkeyDiaph.obj
 0001:00041640       ?CBirdCallTurkeyDiaph_OnWorldTick@@YAXPAVCWorld@@@Z 10042640 f   BirdCallTurkeyDiaph.obj
 0001:00041650       ?CBirdCallTurkeyDiaph_OnWorldRender@@YAXPAVCWorld@@@Z 10042650 f   BirdCallTurkeyDiaph.obj
 0001:000416b0       ?CBirdCallTurkeyDiaph_Precache@@YAXXZ 100426b0 f   BirdCallTurkeyDiaph.obj
 0001:00041710       ?CBirdCallTurkeyDiaph_OnInitClass@@YAXXZ 10042710 f   BirdCallTurkeyDiaph.obj
 0001:00041720       ?SetDefaultProperties@CBirdCallTurkeyDiaph@@UAEXXZ 10042720 f   BirdCallTurkeyDiaph.obj
 0001:00041760       ?UseCall@CBirdCallTurkeyDiaph@@QAEXVCEntityPointer@@J@Z 10042760 f   BirdCallTurkeyDiaph.obj
 0001:000418c0       ?Main@CBirdCallTurkeyDiaph@@QAEHABVCEntityEvent@@@Z 100428c0 f   BirdCallTurkeyDiaph.obj
 0001:00041960       ?H0x7a220002_Main_03@CBirdCallTurkeyDiaph@@QAEHABVCEntityEvent@@@Z 10042960 f   BirdCallTurkeyDiaph.obj
 0001:000419d0       ?H0x7a220000_Main_01@CBirdCallTurkeyDiaph@@QAEHABVCEntityEvent@@@Z 100429d0 f   BirdCallTurkeyDiaph.obj
 0001:00041ab0       ?H0x7a220001_Main_02@CBirdCallTurkeyDiaph@@QAEHABVCEntityEvent@@@Z 10042ab0 f   BirdCallTurkeyDiaph.obj
 0001:00041b10       ?H0x7a220003_Main_04@CBirdCallTurkeyDiaph@@QAEHABVCEntityEvent@@@Z 10042b10 f   BirdCallTurkeyDiaph.obj
 0001:00041b70       ?GetName@CBirdCallTurkeyDiaph@@UBEABVCTString@@XZ 10042b70 f i BirdCallTurkeyDiaph.obj
 0001:00041b80       ??_ECBirdCallTurkeyDiaph@@UAEPAXI@Z 10042b80 f i BirdCallTurkeyDiaph.obj
 0001:00041b80       ??_GCBirdCallTurkeyDiaph@@UAEPAXI@Z 10042b80 f i BirdCallTurkeyDiaph.obj
 0001:00041bb0       ??1CBirdCallTurkeyDiaph@@UAE@XZ 10042bb0 f i BirdCallTurkeyDiaph.obj
 0001:00041eb0       ?CBirdCallTurkeySlate_New@@YAPAVCEntity@@XZ 10042eb0 f   BirdCallTurkeySlate.obj
 0001:00041ff0       ?CBirdCallTurkeySlate_OnEndClass@@YAXXZ 10042ff0 f   BirdCallTurkeySlate.obj
 0001:00042000       ?CBirdCallTurkeySlate_OnPrecache@@YAXPAVCDLLEntityClass@@J@Z 10043000 f   BirdCallTurkeySlate.obj
 0001:00042010       ?CBirdCallTurkeySlate_OnWorldEnd@@YAXPAVCWorld@@@Z 10043010 f   BirdCallTurkeySlate.obj
 0001:00042020       ?CBirdCallTurkeySlate_OnWorldInit@@YAXPAVCWorld@@@Z 10043020 f   BirdCallTurkeySlate.obj
 0001:00042030       ?CBirdCallTurkeySlate_OnWorldTick@@YAXPAVCWorld@@@Z 10043030 f   BirdCallTurkeySlate.obj
 0001:00042040       ?CBirdCallTurkeySlate_OnWorldRender@@YAXPAVCWorld@@@Z 10043040 f   BirdCallTurkeySlate.obj
 0001:000420a0       ?CBirdCallTurkeySlate_Precache@@YAXXZ 100430a0 f   BirdCallTurkeySlate.obj
 0001:00042100       ?CBirdCallTurkeySlate_OnInitClass@@YAXXZ 10043100 f   BirdCallTurkeySlate.obj
 0001:00042110       ?SetDefaultProperties@CBirdCallTurkeySlate@@UAEXXZ 10043110 f   BirdCallTurkeySlate.obj
 0001:00042150       ?UseCall@CBirdCallTurkeySlate@@QAEXVCEntityPointer@@J@Z 10043150 f   BirdCallTurkeySlate.obj
 0001:000422b0       ?Main@CBirdCallTurkeySlate@@QAEHABVCEntityEvent@@@Z 100432b0 f   BirdCallTurkeySlate.obj
 0001:00042350       ?H0x7a210002_Main_03@CBirdCallTurkeySlate@@QAEHABVCEntityEvent@@@Z 10043350 f   BirdCallTurkeySlate.obj
 0001:000423c0       ?H0x7a210000_Main_01@CBirdCallTurkeySlate@@QAEHABVCEntityEvent@@@Z 100433c0 f   BirdCallTurkeySlate.obj
 0001:000424a0       ?H0x7a210001_Main_02@CBirdCallTurkeySlate@@QAEHABVCEntityEvent@@@Z 100434a0 f   BirdCallTurkeySlate.obj
 0001:00042500       ?H0x7a210003_Main_04@CBirdCallTurkeySlate@@QAEHABVCEntityEvent@@@Z 10043500 f   BirdCallTurkeySlate.obj
 0001:00042560       ?GetName@CBirdCallTurkeySlate@@UBEABVCTString@@XZ 10043560 f i BirdCallTurkeySlate.obj
 0001:00042570       ??_GCBirdCallTurkeySlate@@UAEPAXI@Z 10043570 f i BirdCallTurkeySlate.obj
 0001:00042570       ??_ECBirdCallTurkeySlate@@UAEPAXI@Z 10043570 f i BirdCallTurkeySlate.obj
 0001:000425a0       ??1CBirdCallTurkeySlate@@UAE@XZ 100435a0 f i BirdCallTurkeySlate.obj
 0001:000426e0       ?ClearToDefault@@YAXAAW4DecoyPlace@@@Z 100436e0 f i BirdDecoy.obj
 0001:000426f0       ??0EDecoyStart@@QAE@ABV0@@Z 100436f0 f i BirdDecoy.obj
 0001:00042740       ??4EDecoyStart@@QAEAAV0@ABV0@@Z 10043740 f i BirdDecoy.obj
 0001:000427a0       ??1EDecoyStart@@UAE@XZ     100437a0 f i BirdDecoy.obj
 0001:00042830       ??_GEDecoyStart@@UAEPAXI@Z 10043830 f i BirdDecoy.obj
 0001:00042860       ??_EEDecoyStart@@UAEPAXI@Z 10043860 f i BirdDecoy.obj
 0001:000428c0       ?ClearToDefault@@YAXAAVEDecoyStart@@@Z 100438c0 f i BirdDecoy.obj
 0001:00042cd0       ?CBirdDecoy_New@@YAPAVCEntity@@XZ 10043cd0 f   BirdDecoy.obj
 0001:00042d70       ?CBirdDecoy_OnInitClass@@YAXXZ 10043d70 f   BirdDecoy.obj
 0001:00042d80       ?CBirdDecoy_OnEndClass@@YAXXZ 10043d80 f   BirdDecoy.obj
 0001:00042d90       ?CBirdDecoy_OnPrecache@@YAXPAVCDLLEntityClass@@J@Z 10043d90 f   BirdDecoy.obj
 0001:00042da0       ?CBirdDecoy_OnWorldEnd@@YAXPAVCWorld@@@Z 10043da0 f   BirdDecoy.obj
 0001:00042db0       ?CBirdDecoy_OnWorldInit@@YAXPAVCWorld@@@Z 10043db0 f   BirdDecoy.obj
 0001:00042dc0       ?CBirdDecoy_OnWorldTick@@YAXPAVCWorld@@@Z 10043dc0 f   BirdDecoy.obj
 0001:00042dd0       ?CBirdDecoy_OnWorldRender@@YAXPAVCWorld@@@Z 10043dd0 f   BirdDecoy.obj
 0001:00042ea0       ?MakeCopy@EDecoyStart@@UAEPAVCEntityEvent@@XZ 10043ea0 f   BirdDecoy.obj
 0001:00042ef0       ??0EDecoyStart@@QAE@XZ     10043ef0 f   BirdDecoy.obj
 0001:00042f60       ?SetDefaultProperties@CBirdDecoy@@UAEXXZ 10043f60 f   BirdDecoy.obj
 0001:00043020       ?Precache@CBirdDecoy@@UAEXXZ 10044020 f   BirdDecoy.obj
 0001:00043040       ?SetupDecoy@CBirdDecoy@@QAEXVEDecoyStart@@@Z 10044040 f   BirdDecoy.obj
 0001:00043720       ?Main@CBirdDecoy@@QAEHABVCEntityEvent@@@Z 10044720 f   BirdDecoy.obj
 0001:000437f0       ?H0x7a230003_Main_03@CBirdDecoy@@QAEHABVCEntityEvent@@@Z 100447f0 f   BirdDecoy.obj
 0001:00043880       ?H0x7a230001_Main_01@CBirdDecoy@@QAEHABVCEntityEvent@@@Z 10044880 f   BirdDecoy.obj
 0001:00043a60       ?H0x7a230002_Main_02@CBirdDecoy@@QAEHABVCEntityEvent@@@Z 10044a60 f   BirdDecoy.obj
 0001:00043ac0       ?H0x7a230004_Main_04@CBirdDecoy@@QAEHABVCEntityEvent@@@Z 10044ac0 f   BirdDecoy.obj
 0001:00043b20       ?GetName@CBirdDecoy@@UBEABVCTString@@XZ 10044b20 f i BirdDecoy.obj
 0001:00043b30       ??_GCBirdDecoy@@UAEPAXI@Z  10044b30 f i BirdDecoy.obj
 0001:00043b30       ??_ECBirdDecoy@@UAEPAXI@Z  10044b30 f i BirdDecoy.obj
 0001:00043b60       ??1CBirdDecoy@@UAE@XZ      10044b60 f i BirdDecoy.obj
 0001:00043c40       ?ClearToDefault@@YAXAAW4BlendControllerType@@@Z 10044c40 f i BlendController.obj
 0001:00043d20       ?CBlendController_New@@YAPAVCEntity@@XZ 10044d20 f   BlendController.obj
 0001:00043dc0       ?CBlendController_OnInitClass@@YAXXZ 10044dc0 f   BlendController.obj
 0001:00043dd0       ?CBlendController_OnEndClass@@YAXXZ 10044dd0 f   BlendController.obj
 0001:00043de0       ?CBlendController_OnPrecache@@YAXPAVCDLLEntityClass@@J@Z 10044de0 f   BlendController.obj
 0001:00043df0       ?CBlendController_OnWorldEnd@@YAXPAVCWorld@@@Z 10044df0 f   BlendController.obj
 0001:00043e00       ?CBlendController_OnWorldInit@@YAXPAVCWorld@@@Z 10044e00 f   BlendController.obj
 0001:00043e10       ?CBlendController_OnWorldTick@@YAXPAVCWorld@@@Z 10044e10 f   BlendController.obj
 0001:00043e20       ?CBlendController_OnWorldRender@@YAXPAVCWorld@@@Z 10044e20 f   BlendController.obj
 0001:00043e80       ?SetDefaultProperties@CBlendController@@UAEXXZ 10044e80 f   BlendController.obj
 0001:00043e90       ?GetWSC@CBlendController@@QAEPAVCWorldSettingsController@@XZ 10044e90 f   BlendController.obj
 0001:00043eb0       ?HandleEvent@CBlendController@@UAEHABVCEntityEvent@@@Z 10044eb0 f   BlendController.obj
 0001:00044000       ?Main@CBlendController@@QAEHABVCEntityEvent@@@Z 10045000 f   BlendController.obj
 0001:00044060       ?IsImportant@CBlendController@@UBEHXZ 10045060 f i BlendController.obj
 0001:00044070       ??_GCBlendController@@UAEPAXI@Z 10045070 f i BlendController.obj
 0001:00044070       ??_ECBlendController@@UAEPAXI@Z 10045070 f i BlendController.obj
 0001:000440a0       ??1CBlendController@@UAE@XZ 100450a0 f i BlendController.obj
 0001:00044450       ?CBlind_New@@YAPAVCEntity@@XZ 10045450 f   Blind.obj
 0001:00044510       ?CBlind_OnInitClass@@YAXXZ 10045510 f   Blind.obj
 0001:00044520       ?CBlind_OnEndClass@@YAXXZ  10045520 f   Blind.obj
 0001:00044530       ?CBlind_OnPrecache@@YAXPAVCDLLEntityClass@@J@Z 10045530 f   Blind.obj
 0001:00044540       ?CBlind_OnWorldEnd@@YAXPAVCWorld@@@Z 10045540 f   Blind.obj
 0001:00044550       ?CBlind_OnWorldInit@@YAXPAVCWorld@@@Z 10045550 f   Blind.obj
 0001:00044560       ?CBlind_OnWorldTick@@YAXPAVCWorld@@@Z 10045560 f   Blind.obj
 0001:00044570       ?CBlind_OnWorldRender@@YAXPAVCWorld@@@Z 10045570 f   Blind.obj
 0001:00044640       ?SetDefaultProperties@CBlind@@UAEXXZ 10045640 f   Blind.obj
 0001:000447b0       ?GetType@CBlind@@UAEJXZ    100457b0 f   Blind.obj
 0001:000447c0       ?OpenBlind@CBlind@@QAEXXZ  100457c0 f   Blind.obj
 0001:00044830       ?CloseBlind@CBlind@@QAEXXZ 10045830 f   Blind.obj
 0001:000448a0       ?SetupAnims@CBlind@@QAEXXZ 100458a0 f   Blind.obj
 0001:00044900       ?Activated@CBlind@@QAEXVCEntityPointer@@@Z 10045900 f   Blind.obj
 0001:00044c90       ?Main@CBlind@@QAEHABVCEntityEvent@@@Z 10045c90 f   Blind.obj
 0001:00044d90       ?H0x7a180000_Main_01@CBlind@@QAEHABVCEntityEvent@@@Z 10045d90 f   Blind.obj
 0001:00044e10       ?H0x7a180001_Main_02@CBlind@@QAEHABVCEntityEvent@@@Z 10045e10 f   Blind.obj
 0001:00044ea0       ?H0x7a180002_Main_03@CBlind@@QAEHABVCEntityEvent@@@Z 10045ea0 f   Blind.obj
 0001:00044f60       ?H0x7a180003_Main_04@CBlind@@QAEHABVCEntityEvent@@@Z 10045f60 f   Blind.obj
 0001:00044fc0       ?GetName@CBlind@@UBEABVCTString@@XZ 10045fc0 f i Blind.obj
 0001:00044fd0       ?IsTargetable@CBlind@@UBEHXZ 10045fd0 f i Blind.obj
 0001:00044fe0       ??_GCBlind@@UAEPAXI@Z      10045fe0 f i Blind.obj
 0001:00044fe0       ??_ECBlind@@UAEPAXI@Z      10045fe0 f i Blind.obj
 0001:00045010       ??1CBlind@@UAE@XZ          10046010 f i Blind.obj
 0001:000453a0       ?CBloodSpray_New@@YAPAVCEntity@@XZ 100463a0 f   BloodSpray.obj
 0001:00045440       ?CBloodSpray_OnInitClass@@YAXXZ 10046440 f   BloodSpray.obj
 0001:00045450       ?CBloodSpray_OnEndClass@@YAXXZ 10046450 f   BloodSpray.obj
 0001:00045460       ?CBloodSpray_OnPrecache@@YAXPAVCDLLEntityClass@@J@Z 10046460 f   BloodSpray.obj
 0001:00045470       ?CBloodSpray_OnWorldEnd@@YAXPAVCWorld@@@Z 10046470 f   BloodSpray.obj
 0001:00045480       ?CBloodSpray_OnWorldInit@@YAXPAVCWorld@@@Z 10046480 f   BloodSpray.obj
 0001:00045490       ?CBloodSpray_OnWorldTick@@YAXPAVCWorld@@@Z 10046490 f   BloodSpray.obj
 0001:000454a0       ?CBloodSpray_OnWorldRender@@YAXPAVCWorld@@@Z 100464a0 f   BloodSpray.obj
 0001:00045570       ?MakeCopy@ESpawnSpray@@UAEPAVCEntityEvent@@XZ 10046570 f   BloodSpray.obj
 0001:000455e0       ??0ESpawnSpray@@QAE@XZ     100465e0 f   BloodSpray.obj
 0001:00045670       ?SetDefaultProperties@CBloodSpray@@UAEXXZ 10046670 f   BloodSpray.obj
 0001:00045780       ?RenderParticles@CBloodSpray@@UAEXXZ 10046780 f   BloodSpray.obj
 0001:00045910       ?Main@CBloodSpray@@QAEHABVCEntityEvent@@@Z 10046910 f   BloodSpray.obj
 0001:00045b60       ?H0x025b0001_Main_01@CBloodSpray@@QAEHABVCEntityEvent@@@Z 10046b60 f   BloodSpray.obj
 0001:00045be0       ?H0x025b0002_Main_02@CBloodSpray@@QAEHABVCEntityEvent@@@Z 10046be0 f   BloodSpray.obj
 0001:00045c40       ?GetPredictionPair@CBloodSpray@@UAEPAVCEntity@@XZ 10046c40 f i BloodSpray.obj
 0001:00045c50       ?SetPredictionPair@CBloodSpray@@UAEXPAVCEntity@@@Z 10046c50 f i BloodSpray.obj
 0001:00045c90       ??_GCBloodSpray@@UAEPAXI@Z 10046c90 f i BloodSpray.obj
 0001:00045c90       ??_ECBloodSpray@@UAEPAXI@Z 10046c90 f i BloodSpray.obj
 0001:00045cc0       ??1CBloodSpray@@UAE@XZ     10046cc0 f i BloodSpray.obj
 0001:00045d90       ??0EBoatStart@@QAE@ABV0@@Z 10046d90 f i Boat.obj
 0001:00045dc0       ??4EBoatStart@@QAEAAV0@ABV0@@Z 10046dc0 f i Boat.obj
 0001:00045e00       ??1EBoatStart@@UAE@XZ      10046e00 f i Boat.obj
 0001:00045e90       ??_GEBoatStart@@UAEPAXI@Z  10046e90 f i Boat.obj
 0001:00045ec0       ??_EEBoatStart@@UAEPAXI@Z  10046ec0 f i Boat.obj
 0001:00045f20       ?ClearToDefault@@YAXAAVEBoatStart@@@Z 10046f20 f i Boat.obj
 0001:00045fc0       ??0EBoatStop@@QAE@ABV0@@Z  10046fc0 f i Boat.obj
 0001:00045fe0       ??4EBoatStop@@QAEAAV0@ABV0@@Z 10046fe0 f i Boat.obj
 0001:00046000       ??1EBoatStop@@UAE@XZ       10047000 f i Boat.obj
 0001:00046010       ??_GEBoatStop@@UAEPAXI@Z   10047010 f i Boat.obj
 0001:00046040       ??_EEBoatStop@@UAEPAXI@Z   10047040 f i Boat.obj
 0001:000460a0       ?ClearToDefault@@YAXAAVEBoatStop@@@Z 100470a0 f i Boat.obj
 0001:000460c0       ??0EBoatClicked@@QAE@ABV0@@Z 100470c0 f i Boat.obj
 0001:000460f0       ??4EBoatClicked@@QAEAAV0@ABV0@@Z 100470f0 f i Boat.obj
 0001:00046130       ??1EBoatClicked@@UAE@XZ    10047130 f i Boat.obj
 0001:000461c0       ??_GEBoatClicked@@UAEPAXI@Z 100471c0 f i Boat.obj
 0001:000461f0       ??_EEBoatClicked@@UAEPAXI@Z 100471f0 f i Boat.obj
 0001:00046250       ?ClearToDefault@@YAXAAVEBoatClicked@@@Z 10047250 f i Boat.obj
 0001:000462f0       ?ClearToDefault@@YAXAAW4BoatBlindState@@@Z 100472f0 f i Boat.obj
 0001:000469e0       ?CBoat_New@@YAPAVCEntity@@XZ 100479e0 f   Boat.obj
 0001:00046af0       ?CBoat_OnEndClass@@YAXXZ   10047af0 f   Boat.obj
 0001:00046b00       ?CBoat_OnPrecache@@YAXPAVCDLLEntityClass@@J@Z 10047b00 f   Boat.obj
 0001:00046b10       ?CBoat_OnWorldEnd@@YAXPAVCWorld@@@Z 10047b10 f   Boat.obj
 0001:00046b20       ?CBoat_OnWorldInit@@YAXPAVCWorld@@@Z 10047b20 f   Boat.obj
 0001:00046b30       ?CBoat_OnWorldTick@@YAXPAVCWorld@@@Z 10047b30 f   Boat.obj
 0001:00046b40       ?CBoat_OnWorldRender@@YAXPAVCWorld@@@Z 10047b40 f   Boat.obj
 0001:00046c10       ?MakeCopy@EBoatStart@@UAEPAVCEntityEvent@@XZ 10047c10 f   Boat.obj
 0001:00046c50       ??0EBoatStart@@QAE@XZ      10047c50 f   Boat.obj
 0001:00046cc0       ?MakeCopy@EBoatStop@@UAEPAVCEntityEvent@@XZ 10047cc0 f   Boat.obj
 0001:00046cf0       ??0EBoatStop@@QAE@XZ       10047cf0 f   Boat.obj
 0001:00046d00       ?MakeCopy@EBoatClicked@@UAEPAVCEntityEvent@@XZ 10047d00 f   Boat.obj
 0001:00046d40       ??0EBoatClicked@@QAE@XZ    10047d40 f   Boat.obj
 0001:00046db0       ?CBoat_Precache@@YAXXZ     10047db0 f   Boat.obj
 0001:00046e30       ?CBoat_OnInitClass@@YAXXZ  10047e30 f   Boat.obj
 0001:00046e40       ?SetDefaultProperties@CBoat@@UAEXXZ 10047e40 f   Boat.obj
 0001:00046ff0       ?GetType@CBoat@@UAEJXZ     10047ff0 f   Boat.obj
 0001:00047000       ?StartProp@CBoat@@QAEXXZ   10048000 f   Boat.obj
 0001:00047050       ?StopProp@CBoat@@QAEXXZ    10048050 f   Boat.obj
 0001:00047090       ?RaiseBlind@CBoat@@QAEXXZ  10048090 f   Boat.obj
 0001:00047100       ?LowerBlind@CBoat@@QAEXXZ  10048100 f   Boat.obj
 0001:00047170       ?WheelLeft@CBoat@@QAEXXZ   10048170 f   Boat.obj
 0001:00047230       ?WheelRight@CBoat@@QAEXXZ  10048230 f   Boat.obj
 0001:000472f0       ?WheelCenter@CBoat@@QAEXXZ 100482f0 f   Boat.obj
 0001:00047390       ?CreateParticles@CBoat@@QAEXXZ 10048390 f   Boat.obj
 0001:000475f0       ?PreMoving@CBoat@@UAEXXZ   100485f0 f   Boat.obj
 0001:00047640       ?DoMoving@CBoat@@UAEXXZ    10048640 f   Boat.obj
 0001:00047680       ?PostMoving@CBoat@@UAEXXZ  10048680 f   Boat.obj
 0001:00047830       ?SetupAnims@CBoat@@QAEXXZ  10048830 f   Boat.obj
 0001:000478e0       ?BoatStart@CBoat@@QAEXXZ   100488e0 f   Boat.obj
 0001:00047940       ?BoatStop@CBoat@@QAEXXZ    10048940 f   Boat.obj
 0001:00047a10       ?Main@CBoat@@QAEHABVCEntityEvent@@@Z 10048a10 f   Boat.obj
 0001:00047b20       ?H0x7a170003_Main_01@CBoat@@QAEHABVCEntityEvent@@@Z 10048b20 f   Boat.obj
 0001:00047ba0       ?H0x7a170004_Main_02@CBoat@@QAEHABVCEntityEvent@@@Z 10048ba0 f   Boat.obj
 0001:00047d40       ?H0x7a170007_Main_05@CBoat@@QAEHABVCEntityEvent@@@Z 10048d40 f   Boat.obj
 0001:00047db0       ?H0x7a170005_Main_03@CBoat@@QAEHABVCEntityEvent@@@Z 10048db0 f   Boat.obj
 0001:00048170       ?H0x7a170006_Main_04@CBoat@@QAEHABVCEntityEvent@@@Z 10049170 f   Boat.obj
 0001:000481d0       ?H0x7a170008_Main_06@CBoat@@QAEHABVCEntityEvent@@@Z 100491d0 f   Boat.obj
 0001:00048230       ?GetName@CBoat@@UBEABVCTString@@XZ 10049230 f i Boat.obj
 0001:00048240       ?IsTargetable@CBoat@@UBEHXZ 10049240 f i Boat.obj
 0001:00048250       ??_ECBoat@@UAEPAXI@Z       10049250 f i Boat.obj
 0001:00048250       ??_GCBoat@@UAEPAXI@Z       10049250 f i Boat.obj
 0001:00048280       ??1CBoat@@UAE@XZ           10049280 f i Boat.obj
 0001:00048620       ?CBouncer_New@@YAPAVCEntity@@XZ 10049620 f   Bouncer.obj
 0001:000486b0       ?CBouncer_OnInitClass@@YAXXZ 100496b0 f   Bouncer.obj
 0001:000486c0       ?CBouncer_OnEndClass@@YAXXZ 100496c0 f   Bouncer.obj
 0001:000486d0       ?CBouncer_OnPrecache@@YAXPAVCDLLEntityClass@@J@Z 100496d0 f   Bouncer.obj
 0001:000486e0       ?CBouncer_OnWorldEnd@@YAXPAVCWorld@@@Z 100496e0 f   Bouncer.obj
 0001:000486f0       ?CBouncer_OnWorldInit@@YAXPAVCWorld@@@Z 100496f0 f   Bouncer.obj
 0001:00048700       ?CBouncer_OnWorldTick@@YAXPAVCWorld@@@Z 10049700 f   Bouncer.obj
 0001:00048710       ?CBouncer_OnWorldRender@@YAXPAVCWorld@@@Z 10049710 f   Bouncer.obj
 0001:000487e0       ?JumpFromBouncer@@YAXPAVCEntity@@0@Z 100497e0 f   Bouncer.obj
 0001:00048860       ?SetDefaultProperties@CBouncer@@UAEXXZ 10049860 f   Bouncer.obj
 0001:00048930       ?Main@CBouncer@@QAEHABVCEntityEvent@@@Z 10049930 f   Bouncer.obj
 0001:000489c0       ?GetName@CBouncer@@UBEABVCTString@@XZ 100499c0 f i Bouncer.obj
 0001:000489d0       ??_GCBouncer@@UAEPAXI@Z    100499d0 f i Bouncer.obj
 0001:000489d0       ??_ECBouncer@@UAEPAXI@Z    100499d0 f i Bouncer.obj
 0001:00048a00       ??1CBouncer@@UAE@XZ        10049a00 f i Bouncer.obj
 0001:00048ac0       ?ClearToDefault@@YAXAAW4eCallType@@@Z 10049ac0 f i Call.obj
 0001:00048c40       ?CCall_New@@YAPAVCEntity@@XZ 10049c40 f   Call.obj
 0001:00048cf0       ?CCall_OnInitClass@@YAXXZ  10049cf0 f   Call.obj
 0001:00048d00       ?CCall_OnEndClass@@YAXXZ   10049d00 f   Call.obj
 0001:00048d10       ?CCall_OnPrecache@@YAXPAVCDLLEntityClass@@J@Z 10049d10 f   Call.obj
 0001:00048d20       ?CCall_OnWorldEnd@@YAXPAVCWorld@@@Z 10049d20 f   Call.obj
 0001:00048d30       ?CCall_OnWorldInit@@YAXPAVCWorld@@@Z 10049d30 f   Call.obj
 0001:00048d40       ?CCall_OnWorldTick@@YAXPAVCWorld@@@Z 10049d40 f   Call.obj
 0001:00048d50       ?CCall_OnWorldRender@@YAXPAVCWorld@@@Z 10049d50 f   Call.obj
 0001:00048e20       ?SetDefaultProperties@CCall@@UAEXXZ 10049e20 f   Call.obj
 0001:00048f00       ?GetType@CCall@@UAEJXZ     10049f00 f   Call.obj
 0001:00048f10       ?SetupInstance@CCall@@QAEXXZ 10049f10 f   Call.obj
 0001:00048f50       ?Main@CCall@@QAEHABVCEntityEvent@@@Z 10049f50 f   Call.obj
 0001:00048fc0       ?H0x00010000_Main_01@CCall@@QAEHABVCEntityEvent@@@Z 10049fc0 f   Call.obj
 0001:00048ff0       ?H0x00010001_Main_02@CCall@@QAEHABVCEntityEvent@@@Z 10049ff0 f   Call.obj
 0001:00049050       ?GetName@CCall@@UBEABVCTString@@XZ 1004a050 f i Call.obj
 0001:00049060       ??_GCCall@@UAEPAXI@Z       1004a060 f i Call.obj
 0001:00049060       ??_ECCall@@UAEPAXI@Z       1004a060 f i Call.obj
 0001:00049090       ??1CCall@@UAE@XZ           1004a090 f i Call.obj
 0001:00049760       ?CCamera_New@@YAPAVCEntity@@XZ 1004a760 f   Camera.obj
 0001:00049810       ?CCamera_OnInitClass@@YAXXZ 1004a810 f   Camera.obj
 0001:00049820       ?CCamera_OnEndClass@@YAXXZ 1004a820 f   Camera.obj
 0001:00049830       ?CCamera_OnPrecache@@YAXPAVCDLLEntityClass@@J@Z 1004a830 f   Camera.obj
 0001:00049840       ?CCamera_OnWorldEnd@@YAXPAVCWorld@@@Z 1004a840 f   Camera.obj
 0001:00049850       ?CCamera_OnWorldInit@@YAXPAVCWorld@@@Z 1004a850 f   Camera.obj
 0001:00049860       ?CCamera_OnWorldTick@@YAXPAVCWorld@@@Z 1004a860 f   Camera.obj
 0001:00049870       ?CCamera_OnWorldRender@@YAXPAVCWorld@@@Z 1004a870 f   Camera.obj
 0001:00049940       ?SetDefaultProperties@CCamera@@UAEXXZ 1004a940 f   Camera.obj
 0001:00049b50       ?RenderParticles@CCamera@@UAEXXZ 1004ab50 f   Camera.obj
 0001:00049b70       ?MovesByTargetedRoute@CCamera@@UBEHAAVCTString@@@Z 1004ab70 f   Camera.obj
 0001:00049ba0       ?DropsMarker@CCamera@@UBEHAAVCTFileName@@AAVCTString@@@Z 1004aba0 f   Camera.obj
 0001:00049c40       ?GetDescription@CCamera@@UBEABVCTString@@XZ 1004ac40 f   Camera.obj
 0001:00049c90       ?GetLerpedPlacement@CCamera@@UBE?AVCPlacement3D@@XZ 1004ac90 f   Camera.obj
 0001:00049ce0       ?PreMoving@CCamera@@UAEXXZ 1004ace0 f   Camera.obj
 0001:00049d00       ?DoMoving@CCamera@@UAEXXZ  1004ad00 f   Camera.obj
 0001:0004b3e0       ?PostMoving@CCamera@@UAEXXZ 1004c3e0 f   Camera.obj
 0001:0004b450       ?PlayStaticCamera@CCamera@@QAEHABVCEntityEvent@@@Z 1004c450 f   Camera.obj
 0001:0004b530       ?H0x00dc0001_PlayStaticCamera_01@CCamera@@QAEHABVCEntityEvent@@@Z 1004c530 f   Camera.obj
 0001:0004b5b0       ?H0x00dc0002_PlayStaticCamera_02@CCamera@@QAEHABVCEntityEvent@@@Z 1004c5b0 f   Camera.obj
 0001:0004b670       ?PlayMovingCamera@CCamera@@QAEHABVCEntityEvent@@@Z 1004c670 f   Camera.obj
 0001:0004b910       ?H0x00dc0004_PlayMovingCamera_01@CCamera@@QAEHABVCEntityEvent@@@Z 1004c910 f   Camera.obj
 0001:0004b9f0       ?H0x00dc0005_PlayMovingCamera_02@CCamera@@QAEHABVCEntityEvent@@@Z 1004c9f0 f   Camera.obj
 0001:0004ba50       ?PlayCamera@CCamera@@QAEHABVCEntityEvent@@@Z 1004ca50 f   Camera.obj
 0001:0004bad0       ?Main@CCamera@@QAEHABVCEntityEvent@@@Z 1004cad0 f   Camera.obj
 0001:0004bbf0       ?H0x00dc0009_Main_03@CCamera@@QAEHABVCEntityEvent@@@Z 1004cbf0 f   Camera.obj
 0001:0004bc60       ?H0x00dc0007_Main_01@CCamera@@QAEHABVCEntityEvent@@@Z 1004cc60 f   Camera.obj
 0001:0004bd20       ?H0x00dc0008_Main_02@CCamera@@QAEHABVCEntityEvent@@@Z 1004cd20 f   Camera.obj
 0001:0004bd80       ?H0x00dc000a_Main_04@CCamera@@QAEHABVCEntityEvent@@@Z 1004cd80 f   Camera.obj
 0001:0004bde0       ?GetName@CCamera@@UBEABVCTString@@XZ 1004cde0 f i Camera.obj
 0001:0004bdf0       ?IsTargetable@CCamera@@UBEHXZ 1004cdf0 f i Camera.obj
 0001:0004be00       ?IsImportant@CCamera@@UBEHXZ 1004ce00 f i Camera.obj
 0001:0004be10       ??_ECCamera@@UAEPAXI@Z     1004ce10 f i Camera.obj
 0001:0004be10       ??_GCCamera@@UAEPAXI@Z     1004ce10 f i Camera.obj
 0001:0004be40       ??1CCamera@@UAE@XZ         1004ce40 f i Camera.obj
 0001:0004bf20       ??G?$Quaternion@M@@QBE?AV0@ABV0@@Z 1004cf20 f i Camera.obj
 0001:0004bf50       ?Inv@?$Quaternion@M@@QBE?AV1@XZ 1004cf50 f i Camera.obj
 0001:0004bfd0       ??K?$Quaternion@M@@QBE?AV0@M@Z 1004cfd0 f i Camera.obj
 0001:0004c000       ?Log@@YA?AV?$Quaternion@M@@ABV1@@Z 1004d000 f i Camera.obj
 0001:0004c080       ?Exp@@YA?AV?$Quaternion@M@@ABV1@@Z 1004d080 f i Camera.obj
 0001:0004c110       ?Squad@@YA?AV?$Quaternion@M@@MABV1@000@Z 1004d110 f i Camera.obj
 0001:0004c470       ??G?$Quaternion@M@@QBE?AV0@XZ 1004d470 f i Camera.obj
 0001:0004c4a0       ??S?$Quaternion@M@@QBE?AV0@XZ 1004d4a0 f i Camera.obj
 0001:0004c4d0       ?Norm@?$Quaternion@M@@QBEMXZ 1004d4d0 f i Camera.obj
 0001:0004c7b0       ?CCameraMarker_New@@YAPAVCEntity@@XZ 1004d7b0 f   CameraMarker.obj
 0001:0004c860       ?CCameraMarker_OnInitClass@@YAXXZ 1004d860 f   CameraMarker.obj
 0001:0004c870       ?CCameraMarker_OnEndClass@@YAXXZ 1004d870 f   CameraMarker.obj
 0001:0004c880       ?CCameraMarker_OnPrecache@@YAXPAVCDLLEntityClass@@J@Z 1004d880 f   CameraMarker.obj
 0001:0004c890       ?CCameraMarker_OnWorldEnd@@YAXPAVCWorld@@@Z 1004d890 f   CameraMarker.obj
 0001:0004c8a0       ?CCameraMarker_OnWorldInit@@YAXPAVCWorld@@@Z 1004d8a0 f   CameraMarker.obj
 0001:0004c8b0       ?CCameraMarker_OnWorldTick@@YAXPAVCWorld@@@Z 1004d8b0 f   CameraMarker.obj
 0001:0004c8c0       ?CCameraMarker_OnWorldRender@@YAXPAVCWorld@@@Z 1004d8c0 f   CameraMarker.obj
 0001:0004c920       ?SetDefaultProperties@CCameraMarker@@UAEXXZ 1004d920 f   CameraMarker.obj
 0001:0004c990       ?DropsMarker@CCameraMarker@@UBEHAAVCTFileName@@AAVCTString@@@Z 1004d990 f   CameraMarker.obj
 0001:0004ca30       ?Main@CCameraMarker@@QAEHABVCEntityEvent@@@Z 1004da30 f   CameraMarker.obj
 0001:0004cbb0       ??_ECCameraMarker@@UAEPAXI@Z 1004dbb0 f i CameraMarker.obj
 0001:0004cbb0       ??_GCCameraMarker@@UAEPAXI@Z 1004dbb0 f i CameraMarker.obj
 0001:0004cbe0       ??1CCameraMarker@@UAE@XZ   1004dbe0 f i CameraMarker.obj
 0001:0004ce40       ?CCopier_New@@YAPAVCEntity@@XZ 1004de40 f   Copier.obj
 0001:0004cee0       ?CCopier_OnInitClass@@YAXXZ 1004dee0 f   Copier.obj
 0001:0004cef0       ?CCopier_OnEndClass@@YAXXZ 1004def0 f   Copier.obj
 0001:0004cf00       ?CCopier_OnPrecache@@YAXPAVCDLLEntityClass@@J@Z 1004df00 f   Copier.obj
 0001:0004cf10       ?CCopier_OnWorldEnd@@YAXPAVCWorld@@@Z 1004df10 f   Copier.obj
 0001:0004cf20       ?CCopier_OnWorldInit@@YAXPAVCWorld@@@Z 1004df20 f   Copier.obj
 0001:0004cf30       ?CCopier_OnWorldTick@@YAXPAVCWorld@@@Z 1004df30 f   Copier.obj
 0001:0004cf40       ?CCopier_OnWorldRender@@YAXPAVCWorld@@@Z 1004df40 f   Copier.obj
 0001:0004d010       ?SetDefaultProperties@CCopier@@UAEXXZ 1004e010 f   Copier.obj
 0001:0004d090       ?GetDescription@CCopier@@UBEABVCTString@@XZ 1004e090 f   Copier.obj
 0001:0004d0d0       ?TeleportEntity@CCopier@@QAEXXZ 1004e0d0 f   Copier.obj
 0001:0004d210       ?Main@CCopier@@QAEHABVCEntityEvent@@@Z 1004e210 f   Copier.obj
 0001:0004d2a0       ?H0x00e10004_Main_05@CCopier@@QAEHABVCEntityEvent@@@Z 1004e2a0 f   Copier.obj
 0001:0004d310       ?H0x00e10000_Main_01@CCopier@@QAEHABVCEntityEvent@@@Z 1004e310 f   Copier.obj
 0001:0004d390       ?H0x00e10001_Main_02@CCopier@@QAEHABVCEntityEvent@@@Z 1004e390 f   Copier.obj
 0001:0004d400       ?H0x00e10002_Main_03@CCopier@@QAEHABVCEntityEvent@@@Z 1004e400 f   Copier.obj
 0001:0004d480       ?H0x00e10003_Main_04@CCopier@@QAEHABVCEntityEvent@@@Z 1004e480 f   Copier.obj
 0001:0004d4e0       ?H0x00e10005_Main_06@CCopier@@QAEHABVCEntityEvent@@@Z 1004e4e0 f   Copier.obj
 0001:0004d4f0       ?GetName@CCopier@@UBEABVCTString@@XZ 1004e4f0 f i Copier.obj
 0001:0004d500       ?GetTarget@CCopier@@UBEPAVCEntity@@XZ 1004e500 f i Copier.obj
 0001:0004d510       ?IsTargetable@CCopier@@UBEHXZ 1004e510 f i Copier.obj
 0001:0004d520       ??_ECCopier@@UAEPAXI@Z     1004e520 f i Copier.obj
 0001:0004d520       ??_GCCopier@@UAEPAXI@Z     1004e520 f i Copier.obj
 0001:0004d550       ??1CCopier@@UAE@XZ         1004e550 f i Copier.obj
 0001:0004da30       ?CCounter_New@@YAPAVCEntity@@XZ 1004ea30 f   Counter.obj
 0001:0004db10       ?CCounter_OnInitClass@@YAXXZ 1004eb10 f   Counter.obj
 0001:0004db20       ?CCounter_OnEndClass@@YAXXZ 1004eb20 f   Counter.obj
 0001:0004db30       ?CCounter_OnPrecache@@YAXPAVCDLLEntityClass@@J@Z 1004eb30 f   Counter.obj
 0001:0004db40       ?CCounter_OnWorldEnd@@YAXPAVCWorld@@@Z 1004eb40 f   Counter.obj
 0001:0004db50       ?CCounter_OnWorldInit@@YAXPAVCWorld@@@Z 1004eb50 f   Counter.obj
 0001:0004db60       ?CCounter_OnWorldTick@@YAXPAVCWorld@@@Z 1004eb60 f   Counter.obj
 0001:0004db70       ?CCounter_OnWorldRender@@YAXPAVCWorld@@@Z 1004eb70 f   Counter.obj
 0001:0004dc40       ?SetDefaultProperties@CCounter@@UAEXXZ 1004ec40 f   Counter.obj
 0001:0004ddc0       ?Precache@CCounter@@UAEXXZ 1004edc0 f   Counter.obj
 0001:0004ddd0       ?DisplayNumber@CCounter@@QAEXXZ 1004edd0 f   Counter.obj
 0001:0004de90       ?CountDown@CCounter@@QAEHABVCEntityEvent@@@Z 1004ee90 f   Counter.obj
 0001:0004def0       ?H0x00e80003_CountDown_03@CCounter@@QAEHABVCEntityEvent@@@Z 1004eef0 f   Counter.obj
 0001:0004df60       ?H0x00e80001_CountDown_01@CCounter@@QAEHABVCEntityEvent@@@Z 1004ef60 f   Counter.obj
 0001:0004dfe0       ?H0x00e80002_CountDown_02@CCounter@@QAEHABVCEntityEvent@@@Z 1004efe0 f   Counter.obj
 0001:0004e100       ?H0x00e80004_CountDown_04@CCounter@@QAEHABVCEntityEvent@@@Z 1004f100 f   Counter.obj
 0001:0004e110       ?Main@CCounter@@QAEHABVCEntityEvent@@@Z 1004f110 f   Counter.obj
 0001:0004e1b0       ?H0x00e80005_Main_01@CCounter@@QAEHABVCEntityEvent@@@Z 1004f1b0 f   Counter.obj
 0001:0004e230       ?H0x00e80006_Main_02@CCounter@@QAEHABVCEntityEvent@@@Z 1004f230 f   Counter.obj
 0001:0004e2b0       ?H0x00e80007_Main_03@CCounter@@QAEHABVCEntityEvent@@@Z 1004f2b0 f   Counter.obj
 0001:0004e3b0       ?H0x00e80008_Main_04@CCounter@@QAEHABVCEntityEvent@@@Z 1004f3b0 f   Counter.obj
 0001:0004e410       ?GetName@CCounter@@UBEABVCTString@@XZ 1004f410 f i Counter.obj
 0001:0004e420       ?IsTargetable@CCounter@@UBEHXZ 1004f420 f i Counter.obj
 0001:0004e430       ?IsImportant@CCounter@@UBEHXZ 1004f430 f i Counter.obj
 0001:0004e440       ??_GCCounter@@UAEPAXI@Z    1004f440 f i Counter.obj
 0001:0004e440       ??_ECCounter@@UAEPAXI@Z    1004f440 f i Counter.obj
 0001:0004e470       ??1CCounter@@UAE@XZ        1004f470 f i Counter.obj
 0001:0004e860       ?CDamager_New@@YAPAVCEntity@@XZ 1004f860 f   Damager.obj
 0001:0004e900       ?CDamager_OnInitClass@@YAXXZ 1004f900 f   Damager.obj
 0001:0004e910       ?CDamager_OnEndClass@@YAXXZ 1004f910 f   Damager.obj
 0001:0004e920       ?CDamager_OnPrecache@@YAXPAVCDLLEntityClass@@J@Z 1004f920 f   Damager.obj
 0001:0004e930       ?CDamager_OnWorldEnd@@YAXPAVCWorld@@@Z 1004f930 f   Damager.obj
 0001:0004e940       ?CDamager_OnWorldInit@@YAXPAVCWorld@@@Z 1004f940 f   Damager.obj
 0001:0004e950       ?CDamager_OnWorldTick@@YAXPAVCWorld@@@Z 1004f950 f   Damager.obj
 0001:0004e960       ?CDamager_OnWorldRender@@YAXPAVCWorld@@@Z 1004f960 f   Damager.obj
 0001:0004ea30       ?SetDefaultProperties@CDamager@@UAEXXZ 1004fa30 f   Damager.obj
 0001:0004eac0       ?GetDescription@CDamager@@UBEABVCTString@@XZ 1004fac0 f   Damager.obj
 0001:0004ead0       ?Main@CDamager@@QAEHABVCEntityEvent@@@Z 1004fad0 f   Damager.obj
 0001:0004eb90       ?H0x00e50004_Main_05@CDamager@@QAEHABVCEntityEvent@@@Z 1004fb90 f   Damager.obj
 0001:0004ec00       ?H0x00e50000_Main_01@CDamager@@QAEHABVCEntityEvent@@@Z 1004fc00 f   Damager.obj
 0001:0004ece0       ?H0x00e50001_Main_02@CDamager@@QAEHABVCEntityEvent@@@Z 1004fce0 f   Damager.obj
 0001:0004ed50       ?H0x00e50002_Main_03@CDamager@@QAEHABVCEntityEvent@@@Z 1004fd50 f   Damager.obj
 0001:0004edd0       ?H0x00e50003_Main_04@CDamager@@QAEHABVCEntityEvent@@@Z 1004fdd0 f   Damager.obj
 0001:0004ee30       ?H0x00e50005_Main_06@CDamager@@QAEHABVCEntityEvent@@@Z 1004fe30 f   Damager.obj
 0001:0004ee40       ?GetName@CDamager@@UBEABVCTString@@XZ 1004fe40 f i Damager.obj
 0001:0004ee50       ?IsTargetable@CDamager@@UBEHXZ 1004fe50 f i Damager.obj
 0001:0004ee60       ??_GCDamager@@UAEPAXI@Z    1004fe60 f i Damager.obj
 0001:0004ee60       ??_ECDamager@@UAEPAXI@Z    1004fe60 f i Damager.obj
 0001:0004ee90       ??1CDamager@@UAE@XZ        1004fe90 f i Damager.obj
 0001:0004f200       ?CDebris_New@@YAPAVCEntity@@XZ 10050200 f   Debris.obj
 0001:0004f260       ?CDebris_OnInitClass@@YAXXZ 10050260 f   Debris.obj
 0001:0004f270       ?CDebris_OnEndClass@@YAXXZ 10050270 f   Debris.obj
 0001:0004f280       ?CDebris_OnPrecache@@YAXPAVCDLLEntityClass@@J@Z 10050280 f   Debris.obj
 0001:0004f290       ?CDebris_OnWorldEnd@@YAXPAVCWorld@@@Z 10050290 f   Debris.obj
 0001:0004f2a0       ?CDebris_OnWorldInit@@YAXPAVCWorld@@@Z 100502a0 f   Debris.obj
 0001:0004f2b0       ?CDebris_OnWorldTick@@YAXPAVCWorld@@@Z 100502b0 f   Debris.obj
 0001:0004f2c0       ?CDebris_OnWorldRender@@YAXPAVCWorld@@@Z 100502c0 f   Debris.obj
 0001:0004f390       ?MakeCopy@ESpawnDebris@@UAEPAVCEntityEvent@@XZ 10050390 f   Debris.obj
 0001:0004f400       ??0ESpawnDebris@@QAE@XZ    10050400 f   Debris.obj
 0001:0004f440       ?SetDefaultProperties@CDebris@@UAEXXZ 10050440 f   Debris.obj
 0001:0004f4a0       ?GetEntityInfo@CDebris@@UAEPAXXZ 100504a0 f   Debris.obj
 0001:0004f4b0       ?ReceiveDamage@CDebris@@UAEXPAVCEntity@@W4DamageType@@MABV?$Vector@M$02@@20@Z 100504b0 f   Debris.obj
 0001:0004f520       ?AdjustShadingParameters@CDebris@@UAEHAAV?$Vector@M$02@@AAK1@Z 10050520 f   Debris.obj
 0001:0004f5b0       ?LeaveStain@CDebris@@QAEXXZ 100505b0 f   Debris.obj
 0001:0004f8e0       ?SpawnEffect@CDebris@@QAEXABVCPlacement3D@@ABVESpawnEffect@@@Z 100508e0 f   Debris.obj
 0001:0004f960       ?RenderParticles@CDebris@@UAEXXZ 10050960 f   Debris.obj
 0001:0004f9e0       ?Explode@CDebris@@QAEXXZ   100509e0 f   Debris.obj
 0001:0004f9f0       ?Main@CDebris@@QAEHABVCEntityEvent@@@Z 100509f0 f   Debris.obj
 0001:0004fce0       ?H0x025a0001_Main_01@CDebris@@QAEHABVCEntityEvent@@@Z 10050ce0 f   Debris.obj
 0001:0004fe60       ?H0x025a0002_Main_02@CDebris@@QAEHABVCEntityEvent@@@Z 10050e60 f   Debris.obj
 0001:0004ff00       ?H0x025a0003_Main_03@CDebris@@QAEHABVCEntityEvent@@@Z 10050f00 f   Debris.obj
 0001:0004ff80       ?H0x025a0004_Main_04@CDebris@@QAEHABVCEntityEvent@@@Z 10050f80 f   Debris.obj
 0001:0004ffe0       ??_GCDebris@@UAEPAXI@Z     10050fe0 f i Debris.obj
 0001:0004ffe0       ??_ECDebris@@UAEPAXI@Z     10050fe0 f i Debris.obj
 0001:00050010       ??1CDebris@@UAE@XZ         10051010 f i Debris.obj
 0001:00050020       ??0EDoDecal@@QAE@ABV0@@Z   10051020 f i DecalManager.obj
 0001:000500c0       ??4EDoDecal@@QAEAAV0@ABV0@@Z 100510c0 f i DecalManager.obj
 0001:00050130       ??1EDoDecal@@UAE@XZ        10051130 f i DecalManager.obj
 0001:00050180       ??_GEDoDecal@@UAEPAXI@Z    10051180 f i DecalManager.obj
 0001:000501b0       ??_EEDoDecal@@UAEPAXI@Z    100511b0 f i DecalManager.obj
 0001:00050210       ?ClearToDefault@@YAXAAVEDoDecal@@@Z 10051210 f i DecalManager.obj
 0001:000503c0       ?CDecalManager_New@@YAPAVCEntity@@XZ 100513c0 f   DecalManager.obj
 0001:00050470       ?CDecalManager_OnInitClass@@YAXXZ 10051470 f   DecalManager.obj
 0001:00050480       ?CDecalManager_OnEndClass@@YAXXZ 10051480 f   DecalManager.obj
 0001:00050490       ?CDecalManager_OnPrecache@@YAXPAVCDLLEntityClass@@J@Z 10051490 f   DecalManager.obj
 0001:000504a0       ?CDecalManager_OnWorldEnd@@YAXPAVCWorld@@@Z 100514a0 f   DecalManager.obj
 0001:000504b0       ?CDecalManager_OnWorldInit@@YAXPAVCWorld@@@Z 100514b0 f   DecalManager.obj
 0001:000504c0       ?CDecalManager_OnWorldTick@@YAXPAVCWorld@@@Z 100514c0 f   DecalManager.obj
 0001:000504d0       ?CDecalManager_OnWorldRender@@YAXPAVCWorld@@@Z 100514d0 f   DecalManager.obj
 0001:000505a0       ?MakeCopy@EDoDecal@@UAEPAVCEntityEvent@@XZ 100515a0 f   DecalManager.obj
 0001:00050650       ??0EDoDecal@@QAE@XZ        10051650 f   DecalManager.obj
 0001:00050700       ?SetDefaultProperties@CDecalManager@@UAEXXZ 10051700 f   DecalManager.obj
 0001:00050790       ?GetType@CDecalManager@@UAEJXZ 10051790 f   DecalManager.obj
 0001:000507a0       ?Copy@CDecalManager@@UAEXAAVCEntity@@K@Z 100517a0 f   DecalManager.obj
 0001:000507f0       ?Write_t@CDecalManager@@UAEXPAVCTStream@@@Z 100517f0 f   DecalManager.obj
 0001:000508b0       ?Read_t@CDecalManager@@UAEXPAVCTStream@@@Z 100518b0 f   DecalManager.obj
 0001:00050980       ?RenderParticles@CDecalManager@@UAEXXZ 10051980 f   DecalManager.obj
 0001:000509a0       ?DoDecal@CDecalManager@@QAEXABVEDoDecal@@@Z 100519a0 f   DecalManager.obj
 0001:00050bf0       ?FindClosestOfType@CDecalManager@@QAEPAVHGenericDecal@@JV?$Vector@M$02@@@Z 10051bf0 f   DecalManager.obj
 0001:00050c50       ?Update@CDecalManager@@QAEXXZ 10051c50 f   DecalManager.obj
 0001:00050c80       ?Setup@CDecalManager@@QAEXXZ 10051c80 f   DecalManager.obj
 0001:00050d00       ?Main@CDecalManager@@QAEHABVCEntityEvent@@@Z 10051d00 f   DecalManager.obj
 0001:00050d70       ?H0x76340003_Main_03@CDecalManager@@QAEHABVCEntityEvent@@@Z 10051d70 f   DecalManager.obj
 0001:00050e00       ?H0x76340001_Main_01@CDecalManager@@QAEHABVCEntityEvent@@@Z 10051e00 f   DecalManager.obj
 0001:00050ed0       ?H0x76340002_Main_02@CDecalManager@@QAEHABVCEntityEvent@@@Z 10051ed0 f   DecalManager.obj
 0001:00050f30       ?H0x76340004_Main_04@CDecalManager@@QAEHABVCEntityEvent@@@Z 10051f30 f   DecalManager.obj
 0001:00050f90       ??_GCDecalManager@@UAEPAXI@Z 10051f90 f i DecalManager.obj
 0001:00050f90       ??_ECDecalManager@@UAEPAXI@Z 10051f90 f i DecalManager.obj
 0001:00050fc0       ??1CDecalManager@@UAE@XZ   10051fc0 f i DecalManager.obj
 0001:00051090       ??1DescriptionType@HGenericDecal@@QAE@XZ 10052090 f i DecalManager.obj
 0001:000510a0       ?ClearToDefault@@YAXAAW4DEERCALLTYPE@@@Z 100520a0 f i DeerCall.obj
 0001:000510b0       ??0EStartCall@@QAE@ABV0@@Z 100520b0 f i DeerCall.obj
 0001:000510d0       ??4EStartCall@@QAEAAV0@ABV0@@Z 100520d0 f i DeerCall.obj
 0001:000510f0       ??1EStartCall@@UAE@XZ      100520f0 f i DeerCall.obj
 0001:00051100       ??_GEStartCall@@UAEPAXI@Z  10052100 f i DeerCall.obj
 0001:00051130       ??_EEStartCall@@UAEPAXI@Z  10052130 f i DeerCall.obj
 0001:00051190       ?ClearToDefault@@YAXAAVEStartCall@@@Z 10052190 f i DeerCall.obj
 0001:000511b0       ??0EEndCall@@QAE@ABV0@@Z   100521b0 f i DeerCall.obj
 0001:000511d0       ??4EEndCall@@QAEAAV0@ABV0@@Z 100521d0 f i DeerCall.obj
 0001:000511f0       ??1EEndCall@@UAE@XZ        100521f0 f i DeerCall.obj
 0001:00051200       ??_GEEndCall@@UAEPAXI@Z    10052200 f i DeerCall.obj
 0001:00051230       ??_EEEndCall@@UAEPAXI@Z    10052230 f i DeerCall.obj
 0001:00051290       ?ClearToDefault@@YAXAAVEEndCall@@@Z 10052290 f i DeerCall.obj
 0001:000512b0       ??0EUseNextCall@@QAE@ABV0@@Z 100522b0 f i DeerCall.obj
 0001:000512d0       ??4EUseNextCall@@QAEAAV0@ABV0@@Z 100522d0 f i DeerCall.obj
 0001:000512f0       ??1EUseNextCall@@UAE@XZ    100522f0 f i DeerCall.obj
 0001:00051300       ??_GEUseNextCall@@UAEPAXI@Z 10052300 f i DeerCall.obj
 0001:00051330       ??_EEUseNextCall@@UAEPAXI@Z 10052330 f i DeerCall.obj
 0001:00051390       ?ClearToDefault@@YAXAAVEUseNextCall@@@Z 10052390 f i DeerCall.obj
 0001:000513b0       ??0ESetCall@@QAE@ABV0@@Z   100523b0 f i DeerCall.obj
 0001:000513e0       ??4ESetCall@@QAEAAV0@ABV0@@Z 100523e0 f i DeerCall.obj
 0001:00051400       ??1ESetCall@@UAE@XZ        10052400 f i DeerCall.obj
 0001:00051410       ??_GESetCall@@UAEPAXI@Z    10052410 f i DeerCall.obj
 0001:00051440       ??_EESetCall@@UAEPAXI@Z    10052440 f i DeerCall.obj
 0001:000514a0       ?ClearToDefault@@YAXAAVESetCall@@@Z 100524a0 f i DeerCall.obj
 0001:000514d0       ??0EDeerCallInit@@QAE@ABV0@@Z 100524d0 f i DeerCall.obj
 0001:00051510       ??4EDeerCallInit@@QAEAAV0@ABV0@@Z 10052510 f i DeerCall.obj
 0001:00051560       ??1EDeerCallInit@@UAE@XZ   10052560 f i DeerCall.obj
 0001:000515f0       ??_GEDeerCallInit@@UAEPAXI@Z 100525f0 f i DeerCall.obj
 0001:00051620       ??_EEDeerCallInit@@UAEPAXI@Z 10052620 f i DeerCall.obj
 0001:00051680       ?ClearToDefault@@YAXAAVEDeerCallInit@@@Z 10052680 f i DeerCall.obj
 0001:00051720       ??0EDeerCallMade@@QAE@ABV0@@Z 10052720 f i DeerCall.obj
 0001:000517c0       ??4EDeerCallMade@@QAEAAV0@ABV0@@Z 100527c0 f i DeerCall.obj
 0001:00051870       ??1EDeerCallMade@@UAE@XZ   10052870 f i DeerCall.obj
 0001:00051900       ??_GEDeerCallMade@@UAEPAXI@Z 10052900 f i DeerCall.obj
 0001:00051930       ??_EEDeerCallMade@@UAEPAXI@Z 10052930 f i DeerCall.obj
 0001:00051990       ?ClearToDefault@@YAXAAVEDeerCallMade@@@Z 10052990 f i DeerCall.obj
 0001:00051ef0       ?CDeerCall_New@@YAPAVCEntity@@XZ 10052ef0 f   DeerCall.obj
 0001:00051fc0       ?CDeerCall_OnInitClass@@YAXXZ 10052fc0 f   DeerCall.obj
 0001:00051fd0       ?CDeerCall_OnEndClass@@YAXXZ 10052fd0 f   DeerCall.obj
 0001:00051fe0       ?CDeerCall_OnPrecache@@YAXPAVCDLLEntityClass@@J@Z 10052fe0 f   DeerCall.obj
 0001:00051ff0       ?CDeerCall_OnWorldEnd@@YAXPAVCWorld@@@Z 10052ff0 f   DeerCall.obj
 0001:00052000       ?CDeerCall_OnWorldInit@@YAXPAVCWorld@@@Z 10053000 f   DeerCall.obj
 0001:00052010       ?CDeerCall_OnWorldTick@@YAXPAVCWorld@@@Z 10053010 f   DeerCall.obj
 0001:00052020       ?CDeerCall_OnWorldRender@@YAXPAVCWorld@@@Z 10053020 f   DeerCall.obj
 0001:000520f0       ?MakeCopy@EStartCall@@UAEPAVCEntityEvent@@XZ 100530f0 f   DeerCall.obj
 0001:00052120       ??0EStartCall@@QAE@XZ      10053120 f   DeerCall.obj
 0001:00052130       ?MakeCopy@EEndCall@@UAEPAVCEntityEvent@@XZ 10053130 f   DeerCall.obj
 0001:00052160       ??0EEndCall@@QAE@XZ        10053160 f   DeerCall.obj
 0001:00052170       ?MakeCopy@EUseNextCall@@UAEPAVCEntityEvent@@XZ 10053170 f   DeerCall.obj
 0001:000521a0       ??0EUseNextCall@@QAE@XZ    100531a0 f   DeerCall.obj
 0001:000521b0       ?MakeCopy@ESetCall@@UAEPAVCEntityEvent@@XZ 100531b0 f   DeerCall.obj
 0001:000521f0       ??0ESetCall@@QAE@XZ        100531f0 f   DeerCall.obj
 0001:00052210       ?MakeCopy@EDeerCallInit@@UAEPAVCEntityEvent@@XZ 10053210 f   DeerCall.obj
 0001:00052250       ??0EDeerCallInit@@QAE@XZ   10053250 f   DeerCall.obj
 0001:000522d0       ?MakeCopy@EDeerCallMade@@UAEPAVCEntityEvent@@XZ 100532d0 f   DeerCall.obj
 0001:00052380       ??0EDeerCallMade@@QAE@XZ   10053380 f   DeerCall.obj
 0001:00052430       ?SetDefaultProperties@CDeerCall@@UAEXXZ 10053430 f   DeerCall.obj
 0001:000524f0       ?Precache@CDeerCall@@UAEXXZ 100534f0 f   DeerCall.obj
 0001:00052500       ?Read_t@CDeerCall@@UAEXPAVCTStream@@@Z 10053500 f   DeerCall.obj
 0001:000525a0       ?Write_t@CDeerCall@@UAEXPAVCTStream@@@Z 100535a0 f   DeerCall.obj
 0001:00052600       ?AddShortCall@CDeerCall@@QAEXXZ 10053600 f   DeerCall.obj
 0001:00052650       ?AddLongCall@CDeerCall@@QAEXXZ 10053650 f   DeerCall.obj
 0001:000526a0       ?AddBadCall@CDeerCall@@QAEXXZ 100536a0 f   DeerCall.obj
 0001:000526f0       ?AddMediumCall@CDeerCall@@QAEXXZ 100536f0 f   DeerCall.obj
 0001:00052740       ?SendPatternToAI@CDeerCall@@QAEXH@Z 10053740 f   DeerCall.obj
 0001:00052940       ?PlayCallSound@CDeerCall@@QAEXJ@Z 10053940 f   DeerCall.obj
 0001:000529f0       ?HandleGoodEnd@CDeerCall@@QAEHABVCEntityEvent@@@Z 100539f0 f   DeerCall.obj
 0001:00052a80       ?H0x77250007_HandleGoodEnd_01@CDeerCall@@QAEHABVCEntityEvent@@@Z 10053a80 f   DeerCall.obj
 0001:00052b00       ?H0x77250008_HandleGoodEnd_02@CDeerCall@@QAEHABVCEntityEvent@@@Z 10053b00 f   DeerCall.obj
 0001:00052b60       ?HandleBadEnd@CDeerCall@@QAEHABVCEntityEvent@@@Z 10053b60 f   DeerCall.obj
 0001:00052c00       ?H0x7725000a_HandleBadEnd_01@CDeerCall@@QAEHABVCEntityEvent@@@Z 10053c00 f   DeerCall.obj
 0001:00052cc0       ?H0x7725000b_HandleBadEnd_02@CDeerCall@@QAEHABVCEntityEvent@@@Z 10053cc0 f   DeerCall.obj
 0001:00052d20       ?HandleAntlerLong@CDeerCall@@QAEHABVCEntityEvent@@@Z 10053d20 f   DeerCall.obj
 0001:00052da0       ?H0x7725000d_HandleAntlerLong_01@CDeerCall@@QAEHABVCEntityEvent@@@Z 10053da0 f   DeerCall.obj
 0001:00052e60       ?H0x7725000e_HandleAntlerLong_02@CDeerCall@@QAEHABVCEntityEvent@@@Z 10053e60 f   DeerCall.obj
 0001:00052ec0       ?HandleMiddle@CDeerCall@@QAEHABVCEntityEvent@@@Z 10053ec0 f   DeerCall.obj
 0001:00052f70       ?H0x77250010_HandleMiddle_01@CDeerCall@@QAEHABVCEntityEvent@@@Z 10053f70 f   DeerCall.obj
 0001:00053100       ?H0x77250011_HandleMiddle_02@CDeerCall@@QAEHABVCEntityEvent@@@Z 10054100 f   DeerCall.obj
 0001:00053160       ?StartUsingCall@CDeerCall@@QAEHABVCEntityEvent@@@Z 10054160 f   DeerCall.obj
 0001:00053200       ?H0x77250013_StartUsingCall_01@CDeerCall@@QAEHABVCEntityEvent@@@Z 10054200 f   DeerCall.obj
 0001:00053300       ?H0x77250014_StartUsingCall_02@CDeerCall@@QAEHABVCEntityEvent@@@Z 10054300 f   DeerCall.obj
 0001:00053360       ?Main@CDeerCall@@QAEHABVCEntityEvent@@@Z 10054360 f   DeerCall.obj
 0001:00053540       ?H0x77250017_Main_03@CDeerCall@@QAEHABVCEntityEvent@@@Z 10054540 f   DeerCall.obj
 0001:000535b0       ?H0x77250015_Main_01@CDeerCall@@QAEHABVCEntityEvent@@@Z 100545b0 f   DeerCall.obj
 0001:00053740       ?H0x77250016_Main_02@CDeerCall@@QAEHABVCEntityEvent@@@Z 10054740 f   DeerCall.obj
 0001:000537a0       ?H0x77250018_Main_04@CDeerCall@@QAEHABVCEntityEvent@@@Z 100547a0 f   DeerCall.obj
 0001:00053800       ?GetName@CDeerCall@@UBEABVCTString@@XZ 10054800 f i DeerCall.obj
 0001:00053810       ??_ECDeerCall@@UAEPAXI@Z   10054810 f i DeerCall.obj
 0001:00053810       ??_GCDeerCall@@UAEPAXI@Z   10054810 f i DeerCall.obj
 0001:00053840       ??1CDeerCall@@UAE@XZ       10054840 f i DeerCall.obj
 0001:00053960       ??0EDeerDecoyStart@@QAE@ABV0@@Z 10054960 f i DeerDecoy.obj
 0001:000539a0       ??4EDeerDecoyStart@@QAEAAV0@ABV0@@Z 100549a0 f i DeerDecoy.obj
 0001:000539f0       ??1EDeerDecoyStart@@UAE@XZ 100549f0 f i DeerDecoy.obj
 0001:00053a80       ??_GEDeerDecoyStart@@UAEPAXI@Z 10054a80 f i DeerDecoy.obj
 0001:00053ab0       ??_EEDeerDecoyStart@@UAEPAXI@Z 10054ab0 f i DeerDecoy.obj
 0001:00053b10       ?ClearToDefault@@YAXAAVEDeerDecoyStart@@@Z 10054b10 f i DeerDecoy.obj
 0001:00053bb0       ??0EDeerDecoyRecalled@@QAE@ABV0@@Z 10054bb0 f i DeerDecoy.obj
 0001:00053be0       ??4EDeerDecoyRecalled@@QAEAAV0@ABV0@@Z 10054be0 f i DeerDecoy.obj
 0001:00053c20       ??1EDeerDecoyRecalled@@UAE@XZ 10054c20 f i DeerDecoy.obj
 0001:00053cb0       ??_GEDeerDecoyRecalled@@UAEPAXI@Z 10054cb0 f i DeerDecoy.obj
 0001:00053ce0       ??_EEDeerDecoyRecalled@@UAEPAXI@Z 10054ce0 f i DeerDecoy.obj
 0001:00053d40       ?ClearToDefault@@YAXAAVEDeerDecoyRecalled@@@Z 10054d40 f i DeerDecoy.obj
 0001:00053f40       ?CDeerDecoy_New@@YAPAVCEntity@@XZ 10054f40 f   DeerDecoy.obj
 0001:00053fd0       ?CDeerDecoy_OnInitClass@@YAXXZ 10054fd0 f   DeerDecoy.obj
 0001:00053fe0       ?CDeerDecoy_OnEndClass@@YAXXZ 10054fe0 f   DeerDecoy.obj
 0001:00053ff0       ?CDeerDecoy_OnPrecache@@YAXPAVCDLLEntityClass@@J@Z 10054ff0 f   DeerDecoy.obj
 0001:00054000       ?CDeerDecoy_OnWorldEnd@@YAXPAVCWorld@@@Z 10055000 f   DeerDecoy.obj
 0001:00054010       ?CDeerDecoy_OnWorldInit@@YAXPAVCWorld@@@Z 10055010 f   DeerDecoy.obj
 0001:00054020       ?CDeerDecoy_OnWorldTick@@YAXPAVCWorld@@@Z 10055020 f   DeerDecoy.obj
 0001:00054030       ?CDeerDecoy_OnWorldRender@@YAXPAVCWorld@@@Z 10055030 f   DeerDecoy.obj
 0001:00054100       ?MakeCopy@EDeerDecoyStart@@UAEPAVCEntityEvent@@XZ 10055100 f   DeerDecoy.obj
 0001:00054140       ??0EDeerDecoyStart@@QAE@XZ 10055140 f   DeerDecoy.obj
 0001:000541b0       ?MakeCopy@EDeerDecoyRecalled@@UAEPAVCEntityEvent@@XZ 100551b0 f   DeerDecoy.obj
 0001:000541f0       ??0EDeerDecoyRecalled@@QAE@XZ 100551f0 f   DeerDecoy.obj
 0001:00054260       ?SetDefaultProperties@CDeerDecoy@@UAEXXZ 10055260 f   DeerDecoy.obj
 0001:000542c0       ?Precache@CDeerDecoy@@UAEXXZ 100552c0 f   DeerDecoy.obj
 0001:000542d0       ?HandleScrapeOverlay@CDeerDecoy@@QAEXXZ 100552d0 f   DeerDecoy.obj
 0001:000544f0       ?SetupDecoy@CDeerDecoy@@QAEXVEDeerDecoyStart@@@Z 100554f0 f   DeerDecoy.obj
 0001:00054640       ?Main@CDeerDecoy@@QAEHABVCEntityEvent@@@Z 10055640 f   DeerDecoy.obj
 0001:00054710       ?H0x77260002_Main_01@CDeerDecoy@@QAEHABVCEntityEvent@@@Z 10055710 f   DeerDecoy.obj
 0001:00054970       ?H0x77260003_Main_02@CDeerDecoy@@QAEHABVCEntityEvent@@@Z 10055970 f   DeerDecoy.obj
 0001:000549d0       ?GetName@CDeerDecoy@@UBEABVCTString@@XZ 100559d0 f i DeerDecoy.obj
 0001:000549e0       ??_GCDeerDecoy@@UAEPAXI@Z  100559e0 f i DeerDecoy.obj
 0001:000549e0       ??_ECDeerDecoy@@UAEPAXI@Z  100559e0 f i DeerDecoy.obj
 0001:00054a10       ??1CDeerDecoy@@UAE@XZ      10055a10 f i DeerDecoy.obj
 0001:00054ae0       ?ClearToDefault@@YAXAAW4DBState@@@Z 10055ae0 f i DistantBirds.obj
 0001:00055010       ?CDistantBirds_New@@YAPAVCEntity@@XZ 10056010 f   DistantBirds.obj
 0001:00055130       ?CDistantBirds_OnInitClass@@YAXXZ 10056130 f   DistantBirds.obj
 0001:00055140       ?CDistantBirds_OnEndClass@@YAXXZ 10056140 f   DistantBirds.obj
 0001:00055150       ?CDistantBirds_OnPrecache@@YAXPAVCDLLEntityClass@@J@Z 10056150 f   DistantBirds.obj
 0001:00055160       ?CDistantBirds_OnWorldEnd@@YAXPAVCWorld@@@Z 10056160 f   DistantBirds.obj
 0001:00055170       ?CDistantBirds_OnWorldInit@@YAXPAVCWorld@@@Z 10056170 f   DistantBirds.obj
 0001:00055180       ?CDistantBirds_OnWorldTick@@YAXPAVCWorld@@@Z 10056180 f   DistantBirds.obj
 0001:00055190       ?CDistantBirds_OnWorldRender@@YAXPAVCWorld@@@Z 10056190 f   DistantBirds.obj
 0001:00055260       ?SetDefaultProperties@CDistantBirds@@UAEXXZ 10056260 f   DistantBirds.obj
 0001:000554c0       ?Copy@CDistantBirds@@UAEXAAVCEntity@@K@Z 100564c0 f   DistantBirds.obj
 0001:00055570       ?Write_t@CDistantBirds@@UAEXPAVCTStream@@@Z 10056570 f   DistantBirds.obj
 0001:00055620       ?Read_t@CDistantBirds@@UAEXPAVCTStream@@@Z 10056620 f   DistantBirds.obj
 0001:00055790       ?RenderParticlesForLocalPlayer@CDistantBirds@@QAEXXZ 10056790 f   DistantBirds.obj
 0001:00055920       ?SetHome@CDistantBirds@@QAEXXZ 10056920 f   DistantBirds.obj
 0001:00055a20       ?SelectSpawnPosition@CDistantBirds@@QAEXXZ 10056a20 f   DistantBirds.obj
 0001:00056000       ?Think@CDistantBirds@@QAEXXZ 10057000 f   DistantBirds.obj
 0001:000560f0       ?IsPlayerTooClose@CDistantBirds@@QAEHXZ 100570f0 f   DistantBirds.obj
 0001:00056180       ?Update@CDistantBirds@@QAEXXZ 10057180 f   DistantBirds.obj
 0001:000566d0       ?Setup@CDistantBirds@@QAEXXZ 100576d0 f   DistantBirds.obj
 0001:00056750       ?Main@CDistantBirds@@QAEHABVCEntityEvent@@@Z 10057750 f   DistantBirds.obj
 0001:000567b0       ?H0x76300002_Main_03@CDistantBirds@@QAEHABVCEntityEvent@@@Z 100577b0 f   DistantBirds.obj
 0001:00056840       ?H0x76300000_Main_01@CDistantBirds@@QAEHABVCEntityEvent@@@Z 10057840 f   DistantBirds.obj
 0001:00056930       ?H0x76300001_Main_02@CDistantBirds@@QAEHABVCEntityEvent@@@Z 10057930 f   DistantBirds.obj
 0001:00056990       ?H0x76300003_Main_04@CDistantBirds@@QAEHABVCEntityEvent@@@Z 10057990 f   DistantBirds.obj
 0001:000569f0       ??_GCDistantBirds@@UAEPAXI@Z 100579f0 f i DistantBirds.obj
 0001:000569f0       ??_ECDistantBirds@@UAEPAXI@Z 100579f0 f i DistantBirds.obj
 0001:00056a20       ??1CDistantBirds@@UAE@XZ   10057a20 f i DistantBirds.obj
 0001:00056b60       ?ClearToDefault@@YAXAAW4DoorType@@@Z 10057b60 f i DoorController.obj
 0001:00056f10       ?CDoorController_New@@YAPAVCEntity@@XZ 10057f10 f   DoorController.obj
 0001:00056fd0       ?CDoorController_OnInitClass@@YAXXZ 10057fd0 f   DoorController.obj
 0001:00056fe0       ?CDoorController_OnEndClass@@YAXXZ 10057fe0 f   DoorController.obj
 0001:00056ff0       ?CDoorController_OnPrecache@@YAXPAVCDLLEntityClass@@J@Z 10057ff0 f   DoorController.obj
 0001:00057000       ?CDoorController_OnWorldEnd@@YAXPAVCWorld@@@Z 10058000 f   DoorController.obj
 0001:00057010       ?CDoorController_OnWorldInit@@YAXPAVCWorld@@@Z 10058010 f   DoorController.obj
 0001:00057020       ?CDoorController_OnWorldTick@@YAXPAVCWorld@@@Z 10058020 f   DoorController.obj
 0001:00057030       ?CDoorController_OnWorldRender@@YAXPAVCWorld@@@Z 10058030 f   DoorController.obj
 0001:00057100       ?SetDefaultProperties@CDoorController@@UAEXXZ 10058100 f   DoorController.obj
 0001:00057240       ?GetTarget@CDoorController@@UBEPAVCEntity@@XZ 10058240 f   DoorController.obj
 0001:00057250       ?GetDescription@CDoorController@@UBEABVCTString@@XZ 10058250 f   DoorController.obj
 0001:000572e0       ?CanReactOnEntity@CDoorController@@QAEHPAVCEntity@@@Z 100582e0 f   DoorController.obj
 0001:00057330       ?CanTriggerOnEntity@CDoorController@@QAEHPAVCEntity@@@Z 10058330 f   DoorController.obj
 0001:00057360       ?TriggerDoor@CDoorController@@QAEXXZ 10058360 f   DoorController.obj
 0001:000573a0       ?MirrorAndStretch@CDoorController@@UAEXMH@Z 100583a0 f   DoorController.obj
 0001:000573d0       ?DoorAuto@CDoorController@@QAEHABVCEntityEvent@@@Z 100583d0 f   DoorController.obj
 0001:00057450       ?DoorAutoActive@CDoorController@@QAEHABVCEntityEvent@@@Z 10058450 f   DoorController.obj
 0001:000574b0       ?H0x00dd0006_DoorAutoActive_05@CDoorController@@QAEHABVCEntityEvent@@@Z 100584b0 f   DoorController.obj
 0001:00057520       ?H0x00dd0002_DoorAutoActive_01@CDoorController@@QAEHABVCEntityEvent@@@Z 10058520 f   DoorController.obj
 0001:000575e0       ?H0x00dd0003_DoorAutoActive_02@CDoorController@@QAEHABVCEntityEvent@@@Z 100585e0 f   DoorController.obj
 0001:00057650       ?H0x00dd0004_DoorAutoActive_03@CDoorController@@QAEHABVCEntityEvent@@@Z 10058650 f   DoorController.obj
 0001:000576d0       ?H0x00dd0005_DoorAutoActive_04@CDoorController@@QAEHABVCEntityEvent@@@Z 100586d0 f   DoorController.obj
 0001:00057730       ?H0x00dd0007_DoorAutoActive_06@CDoorController@@QAEHABVCEntityEvent@@@Z 10058730 f   DoorController.obj
 0001:00057740       ?DoorAutoInactive@CDoorController@@QAEHABVCEntityEvent@@@Z 10058740 f   DoorController.obj
 0001:000577a0       ?H0x00dd000d_DoorAutoInactive_05@CDoorController@@QAEHABVCEntityEvent@@@Z 100587a0 f   DoorController.obj
 0001:00057810       ?H0x00dd0009_DoorAutoInactive_01@CDoorController@@QAEHABVCEntityEvent@@@Z 10058810 f   DoorController.obj
 0001:00057880       ?H0x00dd000a_DoorAutoInactive_02@CDoorController@@QAEHABVCEntityEvent@@@Z 10058880 f   DoorController.obj
 0001:000578f0       ?H0x00dd000b_DoorAutoInactive_03@CDoorController@@QAEHABVCEntityEvent@@@Z 100588f0 f   DoorController.obj
 0001:00057970       ?H0x00dd000c_DoorAutoInactive_04@CDoorController@@QAEHABVCEntityEvent@@@Z 10058970 f   DoorController.obj
 0001:000579d0       ?H0x00dd000e_DoorAutoInactive_06@CDoorController@@QAEHABVCEntityEvent@@@Z 100589d0 f   DoorController.obj
 0001:000579e0       ?DoorDummy@CDoorController@@QAEHABVCEntityEvent@@@Z 100589e0 f   DoorController.obj
 0001:00057a50       ?H0x00dd0010_DoorDummy_01@CDoorController@@QAEHABVCEntityEvent@@@Z 10058a50 f   DoorController.obj
 0001:00057a60       ?H0x00dd0011_DoorDummy_02@CDoorController@@QAEHABVCEntityEvent@@@Z 10058a60 f   DoorController.obj
 0001:00057a70       ?DoorTriggered@CDoorController@@QAEHABVCEntityEvent@@@Z 10058a70 f   DoorController.obj
 0001:00057ad0       ?H0x00dd0017_DoorTriggered_05@CDoorController@@QAEHABVCEntityEvent@@@Z 10058ad0 f   DoorController.obj
 0001:00057b40       ?H0x00dd0013_DoorTriggered_01@CDoorController@@QAEHABVCEntityEvent@@@Z 10058b40 f   DoorController.obj
 0001:00057c80       ?H0x00dd0014_DoorTriggered_02@CDoorController@@QAEHABVCEntityEvent@@@Z 10058c80 f   DoorController.obj
 0001:00057cf0       ?H0x00dd0015_DoorTriggered_03@CDoorController@@QAEHABVCEntityEvent@@@Z 10058cf0 f   DoorController.obj
 0001:00057d70       ?H0x00dd0016_DoorTriggered_04@CDoorController@@QAEHABVCEntityEvent@@@Z 10058d70 f   DoorController.obj
 0001:00057dd0       ?H0x00dd0018_DoorTriggered_06@CDoorController@@QAEHABVCEntityEvent@@@Z 10058dd0 f   DoorController.obj
 0001:00057de0       ?DoorTriggeredAuto@CDoorController@@QAEHABVCEntityEvent@@@Z 10058de0 f   DoorController.obj
 0001:00057e40       ?H0x00dd001e_DoorTriggeredAuto_05@CDoorController@@QAEHABVCEntityEvent@@@Z 10058e40 f   DoorController.obj
 0001:00057eb0       ?H0x00dd001a_DoorTriggeredAuto_01@CDoorController@@QAEHABVCEntityEvent@@@Z 10058eb0 f   DoorController.obj
 0001:00057fb0       ?H0x00dd001b_DoorTriggeredAuto_02@CDoorController@@QAEHABVCEntityEvent@@@Z 10058fb0 f   DoorController.obj
 0001:00058020       ?H0x00dd001c_DoorTriggeredAuto_03@CDoorController@@QAEHABVCEntityEvent@@@Z 10059020 f   DoorController.obj
 0001:000580a0       ?H0x00dd001d_DoorTriggeredAuto_04@CDoorController@@QAEHABVCEntityEvent@@@Z 100590a0 f   DoorController.obj
 0001:00058100       ?H0x00dd001f_DoorTriggeredAuto_06@CDoorController@@QAEHABVCEntityEvent@@@Z 10059100 f   DoorController.obj
 0001:00058110       ?Main@CDoorController@@QAEHABVCEntityEvent@@@Z 10059110 f   DoorController.obj
 0001:000581e0       ?H0x00dd0020_Main_01@CDoorController@@QAEHABVCEntityEvent@@@Z 100591e0 f   DoorController.obj
 0001:00058260       ?H0x00dd0021_Main_02@CDoorController@@QAEHABVCEntityEvent@@@Z 10059260 f   DoorController.obj
 0001:00058300       ?GetName@CDoorController@@UBEABVCTString@@XZ 10059300 f i DoorController.obj
 0001:00058310       ?IsTargetable@CDoorController@@UBEHXZ 10059310 f i DoorController.obj
 0001:00058320       ??_GCDoorController@@UAEPAXI@Z 10059320 f i DoorController.obj
 0001:00058320       ??_ECDoorController@@UAEPAXI@Z 10059320 f i DoorController.obj
 0001:00058350       ??1CDoorController@@UAE@XZ 10059350 f i DoorController.obj
 0001:000585a0       ?CEdgeMarker_New@@YAPAVCEntity@@XZ 100595a0 f   EdgeMarker.obj
 0001:00058610       ?CEdgeMarker_OnInitClass@@YAXXZ 10059610 f   EdgeMarker.obj
 0001:00058620       ?CEdgeMarker_OnEndClass@@YAXXZ 10059620 f   EdgeMarker.obj
 0001:00058630       ?CEdgeMarker_OnPrecache@@YAXPAVCDLLEntityClass@@J@Z 10059630 f   EdgeMarker.obj
 0001:00058640       ?CEdgeMarker_OnWorldEnd@@YAXPAVCWorld@@@Z 10059640 f   EdgeMarker.obj
 0001:00058650       ?CEdgeMarker_OnWorldInit@@YAXPAVCWorld@@@Z 10059650 f   EdgeMarker.obj
 0001:00058660       ?CEdgeMarker_OnWorldTick@@YAXPAVCWorld@@@Z 10059660 f   EdgeMarker.obj
 0001:00058670       ?CEdgeMarker_OnWorldRender@@YAXPAVCWorld@@@Z 10059670 f   EdgeMarker.obj
 0001:00058740       ?SetDefaultProperties@CEdgeMarker@@UAEXXZ 10059740 f   EdgeMarker.obj
 0001:00058780       ?GetType@CEdgeMarker@@UAEJXZ 10059780 f   EdgeMarker.obj
 0001:00058790       ?Main@CEdgeMarker@@QAEHABVCEntityEvent@@@Z 10059790 f   EdgeMarker.obj
 0001:00058860       ?H0x772b0000_Main_01@CEdgeMarker@@QAEHABVCEntityEvent@@@Z 10059860 f   EdgeMarker.obj
 0001:00058880       ?H0x772b0001_Main_02@CEdgeMarker@@QAEHABVCEntityEvent@@@Z 10059880 f   EdgeMarker.obj
 0001:00058890       ?GetName@CEdgeMarker@@UBEABVCTString@@XZ 10059890 f i EdgeMarker.obj
 0001:000588a0       ??_GCEdgeMarker@@UAEPAXI@Z 100598a0 f i EdgeMarker.obj
 0001:000588a0       ??_ECEdgeMarker@@UAEPAXI@Z 100598a0 f i EdgeMarker.obj
 0001:000588d0       ??1CEdgeMarker@@UAE@XZ     100598d0 f i EdgeMarker.obj
 0001:00058970       ?HandleHumanBreath@@YAHVCEntityPointer@@PAVCEntity@@VCPlacement3D@@AAJ@Z 10059970 f   EntityBreath.obj
 0001:00058d60       ?HandleDogBreath@@YAHVCEntityPointer@@PAVCEntity@@VCPlacement3D@@AAJ@Z 10059d60 f   EntityBreath.obj
 0001:000590b0       ?HandleDeerBreath@@YAHVCEntityPointer@@PAVCEntity@@VCPlacement3D@@AAJ@Z 1005a0b0 f   EntityBreath.obj
 0001:00059400       ?CEntityBreath_New@@YAPAVCEntity@@XZ 1005a400 f   EntityBreath.obj
 0001:00059460       ?CEntityBreath_OnInitClass@@YAXXZ 1005a460 f   EntityBreath.obj
 0001:00059470       ?CEntityBreath_OnEndClass@@YAXXZ 1005a470 f   EntityBreath.obj
 0001:00059480       ?CEntityBreath_OnPrecache@@YAXPAVCDLLEntityClass@@J@Z 1005a480 f   EntityBreath.obj
 0001:00059490       ?CEntityBreath_OnWorldEnd@@YAXPAVCWorld@@@Z 1005a490 f   EntityBreath.obj
 0001:000594a0       ?CEntityBreath_OnWorldInit@@YAXPAVCWorld@@@Z 1005a4a0 f   EntityBreath.obj
 0001:000594b0       ?CEntityBreath_OnWorldTick@@YAXPAVCWorld@@@Z 1005a4b0 f   EntityBreath.obj
 0001:000594c0       ?CEntityBreath_OnWorldRender@@YAXPAVCWorld@@@Z 1005a4c0 f   EntityBreath.obj
 0001:00059590       ?SetDefaultProperties@CEntityBreath@@UAEXXZ 1005a590 f   EntityBreath.obj
 0001:000596c0       ?GetType@CEntityBreath@@UAEJXZ 1005a6c0 f   EntityBreath.obj
 0001:000596d0       ??0CEntityBreath@@QAE@XZ   1005a6d0 f   EntityBreath.obj
 0001:00059770       ??1CEntityBreath@@UAE@XZ   1005a770 f   EntityBreath.obj
 0001:00059840       ?ChecksumForSync@CEntityBreath@@UAEXAAKJ@Z 1005a840 f   EntityBreath.obj
 0001:00059850       ?CreateParticles@CEntityBreath@@QAEXXZ 1005a850 f   EntityBreath.obj
 0001:00059b90       ?AddBreather@CEntityBreath@@QAEHPAVCEntity@@@Z 1005ab90 f   EntityBreath.obj
 0001:00059c90       ?RemoveBreather@CEntityBreath@@QAEHPAVCEntity@@@Z 1005ac90 f   EntityBreath.obj
 0001:00059d10       ?Copy@CEntityBreath@@UAEXAAVCEntity@@K@Z 1005ad10 f   EntityBreath.obj
 0001:00059d40       ?Write_t@CEntityBreath@@UAEXPAVCTStream@@@Z 1005ad40 f   EntityBreath.obj
 0001:00059dd0       ?Read_t@CEntityBreath@@UAEXPAVCTStream@@@Z 1005add0 f   EntityBreath.obj
 0001:00059f60       ?FindAllBreathers@CEntityBreath@@QAEXXZ 1005af60 f   EntityBreath.obj
 0001:0005a010       ?AdjustShadingParameters@CEntityBreath@@UAEHAAV?$Vector@M$02@@AAK1@Z 1005b010 f   EntityBreath.obj
 0001:0005a020       ?Update@CEntityBreath@@QAEXXZ 1005b020 f   EntityBreath.obj
 0001:0005a3c0       ?Setup@CEntityBreath@@QAEXXZ 1005b3c0 f   EntityBreath.obj
 0001:0005a410       ?Destroy@CEntityBreath@@UAEXXZ 1005b410 f   EntityBreath.obj
 0001:0005a420       ?Main@CEntityBreath@@QAEHABVCEntityEvent@@@Z 1005b420 f   EntityBreath.obj
 0001:0005a490       ?H0x791c0000_Main_01@CEntityBreath@@QAEHABVCEntityEvent@@@Z 1005b490 f   EntityBreath.obj
 0001:0005a510       ?H0x791c0001_Main_02@CEntityBreath@@QAEHABVCEntityEvent@@@Z 1005b510 f   EntityBreath.obj
 0001:0005a8b0       ?H0x791c0004_Main_05@CEntityBreath@@QAEHABVCEntityEvent@@@Z 1005b8b0 f   EntityBreath.obj
 0001:0005a920       ?H0x791c0002_Main_03@CEntityBreath@@QAEHABVCEntityEvent@@@Z 1005b920 f   EntityBreath.obj
 0001:0005aa10       ?H0x791c0003_Main_04@CEntityBreath@@QAEHABVCEntityEvent@@@Z 1005ba10 f   EntityBreath.obj
 0001:0005aa70       ?H0x791c0005_Main_06@CEntityBreath@@QAEHABVCEntityEvent@@@Z 1005ba70 f   EntityBreath.obj
 0001:0005aad0       ??_ECEntityBreath@@UAEPAXI@Z 1005bad0 f i EntityBreath.obj
 0001:0005aad0       ??_GCEntityBreath@@UAEPAXI@Z 1005bad0 f i EntityBreath.obj
 0001:0005b130       ?CEnvironmentBase_New@@YAPAVCEntity@@XZ 1005c130 f   EnvironmentBase.obj
 0001:0005b290       ?CEnvironmentBase_OnInitClass@@YAXXZ 1005c290 f   EnvironmentBase.obj
 0001:0005b2a0       ?CEnvironmentBase_OnEndClass@@YAXXZ 1005c2a0 f   EnvironmentBase.obj
 0001:0005b2b0       ?CEnvironmentBase_OnPrecache@@YAXPAVCDLLEntityClass@@J@Z 1005c2b0 f   EnvironmentBase.obj
 0001:0005b2c0       ?CEnvironmentBase_OnWorldEnd@@YAXPAVCWorld@@@Z 1005c2c0 f   EnvironmentBase.obj
 0001:0005b2d0       ?CEnvironmentBase_OnWorldInit@@YAXPAVCWorld@@@Z 1005c2d0 f   EnvironmentBase.obj
 0001:0005b2e0       ?CEnvironmentBase_OnWorldTick@@YAXPAVCWorld@@@Z 1005c2e0 f   EnvironmentBase.obj
 0001:0005b2f0       ?CEnvironmentBase_OnWorldRender@@YAXPAVCWorld@@@Z 1005c2f0 f   EnvironmentBase.obj
 0001:0005b3c0       ?SetDefaultProperties@CEnvironmentBase@@UAEXXZ 1005c3c0 f   EnvironmentBase.obj
 0001:0005b700       ?MovesByTargetedRoute@CEnvironmentBase@@UBEHAAVCTString@@@Z 1005c700 f   EnvironmentBase.obj
 0001:0005b730       ?DropsMarker@CEnvironmentBase@@UBEHAAVCTFileName@@AAVCTString@@@Z 1005c730 f   EnvironmentBase.obj
 0001:0005b7d0       ?GetDescription@CEnvironmentBase@@UBEABVCTString@@XZ 1005c7d0 f   EnvironmentBase.obj
 0001:0005b810       ?GetAnimData@CEnvironmentBase@@UAEPAVCAnimData@@J@Z 1005c810 f   EnvironmentBase.obj
 0001:0005b8f0       ?NextMarker@CEnvironmentBase@@QAEHXZ 1005c8f0 f   EnvironmentBase.obj
 0001:0005b9a0       ?CalcRotation@CEnvironmentBase@@QAEXMAAV?$Vector@M$02@@@Z 1005c9a0 f   EnvironmentBase.obj
 0001:0005ba40       ?StopMoving@CEnvironmentBase@@QAEXXZ 1005ca40 f   EnvironmentBase.obj
 0001:0005ba90       ?MoveToPosition@CEnvironmentBase@@QAEXXZ 1005ca90 f   EnvironmentBase.obj
 0001:0005bbe0       ?CalcDestination@CEnvironmentBase@@QAEXXZ 1005cbe0 f   EnvironmentBase.obj
 0001:0005bc80       ?MarkerParameters@CEnvironmentBase@@QAEXXZ 1005cc80 f   EnvironmentBase.obj
 0001:0005bcd0       ?Initialize@CEnvironmentBase@@QAEXXZ 1005ccd0 f   EnvironmentBase.obj
 0001:0005c000       ?InitializeWatcher@CEnvironmentBase@@QAEXM@Z 1005d000 f   EnvironmentBase.obj
 0001:0005c100       ?PlayDefaultAnim@CEnvironmentBase@@QAEXXZ 1005d100 f   EnvironmentBase.obj
 0001:0005c120       ?PlayMarkerAnimation@CEnvironmentBase@@QAEXXZ 1005d120 f   EnvironmentBase.obj
 0001:0005c140       ?ChangeDefaultAnim@CEnvironmentBase@@QAEXXZ 1005d140 f   EnvironmentBase.obj
 0001:0005c170       ?WaitOnMarker@CEnvironmentBase@@QAEXXZ 1005d170 f   EnvironmentBase.obj
 0001:0005c1d0       ?MoveToMarker@CEnvironmentBase@@QAEHABVCEntityEvent@@@Z 1005d1d0 f   EnvironmentBase.obj
 0001:0005c260       ?H0x03840003_MoveToMarker_03@CEnvironmentBase@@QAEHABVCEntityEvent@@@Z 1005d260 f   EnvironmentBase.obj
 0001:0005c340       ?H0x03840001_MoveToMarker_01@CEnvironmentBase@@QAEHABVCEntityEvent@@@Z 1005d340 f   EnvironmentBase.obj
 0001:0005c3d0       ?H0x03840002_MoveToMarker_02@CEnvironmentBase@@QAEHABVCEntityEvent@@@Z 1005d3d0 f   EnvironmentBase.obj
 0001:0005c430       ?H0x03840004_MoveToMarker_04@CEnvironmentBase@@QAEHABVCEntityEvent@@@Z 1005d430 f   EnvironmentBase.obj
 0001:0005c490       ?H0x03840005_MoveToMarker_05@CEnvironmentBase@@QAEHABVCEntityEvent@@@Z 1005d490 f   EnvironmentBase.obj
 0001:0005c4f0       ?Activate@CEnvironmentBase@@QAEHABVCEntityEvent@@@Z 1005d4f0 f   EnvironmentBase.obj
 0001:0005c560       ?H0x03840007_Activate_01@CEnvironmentBase@@QAEHABVCEntityEvent@@@Z 1005d560 f   EnvironmentBase.obj
 0001:0005c610       ?H0x03840008_Activate_02@CEnvironmentBase@@QAEHABVCEntityEvent@@@Z 1005d610 f   EnvironmentBase.obj
 0001:0005c620       ?Stop@CEnvironmentBase@@QAEHABVCEntityEvent@@@Z 1005d620 f   EnvironmentBase.obj
 0001:0005c690       ?H0x0384000a_Stop_01@CEnvironmentBase@@QAEHABVCEntityEvent@@@Z 1005d690 f   EnvironmentBase.obj
 0001:0005c720       ?H0x0384000b_Stop_02@CEnvironmentBase@@QAEHABVCEntityEvent@@@Z 1005d720 f   EnvironmentBase.obj
 0001:0005c730       ?DoAction@CEnvironmentBase@@QAEHABVCEntityEvent@@@Z 1005d730 f   EnvironmentBase.obj
 0001:0005c790       ?H0x03840015_DoAction_09@CEnvironmentBase@@QAEHABVCEntityEvent@@@Z 1005d790 f   EnvironmentBase.obj
 0001:0005c840       ?H0x0384000d_DoAction_01@CEnvironmentBase@@QAEHABVCEntityEvent@@@Z 1005d840 f   EnvironmentBase.obj
 0001:0005c8c0       ?H0x0384000e_DoAction_02@CEnvironmentBase@@QAEHABVCEntityEvent@@@Z 1005d8c0 f   EnvironmentBase.obj
 0001:0005c920       ?H0x0384000f_DoAction_03@CEnvironmentBase@@QAEHABVCEntityEvent@@@Z 1005d920 f   EnvironmentBase.obj
 0001:0005c990       ?H0x03840010_DoAction_04@CEnvironmentBase@@QAEHABVCEntityEvent@@@Z 1005d990 f   EnvironmentBase.obj
 0001:0005ca30       ?H0x03840011_DoAction_05@CEnvironmentBase@@QAEHABVCEntityEvent@@@Z 1005da30 f   EnvironmentBase.obj
 0001:0005cad0       ?H0x03840012_DoAction_06@CEnvironmentBase@@QAEHABVCEntityEvent@@@Z 1005dad0 f   EnvironmentBase.obj
 0001:0005cb50       ?H0x03840013_DoAction_07@CEnvironmentBase@@QAEHABVCEntityEvent@@@Z 1005db50 f   EnvironmentBase.obj
 0001:0005cbb0       ?H0x03840014_DoAction_08@CEnvironmentBase@@QAEHABVCEntityEvent@@@Z 1005dbb0 f   EnvironmentBase.obj
 0001:0005cc10       ?H0x03840016_DoAction_10@CEnvironmentBase@@QAEHABVCEntityEvent@@@Z 1005dc10 f   EnvironmentBase.obj
 0001:0005cc20       ?MainLoop@CEnvironmentBase@@QAEHABVCEntityEvent@@@Z 1005dc20 f   EnvironmentBase.obj
 0001:0005cc80       ?H0x03840018_MainLoop_01@CEnvironmentBase@@QAEHABVCEntityEvent@@@Z 1005dc80 f   EnvironmentBase.obj
 0001:0005cd20       ?H0x03840019_MainLoop_02@CEnvironmentBase@@QAEHABVCEntityEvent@@@Z 1005dd20 f   EnvironmentBase.obj
 0001:0005cda0       ?Main@CEnvironmentBase@@QAEHABVCEntityEvent@@@Z 1005dda0 f   EnvironmentBase.obj
 0001:0005ce20       ?H0x0384001a_Main_01@CEnvironmentBase@@QAEHABVCEntityEvent@@@Z 1005de20 f   EnvironmentBase.obj
 0001:0005cea0       ?H0x0384001b_Main_02@CEnvironmentBase@@QAEHABVCEntityEvent@@@Z 1005dea0 f   EnvironmentBase.obj
 0001:0005cf40       ?GetName@CEnvironmentBase@@UBEABVCTString@@XZ 1005df40 f i EnvironmentBase.obj
 0001:0005cf50       ?IsTargetable@CEnvironmentBase@@UBEHXZ 1005df50 f i EnvironmentBase.obj
 0001:0005cf60       ??_ECEnvironmentBase@@UAEPAXI@Z 1005df60 f i EnvironmentBase.obj
 0001:0005cf60       ??_GCEnvironmentBase@@UAEPAXI@Z 1005df60 f i EnvironmentBase.obj
 0001:0005cf90       ??1CEnvironmentBase@@UAE@XZ 1005df90 f i EnvironmentBase.obj
 0001:0005d390       ?CEnvironmentMarker_New@@YAPAVCEntity@@XZ 1005e390 f   EnvironmentMarker.obj
 0001:0005d470       ?CEnvironmentMarker_OnInitClass@@YAXXZ 1005e470 f   EnvironmentMarker.obj
 0001:0005d480       ?CEnvironmentMarker_OnEndClass@@YAXXZ 1005e480 f   EnvironmentMarker.obj
 0001:0005d490       ?CEnvironmentMarker_OnPrecache@@YAXPAVCDLLEntityClass@@J@Z 1005e490 f   EnvironmentMarker.obj
 0001:0005d4a0       ?CEnvironmentMarker_OnWorldEnd@@YAXPAVCWorld@@@Z 1005e4a0 f   EnvironmentMarker.obj
 0001:0005d4b0       ?CEnvironmentMarker_OnWorldInit@@YAXPAVCWorld@@@Z 1005e4b0 f   EnvironmentMarker.obj
 0001:0005d4c0       ?CEnvironmentMarker_OnWorldTick@@YAXPAVCWorld@@@Z 1005e4c0 f   EnvironmentMarker.obj
 0001:0005d4d0       ?CEnvironmentMarker_OnWorldRender@@YAXPAVCWorld@@@Z 1005e4d0 f   EnvironmentMarker.obj
 0001:0005d530       ?SetDefaultProperties@CEnvironmentMarker@@UAEXXZ 1005e530 f   EnvironmentMarker.obj
 0001:0005d610       ?MovesByTargetedRoute@CEnvironmentMarker@@UBEHAAVCTString@@@Z 1005e610 f   EnvironmentMarker.obj
 0001:0005d640       ?DropsMarker@CEnvironmentMarker@@UBEHAAVCTFileName@@AAVCTString@@@Z 1005e640 f   EnvironmentMarker.obj
 0001:0005d6e0       ?GetAnimData@CEnvironmentMarker@@UAEPAVCAnimData@@J@Z 1005e6e0 f   EnvironmentMarker.obj
 0001:0005d710       ?SetModelObject@CEnvironmentMarker@@QAEXXZ 1005e710 f   EnvironmentMarker.obj
 0001:0005d7e0       ?Main@CEnvironmentMarker@@QAEHABVCEntityEvent@@@Z 1005e7e0 f   EnvironmentMarker.obj
 0001:0005d840       ??_GCEnvironmentMarker@@UAEPAXI@Z 1005e840 f i EnvironmentMarker.obj
 0001:0005d840       ??_ECEnvironmentMarker@@UAEPAXI@Z 1005e840 f i EnvironmentMarker.obj
 0001:0005d870       ??1CEnvironmentMarker@@UAE@XZ 1005e870 f i EnvironmentMarker.obj
 0001:0005d920       ??_ECMarker@@UAEPAXI@Z     1005e920 f i EnvironmentMarker.obj
 0001:0005d920       ??_GCMarker@@UAEPAXI@Z     1005e920 f i EnvironmentMarker.obj
 0001:0005da50       ?CFieldBlind_New@@YAPAVCEntity@@XZ 1005ea50 f   FieldBlind.obj
 0001:0005daf0       ?CFieldBlind_OnInitClass@@YAXXZ 1005eaf0 f   FieldBlind.obj
 0001:0005db00       ?CFieldBlind_OnEndClass@@YAXXZ 1005eb00 f   FieldBlind.obj
 0001:0005db10       ?CFieldBlind_OnPrecache@@YAXPAVCDLLEntityClass@@J@Z 1005eb10 f   FieldBlind.obj
 0001:0005db20       ?CFieldBlind_OnWorldEnd@@YAXPAVCWorld@@@Z 1005eb20 f   FieldBlind.obj
 0001:0005db30       ?CFieldBlind_OnWorldInit@@YAXPAVCWorld@@@Z 1005eb30 f   FieldBlind.obj
 0001:0005db40       ?CFieldBlind_OnWorldTick@@YAXPAVCWorld@@@Z 1005eb40 f   FieldBlind.obj
 0001:0005db50       ?CFieldBlind_OnWorldRender@@YAXPAVCWorld@@@Z 1005eb50 f   FieldBlind.obj
 0001:0005dc20       ?SetDefaultProperties@CFieldBlind@@UAEXXZ 1005ec20 f   FieldBlind.obj
 0001:0005dc80       ?SetupFieldSettings@CFieldBlind@@QAEXXZ 1005ec80 f   FieldBlind.obj
 0001:0005dcb0       ?GetFieldSettings@CFieldBlind@@UAEPAVCFieldSettings@@XZ 1005ecb0 f   FieldBlind.obj
 0001:0005dcd0       ?DoSpecial@CFieldBlind@@QAEXPAVCPlayer@@@Z 1005ecd0 f   FieldBlind.obj
 0001:0005dce0       ?Main@CFieldBlind@@QAEHABVCEntityEvent@@@Z 1005ece0 f   FieldBlind.obj
 0001:0005dd60       ?H0x7a190002_Main_03@CFieldBlind@@QAEHABVCEntityEvent@@@Z 1005ed60 f   FieldBlind.obj
 0001:0005ddd0       ?H0x7a190000_Main_01@CFieldBlind@@QAEHABVCEntityEvent@@@Z 1005edd0 f   FieldBlind.obj
 0001:0005df30       ?H0x7a190001_Main_02@CFieldBlind@@QAEHABVCEntityEvent@@@Z 1005ef30 f   FieldBlind.obj
 0001:0005df90       ?H0x7a190003_Main_04@CFieldBlind@@QAEHABVCEntityEvent@@@Z 1005ef90 f   FieldBlind.obj
 0001:0005dff0       ?GetName@CFieldBlind@@UBEABVCTString@@XZ 1005eff0 f i FieldBlind.obj
 0001:0005e000       ?IsTargetable@CFieldBlind@@UBEHXZ 1005f000 f i FieldBlind.obj
 0001:0005e010       ??_GCFieldBlind@@UAEPAXI@Z 1005f010 f i FieldBlind.obj
 0001:0005e010       ??_ECFieldBlind@@UAEPAXI@Z 1005f010 f i FieldBlind.obj
 0001:0005e040       ??1CFieldBlind@@UAE@XZ     1005f040 f i FieldBlind.obj
 0001:0005e120       ?ClearToDefault@@YAXAAW4FFState@@@Z 1005f120 f i Firefly.obj
 0001:0005e130       ?ClearToDefault@@YAXAAW4FFSTime@@@Z 1005f130 f i Firefly.obj
 0001:0005e660       ?CFirefly_New@@YAPAVCEntity@@XZ 1005f660 f   Firefly.obj
 0001:0005e6c0       ?CFirefly_OnInitClass@@YAXXZ 1005f6c0 f   Firefly.obj
 0001:0005e6d0       ?CFirefly_OnEndClass@@YAXXZ 1005f6d0 f   Firefly.obj
 0001:0005e6e0       ?CFirefly_OnPrecache@@YAXPAVCDLLEntityClass@@J@Z 1005f6e0 f   Firefly.obj
 0001:0005e6f0       ?CFirefly_OnWorldEnd@@YAXPAVCWorld@@@Z 1005f6f0 f   Firefly.obj
 0001:0005e700       ?CFirefly_OnWorldInit@@YAXPAVCWorld@@@Z 1005f700 f   Firefly.obj
 0001:0005e710       ?CFirefly_OnWorldTick@@YAXPAVCWorld@@@Z 1005f710 f   Firefly.obj
 0001:0005e720       ?CFirefly_OnWorldRender@@YAXPAVCWorld@@@Z 1005f720 f   Firefly.obj
 0001:0005e7f0       ?SetDefaultProperties@CFirefly@@UAEXXZ 1005f7f0 f   Firefly.obj
 0001:0005e9d0       ??0CFirefly@@QAE@XZ        1005f9d0 f   Firefly.obj
 0001:0005ea60       ??1CFirefly@@UAE@XZ        1005fa60 f   Firefly.obj
 0001:0005eb00       ?Copy@CFirefly@@UAEXAAVCEntity@@K@Z 1005fb00 f   Firefly.obj
 0001:0005eb30       ?Write_t@CFirefly@@UAEXPAVCTStream@@@Z 1005fb30 f   Firefly.obj
 0001:0005ebe0       ?Read_t@CFirefly@@UAEXPAVCTStream@@@Z 1005fbe0 f   Firefly.obj
 0001:0005ecb0       ?SetMeshGlow@CFirefly@@QAEXM@Z 1005fcb0 f   Firefly.obj
 0001:0005ed80       ?RenderParticles@CFirefly@@UAEXXZ 1005fd80 f   Firefly.obj
 0001:0005ee20       ?AdjustShadingParameters@CFirefly@@UAEHAAV?$Vector@M$02@@AAK1@Z 1005fe20 f   Firefly.obj
 0001:0005ee90       ?SelectRandomDesination@CFirefly@@QAEXXZ 1005fe90 f   Firefly.obj
 0001:0005ef90       ?Think@CFirefly@@QAEXXZ    1005ff90 f   Firefly.obj
 0001:0005f020       ?UpdateGlow@CFirefly@@QAEXM@Z 10060020 f   Firefly.obj
 0001:0005f150       ?Update@CFirefly@@QAEXXZ   10060150 f   Firefly.obj
 0001:0005f7a0       ?Setup@CFirefly@@QAEXXZ    100607a0 f   Firefly.obj
 0001:0005f850       ?Destroy@CFirefly@@UAEXXZ  10060850 f   Firefly.obj
 0001:0005f870       ?Main@CFirefly@@QAEHABVCEntityEvent@@@Z 10060870 f   Firefly.obj
 0001:0005f8f0       ?H0x762e0002_Main_03@CFirefly@@QAEHABVCEntityEvent@@@Z 100608f0 f   Firefly.obj
 0001:0005f980       ?H0x762e0000_Main_01@CFirefly@@QAEHABVCEntityEvent@@@Z 10060980 f   Firefly.obj
 0001:0005fa90       ?H0x762e0001_Main_02@CFirefly@@QAEHABVCEntityEvent@@@Z 10060a90 f   Firefly.obj
 0001:0005faf0       ?H0x762e0003_Main_04@CFirefly@@QAEHABVCEntityEvent@@@Z 10060af0 f   Firefly.obj
 0001:0005fb50       ??_ECFirefly@@UAEPAXI@Z    10060b50 f i Firefly.obj
 0001:0005fb50       ??_GCFirefly@@UAEPAXI@Z    10060b50 f i Firefly.obj
 0001:0005fe60       ?CFireflySpawner_New@@YAPAVCEntity@@XZ 10060e60 f   FireflySpawner.obj
 0001:0005fec0       ?CFireflySpawner_OnInitClass@@YAXXZ 10060ec0 f   FireflySpawner.obj
 0001:0005fed0       ?CFireflySpawner_OnEndClass@@YAXXZ 10060ed0 f   FireflySpawner.obj
 0001:0005fee0       ?CFireflySpawner_OnPrecache@@YAXPAVCDLLEntityClass@@J@Z 10060ee0 f   FireflySpawner.obj
 0001:0005fef0       ?CFireflySpawner_OnWorldEnd@@YAXPAVCWorld@@@Z 10060ef0 f   FireflySpawner.obj
 0001:0005ff00       ?CFireflySpawner_OnWorldInit@@YAXPAVCWorld@@@Z 10060f00 f   FireflySpawner.obj
 0001:0005ff10       ?CFireflySpawner_OnWorldTick@@YAXPAVCWorld@@@Z 10060f10 f   FireflySpawner.obj
 0001:0005ff20       ?CFireflySpawner_OnWorldRender@@YAXPAVCWorld@@@Z 10060f20 f   FireflySpawner.obj
 0001:0005fff0       ?SetDefaultProperties@CFireflySpawner@@UAEXXZ 10060ff0 f   FireflySpawner.obj
 0001:00060080       ??0CFireflySpawner@@QAE@XZ 10061080 f   FireflySpawner.obj
 0001:00060100       ??1CFireflySpawner@@UAE@XZ 10061100 f   FireflySpawner.obj
 0001:00060200       ?Copy@CFireflySpawner@@UAEXAAVCEntity@@K@Z 10061200 f   FireflySpawner.obj
 0001:00060290       ?Write_t@CFireflySpawner@@UAEXPAVCTStream@@@Z 10061290 f   FireflySpawner.obj
 0001:00060380       ?Read_t@CFireflySpawner@@UAEXPAVCTStream@@@Z 10061380 f   FireflySpawner.obj
 0001:00060460       ?SelectRandomSpawnPosition@CFireflySpawner@@QAEXAAV?$Vector@M$02@@0@Z 10061460 f   FireflySpawner.obj
 0001:00060530       ?SpawnFirefly@CFireflySpawner@@QAEXXZ 10061530 f   FireflySpawner.obj
 0001:00060660       ?IsAnyPlayerInRange@CFireflySpawner@@QAEHXZ 10061660 f   FireflySpawner.obj
 0001:00060710       ?KillAllSpawned@CFireflySpawner@@QAEXXZ 10061710 f   FireflySpawner.obj
 0001:00060760       ?RemoveFirefly@CFireflySpawner@@QAEXPAVCFirefly@@@Z 10061760 f   FireflySpawner.obj
 0001:000607e0       ?UpdateSpawns@CFireflySpawner@@QAEXXZ 100617e0 f   FireflySpawner.obj
 0001:00060810       ?Update@CFireflySpawner@@QAEXXZ 10061810 f   FireflySpawner.obj
 0001:00060850       ?Setup@CFireflySpawner@@QAEXXZ 10061850 f   FireflySpawner.obj
 0001:000608b0       ?PoolInitialize@CFireflySpawner@@QAEXXZ 100618b0 f   FireflySpawner.obj
 0001:00060920       ?Destroy@CFireflySpawner@@UAEXXZ 10061920 f   FireflySpawner.obj
 0001:00060940       ?Main@CFireflySpawner@@QAEHABVCEntityEvent@@@Z 10061940 f   FireflySpawner.obj
 0001:000609c0       ?H0x762f0002_Main_03@CFireflySpawner@@QAEHABVCEntityEvent@@@Z 100619c0 f   FireflySpawner.obj
 0001:00060a50       ?H0x762f0000_Main_01@CFireflySpawner@@QAEHABVCEntityEvent@@@Z 10061a50 f   FireflySpawner.obj
 0001:00060b10       ?H0x762f0001_Main_02@CFireflySpawner@@QAEHABVCEntityEvent@@@Z 10061b10 f   FireflySpawner.obj
 0001:00060b70       ?H0x762f0003_Main_04@CFireflySpawner@@QAEHABVCEntityEvent@@@Z 10061b70 f   FireflySpawner.obj
 0001:00060bd0       ?GetName@CFireflySpawner@@UBEABVCTString@@XZ 10061bd0 f i FireflySpawner.obj
 0001:00060be0       ?GetDescription@CFireflySpawner@@UBEABVCTString@@XZ 10061be0 f i FireflySpawner.obj
 0001:00060bf0       ??_GCFireflySpawner@@UAEPAXI@Z 10061bf0 f i FireflySpawner.obj
 0001:00060bf0       ??_ECFireflySpawner@@UAEPAXI@Z 10061bf0 f i FireflySpawner.obj
 0001:00060c20       ?New@?$CStaticArray@VCEntityPointer@@@@QAEXJ@Z 10061c20 f i FireflySpawner.obj
 0001:00060ca0       ??0CEntityPointer@@QAE@XZ  10061ca0 f i FireflySpawner.obj
 0001:00060cb0       ??A?$CStaticArray@VCEntityPointer@@@@QAEAAVCEntityPointer@@J@Z 10061cb0 f i FireflySpawner.obj
 0001:00060cc0       ??_ECEntityPointer@@QAEPAXI@Z 10061cc0 f i FireflySpawner.obj
 0001:00060d30       ?ClearToDefault@@YAXAAW4FogAttenuationType@@@Z 10061d30 f i FogMarker.obj
 0001:00060d40       ?ClearToDefault@@YAXAAW4FogGraduationType2@@@Z 10061d40 f i FogMarker.obj
 0001:00061140       ?CFogMarker_New@@YAPAVCEntity@@XZ 10062140 f   FogMarker.obj
 0001:000611e0       ?CFogMarker_OnInitClass@@YAXXZ 100621e0 f   FogMarker.obj
 0001:000611f0       ?CFogMarker_OnEndClass@@YAXXZ 100621f0 f   FogMarker.obj
 0001:00061200       ?CFogMarker_OnPrecache@@YAXPAVCDLLEntityClass@@J@Z 10062200 f   FogMarker.obj
 0001:00061210       ?CFogMarker_OnWorldEnd@@YAXPAVCWorld@@@Z 10062210 f   FogMarker.obj
 0001:00061220       ?CFogMarker_OnWorldInit@@YAXPAVCWorld@@@Z 10062220 f   FogMarker.obj
 0001:00061230       ?CFogMarker_OnWorldTick@@YAXPAVCWorld@@@Z 10062230 f   FogMarker.obj
 0001:00061240       ?CFogMarker_OnWorldRender@@YAXPAVCWorld@@@Z 10062240 f   FogMarker.obj
 0001:000612a0       ?SetDefaultProperties@CFogMarker@@UAEXXZ 100622a0 f   FogMarker.obj
 0001:00061340       ?GetFogName@CFogMarker@@QAEABVCTString@@XZ 10062340 f   FogMarker.obj
 0001:00061350       ?GetFog@CFogMarker@@QAEXAAVCFogParameters@@@Z 10062350 f   FogMarker.obj
 0001:000613f0       ?Main@CFogMarker@@QAEHABVCEntityEvent@@@Z 100623f0 f   FogMarker.obj
 0001:00061670       ?IsImportant@CFogMarker@@UBEHXZ 10062670 f i FogMarker.obj
 0001:00061680       ??_GCFogMarker@@UAEPAXI@Z  10062680 f i FogMarker.obj
 0001:00061680       ??_ECFogMarker@@UAEPAXI@Z  10062680 f i FogMarker.obj
 0001:000616b0       ??1CFogMarker@@UAE@XZ      100626b0 f i FogMarker.obj
 0001:000617b0       ?CGlobal_New@@YAPAVCEntity@@XZ 100627b0 f   Global.obj
 0001:00061810       ?CGlobal_OnInitClass@@YAXXZ 10062810 f   Global.obj
 0001:00061820       ?CGlobal_OnEndClass@@YAXXZ 10062820 f   Global.obj
 0001:00061830       ?CGlobal_OnPrecache@@YAXPAVCDLLEntityClass@@J@Z 10062830 f   Global.obj
 0001:00061840       ?CGlobal_OnWorldEnd@@YAXPAVCWorld@@@Z 10062840 f   Global.obj
 0001:00061850       ?CGlobal_OnWorldInit@@YAXPAVCWorld@@@Z 10062850 f   Global.obj
 0001:00061860       ?CGlobal_OnWorldTick@@YAXPAVCWorld@@@Z 10062860 f   Global.obj
 0001:00061870       ?CGlobal_OnWorldRender@@YAXPAVCWorld@@@Z 10062870 f   Global.obj
 0001:00061940       ?MakeCopy@EStop@@UAEPAVCEntityEvent@@XZ 10062940 f   Global.obj
 0001:00061970       ??0EStop@@QAE@XZ           10062970 f   Global.obj
 0001:00061980       ?MakeCopy@EStart@@UAEPAVCEntityEvent@@XZ 10062980 f   Global.obj
 0001:000619c0       ??0EStart@@QAE@XZ          100629c0 f   Global.obj
 0001:00061a30       ?MakeCopy@EActivate@@UAEPAVCEntityEvent@@XZ 10062a30 f   Global.obj
 0001:00061a60       ??0EActivate@@QAE@XZ       10062a60 f   Global.obj
 0001:00061a70       ?MakeCopy@EDeactivate@@UAEPAVCEntityEvent@@XZ 10062a70 f   Global.obj
 0001:00061aa0       ??0EDeactivate@@QAE@XZ     10062aa0 f   Global.obj
 0001:00061ab0       ?MakeCopy@EEnvironmentStart@@UAEPAVCEntityEvent@@XZ 10062ab0 f   Global.obj
 0001:00061ae0       ??0EEnvironmentStart@@QAE@XZ 10062ae0 f   Global.obj
 0001:00061af0       ?MakeCopy@EEnvironmentStop@@UAEPAVCEntityEvent@@XZ 10062af0 f   Global.obj
 0001:00061b20       ??0EEnvironmentStop@@QAE@XZ 10062b20 f   Global.obj
 0001:00061b30       ?MakeCopy@EEnd@@UAEPAVCEntityEvent@@XZ 10062b30 f   Global.obj
 0001:00061b60       ??0EEnd@@QAE@XZ            10062b60 f   Global.obj
 0001:00061b70       ?MakeCopy@ETrigger@@UAEPAVCEntityEvent@@XZ 10062b70 f   Global.obj
 0001:00061bb0       ??0ETrigger@@QAE@XZ        10062bb0 f   Global.obj
 0001:00061c20       ?MakeCopy@ETeleportMovingBrush@@UAEPAVCEntityEvent@@XZ 10062c20 f   Global.obj
 0001:00061c50       ??0ETeleportMovingBrush@@QAE@XZ 10062c50 f   Global.obj
 0001:00061c60       ?MakeCopy@EReminder@@UAEPAVCEntityEvent@@XZ 10062c60 f   Global.obj
 0001:00061ca0       ??0EReminder@@QAE@XZ       10062ca0 f   Global.obj
 0001:00061cc0       ?MakeCopy@EStartAttack@@UAEPAVCEntityEvent@@XZ 10062cc0 f   Global.obj
 0001:00061cf0       ??0EStartAttack@@QAE@XZ    10062cf0 f   Global.obj
 0001:00061d00       ?MakeCopy@EStopAttack@@UAEPAVCEntityEvent@@XZ 10062d00 f   Global.obj
 0001:00061d30       ??0EStopAttack@@QAE@XZ     10062d30 f   Global.obj
 0001:00061d40       ?MakeCopy@EStopBlindness@@UAEPAVCEntityEvent@@XZ 10062d40 f   Global.obj
 0001:00061d70       ??0EStopBlindness@@QAE@XZ  10062d70 f   Global.obj
 0001:00061d80       ?MakeCopy@EStopDeafness@@UAEPAVCEntityEvent@@XZ 10062d80 f   Global.obj
 0001:00061db0       ??0EStopDeafness@@QAE@XZ   10062db0 f   Global.obj
 0001:00061dc0       ?MakeCopy@EReceiveScore@@UAEPAVCEntityEvent@@XZ 10062dc0 f   Global.obj
 0001:00061e00       ??0EReceiveScore@@QAE@XZ   10062e00 f   Global.obj
 0001:00061e20       ?MakeCopy@EKilledEnemy@@UAEPAVCEntityEvent@@XZ 10062e20 f   Global.obj
 0001:00061e50       ??0EKilledEnemy@@QAE@XZ    10062e50 f   Global.obj
 0001:00061e60       ?MakeCopy@ESecretFound@@UAEPAVCEntityEvent@@XZ 10062e60 f   Global.obj
 0001:00061e90       ??0ESecretFound@@QAE@XZ    10062e90 f   Global.obj
 0001:00061ea0       ?MakeCopy@ESound@@UAEPAVCEntityEvent@@XZ 10062ea0 f   Global.obj
 0001:00061ee0       ??0ESound@@QAE@XZ          10062ee0 f   Global.obj
 0001:00061f50       ?MakeCopy@ECenterMessage@@UAEPAVCEntityEvent@@XZ 10062f50 f   Global.obj
 0001:00061fd0       ??0ECenterMessage@@QAE@XZ  10062fd0 f   Global.obj
 0001:00062060       ?MakeCopy@EComputerMessage@@UAEPAVCEntityEvent@@XZ 10063060 f   Global.obj
 0001:000620e0       ??0EComputerMessage@@QAE@XZ 100630e0 f   Global.obj
 0001:00062170       ?MakeCopy@EVoiceMessage@@UAEPAVCEntityEvent@@XZ 10063170 f   Global.obj
 0001:000621f0       ??0EVoiceMessage@@QAE@XZ   100631f0 f   Global.obj
 0001:00062280       ?MakeCopy@EHitBySpaceShipBeam@@UAEPAVCEntityEvent@@XZ 10063280 f   Global.obj
 0001:000622b0       ??0EHitBySpaceShipBeam@@QAE@XZ 100632b0 f   Global.obj
 0001:000622c0       ?MakeCopy@EClicked@@UAEPAVCEntityEvent@@XZ 100632c0 f   Global.obj
 0001:00062300       ??0EClicked@@QAE@XZ        10063300 f   Global.obj
 0001:00062370       ?MakeCopy@EUseCall@@UAEPAVCEntityEvent@@XZ 10063370 f   Global.obj
 0001:000623b0       ??0EUseCall@@QAE@XZ        100633b0 f   Global.obj
 0001:00062420       ?SetDefaultProperties@CGlobal@@UAEXXZ 10063420 f   Global.obj
 0001:00062430       ?Main@CGlobal@@QAEHABVCEntityEvent@@@Z 10063430 f   Global.obj
 0001:00062440       ??_GCGlobal@@UAEPAXI@Z     10063440 f i Global.obj
 0001:00062440       ??_ECGlobal@@UAEPAXI@Z     10063440 f i Global.obj
 0001:00062470       ??1CGlobal@@UAE@XZ         10063470 f i Global.obj
 0001:00062480       ??0GPSZoomIn@@QAE@ABV0@@Z  10063480 f i GPS.obj
 0001:000624a0       ??4GPSZoomIn@@QAEAAV0@ABV0@@Z 100634a0 f i GPS.obj
 0001:000624c0       ??1GPSZoomIn@@UAE@XZ       100634c0 f i GPS.obj
 0001:000624d0       ??_GGPSZoomIn@@UAEPAXI@Z   100634d0 f i GPS.obj
 0001:00062500       ??_EGPSZoomIn@@UAEPAXI@Z   10063500 f i GPS.obj
 0001:00062560       ?ClearToDefault@@YAXAAVGPSZoomIn@@@Z 10063560 f i GPS.obj
 0001:00062580       ??0GPSZoomOut@@QAE@ABV0@@Z 10063580 f i GPS.obj
 0001:000625a0       ??4GPSZoomOut@@QAEAAV0@ABV0@@Z 100635a0 f i GPS.obj
 0001:000625c0       ??1GPSZoomOut@@UAE@XZ      100635c0 f i GPS.obj
 0001:000625d0       ??_GGPSZoomOut@@UAEPAXI@Z  100635d0 f i GPS.obj
 0001:00062600       ??_EGPSZoomOut@@UAEPAXI@Z  10063600 f i GPS.obj
 0001:00062660       ?ClearToDefault@@YAXAAVGPSZoomOut@@@Z 10063660 f i GPS.obj
 0001:00062680       ??0GPSMoveLeft@@QAE@ABV0@@Z 10063680 f i GPS.obj
 0001:000626a0       ??4GPSMoveLeft@@QAEAAV0@ABV0@@Z 100636a0 f i GPS.obj
 0001:000626c0       ??1GPSMoveLeft@@UAE@XZ     100636c0 f i GPS.obj
 0001:000626d0       ??_GGPSMoveLeft@@UAEPAXI@Z 100636d0 f i GPS.obj
 0001:00062700       ??_EGPSMoveLeft@@UAEPAXI@Z 10063700 f i GPS.obj
 0001:00062760       ?ClearToDefault@@YAXAAVGPSMoveLeft@@@Z 10063760 f i GPS.obj
 0001:00062780       ??0GPSMoveRight@@QAE@ABV0@@Z 10063780 f i GPS.obj
 0001:000627a0       ??4GPSMoveRight@@QAEAAV0@ABV0@@Z 100637a0 f i GPS.obj
 0001:000627c0       ??1GPSMoveRight@@UAE@XZ    100637c0 f i GPS.obj
 0001:000627d0       ??_GGPSMoveRight@@UAEPAXI@Z 100637d0 f i GPS.obj
 0001:00062800       ??_EGPSMoveRight@@UAEPAXI@Z 10063800 f i GPS.obj
 0001:00062860       ?ClearToDefault@@YAXAAVGPSMoveRight@@@Z 10063860 f i GPS.obj
 0001:00062880       ??0GPSMoveUp@@QAE@ABV0@@Z  10063880 f i GPS.obj
 0001:000628a0       ??4GPSMoveUp@@QAEAAV0@ABV0@@Z 100638a0 f i GPS.obj
 0001:000628c0       ??1GPSMoveUp@@UAE@XZ       100638c0 f i GPS.obj
 0001:000628d0       ??_GGPSMoveUp@@UAEPAXI@Z   100638d0 f i GPS.obj
 0001:00062900       ??_EGPSMoveUp@@UAEPAXI@Z   10063900 f i GPS.obj
 0001:00062960       ?ClearToDefault@@YAXAAVGPSMoveUp@@@Z 10063960 f i GPS.obj
 0001:00062980       ??0GPSMoveDown@@QAE@ABV0@@Z 10063980 f i GPS.obj
 0001:000629a0       ??4GPSMoveDown@@QAEAAV0@ABV0@@Z 100639a0 f i GPS.obj
 0001:000629c0       ??1GPSMoveDown@@UAE@XZ     100639c0 f i GPS.obj
 0001:000629d0       ??_GGPSMoveDown@@UAEPAXI@Z 100639d0 f i GPS.obj
 0001:00062a00       ??_EGPSMoveDown@@UAEPAXI@Z 10063a00 f i GPS.obj
 0001:00062a60       ?ClearToDefault@@YAXAAVGPSMoveDown@@@Z 10063a60 f i GPS.obj
 0001:00062a80       ??0GPSRaiseLower@@QAE@ABV0@@Z 10063a80 f i GPS.obj
 0001:00062aa0       ??4GPSRaiseLower@@QAEAAV0@ABV0@@Z 10063aa0 f i GPS.obj
 0001:00062ac0       ??1GPSRaiseLower@@UAE@XZ   10063ac0 f i GPS.obj
 0001:00062ad0       ??_GGPSRaiseLower@@UAEPAXI@Z 10063ad0 f i GPS.obj
 0001:00062b00       ??_EGPSRaiseLower@@UAEPAXI@Z 10063b00 f i GPS.obj
 0001:00062b60       ?ClearToDefault@@YAXAAVGPSRaiseLower@@@Z 10063b60 f i GPS.obj
 0001:00062b80       ??0GPSSwitchModes@@QAE@ABV0@@Z 10063b80 f i GPS.obj
 0001:00062ba0       ??4GPSSwitchModes@@QAEAAV0@ABV0@@Z 10063ba0 f i GPS.obj
 0001:00062bc0       ??1GPSSwitchModes@@UAE@XZ  10063bc0 f i GPS.obj
 0001:00062bd0       ??_GGPSSwitchModes@@UAEPAXI@Z 10063bd0 f i GPS.obj
 0001:00062c00       ??_EGPSSwitchModes@@UAEPAXI@Z 10063c00 f i GPS.obj
 0001:00062c60       ?ClearToDefault@@YAXAAVGPSSwitchModes@@@Z 10063c60 f i GPS.obj
 0001:00062c80       ??0GPSModeBig@@QAE@ABV0@@Z 10063c80 f i GPS.obj
 0001:00062ca0       ??4GPSModeBig@@QAEAAV0@ABV0@@Z 10063ca0 f i GPS.obj
 0001:00062cc0       ??1GPSModeBig@@UAE@XZ      10063cc0 f i GPS.obj
 0001:00062cd0       ??_GGPSModeBig@@UAEPAXI@Z  10063cd0 f i GPS.obj
 0001:00062d00       ??_EGPSModeBig@@UAEPAXI@Z  10063d00 f i GPS.obj
 0001:00062d60       ?ClearToDefault@@YAXAAVGPSModeBig@@@Z 10063d60 f i GPS.obj
 0001:00062d80       ??0GPSModeSmall@@QAE@ABV0@@Z 10063d80 f i GPS.obj
 0001:00062da0       ??4GPSModeSmall@@QAEAAV0@ABV0@@Z 10063da0 f i GPS.obj
 0001:00062dc0       ??1GPSModeSmall@@UAE@XZ    10063dc0 f i GPS.obj
 0001:00062dd0       ??_GGPSModeSmall@@UAEPAXI@Z 10063dd0 f i GPS.obj
 0001:00062e00       ??_EGPSModeSmall@@UAEPAXI@Z 10063e00 f i GPS.obj
 0001:00062e60       ?ClearToDefault@@YAXAAVGPSModeSmall@@@Z 10063e60 f i GPS.obj
 0001:00062e80       ??0GPSSetWayPoint@@QAE@ABV0@@Z 10063e80 f i GPS.obj
 0001:00062ea0       ??4GPSSetWayPoint@@QAEAAV0@ABV0@@Z 10063ea0 f i GPS.obj
 0001:00062ec0       ??1GPSSetWayPoint@@UAE@XZ  10063ec0 f i GPS.obj
 0001:00062ed0       ??_GGPSSetWayPoint@@UAEPAXI@Z 10063ed0 f i GPS.obj
 0001:00062f00       ??_EGPSSetWayPoint@@UAEPAXI@Z 10063f00 f i GPS.obj
 0001:00062f60       ?ClearToDefault@@YAXAAVGPSSetWayPoint@@@Z 10063f60 f i GPS.obj
 0001:00062f80       ??0GPSNextWayPoint@@QAE@ABV0@@Z 10063f80 f i GPS.obj
 0001:00062fa0       ??4GPSNextWayPoint@@QAEAAV0@ABV0@@Z 10063fa0 f i GPS.obj
 0001:00062fc0       ??1GPSNextWayPoint@@UAE@XZ 10063fc0 f i GPS.obj
 0001:00062fd0       ??_GGPSNextWayPoint@@UAEPAXI@Z 10063fd0 f i GPS.obj
 0001:00063000       ??_EGPSNextWayPoint@@UAEPAXI@Z 10064000 f i GPS.obj
 0001:00063060       ?ClearToDefault@@YAXAAVGPSNextWayPoint@@@Z 10064060 f i GPS.obj
 0001:00063080       ??0GPSClearWayPoint@@QAE@ABV0@@Z 10064080 f i GPS.obj
 0001:000630a0       ??4GPSClearWayPoint@@QAEAAV0@ABV0@@Z 100640a0 f i GPS.obj
 0001:000630c0       ??1GPSClearWayPoint@@UAE@XZ 100640c0 f i GPS.obj
 0001:000630d0       ??_GGPSClearWayPoint@@UAEPAXI@Z 100640d0 f i GPS.obj
 0001:00063100       ??_EGPSClearWayPoint@@UAEPAXI@Z 10064100 f i GPS.obj
 0001:00063160       ?ClearToDefault@@YAXAAVGPSClearWayPoint@@@Z 10064160 f i GPS.obj
 0001:00063180       ??0GPSCenterView@@QAE@ABV0@@Z 10064180 f i GPS.obj
 0001:000631a0       ??4GPSCenterView@@QAEAAV0@ABV0@@Z 100641a0 f i GPS.obj
 0001:000631c0       ??1GPSCenterView@@UAE@XZ   100641c0 f i GPS.obj
 0001:000631d0       ??_GGPSCenterView@@UAEPAXI@Z 100641d0 f i GPS.obj
 0001:00063200       ??_EGPSCenterView@@UAEPAXI@Z 10064200 f i GPS.obj
 0001:00063260       ?ClearToDefault@@YAXAAVGPSCenterView@@@Z 10064260 f i GPS.obj
 0001:00063280       ?ClearToDefault@@YAXAAW4GPSState@@@Z 10064280 f i GPS.obj
 0001:00063290       ?ClearToDefault@@YAXAAW4GPSMode@@@Z 10064290 f i GPS.obj
 0001:00063b90       ?CGPS_New@@YAPAVCEntity@@XZ 10064b90 f   GPS.obj
 0001:00063ca0       ?CGPS_OnInitClass@@YAXXZ   10064ca0 f   GPS.obj
 0001:00063cb0       ?CGPS_OnEndClass@@YAXXZ    10064cb0 f   GPS.obj
 0001:00063cc0       ?CGPS_OnPrecache@@YAXPAVCDLLEntityClass@@J@Z 10064cc0 f   GPS.obj
 0001:00063cd0       ?CGPS_OnWorldEnd@@YAXPAVCWorld@@@Z 10064cd0 f   GPS.obj
 0001:00063ce0       ?CGPS_OnWorldInit@@YAXPAVCWorld@@@Z 10064ce0 f   GPS.obj
 0001:00063cf0       ?CGPS_OnWorldTick@@YAXPAVCWorld@@@Z 10064cf0 f   GPS.obj
 0001:00063d00       ?CGPS_OnWorldRender@@YAXPAVCWorld@@@Z 10064d00 f   GPS.obj
 0001:00063dd0       ?MakeCopy@GPSZoomIn@@UAEPAVCEntityEvent@@XZ 10064dd0 f   GPS.obj
 0001:00063e00       ??0GPSZoomIn@@QAE@XZ       10064e00 f   GPS.obj
 0001:00063e10       ?MakeCopy@GPSZoomOut@@UAEPAVCEntityEvent@@XZ 10064e10 f   GPS.obj
 0001:00063e40       ??0GPSZoomOut@@QAE@XZ      10064e40 f   GPS.obj
 0001:00063e50       ?MakeCopy@GPSMoveLeft@@UAEPAVCEntityEvent@@XZ 10064e50 f   GPS.obj
 0001:00063e80       ??0GPSMoveLeft@@QAE@XZ     10064e80 f   GPS.obj
 0001:00063e90       ?MakeCopy@GPSMoveRight@@UAEPAVCEntityEvent@@XZ 10064e90 f   GPS.obj
 0001:00063ec0       ??0GPSMoveRight@@QAE@XZ    10064ec0 f   GPS.obj
 0001:00063ed0       ?MakeCopy@GPSMoveUp@@UAEPAVCEntityEvent@@XZ 10064ed0 f   GPS.obj
 0001:00063f00       ??0GPSMoveUp@@QAE@XZ       10064f00 f   GPS.obj
 0001:00063f10       ?MakeCopy@GPSMoveDown@@UAEPAVCEntityEvent@@XZ 10064f10 f   GPS.obj
 0001:00063f40       ??0GPSMoveDown@@QAE@XZ     10064f40 f   GPS.obj
 0001:00063f50       ?MakeCopy@GPSRaiseLower@@UAEPAVCEntityEvent@@XZ 10064f50 f   GPS.obj
 0001:00063f80       ??0GPSRaiseLower@@QAE@XZ   10064f80 f   GPS.obj
 0001:00063f90       ?MakeCopy@GPSSwitchModes@@UAEPAVCEntityEvent@@XZ 10064f90 f   GPS.obj
 0001:00063fc0       ??0GPSSwitchModes@@QAE@XZ  10064fc0 f   GPS.obj
 0001:00063fd0       ?MakeCopy@GPSModeBig@@UAEPAVCEntityEvent@@XZ 10064fd0 f   GPS.obj
 0001:00064000       ??0GPSModeBig@@QAE@XZ      10065000 f   GPS.obj
 0001:00064010       ?MakeCopy@GPSModeSmall@@UAEPAVCEntityEvent@@XZ 10065010 f   GPS.obj
 0001:00064040       ??0GPSModeSmall@@QAE@XZ    10065040 f   GPS.obj
 0001:00064050       ?MakeCopy@GPSSetWayPoint@@UAEPAVCEntityEvent@@XZ 10065050 f   GPS.obj
 0001:00064080       ??0GPSSetWayPoint@@QAE@XZ  10065080 f   GPS.obj
 0001:00064090       ?MakeCopy@GPSNextWayPoint@@UAEPAVCEntityEvent@@XZ 10065090 f   GPS.obj
 0001:000640c0       ??0GPSNextWayPoint@@QAE@XZ 100650c0 f   GPS.obj
 0001:000640d0       ?MakeCopy@GPSClearWayPoint@@UAEPAVCEntityEvent@@XZ 100650d0 f   GPS.obj
 0001:00064100       ??0GPSClearWayPoint@@QAE@XZ 10065100 f   GPS.obj
 0001:00064110       ?MakeCopy@GPSCenterView@@UAEPAVCEntityEvent@@XZ 10065110 f   GPS.obj
 0001:00064140       ??0GPSCenterView@@QAE@XZ   10065140 f   GPS.obj
 0001:00064150       ?SetDefaultProperties@CGPS@@UAEXXZ 10065150 f   GPS.obj
 0001:000643f0       ?Write_t@CGPS@@UAEXPAVCTStream@@@Z 100653f0 f   GPS.obj
 0001:00064440       ?Read_t@CGPS@@UAEXPAVCTStream@@@Z 10065440 f   GPS.obj
 0001:00064800       ?AddPlayerPosition@CGPS@@QAEXXZ 10065800 f   GPS.obj
 0001:00064910       ?ZoomIn@CGPS@@QAEXXZ       10065910 f   GPS.obj
 0001:000649c0       ?ZoomOut@CGPS@@QAEXXZ      100659c0 f   GPS.obj
 0001:00064a70       ?UpdateView@CGPS@@QAEXXZ   10065a70 f   GPS.obj
 0001:00064b90       ?MoveLeft@CGPS@@QAEXXZ     10065b90 f   GPS.obj
 0001:00064bd0       ?MoveRight@CGPS@@QAEXXZ    10065bd0 f   GPS.obj
 0001:00064c00       ?MoveUp@CGPS@@QAEXXZ       10065c00 f   GPS.obj
 0001:00064c40       ?MoveDown@CGPS@@QAEXXZ     10065c40 f   GPS.obj
 0001:00064c70       ?RaiseLower@CGPS@@QAEXXZ   10065c70 f   GPS.obj
 0001:00064c90       ?SwitchModes@CGPS@@QAEXXZ  10065c90 f   GPS.obj
 0001:00064cb0       ?ModeBig@CGPS@@QAEXXZ      10065cb0 f   GPS.obj
 0001:00064d60       ?ModeSmall@CGPS@@QAEXXZ    10065d60 f   GPS.obj
 0001:00064e80       ?DrawGPSItems@CGPS@@QAEXPAVCDrawPort@@H@Z 10065e80 f   GPS.obj
 0001:000652a0       ?DrawPlayerPositions@CGPS@@QAEXPAVCDrawPort@@@Z 100662a0 f   GPS.obj
 0001:000653c0       ?DrawTextA@CGPS@@QAEXPAVCDrawPort@@@Z 100663c0 f   GPS.obj
 0001:000656f0       ?ClipTest@CGPS@@QAEJMMPAM0@Z 100666f0 f   GPS.obj
 0001:000657a0       ?ClipLine@CGPS@@QAEHAAM000JJ@Z 100667a0 f   GPS.obj
 0001:00065910       ?DrawGPSLine@CGPS@@QAEXPAVCDrawPort@@V?$Vector@M$02@@1@Z 10066910 f   GPS.obj
 0001:00065a70       ?DrawLine@CGPS@@QAEXPAVCDrawPort@@@Z 10066a70 f   GPS.obj
 0001:00065c40       ?GetTextPosition@CGPS@@QAEHABV?$Vector@M$02@@AAV2@@Z 10066c40 f   GPS.obj
 0001:00065d40       ?CreateScreenBoxFromPosition@CGPS@@QAEHABV?$Vector@M$02@@AAV?$AABBox@J$01@@JJ@Z 10066d40 f   GPS.obj
 0001:00065ef0       ?Destroy@CGPS@@UAEXXZ      10066ef0 f   GPS.obj
 0001:00065f00       ?SetWayPoint@CGPS@@QAEXXZ  10066f00 f   GPS.obj
 0001:00065f50       ?NextWayPoint@CGPS@@QAEXXZ 10066f50 f   GPS.obj
 0001:00065f80       ?ClearWayPoint@CGPS@@QAEXXZ 10066f80 f   GPS.obj
 0001:00066000       ?CenterView@CGPS@@QAEXXZ   10067000 f   GPS.obj
 0001:00066100       ?FillTextContainer@CGPS@@QAEXXZ 10067100 f   GPS.obj
 0001:00066240       ?GetWorldSettingsInfo@CGPS@@QAEXXZ 10067240 f   GPS.obj
 0001:00066360       ?Main@CGPS@@QAEHABVCEntityEvent@@@Z 10067360 f   GPS.obj
 0001:00066430       ?H0x7a24000e_Main_01@CGPS@@QAEHABVCEntityEvent@@@Z 10067430 f   GPS.obj
 0001:000664b0       ?H0x7a24000f_Main_02@CGPS@@QAEHABVCEntityEvent@@@Z 100674b0 f   GPS.obj
 0001:000668e0       ?H0x7a240012_Main_05@CGPS@@QAEHABVCEntityEvent@@@Z 100678e0 f   GPS.obj
 0001:00066950       ?H0x7a240010_Main_03@CGPS@@QAEHABVCEntityEvent@@@Z 10067950 f   GPS.obj
 0001:00066cf0       ?H0x7a240011_Main_04@CGPS@@QAEHABVCEntityEvent@@@Z 10067cf0 f   GPS.obj
 0001:00066d50       ?H0x7a240013_Main_06@CGPS@@QAEHABVCEntityEvent@@@Z 10067d50 f   GPS.obj
 0001:00066db0       ?GetName@CGPS@@UBEABVCTString@@XZ 10067db0 f i GPS.obj
 0001:00066dc0       ??_ECGPS@@UAEPAXI@Z        10067dc0 f i GPS.obj
 0001:00066dc0       ??_GCGPS@@UAEPAXI@Z        10067dc0 f i GPS.obj
 0001:00066df0       ??1CGPS@@UAE@XZ            10067df0 f i GPS.obj
 0001:00066f20       ??1?$CDynamicContainer@VCGPSText@@@@QAE@XZ 10067f20 f i GPS.obj
 0001:00066f90       ??1?$CStaticStackArray@PAVCGPSText@@@@QAE@XZ 10067f90 f i GPS.obj
 0001:00066fc0       ?Delete@?$CStaticArray@PAVCGPSText@@@@QAEXXZ 10067fc0 f i GPS.obj
 0001:000670f0       ?CGPSText_New@@YAPAVCEntity@@XZ 100680f0 f   GPSText.obj
 0001:00067180       ?CGPSText_OnInitClass@@YAXXZ 10068180 f   GPSText.obj
 0001:00067190       ?CGPSText_OnEndClass@@YAXXZ 10068190 f   GPSText.obj
 0001:000671a0       ?CGPSText_OnPrecache@@YAXPAVCDLLEntityClass@@J@Z 100681a0 f   GPSText.obj
 0001:000671b0       ?CGPSText_OnWorldEnd@@YAXPAVCWorld@@@Z 100681b0 f   GPSText.obj
 0001:000671c0       ?CGPSText_OnWorldInit@@YAXPAVCWorld@@@Z 100681c0 f   GPSText.obj
 0001:000671d0       ?CGPSText_OnWorldTick@@YAXPAVCWorld@@@Z 100681d0 f   GPSText.obj
 0001:000671e0       ?CGPSText_OnWorldRender@@YAXPAVCWorld@@@Z 100681e0 f   GPSText.obj
 0001:000672b0       ?SetDefaultProperties@CGPSText@@UAEXXZ 100682b0 f   GPSText.obj
 0001:00067310       ?Main@CGPSText@@QAEHABVCEntityEvent@@@Z 10068310 f   GPSText.obj
 0001:000673f0       ?H0x7a250000_Main_01@CGPSText@@QAEHABVCEntityEvent@@@Z 100683f0 f   GPSText.obj
 0001:00067470       ?H0x7a250001_Main_02@CGPSText@@QAEHABVCEntityEvent@@@Z 10068470 f   GPSText.obj
 0001:000674d0       ?GetName@CGPSText@@UBEABVCTString@@XZ 100684d0 f i GPSText.obj
 0001:000674e0       ??_GCGPSText@@UAEPAXI@Z    100684e0 f i GPSText.obj
 0001:000674e0       ??_ECGPSText@@UAEPAXI@Z    100684e0 f i GPSText.obj
 0001:00067510       ??1CGPSText@@UAE@XZ        10068510 f i GPSText.obj
 0001:000675d0       ?ClearToDefault@@YAXAAW4WarpRotation@@@Z 100685d0 f i GradientMarker.obj
 0001:000675e0       ?ClearToDefault@@YAXAAW4ClasificationBits@@@Z 100685e0 f i GradientMarker.obj
 0001:000675f0       ?ClearToDefault@@YAXAAW4VisibilityBits@@@Z 100685f0 f i GradientMarker.obj
 0001:00067790       ?CGradientMarker_New@@YAPAVCEntity@@XZ 10068790 f   GradientMarker.obj
 0001:00067830       ?CGradientMarker_OnInitClass@@YAXXZ 10068830 f   GradientMarker.obj
 0001:00067840       ?CGradientMarker_OnEndClass@@YAXXZ 10068840 f   GradientMarker.obj
 0001:00067850       ?CGradientMarker_OnPrecache@@YAXPAVCDLLEntityClass@@J@Z 10068850 f   GradientMarker.obj
 0001:00067860       ?CGradientMarker_OnWorldEnd@@YAXPAVCWorld@@@Z 10068860 f   GradientMarker.obj
 0001:00067870       ?CGradientMarker_OnWorldInit@@YAXPAVCWorld@@@Z 10068870 f   GradientMarker.obj
 0001:00067880       ?CGradientMarker_OnWorldTick@@YAXPAVCWorld@@@Z 10068880 f   GradientMarker.obj
 0001:00067890       ?CGradientMarker_OnWorldRender@@YAXPAVCWorld@@@Z 10068890 f   GradientMarker.obj
 0001:000678f0       ?SetDefaultProperties@CGradientMarker@@UAEXXZ 100688f0 f   GradientMarker.obj
 0001:00067920       ?GetGradientName@CGradientMarker@@QAEABVCTString@@XZ 10068920 f   GradientMarker.obj
 0001:00067930       ?GetGradient@CGradientMarker@@UAEHJAAVCGradientParameters@@@Z 10068930 f   GradientMarker.obj
 0001:000679f0       ?UncacheShadowsForGradient@CGradientMarker@@QAEXXZ 100689f0 f   GradientMarker.obj
 0001:00067a70       ?SetPlacement_internal@CGradientMarker@@UAEXABVCPlacement3D@@ABV?$Matrix@M$02$02@@H@Z 10068a70 f   GradientMarker.obj
 0001:00067aa0       ?OnEnd@CGradientMarker@@UAEXXZ 10068aa0 f   GradientMarker.obj
 0001:00067ac0       ?Main@CGradientMarker@@QAEHABVCEntityEvent@@@Z 10068ac0 f   GradientMarker.obj
 0001:00067b50       ?IsImportant@CGradientMarker@@UBEHXZ 10068b50 f i GradientMarker.obj
 0001:00067b60       ??_ECGradientMarker@@UAEPAXI@Z 10068b60 f i GradientMarker.obj
 0001:00067b60       ??_GCGradientMarker@@UAEPAXI@Z 10068b60 f i GradientMarker.obj
 0001:00067b90       ??1CGradientMarker@@UAE@XZ 10068b90 f i GradientMarker.obj
 0001:00067c20       ??0EGrasshopperParticlesInit@@QAE@ABV0@@Z 10068c20 f i GrasshopperParticles.obj
 0001:00067c60       ??4EGrasshopperParticlesInit@@QAEAAV0@ABV0@@Z 10068c60 f i GrasshopperParticles.obj
 0001:00067cb0       ??1EGrasshopperParticlesInit@@UAE@XZ 10068cb0 f i GrasshopperParticles.obj
 0001:00067d40       ??_GEGrasshopperParticlesInit@@UAEPAXI@Z 10068d40 f i GrasshopperParticles.obj
 0001:00067d70       ??_EEGrasshopperParticlesInit@@UAEPAXI@Z 10068d70 f i GrasshopperParticles.obj
 0001:00067dd0       ?ClearToDefault@@YAXAAVEGrasshopperParticlesInit@@@Z 10068dd0 f i GrasshopperParticles.obj
 0001:00068210       ?CGrasshopperParticles_New@@YAPAVCEntity@@XZ 10069210 f   GrasshopperParticles.obj
 0001:00068270       ?CGrasshopperParticles_OnInitClass@@YAXXZ 10069270 f   GrasshopperParticles.obj
 0001:00068280       ?CGrasshopperParticles_OnEndClass@@YAXXZ 10069280 f   GrasshopperParticles.obj
 0001:00068290       ?CGrasshopperParticles_OnPrecache@@YAXPAVCDLLEntityClass@@J@Z 10069290 f   GrasshopperParticles.obj
 0001:000682a0       ?CGrasshopperParticles_OnWorldEnd@@YAXPAVCWorld@@@Z 100692a0 f   GrasshopperParticles.obj
 0001:000682b0       ?CGrasshopperParticles_OnWorldInit@@YAXPAVCWorld@@@Z 100692b0 f   GrasshopperParticles.obj
 0001:000682c0       ?CGrasshopperParticles_OnWorldTick@@YAXPAVCWorld@@@Z 100692c0 f   GrasshopperParticles.obj
 0001:000682d0       ?CGrasshopperParticles_OnWorldRender@@YAXPAVCWorld@@@Z 100692d0 f   GrasshopperParticles.obj
 0001:000683a0       ?MakeCopy@EGrasshopperParticlesInit@@UAEPAVCEntityEvent@@XZ 100693a0 f   GrasshopperParticles.obj
 0001:000683e0       ??0EGrasshopperParticlesInit@@QAE@XZ 100693e0 f   GrasshopperParticles.obj
 0001:00068450       ?SetDefaultProperties@CGrasshopperParticles@@UAEXXZ 10069450 f   GrasshopperParticles.obj
 0001:00068590       ??0CGrasshopperParticles@@QAE@XZ 10069590 f   GrasshopperParticles.obj
 0001:00068610       ??1CGrasshopperParticles@@UAE@XZ 10069610 f   GrasshopperParticles.obj
 0001:000686e0       ?ChecksumForSync@CGrasshopperParticles@@UAEXAAKJ@Z 100696e0 f   GrasshopperParticles.obj
 0001:000686f0       ?CreateParticles@CGrasshopperParticles@@QAEXJJ@Z 100696f0 f   GrasshopperParticles.obj
 0001:00068a80       ?Copy@CGrasshopperParticles@@UAEXAAVCEntity@@K@Z 10069a80 f   GrasshopperParticles.obj
 0001:00068ab0       ?Read_t@CGrasshopperParticles@@UAEXPAVCTStream@@@Z 10069ab0 f   GrasshopperParticles.obj
 0001:00068ae0       ?Write_t@CGrasshopperParticles@@UAEXPAVCTStream@@@Z 10069ae0 f   GrasshopperParticles.obj
 0001:00068b20       ?AdjustShadingParameters@CGrasshopperParticles@@UAEHAAV?$Vector@M$02@@AAK1@Z 10069b20 f   GrasshopperParticles.obj
 0001:00068b30       ?FindSkaMarkerManager@CGrasshopperParticles@@QAEXXZ 10069b30 f   GrasshopperParticles.obj
 0001:00068ba0       ?UpdateSpringAndFall@CGrasshopperParticles@@QAEXJ@Z 10069ba0 f   GrasshopperParticles.obj
 0001:000690c0       ?AlterSpringParticleDensities@CGrasshopperParticles@@QAEXXZ 1006a0c0 f   GrasshopperParticles.obj
 0001:000690f0       ?Update@CGrasshopperParticles@@QAEXJJ@Z 1006a0f0 f   GrasshopperParticles.obj
 0001:00069130       ?Setup@CGrasshopperParticles@@QAEXXZ 1006a130 f   GrasshopperParticles.obj
 0001:00069170       ?Destroy@CGrasshopperParticles@@UAEXXZ 1006a170 f   GrasshopperParticles.obj
 0001:00069180       ?Main@CGrasshopperParticles@@QAEHABVCEntityEvent@@@Z 1006a180 f   GrasshopperParticles.obj
 0001:00069220       ?H0x791f0001_Main_01@CGrasshopperParticles@@QAEHABVCEntityEvent@@@Z 1006a220 f   GrasshopperParticles.obj
 0001:000692a0       ?H0x791f0002_Main_02@CGrasshopperParticles@@QAEHABVCEntityEvent@@@Z 1006a2a0 f   GrasshopperParticles.obj
 0001:00069540       ?H0x791f0005_Main_05@CGrasshopperParticles@@QAEHABVCEntityEvent@@@Z 1006a540 f   GrasshopperParticles.obj
 0001:000695b0       ?H0x791f0003_Main_03@CGrasshopperParticles@@QAEHABVCEntityEvent@@@Z 1006a5b0 f   GrasshopperParticles.obj
 0001:000696a0       ?H0x791f0004_Main_04@CGrasshopperParticles@@QAEHABVCEntityEvent@@@Z 1006a6a0 f   GrasshopperParticles.obj
 0001:00069700       ?H0x791f0006_Main_06@CGrasshopperParticles@@QAEHABVCEntityEvent@@@Z 1006a700 f   GrasshopperParticles.obj
 0001:00069760       ??_ECGrasshopperParticles@@UAEPAXI@Z 1006a760 f i GrasshopperParticles.obj
 0001:00069760       ??_GCGrasshopperParticles@@UAEPAXI@Z 1006a760 f i GrasshopperParticles.obj
 0001:00069790       ??0t_ZoneSkaPair@@QAE@XZ   1006a790 f i GrasshopperParticles.obj
 0001:00069810       ??1t_ClosestData@@QAE@XZ   1006a810 f i GrasshopperParticles.obj
 0001:00069880       ??0EChangeGravity@@QAE@ABV0@@Z 1006a880 f i GravityMarker.obj
 0001:000698b0       ??4EChangeGravity@@QAEAAV0@ABV0@@Z 1006a8b0 f i GravityMarker.obj
 0001:000698f0       ??1EChangeGravity@@UAE@XZ  1006a8f0 f i GravityMarker.obj
 0001:00069980       ??_GEChangeGravity@@UAEPAXI@Z 1006a980 f i GravityMarker.obj
 0001:000699b0       ??_EEChangeGravity@@UAEPAXI@Z 1006a9b0 f i GravityMarker.obj
 0001:00069a10       ?ClearToDefault@@YAXAAVEChangeGravity@@@Z 1006aa10 f i GravityMarker.obj
 0001:00069ab0       ?ClearToDefault@@YAXAAW4GravityType@@@Z 1006aab0 f i GravityMarker.obj
 0001:00069e00       ?CGravityMarker_New@@YAPAVCEntity@@XZ 1006ae00 f   GravityMarker.obj
 0001:00069ea0       ?CGravityMarker_OnInitClass@@YAXXZ 1006aea0 f   GravityMarker.obj
 0001:00069eb0       ?CGravityMarker_OnEndClass@@YAXXZ 1006aeb0 f   GravityMarker.obj
 0001:00069ec0       ?CGravityMarker_OnPrecache@@YAXPAVCDLLEntityClass@@J@Z 1006aec0 f   GravityMarker.obj
 0001:00069ed0       ?CGravityMarker_OnWorldEnd@@YAXPAVCWorld@@@Z 1006aed0 f   GravityMarker.obj
 0001:00069ee0       ?CGravityMarker_OnWorldInit@@YAXPAVCWorld@@@Z 1006aee0 f   GravityMarker.obj
 0001:00069ef0       ?CGravityMarker_OnWorldTick@@YAXPAVCWorld@@@Z 1006aef0 f   GravityMarker.obj
 0001:00069f00       ?CGravityMarker_OnWorldRender@@YAXPAVCWorld@@@Z 1006af00 f   GravityMarker.obj
 0001:00069f60       ?SetDefaultProperties@CGravityMarker@@UAEXXZ 1006af60 f   GravityMarker.obj
 0001:0006a000       ?GetForceName@CGravityMarker@@UAEABVCTString@@J@Z 1006b000 f   GravityMarker.obj
 0001:0006a010       ?GetForce@CGravityMarker@@UAEXJABV?$Vector@M$02@@AAVCForceStrength@@1@Z 1006b010 f   GravityMarker.obj
 0001:0006a5d0       ?HandleEvent@CGravityMarker@@UAEHABVCEntityEvent@@@Z 1006b5d0 f   GravityMarker.obj
 0001:0006a690       ?Main@CGravityMarker@@QAEHABVCEntityEvent@@@Z 1006b690 f   GravityMarker.obj
 0001:0006a780       ?IsImportant@CGravityMarker@@UBEHXZ 1006b780 f i GravityMarker.obj
 0001:0006a790       ??_ECGravityMarker@@UAEPAXI@Z 1006b790 f i GravityMarker.obj
 0001:0006a790       ??_GCGravityMarker@@UAEPAXI@Z 1006b790 f i GravityMarker.obj
 0001:0006a7c0       ??1CGravityMarker@@UAE@XZ  1006b7c0 f i GravityMarker.obj
 0001:0006a850       ?Clamp@@YAMMMM@Z           1006b850 f i GravityMarker.obj
 0001:0006a910       ?CGravityRouter_New@@YAPAVCEntity@@XZ 1006b910 f   GravityRouter.obj
 0001:0006a9b0       ?CGravityRouter_OnInitClass@@YAXXZ 1006b9b0 f   GravityRouter.obj
 0001:0006a9c0       ?CGravityRouter_OnEndClass@@YAXXZ 1006b9c0 f   GravityRouter.obj
 0001:0006a9d0       ?CGravityRouter_OnPrecache@@YAXPAVCDLLEntityClass@@J@Z 1006b9d0 f   GravityRouter.obj
 0001:0006a9e0       ?CGravityRouter_OnWorldEnd@@YAXPAVCWorld@@@Z 1006b9e0 f   GravityRouter.obj
 0001:0006a9f0       ?CGravityRouter_OnWorldInit@@YAXPAVCWorld@@@Z 1006b9f0 f   GravityRouter.obj
 0001:0006aa00       ?CGravityRouter_OnWorldTick@@YAXPAVCWorld@@@Z 1006ba00 f   GravityRouter.obj
 0001:0006aa10       ?CGravityRouter_OnWorldRender@@YAXPAVCWorld@@@Z 1006ba10 f   GravityRouter.obj
 0001:0006aa70       ?MakeCopy@EChangeGravity@@UAEPAVCEntityEvent@@XZ 1006ba70 f   GravityRouter.obj
 0001:0006aab0       ??0EChangeGravity@@QAE@XZ  1006bab0 f   GravityRouter.obj
 0001:0006ab20       ?SetDefaultProperties@CGravityRouter@@UAEXXZ 1006bb20 f   GravityRouter.obj
 0001:0006ab30       ?GetForceName@CGravityRouter@@UAEABVCTString@@J@Z 1006bb30 f   GravityRouter.obj
 0001:0006ab40       ?GetForce@CGravityRouter@@UAEXJABV?$Vector@M$02@@AAVCForceStrength@@1@Z 1006bb40 f   GravityRouter.obj
 0001:0006ab90       ?GetForceController@CGravityRouter@@UAEPAVCEntity@@J@Z 1006bb90 f   GravityRouter.obj
 0001:0006aba0       ?HandleEvent@CGravityRouter@@UAEHABVCEntityEvent@@@Z 1006bba0 f   GravityRouter.obj
 0001:0006ac00       ?Main@CGravityRouter@@QAEHABVCEntityEvent@@@Z 1006bc00 f   GravityRouter.obj
 0001:0006ace0       ?IsImportant@CGravityRouter@@UBEHXZ 1006bce0 f i GravityRouter.obj
 0001:0006acf0       ??_ECGravityRouter@@UAEPAXI@Z 1006bcf0 f i GravityRouter.obj
 0001:0006acf0       ??_GCGravityRouter@@UAEPAXI@Z 1006bcf0 f i GravityRouter.obj
 0001:0006ad20       ??1CGravityRouter@@UAE@XZ  1006bd20 f i GravityRouter.obj
 0001:0006b110       ?CHazeMarker_New@@YAPAVCEntity@@XZ 1006c110 f   HazeMarker.obj
 0001:0006b1b0       ?CHazeMarker_OnInitClass@@YAXXZ 1006c1b0 f   HazeMarker.obj
 0001:0006b1c0       ?CHazeMarker_OnEndClass@@YAXXZ 1006c1c0 f   HazeMarker.obj
 0001:0006b1d0       ?CHazeMarker_OnPrecache@@YAXPAVCDLLEntityClass@@J@Z 1006c1d0 f   HazeMarker.obj
 0001:0006b1e0       ?CHazeMarker_OnWorldEnd@@YAXPAVCWorld@@@Z 1006c1e0 f   HazeMarker.obj
 0001:0006b1f0       ?CHazeMarker_OnWorldInit@@YAXPAVCWorld@@@Z 1006c1f0 f   HazeMarker.obj
 0001:0006b200       ?CHazeMarker_OnWorldTick@@YAXPAVCWorld@@@Z 1006c200 f   HazeMarker.obj
 0001:0006b210       ?CHazeMarker_OnWorldRender@@YAXPAVCWorld@@@Z 1006c210 f   HazeMarker.obj
 0001:0006b270       ?SetDefaultProperties@CHazeMarker@@UAEXXZ 1006c270 f   HazeMarker.obj
 0001:0006b2e0       ?GetHazeName@CHazeMarker@@QAEABVCTString@@XZ 1006c2e0 f   HazeMarker.obj
 0001:0006b2f0       ?GetHaze@CHazeMarker@@QAEXAAVCHazeParameters@@AAV?$Vector@M$02@@@Z 1006c2f0 f   HazeMarker.obj
 0001:0006b530       ?Main@CHazeMarker@@QAEHABVCEntityEvent@@@Z 1006c530 f   HazeMarker.obj
 0001:0006b690       ?IsImportant@CHazeMarker@@UBEHXZ 1006c690 f i HazeMarker.obj
 0001:0006b6a0       ??_ECHazeMarker@@UAEPAXI@Z 1006c6a0 f i HazeMarker.obj
 0001:0006b6a0       ??_GCHazeMarker@@UAEPAXI@Z 1006c6a0 f i HazeMarker.obj
 0001:0006b6d0       ??1CHazeMarker@@UAE@XZ     1006c6d0 f i HazeMarker.obj
 0001:0006b760       ??0ELAAmbient@@QAE@ABV0@@Z 1006c760 f i LargeAnimal.obj
 0001:0006b780       ??4ELAAmbient@@QAEAAV0@ABV0@@Z 1006c780 f i LargeAnimal.obj
 0001:0006b7a0       ??1ELAAmbient@@UAE@XZ      1006c7a0 f i LargeAnimal.obj
 0001:0006b7b0       ??_GELAAmbient@@UAEPAXI@Z  1006c7b0 f i LargeAnimal.obj
 0001:0006b7e0       ??_EELAAmbient@@UAEPAXI@Z  1006c7e0 f i LargeAnimal.obj
 0001:0006b840       ?ClearToDefault@@YAXAAVELAAmbient@@@Z 1006c840 f i LargeAnimal.obj
 0001:0006b860       ??0ELAFlee@@QAE@ABV0@@Z    1006c860 f i LargeAnimal.obj
 0001:0006b880       ??4ELAFlee@@QAEAAV0@ABV0@@Z 1006c880 f i LargeAnimal.obj
 0001:0006b8a0       ??1ELAFlee@@UAE@XZ         1006c8a0 f i LargeAnimal.obj
 0001:0006b8b0       ??_GELAFlee@@UAEPAXI@Z     1006c8b0 f i LargeAnimal.obj
 0001:0006b8e0       ??_EELAFlee@@UAEPAXI@Z     1006c8e0 f i LargeAnimal.obj
 0001:0006b940       ?ClearToDefault@@YAXAAVELAFlee@@@Z 1006c940 f i LargeAnimal.obj
 0001:0006b960       ??0ELASleep@@QAE@ABV0@@Z   1006c960 f i LargeAnimal.obj
 0001:0006b980       ??4ELASleep@@QAEAAV0@ABV0@@Z 1006c980 f i LargeAnimal.obj
 0001:0006b9a0       ??1ELASleep@@UAE@XZ        1006c9a0 f i LargeAnimal.obj
 0001:0006b9b0       ??_GELASleep@@UAEPAXI@Z    1006c9b0 f i LargeAnimal.obj
 0001:0006b9e0       ??_EELASleep@@UAEPAXI@Z    1006c9e0 f i LargeAnimal.obj
 0001:0006ba40       ?ClearToDefault@@YAXAAVELASleep@@@Z 1006ca40 f i LargeAnimal.obj
 0001:0006bdd0       ?CLargeAnimal_New@@YAPAVCEntity@@XZ 1006cdd0 f   LargeAnimal.obj
 0001:0006bf40       ?CLargeAnimal_OnInitClass@@YAXXZ 1006cf40 f   LargeAnimal.obj
 0001:0006bf50       ?CLargeAnimal_OnEndClass@@YAXXZ 1006cf50 f   LargeAnimal.obj
 0001:0006bf60       ?CLargeAnimal_OnPrecache@@YAXPAVCDLLEntityClass@@J@Z 1006cf60 f   LargeAnimal.obj
 0001:0006bf70       ?CLargeAnimal_OnWorldEnd@@YAXPAVCWorld@@@Z 1006cf70 f   LargeAnimal.obj
 0001:0006bf80       ?CLargeAnimal_OnWorldInit@@YAXPAVCWorld@@@Z 1006cf80 f   LargeAnimal.obj
 0001:0006bf90       ?CLargeAnimal_OnWorldTick@@YAXPAVCWorld@@@Z 1006cf90 f   LargeAnimal.obj
 0001:0006bfa0       ?CLargeAnimal_OnWorldRender@@YAXPAVCWorld@@@Z 1006cfa0 f   LargeAnimal.obj
 0001:0006c000       ?MakeCopy@ELAAmbient@@UAEPAVCEntityEvent@@XZ 1006d000 f   LargeAnimal.obj
 0001:0006c030       ??0ELAAmbient@@QAE@XZ      1006d030 f   LargeAnimal.obj
 0001:0006c040       ?MakeCopy@ELAFlee@@UAEPAVCEntityEvent@@XZ 1006d040 f   LargeAnimal.obj
 0001:0006c070       ??0ELAFlee@@QAE@XZ         1006d070 f   LargeAnimal.obj
 0001:0006c080       ?MakeCopy@ELASleep@@UAEPAVCEntityEvent@@XZ 1006d080 f   LargeAnimal.obj
 0001:0006c0b0       ??0ELASleep@@QAE@XZ        1006d0b0 f   LargeAnimal.obj
 0001:0006c0c0       ?SetDefaultProperties@CLargeAnimal@@UAEXXZ 1006d0c0 f   LargeAnimal.obj
 0001:0006c1e0       ?StatisticsInit@CLargeAnimal@@UAEXXZ 1006d1e0 f   LargeAnimal.obj
 0001:0006c4a0       ?CreateHelperObjects@CLargeAnimal@@UAEXXZ 1006d4a0 f   LargeAnimal.obj
 0001:0006c570       ?GetClosestPlayer@CLargeAnimal@@QAEPAVCEntity@@XZ 1006d570 f   LargeAnimal.obj
 0001:0006c610       ?GetDistanceFromPlayerSquared@CLargeAnimal@@QAEMXZ 1006d610 f   LargeAnimal.obj
 0001:0006c6b0       ?ShouldEndActive@CLargeAnimal@@QAE_NXZ 1006d6b0 f   LargeAnimal.obj
 0001:0006c820       ?ShouldFlee@CLargeAnimal@@QAE_NXZ 1006d820 f   LargeAnimal.obj
 0001:0006c850       ?DistanceToDestination@CLargeAnimal@@QAEMXZ 1006d850 f   LargeAnimal.obj
 0001:0006c8a0       ?ShouldBecomeActive@CLargeAnimal@@QAE_NXZ 1006d8a0 f   LargeAnimal.obj
 0001:0006caf0       ?EndActive@CLargeAnimal@@QAEXXZ 1006daf0 f   LargeAnimal.obj
 0001:0006cb50       ?BeginActive@CLargeAnimal@@QAEXXZ 1006db50 f   LargeAnimal.obj
 0001:0006ccc0       ?UpdateMovementToDestination@CLargeAnimal@@QAEXXZ 1006dcc0 f   LargeAnimal.obj
 0001:0006ce20       ?ChooseFleeDestination@CLargeAnimal@@QAEXXZ 1006de20 f   LargeAnimal.obj
 0001:0006cf00       ?Logic@CLargeAnimal@@QAEXXZ 1006df00 f   LargeAnimal.obj
 0001:0006d010       ?DoMoving@CLargeAnimal@@UAEXXZ 1006e010 f   LargeAnimal.obj
 0001:0006d030       ?Ambient@CLargeAnimal@@QAEHABVCEntityEvent@@@Z 1006e030 f   LargeAnimal.obj
 0001:0006d090       ?H0x744f000e_Ambient_11@CLargeAnimal@@QAEHABVCEntityEvent@@@Z 1006e090 f   LargeAnimal.obj
 0001:0006d1e0       ?H0x744f0004_Ambient_01@CLargeAnimal@@QAEHABVCEntityEvent@@@Z 1006e1e0 f   LargeAnimal.obj
 0001:0006d260       ?H0x744f0005_Ambient_02@CLargeAnimal@@QAEHABVCEntityEvent@@@Z 1006e260 f   LargeAnimal.obj
 0001:0006d300       ?H0x744f0006_Ambient_03@CLargeAnimal@@QAEHABVCEntityEvent@@@Z 1006e300 f   LargeAnimal.obj
 0001:0006d380       ?H0x744f0007_Ambient_04@CLargeAnimal@@QAEHABVCEntityEvent@@@Z 1006e380 f   LargeAnimal.obj
 0001:0006d420       ?H0x744f0008_Ambient_05@CLargeAnimal@@QAEHABVCEntityEvent@@@Z 1006e420 f   LargeAnimal.obj
 0001:0006d530       ?H0x744f0009_Ambient_06@CLargeAnimal@@QAEHABVCEntityEvent@@@Z 1006e530 f   LargeAnimal.obj
 0001:0006d5b0       ?H0x744f000a_Ambient_07@CLargeAnimal@@QAEHABVCEntityEvent@@@Z 1006e5b0 f   LargeAnimal.obj
 0001:0006d610       ?H0x744f000b_Ambient_08@CLargeAnimal@@QAEHABVCEntityEvent@@@Z 1006e610 f   LargeAnimal.obj
 0001:0006d6f0       ?H0x744f000c_Ambient_09@CLargeAnimal@@QAEHABVCEntityEvent@@@Z 1006e6f0 f   LargeAnimal.obj
 0001:0006d770       ?H0x744f000d_Ambient_10@CLargeAnimal@@QAEHABVCEntityEvent@@@Z 1006e770 f   LargeAnimal.obj
 0001:0006d7d0       ?H0x744f000f_Ambient_12@CLargeAnimal@@QAEHABVCEntityEvent@@@Z 1006e7d0 f   LargeAnimal.obj
 0001:0006d830       ?Flee@CLargeAnimal@@QAEHABVCEntityEvent@@@Z 1006e830 f   LargeAnimal.obj
 0001:0006d8d0       ?H0x744f0017_Flee_07@CLargeAnimal@@QAEHABVCEntityEvent@@@Z 1006e8d0 f   LargeAnimal.obj
 0001:0006d940       ?H0x744f0011_Flee_01@CLargeAnimal@@QAEHABVCEntityEvent@@@Z 1006e940 f   LargeAnimal.obj
 0001:0006d9c0       ?H0x744f0012_Flee_02@CLargeAnimal@@QAEHABVCEntityEvent@@@Z 1006e9c0 f   LargeAnimal.obj
 0001:0006da20       ?H0x744f0015_Flee_05@CLargeAnimal@@QAEHABVCEntityEvent@@@Z 1006ea20 f   LargeAnimal.obj
 0001:0006dac0       ?H0x744f0013_Flee_03@CLargeAnimal@@QAEHABVCEntityEvent@@@Z 1006eac0 f   LargeAnimal.obj
 0001:0006db40       ?H0x744f0014_Flee_04@CLargeAnimal@@QAEHABVCEntityEvent@@@Z 1006eb40 f   LargeAnimal.obj
 0001:0006dba0       ?H0x744f0016_Flee_06@CLargeAnimal@@QAEHABVCEntityEvent@@@Z 1006eba0 f   LargeAnimal.obj
 0001:0006dc00       ?H0x744f0018_Flee_08@CLargeAnimal@@QAEHABVCEntityEvent@@@Z 1006ec00 f   LargeAnimal.obj
 0001:0006dc60       ?Sleep@CLargeAnimal@@QAEHABVCEntityEvent@@@Z 1006ec60 f   LargeAnimal.obj
 0001:0006dd20       ?H0x744f001a_Sleep_01@CLargeAnimal@@QAEHABVCEntityEvent@@@Z 1006ed20 f   LargeAnimal.obj
 0001:0006dd50       ?H0x744f001b_Sleep_02@CLargeAnimal@@QAEHABVCEntityEvent@@@Z 1006ed50 f   LargeAnimal.obj
 0001:0006ddb0       ?MainLoop@CLargeAnimal@@QAEHABVCEntityEvent@@@Z 1006edb0 f   LargeAnimal.obj
 0001:0006de10       ?H0x744f001f_MainLoop_03@CLargeAnimal@@QAEHABVCEntityEvent@@@Z 1006ee10 f   LargeAnimal.obj
 0001:0006de80       ?H0x744f001d_MainLoop_01@CLargeAnimal@@QAEHABVCEntityEvent@@@Z 1006ee80 f   LargeAnimal.obj
 0001:0006df60       ?H0x744f001e_MainLoop_02@CLargeAnimal@@QAEHABVCEntityEvent@@@Z 1006ef60 f   LargeAnimal.obj
 0001:0006dfc0       ?H0x744f0020_MainLoop_04@CLargeAnimal@@QAEHABVCEntityEvent@@@Z 1006efc0 f   LargeAnimal.obj
 0001:0006e020       ?Main@CLargeAnimal@@QAEHABVCEntityEvent@@@Z 1006f020 f   LargeAnimal.obj
 0001:0006e140       ?H0x744f0021_Main_01@CLargeAnimal@@QAEHABVCEntityEvent@@@Z 1006f140 f   LargeAnimal.obj
 0001:0006e1c0       ?H0x744f0022_Main_02@CLargeAnimal@@QAEHABVCEntityEvent@@@Z 1006f1c0 f   LargeAnimal.obj
 0001:0006e220       ?H0x744f0023_Main_03@CLargeAnimal@@QAEHABVCEntityEvent@@@Z 1006f220 f   LargeAnimal.obj
 0001:0006e2c0       ?H0x744f0024_Main_04@CLargeAnimal@@QAEHABVCEntityEvent@@@Z 1006f2c0 f   LargeAnimal.obj
 0001:0006e320       ??_GCLargeAnimal@@UAEPAXI@Z 1006f320 f i LargeAnimal.obj
 0001:0006e320       ??_ECLargeAnimal@@UAEPAXI@Z 1006f320 f i LargeAnimal.obj
 0001:0006e350       ??1CLargeAnimal@@UAE@XZ    1006f350 f i LargeAnimal.obj
 0001:0006ea90       ?CLight_New@@YAPAVCEntity@@XZ 1006fa90 f   Light.obj
 0001:0006eb90       ?CLight_OnPrecache@@YAXPAVCDLLEntityClass@@J@Z 1006fb90 f   Light.obj
 0001:0006eba0       ?CLight_OnWorldEnd@@YAXPAVCWorld@@@Z 1006fba0 f   Light.obj
 0001:0006ebb0       ?CLight_OnWorldInit@@YAXPAVCWorld@@@Z 1006fbb0 f   Light.obj
 0001:0006ebc0       ?CLight_OnWorldTick@@YAXPAVCWorld@@@Z 1006fbc0 f   Light.obj
 0001:0006ebd0       ?CLight_OnWorldRender@@YAXPAVCWorld@@@Z 1006fbd0 f   Light.obj
 0001:0006eca0       ?CLight_OnInitClass@@YAXXZ 1006fca0 f   Light.obj
 0001:0006ecb0       ?CLight_OnEndClass@@YAXXZ  1006fcb0 f   Light.obj
 0001:0006ecc0       ?SetDefaultProperties@CLight@@UAEXXZ 1006fcc0 f   Light.obj
 0001:0006ee70       ?GetType@CLight@@UAEJXZ    1006fe70 f   Light.obj
 0001:0006ee80       ?GetAnimData@CLight@@UAEPAVCAnimData@@J@Z 1006fe80 f   Light.obj
 0001:0006eec0       ?IsTargetable@CLight@@UBEHXZ 1006fec0 f   Light.obj
 0001:0006eed0       ?IsImportant@CLight@@UBEHXZ 1006fed0 f   Light.obj
 0001:0006eee0       ?HandleEvent@CLight@@UAEHABVCEntityEvent@@@Z 1006fee0 f   Light.obj
 0001:0006f000       ?MirrorAndStretch@CLight@@UAEXMH@Z 10070000 f   Light.obj
 0001:0006f050       ?GetLightSource@CLight@@UAEPAVCLightSource@@XZ 10070050 f   Light.obj
 0001:0006f0f0       ?SetupLightSource@CLight@@QAEXAAVCLightSource@@@Z 100700f0 f   Light.obj
 0001:0006f310       ?Main@CLight@@QAEHABVCEntityEvent@@@Z 10070310 f   Light.obj
 0001:0006f850       ?GetName@CLight@@UBEABVCTString@@XZ 10070850 f i Light.obj
 0001:0006f860       ?GetDescription@CLight@@UBEABVCTString@@XZ 10070860 f i Light.obj
 0001:0006f870       ??_GCLight@@UAEPAXI@Z      10070870 f i Light.obj
 0001:0006f870       ??_ECLight@@UAEPAXI@Z      10070870 f i Light.obj
 0001:0006f8a0       ??1CLight@@UAE@XZ          100708a0 f i Light.obj
 0001:0006fcd0       ?CLightning_New@@YAPAVCEntity@@XZ 10070cd0 f   Lightning.obj
 0001:0006fd80       ?CLightning_OnInitClass@@YAXXZ 10070d80 f   Lightning.obj
 0001:0006fd90       ?CLightning_OnEndClass@@YAXXZ 10070d90 f   Lightning.obj
 0001:0006fda0       ?CLightning_OnPrecache@@YAXPAVCDLLEntityClass@@J@Z 10070da0 f   Lightning.obj
 0001:0006fdb0       ?CLightning_OnWorldEnd@@YAXPAVCWorld@@@Z 10070db0 f   Lightning.obj
 0001:0006fdc0       ?CLightning_OnWorldInit@@YAXPAVCWorld@@@Z 10070dc0 f   Lightning.obj
 0001:0006fdd0       ?CLightning_OnWorldTick@@YAXPAVCWorld@@@Z 10070dd0 f   Lightning.obj
 0001:0006fde0       ?CLightning_OnWorldRender@@YAXPAVCWorld@@@Z 10070de0 f   Lightning.obj
 0001:0006feb0       ?SetDefaultProperties@CLightning@@UAEXXZ 10070eb0 f   Lightning.obj
 0001:0006ff90       ?Precache@CLightning@@UAEXXZ 10070f90 f   Lightning.obj
 0001:0006ffc0       ?GetAnimData@CLightning@@UAEPAVCAnimData@@J@Z 10070fc0 f   Lightning.obj
 0001:00070020       ?RenderParticles@CLightning@@UAEXXZ 10071020 f   Lightning.obj
 0001:000700c0       ?LightningStike@CLightning@@QAEHABVCEntityEvent@@@Z 100710c0 f   Lightning.obj
 0001:00070200       ?H0x025f0001_LightningStike_01@CLightning@@QAEHABVCEntityEvent@@@Z 10071200 f   Lightning.obj
 0001:00070280       ?H0x025f0002_LightningStike_02@CLightning@@QAEHABVCEntityEvent@@@Z 10071280 f   Lightning.obj
 0001:00070390       ?H0x025f0003_LightningStike_03@CLightning@@QAEHABVCEntityEvent@@@Z 10071390 f   Lightning.obj
 0001:00070410       ?H0x025f0004_LightningStike_04@CLightning@@QAEHABVCEntityEvent@@@Z 10071410 f   Lightning.obj
 0001:00070490       ?H0x025f0005_LightningStike_05@CLightning@@QAEHABVCEntityEvent@@@Z 10071490 f   Lightning.obj
 0001:00070520       ?H0x025f0006_LightningStike_06@CLightning@@QAEHABVCEntityEvent@@@Z 10071520 f   Lightning.obj
 0001:00070590       ?H0x025f0007_LightningStike_07@CLightning@@QAEHABVCEntityEvent@@@Z 10071590 f   Lightning.obj
 0001:000705f0       ?Main@CLightning@@QAEHABVCEntityEvent@@@Z 100715f0 f   Lightning.obj
 0001:000708b0       ?H0x025f0008_Main_01@CLightning@@QAEHABVCEntityEvent@@@Z 100718b0 f   Lightning.obj
 0001:00070930       ?H0x025f0009_Main_02@CLightning@@QAEHABVCEntityEvent@@@Z 10071930 f   Lightning.obj
 0001:00070990       ?H0x025f000c_Main_05@CLightning@@QAEHABVCEntityEvent@@@Z 10071990 f   Lightning.obj
 0001:00070a00       ?H0x025f000a_Main_03@CLightning@@QAEHABVCEntityEvent@@@Z 10071a00 f   Lightning.obj
 0001:00070a70       ?H0x025f000b_Main_04@CLightning@@QAEHABVCEntityEvent@@@Z 10071a70 f   Lightning.obj
 0001:00070ad0       ?H0x025f000d_Main_06@CLightning@@QAEHABVCEntityEvent@@@Z 10071ad0 f   Lightning.obj
 0001:00070ae0       ?IsTargetable@CLightning@@UBEHXZ 10071ae0 f i Lightning.obj
 0001:00070af0       ?GetName@CLightning@@UBEABVCTString@@XZ 10071af0 f i Lightning.obj
 0001:00070b00       ??_ECLightning@@UAEPAXI@Z  10071b00 f i Lightning.obj
 0001:00070b00       ??_GCLightning@@UAEPAXI@Z  10071b00 f i Lightning.obj
 0001:00070b30       ??1CLightning@@UAE@XZ      10071b30 f i Lightning.obj
 0001:00070d40       ?CMarker_New@@YAPAVCEntity@@XZ 10071d40 f   Marker.obj
 0001:00070de0       ?CMarker_OnInitClass@@YAXXZ 10071de0 f   Marker.obj
 0001:00070df0       ?CMarker_OnEndClass@@YAXXZ 10071df0 f   Marker.obj
 0001:00070e00       ?CMarker_OnPrecache@@YAXPAVCDLLEntityClass@@J@Z 10071e00 f   Marker.obj
 0001:00070e10       ?CMarker_OnWorldEnd@@YAXPAVCWorld@@@Z 10071e10 f   Marker.obj
 0001:00070e20       ?CMarker_OnWorldInit@@YAXPAVCWorld@@@Z 10071e20 f   Marker.obj
 0001:00070e30       ?CMarker_OnWorldTick@@YAXPAVCWorld@@@Z 10071e30 f   Marker.obj
 0001:00070e40       ?CMarker_OnWorldRender@@YAXPAVCWorld@@@Z 10071e40 f   Marker.obj
 0001:00070f10       ?SetDefaultProperties@CMarker@@UAEXXZ 10071f10 f   Marker.obj
 0001:00070f90       ?GetType@CMarker@@UAEJXZ   10071f90 f   Marker.obj
 0001:00070fa0       ?GetDescription@CMarker@@UBEABVCTString@@XZ 10071fa0 f   Marker.obj
 0001:00070fe0       ?MovesByTargetedRoute@CMarker@@UBEHAAVCTString@@@Z 10071fe0 f   Marker.obj
 0001:00071010       ?DropsMarker@CMarker@@UBEHAAVCTFileName@@AAVCTString@@@Z 10072010 f   Marker.obj
 0001:000710b0       ?IsMarker@CMarker@@UBEHXZ  100720b0 f   Marker.obj
 0001:000710c0       ?Main@CMarker@@QAEHABVCEntityEvent@@@Z 100720c0 f   Marker.obj
 0001:00071320       ?CMessageHolder_New@@YAPAVCEntity@@XZ 10072320 f   MessageHolder.obj
 0001:000713e0       ?CMessageHolder_OnInitClass@@YAXXZ 100723e0 f   MessageHolder.obj
 0001:000713f0       ?CMessageHolder_OnEndClass@@YAXXZ 100723f0 f   MessageHolder.obj
 0001:00071400       ?CMessageHolder_OnPrecache@@YAXPAVCDLLEntityClass@@J@Z 10072400 f   MessageHolder.obj
 0001:00071410       ?CMessageHolder_OnWorldEnd@@YAXPAVCWorld@@@Z 10072410 f   MessageHolder.obj
 0001:00071420       ?CMessageHolder_OnWorldInit@@YAXPAVCWorld@@@Z 10072420 f   MessageHolder.obj
 0001:00071430       ?CMessageHolder_OnWorldTick@@YAXPAVCWorld@@@Z 10072430 f   MessageHolder.obj
 0001:00071440       ?CMessageHolder_OnWorldRender@@YAXPAVCWorld@@@Z 10072440 f   MessageHolder.obj
 0001:00071510       ?SetDefaultProperties@CMessageHolder@@UAEXXZ 10072510 f   MessageHolder.obj
 0001:00071600       ?GetType@CMessageHolder@@UAEJXZ 10072600 f   MessageHolder.obj
 0001:00071610       ?GetDescription@CMessageHolder@@UBEABVCTString@@XZ 10072610 f   MessageHolder.obj
 0001:00071690       ?Main@CMessageHolder@@QAEHABVCEntityEvent@@@Z 10072690 f   MessageHolder.obj
 0001:00071730       ?H0x00e20000_Main_01@CMessageHolder@@QAEHABVCEntityEvent@@@Z 10072730 f   MessageHolder.obj
 0001:00071860       ?H0x00e20001_Main_02@CMessageHolder@@QAEHABVCEntityEvent@@@Z 10072860 f   MessageHolder.obj
 0001:000718c0       ?GetName@CMessageHolder@@UBEABVCTString@@XZ 100728c0 f i MessageHolder.obj
 0001:000718d0       ?IsTargetable@CMessageHolder@@UBEHXZ 100728d0 f i MessageHolder.obj
 0001:000718e0       ??_GCMessageHolder@@UAEPAXI@Z 100728e0 f i MessageHolder.obj
 0001:000718e0       ??_ECMessageHolder@@UAEPAXI@Z 100728e0 f i MessageHolder.obj
 0001:00071910       ??1CMessageHolder@@UAE@XZ  10072910 f i MessageHolder.obj
 0001:00071b40       ?CMirrorMarker_New@@YAPAVCEntity@@XZ 10072b40 f   MirrorMarker.obj
 0001:00071be0       ?CMirrorMarker_OnInitClass@@YAXXZ 10072be0 f   MirrorMarker.obj
 0001:00071bf0       ?CMirrorMarker_OnEndClass@@YAXXZ 10072bf0 f   MirrorMarker.obj
 0001:00071c00       ?CMirrorMarker_OnPrecache@@YAXPAVCDLLEntityClass@@J@Z 10072c00 f   MirrorMarker.obj
 0001:00071c10       ?CMirrorMarker_OnWorldEnd@@YAXPAVCWorld@@@Z 10072c10 f   MirrorMarker.obj
 0001:00071c20       ?CMirrorMarker_OnWorldInit@@YAXPAVCWorld@@@Z 10072c20 f   MirrorMarker.obj
 0001:00071c30       ?CMirrorMarker_OnWorldTick@@YAXPAVCWorld@@@Z 10072c30 f   MirrorMarker.obj
 0001:00071c40       ?CMirrorMarker_OnWorldRender@@YAXPAVCWorld@@@Z 10072c40 f   MirrorMarker.obj
 0001:00071ca0       ?SetDefaultProperties@CMirrorMarker@@UAEXXZ 10072ca0 f   MirrorMarker.obj
 0001:00071cc0       ?GetMirrorName@CMirrorMarker@@QAEABVCTString@@XZ 10072cc0 f   MirrorMarker.obj
 0001:00071cd0       ?GetMirror@CMirrorMarker@@QAEXAAVCMirrorParameters@@@Z 10072cd0 f   MirrorMarker.obj
 0001:00071e10       ?Main@CMirrorMarker@@QAEHABVCEntityEvent@@@Z 10072e10 f   MirrorMarker.obj
 0001:00071ec0       ?IsImportant@CMirrorMarker@@UBEHXZ 10072ec0 f i MirrorMarker.obj
 0001:00071ed0       ??_GCMirrorMarker@@UAEPAXI@Z 10072ed0 f i MirrorMarker.obj
 0001:00071ed0       ??_ECMirrorMarker@@UAEPAXI@Z 10072ed0 f i MirrorMarker.obj
 0001:00071f00       ??1CMirrorMarker@@UAE@XZ   10072f00 f i MirrorMarker.obj
 0001:00072380       ?CModelDestruction_New@@YAPAVCEntity@@XZ 10073380 f   ModelDestruction.obj
 0001:00072440       ?CModelDestruction_OnInitClass@@YAXXZ 10073440 f   ModelDestruction.obj
 0001:00072450       ?CModelDestruction_OnEndClass@@YAXXZ 10073450 f   ModelDestruction.obj
 0001:00072460       ?CModelDestruction_OnPrecache@@YAXPAVCDLLEntityClass@@J@Z 10073460 f   ModelDestruction.obj
 0001:00072470       ?CModelDestruction_OnWorldEnd@@YAXPAVCWorld@@@Z 10073470 f   ModelDestruction.obj
 0001:00072480       ?CModelDestruction_OnWorldInit@@YAXPAVCWorld@@@Z 10073480 f   ModelDestruction.obj
 0001:00072490       ?CModelDestruction_OnWorldTick@@YAXPAVCWorld@@@Z 10073490 f   ModelDestruction.obj
 0001:000724a0       ?CModelDestruction_OnWorldRender@@YAXPAVCWorld@@@Z 100734a0 f   ModelDestruction.obj
 0001:00072570       ?MakeCopy@ERangeModelDestruction@@UAEPAVCEntityEvent@@XZ 10073570 f   ModelDestruction.obj
 0001:000725a0       ??0ERangeModelDestruction@@QAE@XZ 100735a0 f   ModelDestruction.obj
 0001:000725b0       ?SetDefaultProperties@CModelDestruction@@UAEXXZ 100735b0 f   ModelDestruction.obj
 0001:000726e0       ?Precache@CModelDestruction@@UAEXXZ 100736e0 f   ModelDestruction.obj
 0001:000726f0       ?GetDescription@CModelDestruction@@UBEABVCTString@@XZ 100736f0 f   ModelDestruction.obj
 0001:00072790       ?IsValidClass@CModelDestruction@@QAEHPAVCEntity@@@Z 10073790 f   ModelDestruction.obj
 0001:000727e0       ?CheckOneModelTarget@CModelDestruction@@QAEXAAVCEntityPointer@@@Z 100737e0 f   ModelDestruction.obj
 0001:00072830       ?GetNextPhase@CModelDestruction@@QAEPAVCRationalEntity@@XZ 10073830 f   ModelDestruction.obj
 0001:00072860       ?GetModelsCount@CModelDestruction@@QBEJXZ 10073860 f   ModelDestruction.obj
 0001:000728b0       ?GetModel@CModelDestruction@@QAEPAVCRationalEntity@@J@Z 100738b0 f   ModelDestruction.obj
 0001:00072910       ?SpawnDebris@CModelDestruction@@QAEXPAVCMovableModelEntity@@@Z 10073910 f   ModelDestruction.obj
 0001:00072f90       ?Main@CModelDestruction@@QAEHABVCEntityEvent@@@Z 10073f90 f   ModelDestruction.obj
 0001:00073030       ?GetName@CModelDestruction@@UBEABVCTString@@XZ 10074030 f i ModelDestruction.obj
 0001:00073040       ?IsTargetable@CModelDestruction@@UBEHXZ 10074040 f i ModelDestruction.obj
 0001:00073050       ?IsImportant@CModelDestruction@@UBEHXZ 10074050 f i ModelDestruction.obj
 0001:00073060       ??_GCModelDestruction@@UAEPAXI@Z 10074060 f i ModelDestruction.obj
 0001:00073060       ??_ECModelDestruction@@UAEPAXI@Z 10074060 f i ModelDestruction.obj
 0001:00073090       ??1CModelDestruction@@UAE@XZ 10074090 f i ModelDestruction.obj
 0001:000735f0       ?CModelHolder_New@@YAPAVCEntity@@XZ 100745f0 f   ModelHolder.obj
 0001:00073700       ?CModelHolder_OnInitClass@@YAXXZ 10074700 f   ModelHolder.obj
 0001:00073710       ?CModelHolder_OnEndClass@@YAXXZ 10074710 f   ModelHolder.obj
 0001:00073720       ?CModelHolder_OnPrecache@@YAXPAVCDLLEntityClass@@J@Z 10074720 f   ModelHolder.obj
 0001:00073730       ?CModelHolder_OnWorldEnd@@YAXPAVCWorld@@@Z 10074730 f   ModelHolder.obj
 0001:00073740       ?CModelHolder_OnWorldInit@@YAXPAVCWorld@@@Z 10074740 f   ModelHolder.obj
 0001:00073750       ?CModelHolder_OnWorldTick@@YAXPAVCWorld@@@Z 10074750 f   ModelHolder.obj
 0001:00073760       ?CModelHolder_OnWorldRender@@YAXPAVCWorld@@@Z 10074760 f   ModelHolder.obj
 0001:00073830       ?SetDefaultProperties@CModelHolder@@UAEXXZ 10074830 f   ModelHolder.obj
 0001:00073a10       ?GetType@CModelHolder@@UAEJXZ 10074a10 f   ModelHolder.obj
 0001:00073a20       ?GetAnimData@CModelHolder@@UAEPAVCAnimData@@J@Z 10074a20 f   ModelHolder.obj
 0001:00073a70       ?AdjustShadingParameters@CModelHolder@@UAEHAAV?$Vector@M$02@@AAK1@Z 10074a70 f   ModelHolder.obj
 0001:00073d70       ?InitModelHolder@CModelHolder@@QAEXXZ 10074d70 f   ModelHolder.obj
 0001:000741b0       ?Main@CModelHolder@@QAEHABVCEntityEvent@@@Z 100751b0 f   ModelHolder.obj
 0001:000741e0       ?GetName@CModelHolder@@UBEABVCTString@@XZ 100751e0 f i ModelHolder.obj
 0001:000741f0       ?GetDescription@CModelHolder@@UBEABVCTString@@XZ 100751f0 f i ModelHolder.obj
 0001:00074200       ??_ECModelHolder@@UAEPAXI@Z 10075200 f i ModelHolder.obj
 0001:00074200       ??_GCModelHolder@@UAEPAXI@Z 10075200 f i ModelHolder.obj
 0001:00074230       ??1CModelHolder@@UAE@XZ    10075230 f i ModelHolder.obj
 0001:00074c80       ?CModelHolder2_New@@YAPAVCEntity@@XZ 10075c80 f   ModelHolder2.obj
 0001:00074df0       ?CModelHolder2_OnInitClass@@YAXXZ 10075df0 f   ModelHolder2.obj
 0001:00074e00       ?CModelHolder2_OnEndClass@@YAXXZ 10075e00 f   ModelHolder2.obj
 0001:00074e10       ?CModelHolder2_OnPrecache@@YAXPAVCDLLEntityClass@@J@Z 10075e10 f   ModelHolder2.obj
 0001:00074e20       ?CModelHolder2_OnWorldEnd@@YAXPAVCWorld@@@Z 10075e20 f   ModelHolder2.obj
 0001:00074e30       ?CModelHolder2_OnWorldInit@@YAXPAVCWorld@@@Z 10075e30 f   ModelHolder2.obj
 0001:00074e40       ?CModelHolder2_OnWorldTick@@YAXPAVCWorld@@@Z 10075e40 f   ModelHolder2.obj
 0001:00074e50       ?CModelHolder2_OnWorldRender@@YAXPAVCWorld@@@Z 10075e50 f   ModelHolder2.obj
 0001:00074f20       ?SetDefaultProperties@CModelHolder2@@UAEXXZ 10075f20 f   ModelHolder2.obj
 0001:000752f0       ?GetType@CModelHolder2@@UAEJXZ 100762f0 f   ModelHolder2.obj
 0001:00075300       ?Precache@CModelHolder2@@UAEXXZ 10076300 f   ModelHolder2.obj
 0001:00075310       ?FillEntityStatistics@CModelHolder2@@UAEHPAUEntityStats@@@Z 10076310 f   ModelHolder2.obj
 0001:00075480       ?GetClassificationBoxStretch@CModelHolder2@@UAE?AV?$Vector@M$02@@XZ 10076480 f   ModelHolder2.obj
 0001:000754b0       ?GetMaxTessellationLevel@CModelHolder2@@UAEMXZ 100764b0 f   ModelHolder2.obj
 0001:000754c0       ?ReceiveDamage@CModelHolder2@@UAEXPAVCEntity@@W4DamageType@@MABV?$Vector@M$02@@20@Z 100764c0 f   ModelHolder2.obj
 0001:00075b00       ?GetDestruction@CModelHolder2@@QAEPAVCModelDestruction@@XZ 10076b00 f   ModelHolder2.obj
 0001:00075b10       ?IsTargetable@CModelHolder2@@UBEHXZ 10076b10 f   ModelHolder2.obj
 0001:00075b20       ?GetAnimData@CModelHolder2@@UAEPAVCAnimData@@J@Z 10076b20 f   ModelHolder2.obj
 0001:00075b70       ?AdjustMipFactor@CModelHolder2@@UAEXAAM@Z 10076b70 f   ModelHolder2.obj
 0001:00075ce0       ?AdjustShadingParameters@CModelHolder2@@UAEHAAV?$Vector@M$02@@AAK1@Z 10076ce0 f   ModelHolder2.obj
 0001:00076080       ?MirrorAndStretch@CModelHolder2@@UAEXMH@Z 10077080 f   ModelHolder2.obj
 0001:000760b0       ?StretchModel@CModelHolder2@@QAEXXZ 100770b0 f   ModelHolder2.obj
 0001:00076450       ?InitModelHolder@CModelHolder2@@QAEXXZ 10077450 f   ModelHolder2.obj
 0001:00076b00       ?Die@CModelHolder2@@QAEHABVCEntityEvent@@@Z 10077b00 f   ModelHolder2.obj
 0001:00076c10       ?Main@CModelHolder2@@QAEHABVCEntityEvent@@@Z 10077c10 f   ModelHolder2.obj
 0001:00076ce0       ?H0x00d20001_Main_01@CModelHolder2@@QAEHABVCEntityEvent@@@Z 10077ce0 f   ModelHolder2.obj
 0001:00076e80       ?H0x00d20002_Main_02@CModelHolder2@@QAEHABVCEntityEvent@@@Z 10077e80 f   ModelHolder2.obj
 0001:00076e90       ?GetName@CModelHolder2@@UBEABVCTString@@XZ 10077e90 f i ModelHolder2.obj
 0001:00076ea0       ?GetDescription@CModelHolder2@@UBEABVCTString@@XZ 10077ea0 f i ModelHolder2.obj
 0001:00076eb0       ??_GCModelHolder2@@UAEPAXI@Z 10077eb0 f i ModelHolder2.obj
 0001:00076eb0       ??_ECModelHolder2@@UAEPAXI@Z 10077eb0 f i ModelHolder2.obj
 0001:00076ee0       ??1CModelHolder2@@UAE@XZ   10077ee0 f i ModelHolder2.obj
 0001:00077a80       ?CMoveableModelHolder_New@@YAPAVCEntity@@XZ 10078a80 f   MoveableModelHolder.obj
 0001:00077bf0       ?CMoveableModelHolder_OnInitClass@@YAXXZ 10078bf0 f   MoveableModelHolder.obj
 0001:00077c00       ?CMoveableModelHolder_OnEndClass@@YAXXZ 10078c00 f   MoveableModelHolder.obj
 0001:00077c10       ?CMoveableModelHolder_OnPrecache@@YAXPAVCDLLEntityClass@@J@Z 10078c10 f   MoveableModelHolder.obj
 0001:00077c20       ?CMoveableModelHolder_OnWorldEnd@@YAXPAVCWorld@@@Z 10078c20 f   MoveableModelHolder.obj
 0001:00077c30       ?CMoveableModelHolder_OnWorldInit@@YAXPAVCWorld@@@Z 10078c30 f   MoveableModelHolder.obj
 0001:00077c40       ?CMoveableModelHolder_OnWorldTick@@YAXPAVCWorld@@@Z 10078c40 f   MoveableModelHolder.obj
 0001:00077c50       ?CMoveableModelHolder_OnWorldRender@@YAXPAVCWorld@@@Z 10078c50 f   MoveableModelHolder.obj
 0001:00077d20       ?SetDefaultProperties@CMoveableModelHolder@@UAEXXZ 10078d20 f   MoveableModelHolder.obj
 0001:00078110       ?Precache@CMoveableModelHolder@@UAEXXZ 10079110 f   MoveableModelHolder.obj
 0001:00078120       ?FillEntityStatistics@CMoveableModelHolder@@UAEHPAUEntityStats@@@Z 10079120 f   MoveableModelHolder.obj
 0001:000782a0       ?GetClassificationBoxStretch@CMoveableModelHolder@@UAE?AV?$Vector@M$02@@XZ 100792a0 f   MoveableModelHolder.obj
 0001:000782d0       ?GetMaxTessellationLevel@CMoveableModelHolder@@UAEMXZ 100792d0 f   MoveableModelHolder.obj
 0001:000782e0       ?ReceiveDamage@CMoveableModelHolder@@UAEXPAVCEntity@@W4DamageType@@MABV?$Vector@M$02@@20@Z 100792e0 f   MoveableModelHolder.obj
 0001:00078970       ?GetDestruction@CMoveableModelHolder@@QAEPAVCModelDestruction@@XZ 10079970 f   MoveableModelHolder.obj
 0001:00078980       ?IsTargetable@CMoveableModelHolder@@UBEHXZ 10079980 f   MoveableModelHolder.obj
 0001:00078990       ?GetAnimData@CMoveableModelHolder@@UAEPAVCAnimData@@J@Z 10079990 f   MoveableModelHolder.obj
 0001:000789e0       ?AdjustMipFactor@CMoveableModelHolder@@UAEXAAM@Z 100799e0 f   MoveableModelHolder.obj
 0001:00078b50       ?AdjustShadingParameters@CMoveableModelHolder@@UAEHAAV?$Vector@M$02@@AAK1@Z 10079b50 f   MoveableModelHolder.obj
 0001:00078ef0       ?MirrorAndStretch@CMoveableModelHolder@@UAEXMH@Z 10079ef0 f   MoveableModelHolder.obj
 0001:00078f20       ?StretchModel@CMoveableModelHolder@@QAEXXZ 10079f20 f   MoveableModelHolder.obj
 0001:000792c0       ?InitModelHolder@CMoveableModelHolder@@QAEXXZ 1007a2c0 f   MoveableModelHolder.obj
 0001:00079960       ?Die@CMoveableModelHolder@@QAEHABVCEntityEvent@@@Z 1007a960 f   MoveableModelHolder.obj
 0001:00079ab0       ?Main@CMoveableModelHolder@@QAEHABVCEntityEvent@@@Z 1007aab0 f   MoveableModelHolder.obj
 0001:00079b80       ?H0x00d20001_Main_01@CMoveableModelHolder@@QAEHABVCEntityEvent@@@Z 1007ab80 f   MoveableModelHolder.obj
 0001:00079d20       ?H0x00d20002_Main_02@CMoveableModelHolder@@QAEHABVCEntityEvent@@@Z 1007ad20 f   MoveableModelHolder.obj
 0001:00079d30       ?GetName@CMoveableModelHolder@@UBEABVCTString@@XZ 1007ad30 f i MoveableModelHolder.obj
 0001:00079d40       ?GetDescription@CMoveableModelHolder@@UBEABVCTString@@XZ 1007ad40 f i MoveableModelHolder.obj
 0001:00079d50       ??_GCMoveableModelHolder@@UAEPAXI@Z 1007ad50 f i MoveableModelHolder.obj
 0001:00079d50       ??_ECMoveableModelHolder@@UAEPAXI@Z 1007ad50 f i MoveableModelHolder.obj
 0001:00079d80       ??1CMoveableModelHolder@@UAE@XZ 1007ad80 f i MoveableModelHolder.obj
 0001:00079ec0       ?ClearToDefault@@YAXAAW4SOUND_SEASON@@@Z 1007aec0 f i MovingBrush.obj
 0001:00079ed0       ??0EHit@@QAE@ABV0@@Z       1007aed0 f i MovingBrush.obj
 0001:00079ef0       ??4EHit@@QAEAAV0@ABV0@@Z   1007aef0 f i MovingBrush.obj
 0001:00079f10       ??1EHit@@UAE@XZ            1007af10 f i MovingBrush.obj
 0001:00079f20       ??_GEHit@@UAEPAXI@Z        1007af20 f i MovingBrush.obj
 0001:00079f50       ??_EEHit@@UAEPAXI@Z        1007af50 f i MovingBrush.obj
 0001:00079fb0       ?ClearToDefault@@YAXAAVEHit@@@Z 1007afb0 f i MovingBrush.obj
 0001:00079fd0       ??0EBrushDestroyed@@QAE@ABV0@@Z 1007afd0 f i MovingBrush.obj
 0001:00079ff0       ??4EBrushDestroyed@@QAEAAV0@ABV0@@Z 1007aff0 f i MovingBrush.obj
 0001:0007a010       ??1EBrushDestroyed@@UAE@XZ 1007b010 f i MovingBrush.obj
 0001:0007a020       ??_GEBrushDestroyed@@UAEPAXI@Z 1007b020 f i MovingBrush.obj
 0001:0007a050       ??_EEBrushDestroyed@@UAEPAXI@Z 1007b050 f i MovingBrush.obj
 0001:0007a0b0       ?ClearToDefault@@YAXAAVEBrushDestroyed@@@Z 1007b0b0 f i MovingBrush.obj
 0001:0007a0d0       ?ClearToDefault@@YAXAAW4BlockAction@@@Z 1007b0d0 f i MovingBrush.obj
 0001:0007a0e0       ?ClearToDefault@@YAXAAW4TouchOrDamageEvent@@@Z 1007b0e0 f i MovingBrush.obj
 0001:0007a0f0       ?ClearToDefault@@YAXAAW4e_TimeMethods@@@Z 1007b0f0 f i MovingBrush.obj
 0001:0007ae00       ?CMovingBrush_New@@YAPAVCEntity@@XZ 1007be00 f   MovingBrush.obj
 0001:0007af20       ?CMovingBrush_OnInitClass@@YAXXZ 1007bf20 f   MovingBrush.obj
 0001:0007af30       ?CMovingBrush_OnEndClass@@YAXXZ 1007bf30 f   MovingBrush.obj
 0001:0007af40       ?CMovingBrush_OnPrecache@@YAXPAVCDLLEntityClass@@J@Z 1007bf40 f   MovingBrush.obj
 0001:0007af50       ?CMovingBrush_OnWorldEnd@@YAXPAVCWorld@@@Z 1007bf50 f   MovingBrush.obj
 0001:0007af60       ?CMovingBrush_OnWorldInit@@YAXPAVCWorld@@@Z 1007bf60 f   MovingBrush.obj
 0001:0007af70       ?CMovingBrush_OnWorldTick@@YAXPAVCWorld@@@Z 1007bf70 f   MovingBrush.obj
 0001:0007af80       ?CMovingBrush_OnWorldRender@@YAXPAVCWorld@@@Z 1007bf80 f   MovingBrush.obj
 0001:0007b050       ?MakeCopy@EHit@@UAEPAVCEntityEvent@@XZ 1007c050 f   MovingBrush.obj
 0001:0007b080       ??0EHit@@QAE@XZ            1007c080 f   MovingBrush.obj
 0001:0007b090       ?MakeCopy@EBrushDestroyed@@UAEPAVCEntityEvent@@XZ 1007c090 f   MovingBrush.obj
 0001:0007b0c0       ??0EBrushDestroyed@@QAE@XZ 1007c0c0 f   MovingBrush.obj
 0001:0007b0d0       ?SetDefaultProperties@CMovingBrush@@UAEXXZ 1007c0d0 f   MovingBrush.obj
 0001:0007b430       ?GetType@CMovingBrush@@UAEJXZ 1007c430 f   MovingBrush.obj
 0001:0007b440       ?Precache@CMovingBrush@@UAEXXZ 1007c440 f   MovingBrush.obj
 0001:0007b470       ?GetForce@CMovingBrush@@UAEXJABV?$Vector@M$02@@AAVCForceStrength@@1@Z 1007c470 f   MovingBrush.obj
 0001:0007b490       ?ReceiveDamage@CMovingBrush@@UAEXPAVCEntity@@W4DamageType@@MABV?$Vector@M$02@@20@Z 1007c490 f   MovingBrush.obj
 0001:0007b590       ?AdjustAngle@CMovingBrush@@QAEXAAM@Z 1007c590 f   MovingBrush.obj
 0001:0007b5e0       ?MovesByTargetedRoute@CMovingBrush@@UBEHAAVCTString@@@Z 1007c5e0 f   MovingBrush.obj
 0001:0007b610       ?DropsMarker@CMovingBrush@@UBEHAAVCTFileName@@AAVCTString@@@Z 1007c610 f   MovingBrush.obj
 0001:0007b6b0       ?GetDescription@CMovingBrush@@UBEABVCTString@@XZ 1007c6b0 f   MovingBrush.obj
 0001:0007b6f0       ?GetMirrorName@CMovingBrush@@UAEABVCTString@@J@Z 1007c6f0 f   MovingBrush.obj
 0001:0007b9f0       ?GetMirror@CMovingBrush@@UAEHJAAVCMirrorParameters@@@Z 1007c9f0 f   MovingBrush.obj
 0001:0007ba50       ?PreMoving@CMovingBrush@@UAEXXZ 1007ca50 f   MovingBrush.obj
 0001:0007be60       ?LoadMarkerParameters@CMovingBrush@@QAEHXZ 1007ce60 f   MovingBrush.obj
 0001:0007c050       ?CanReactOnEntity@CMovingBrush@@QAEHPAVCEntity@@@Z 1007d050 f   MovingBrush.obj
 0001:0007c0a0       ?PlayStartSound@CMovingBrush@@QAEXXZ 1007d0a0 f   MovingBrush.obj
 0001:0007c100       ?PlayStopSound@CMovingBrush@@QAEXXZ 1007d100 f   MovingBrush.obj
 0001:0007c160       ?PlayFollowSound@CMovingBrush@@QAEXXZ 1007d160 f   MovingBrush.obj
 0001:0007c1c0       ?StopFollowSound@CMovingBrush@@QAEXXZ 1007d1c0 f   MovingBrush.obj
 0001:0007c1d0       ?MovingOn@CMovingBrush@@QAEXXZ 1007d1d0 f   MovingBrush.obj
 0001:0007c200       ?MovingOff@CMovingBrush@@QAEXXZ 1007d200 f   MovingBrush.obj
 0001:0007c230       ?MoveToMarker@CMovingBrush@@QAEHABVCEntityEvent@@@Z 1007d230 f   MovingBrush.obj
 0001:0007c6a0       ?H0x00650003_MoveToMarker_01@CMovingBrush@@QAEHABVCEntityEvent@@@Z 1007d6a0 f   MovingBrush.obj
 0001:0007c860       ?H0x00650004_MoveToMarker_02@CMovingBrush@@QAEHABVCEntityEvent@@@Z 1007d860 f   MovingBrush.obj
 0001:0007c870       ?BounceObstructed@CMovingBrush@@QAEHABVCEntityEvent@@@Z 1007d870 f   MovingBrush.obj
 0001:0007c8e0       ?H0x00650006_BounceObstructed_01@CMovingBrush@@QAEHABVCEntityEvent@@@Z 1007d8e0 f   MovingBrush.obj
 0001:0007c960       ?H0x00650007_BounceObstructed_02@CMovingBrush@@QAEHABVCEntityEvent@@@Z 1007d960 f   MovingBrush.obj
 0001:0007c9d0       ?Rotating@CMovingBrush@@QAEHABVCEntityEvent@@@Z 1007d9d0 f   MovingBrush.obj
 0001:0007ca50       ?RotInactive@CMovingBrush@@QAEHABVCEntityEvent@@@Z 1007da50 f   MovingBrush.obj
 0001:0007cae0       ?H0x0065000a_RotInactive_01@CMovingBrush@@QAEHABVCEntityEvent@@@Z 1007dae0 f   MovingBrush.obj
 0001:0007cb50       ?H0x0065000b_RotInactive_02@CMovingBrush@@QAEHABVCEntityEvent@@@Z 1007db50 f   MovingBrush.obj
 0001:0007cb60       ?RotActive@CMovingBrush@@QAEHABVCEntityEvent@@@Z 1007db60 f   MovingBrush.obj
 0001:0007cbf0       ?H0x0065000d_RotActive_01@CMovingBrush@@QAEHABVCEntityEvent@@@Z 1007dbf0 f   MovingBrush.obj
 0001:0007cc60       ?H0x0065000e_RotActive_02@CMovingBrush@@QAEHABVCEntityEvent@@@Z 1007dc60 f   MovingBrush.obj
 0001:0007cc70       ?MoveBrush@CMovingBrush@@QAEHABVCEntityEvent@@@Z 1007dc70 f   MovingBrush.obj
 0001:0007cd00       ?H0x00650017_MoveBrush_08@CMovingBrush@@QAEHABVCEntityEvent@@@Z 1007dd00 f   MovingBrush.obj
 0001:0007cdf0       ?H0x00650014_MoveBrush_05@CMovingBrush@@QAEHABVCEntityEvent@@@Z 1007ddf0 f   MovingBrush.obj
 0001:0007ce90       ?H0x00650010_MoveBrush_01@CMovingBrush@@QAEHABVCEntityEvent@@@Z 1007de90 f   MovingBrush.obj
 0001:0007cf10       ?H0x00650011_MoveBrush_02@CMovingBrush@@QAEHABVCEntityEvent@@@Z 1007df10 f   MovingBrush.obj
 0001:0007cf70       ?H0x00650012_MoveBrush_03@CMovingBrush@@QAEHABVCEntityEvent@@@Z 1007df70 f   MovingBrush.obj
 0001:0007cfd0       ?H0x00650013_MoveBrush_04@CMovingBrush@@QAEHABVCEntityEvent@@@Z 1007dfd0 f   MovingBrush.obj
 0001:0007d040       ?H0x00650015_MoveBrush_06@CMovingBrush@@QAEHABVCEntityEvent@@@Z 1007e040 f   MovingBrush.obj
 0001:0007d0e0       ?H0x00650016_MoveBrush_07@CMovingBrush@@QAEHABVCEntityEvent@@@Z 1007e0e0 f   MovingBrush.obj
 0001:0007d190       ?H0x00650018_MoveBrush_09@CMovingBrush@@QAEHABVCEntityEvent@@@Z 1007e190 f   MovingBrush.obj
 0001:0007d1f0       ?TeleportToStopMarker@CMovingBrush@@QAEHABVCEntityEvent@@@Z 1007e1f0 f   MovingBrush.obj
 0001:0007d300       ?Main@CMovingBrush@@QAEHABVCEntityEvent@@@Z 1007e300 f   MovingBrush.obj
 0001:0007d3e0       ?H0x0065001a_Main_01@CMovingBrush@@QAEHABVCEntityEvent@@@Z 1007e3e0 f   MovingBrush.obj
 0001:0007d460       ?H0x0065001b_Main_02@CMovingBrush@@QAEHABVCEntityEvent@@@Z 1007e460 f   MovingBrush.obj
 0001:0007d500       ?H0x0065001c_Main_03@CMovingBrush@@QAEHABVCEntityEvent@@@Z 1007e500 f   MovingBrush.obj
 0001:0007da30       ?H0x0065001d_Main_04@CMovingBrush@@QAEHABVCEntityEvent@@@Z 1007ea30 f   MovingBrush.obj
 0001:0007da90       ?GetName@CMovingBrush@@UBEABVCTString@@XZ 1007ea90 f i MovingBrush.obj
 0001:0007daa0       ?IsTargetable@CMovingBrush@@UBEHXZ 1007eaa0 f i MovingBrush.obj
 0001:0007dab0       ??_ECMovingBrush@@UAEPAXI@Z 1007eab0 f i MovingBrush.obj
 0001:0007dab0       ??_GCMovingBrush@@UAEPAXI@Z 1007eab0 f i MovingBrush.obj
 0001:0007dae0       ??1CMovingBrush@@UAE@XZ    1007eae0 f i MovingBrush.obj
 0001:0007e030       ?CMovingBrushMarker_New@@YAPAVCEntity@@XZ 1007f030 f   MovingBrushMarker.obj
 0001:0007e0f0       ?CMovingBrushMarker_OnInitClass@@YAXXZ 1007f0f0 f   MovingBrushMarker.obj
 0001:0007e100       ?CMovingBrushMarker_OnEndClass@@YAXXZ 1007f100 f   MovingBrushMarker.obj
 0001:0007e110       ?CMovingBrushMarker_OnPrecache@@YAXPAVCDLLEntityClass@@J@Z 1007f110 f   MovingBrushMarker.obj
 0001:0007e120       ?CMovingBrushMarker_OnWorldEnd@@YAXPAVCWorld@@@Z 1007f120 f   MovingBrushMarker.obj
 0001:0007e130       ?CMovingBrushMarker_OnWorldInit@@YAXPAVCWorld@@@Z 1007f130 f   MovingBrushMarker.obj
 0001:0007e140       ?CMovingBrushMarker_OnWorldTick@@YAXPAVCWorld@@@Z 1007f140 f   MovingBrushMarker.obj
 0001:0007e150       ?CMovingBrushMarker_OnWorldRender@@YAXPAVCWorld@@@Z 1007f150 f   MovingBrushMarker.obj
 0001:0007e1b0       ?SetDefaultProperties@CMovingBrushMarker@@UAEXXZ 1007f1b0 f   MovingBrushMarker.obj
 0001:0007e2b0       ?GetType@CMovingBrushMarker@@UAEJXZ 1007f2b0 f   MovingBrushMarker.obj
 0001:0007e2c0       ?DropsMarker@CMovingBrushMarker@@UBEHAAVCTFileName@@AAVCTString@@@Z 1007f2c0 f   MovingBrushMarker.obj
 0001:0007e360       ?Main@CMovingBrushMarker@@QAEHABVCEntityEvent@@@Z 1007f360 f   MovingBrushMarker.obj
 0001:0007e3c0       ??_GCMovingBrushMarker@@UAEPAXI@Z 1007f3c0 f i MovingBrushMarker.obj
 0001:0007e3c0       ??_ECMovingBrushMarker@@UAEPAXI@Z 1007f3c0 f i MovingBrushMarker.obj
 0001:0007e3f0       ??1CMovingBrushMarker@@UAE@XZ 1007f3f0 f i MovingBrushMarker.obj
 0001:0007e720       ?CMusicChanger_New@@YAPAVCEntity@@XZ 1007f720 f   MusicChanger.obj
 0001:0007e7d0       ?CMusicChanger_OnInitClass@@YAXXZ 1007f7d0 f   MusicChanger.obj
 0001:0007e7e0       ?CMusicChanger_OnEndClass@@YAXXZ 1007f7e0 f   MusicChanger.obj
 0001:0007e7f0       ?CMusicChanger_OnPrecache@@YAXPAVCDLLEntityClass@@J@Z 1007f7f0 f   MusicChanger.obj
 0001:0007e800       ?CMusicChanger_OnWorldEnd@@YAXPAVCWorld@@@Z 1007f800 f   MusicChanger.obj
 0001:0007e810       ?CMusicChanger_OnWorldInit@@YAXPAVCWorld@@@Z 1007f810 f   MusicChanger.obj
 0001:0007e820       ?CMusicChanger_OnWorldTick@@YAXPAVCWorld@@@Z 1007f820 f   MusicChanger.obj
 0001:0007e830       ?CMusicChanger_OnWorldRender@@YAXPAVCWorld@@@Z 1007f830 f   MusicChanger.obj
 0001:0007e900       ?SetDefaultProperties@CMusicChanger@@UAEXXZ 1007f900 f   MusicChanger.obj
 0001:0007e9e0       ?Main@CMusicChanger@@QAEHABVCEntityEvent@@@Z 1007f9e0 f   MusicChanger.obj
 0001:0007eae0       ?H0x00e10000_Main_01@CMusicChanger@@QAEHABVCEntityEvent@@@Z 1007fae0 f   MusicChanger.obj
 0001:0007eb60       ?H0x00e10001_Main_02@CMusicChanger@@QAEHABVCEntityEvent@@@Z 1007fb60 f   MusicChanger.obj
 0001:0007ebd0       ?H0x00e10002_Main_03@CMusicChanger@@QAEHABVCEntityEvent@@@Z 1007fbd0 f   MusicChanger.obj
 0001:0007ecf0       ?H0x00e10003_Main_04@CMusicChanger@@QAEHABVCEntityEvent@@@Z 1007fcf0 f   MusicChanger.obj
 0001:0007ed50       ?GetName@CMusicChanger@@UBEABVCTString@@XZ 1007fd50 f i MusicChanger.obj
 0001:0007ed60       ?GetDescription@CMusicChanger@@UBEABVCTString@@XZ 1007fd60 f i MusicChanger.obj
 0001:0007ed70       ?IsTargetable@CMusicChanger@@UBEHXZ 1007fd70 f i MusicChanger.obj
 0001:0007ed80       ?IsImportant@CMusicChanger@@UBEHXZ 1007fd80 f i MusicChanger.obj
 0001:0007ed90       ??_ECMusicChanger@@UAEPAXI@Z 1007fd90 f i MusicChanger.obj
 0001:0007ed90       ??_GCMusicChanger@@UAEPAXI@Z 1007fd90 f i MusicChanger.obj
 0001:0007edc0       ??1CMusicChanger@@UAE@XZ   1007fdc0 f i MusicChanger.obj
 0001:0007f780       ?CMusicHolder_New@@YAPAVCEntity@@XZ 10080780 f   MusicHolder.obj
 0001:0007f930       ?CMusicHolder_OnInitClass@@YAXXZ 10080930 f   MusicHolder.obj
 0001:0007f940       ?CMusicHolder_OnEndClass@@YAXXZ 10080940 f   MusicHolder.obj
 0001:0007f950       ?CMusicHolder_OnPrecache@@YAXPAVCDLLEntityClass@@J@Z 10080950 f   MusicHolder.obj
 0001:0007f960       ?CMusicHolder_OnWorldEnd@@YAXPAVCWorld@@@Z 10080960 f   MusicHolder.obj
 0001:0007f970       ?CMusicHolder_OnWorldInit@@YAXPAVCWorld@@@Z 10080970 f   MusicHolder.obj
 0001:0007f980       ?CMusicHolder_OnWorldTick@@YAXPAVCWorld@@@Z 10080980 f   MusicHolder.obj
 0001:0007f990       ?CMusicHolder_OnWorldRender@@YAXPAVCWorld@@@Z 10080990 f   MusicHolder.obj
 0001:0007fa60       ?MakeCopy@EChangeMusic@@UAEPAVCEntityEvent@@XZ 10080a60 f   MusicHolder.obj
 0001:0007faf0       ??0EChangeMusic@@QAE@XZ    10080af0 f   MusicHolder.obj
 0001:0007fb80       ?FadeInFactor@@YAMM@Z      10080b80 f   MusicHolder.obj
 0001:0007fba0       ?FadeOutFactor@@YAMM@Z     10080ba0 f   MusicHolder.obj
 0001:0007fbc0       ?SetDefaultProperties@CMusicHolder@@UAEXXZ 10080bc0 f   MusicHolder.obj
 0001:0007fef0       ?ChangeMusicChannel@CMusicHolder@@QAEXW4MusicType@@ABVCTFileName@@M@Z 10080ef0 f   MusicHolder.obj
 0001:0007ffc0       ?FadeOutChannel@CMusicHolder@@QAEXJJ@Z 10080fc0 f   MusicHolder.obj
 0001:00080050       ?FadeInChannel@CMusicHolder@@QAEXJJ@Z 10081050 f   MusicHolder.obj
 0001:00080100       ?CrossFadeOneChannel@CMusicHolder@@QAEXW4MusicType@@@Z 10081100 f   MusicHolder.obj
 0001:00080160       ?Main@CMusicHolder@@QAEHABVCEntityEvent@@@Z 10081160 f   MusicHolder.obj
 0001:00080200       ?H0x00de0001_Main_01@CMusicHolder@@QAEHABVCEntityEvent@@@Z 10081200 f   MusicHolder.obj
 0001:00080280       ?H0x00de0002_Main_02@CMusicHolder@@QAEHABVCEntityEvent@@@Z 10081280 f   MusicHolder.obj
 0001:00080390       ?H0x00de0003_Main_03@CMusicHolder@@QAEHABVCEntityEvent@@@Z 10081390 f   MusicHolder.obj
 0001:00080410       ?H0x00de0004_Main_04@CMusicHolder@@QAEHABVCEntityEvent@@@Z 10081410 f   MusicHolder.obj
 0001:00080470       ?H0x00de0007_Main_07@CMusicHolder@@QAEHABVCEntityEvent@@@Z 10081470 f   MusicHolder.obj
 0001:000804e0       ?H0x00de0005_Main_05@CMusicHolder@@QAEHABVCEntityEvent@@@Z 100814e0 f   MusicHolder.obj
 0001:000805b0       ?H0x00de0006_Main_06@CMusicHolder@@QAEHABVCEntityEvent@@@Z 100815b0 f   MusicHolder.obj
 0001:000806b0       ?H0x00de0008_Main_08@CMusicHolder@@QAEHABVCEntityEvent@@@Z 100816b0 f   MusicHolder.obj
 0001:00080710       ?GetName@CMusicHolder@@UBEABVCTString@@XZ 10081710 f i MusicHolder.obj
 0001:00080720       ?IsTargetable@CMusicHolder@@UBEHXZ 10081720 f i MusicHolder.obj
 0001:00080730       ?IsImportant@CMusicHolder@@UBEHXZ 10081730 f i MusicHolder.obj
 0001:00080740       ??_ECMusicHolder@@UAEPAXI@Z 10081740 f i MusicHolder.obj
 0001:00080740       ??_GCMusicHolder@@UAEPAXI@Z 10081740 f i MusicHolder.obj
 0001:00080770       ??1CMusicHolder@@UAE@XZ    10081770 f i MusicHolder.obj
 0001:00080960       ??0CPathNode@@QAE@ABV0@@Z  10081960 f i NavigationMarker.obj
 0001:000809a0       ??4CPathNode@@QAEAAV0@ABV0@@Z 100819a0 f i NavigationMarker.obj
 0001:00080d00       ?CNavigationMarker_New@@YAPAVCEntity@@XZ 10081d00 f   NavigationMarker.obj
 0001:00080dc0       ?CNavigationMarker_OnInitClass@@YAXXZ 10081dc0 f   NavigationMarker.obj
 0001:00080dd0       ?CNavigationMarker_OnEndClass@@YAXXZ 10081dd0 f   NavigationMarker.obj
 0001:00080de0       ?CNavigationMarker_OnPrecache@@YAXPAVCDLLEntityClass@@J@Z 10081de0 f   NavigationMarker.obj
 0001:00080df0       ?CNavigationMarker_OnWorldEnd@@YAXPAVCWorld@@@Z 10081df0 f   NavigationMarker.obj
 0001:00080e00       ?CNavigationMarker_OnWorldInit@@YAXPAVCWorld@@@Z 10081e00 f   NavigationMarker.obj
 0001:00080e10       ?CNavigationMarker_OnWorldTick@@YAXPAVCWorld@@@Z 10081e10 f   NavigationMarker.obj
 0001:00080e20       ?CNavigationMarker_OnWorldRender@@YAXPAVCWorld@@@Z 10081e20 f   NavigationMarker.obj
 0001:00080ef0       ?SetDefaultProperties@CNavigationMarker@@UAEXXZ 10081ef0 f   NavigationMarker.obj
 0001:00081000       ?IsMarker@CNavigationMarker@@UBEHXZ 10082000 f   NavigationMarker.obj
 0001:00081010       ?GetType@CNavigationMarker@@UAEJXZ 10082010 f   NavigationMarker.obj
 0001:00081020       ?DropsMarker@CNavigationMarker@@UBEHAAVCTFileName@@AAVCTString@@@Z 10082020 f   NavigationMarker.obj
 0001:000810c0       ?Copy@CNavigationMarker@@UAEXAAVCEntity@@K@Z 100820c0 f   NavigationMarker.obj
 0001:00081100       ?Write_t@CNavigationMarker@@UAEXPAVCTStream@@@Z 10082100 f   NavigationMarker.obj
 0001:000811b0       ?Read_t@CNavigationMarker@@UAEXPAVCTStream@@@Z 100821b0 f   NavigationMarker.obj
 0001:00081270       ?RenderParticles@CNavigationMarker@@UAEXXZ 10082270 f   NavigationMarker.obj
 0001:00081280       ?CreateTrail@CNavigationMarker@@QAEXXZ 10082280 f   NavigationMarker.obj
 0001:00081e10       ?BSpline2@CNavigationMarker@@QAEXAAV?$Vector@M$02@@000M@Z 10082e10 f   NavigationMarker.obj
 0001:00081e80       ?BSpline3@CNavigationMarker@@QAEXAAV?$Vector@M$02@@0000M@Z 10082e80 f   NavigationMarker.obj
 0001:00081f20       ?Main@CNavigationMarker@@QAEHABVCEntityEvent@@@Z 10082f20 f   NavigationMarker.obj
 0001:00082020       ??1DescriptionType@HTrailDecal@@QAE@XZ 10083020 f i NavigationMarker.obj
 0001:00082030       ??0?$Vector@M$02@@QAE@XZ   10083030 f i NavigationMarker.obj
 0001:00082040       ??1?$CStaticArray@V?$Vector@M$02@@@@QAE@XZ 10083040 f i NavigationMarker.obj
 0001:00082070       ?ClearToDefault@@YAXAAW4ParticlesHolderType@@@Z 10083070 f i ParticlesHolder.obj
 0001:00082490       ?CParticlesHolder_New@@YAPAVCEntity@@XZ 10083490 f   ParticlesHolder.obj
 0001:00082520       ?CParticlesHolder_OnInitClass@@YAXXZ 10083520 f   ParticlesHolder.obj
 0001:00082530       ?CParticlesHolder_OnEndClass@@YAXXZ 10083530 f   ParticlesHolder.obj
 0001:00082540       ?CParticlesHolder_OnPrecache@@YAXPAVCDLLEntityClass@@J@Z 10083540 f   ParticlesHolder.obj
 0001:00082550       ?CParticlesHolder_OnWorldEnd@@YAXPAVCWorld@@@Z 10083550 f   ParticlesHolder.obj
 0001:00082560       ?CParticlesHolder_OnWorldInit@@YAXPAVCWorld@@@Z 10083560 f   ParticlesHolder.obj
 0001:00082570       ?CParticlesHolder_OnWorldTick@@YAXPAVCWorld@@@Z 10083570 f   ParticlesHolder.obj
 0001:00082580       ?CParticlesHolder_OnWorldRender@@YAXPAVCWorld@@@Z 10083580 f   ParticlesHolder.obj
 0001:00082650       ?SetDefaultProperties@CParticlesHolder@@UAEXXZ 10083650 f   ParticlesHolder.obj
 0001:00082730       ?RenderParticles@CParticlesHolder@@UAEXXZ 10083730 f   ParticlesHolder.obj
 0001:00082a60       ?IsTargetable@CParticlesHolder@@UBEHXZ 10083a60 f   ParticlesHolder.obj
 0001:00082a70       ?MirrorAndStretch@CParticlesHolder@@UAEXMH@Z 10083a70 f   ParticlesHolder.obj
 0001:00082aa0       ?StretchModel@CParticlesHolder@@QAEXXZ 10083aa0 f   ParticlesHolder.obj
 0001:00082c90       ?GetLerpedPlacement@CParticlesHolder@@UBE?AVCPlacement3D@@XZ 10083c90 f   ParticlesHolder.obj
 0001:00082cb0       ?Active@CParticlesHolder@@QAEHABVCEntityEvent@@@Z 10083cb0 f   ParticlesHolder.obj
 0001:00082d20       ?H0x00df0003_Active_03@CParticlesHolder@@QAEHABVCEntityEvent@@@Z 10083d20 f   ParticlesHolder.obj
 0001:00082da0       ?H0x00df0001_Active_01@CParticlesHolder@@QAEHABVCEntityEvent@@@Z 10083da0 f   ParticlesHolder.obj
 0001:00082e80       ?H0x00df0002_Active_02@CParticlesHolder@@QAEHABVCEntityEvent@@@Z 10083e80 f   ParticlesHolder.obj
 0001:00082ee0       ?H0x00df0004_Active_04@CParticlesHolder@@QAEHABVCEntityEvent@@@Z 10083ee0 f   ParticlesHolder.obj
 0001:00082ef0       ?Inactive@CParticlesHolder@@QAEHABVCEntityEvent@@@Z 10083ef0 f   ParticlesHolder.obj
 0001:00082f60       ?H0x00df0006_Inactive_01@CParticlesHolder@@QAEHABVCEntityEvent@@@Z 10083f60 f   ParticlesHolder.obj
 0001:00083010       ?H0x00df0007_Inactive_02@CParticlesHolder@@QAEHABVCEntityEvent@@@Z 10084010 f   ParticlesHolder.obj
 0001:00083020       ?Main@CParticlesHolder@@QAEHABVCEntityEvent@@@Z 10084020 f   ParticlesHolder.obj
 0001:00083130       ?GetName@CParticlesHolder@@UBEABVCTString@@XZ 10084130 f i ParticlesHolder.obj
 0001:00083140       ?GetDescription@CParticlesHolder@@UBEABVCTString@@XZ 10084140 f i ParticlesHolder.obj
 0001:00083150       ??_ECParticlesHolder@@UAEPAXI@Z 10084150 f i ParticlesHolder.obj
 0001:00083150       ??_GCParticlesHolder@@UAEPAXI@Z 10084150 f i ParticlesHolder.obj
 0001:00083180       ??1CParticlesHolder@@UAE@XZ 10084180 f i ParticlesHolder.obj
 0001:00083d40       ?CParticleSystem_New@@YAPAVCEntity@@XZ 10084d40 f   ParticleSystem.obj
 0001:00083eb0       ?CParticleSystem_OnInitClass@@YAXXZ 10084eb0 f   ParticleSystem.obj
 0001:00083ec0       ?CParticleSystem_OnEndClass@@YAXXZ 10084ec0 f   ParticleSystem.obj
 0001:00083ed0       ?CParticleSystem_OnPrecache@@YAXPAVCDLLEntityClass@@J@Z 10084ed0 f   ParticleSystem.obj
 0001:00083ee0       ?CParticleSystem_OnWorldEnd@@YAXPAVCWorld@@@Z 10084ee0 f   ParticleSystem.obj
 0001:00083ef0       ?CParticleSystem_OnWorldInit@@YAXPAVCWorld@@@Z 10084ef0 f   ParticleSystem.obj
 0001:00083f00       ?CParticleSystem_OnWorldTick@@YAXPAVCWorld@@@Z 10084f00 f   ParticleSystem.obj
 0001:00083f10       ?CParticleSystem_OnWorldRender@@YAXPAVCWorld@@@Z 10084f10 f   ParticleSystem.obj
 0001:00083fe0       ?SetDefaultProperties@CParticleSystem@@UAEXXZ 10084fe0 f   ParticleSystem.obj
 0001:00084440       ?Copy@CParticleSystem@@UAEXAAVCEntity@@K@Z 10085440 f   ParticleSystem.obj
 0001:00084840       ?Read_t@CParticleSystem@@UAEXPAVCTStream@@@Z 10085840 f   ParticleSystem.obj
 0001:00084bc0       ?Write_t@CParticleSystem@@UAEXPAVCTStream@@@Z 10085bc0 f   ParticleSystem.obj
 0001:00084e80       ?RenderParticles@CParticleSystem@@UAEXXZ 10085e80 f   ParticleSystem.obj
 0001:00084ee0       ?IsParticleInRainmap@CParticleSystem@@QAEHJ@Z 10085ee0 f   ParticleSystem.obj
 0001:00085010       ?RenderNormal@CParticleSystem@@QAEXXZ 10086010 f   ParticleSystem.obj
 0001:000853c0       ?RenderString@CParticleSystem@@QAEXXZ 100863c0 f   ParticleSystem.obj
 0001:00085470       ?ActivateParticles@CParticleSystem@@QAEXM@Z 10086470 f   ParticleSystem.obj
 0001:000854c0       ?DeActivateParticles@CParticleSystem@@QAEXXZ 100864c0 f   ParticleSystem.obj
 0001:00085520       ?UpdateParticles@CParticleSystem@@QAEXXZ 10086520 f   ParticleSystem.obj
 0001:00085a60       ?UpdateString@CParticleSystem@@QAEXXZ 10086a60 f   ParticleSystem.obj
 0001:00086530       ?InitParticles@CParticleSystem@@QAEXXZ 10087530 f   ParticleSystem.obj
 0001:000867a0       ?SetInitValues@CParticleSystem@@QAEXXZ 100877a0 f   ParticleSystem.obj
 0001:000867d0       ?SetInitNormal@CParticleSystem@@QAEXXZ 100877d0 f   ParticleSystem.obj
 0001:00086a60       ?SetInitString@CParticleSystem@@QAEXXZ 10087a60 f   ParticleSystem.obj
 0001:00086cc0       ?ChooseRandomFlare@CParticleSystem@@QAEXAAV?$Vector@M$02@@@Z 10087cc0 f   ParticleSystem.obj
 0001:00086e60       ?Main@CParticleSystem@@QAEHABVCEntityEvent@@@Z 10087e60 f   ParticleSystem.obj
 0001:00086f10       ?H0x4e200000_Main_01@CParticleSystem@@QAEHABVCEntityEvent@@@Z 10087f10 f   ParticleSystem.obj
 0001:00086f90       ?H0x4e200001_Main_02@CParticleSystem@@QAEHABVCEntityEvent@@@Z 10087f90 f   ParticleSystem.obj
 0001:000870e0       ?H0x4e200004_Main_05@CParticleSystem@@QAEHABVCEntityEvent@@@Z 100880e0 f   ParticleSystem.obj
 0001:000871f0       ?H0x4e200002_Main_03@CParticleSystem@@QAEHABVCEntityEvent@@@Z 100881f0 f   ParticleSystem.obj
 0001:00087280       ?H0x4e200003_Main_04@CParticleSystem@@QAEHABVCEntityEvent@@@Z 10088280 f   ParticleSystem.obj
 0001:000872e0       ?H0x4e200005_Main_06@CParticleSystem@@QAEHABVCEntityEvent@@@Z 100882e0 f   ParticleSystem.obj
 0001:00087340       ?GetName@CParticleSystem@@UBEABVCTString@@XZ 10088340 f i ParticleSystem.obj
 0001:00087350       ?GetDescription@CParticleSystem@@UBEABVCTString@@XZ 10088350 f i ParticleSystem.obj
 0001:00087360       ?IsTargetable@CParticleSystem@@UBEHXZ 10088360 f i ParticleSystem.obj
 0001:00087370       ??_ECParticleSystem@@UAEPAXI@Z 10088370 f i ParticleSystem.obj
 0001:00087370       ??_GCParticleSystem@@UAEPAXI@Z 10088370 f i ParticleSystem.obj
 0001:000873a0       ??1CParticleSystem@@UAE@XZ 100883a0 f i ParticleSystem.obj
 0001:000875b0       ??1?$CStaticArray@M@@QAE@XZ 100885b0 f i ParticleSystem.obj
 0001:000875e0       ?New@?$CStaticArray@V?$Vector@M$02@@@@QAEXJ@Z 100885e0 f i ParticleSystem.obj
 0001:00087620       ??1?$CStaticArray@H@@QAE@XZ 10088620 f i ParticleSystem.obj
 0001:00087650       ?Delete@?$CStaticArray@M@@QAEXXZ 10088650 f i ParticleSystem.obj
 0001:00087670       ??0CCollisionGrid@@QAE@XZ  10088670 f   PathFinding.obj
 0001:000876f0       ??1CCollisionGrid@@QAE@XZ  100886f0 f   PathFinding.obj
 0001:000877d0       ?Clear@CCollisionGrid@@QAEXXZ 100887d0 f   PathFinding.obj
 0001:00087890       ?CreateCell@CCollisionGrid@@QAEJJK@Z 10088890 f   PathFinding.obj
 0001:00087990       ?RemoveCell@CCollisionGrid@@QAEXJ@Z 10088990 f   PathFinding.obj
 0001:00087ac0       ?FindCell@CCollisionGrid@@QAEJJJH@Z 10088ac0 f   PathFinding.obj
 0001:00087b50       ?AddEntry@CCollisionGrid@@QAEXJPAVCEntity@@@Z 10088b50 f   PathFinding.obj
 0001:00087c10       ?RemoveEntry@CCollisionGrid@@QAEXJPAVCEntity@@@Z 10088c10 f   PathFinding.obj
 0001:00087e10       ?CPathFinding_New@@YAPAVCEntity@@XZ 10088e10 f   PathFinding.obj
 0001:00087ec0       ?CPathFinding_OnInitClass@@YAXXZ 10088ec0 f   PathFinding.obj
 0001:00087ed0       ?CPathFinding_OnEndClass@@YAXXZ 10088ed0 f   PathFinding.obj
 0001:00087ee0       ?CPathFinding_OnPrecache@@YAXPAVCDLLEntityClass@@J@Z 10088ee0 f   PathFinding.obj
 0001:00087ef0       ?CPathFinding_OnWorldEnd@@YAXPAVCWorld@@@Z 10088ef0 f   PathFinding.obj
 0001:00087f00       ?CPathFinding_OnWorldInit@@YAXPAVCWorld@@@Z 10088f00 f   PathFinding.obj
 0001:00087f10       ?CPathFinding_OnWorldTick@@YAXPAVCWorld@@@Z 10088f10 f   PathFinding.obj
 0001:00087f20       ?CPathFinding_OnWorldRender@@YAXPAVCWorld@@@Z 10088f20 f   PathFinding.obj
 0001:00087ff0       ?CheckCreatureCollide@@YA_NPAVCEntity@@PAVCPathFinding@@@Z 10088ff0 f   PathFinding.obj
 0001:00088000       ?SetDefaultProperties@CPathFinding@@UAEXXZ 10089000 f   PathFinding.obj
 0001:00088040       ?Copy@CPathFinding@@UAEXAAVCEntity@@K@Z 10089040 f   PathFinding.obj
 0001:00088070       ?Write_t@CPathFinding@@UAEXPAVCTStream@@@Z 10089070 f   PathFinding.obj
 0001:00088090       ?Read_t@CPathFinding@@UAEXPAVCTStream@@@Z 10089090 f   PathFinding.obj
 0001:000880b0       ?Destroy@CPathFinding@@UAEXXZ 100890b0 f   PathFinding.obj
 0001:000880d0       ?AddEntityToCollisionGrid@CPathFinding@@QAEXPAVCEntity@@ABV?$AABBox@M$02@@@Z 100890d0 f   PathFinding.obj
 0001:000881f0       ?FindAllObjects@CPathFinding@@QAEXXZ 100891f0 f   PathFinding.obj
 0001:000883d0       ?RemoveEntity@CPathFinding@@QAEXPAVCEntity@@@Z 100893d0 f   PathFinding.obj
 0001:00088520       ?RemoveCreature@CPathFinding@@QAEXPAVCEntity@@@Z 10089520 f   PathFinding.obj
 0001:00088570       ?AddCreature@CPathFinding@@QAEXPAVCEntity@@@Z 10089570 f   PathFinding.obj
 0001:00088630       ?AddSkaMarker@CPathFinding@@QAEXPAVCEntity@@@Z 10089630 f   PathFinding.obj
 0001:00088760       ?Collide@CPathFinding@@QAEHPAVCEntity@@AAV?$AABBox@M$02@@@Z 10089760 f   PathFinding.obj
 0001:000887d0       ?CollidesWithPlayer@CPathFinding@@QAE_NVCEntityPointer@@AAV?$Vector@M$02@@1@Z 100897d0 f   PathFinding.obj
 0001:00088950       ?CollidesWithCreature@CPathFinding@@QAE_NPAVCEntity@@@Z 10089950 f   PathFinding.obj
 0001:00088970       ?CheckCollision@CPathFinding@@QAE?AVCEntityPointer@@V2@AAV?$Vector@M$02@@11AAM@Z 10089970 f   PathFinding.obj
 0001:00088ec0       ?CalculateTurnPoint@CPathFinding@@QAEXVCEntityPointer@@AAV?$Vector@M$02@@1@Z 10089ec0 f   PathFinding.obj
 0001:00089080       ?CalculateAvoidancePoint@CPathFinding@@QAEXVCEntityPointer@@AAV?$Vector@M$02@@11@Z 1008a080 f   PathFinding.obj
 0001:00089420       ?FindTrailToDestination@CPathFinding@@QAE?AVCEntityPointer@@V?$Vector@M$02@@0AAV2@_N@Z 1008a420 f   PathFinding.obj
 0001:000896c0       ?ShouldEnterTrail@CPathFinding@@QAE?AVCEntityPointer@@V2@V?$Vector@M$02@@1@Z 1008a6c0 f   PathFinding.obj
 0001:000898a0       ?DestinationIsInCollider@CPathFinding@@QAE_NVCEntityPointer@@V?$Vector@M$02@@AAV3@AAM@Z 1008a8a0 f   PathFinding.obj
 0001:00089a30       ?ChooseClosestTrail@CPathFinding@@QAE?AVCEntityPointer@@V2@0V?$Vector@M$02@@@Z 1008aa30 f   PathFinding.obj
 0001:00089b70       ?FindEndOfTrail@CPathFinding@@QAE?AVCEntityPointer@@V?$Vector@M$02@@V2@@Z 1008ab70 f   PathFinding.obj
 0001:00089d20       ?BuildPath@CPathFinding@@QAEXPAVCEntity@@AAV?$CStaticStackArray@V?$Vector@M$02@@@@V?$Vector@M$02@@_N13@Z 1008ad20 f   PathFinding.obj
 0001:0008aab0       ?Main@CPathFinding@@QAEHABVCEntityEvent@@@Z 1008bab0 f   PathFinding.obj
 0001:0008aaf0       ??_GCPathFinding@@UAEPAXI@Z 1008baf0 f i PathFinding.obj
 0001:0008aaf0       ??_ECPathFinding@@UAEPAXI@Z 1008baf0 f i PathFinding.obj
 0001:0008ab20       ??1CPathFinding@@UAE@XZ    1008bb20 f i PathFinding.obj
 0001:0008ac10       ??1?$CStaticArray@J@@QAE@XZ 1008bc10 f i PathFinding.obj
 0001:0008ac40       ?Push@?$CStaticStackArray@PAVCEntity@@@@QAEAAPAVCEntity@@XZ 1008bc40 f i PathFinding.obj
 0001:0008acd0       ?Clamp@@YAJJJJ@Z           1008bcd0 f i PathFinding.obj
 0001:0008acf0       ??1?$CAllocationArray@VCGridCell@@@@QAE@XZ 1008bcf0 f i PathFinding.obj
 0001:0008ad60       ??1?$CAllocationArray@VCGridEntry@@@@QAE@XZ 1008bd60 f i PathFinding.obj
 0001:0008add0       ?Push@?$CStaticStackArray@J@@QAEPAJJ@Z 1008bdd0 f i PathFinding.obj
 0001:0008ae70       ??1?$CStaticArray@VCGridCell@@@@QAE@XZ 1008be70 f i PathFinding.obj
 0001:0008aea0       ??1?$CStaticArray@VCGridEntry@@@@QAE@XZ 1008bea0 f i PathFinding.obj
 0001:0008aed0       ?Expand@?$CStaticArray@VCGridEntry@@@@QAEXJ@Z 1008bed0 f i PathFinding.obj
 0001:0008afa0       ?Expand@?$CStaticArray@J@@QAEXJ@Z 1008bfa0 f i PathFinding.obj
 0001:0008b020       ?New@?$CStaticArray@VCGridCell@@@@QAEXJ@Z 1008c020 f i PathFinding.obj
 0001:0008b2d0       ?CPendulum_New@@YAPAVCEntity@@XZ 1008c2d0 f   Pendulum.obj
 0001:0008b340       ?CPendulum_OnInitClass@@YAXXZ 1008c340 f   Pendulum.obj
 0001:0008b350       ?CPendulum_OnEndClass@@YAXXZ 1008c350 f   Pendulum.obj
 0001:0008b360       ?CPendulum_OnPrecache@@YAXPAVCDLLEntityClass@@J@Z 1008c360 f   Pendulum.obj
 0001:0008b370       ?CPendulum_OnWorldEnd@@YAXPAVCWorld@@@Z 1008c370 f   Pendulum.obj
 0001:0008b380       ?CPendulum_OnWorldInit@@YAXPAVCWorld@@@Z 1008c380 f   Pendulum.obj
 0001:0008b390       ?CPendulum_OnWorldTick@@YAXPAVCWorld@@@Z 1008c390 f   Pendulum.obj
 0001:0008b3a0       ?CPendulum_OnWorldRender@@YAXPAVCWorld@@@Z 1008c3a0 f   Pendulum.obj
 0001:0008b470       ?SetDefaultProperties@CPendulum@@UAEXXZ 1008c470 f   Pendulum.obj
 0001:0008b4f0       ?ReceiveDamage@CPendulum@@UAEXPAVCEntity@@W4DamageType@@MABV?$Vector@M$02@@20@Z 1008c4f0 f   Pendulum.obj
 0001:0008b570       ?PostMoving@CPendulum@@UAEXXZ 1008c570 f   Pendulum.obj
 0001:0008b680       ?Main@CPendulum@@QAEHABVCEntityEvent@@@Z 1008c680 f   Pendulum.obj
 0001:0008b730       ?H0x006a0000_Main_01@CPendulum@@QAEHABVCEntityEvent@@@Z 1008c730 f   Pendulum.obj
 0001:0008b7a0       ?H0x006a0001_Main_02@CPendulum@@QAEHABVCEntityEvent@@@Z 1008c7a0 f   Pendulum.obj
 0001:0008b810       ?GetName@CPendulum@@UBEABVCTString@@XZ 1008c810 f i Pendulum.obj
 0001:0008b820       ?IsTargetable@CPendulum@@UBEHXZ 1008c820 f i Pendulum.obj
 0001:0008b830       ??_GCPendulum@@UAEPAXI@Z   1008c830 f i Pendulum.obj
 0001:0008b830       ??_ECPendulum@@UAEPAXI@Z   1008c830 f i Pendulum.obj
 0001:0008b860       ??1CPendulum@@UAE@XZ       1008c860 f i Pendulum.obj
 0001:0008b8c0       ?ClearToDefault@@YAXAAW4ViewType@@@Z 1008c8c0 f i Player.obj
 0001:0008b8d0       ??0EViewInit@@QAE@ABV0@@Z  1008c8d0 f i Player.obj
 0001:0008b920       ??4EViewInit@@QAEAAV0@ABV0@@Z 1008c920 f i Player.obj
 0001:0008b9a0       ??1EViewInit@@UAE@XZ       1008c9a0 f i Player.obj
 0001:0008ba40       ??_GEViewInit@@UAEPAXI@Z   1008ca40 f i Player.obj
 0001:0008ba70       ??_EEViewInit@@UAEPAXI@Z   1008ca70 f i Player.obj
 0001:0008bad0       ?ClearToDefault@@YAXAAVEViewInit@@@Z 1008cad0 f i Player.obj
 0001:0008bbc0       ?GetPredictionPair@CPlayerView@@UAEPAVCEntity@@XZ 1008cbc0 f i Player.obj
 0001:0008bbd0       ?SetPredictionPair@CPlayerView@@UAEXPAVCEntity@@@Z 1008cbd0 f i Player.obj
 0001:0008bc10       ??0CPlayerView@@QAE@XZ     1008cc10 f i Player.obj
 0001:0008bc40       ??0CPlayerView@@QAE@ABV0@@Z 1008cc40 f i Player.obj
 0001:0008c0d0       ??4CPlayerView@@QAEAAV0@AAV0@@Z 1008d0d0 f i Player.obj
 0001:0008c590       ??1CPlayerView@@UAE@XZ     1008d590 f i Player.obj
 0001:0008c610       ??_GCPlayerView@@UAEPAXI@Z 1008d610 f i Player.obj
 0001:0008c640       ??_ECPlayerView@@UAEPAXI@Z 1008d640 f i Player.obj
 0001:0008c6a0       ?ClearToDefault@@YAXAAW4SwitchType@@@Z 1008d6a0 f i Player.obj
 0001:0008c6b0       ?ClearToDefault@@YAXAAW4WorldLinkType@@@Z 1008d6b0 f i Player.obj
 0001:0008c6c0       ?ClearToDefault@@YAXAAW4PlayerAutoAction@@@Z 1008d6c0 f i Player.obj
 0001:0008c6d0       ??0EEnteredLauncher@@QAE@ABV0@@Z 1008d6d0 f i Player.obj
 0001:0008c700       ??4EEnteredLauncher@@QAEAAV0@ABV0@@Z 1008d700 f i Player.obj
 0001:0008c740       ??1EEnteredLauncher@@UAE@XZ 1008d740 f i Player.obj
 0001:0008c7d0       ??_GEEnteredLauncher@@UAEPAXI@Z 1008d7d0 f i Player.obj
 0001:0008c800       ??_EEEnteredLauncher@@UAEPAXI@Z 1008d800 f i Player.obj
 0001:0008c860       ?ClearToDefault@@YAXAAVEEnteredLauncher@@@Z 1008d860 f i Player.obj
 0001:0008c900       ??0ELaunchSkeet@@QAE@ABV0@@Z 1008d900 f i Player.obj
 0001:0008c930       ??4ELaunchSkeet@@QAEAAV0@ABV0@@Z 1008d930 f i Player.obj
 0001:0008c970       ??1ELaunchSkeet@@UAE@XZ    1008d970 f i Player.obj
 0001:0008ca00       ??_GELaunchSkeet@@UAEPAXI@Z 1008da00 f i Player.obj
 0001:0008ca30       ??_EELaunchSkeet@@UAEPAXI@Z 1008da30 f i Player.obj
 0001:0008ca90       ?ClearToDefault@@YAXAAVELaunchSkeet@@@Z 1008da90 f i Player.obj
 0001:0008cb30       ??0ELaunchTrap@@QAE@ABV0@@Z 1008db30 f i Player.obj
 0001:0008cb60       ??4ELaunchTrap@@QAEAAV0@ABV0@@Z 1008db60 f i Player.obj
 0001:0008cba0       ??1ELaunchTrap@@UAE@XZ     1008dba0 f i Player.obj
 0001:0008cc30       ??_GELaunchTrap@@UAEPAXI@Z 1008dc30 f i Player.obj
 0001:0008cc60       ??_EELaunchTrap@@UAEPAXI@Z 1008dc60 f i Player.obj
 0001:0008ccc0       ?ClearToDefault@@YAXAAVELaunchTrap@@@Z 1008dcc0 f i Player.obj
 0001:0008cd60       ??0EStrength@@QAE@ABV0@@Z  1008dd60 f i Player.obj
 0001:0008cd80       ??4EStrength@@QAEAAV0@ABV0@@Z 1008dd80 f i Player.obj
 0001:0008cda0       ??1EStrength@@UAE@XZ       1008dda0 f i Player.obj
 0001:0008cdb0       ??_GEStrength@@UAEPAXI@Z   1008ddb0 f i Player.obj
 0001:0008cde0       ??_EEStrength@@UAEPAXI@Z   1008dde0 f i Player.obj
 0001:0008ce40       ?ClearToDefault@@YAXAAVEStrength@@@Z 1008de40 f i Player.obj
 0001:0008ce60       ??0EAnimatorInit@@QAE@ABV0@@Z 1008de60 f i Player.obj
 0001:0008ce90       ??4EAnimatorInit@@QAEAAV0@ABV0@@Z 1008de90 f i Player.obj
 0001:0008ced0       ??1EAnimatorInit@@UAE@XZ   1008ded0 f i Player.obj
 0001:0008cf60       ??_GEAnimatorInit@@UAEPAXI@Z 1008df60 f i Player.obj
 0001:0008cf90       ??_EEAnimatorInit@@UAEPAXI@Z 1008df90 f i Player.obj
 0001:0008cff0       ?ClearToDefault@@YAXAAVEAnimatorInit@@@Z 1008dff0 f i Player.obj
 0001:0008d090       ??0EInitStand@@QAE@ABV0@@Z 1008e090 f i Player.obj
 0001:0008d0d0       ??4EInitStand@@QAEAAV0@ABV0@@Z 1008e0d0 f i Player.obj
 0001:0008d120       ??1EInitStand@@UAE@XZ      1008e120 f i Player.obj
 0001:0008d1b0       ??_GEInitStand@@UAEPAXI@Z  1008e1b0 f i Player.obj
 0001:0008d1e0       ??_EEInitStand@@UAEPAXI@Z  1008e1e0 f i Player.obj
 0001:0008d240       ?ClearToDefault@@YAXAAVEInitStand@@@Z 1008e240 f i Player.obj
 0001:00090580       ?CPlayer_New@@YAPAVCEntity@@XZ 10091580 f   Player.obj
 0001:000905e0       ?CPlayer_OnPrecache@@YAXPAVCDLLEntityClass@@J@Z 100915e0 f   Player.obj
 0001:000905f0       ?CPlayer_OnWorldEnd@@YAXPAVCWorld@@@Z 100915f0 f   Player.obj
 0001:00090600       ?CPlayer_OnWorldInit@@YAXPAVCWorld@@@Z 10091600 f   Player.obj
 0001:00090610       ?CPlayer_OnWorldTick@@YAXPAVCWorld@@@Z 10091610 f   Player.obj
 0001:00090620       ?CPlayer_OnWorldRender@@YAXPAVCWorld@@@Z 10091620 f   Player.obj
 0001:000906f0       ?MakeCopy@ECameraStart@@UAEPAVCEntityEvent@@XZ 100916f0 f   Player.obj
 0001:00090730       ??0ECameraStart@@QAE@XZ    10091730 f   Player.obj
 0001:000907a0       ?MakeCopy@ECameraStop@@UAEPAVCEntityEvent@@XZ 100917a0 f   Player.obj
 0001:000907e0       ??0ECameraStop@@QAE@XZ     100917e0 f   Player.obj
 0001:00090850       ?MakeCopy@ERebirth@@UAEPAVCEntityEvent@@XZ 10091850 f   Player.obj
 0001:00090880       ??0ERebirth@@QAE@XZ        10091880 f   Player.obj
 0001:00090890       ?MakeCopy@EDisconnected@@UAEPAVCEntityEvent@@XZ 10091890 f   Player.obj
 0001:000908c0       ??0EDisconnected@@QAE@XZ   100918c0 f   Player.obj
 0001:000908d0       ?MakeCopy@EAutoAction@@UAEPAVCEntityEvent@@XZ 100918d0 f   Player.obj
 0001:00090910       ??0EAutoAction@@QAE@XZ     10091910 f   Player.obj
 0001:00090980       ?MakeCopy@ESlideTreeStand@@UAEPAVCEntityEvent@@XZ 10091980 f   Player.obj
 0001:000909c0       ??0ESlideTreeStand@@QAE@XZ 100919c0 f   Player.obj
 0001:000909e0       ?MakeCopy@EKilledDeer@@UAEPAVCEntityEvent@@XZ 100919e0 f   Player.obj
 0001:00090a20       ??0EKilledDeer@@QAE@XZ     10091a20 f   Player.obj
 0001:00090a90       ?MakeCopy@EAnimalClaimed@@UAEPAVCEntityEvent@@XZ 10091a90 f   Player.obj
 0001:00090ad0       ??0EAnimalClaimed@@QAE@XZ  10091ad0 f   Player.obj
 0001:00090b40       ?MakeCopy@EProfileScore@@UAEPAVCEntityEvent@@XZ 10091b40 f   Player.obj
 0001:00090b80       ??0EProfileScore@@QAE@XZ   10091b80 f   Player.obj
 0001:00090ba0       ?MakeCopy@EPlayerFired@@UAEPAVCEntityEvent@@XZ 10091ba0 f   Player.obj
 0001:00090bf0       ??0EPlayerFired@@QAE@XZ    10091bf0 f   Player.obj
 0001:00090c40       ?MakeCopy@ERoundChange@@UAEPAVCEntityEvent@@XZ 10091c40 f   Player.obj
 0001:00090c70       ??0ERoundChange@@QAE@XZ    10091c70 f   Player.obj
 0001:00090c80       ?MakeCopy@EWorldClick@@UAEPAVCEntityEvent@@XZ 10091c80 f   Player.obj
 0001:00090cc0       ??0EWorldClick@@QAE@XZ     10091cc0 f   Player.obj
 0001:00090d30       ?MakeCopy@EMessage@@UAEPAVCEntityEvent@@XZ 10091d30 f   Player.obj
 0001:00090db0       ??0EMessage@@QAE@XZ        10091db0 f   Player.obj
 0001:00090e80       ?GetMaleFemaleToggle@@YAHPAVCPlayer@@@Z 10091e80 f   Player.obj
 0001:00090ea0       ?qsort_CompareMarkerDistance@@YAHPBX0@Z 10091ea0 f   Player.obj
 0001:00090ed0       ?UpdatePlayerProfile@@YAXPAVCPlayer@@@Z 10091ed0 f   Player.obj
 0001:00090ee0       ?AlertDogToEndOfRide@@YAXVCEntityPointer@@@Z 10091ee0 f   Player.obj
 0001:00090f60       ?AlertDogToStartBoatRide@@YAXVCEntityPointer@@@Z 10091f60 f   Player.obj
 0001:00090fe0       ?AlertDogToStartNonBoatRide@@YAXVCEntityPointer@@@Z 10091fe0 f   Player.obj
 0001:000911b0       ?ctl_ComposeActionPacket@@YAXABVCPlayerCharacter@@AAVCPlayerAction@@H@Z 100921b0 f   Player.obj
 0001:000919d0       ?ctl_ComposeDemoActionPacket@@YAXAAVCPlayerAction@@H@Z 100929d0 f   Player.obj
 0001:00091ab0       ?PlayPlaceBlindSound@@YAXPAVCPlayer@@@Z 10092ab0 f   Player.obj
 0001:00091b30       ?PlayEdgeOfWorldVO@@YAXPAVCPlayer@@@Z 10092b30 f   Player.obj
 0001:00091d60       ?PlayCheatVoiceOver@@YAXPAVCPlayer@@@Z 10092d60 f   Player.obj
 0001:00092030       ?PrecacheGameSpecificSounds@@YAXXZ 10093030 f   Player.obj
 0001:000923a0       ?CPlayer_Precache@@YAXXZ   100933a0 f   Player.obj
 0001:00092740       ?CPlayer_OnInitClass@@YAXXZ 10093740 f   Player.obj
 0001:00094010       ?CPlayer_OnEndClass@@YAXXZ 10095010 f   Player.obj
 0001:00094020       ?GetDifficultyString@@YA?AVCTString@@XZ 10095020 f   Player.obj
 0001:000940b0       ?LookingAtBigDeer@@YAHXZ   100950b0 f   Player.obj
 0001:000940c0       ?InitPlayerProfile@@YAXPAVCPlayer@@@Z 100950c0 f   Player.obj
 0001:000940d0       ?UpdatePlayerProfileForProjectile@@YAXPAVCPlayer@@ABVEProjectileHit@@@Z 100950d0 f   Player.obj
 0001:00094100       ?UpdatePlayerProfileForScore@@YAXPAVCPlayer@@ABVEProfileScore@@@Z 10095100 f   Player.obj
 0001:00094110       ?GetPlayerProfileSkillMultiplierForGun@@YAMPAVCPlayer@@PAVCEntity@@@Z 10095110 f   Player.obj
 0001:00094120       ?SpawnDog@@YAXPAVCEntity@@@Z 10095120 f   Player.obj
 0001:00094320       ?TranslateSpecies@@YAJPAVCEntity@@@Z 10095320 f   Player.obj
 0001:00094380       ?GetAnimalPoached@@YAHPAVCPlayer@@JJAAJ@Z 10095380 f   Player.obj
 0001:00094570       ?HandleKilledDeer@@YAXPAVCEntity@@PAVCBaggedGame@@PAVCPlayer@@@Z 10095570 f   Player.obj
 0001:00094c40       ?SetDefaultProperties@CPlayer@@UAEXXZ 10095c40 f   Player.obj
 0001:000955e0       ?AdjustShaderParams@CPlayer@@UAEXJPAVCShader@@AAUShaderParams@@JPAVCModelInstance@@@Z 100965e0 f   Player.obj
 0001:00095640       ?MyTruckLoaded@CPlayer@@UAEHXZ 10096640 f   Player.obj
 0001:00095660       ?OnATVCloseToTruck@CPlayer@@QAEHXZ 10096660 f   Player.obj
 0001:00095770       ?CloseToTruckWithATV@CPlayer@@QAEHXZ 10096770 f   Player.obj
 0001:000958a0       ?GetType@CPlayer@@UAEJXZ   100968a0 f   Player.obj
 0001:000958b0       ?Copy@CPlayer@@UAEXAAVCEntity@@K@Z 100968b0 f   Player.obj
 0001:00095b80       ?Write_t@CPlayer@@UAEXPAVCTStream@@@Z 10096b80 f   Player.obj
 0001:00095e70       ?Read_t@CPlayer@@UAEXPAVCTStream@@@Z 10096e70 f   Player.obj
 0001:000963d0       ?Destroy@CPlayer@@UAEXXZ   100973d0 f   Player.obj
 0001:000964c0       ?SaveGameBag@CPlayer@@QAEXXZ 100974c0 f   Player.obj
 0001:00096860       ?GetLargestBaggedGame@CPlayer@@QAE?AVCEntityPointer@@XZ 10097860 f   Player.obj
 0001:000968c0       ?GameBagIsEmpty@CPlayer@@QAEHXZ 100978c0 f   Player.obj
 0001:000968d0       ?InitPulsers@CPlayer@@QAEXXZ 100978d0 f   Player.obj
 0001:00096aa0       ?GetCoverScent@CPlayer@@QBEMXZ 10097aa0 f   Player.obj
 0001:00096ab0       ?GetDoeInHeat@CPlayer@@QBEMXZ 10097ab0 f   Player.obj
 0001:00096ac0       ?GetBuckUrine@CPlayer@@QBEMXZ 10097ac0 f   Player.obj
 0001:00096ad0       ?GetMaxScent@CPlayer@@QBEMXZ 10097ad0 f   Player.obj
 0001:00096ae0       ?GetPresentGunNum@CPlayer@@QBEJXZ 10097ae0 f   Player.obj
 0001:00096b00       ?GetPresentGunAmmoType@CPlayer@@QBEJXZ 10097b00 f   Player.obj
 0001:00096b20       ?GetPresentGunMaxAmmoCount@CPlayer@@QBEJXZ 10097b20 f   Player.obj
 0001:00096b40       ?GetPresentGunAmmoCount@CPlayer@@QBEJXZ 10097b40 f   Player.obj
 0001:00096b60       ?GetGunIcon@CPlayer@@QBE?AVCTString@@J@Z 10097b60 f   Player.obj
 0001:00096bc0       ?GetDeerDecoy@CPlayer@@QBE?AVCEntityPointer@@XZ 10097bc0 f   Player.obj
 0001:00096bf0       ?GetScrapeKit@CPlayer@@QBE?AVCEntityPointer@@XZ 10097bf0 f   Player.obj
 0001:00096c20       ?SetCurrentScope@CPlayer@@QAEXJ@Z 10097c20 f   Player.obj
 0001:00096d30       ?ZoomIn@CPlayer@@QAEXXZ    10097d30 f   Player.obj
 0001:00096e30       ?ZoomOut@CPlayer@@QAEXXZ   10097e30 f   Player.obj
 0001:00096f30       ?PopZoomOut@CPlayer@@QAEXXZ 10097f30 f   Player.obj
 0001:00096f60       ?_AdjustMouseSensitivity@CPlayer@@QAEXXZ 10097f60 f   Player.obj
 0001:00097010       ?ClearShellLaunchData@CPlayer@@QAEXXZ 10098010 f   Player.obj
 0001:00097040       ??0CPlayer@@QAE@XZ         10098040 f   Player.obj
 0001:00097430       ?GetSettings@CPlayer@@QAEPAVCPlayerSettings@@XZ 10098430 f   Player.obj
 0001:00097440       ?UpdateLatency@CPlayer@@QAEXM@Z 10098440 f   Player.obj
 0001:000974f0       ?ValidateCharacter@CPlayer@@QAEXXZ 100984f0 f   Player.obj
 0001:00097520       ?GetPredictName@CPlayer@@QBE?AVCTString@@XZ 10098520 f   Player.obj
 0001:00097580       ?SetPredictionTime@CPlayer@@UAEXM@Z 10098580 f   Player.obj
 0001:000975b0       ?GetPredictionTime@CPlayer@@UAEMXZ 100985b0 f   Player.obj
 0001:000975c0       ?GetPredictionRange@CPlayer@@UAEMXZ 100985c0 f   Player.obj
 0001:000975d0       ?AddDependentsToPrediction@CPlayer@@UAEXXZ 100985d0 f   Player.obj
 0001:000975f0       ?GetStatsInGameTimeLevel@CPlayer@@QAEMXZ 100985f0 f   Player.obj
 0001:00097620       ?GetStatsInGameTimeGame@CPlayer@@QAEMXZ 10098620 f   Player.obj
 0001:00097650       ?GetStatsRealWorldTime@CPlayer@@QAEMXZ 10098650 f   Player.obj
 0001:000976a0       ?GetStatsRealWorldStarted@CPlayer@@QAE?AVCTString@@XZ 100986a0 f   Player.obj
 0001:00097770       ?GetStats@CPlayer@@QAEXAAVCTString@@W4CompStatType@@J@Z 10098770 f   Player.obj
 0001:00097820       ?GetShortStats@CPlayer@@QAEXAAVCTString@@@Z 10098820 f   Player.obj
 0001:000978e0       ?GetDetailStatsComp@CPlayer@@QAEXAAVCTString@@@Z 100988e0 f   Player.obj
 0001:00098660       ?GetDetailStatsCoop@CPlayer@@QAEXAAVCTString@@@Z 10099660 f   Player.obj
 0001:000991f0       ?GetDetailStatsSP@CPlayer@@QAEXAAVCTString@@J@Z 1009a1f0 f   Player.obj
 0001:00099dd0       ?GetGameSpyPlayerInfo@CPlayer@@UAEXJAAVCTString@@@Z 1009add0 f   Player.obj
 0001:00099f00       ?SayVoiceMessage@CPlayer@@QAEXABVCTFileName@@@Z 1009af00 f   Player.obj
 0001:00099f40       ?AdjustShadingParameters@CPlayer@@UAEHAAV?$Vector@M$02@@AAK1@Z 1009af40 f   Player.obj
 0001:0009a030       ?GetModelInstanceForRendering@CPlayer@@UAEPAVCModelInstance@@XZ 1009b030 f   Player.obj
 0001:0009a040       ?GetActionMarker@CPlayer@@QAEPAVCPlayerActionMarker@@XZ 1009b040 f   Player.obj
 0001:0009a050       ?FindMusicHolder@CPlayer@@QAEXXZ 1009b050 f   Player.obj
 0001:0009a0f0       ?UpdateLevelStats@CPlayer@@QAEXXZ 1009b0f0 f   Player.obj
 0001:0009a120       ?SetDefaultMouthPitch@CPlayer@@QAEXXZ 1009b120 f   Player.obj
 0001:0009a150       ?SetRandomMouthPitch@CPlayer@@QAEXMM@Z 1009b150 f   Player.obj
 0001:0009a1d0       ?SetSpeakMouthPitch@CPlayer@@QAEXXZ 1009b1d0 f   Player.obj
 0001:0009a200       ?GetWorldGlaring@CPlayer@@QAEKXZ 1009b200 f   Player.obj
 0001:0009a320       ?GetWorldWeatherTime@CPlayer@@QAEMXZ 1009b320 f   Player.obj
 0001:0009a350       ?GetWorldWeatherTimeString@CPlayer@@QAE?AVCTString@@H@Z 1009b350 f   Player.obj
 0001:0009a450       ?GetWorldWindDirectionAndSpeed@CPlayer@@QAEXAAM0@Z 1009b450 f   Player.obj
 0001:0009a490       ?GetProjectileType@CPlayer@@QBEJJ@Z 1009b490 f   Player.obj
 0001:0009a580       ?DoDescribeScene@CPlayer@@QAEXXZ 1009b580 f   Player.obj
 0001:0009a6b0       ?ShowTextMessage@CPlayer@@QAEXVCTString@@M@Z 1009b6b0 f   Player.obj
 0001:0009a740       ?SetupView@CPlayer@@QAEXPAVCDrawPort@@AAVCAnyProjection3D@@AAPAVCEntity@@AAVCPlacement3D@@AAKH@Z 1009b740 f   Player.obj
 0001:0009aa40       ?ListenFromEntity@CPlayer@@QAEXPAVCEntity@@ABVCPlacement3D@@@Z 1009ba40 f   Player.obj
 0001:0009ab10       ?RenderDummyView@CPlayer@@QAEXPAVCDrawPort@@@Z 1009bb10 f   Player.obj
 0001:0009ac40       ?RenderPlayerView@CPlayer@@QAEXPAVCDrawPort@@H@Z 1009bc40 f   Player.obj
 0001:0009aff0       ?InVehicle@CPlayer@@QAEHXZ 1009bff0 f   Player.obj
 0001:0009b020       ?RenderSunGlare@CPlayer@@QAEXPAVCDrawPort@@@Z 1009c020 f   Player.obj
 0001:0009b2a0       ?RenderCameraView@CPlayer@@QAEXPAVCDrawPort@@H@Z 1009c2a0 f   Player.obj
 0001:0009b510       ?RenderGameView@CPlayer@@UAEXPAVCDrawPort@@PAX@Z 1009c510 f   Player.obj
 0001:0009b790       ?PreMoving@CPlayer@@UAEXXZ 1009c790 f   Player.obj
 0001:0009b7c0       ?DoMoving@CPlayer@@UAEXXZ  1009c7c0 f   Player.obj
 0001:0009b7f0       ?UpdateRangingInfo@CPlayer@@QAEXXZ 1009c7f0 f   Player.obj
 0001:0009b8d0       ?HandleFootprintsOverlay@CPlayer@@QAEXXZ 1009c8d0 f   Player.obj
 0001:0009bc80       ?InEdgeOfWorld@CPlayer@@QAEHXZ 1009cc80 f   Player.obj
 0001:0009bce0       ?PostMoving@CPlayer@@UAEXXZ 1009cce0 f   Player.obj
 0001:0009bf30       ?SetUnconnected@CPlayer@@QAEXXZ 1009cf30 f   Player.obj
 0001:0009bfc0       ?SetConnected@CPlayer@@QAEXXZ 1009cfc0 f   Player.obj
 0001:0009c000       ?IsConnected@CPlayer@@QBEHXZ 1009d000 f   Player.obj
 0001:0009c010       ?ChecksumForSync@CPlayer@@UAEXAAKJ@Z 1009d010 f   Player.obj
 0001:0009c0b0       ?DumpSync_t@CPlayer@@UAEXAAVCTStream@@J@Z 1009d0b0 f   Player.obj
 0001:0009c0f0       ?GetEntityInfo@CPlayer@@UAEPAXXZ 1009d0f0 f   Player.obj
 0001:0009c160       ?ChangePlayerView@CPlayer@@QAEXXZ 1009d160 f   Player.obj
 0001:0009c430       ?UsePressed@CPlayer@@QAEXH@Z 1009d430 f   Player.obj
 0001:0009c6f0       ?SetGameEnd@CPlayer@@QAEXXZ 1009d6f0 f   Player.obj
 0001:0009c750       ?SetRoundEnd@CPlayer@@QAEXXZ 1009d750 f   Player.obj
 0001:0009c810       ?CheckGameEnd@CPlayer@@QAEXXZ 1009d810 f   Player.obj
 0001:0009c900       ?CheckRoundEnd@CPlayer@@QAEXXZ 1009d900 f   Player.obj
 0001:0009ca30       ?PreapplyAction@CPlayer@@QAEXABVCPlayerAction@@@Z 1009da30 f   Player.obj
 0001:0009ca40       ?IsPlayerLocalOrDemo@CPlayer@@QAEHXZ 1009da40 f   Player.obj
 0001:0009ca70       ?PrepareDemoMode@CPlayer@@QAEXXZ 1009da70 f   Player.obj
 0001:0009cb90       ?DemoAction@CPlayer@@QAEXAAVCPlayerAction@@@Z 1009db90 f   Player.obj
 0001:0009cc90       ?ApplyAction@CPlayer@@UAEXABVCPlayerAction@@M@Z 1009dc90 f   Player.obj
 0001:0009d0c0       ?UseItem@CPlayer@@QAEXE@Z  1009e0c0 f   Player.obj
 0001:0009dae0       ?StopUsingItem@CPlayer@@QAEXE@Z 1009eae0 f   Player.obj
 0001:0009db40       ?DeerDecoy_CheckGround@CPlayer@@QAEHAAV?$Vector@M$02@@AAJ@Z 1009eb40 f   Player.obj
 0001:0009dd80       ?CheckGround@CPlayer@@QAEPAVCEntity@@AAV?$Vector@M$02@@AAJ@Z 1009ed80 f   Player.obj
 0001:0009df90       ?CheckGroundFromPoint@CPlayer@@QAEPAVCEntity@@V?$Vector@M$02@@AAV3@AAJAAM@Z 1009ef90 f   Player.obj
 0001:0009e110       ?UseDeerDecoy@CPlayer@@QAEXJ@Z 1009f110 f   Player.obj
 0001:0009e410       ?UseTreeStand@CPlayer@@QAEXJ@Z 1009f410 f   Player.obj
 0001:0009ebf0       ?UseBirdDecoy@CPlayer@@QAEXJW4DecoyPlace@@@Z 1009fbf0 f   Player.obj
 0001:0009ef30       ?UseBlind@CPlayer@@QAEXAAVCEntityPointer@@W4BlindType@@@Z 1009ff30 f   Player.obj
 0001:0009f300       ?Disconnect@CPlayer@@UAEXXZ 100a0300 f   Player.obj
 0001:0009f4d0       ?CharacterChanged@CPlayer@@UAEXABVCPlayerCharacter@@@Z 100a04d0 f   Player.obj
 0001:0009fae0       ?AliveActions@CPlayer@@QAEXABVCPlayerAction@@@Z 100a0ae0 f   Player.obj
 0001:0009fbe0       ?AutoActions@CPlayer@@QAEXABVCPlayerAction@@@Z 100a0be0 f   Player.obj
 0001:0009fe80       ?GetSoundPosition@CPlayer@@UAE?AV?$Vector@M$02@@XZ 100a0e80 f   Player.obj
 0001:0009fec0       ?GetLerpedWeaponPosition@CPlayer@@QAEXV?$Vector@M$02@@AAVCPlacement3D@@@Z 100a0ec0 f   Player.obj
 0001:0009ff40       ?GetGroundType@CPlayer@@QAEJXZ 100a0f40 f   Player.obj
 0001:0009ff50       ?QueryGroundType@CPlayer@@QAEXXZ 100a0f50 f   Player.obj
 0001:000a0150       ?ActiveActions@CPlayer@@QAEXABVCPlayerAction@@@Z 100a1150 f   Player.obj
 0001:000a1970       ?PlayMovingSounds@CPlayer@@QAEXXZ 100a2970 f   Player.obj
 0001:000a1cb0       ?RoundViewAngle@CPlayer@@QAEXAAMM@Z 100a2cb0 f   Player.obj
 0001:000a1cf0       ?RoundViewAngleUp@CPlayer@@QAEXAAMM@Z 100a2cf0 f   Player.obj
 0001:000a1d10       ?RoundViewAngleDown@CPlayer@@QAEXAAMM@Z 100a2d10 f   Player.obj
 0001:000a1d30       ?CanRaiseGun@CPlayer@@QAEHXZ 100a2d30 f   Player.obj
 0001:000a1d70       ?CanLayDown@CPlayer@@QAEHXZ 100a2d70 f   Player.obj
 0001:000a1de0       ?CanCrouch@CPlayer@@QAEHXZ 100a2de0 f   Player.obj
 0001:000a2010       ?SwitchInterface@CPlayer@@QAEXXZ 100a3010 f   Player.obj
 0001:000a2180       ?ButtonsActions@CPlayer@@QAEXAAVCPlayerAction@@@Z 100a3180 f   Player.obj
 0001:000a3dc0       ?ReactToWorldClick@CPlayer@@QAEXJ@Z 100a4dc0 f   Player.obj
 0001:000a3e70       ?RaiseLowerWeapon@CPlayer@@QAEHXZ 100a4e70 f   Player.obj
 0001:000a4000       ?CheatsEnabled@CPlayer@@QAEHXZ 100a5000 f   Player.obj
 0001:000a4040       ?Cheats@CPlayer@@QAEXXZ    100a5040 f   Player.obj
 0001:000a4170       ?GetLerpedAbsoluteViewPlacement@CPlayer@@QAEXAAVCPlacement3D@@@Z 100a5170 f   Player.obj
 0001:000a4ff0       ?GetViewEntity@CPlayer@@QAEPAVCEntity@@XZ 100a5ff0 f   Player.obj
 0001:000a5030       ?IsGpsRaised@CPlayer@@QAEHXZ 100a6030 f   Player.obj
 0001:000a5050       ?DrawGPS@CPlayer@@QAEXAAVCAnyProjection3D@@PAVCDrawPort@@@Z 100a6050 f   Player.obj
 0001:000a5330       ?DrawHands@CPlayer@@QAEXAAVCAnyProjection3D@@PAVCDrawPort@@@Z 100a6330 f   Player.obj
 0001:000a56a0       ?RenderHUD@CPlayer@@QAEXAAVCPerspectiveProjection3D@@PAVCDrawPort@@V?$Vector@M$02@@KKHJ@Z 100a66a0 f   Player.obj
 0001:000a5790       ?GetCompetitiveStartMarker@CPlayer@@QAEPAVCEntity@@XZ 100a6790 f   Player.obj
 0001:000a5a30       ?InitializePlayer@CPlayer@@QAEXXZ 100a6a30 f   Player.obj
 0001:000a5ba0       ?GetTeleportingOffset@CPlayer@@QAE?AV?$Vector@M$02@@XZ 100a6ba0 f   Player.obj
 0001:000a5c60       ?Teleport_CheckGround@CPlayer@@QAEHAAV?$Vector@M$02@@AAJ@Z 100a6c60 f   Player.obj
 0001:000a5ea0       ?TeleportPlayer@CPlayer@@QAEXW4WorldLinkType@@H@Z 100a6ea0 f   Player.obj
 0001:000a6b90       ?RecordEndOfLevelData@CPlayer@@QAEXXZ 100a7b90 f   Player.obj
 0001:000a6ce0       ?SpawnTeleport@CPlayer@@QAEXXZ 100a7ce0 f   Player.obj
 0001:000a6cf0       ?RenderParticles@CPlayer@@UAEXXZ 100a7cf0 f   Player.obj
 0001:000a6d20       ?CreateWeaponsAndItems@CPlayer@@QAEXXZ 100a7d20 f   Player.obj
 0001:000a7200       ?SetupItems@CPlayer@@QAEXXZ 100a8200 f   Player.obj
 0001:000a7740       ?GetCall1ID@CPlayer@@QAEXXZ 100a8740 f   Player.obj
 0001:000a7770       ?GetCall2ID@CPlayer@@QAEXXZ 100a8770 f   Player.obj
 0001:000a77a0       ?SwapCall1@CPlayer@@QAEXXZ 100a87a0 f   Player.obj
 0001:000a77e0       ?SwapCall2@CPlayer@@QAEXXZ 100a87e0 f   Player.obj
 0001:000a7820       ?UseCall1@CPlayer@@QAEXJ@Z 100a8820 f   Player.obj
 0001:000a78e0       ?UseCall2@CPlayer@@QAEXJ@Z 100a88e0 f   Player.obj
 0001:000a79a0       ?DoGPSUp@CPlayer@@QAEXXZ   100a89a0 f   Player.obj
 0001:000a7a00       ?DoGPSDown@CPlayer@@QAEXXZ 100a8a00 f   Player.obj
 0001:000a7a60       ?DoGPSLeft@CPlayer@@QAEXXZ 100a8a60 f   Player.obj
 0001:000a7ac0       ?DoGPSRight@CPlayer@@QAEXXZ 100a8ac0 f   Player.obj
 0001:000a7b20       ?DoGPSZoomIn@CPlayer@@QAEXXZ 100a8b20 f   Player.obj
 0001:000a7b80       ?DoGPSZoomOut@CPlayer@@QAEXXZ 100a8b80 f   Player.obj
 0001:000a7be0       ?DoGPSSwitchModes@CPlayer@@QAEXXZ 100a8be0 f   Player.obj
 0001:000a7c00       ?DoGPSSetWayPoint@CPlayer@@QAEXXZ 100a8c00 f   Player.obj
 0001:000a7c60       ?DoGPSNextWayPoint@CPlayer@@QAEXXZ 100a8c60 f   Player.obj
 0001:000a7cc0       ?DoGPSClearWayPoint@CPlayer@@QAEXXZ 100a8cc0 f   Player.obj
 0001:000a7d20       ?DoGPSCenterView@CPlayer@@QAEXXZ 100a8d20 f   Player.obj
 0001:000a7d80       ?CreateHands@CPlayer@@QAEXXZ 100a8d80 f   Player.obj
 0001:000a8100       ?SetCurrentGun@CPlayer@@QAEXJ@Z 100a9100 f   Player.obj
 0001:000a8220       ?AttachGuns@CPlayer@@QAEXXZ 100a9220 f   Player.obj
 0001:000a85e0       ?DetachGuns@CPlayer@@QAEXXZ 100a95e0 f   Player.obj
 0001:000a86b0       ?SetInterfaceType@CPlayer@@QAEXJ@Z 100a96b0 f   Player.obj
 0001:000a86e0       ?SwapWeapons@CPlayer@@QAEXXZ 100a96e0 f   Player.obj
 0001:000a8700       ?SetupTestPlayer@CPlayer@@QAEXXZ 100a9700 f   Player.obj
 0001:000a87e0       ?ChangeAmmo@CPlayer@@QAEXJ@Z 100a97e0 f   Player.obj
 0001:000a8850       ?GetCurAmmoSlot@CPlayer@@QBEJXZ 100a9850 f   Player.obj
 0001:000a8930       ?ATVPhysics@CPlayer@@QAEXXZ 100a9930 f   Player.obj
 0001:000a8970       ?TruckPhysics@CPlayer@@QAEXXZ 100a9970 f   Player.obj
 0001:000a89b0       ?BoatPhysics@CPlayer@@QAEXXZ 100a99b0 f   Player.obj
 0001:000a8a20       ?PlayerPhysics@CPlayer@@QAEXXZ 100a9a20 f   Player.obj
 0001:000a8a70       ?IsMovingTreeStand@CPlayer@@QAEHXZ 100a9a70 f   Player.obj
 0001:000a8a80       ?IsWalking@CPlayer@@QAEHXZ 100a9a80 f   Player.obj
 0001:000a8ac0       ?IsRunning@CPlayer@@QAEHXZ 100a9ac0 f   Player.obj
 0001:000a8b00       ?IsCrouchWalking@CPlayer@@QAEHXZ 100a9b00 f   Player.obj
 0001:000a8b30       ?IsCrawling@CPlayer@@QAEHXZ 100a9b30 f   Player.obj
 0001:000a8b60       ?IsTurning@CPlayer@@QAEHXZ 100a9b60 f   Player.obj
 0001:000a8b90       ?IsTurningFast@CPlayer@@QAEHXZ 100a9b90 f   Player.obj
 0001:000a8bb0       ?IsDogMoving@CPlayer@@QAEHXZ 100a9bb0 f   Player.obj
 0001:000a8c00       ?SpawnATV@CPlayer@@QAEXXZ  100a9c00 f   Player.obj
 0001:000a8ef0       ?SpawnTruck@CPlayer@@QAEXXZ 100a9ef0 f   Player.obj
 0001:000a91e0       ?HandleTimeDelayedEvent@CPlayer@@QAEXABVETimeDelayed@@@Z 100aa1e0 f   Player.obj
 0001:000a9250       ?HandleWaterTooDeepEvent@CPlayer@@QAEXXZ 100aa250 f   Player.obj
 0001:000a93d0       ?SlideStand@CPlayer@@QAEHABVCEntityEvent@@@Z 100aa3d0 f   Player.obj
 0001:000a9640       ?Pulse@CPlayer@@QAEHABVCEntityEvent@@@Z 100aa640 f   Player.obj
 0001:000a9900       ?WorldChange@CPlayer@@QAEHABVCEntityEvent@@@Z 100aa900 f   Player.obj
 0001:000a9a70       ?FirstInit@CPlayer@@QAEHABVCEntityEvent@@@Z 100aaa70 f   Player.obj
 0001:000a9be0       ?Rebirth@CPlayer@@QAEHABVCEntityEvent@@@Z 100aabe0 f   Player.obj
 0001:000a9ca0       ?DoAutoActions@CPlayer@@QAEHABVCEntityEvent@@@Z 100aaca0 f   Player.obj
 0001:000a9d30       ?H0x01910017_DoAutoActions_05@CPlayer@@QAEHABVCEntityEvent@@@Z 100aad30 f   Player.obj
 0001:000a9e10       ?H0x01910013_DoAutoActions_01@CPlayer@@QAEHABVCEntityEvent@@@Z 100aae10 f   Player.obj
 0001:000a9e90       ?H0x01910014_DoAutoActions_02@CPlayer@@QAEHABVCEntityEvent@@@Z 100aae90 f   Player.obj
 0001:000a9ef0       ?H0x01910016_DoAutoActions_04@CPlayer@@QAEHABVCEntityEvent@@@Z 100aaef0 f   Player.obj
 0001:000a9fe0       ?H0x01910015_DoAutoActions_03@CPlayer@@QAEHABVCEntityEvent@@@Z 100aafe0 f   Player.obj
 0001:000aa0c0       ?H0x01910018_DoAutoActions_06@CPlayer@@QAEHABVCEntityEvent@@@Z 100ab0c0 f   Player.obj
 0001:000aa140       ?Main@CPlayer@@QAEHABVCEntityEvent@@@Z 100ab140 f   Player.obj
 0001:000aa4c0       ?H0x01910019_Main_01@CPlayer@@QAEHABVCEntityEvent@@@Z 100ab4c0 f   Player.obj
 0001:000aa580       ?H0x0191001a_Main_02@CPlayer@@QAEHABVCEntityEvent@@@Z 100ab580 f   Player.obj
 0001:000aab80       ?H0x0191001b_Main_03@CPlayer@@QAEHABVCEntityEvent@@@Z 100abb80 f   Player.obj
 0001:000abaf0       ?H0x0191001c_Main_04@CPlayer@@QAEHABVCEntityEvent@@@Z 100acaf0 f   Player.obj
 0001:000abc00       ??0EPulserInit@@QAE@ABV0@@Z 100acc00 f i Player.obj
 0001:000abc30       ??4EPulserInit@@QAEAAV0@ABV0@@Z 100acc30 f i Player.obj
 0001:000abc70       ??1EPulserInit@@UAE@XZ     100acc70 f i Player.obj
 0001:000abd00       ??_GEPulserInit@@UAEPAXI@Z 100acd00 f i Player.obj
 0001:000abd30       ??_EEPulserInit@@UAEPAXI@Z 100acd30 f i Player.obj
 0001:000abd90       ?ClearToDefault@@YAXAAVEPulserInit@@@Z 100acd90 f i Player.obj
 0001:000abe30       ??0EPulse@@QAE@ABV0@@Z     100ace30 f i Player.obj
 0001:000abe60       ??4EPulse@@QAEAAV0@ABV0@@Z 100ace60 f i Player.obj
 0001:000abe80       ??1EPulse@@UAE@XZ          100ace80 f i Player.obj
 0001:000abe90       ??_GEPulse@@UAEPAXI@Z      100ace90 f i Player.obj
 0001:000abec0       ??_EEPulse@@UAEPAXI@Z      100acec0 f i Player.obj
 0001:000abf20       ?ClearToDefault@@YAXAAVEPulse@@@Z 100acf20 f i Player.obj
 0001:000abf50       ?GetPredictionPair@CPulser@@UAEPAVCEntity@@XZ 100acf50 f i Player.obj
 0001:000abf60       ?SetPredictionPair@CPulser@@UAEXPAVCEntity@@@Z 100acf60 f i Player.obj
 0001:000abfa0       ??0CPulser@@QAE@XZ         100acfa0 f i Player.obj
 0001:000abfd0       ??0CPulser@@QAE@ABV0@@Z    100acfd0 f i Player.obj
 0001:000ac090       ??4CPulser@@QAEAAV0@AAV0@@Z 100ad090 f i Player.obj
 0001:000ac1a0       ??1CPulser@@UAE@XZ         100ad1a0 f i Player.obj
 0001:000ac270       ??_GCPulser@@UAEPAXI@Z     100ad270 f i Player.obj
 0001:000ac2a0       ??_ECPulser@@UAEPAXI@Z     100ad2a0 f i Player.obj
 0001:000ac300       ??0ESurroundParticleSystemInit@@QAE@ABV0@@Z 100ad300 f i Player.obj
 0001:000ac330       ??4ESurroundParticleSystemInit@@QAEAAV0@ABV0@@Z 100ad330 f i Player.obj
 0001:000ac370       ??1ESurroundParticleSystemInit@@UAE@XZ 100ad370 f i Player.obj
 0001:000ac400       ??_GESurroundParticleSystemInit@@UAEPAXI@Z 100ad400 f i Player.obj
 0001:000ac430       ??_EESurroundParticleSystemInit@@UAEPAXI@Z 100ad430 f i Player.obj
 0001:000ac490       ?ClearToDefault@@YAXAAVESurroundParticleSystemInit@@@Z 100ad490 f i Player.obj
 0001:000ac530       ?ClearToDefault@@YAXAAW4eTopMapSize@@@Z 100ad530 f i Player.obj
 0001:000ac540       ?ClearToDefault@@YAXAAW4eQuadsPerTile@@@Z 100ad540 f i Player.obj
 0001:000ac550       ?ClearToDefault@@YAXAAW4eHeightMapSize@@@Z 100ad550 f i Player.obj
 0001:000ac560       ??0EFlee@@QAE@ABV0@@Z      100ad560 f i Player.obj
 0001:000ac580       ??4EFlee@@QAEAAV0@ABV0@@Z  100ad580 f i Player.obj
 0001:000ac5a0       ??1EFlee@@UAE@XZ           100ad5a0 f i Player.obj
 0001:000ac5b0       ??_GEFlee@@UAEPAXI@Z       100ad5b0 f i Player.obj
 0001:000ac5e0       ??_EEFlee@@UAEPAXI@Z       100ad5e0 f i Player.obj
 0001:000ac640       ?ClearToDefault@@YAXAAVEFlee@@@Z 100ad640 f i Player.obj
 0001:000ac660       ??0EEat@@QAE@ABV0@@Z       100ad660 f i Player.obj
 0001:000ac680       ??4EEat@@QAEAAV0@ABV0@@Z   100ad680 f i Player.obj
 0001:000ac6a0       ??1EEat@@UAE@XZ            100ad6a0 f i Player.obj
 0001:000ac6b0       ??_GEEat@@UAEPAXI@Z        100ad6b0 f i Player.obj
 0001:000ac6e0       ??_EEEat@@UAEPAXI@Z        100ad6e0 f i Player.obj
 0001:000ac740       ?ClearToDefault@@YAXAAVEEat@@@Z 100ad740 f i Player.obj
 0001:000ac760       ??0ERest@@QAE@ABV0@@Z      100ad760 f i Player.obj
 0001:000ac780       ??4ERest@@QAEAAV0@ABV0@@Z  100ad780 f i Player.obj
 0001:000ac7a0       ??1ERest@@UAE@XZ           100ad7a0 f i Player.obj
 0001:000ac7b0       ??_GERest@@UAEPAXI@Z       100ad7b0 f i Player.obj
 0001:000ac7e0       ??_EERest@@UAEPAXI@Z       100ad7e0 f i Player.obj
 0001:000ac840       ?ClearToDefault@@YAXAAVERest@@@Z 100ad840 f i Player.obj
 0001:000ac860       ??0ESleep@@QAE@ABV0@@Z     100ad860 f i Player.obj
 0001:000ac880       ??4ESleep@@QAEAAV0@ABV0@@Z 100ad880 f i Player.obj
 0001:000ac8a0       ??1ESleep@@UAE@XZ          100ad8a0 f i Player.obj
 0001:000ac8b0       ??_GESleep@@UAEPAXI@Z      100ad8b0 f i Player.obj
 0001:000ac8e0       ??_EESleep@@UAEPAXI@Z      100ad8e0 f i Player.obj
 0001:000ac940       ?ClearToDefault@@YAXAAVESleep@@@Z 100ad940 f i Player.obj
 0001:000ac960       ??1ColisionBox@@QAE@XZ     100ad960 f i Player.obj
 0001:000ac970       ?GetModelFilename@CPlayerSettings@@QBE?AVCTFileName@@XZ 100ad970 f i Player.obj
 0001:000acaa0       ??4?$CStaticStackArray@J@@QAEAAV0@ABV0@@Z 100adaa0 f i Player.obj
 0001:000acb10       ??4?$CStaticStackArray@PAVCBrushPolygon@@@@QAEAAV0@ABV0@@Z 100adb10 f i Player.obj
 0001:000acb80       ??1?$CDynamicContainer@VCBaggedGame@@@@QAE@XZ 100adb80 f i Player.obj
 0001:000acbf0       ??1?$CDynamicContainerIterator@VCBaggedGame@@@@QAE@XZ 100adbf0 f i Player.obj
 0001:000acc00       ??1?$CStaticArray@UMarkerDistance@@@@QAE@XZ 100adc00 f i Player.obj
 0001:000acc30       ?New@?$CDynamicArray@VCCompMessageID@@@@QAEPAVCCompMessageID@@J@Z 100adc30 f i Player.obj
 0001:000accc0       ??4?$CDynamicArray@VCCompMessageID@@@@QAEAAV0@AAV0@@Z 100adcc0 f i Player.obj
 0001:000ace50       ?Push@?$CStaticStackArray@PAVCBaggedGame@@@@QAEAAPAVCBaggedGame@@XZ 100ade50 f i Player.obj
 0001:000acee0       ?Expand@?$CStaticArray@PAVCBaggedGame@@@@QAEXJ@Z 100adee0 f i Player.obj
 0001:000acf60       ?New@?$CStaticArray@J@@QAEXJ@Z 100adf60 f i Player.obj
 0001:000acf90       ?New@?$CStaticArray@PAVCBaggedGame@@@@QAEXJ@Z 100adf90 f i Player.obj
 0001:000ad1c0       ?CPlayerActionMarker_New@@YAPAVCEntity@@XZ 100ae1c0 f   PlayerActionMarker.obj
 0001:000ad270       ?CPlayerActionMarker_OnInitClass@@YAXXZ 100ae270 f   PlayerActionMarker.obj
 0001:000ad280       ?CPlayerActionMarker_OnEndClass@@YAXXZ 100ae280 f   PlayerActionMarker.obj
 0001:000ad290       ?CPlayerActionMarker_OnPrecache@@YAXPAVCDLLEntityClass@@J@Z 100ae290 f   PlayerActionMarker.obj
 0001:000ad2a0       ?CPlayerActionMarker_OnWorldEnd@@YAXPAVCWorld@@@Z 100ae2a0 f   PlayerActionMarker.obj
 0001:000ad2b0       ?CPlayerActionMarker_OnWorldInit@@YAXPAVCWorld@@@Z 100ae2b0 f   PlayerActionMarker.obj
 0001:000ad2c0       ?CPlayerActionMarker_OnWorldTick@@YAXPAVCWorld@@@Z 100ae2c0 f   PlayerActionMarker.obj
 0001:000ad2d0       ?CPlayerActionMarker_OnWorldRender@@YAXPAVCWorld@@@Z 100ae2d0 f   PlayerActionMarker.obj
 0001:000ad330       ?SetDefaultProperties@CPlayerActionMarker@@UAEXXZ 100ae330 f   PlayerActionMarker.obj
 0001:000ad3c0       ?GetType@CPlayerActionMarker@@UAEJXZ 100ae3c0 f   PlayerActionMarker.obj
 0001:000ad3d0       ?GetDescription@CPlayerActionMarker@@UBEABVCTString@@XZ 100ae3d0 f   PlayerActionMarker.obj
 0001:000ad490       ?DropsMarker@CPlayerActionMarker@@UBEHAAVCTFileName@@AAVCTString@@@Z 100ae490 f   PlayerActionMarker.obj
 0001:000ad530       ?HandleEvent@CPlayerActionMarker@@UAEHABVCEntityEvent@@@Z 100ae530 f   PlayerActionMarker.obj
 0001:000ad610       ?Main@CPlayerActionMarker@@QAEHABVCEntityEvent@@@Z 100ae610 f   PlayerActionMarker.obj
 0001:000ad690       ??_GCPlayerActionMarker@@UAEPAXI@Z 100ae690 f i PlayerActionMarker.obj
 0001:000ad690       ??_ECPlayerActionMarker@@UAEPAXI@Z 100ae690 f i PlayerActionMarker.obj
 0001:000ad6c0       ??1CPlayerActionMarker@@UAE@XZ 100ae6c0 f i PlayerActionMarker.obj
 0001:000ad8c0       ?CPlayerAnimatorSKA_New@@YAPAVCEntity@@XZ 100ae8c0 f   PlayerAnimatorSKA.obj
 0001:000ad940       ?CPlayerAnimatorSKA_OnInitClass@@YAXXZ 100ae940 f   PlayerAnimatorSKA.obj
 0001:000ad950       ?CPlayerAnimatorSKA_OnEndClass@@YAXXZ 100ae950 f   PlayerAnimatorSKA.obj
 0001:000ad960       ?CPlayerAnimatorSKA_OnPrecache@@YAXPAVCDLLEntityClass@@J@Z 100ae960 f   PlayerAnimatorSKA.obj
 0001:000ad970       ?CPlayerAnimatorSKA_OnWorldEnd@@YAXPAVCWorld@@@Z 100ae970 f   PlayerAnimatorSKA.obj
 0001:000ad980       ?CPlayerAnimatorSKA_OnWorldInit@@YAXPAVCWorld@@@Z 100ae980 f   PlayerAnimatorSKA.obj
 0001:000ad990       ?CPlayerAnimatorSKA_OnWorldTick@@YAXPAVCWorld@@@Z 100ae990 f   PlayerAnimatorSKA.obj
 0001:000ad9a0       ?CPlayerAnimatorSKA_OnWorldRender@@YAXPAVCWorld@@@Z 100ae9a0 f   PlayerAnimatorSKA.obj
 0001:000ada70       ?MakeCopy@EAnimatorInit@@UAEPAVCEntityEvent@@XZ 100aea70 f   PlayerAnimatorSKA.obj
 0001:000adab0       ??0EAnimatorInit@@QAE@XZ   100aeab0 f   PlayerAnimatorSKA.obj
 0001:000adb20       ?SetDefaultProperties@CPlayerAnimatorSKA@@UAEXXZ 100aeb20 f   PlayerAnimatorSKA.obj
 0001:000adb80       ?Initialize@CPlayerAnimatorSKA@@QAEXXZ 100aeb80 f   PlayerAnimatorSKA.obj
 0001:000adf30       ?Destroy@CPlayerAnimatorSKA@@UAEXXZ 100aef30 f   PlayerAnimatorSKA.obj
 0001:000adf80       ?Write_t@CPlayerAnimatorSKA@@UAEXPAVCTStream@@@Z 100aef80 f   PlayerAnimatorSKA.obj
 0001:000ae000       ?Read_t@CPlayerAnimatorSKA@@UAEXPAVCTStream@@@Z 100af000 f   PlayerAnimatorSKA.obj
 0001:000ae0a0       ?Copy@CPlayerAnimatorSKA@@UAEXAAVCEntity@@K@Z 100af0a0 f   PlayerAnimatorSKA.obj
 0001:000ae0e0       ?SetupThirdPersonGunAnimations@CPlayerAnimatorSKA@@QAEXH@Z 100af0e0 f   PlayerAnimatorSKA.obj
 0001:000ae8d0       ?GetID@CPlayerAnimatorSKA@@QAEHH@Z 100af8d0 f   PlayerAnimatorSKA.obj
 0001:000ae8f0       ?GetDisableAnimation@CPlayerAnimatorSKA@@QAEHXZ 100af8f0 f   PlayerAnimatorSKA.obj
 0001:000ae900       ?SetDisableAnimation@CPlayerAnimatorSKA@@QAEXH@Z 100af900 f   PlayerAnimatorSKA.obj
 0001:000ae910       ?HandleAnimatorBehavior@CPlayerAnimatorSKA@@QAEXXZ 100af910 f   PlayerAnimatorSKA.obj
 0001:000aebb0       ?DoTransitionAnimations@CPlayerAnimatorSKA@@QAEXK@Z 100afbb0 f   PlayerAnimatorSKA.obj
 0001:000aec50       ?DoHoldPositionTime@CPlayerAnimatorSKA@@QAEXM@Z 100afc50 f   PlayerAnimatorSKA.obj
 0001:000aec90       ?DoStandAnimations@CPlayerAnimatorSKA@@QAEXAAVCPlayer@@H@Z 100afc90 f   PlayerAnimatorSKA.obj
 0001:000aedd0       ?DoCrouchAnimations@CPlayerAnimatorSKA@@QAEXAAVCPlayer@@H@Z 100afdd0 f   PlayerAnimatorSKA.obj
 0001:000aef00       ?DoLaydownAnimations@CPlayerAnimatorSKA@@QAEXAAVCPlayer@@H@Z 100aff00 f   PlayerAnimatorSKA.obj
 0001:000aefe0       ?DoAtvDriveAnimations@CPlayerAnimatorSKA@@QAEXAAVCPlayer@@@Z 100affe0 f   PlayerAnimatorSKA.obj
 0001:000af040       ?DoBoatDriveAnimations@CPlayerAnimatorSKA@@QAEXAAVCPlayer@@@Z 100b0040 f   PlayerAnimatorSKA.obj
 0001:000af0a0       ?DoBoatIdleAnimations@CPlayerAnimatorSKA@@QAEXAAVCPlayer@@H@Z 100b00a0 f   PlayerAnimatorSKA.obj
 0001:000af110       ?DoFlyCheatAnimations@CPlayerAnimatorSKA@@QAEXXZ 100b0110 f   PlayerAnimatorSKA.obj
 0001:000af170       ?StopFlyCheatAnimations@CPlayerAnimatorSKA@@QAEXXZ 100b0170 f   PlayerAnimatorSKA.obj
 0001:000af1c0       ?AnimatePlayer@CPlayerAnimatorSKA@@QAEXXZ 100b01c0 f   PlayerAnimatorSKA.obj
 0001:000af1d0       ?IsGunRaised@CPlayerAnimatorSKA@@QAEHPAVCPlayer@@@Z 100b01d0 f   PlayerAnimatorSKA.obj
 0001:000af200       ?IsGunReadyToFire@CPlayerAnimatorSKA@@QAEHPAVCPlayer@@@Z 100b0200 f   PlayerAnimatorSKA.obj
 0001:000af230       ?Main@CPlayerAnimatorSKA@@QAEHABVCEntityEvent@@@Z 100b0230 f   PlayerAnimatorSKA.obj
 0001:000af300       ?H0x791a0001_Main_01@CPlayerAnimatorSKA@@QAEHABVCEntityEvent@@@Z 100b0300 f   PlayerAnimatorSKA.obj
 0001:000af390       ?H0x791a0002_Main_02@CPlayerAnimatorSKA@@QAEHABVCEntityEvent@@@Z 100b0390 f   PlayerAnimatorSKA.obj
 0001:000af3f0       ?GetPredictionPair@CPlayerAnimatorSKA@@UAEPAVCEntity@@XZ 100b03f0 f i PlayerAnimatorSKA.obj
 0001:000af400       ?SetPredictionPair@CPlayerAnimatorSKA@@UAEXPAVCEntity@@@Z 100b0400 f i PlayerAnimatorSKA.obj
 0001:000af440       ??_ECPlayerAnimatorSKA@@UAEPAXI@Z 100b0440 f i PlayerAnimatorSKA.obj
 0001:000af440       ??_GCPlayerAnimatorSKA@@UAEPAXI@Z 100b0440 f i PlayerAnimatorSKA.obj
 0001:000af470       ??1CPlayerAnimatorSKA@@UAE@XZ 100b0470 f i PlayerAnimatorSKA.obj
 0001:000b0780       ?CPlayerGun_New@@YAPAVCEntity@@XZ 100b1780 f   PlayerGun.obj
 0001:000b0990       ?CPlayerGun_OnInitClass@@YAXXZ 100b1990 f   PlayerGun.obj
 0001:000b09a0       ?CPlayerGun_OnEndClass@@YAXXZ 100b19a0 f   PlayerGun.obj
 0001:000b09b0       ?CPlayerGun_OnPrecache@@YAXPAVCDLLEntityClass@@J@Z 100b19b0 f   PlayerGun.obj
 0001:000b09c0       ?CPlayerGun_OnWorldEnd@@YAXPAVCWorld@@@Z 100b19c0 f   PlayerGun.obj
 0001:000b09d0       ?CPlayerGun_OnWorldInit@@YAXPAVCWorld@@@Z 100b19d0 f   PlayerGun.obj
 0001:000b09e0       ?CPlayerGun_OnWorldTick@@YAXPAVCWorld@@@Z 100b19e0 f   PlayerGun.obj
 0001:000b09f0       ?CPlayerGun_OnWorldRender@@YAXPAVCWorld@@@Z 100b19f0 f   PlayerGun.obj
 0001:000b0ac0       ?MakeCopy@EGunInit@@UAEPAVCEntityEvent@@XZ 100b1ac0 f   PlayerGun.obj
 0001:000b0b60       ??0EGunInit@@QAE@XZ        100b1b60 f   PlayerGun.obj
 0001:000b0c10       ?MakeCopy@EFireGun@@UAEPAVCEntityEvent@@XZ 100b1c10 f   PlayerGun.obj
 0001:000b0c40       ??0EFireGun@@QAE@XZ        100b1c40 f   PlayerGun.obj
 0001:000b0c50       ?MakeCopy@ERaiseGun@@UAEPAVCEntityEvent@@XZ 100b1c50 f   PlayerGun.obj
 0001:000b0c80       ??0ERaiseGun@@QAE@XZ       100b1c80 f   PlayerGun.obj
 0001:000b0c90       ?MakeCopy@ELowerGun@@UAEPAVCEntityEvent@@XZ 100b1c90 f   PlayerGun.obj
 0001:000b0cd0       ??0ELowerGun@@QAE@XZ       100b1cd0 f   PlayerGun.obj
 0001:000b0cf0       ?MakeCopy@EReloadGun@@UAEPAVCEntityEvent@@XZ 100b1cf0 f   PlayerGun.obj
 0001:000b0d20       ??0EReloadGun@@QAE@XZ      100b1d20 f   PlayerGun.obj
 0001:000b0d30       ?MakeCopy@EHeartbeat@@UAEPAVCEntityEvent@@XZ 100b1d30 f   PlayerGun.obj
 0001:000b0d60       ??0EHeartbeat@@QAE@XZ      100b1d60 f   PlayerGun.obj
 0001:000b0d70       ?MakeCopy@EGunIsUp@@UAEPAVCEntityEvent@@XZ 100b1d70 f   PlayerGun.obj
 0001:000b0da0       ??0EGunIsUp@@QAE@XZ        100b1da0 f   PlayerGun.obj
 0001:000b0db0       ?MakeCopy@EGunNotUp@@UAEPAVCEntityEvent@@XZ 100b1db0 f   PlayerGun.obj
 0001:000b0de0       ??0EGunNotUp@@QAE@XZ       100b1de0 f   PlayerGun.obj
 0001:000b0df0       ?MakeCopy@ESetGunFireOffset@@UAEPAVCEntityEvent@@XZ 100b1df0 f   PlayerGun.obj
 0001:000b0e30       ??0ESetGunFireOffset@@QAE@XZ 100b1e30 f   PlayerGun.obj
 0001:000b0e50       ?MakeCopy@EPin1Up@@UAEPAVCEntityEvent@@XZ 100b1e50 f   PlayerGun.obj
 0001:000b0e80       ??0EPin1Up@@QAE@XZ         100b1e80 f   PlayerGun.obj
 0001:000b0e90       ?MakeCopy@EPin1Down@@UAEPAVCEntityEvent@@XZ 100b1e90 f   PlayerGun.obj
 0001:000b0ec0       ??0EPin1Down@@QAE@XZ       100b1ec0 f   PlayerGun.obj
 0001:000b0ed0       ?MakeCopy@EPin2Up@@UAEPAVCEntityEvent@@XZ 100b1ed0 f   PlayerGun.obj
 0001:000b0f00       ??0EPin2Up@@QAE@XZ         100b1f00 f   PlayerGun.obj
 0001:000b0f10       ?MakeCopy@EPin2Down@@UAEPAVCEntityEvent@@XZ 100b1f10 f   PlayerGun.obj
 0001:000b0f40       ??0EPin2Down@@QAE@XZ       100b1f40 f   PlayerGun.obj
 0001:000b0f50       ?MakeCopy@EPin3Up@@UAEPAVCEntityEvent@@XZ 100b1f50 f   PlayerGun.obj
 0001:000b0f80       ??0EPin3Up@@QAE@XZ         100b1f80 f   PlayerGun.obj
 0001:000b0f90       ?MakeCopy@EPin3Down@@UAEPAVCEntityEvent@@XZ 100b1f90 f   PlayerGun.obj
 0001:000b0fc0       ??0EPin3Down@@QAE@XZ       100b1fc0 f   PlayerGun.obj
 0001:000b0fd0       ?MakeCopy@EAimLeft@@UAEPAVCEntityEvent@@XZ 100b1fd0 f   PlayerGun.obj
 0001:000b1000       ??0EAimLeft@@QAE@XZ        100b2000 f   PlayerGun.obj
 0001:000b1010       ?MakeCopy@EAimRight@@UAEPAVCEntityEvent@@XZ 100b2010 f   PlayerGun.obj
 0001:000b1040       ??0EAimRight@@QAE@XZ       100b2040 f   PlayerGun.obj
 0001:000b1050       ?SetDefaultProperties@CPlayerGun@@UAEXXZ 100b2050 f   PlayerGun.obj
 0001:000b1540       ?AdjustShaderParams@CPlayerGun@@UAEXJPAVCShader@@AAUShaderParams@@JPAVCModelInstance@@@Z 100b2540 f   PlayerGun.obj
 0001:000b1560       ?GetType@CPlayerGun@@UAEJXZ 100b2560 f   PlayerGun.obj
 0001:000b1570       ?Destroy@CPlayerGun@@UAEXXZ 100b2570 f   PlayerGun.obj
 0001:000b1580       ?Write_t@CPlayerGun@@UAEXPAVCTStream@@@Z 100b2580 f   PlayerGun.obj
 0001:000b15a0       ?Read_t@CPlayerGun@@UAEXPAVCTStream@@@Z 100b25a0 f   PlayerGun.obj
 0001:000b1680       ?Copy@CPlayerGun@@UAEXAAVCEntity@@K@Z 100b2680 f   PlayerGun.obj
 0001:000b16f0       ?IsPathMPCapable@CPlayerGun@@QAEHVCTFileName@@@Z 100b26f0 f   PlayerGun.obj
 0001:000b17d0       ?SetupGun@CPlayerGun@@QAEXXZ 100b27d0 f   PlayerGun.obj
 0001:000b3e40       ?AddHandAnim@CPlayerGun@@QAEXVCTString@@@Z 100b4e40 f   PlayerGun.obj
 0001:000b3ee0       ?PlayFirstAnim@CPlayerGun@@QAEMJM@Z 100b4ee0 f   PlayerGun.obj
 0001:000b3f90       ?PlayFirstAnimLooping@CPlayerGun@@QAEMJ@Z 100b4f90 f   PlayerGun.obj
 0001:000b4020       ?PlayGunAnim@CPlayerGun@@QAEMJPAVCModelInstance@@@Z 100b5020 f   PlayerGun.obj
 0001:000b4090       ?PlayGunAnimLooping@CPlayerGun@@QAEMJPAVCModelInstance@@@Z 100b5090 f   PlayerGun.obj
 0001:000b40f0       ?SpawnAmmoShell@CPlayerGun@@QAEXXZ 100b50f0 f   PlayerGun.obj
 0001:000b4310       ?SetAmmoType@CPlayerGun@@QAEHVCTString@@@Z 100b5310 f   PlayerGun.obj
 0001:000b47c0       ?SetDefaultAmmo@CPlayerGun@@QAEXXZ 100b57c0 f   PlayerGun.obj
 0001:000b48e0       ?SetAmmoFileForNextReload@CPlayerGun@@QAEXABVCTString@@@Z 100b58e0 f   PlayerGun.obj
 0001:000b4920       ?GetProjectilePlacement@CPlayerGun@@QAEXAAVCPlacement3D@@@Z 100b5920 f   PlayerGun.obj
 0001:000b4ba0       ?AttachProjectile@CPlayerGun@@QAEXXZ 100b5ba0 f   PlayerGun.obj
 0001:000b4d50       ?AttachPins@CPlayerGun@@QAEXXZ 100b5d50 f   PlayerGun.obj
 0001:000b4fa0       ?DetachProjectile@CPlayerGun@@QAEXXZ 100b5fa0 f   PlayerGun.obj
 0001:000b5040       ?DrawSmokeClouds@CPlayerGun@@QAEXVCPlacement3D@@@Z 100b6040 f   PlayerGun.obj
 0001:000b5300       ?HandleTimeDelayedEvent@CPlayerGun@@QAEXABVETimeDelayed@@@Z 100b6300 f   PlayerGun.obj
 0001:000b5370       ?TurnOffFlash@CPlayerGun@@QAEXXZ 100b6370 f   PlayerGun.obj
 0001:000b5400       ?FireGun@CPlayerGun@@QAEHABVCEntityEvent@@@Z 100b6400 f   PlayerGun.obj
 0001:000b5be0       ?H0x7a160012_FireGun_01@CPlayerGun@@QAEHABVCEntityEvent@@@Z 100b6be0 f   PlayerGun.obj
 0001:000b5c50       ?H0x7a160013_FireGun_02@CPlayerGun@@QAEHABVCEntityEvent@@@Z 100b6c50 f   PlayerGun.obj
 0001:000b5e70       ?H0x7a160014_FireGun_03@CPlayerGun@@QAEHABVCEntityEvent@@@Z 100b6e70 f   PlayerGun.obj
 0001:000b5ef0       ?H0x7a160015_FireGun_04@CPlayerGun@@QAEHABVCEntityEvent@@@Z 100b6ef0 f   PlayerGun.obj
 0001:000b5f70       ?H0x7a160016_FireGun_05@CPlayerGun@@QAEHABVCEntityEvent@@@Z 100b6f70 f   PlayerGun.obj
 0001:000b60b0       ?H0x7a160017_FireGun_06@CPlayerGun@@QAEHABVCEntityEvent@@@Z 100b70b0 f   PlayerGun.obj
 0001:000b6130       ?H0x7a160018_FireGun_07@CPlayerGun@@QAEHABVCEntityEvent@@@Z 100b7130 f   PlayerGun.obj
 0001:000b6190       ?H0x7a160019_FireGun_08@CPlayerGun@@QAEHABVCEntityEvent@@@Z 100b7190 f   PlayerGun.obj
 0001:000b61f0       ?H0x7a16001a_FireGun_09@CPlayerGun@@QAEHABVCEntityEvent@@@Z 100b71f0 f   PlayerGun.obj
 0001:000b6270       ?H0x7a16001c_FireGun_11@CPlayerGun@@QAEHABVCEntityEvent@@@Z 100b7270 f   PlayerGun.obj
 0001:000b62f0       ?H0x7a16001b_FireGun_10@CPlayerGun@@QAEHABVCEntityEvent@@@Z 100b72f0 f   PlayerGun.obj
 0001:000b6350       ?RaiseGun@CPlayerGun@@QAEHABVCEntityEvent@@@Z 100b7350 f   PlayerGun.obj
 0001:000b6510       ?H0x7a16001e_RaiseGun_01@CPlayerGun@@QAEHABVCEntityEvent@@@Z 100b7510 f   PlayerGun.obj
 0001:000b6590       ?H0x7a16001f_RaiseGun_02@CPlayerGun@@QAEHABVCEntityEvent@@@Z 100b7590 f   PlayerGun.obj
 0001:000b6610       ?LowerGun@CPlayerGun@@QAEHABVCEntityEvent@@@Z 100b7610 f   PlayerGun.obj
 0001:000b66f0       ?H0x7a160021_LowerGun_01@CPlayerGun@@QAEHABVCEntityEvent@@@Z 100b76f0 f   PlayerGun.obj
 0001:000b6770       ?H0x7a160022_LowerGun_02@CPlayerGun@@QAEHABVCEntityEvent@@@Z 100b7770 f   PlayerGun.obj
 0001:000b67e0       ?Lowered@CPlayerGun@@QAEHABVCEntityEvent@@@Z 100b77e0 f   PlayerGun.obj
 0001:000b6860       ?H0x7a160024_Lowered_01@CPlayerGun@@QAEHABVCEntityEvent@@@Z 100b7860 f   PlayerGun.obj
 0001:000b6900       ?H0x7a160025_Lowered_02@CPlayerGun@@QAEHABVCEntityEvent@@@Z 100b7900 f   PlayerGun.obj
 0001:000b6960       ?ReloadGun@CPlayerGun@@QAEHABVCEntityEvent@@@Z 100b7960 f   PlayerGun.obj
 0001:000b6a80       ?H0x7a160027_ReloadGun_01@CPlayerGun@@QAEHABVCEntityEvent@@@Z 100b7a80 f   PlayerGun.obj
 0001:000b6b00       ?H0x7a160028_ReloadGun_02@CPlayerGun@@QAEHABVCEntityEvent@@@Z 100b7b00 f   PlayerGun.obj
 0001:000b6b90       ?H0x7a160029_ReloadGun_03@CPlayerGun@@QAEHABVCEntityEvent@@@Z 100b7b90 f   PlayerGun.obj
 0001:000b6c00       ?H0x7a16002c_ReloadGun_06@CPlayerGun@@QAEHABVCEntityEvent@@@Z 100b7c00 f   PlayerGun.obj
 0001:000b6cc0       ?H0x7a16002a_ReloadGun_04@CPlayerGun@@QAEHABVCEntityEvent@@@Z 100b7cc0 f   PlayerGun.obj
 0001:000b6d40       ?H0x7a16002b_ReloadGun_05@CPlayerGun@@QAEHABVCEntityEvent@@@Z 100b7d40 f   PlayerGun.obj
 0001:000b6da0       ?H0x7a16002d_ReloadGun_07@CPlayerGun@@QAEHABVCEntityEvent@@@Z 100b7da0 f   PlayerGun.obj
 0001:000b70c0       ?H0x7a16002e_ReloadGun_08@CPlayerGun@@QAEHABVCEntityEvent@@@Z 100b80c0 f   PlayerGun.obj
 0001:000b7140       ?H0x7a16002f_ReloadGun_09@CPlayerGun@@QAEHABVCEntityEvent@@@Z 100b8140 f   PlayerGun.obj
 0001:000b71c0       ?H0x7a160031_ReloadGun_11@CPlayerGun@@QAEHABVCEntityEvent@@@Z 100b81c0 f   PlayerGun.obj
 0001:000b7220       ?H0x7a160030_ReloadGun_10@CPlayerGun@@QAEHABVCEntityEvent@@@Z 100b8220 f   PlayerGun.obj
 0001:000b7230       ?Heartbeat@CPlayerGun@@QAEHABVCEntityEvent@@@Z 100b8230 f   PlayerGun.obj
 0001:000b7290       ?Idle@CPlayerGun@@QAEHABVCEntityEvent@@@Z 100b8290 f   PlayerGun.obj
 0001:000b73f0       ?H0x7a160034_Idle_01@CPlayerGun@@QAEHABVCEntityEvent@@@Z 100b83f0 f   PlayerGun.obj
 0001:000b8030       ?H0x7a160035_Idle_02@CPlayerGun@@QAEHABVCEntityEvent@@@Z 100b9030 f   PlayerGun.obj
 0001:000b8090       ?Main@CPlayerGun@@QAEHABVCEntityEvent@@@Z 100b9090 f   PlayerGun.obj
 0001:000b82f0       ?H0x7a160036_Main_01@CPlayerGun@@QAEHABVCEntityEvent@@@Z 100b92f0 f   PlayerGun.obj
 0001:000b8400       ?H0x7a160037_Main_02@CPlayerGun@@QAEHABVCEntityEvent@@@Z 100b9400 f   PlayerGun.obj
 0001:000b8690       ?GetName@CPlayerGun@@UBEABVCTString@@XZ 100b9690 f i PlayerGun.obj
 0001:000b86a0       ?GetPredictionPair@CPlayerGun@@UAEPAVCEntity@@XZ 100b96a0 f i PlayerGun.obj
 0001:000b86b0       ?SetPredictionPair@CPlayerGun@@UAEXPAVCEntity@@@Z 100b96b0 f i PlayerGun.obj
 0001:000b86f0       ??_ECPlayerGun@@UAEPAXI@Z  100b96f0 f i PlayerGun.obj
 0001:000b86f0       ??_GCPlayerGun@@UAEPAXI@Z  100b96f0 f i PlayerGun.obj
 0001:000b8720       ??1CPlayerGun@@UAE@XZ      100b9720 f i PlayerGun.obj
 0001:000b8c10       ?CPlayerMarker_New@@YAPAVCEntity@@XZ 100b9c10 f   PlayerMarker.obj
 0001:000b8cd0       ?CPlayerMarker_OnInitClass@@YAXXZ 100b9cd0 f   PlayerMarker.obj
 0001:000b8ce0       ?CPlayerMarker_OnEndClass@@YAXXZ 100b9ce0 f   PlayerMarker.obj
 0001:000b8cf0       ?CPlayerMarker_OnPrecache@@YAXPAVCDLLEntityClass@@J@Z 100b9cf0 f   PlayerMarker.obj
 0001:000b8d00       ?CPlayerMarker_OnWorldEnd@@YAXPAVCWorld@@@Z 100b9d00 f   PlayerMarker.obj
 0001:000b8d10       ?CPlayerMarker_OnWorldInit@@YAXPAVCWorld@@@Z 100b9d10 f   PlayerMarker.obj
 0001:000b8d20       ?CPlayerMarker_OnWorldTick@@YAXPAVCWorld@@@Z 100b9d20 f   PlayerMarker.obj
 0001:000b8d30       ?CPlayerMarker_OnWorldRender@@YAXPAVCWorld@@@Z 100b9d30 f   PlayerMarker.obj
 0001:000b8d90       ?SetDefaultProperties@CPlayerMarker@@UAEXXZ 100b9d90 f   PlayerMarker.obj
 0001:000b8e30       ?Precache@CPlayerMarker@@UAEXXZ 100b9e30 f   PlayerMarker.obj
 0001:000b8e40       ?HandleEvent@CPlayerMarker@@UAEHABVCEntityEvent@@@Z 100b9e40 f   PlayerMarker.obj
 0001:000b8fc0       ?Main@CPlayerMarker@@QAEHABVCEntityEvent@@@Z 100b9fc0 f   PlayerMarker.obj
 0001:000b9050       ?IsImportant@CPlayerMarker@@UBEHXZ 100ba050 f i PlayerMarker.obj
 0001:000b9060       ??_ECPlayerMarker@@UAEPAXI@Z 100ba060 f i PlayerMarker.obj
 0001:000b9060       ??_GCPlayerMarker@@UAEPAXI@Z 100ba060 f i PlayerMarker.obj
 0001:000b9090       ??1CPlayerMarker@@UAE@XZ   100ba090 f i PlayerMarker.obj
 0001:000b93b0       ?CPlayerView_New@@YAPAVCEntity@@XZ 100ba3b0 f   PlayerView.obj
 0001:000b9430       ?CPlayerView_OnInitClass@@YAXXZ 100ba430 f   PlayerView.obj
 0001:000b9440       ?CPlayerView_OnEndClass@@YAXXZ 100ba440 f   PlayerView.obj
 0001:000b9450       ?CPlayerView_OnPrecache@@YAXPAVCDLLEntityClass@@J@Z 100ba450 f   PlayerView.obj
 0001:000b9460       ?CPlayerView_OnWorldEnd@@YAXPAVCWorld@@@Z 100ba460 f   PlayerView.obj
 0001:000b9470       ?CPlayerView_OnWorldInit@@YAXPAVCWorld@@@Z 100ba470 f   PlayerView.obj
 0001:000b9480       ?CPlayerView_OnWorldTick@@YAXPAVCWorld@@@Z 100ba480 f   PlayerView.obj
 0001:000b9490       ?CPlayerView_OnWorldRender@@YAXPAVCWorld@@@Z 100ba490 f   PlayerView.obj
 0001:000b9560       ?MakeCopy@EViewInit@@UAEPAVCEntityEvent@@XZ 100ba560 f   PlayerView.obj
 0001:000b95c0       ??0EViewInit@@QAE@XZ       100ba5c0 f   PlayerView.obj
 0001:000b9650       ?CPlayerView_Precache@@YAXXZ 100ba650 f   PlayerView.obj
 0001:000b9680       ?SetDefaultProperties@CPlayerView@@UAEXXZ 100ba680 f   PlayerView.obj
 0001:000b9750       ?AddDependentsToPrediction@CPlayerView@@UAEXXZ 100ba750 f   PlayerView.obj
 0001:000b9760       ?PreMoving@CPlayerView@@UAEXXZ 100ba760 f   PlayerView.obj
 0001:000b9770       ?DoMoving@CPlayerView@@UAEXXZ 100ba770 f   PlayerView.obj
 0001:000b9790       ?PostMoving@CPlayerView@@UAEXXZ 100ba790 f   PlayerView.obj
 0001:000b97a0       ?GetLerpedPlacement@CPlayerView@@UBE?AVCPlacement3D@@XZ 100ba7a0 f   PlayerView.obj
 0001:000b97f0       ?RenderParticles@CPlayerView@@UAEXXZ 100ba7f0 f   PlayerView.obj
 0001:000b9810       ?SetCameraPositionForDemo@CPlayerView@@QAEXXZ 100ba810 f   PlayerView.obj
 0001:000b9930       ?SetCameraPosition@CPlayerView@@QAEXXZ 100ba930 f   PlayerView.obj
 0001:000ba0b0       ?Main@CPlayerView@@QAEHABVCEntityEvent@@@Z 100bb0b0 f   PlayerView.obj
 0001:000ba200       ?H0x01930001_Main_01@CPlayerView@@QAEHABVCEntityEvent@@@Z 100bb200 f   PlayerView.obj
 0001:000ba2c0       ?H0x01930002_Main_02@CPlayerView@@QAEHABVCEntityEvent@@@Z 100bb2c0 f   PlayerView.obj
 0001:000ba320       ?GetVOString@@YAXHAAVCTString@@VCEntityPointer@@@Z 100bb320 f   Projectile.obj
 0001:000bb320       ?CProjectile_New@@YAPAVCEntity@@XZ 100bc320 f   Projectile.obj
 0001:000bb380       ?CProjectile_OnInitClass@@YAXXZ 100bc380 f   Projectile.obj
 0001:000bb390       ?CProjectile_OnEndClass@@YAXXZ 100bc390 f   Projectile.obj
 0001:000bb3a0       ?CProjectile_OnWorldEnd@@YAXPAVCWorld@@@Z 100bc3a0 f   Projectile.obj
 0001:000bb3b0       ?CProjectile_OnWorldInit@@YAXPAVCWorld@@@Z 100bc3b0 f   Projectile.obj
 0001:000bb3c0       ?CProjectile_OnWorldTick@@YAXPAVCWorld@@@Z 100bc3c0 f   Projectile.obj
 0001:000bb3d0       ?CProjectile_OnWorldRender@@YAXPAVCWorld@@@Z 100bc3d0 f   Projectile.obj
 0001:000bb4a0       ?MakeCopy@EShotPenalty@@UAEPAVCEntityEvent@@XZ 100bc4a0 f   Projectile.obj
 0001:000bb550       ??0EShotPenalty@@QAE@XZ    100bc550 f   Projectile.obj
 0001:000bb620       ?MakeCopy@EProjectileHit@@UAEPAVCEntityEvent@@XZ 100bc620 f   Projectile.obj
 0001:000bb6c0       ??0EProjectileHit@@QAE@XZ  100bc6c0 f   Projectile.obj
 0001:000bb780       ?MakeCopy@EProjectileInit@@UAEPAVCEntityEvent@@XZ 100bc780 f   Projectile.obj
 0001:000bb7c0       ??0EProjectileInit@@QAE@XZ 100bc7c0 f   Projectile.obj
 0001:000bb7e0       ?MakeCopy@EMemberNotify@@UAEPAVCEntityEvent@@XZ 100bc7e0 f   Projectile.obj
 0001:000bb840       ??0EMemberNotify@@QAE@XZ   100bc840 f   Projectile.obj
 0001:000bb8c0       ?CProjectile_OnPrecache@@YAXPAVCDLLEntityClass@@J@Z 100bc8c0 f   Projectile.obj
 0001:000bb8f0       ?SetDefaultProperties@CProjectile@@UAEXXZ 100bc8f0 f   Projectile.obj
 0001:000bbde0       ?GetGroundType@CProjectile@@QAEJV?$Vector@M$02@@@Z 100bcde0 f   Projectile.obj
 0001:000bbfb0       ?GetType@CProjectile@@UAEJXZ 100bcfb0 f   Projectile.obj
 0001:000bbfc0       ??0CProjectile@@QAE@XZ     100bcfc0 f   Projectile.obj
 0001:000bc100       ?GetClassificationBoxStretch@CProjectile@@UAE?AV?$Vector@M$02@@XZ 100bd100 f   Projectile.obj
 0001:000bc130       ?CalculateBoundingBox@CProjectile@@QAEXXZ 100bd130 f   Projectile.obj
 0001:000bc1d0       ?PreMoving@CProjectile@@UAEXXZ 100bd1d0 f   Projectile.obj
 0001:000bc480       ?PostMoving@CProjectile@@UAEXXZ 100bd480 f   Projectile.obj
 0001:000bc490       ?RenderParticles@CProjectile@@UAEXXZ 100bd490 f   Projectile.obj
 0001:000bc4c0       ?AdjustShadingParameters@CProjectile@@UAEHAAV?$Vector@M$02@@AAK1@Z 100bd4c0 f   Projectile.obj
 0001:000bc5f0       ?CalculatePositions@CProjectile@@QAEXMMMM@Z 100bd5f0 f   Projectile.obj
 0001:000bc750       ?CalculateDamage@CProjectile@@QAEMPAVCEntity@@@Z 100bd750 f   Projectile.obj
 0001:000bd560       ?CalculateDamageDHSpread@CProjectile@@QAEMPAVCEntity@@@Z 100be560 f   Projectile.obj
 0001:000bd960       ?CalculateDamageDHNoSpread@CProjectile@@QAEMPAVCEntity@@@Z 100be960 f   Projectile.obj
 0001:000bdf10       ?IsHitZoneHigherPriority@CProjectile@@QAEHW4HitZone@@@Z 100bef10 f   Projectile.obj
 0001:000bdf30       ?IsHitZoneVital@CProjectile@@QAEHAAVCTString@@@Z 100bef30 f   Projectile.obj
 0001:000bdfd0       ?GetHitZoneFromName@CProjectile@@QAE?AW4HitZone@@AAVCTString@@@Z 100befd0 f   Projectile.obj
 0001:000be050       ?SetHitZoneFromName@CProjectile@@QAEXAAVCTString@@@Z 100bf050 f   Projectile.obj
 0001:000be070       ?DoDamage@CProjectile@@QAEHPAVCEntity@@V?$Vector@M$02@@@Z 100bf070 f   Projectile.obj
 0001:000bf380       ?SpawnHitTypeEffect@CProjectile@@QAEXW4eHitType@@HV?$Vector@M$02@@111@Z 100c0380 f   Projectile.obj
 0001:000bf840       ?SpawnEffect@CProjectile@@QAEXABV?$Vector@M$02@@ABVESpawnEffect@@@Z 100c0840 f   Projectile.obj
 0001:000bf950       ?SetupProjectile@CProjectile@@QAEXXZ 100c0950 f   Projectile.obj
 0001:000bfb00       ?Fire@CProjectile@@QAEXXZ  100c0b00 f   Projectile.obj
 0001:000bfc60       ?UpdatePlayerProfile@CProjectile@@QAEXXZ 100c0c60 f   Projectile.obj
 0001:000bfe60       ?HandleMemberNotify@CProjectile@@QAEXABVEMemberNotify@@@Z 100c0e60 f   Projectile.obj
 0001:000c0030       ?HandleVoiceOver@CProjectile@@QAEXXZ 100c1030 f   Projectile.obj
 0001:000c02e0       ?OkayToClipMoveToThisEntity@CProjectile@@UAEHPAVCEntity@@@Z 100c12e0 f   Projectile.obj
 0001:000c0440       ?OnDeath@CProjectile@@QAEHABVCEntityEvent@@@Z 100c1440 f   Projectile.obj
 0001:000c0500       ?H0x78230005_OnDeath_01@CProjectile@@QAEHABVCEntityEvent@@@Z 100c1500 f   Projectile.obj
 0001:000c0580       ?H0x78230006_OnDeath_02@CProjectile@@QAEHABVCEntityEvent@@@Z 100c1580 f   Projectile.obj
 0001:000c05e0       ?H0x78230007_OnDeath_03@CProjectile@@QAEHABVCEntityEvent@@@Z 100c15e0 f   Projectile.obj
 0001:000c0640       ?H0x7823000a_OnDeath_06@CProjectile@@QAEHABVCEntityEvent@@@Z 100c1640 f   Projectile.obj
 0001:000c06e0       ?H0x78230008_OnDeath_04@CProjectile@@QAEHABVCEntityEvent@@@Z 100c16e0 f   Projectile.obj
 0001:000c0780       ?H0x78230009_OnDeath_05@CProjectile@@QAEHABVCEntityEvent@@@Z 100c1780 f   Projectile.obj
 0001:000c07e0       ?H0x7823000b_OnDeath_07@CProjectile@@QAEHABVCEntityEvent@@@Z 100c17e0 f   Projectile.obj
 0001:000c0920       ?Main@CProjectile@@QAEHABVCEntityEvent@@@Z 100c1920 f   Projectile.obj
 0001:000c09c0       ?H0x7823000c_Main_01@CProjectile@@QAEHABVCEntityEvent@@@Z 100c19c0 f   Projectile.obj
 0001:000c0c50       ?H0x7823000d_Main_02@CProjectile@@QAEHABVCEntityEvent@@@Z 100c1c50 f   Projectile.obj
 0001:000c0c60       ??_ECProjectile@@UAEPAXI@Z 100c1c60 f i Projectile.obj
 0001:000c0c60       ??_GCProjectile@@UAEPAXI@Z 100c1c60 f i Projectile.obj
 0001:000c0c90       ??1CProjectile@@UAE@XZ     100c1c90 f i Projectile.obj
 0001:000c0f30       ?CProjectileMgr_New@@YAPAVCEntity@@XZ 100c1f30 f   ProjectileMgr.obj
 0001:000c0fc0       ?CProjectileMgr_OnInitClass@@YAXXZ 100c1fc0 f   ProjectileMgr.obj
 0001:000c0fd0       ?CProjectileMgr_OnEndClass@@YAXXZ 100c1fd0 f   ProjectileMgr.obj
 0001:000c0fe0       ?CProjectileMgr_OnPrecache@@YAXPAVCDLLEntityClass@@J@Z 100c1fe0 f   ProjectileMgr.obj
 0001:000c0ff0       ?CProjectileMgr_OnWorldEnd@@YAXPAVCWorld@@@Z 100c1ff0 f   ProjectileMgr.obj
 0001:000c1000       ?CProjectileMgr_OnWorldInit@@YAXPAVCWorld@@@Z 100c2000 f   ProjectileMgr.obj
 0001:000c1010       ?CProjectileMgr_OnWorldTick@@YAXPAVCWorld@@@Z 100c2010 f   ProjectileMgr.obj
 0001:000c1020       ?CProjectileMgr_OnWorldRender@@YAXPAVCWorld@@@Z 100c2020 f   ProjectileMgr.obj
 0001:000c10f0       ?DebugProj@@YAXJ@Z         100c20f0 f   ProjectileMgr.obj
 0001:000c1130       ?SetDefaultProperties@CProjectileMgr@@UAEXXZ 100c2130 f   ProjectileMgr.obj
 0001:000c1150       ?GetType@CProjectileMgr@@UAEJXZ 100c2150 f   ProjectileMgr.obj
 0001:000c1160       ?Destroy@CProjectileMgr@@UAEXXZ 100c2160 f   ProjectileMgr.obj
 0001:000c1170       ?Copy@CProjectileMgr@@UAEXAAVCEntity@@K@Z 100c2170 f   ProjectileMgr.obj
 0001:000c1310       ?Write_t@CProjectileMgr@@UAEXPAVCTStream@@@Z 100c2310 f   ProjectileMgr.obj
 0001:000c13e0       ?Read_t@CProjectileMgr@@UAEXPAVCTStream@@@Z 100c23e0 f   ProjectileMgr.obj
 0001:000c1580       ?FindProjectile@CProjectileMgr@@QAEPAVCProjectile@@VCTString@@@Z 100c2580 f   ProjectileMgr.obj
 0001:000c1630       ?FindProjectile@CProjectileMgr@@QAEPAVCProjectile@@W4eProjectileType@@@Z 100c2630 f   ProjectileMgr.obj
 0001:000c1670       ?CreateProjectile@CProjectileMgr@@QAEPAVCProjectile@@VCTString@@VCPlacement3D@@@Z 100c2670 f   ProjectileMgr.obj
 0001:000c1790       ?CreateProjectile@CProjectileMgr@@QAEPAVCProjectile@@W4eProjectileType@@VCPlacement3D@@@Z 100c2790 f   ProjectileMgr.obj
 0001:000c1850       ?LoadDataFiles@CProjectileMgr@@QAEXXZ 100c2850 f   ProjectileMgr.obj
 0001:000c23a0       ?Main@CProjectileMgr@@QAEHABVCEntityEvent@@@Z 100c33a0 f   ProjectileMgr.obj
 0001:000c2440       ?H0x781f0000_Main_01@CProjectileMgr@@QAEHABVCEntityEvent@@@Z 100c3440 f   ProjectileMgr.obj
 0001:000c2480       ?H0x781f0001_Main_02@CProjectileMgr@@QAEHABVCEntityEvent@@@Z 100c3480 f   ProjectileMgr.obj
 0001:000c24a0       ?H0x781f0002_Main_03@CProjectileMgr@@QAEHABVCEntityEvent@@@Z 100c34a0 f   ProjectileMgr.obj
 0001:000c24e0       ?H0x781f0003_Main_04@CProjectileMgr@@QAEHABVCEntityEvent@@@Z 100c34e0 f   ProjectileMgr.obj
 0001:000c2500       ??_GCProjectileMgr@@UAEPAXI@Z 100c3500 f i ProjectileMgr.obj
 0001:000c2500       ??_ECProjectileMgr@@UAEPAXI@Z 100c3500 f i ProjectileMgr.obj
 0001:000c2530       ??1CProjectileMgr@@UAE@XZ  100c3530 f i ProjectileMgr.obj
 0001:000c25c0       ??1?$CDynamicContainerIterator@VCProjectile@@@@QAE@XZ 100c35c0 f i ProjectileMgr.obj
 0001:000c25d0       ??1?$CStaticStackArray@PAVCProjectile@@@@QAE@XZ 100c35d0 f i ProjectileMgr.obj
 0001:000c2600       ?Clear@?$CStaticStackArray@PAVCProjectile@@@@QAEXXZ 100c3600 f i ProjectileMgr.obj
 0001:000c2780       ?CPulser_New@@YAPAVCEntity@@XZ 100c3780 f   Pulser.obj
 0001:000c2800       ?CPulser_OnInitClass@@YAXXZ 100c3800 f   Pulser.obj
 0001:000c2810       ?CPulser_OnEndClass@@YAXXZ 100c3810 f   Pulser.obj
 0001:000c2820       ?CPulser_OnPrecache@@YAXPAVCDLLEntityClass@@J@Z 100c3820 f   Pulser.obj
 0001:000c2830       ?CPulser_OnWorldEnd@@YAXPAVCWorld@@@Z 100c3830 f   Pulser.obj
 0001:000c2840       ?CPulser_OnWorldInit@@YAXPAVCWorld@@@Z 100c3840 f   Pulser.obj
 0001:000c2850       ?CPulser_OnWorldTick@@YAXPAVCWorld@@@Z 100c3850 f   Pulser.obj
 0001:000c2860       ?CPulser_OnWorldRender@@YAXPAVCWorld@@@Z 100c3860 f   Pulser.obj
 0001:000c2930       ?MakeCopy@EPulserInit@@UAEPAVCEntityEvent@@XZ 100c3930 f   Pulser.obj
 0001:000c2970       ??0EPulserInit@@QAE@XZ     100c3970 f   Pulser.obj
 0001:000c29e0       ?MakeCopy@EPulse@@UAEPAVCEntityEvent@@XZ 100c39e0 f   Pulser.obj
 0001:000c2a20       ??0EPulse@@QAE@XZ          100c3a20 f   Pulser.obj
 0001:000c2a40       ?SetDefaultProperties@CPulser@@UAEXXZ 100c3a40 f   Pulser.obj
 0001:000c2ab0       ?Active@CPulser@@QAEHABVCEntityEvent@@@Z 100c3ab0 f   Pulser.obj
 0001:000c2b10       ?H0x77270005_Active_03@CPulser@@QAEHABVCEntityEvent@@@Z 100c3b10 f   Pulser.obj
 0001:000c2bc0       ?H0x77270003_Active_01@CPulser@@QAEHABVCEntityEvent@@@Z 100c3bc0 f   Pulser.obj
 0001:000c2cb0       ?H0x77270004_Active_02@CPulser@@QAEHABVCEntityEvent@@@Z 100c3cb0 f   Pulser.obj
 0001:000c2d10       ?H0x77270006_Active_04@CPulser@@QAEHABVCEntityEvent@@@Z 100c3d10 f   Pulser.obj
 0001:000c2d20       ?Inactive@CPulser@@QAEHABVCEntityEvent@@@Z 100c3d20 f   Pulser.obj
 0001:000c2d90       ?H0x77270008_Inactive_01@CPulser@@QAEHABVCEntityEvent@@@Z 100c3d90 f   Pulser.obj
 0001:000c2e10       ?H0x77270009_Inactive_02@CPulser@@QAEHABVCEntityEvent@@@Z 100c3e10 f   Pulser.obj
 0001:000c2e20       ?Dummy@CPulser@@QAEHABVCEntityEvent@@@Z 100c3e20 f   Pulser.obj
 0001:000c2e90       ?H0x7727000b_Dummy_01@CPulser@@QAEHABVCEntityEvent@@@Z 100c3e90 f   Pulser.obj
 0001:000c2ea0       ?H0x7727000c_Dummy_02@CPulser@@QAEHABVCEntityEvent@@@Z 100c3ea0 f   Pulser.obj
 0001:000c2eb0       ?Main@CPulser@@QAEHABVCEntityEvent@@@Z 100c3eb0 f   Pulser.obj
 0001:000c2f90       ?H0x7727000d_Main_01@CPulser@@QAEHABVCEntityEvent@@@Z 100c3f90 f   Pulser.obj
 0001:000c3030       ?H0x7727000e_Main_02@CPulser@@QAEHABVCEntityEvent@@@Z 100c4030 f   Pulser.obj
 0001:000c31b0       ?CReminder_New@@YAPAVCEntity@@XZ 100c41b0 f   Reminder.obj
 0001:000c3230       ?CReminder_OnInitClass@@YAXXZ 100c4230 f   Reminder.obj
 0001:000c3240       ?CReminder_OnEndClass@@YAXXZ 100c4240 f   Reminder.obj
 0001:000c3250       ?CReminder_OnPrecache@@YAXPAVCDLLEntityClass@@J@Z 100c4250 f   Reminder.obj
 0001:000c3260       ?CReminder_OnWorldEnd@@YAXPAVCWorld@@@Z 100c4260 f   Reminder.obj
 0001:000c3270       ?CReminder_OnWorldInit@@YAXPAVCWorld@@@Z 100c4270 f   Reminder.obj
 0001:000c3280       ?CReminder_OnWorldTick@@YAXPAVCWorld@@@Z 100c4280 f   Reminder.obj
 0001:000c3290       ?CReminder_OnWorldRender@@YAXPAVCWorld@@@Z 100c4290 f   Reminder.obj
 0001:000c3360       ?MakeCopy@EReminderInit@@UAEPAVCEntityEvent@@XZ 100c4360 f   Reminder.obj
 0001:000c33b0       ??0EReminderInit@@QAE@XZ   100c43b0 f   Reminder.obj
 0001:000c3420       ?SetDefaultProperties@CReminder@@UAEXXZ 100c4420 f   Reminder.obj
 0001:000c3470       ?Main@CReminder@@QAEHABVCEntityEvent@@@Z 100c4470 f   Reminder.obj
 0001:000c3570       ?H0x02bf0001_Main_01@CReminder@@QAEHABVCEntityEvent@@@Z 100c4570 f   Reminder.obj
 0001:000c35f0       ?H0x02bf0002_Main_02@CReminder@@QAEHABVCEntityEvent@@@Z 100c45f0 f   Reminder.obj
 0001:000c3680       ?H0x02bf0003_Main_03@CReminder@@QAEHABVCEntityEvent@@@Z 100c4680 f   Reminder.obj
 0001:000c36e0       ??0ERAmbient@@QAE@ABV0@@Z  100c46e0 f i Reptile.obj
 0001:000c3700       ??4ERAmbient@@QAEAAV0@ABV0@@Z 100c4700 f i Reptile.obj
 0001:000c3720       ??1ERAmbient@@UAE@XZ       100c4720 f i Reptile.obj
 0001:000c3730       ??_GERAmbient@@UAEPAXI@Z   100c4730 f i Reptile.obj
 0001:000c3760       ??_EERAmbient@@UAEPAXI@Z   100c4760 f i Reptile.obj
 0001:000c37c0       ?ClearToDefault@@YAXAAVERAmbient@@@Z 100c47c0 f i Reptile.obj
 0001:000c37e0       ??0ERFlee@@QAE@ABV0@@Z     100c47e0 f i Reptile.obj
 0001:000c3800       ??4ERFlee@@QAEAAV0@ABV0@@Z 100c4800 f i Reptile.obj
 0001:000c3820       ??1ERFlee@@UAE@XZ          100c4820 f i Reptile.obj
 0001:000c3830       ??_GERFlee@@UAEPAXI@Z      100c4830 f i Reptile.obj
 0001:000c3860       ??_EERFlee@@UAEPAXI@Z      100c4860 f i Reptile.obj
 0001:000c38c0       ?ClearToDefault@@YAXAAVERFlee@@@Z 100c48c0 f i Reptile.obj
 0001:000c38e0       ??0ERSleep@@QAE@ABV0@@Z    100c48e0 f i Reptile.obj
 0001:000c3900       ??4ERSleep@@QAEAAV0@ABV0@@Z 100c4900 f i Reptile.obj
 0001:000c3920       ??1ERSleep@@UAE@XZ         100c4920 f i Reptile.obj
 0001:000c3930       ??_GERSleep@@UAEPAXI@Z     100c4930 f i Reptile.obj
 0001:000c3960       ??_EERSleep@@UAEPAXI@Z     100c4960 f i Reptile.obj
 0001:000c39c0       ?ClearToDefault@@YAXAAVERSleep@@@Z 100c49c0 f i Reptile.obj
 0001:000c3dc0       ?CReptile_New@@YAPAVCEntity@@XZ 100c4dc0 f   Reptile.obj
 0001:000c3f30       ?CReptile_OnInitClass@@YAXXZ 100c4f30 f   Reptile.obj
 0001:000c3f40       ?CReptile_OnEndClass@@YAXXZ 100c4f40 f   Reptile.obj
 0001:000c3f50       ?CReptile_OnPrecache@@YAXPAVCDLLEntityClass@@J@Z 100c4f50 f   Reptile.obj
 0001:000c3f60       ?CReptile_OnWorldEnd@@YAXPAVCWorld@@@Z 100c4f60 f   Reptile.obj
 0001:000c3f70       ?CReptile_OnWorldInit@@YAXPAVCWorld@@@Z 100c4f70 f   Reptile.obj
 0001:000c3f80       ?CReptile_OnWorldTick@@YAXPAVCWorld@@@Z 100c4f80 f   Reptile.obj
 0001:000c3f90       ?CReptile_OnWorldRender@@YAXPAVCWorld@@@Z 100c4f90 f   Reptile.obj
 0001:000c3ff0       ?MakeCopy@ERAmbient@@UAEPAVCEntityEvent@@XZ 100c4ff0 f   Reptile.obj
 0001:000c4020       ??0ERAmbient@@QAE@XZ       100c5020 f   Reptile.obj
 0001:000c4030       ?MakeCopy@ERFlee@@UAEPAVCEntityEvent@@XZ 100c5030 f   Reptile.obj
 0001:000c4060       ??0ERFlee@@QAE@XZ          100c5060 f   Reptile.obj
 0001:000c4070       ?MakeCopy@ERSleep@@UAEPAVCEntityEvent@@XZ 100c5070 f   Reptile.obj
 0001:000c40a0       ??0ERSleep@@QAE@XZ         100c50a0 f   Reptile.obj
 0001:000c40b0       ?SetDefaultProperties@CReptile@@UAEXXZ 100c50b0 f   Reptile.obj
 0001:000c41f0       ?StatisticsInit@CReptile@@UAEXXZ 100c51f0 f   Reptile.obj
 0001:000c4520       ?CreateHelperObjects@CReptile@@UAEXXZ 100c5520 f   Reptile.obj
 0001:000c45f0       ?GetClosestPlayer@CReptile@@QAEPAVCEntity@@XZ 100c55f0 f   Reptile.obj
 0001:000c4690       ?GetDistanceFromPlayerSquared@CReptile@@QAEMXZ 100c5690 f   Reptile.obj
 0001:000c4730       ?ShouldEndActive@CReptile@@QAE_NXZ 100c5730 f   Reptile.obj
 0001:000c48a0       ?ShouldFlee@CReptile@@QAE_NXZ 100c58a0 f   Reptile.obj
 0001:000c48d0       ?DistanceToDestination@CReptile@@QAEMXZ 100c58d0 f   Reptile.obj
 0001:000c4920       ?ShouldBecomeActive@CReptile@@QAE_NXZ 100c5920 f   Reptile.obj
 0001:000c4b70       ?EndActive@CReptile@@QAEXXZ 100c5b70 f   Reptile.obj
 0001:000c4bd0       ?BeginActive@CReptile@@QAEXXZ 100c5bd0 f   Reptile.obj
 0001:000c4d40       ?UpdateMovementToDestination@CReptile@@QAEXXZ 100c5d40 f   Reptile.obj
 0001:000c4ea0       ?ChooseFleeDestination@CReptile@@QAEXXZ 100c5ea0 f   Reptile.obj
 0001:000c4f80       ?Logic@CReptile@@QAEXXZ    100c5f80 f   Reptile.obj
 0001:000c5090       ?DoMoving@CReptile@@UAEXXZ 100c6090 f   Reptile.obj
 0001:000c50b0       ?Die@CReptile@@QAEHABVCEntityEvent@@@Z 100c60b0 f   Reptile.obj
 0001:000c5190       ?H0x74500004_Die_01@CReptile@@QAEHABVCEntityEvent@@@Z 100c6190 f   Reptile.obj
 0001:000c5280       ?H0x74500005_Die_02@CReptile@@QAEHABVCEntityEvent@@@Z 100c6280 f   Reptile.obj
 0001:000c52e0       ?Ambient@CReptile@@QAEHABVCEntityEvent@@@Z 100c62e0 f   Reptile.obj
 0001:000c5340       ?H0x7450001a_Ambient_20@CReptile@@QAEHABVCEntityEvent@@@Z 100c6340 f   Reptile.obj
 0001:000c5520       ?H0x74500009_Ambient_03@CReptile@@QAEHABVCEntityEvent@@@Z 100c6520 f   Reptile.obj
 0001:000c5670       ?H0x74500007_Ambient_01@CReptile@@QAEHABVCEntityEvent@@@Z 100c6670 f   Reptile.obj
 0001:000c56f0       ?H0x74500008_Ambient_02@CReptile@@QAEHABVCEntityEvent@@@Z 100c66f0 f   Reptile.obj
 0001:000c5750       ?H0x7450000a_Ambient_04@CReptile@@QAEHABVCEntityEvent@@@Z 100c6750 f   Reptile.obj
 0001:000c5800       ?H0x7450000d_Ambient_07@CReptile@@QAEHABVCEntityEvent@@@Z 100c6800 f   Reptile.obj
 0001:000c5950       ?H0x7450000b_Ambient_05@CReptile@@QAEHABVCEntityEvent@@@Z 100c6950 f   Reptile.obj
 0001:000c59d0       ?H0x7450000c_Ambient_06@CReptile@@QAEHABVCEntityEvent@@@Z 100c69d0 f   Reptile.obj
 0001:000c5a30       ?H0x7450000e_Ambient_08@CReptile@@QAEHABVCEntityEvent@@@Z 100c6a30 f   Reptile.obj
 0001:000c5b00       ?H0x74500011_Ambient_11@CReptile@@QAEHABVCEntityEvent@@@Z 100c6b00 f   Reptile.obj
 0001:000c5c50       ?H0x7450000f_Ambient_09@CReptile@@QAEHABVCEntityEvent@@@Z 100c6c50 f   Reptile.obj
 0001:000c5cd0       ?H0x74500010_Ambient_10@CReptile@@QAEHABVCEntityEvent@@@Z 100c6cd0 f   Reptile.obj
 0001:000c5d30       ?H0x74500012_Ambient_12@CReptile@@QAEHABVCEntityEvent@@@Z 100c6d30 f   Reptile.obj
 0001:000c5d90       ?H0x74500013_Ambient_13@CReptile@@QAEHABVCEntityEvent@@@Z 100c6d90 f   Reptile.obj
 0001:000c5ee0       ?H0x74500014_Ambient_14@CReptile@@QAEHABVCEntityEvent@@@Z 100c6ee0 f   Reptile.obj
 0001:000c5f60       ?H0x74500015_Ambient_15@CReptile@@QAEHABVCEntityEvent@@@Z 100c6f60 f   Reptile.obj
 0001:000c5fc0       ?H0x74500016_Ambient_16@CReptile@@QAEHABVCEntityEvent@@@Z 100c6fc0 f   Reptile.obj
 0001:000c6020       ?H0x74500017_Ambient_17@CReptile@@QAEHABVCEntityEvent@@@Z 100c7020 f   Reptile.obj
 0001:000c6160       ?H0x74500018_Ambient_18@CReptile@@QAEHABVCEntityEvent@@@Z 100c7160 f   Reptile.obj
 0001:000c61e0       ?H0x74500019_Ambient_19@CReptile@@QAEHABVCEntityEvent@@@Z 100c71e0 f   Reptile.obj
 0001:000c6240       ?H0x7450001b_Ambient_21@CReptile@@QAEHABVCEntityEvent@@@Z 100c7240 f   Reptile.obj
 0001:000c62a0       ?Flee@CReptile@@QAEHABVCEntityEvent@@@Z 100c72a0 f   Reptile.obj
 0001:000c6330       ?H0x74500021_Flee_05@CReptile@@QAEHABVCEntityEvent@@@Z 100c7330 f   Reptile.obj
 0001:000c6390       ?H0x7450001f_Flee_03@CReptile@@QAEHABVCEntityEvent@@@Z 100c7390 f   Reptile.obj
 0001:000c6430       ?H0x7450001d_Flee_01@CReptile@@QAEHABVCEntityEvent@@@Z 100c7430 f   Reptile.obj
 0001:000c64b0       ?H0x7450001e_Flee_02@CReptile@@QAEHABVCEntityEvent@@@Z 100c74b0 f   Reptile.obj
 0001:000c6510       ?H0x74500020_Flee_04@CReptile@@QAEHABVCEntityEvent@@@Z 100c7510 f   Reptile.obj
 0001:000c6570       ?H0x74500022_Flee_06@CReptile@@QAEHABVCEntityEvent@@@Z 100c7570 f   Reptile.obj
 0001:000c65d0       ?Sleep@CReptile@@QAEHABVCEntityEvent@@@Z 100c75d0 f   Reptile.obj
 0001:000c6690       ?H0x74500024_Sleep_01@CReptile@@QAEHABVCEntityEvent@@@Z 100c7690 f   Reptile.obj
 0001:000c66c0       ?H0x74500025_Sleep_02@CReptile@@QAEHABVCEntityEvent@@@Z 100c76c0 f   Reptile.obj
 0001:000c6720       ?MainLoop@CReptile@@QAEHABVCEntityEvent@@@Z 100c7720 f   Reptile.obj
 0001:000c6780       ?H0x74500029_MainLoop_03@CReptile@@QAEHABVCEntityEvent@@@Z 100c7780 f   Reptile.obj
 0001:000c67f0       ?H0x74500027_MainLoop_01@CReptile@@QAEHABVCEntityEvent@@@Z 100c77f0 f   Reptile.obj
 0001:000c68d0       ?H0x74500028_MainLoop_02@CReptile@@QAEHABVCEntityEvent@@@Z 100c78d0 f   Reptile.obj
 0001:000c6930       ?H0x7450002a_MainLoop_04@CReptile@@QAEHABVCEntityEvent@@@Z 100c7930 f   Reptile.obj
 0001:000c6990       ?Main@CReptile@@QAEHABVCEntityEvent@@@Z 100c7990 f   Reptile.obj
 0001:000c6ab0       ?H0x7450002b_Main_01@CReptile@@QAEHABVCEntityEvent@@@Z 100c7ab0 f   Reptile.obj
 0001:000c6b30       ?H0x7450002c_Main_02@CReptile@@QAEHABVCEntityEvent@@@Z 100c7b30 f   Reptile.obj
 0001:000c6b90       ?H0x7450002d_Main_03@CReptile@@QAEHABVCEntityEvent@@@Z 100c7b90 f   Reptile.obj
 0001:000c6c30       ?H0x7450002e_Main_04@CReptile@@QAEHABVCEntityEvent@@@Z 100c7c30 f   Reptile.obj
 0001:000c6c90       ??_ECReptile@@UAEPAXI@Z    100c7c90 f i Reptile.obj
 0001:000c6c90       ??_GCReptile@@UAEPAXI@Z    100c7c90 f i Reptile.obj
 0001:000c6cc0       ??1CReptile@@UAE@XZ        100c7cc0 f i Reptile.obj
 0001:000c6e00       ??0EHarbor@@QAE@ABV0@@Z    100c7e00 f i Ship.obj
 0001:000c6e20       ??4EHarbor@@QAEAAV0@ABV0@@Z 100c7e20 f i Ship.obj
 0001:000c6e40       ??1EHarbor@@UAE@XZ         100c7e40 f i Ship.obj
 0001:000c6e50       ??_GEHarbor@@UAEPAXI@Z     100c7e50 f i Ship.obj
 0001:000c6e80       ??_EEHarbor@@UAEPAXI@Z     100c7e80 f i Ship.obj
 0001:000c6ee0       ?ClearToDefault@@YAXAAVEHarbor@@@Z 100c7ee0 f i Ship.obj
 0001:000c73b0       ?CShip_New@@YAPAVCEntity@@XZ 100c83b0 f   Ship.obj
 0001:000c7460       ?CShip_OnInitClass@@YAXXZ  100c8460 f   Ship.obj
 0001:000c7470       ?CShip_OnEndClass@@YAXXZ   100c8470 f   Ship.obj
 0001:000c7480       ?CShip_OnPrecache@@YAXPAVCDLLEntityClass@@J@Z 100c8480 f   Ship.obj
 0001:000c7490       ?CShip_OnWorldEnd@@YAXPAVCWorld@@@Z 100c8490 f   Ship.obj
 0001:000c74a0       ?CShip_OnWorldInit@@YAXPAVCWorld@@@Z 100c84a0 f   Ship.obj
 0001:000c74b0       ?CShip_OnWorldTick@@YAXPAVCWorld@@@Z 100c84b0 f   Ship.obj
 0001:000c74c0       ?CShip_OnWorldRender@@YAXPAVCWorld@@@Z 100c84c0 f   Ship.obj
 0001:000c7590       ?MakeCopy@EHarbor@@UAEPAVCEntityEvent@@XZ 100c8590 f   Ship.obj
 0001:000c75c0       ??0EHarbor@@QAE@XZ         100c85c0 f   Ship.obj
 0001:000c75d0       ?AdjustRotationSpeed@@YAMMM@Z 100c85d0 f   Ship.obj
 0001:000c7630       ?SetDefaultProperties@CShip@@UAEXXZ 100c8630 f   Ship.obj
 0001:000c7750       ?MovesByTargetedRoute@CShip@@UBEHAAVCTString@@@Z 100c8750 f   Ship.obj
 0001:000c7780       ?DropsMarker@CShip@@UBEHAAVCTFileName@@AAVCTString@@@Z 100c8780 f   Ship.obj
 0001:000c7820       ?GetDescription@CShip@@UBEABVCTString@@XZ 100c8820 f   Ship.obj
 0001:000c7860       ?GetAnimData@CShip@@UAEPAVCAnimData@@J@Z 100c8860 f   Ship.obj
 0001:000c78b0       ?SetMovingSpeeds@CShip@@QAEXXZ 100c88b0 f   Ship.obj
 0001:000c7a40       ?GetRockingSpeed@CShip@@QAEMXZ 100c8a40 f   Ship.obj
 0001:000c7bb0       ?NextMarker@CShip@@QAEXXZ  100c8bb0 f   Ship.obj
 0001:000c7d50       ?StartSailing@CShip@@QAEXXZ 100c8d50 f   Ship.obj
 0001:000c7d60       ?StopSailing@CShip@@QAEXXZ 100c8d60 f   Ship.obj
 0001:000c7dc0       ?PreMoving@CShip@@UAEXXZ   100c8dc0 f   Ship.obj
 0001:000c7de0       ?Sail@CShip@@QAEHABVCEntityEvent@@@Z 100c8de0 f   Ship.obj
 0001:000c7e80       ?H0x00670002_Sail_01@CShip@@QAEHABVCEntityEvent@@@Z 100c8e80 f   Ship.obj
 0001:000c7f00       ?H0x00670003_Sail_02@CShip@@QAEHABVCEntityEvent@@@Z 100c8f00 f   Ship.obj
 0001:000c7f80       ?H0x00670004_Sail_03@CShip@@QAEHABVCEntityEvent@@@Z 100c8f80 f   Ship.obj
 0001:000c8040       ?H0x00670005_Sail_04@CShip@@QAEHABVCEntityEvent@@@Z 100c9040 f   Ship.obj
 0001:000c80d0       ?H0x00670006_Sail_05@CShip@@QAEHABVCEntityEvent@@@Z 100c90d0 f   Ship.obj
 0001:000c8160       ?H0x00670007_Sail_06@CShip@@QAEHABVCEntityEvent@@@Z 100c9160 f   Ship.obj
 0001:000c81c0       ?Harbor@CShip@@QAEHABVCEntityEvent@@@Z 100c91c0 f   Ship.obj
 0001:000c8240       ?H0x00670009_Harbor_01@CShip@@QAEHABVCEntityEvent@@@Z 100c9240 f   Ship.obj
 0001:000c82d0       ?H0x0067000a_Harbor_02@CShip@@QAEHABVCEntityEvent@@@Z 100c92d0 f   Ship.obj
 0001:000c8330       ?Main@CShip@@QAEHABVCEntityEvent@@@Z 100c9330 f   Ship.obj
 0001:000c8470       ?H0x0067000b_Main_01@CShip@@QAEHABVCEntityEvent@@@Z 100c9470 f   Ship.obj
 0001:000c84f0       ?H0x0067000c_Main_02@CShip@@QAEHABVCEntityEvent@@@Z 100c94f0 f   Ship.obj
 0001:000c8590       ?H0x0067000d_Main_03@CShip@@QAEHABVCEntityEvent@@@Z 100c9590 f   Ship.obj
 0001:000c8650       ?H0x0067000e_Main_04@CShip@@QAEHABVCEntityEvent@@@Z 100c9650 f   Ship.obj
 0001:000c8660       ?GetName@CShip@@UBEABVCTString@@XZ 100c9660 f i Ship.obj
 0001:000c8670       ?IsTargetable@CShip@@UBEHXZ 100c9670 f i Ship.obj
 0001:000c8680       ??_ECShip@@UAEPAXI@Z       100c9680 f i Ship.obj
 0001:000c8680       ??_GCShip@@UAEPAXI@Z       100c9680 f i Ship.obj
 0001:000c86b0       ??1CShip@@UAE@XZ           100c96b0 f i Ship.obj
 0001:000c8990       ?CShipMarker_New@@YAPAVCEntity@@XZ 100c9990 f   ShipMarker.obj
 0001:000c8a30       ?CShipMarker_OnInitClass@@YAXXZ 100c9a30 f   ShipMarker.obj
 0001:000c8a40       ?CShipMarker_OnEndClass@@YAXXZ 100c9a40 f   ShipMarker.obj
 0001:000c8a50       ?CShipMarker_OnPrecache@@YAXPAVCDLLEntityClass@@J@Z 100c9a50 f   ShipMarker.obj
 0001:000c8a60       ?CShipMarker_OnWorldEnd@@YAXPAVCWorld@@@Z 100c9a60 f   ShipMarker.obj
 0001:000c8a70       ?CShipMarker_OnWorldInit@@YAXPAVCWorld@@@Z 100c9a70 f   ShipMarker.obj
 0001:000c8a80       ?CShipMarker_OnWorldTick@@YAXPAVCWorld@@@Z 100c9a80 f   ShipMarker.obj
 0001:000c8a90       ?CShipMarker_OnWorldRender@@YAXPAVCWorld@@@Z 100c9a90 f   ShipMarker.obj
 0001:000c8af0       ?SetDefaultProperties@CShipMarker@@UAEXXZ 100c9af0 f   ShipMarker.obj
 0001:000c8b30       ?DropsMarker@CShipMarker@@UBEHAAVCTFileName@@AAVCTString@@@Z 100c9b30 f   ShipMarker.obj
 0001:000c8bd0       ?Main@CShipMarker@@QAEHABVCEntityEvent@@@Z 100c9bd0 f   ShipMarker.obj
 0001:000c8c30       ??_ECShipMarker@@UAEPAXI@Z 100c9c30 f i ShipMarker.obj
 0001:000c8c30       ??_GCShipMarker@@UAEPAXI@Z 100c9c30 f i ShipMarker.obj
 0001:000c8c60       ??1CShipMarker@@UAE@XZ     100c9c60 f i ShipMarker.obj
 0001:000c8cf0       ??0ESBAmbient@@QAE@ABV0@@Z 100c9cf0 f i SimpleBird.obj
 0001:000c8d10       ??4ESBAmbient@@QAEAAV0@ABV0@@Z 100c9d10 f i SimpleBird.obj
 0001:000c8d30       ??1ESBAmbient@@UAE@XZ      100c9d30 f i SimpleBird.obj
 0001:000c8d40       ??_GESBAmbient@@UAEPAXI@Z  100c9d40 f i SimpleBird.obj
 0001:000c8d70       ??_EESBAmbient@@UAEPAXI@Z  100c9d70 f i SimpleBird.obj
 0001:000c8dd0       ?ClearToDefault@@YAXAAVESBAmbient@@@Z 100c9dd0 f i SimpleBird.obj
 0001:000c8df0       ??0ESBFlee@@QAE@ABV0@@Z    100c9df0 f i SimpleBird.obj
 0001:000c8e10       ??4ESBFlee@@QAEAAV0@ABV0@@Z 100c9e10 f i SimpleBird.obj
 0001:000c8e30       ??1ESBFlee@@UAE@XZ         100c9e30 f i SimpleBird.obj
 0001:000c8e40       ??_GESBFlee@@UAEPAXI@Z     100c9e40 f i SimpleBird.obj
 0001:000c8e70       ??_EESBFlee@@UAEPAXI@Z     100c9e70 f i SimpleBird.obj
 0001:000c8ed0       ?ClearToDefault@@YAXAAVESBFlee@@@Z 100c9ed0 f i SimpleBird.obj
 0001:000c8ef0       ??0ESBSleep@@QAE@ABV0@@Z   100c9ef0 f i SimpleBird.obj
 0001:000c8f10       ??4ESBSleep@@QAEAAV0@ABV0@@Z 100c9f10 f i SimpleBird.obj
 0001:000c8f30       ??1ESBSleep@@UAE@XZ        100c9f30 f i SimpleBird.obj
 0001:000c8f40       ??_GESBSleep@@UAEPAXI@Z    100c9f40 f i SimpleBird.obj
 0001:000c8f70       ??_EESBSleep@@UAEPAXI@Z    100c9f70 f i SimpleBird.obj
 0001:000c8fd0       ?ClearToDefault@@YAXAAVESBSleep@@@Z 100c9fd0 f i SimpleBird.obj
 0001:000c93c0       ?CSimpleBird_New@@YAPAVCEntity@@XZ 100ca3c0 f   SimpleBird.obj
 0001:000c9530       ?CSimpleBird_OnInitClass@@YAXXZ 100ca530 f   SimpleBird.obj
 0001:000c9540       ?CSimpleBird_OnEndClass@@YAXXZ 100ca540 f   SimpleBird.obj
 0001:000c9550       ?CSimpleBird_OnPrecache@@YAXPAVCDLLEntityClass@@J@Z 100ca550 f   SimpleBird.obj
 0001:000c9560       ?CSimpleBird_OnWorldEnd@@YAXPAVCWorld@@@Z 100ca560 f   SimpleBird.obj
 0001:000c9570       ?CSimpleBird_OnWorldInit@@YAXPAVCWorld@@@Z 100ca570 f   SimpleBird.obj
 0001:000c9580       ?CSimpleBird_OnWorldTick@@YAXPAVCWorld@@@Z 100ca580 f   SimpleBird.obj
 0001:000c9590       ?CSimpleBird_OnWorldRender@@YAXPAVCWorld@@@Z 100ca590 f   SimpleBird.obj
 0001:000c95f0       ?MakeCopy@ESBAmbient@@UAEPAVCEntityEvent@@XZ 100ca5f0 f   SimpleBird.obj
 0001:000c9620       ??0ESBAmbient@@QAE@XZ      100ca620 f   SimpleBird.obj
 0001:000c9630       ?MakeCopy@ESBFlee@@UAEPAVCEntityEvent@@XZ 100ca630 f   SimpleBird.obj
 0001:000c9660       ??0ESBFlee@@QAE@XZ         100ca660 f   SimpleBird.obj
 0001:000c9670       ?MakeCopy@ESBSleep@@UAEPAVCEntityEvent@@XZ 100ca670 f   SimpleBird.obj
 0001:000c96a0       ??0ESBSleep@@QAE@XZ        100ca6a0 f   SimpleBird.obj
 0001:000c96b0       ?SetDefaultProperties@CSimpleBird@@UAEXXZ 100ca6b0 f   SimpleBird.obj
 0001:000c97f0       ?GameInit@CSimpleBird@@UAEXXZ 100ca7f0 f   SimpleBird.obj
 0001:000c9870       ?StatisticsInit@CSimpleBird@@UAEXXZ 100ca870 f   SimpleBird.obj
 0001:000c9c40       ?CreateHelperObjects@CSimpleBird@@UAEXXZ 100cac40 f   SimpleBird.obj
 0001:000c9d10       ?GetClosestPlayer@CSimpleBird@@QAEPAVCEntity@@XZ 100cad10 f   SimpleBird.obj
 0001:000c9db0       ?GetDistanceFromPlayerSquared@CSimpleBird@@QAEMXZ 100cadb0 f   SimpleBird.obj
 0001:000c9e50       ?ShouldEndActive@CSimpleBird@@QAE_NXZ 100cae50 f   SimpleBird.obj
 0001:000c9fc0       ?ShouldFlee@CSimpleBird@@QAE_NXZ 100cafc0 f   SimpleBird.obj
 0001:000c9ff0       ?DistanceToDestination@CSimpleBird@@QAEMXZ 100caff0 f   SimpleBird.obj
 0001:000ca040       ?ShouldBecomeActive@CSimpleBird@@QAE_NXZ 100cb040 f   SimpleBird.obj
 0001:000ca290       ?EndActive@CSimpleBird@@QAEXXZ 100cb290 f   SimpleBird.obj
 0001:000ca2f0       ?BeginActive@CSimpleBird@@QAEXXZ 100cb2f0 f   SimpleBird.obj
 0001:000ca470       ?UpdateMovementToDestination@CSimpleBird@@QAEXXZ 100cb470 f   SimpleBird.obj
 0001:000ca5d0       ?ChooseFleeDestination@CSimpleBird@@QAEXXZ 100cb5d0 f   SimpleBird.obj
 0001:000ca6b0       ?Logic@CSimpleBird@@QAEXXZ 100cb6b0 f   SimpleBird.obj
 0001:000ca7c0       ?GetDistanceFromGround@CSimpleBird@@QAEMXZ 100cb7c0 f   SimpleBird.obj
 0001:000ca880       ?DoMoving@CSimpleBird@@UAEXXZ 100cb880 f   SimpleBird.obj
 0001:000ca8a0       ?Die@CSimpleBird@@QAEHABVCEntityEvent@@@Z 100cb8a0 f   SimpleBird.obj
 0001:000ca980       ?H0x74510004_Die_01@CSimpleBird@@QAEHABVCEntityEvent@@@Z 100cb980 f   SimpleBird.obj
 0001:000caa70       ?H0x74510005_Die_02@CSimpleBird@@QAEHABVCEntityEvent@@@Z 100cba70 f   SimpleBird.obj
 0001:000caad0       ?Ambient@CSimpleBird@@QAEHABVCEntityEvent@@@Z 100cbad0 f   SimpleBird.obj
 0001:000cab30       ?H0x7451000f_Ambient_09@CSimpleBird@@QAEHABVCEntityEvent@@@Z 100cbb30 f   SimpleBird.obj
 0001:000cac60       ?H0x74510009_Ambient_03@CSimpleBird@@QAEHABVCEntityEvent@@@Z 100cbc60 f   SimpleBird.obj
 0001:000cadf0       ?H0x74510007_Ambient_01@CSimpleBird@@QAEHABVCEntityEvent@@@Z 100cbdf0 f   SimpleBird.obj
 0001:000cae70       ?H0x74510008_Ambient_02@CSimpleBird@@QAEHABVCEntityEvent@@@Z 100cbe70 f   SimpleBird.obj
 0001:000caed0       ?H0x7451000a_Ambient_04@CSimpleBird@@QAEHABVCEntityEvent@@@Z 100cbed0 f   SimpleBird.obj
 0001:000caf80       ?H0x7451000d_Ambient_07@CSimpleBird@@QAEHABVCEntityEvent@@@Z 100cbf80 f   SimpleBird.obj
 0001:000cb110       ?H0x7451000b_Ambient_05@CSimpleBird@@QAEHABVCEntityEvent@@@Z 100cc110 f   SimpleBird.obj
 0001:000cb190       ?H0x7451000c_Ambient_06@CSimpleBird@@QAEHABVCEntityEvent@@@Z 100cc190 f   SimpleBird.obj
 0001:000cb1f0       ?H0x7451000e_Ambient_08@CSimpleBird@@QAEHABVCEntityEvent@@@Z 100cc1f0 f   SimpleBird.obj
 0001:000cb290       ?H0x74510010_Ambient_10@CSimpleBird@@QAEHABVCEntityEvent@@@Z 100cc290 f   SimpleBird.obj
 0001:000cb2f0       ?Flee@CSimpleBird@@QAEHABVCEntityEvent@@@Z 100cc2f0 f   SimpleBird.obj
 0001:000cb380       ?H0x74510016_Flee_05@CSimpleBird@@QAEHABVCEntityEvent@@@Z 100cc380 f   SimpleBird.obj
 0001:000cb3e0       ?H0x74510014_Flee_03@CSimpleBird@@QAEHABVCEntityEvent@@@Z 100cc3e0 f   SimpleBird.obj
 0001:000cb480       ?H0x74510012_Flee_01@CSimpleBird@@QAEHABVCEntityEvent@@@Z 100cc480 f   SimpleBird.obj
 0001:000cb500       ?H0x74510013_Flee_02@CSimpleBird@@QAEHABVCEntityEvent@@@Z 100cc500 f   SimpleBird.obj
 0001:000cb560       ?H0x74510015_Flee_04@CSimpleBird@@QAEHABVCEntityEvent@@@Z 100cc560 f   SimpleBird.obj
 0001:000cb5c0       ?H0x74510017_Flee_06@CSimpleBird@@QAEHABVCEntityEvent@@@Z 100cc5c0 f   SimpleBird.obj
 0001:000cb620       ?Sleep@CSimpleBird@@QAEHABVCEntityEvent@@@Z 100cc620 f   SimpleBird.obj
 0001:000cb6e0       ?H0x74510019_Sleep_01@CSimpleBird@@QAEHABVCEntityEvent@@@Z 100cc6e0 f   SimpleBird.obj
 0001:000cb710       ?H0x7451001a_Sleep_02@CSimpleBird@@QAEHABVCEntityEvent@@@Z 100cc710 f   SimpleBird.obj
 0001:000cb770       ?MainLoop@CSimpleBird@@QAEHABVCEntityEvent@@@Z 100cc770 f   SimpleBird.obj
 0001:000cb7d0       ?H0x7451001e_MainLoop_03@CSimpleBird@@QAEHABVCEntityEvent@@@Z 100cc7d0 f   SimpleBird.obj
 0001:000cb840       ?H0x7451001c_MainLoop_01@CSimpleBird@@QAEHABVCEntityEvent@@@Z 100cc840 f   SimpleBird.obj
 0001:000cb920       ?H0x7451001d_MainLoop_02@CSimpleBird@@QAEHABVCEntityEvent@@@Z 100cc920 f   SimpleBird.obj
 0001:000cb980       ?H0x7451001f_MainLoop_04@CSimpleBird@@QAEHABVCEntityEvent@@@Z 100cc980 f   SimpleBird.obj
 0001:000cb9e0       ?Main@CSimpleBird@@QAEHABVCEntityEvent@@@Z 100cc9e0 f   SimpleBird.obj
 0001:000cbaf0       ?H0x74510020_Main_01@CSimpleBird@@QAEHABVCEntityEvent@@@Z 100ccaf0 f   SimpleBird.obj
 0001:000cbb70       ?H0x74510021_Main_02@CSimpleBird@@QAEHABVCEntityEvent@@@Z 100ccb70 f   SimpleBird.obj
 0001:000cbbd0       ?H0x74510022_Main_03@CSimpleBird@@QAEHABVCEntityEvent@@@Z 100ccbd0 f   SimpleBird.obj
 0001:000cbc70       ?H0x74510023_Main_04@CSimpleBird@@QAEHABVCEntityEvent@@@Z 100ccc70 f   SimpleBird.obj
 0001:000cbcd0       ??_GCSimpleBird@@UAEPAXI@Z 100cccd0 f i SimpleBird.obj
 0001:000cbcd0       ??_ECSimpleBird@@UAEPAXI@Z 100cccd0 f i SimpleBird.obj
 0001:000cbd00       ??1CSimpleBird@@UAE@XZ     100ccd00 f i SimpleBird.obj
 0001:000ccb00       ?CSkaMarker_New@@YAPAVCEntity@@XZ 100cdb00 f   SkaMarker.obj
 0001:000cccd0       ?CSkaMarker_OnInitClass@@YAXXZ 100cdcd0 f   SkaMarker.obj
 0001:000ccce0       ?CSkaMarker_OnEndClass@@YAXXZ 100cdce0 f   SkaMarker.obj
 0001:000cccf0       ?CSkaMarker_OnPrecache@@YAXPAVCDLLEntityClass@@J@Z 100cdcf0 f   SkaMarker.obj
 0001:000ccd00       ?CSkaMarker_OnWorldEnd@@YAXPAVCWorld@@@Z 100cdd00 f   SkaMarker.obj
 0001:000ccd10       ?CSkaMarker_OnWorldInit@@YAXPAVCWorld@@@Z 100cdd10 f   SkaMarker.obj
 0001:000ccd20       ?CSkaMarker_OnWorldTick@@YAXPAVCWorld@@@Z 100cdd20 f   SkaMarker.obj
 0001:000ccd30       ?CSkaMarker_OnWorldRender@@YAXPAVCWorld@@@Z 100cdd30 f   SkaMarker.obj
 0001:000cce00       ?SetDefaultProperties@CSkaMarker@@UAEXXZ 100cde00 f   SkaMarker.obj
 0001:000cd370       ?GetType@CSkaMarker@@UAEJXZ 100ce370 f   SkaMarker.obj
 0001:000cd380       ?Precache@CSkaMarker@@UAEXXZ 100ce380 f   SkaMarker.obj
 0001:000cd390       ?Destroy@CSkaMarker@@UAEXXZ 100ce390 f   SkaMarker.obj
 0001:000cd430       ?Copy@CSkaMarker@@UAEXAAVCEntity@@K@Z 100ce430 f   SkaMarker.obj
 0001:000cd610       ?Write_t@CSkaMarker@@UAEXPAVCTStream@@@Z 100ce610 f   SkaMarker.obj
 0001:000cd790       ?Read_t_SM01@CSkaMarker@@QAEXPAVCTStream@@@Z 100ce790 f   SkaMarker.obj
 0001:000cdc70       ?Read_t_SM03@CSkaMarker@@QAEXPAVCTStream@@@Z 100cec70 f   SkaMarker.obj
 0001:000cdfa0       ?Read_t@CSkaMarker@@UAEXPAVCTStream@@@Z 100cefa0 f   SkaMarker.obj
 0001:000ce400       ?GetForestDensity@CSkaMarker@@QAEMAAV?$AABBox@M$02@@@Z 100cf400 f   SkaMarker.obj
 0001:000ce520       ?FindPerchTree@CSkaMarker@@QAEHV?$Vector@M$02@@MMAAV2@PAPAVCModelInstance@@AAM@Z 100cf520 f   SkaMarker.obj
 0001:000ce6b0       ?GetRubbinTree@CSkaMarker@@QAEHVCPlacement3D@@AAV2@AAM@Z 100cf6b0 f   SkaMarker.obj
 0001:000ce8d0       ?GetBestTree@CSkaMarker@@QAEHVCPlacement3D@@AAV2@AAM222AAH@Z 100cf8d0 f   SkaMarker.obj
 0001:000cedd0       ?GetModelCollideInfo@CSkaMarker@@QAEHAAH0@Z 100cfdd0 f   SkaMarker.obj
 0001:000cee50       ?GetNonCollidableTree@CSkaMarker@@QAEHVCPlacement3D@@AAV2@AAM22@Z 100cfe50 f   SkaMarker.obj
 0001:000cf090       ?GetDescription@CSkaMarker@@UBEABVCTString@@XZ 100d0090 f   SkaMarker.obj
 0001:000cf0e0       ?ChooseModel@CSkaMarker@@QAE?AVCTFileName@@XZ 100d00e0 f   SkaMarker.obj
 0001:000cf2b0       ?IsBehaviorFlagged@CSkaMarker@@QAEHW4eMarkerBehavior@@@Z 100d02b0 f   SkaMarker.obj
 0001:000cf2e0       ?IsBehavior2Flagged@CSkaMarker@@QAEHW4eSkaMarkerPlacementBehavior2@@@Z 100d02e0 f   SkaMarker.obj
 0001:000cf310       ?IsAnimFlagged@CSkaMarker@@QAEHH@Z 100d0310 f   SkaMarker.obj
 0001:000cf340       ?IsCollideFlagged@CSkaMarker@@QAEHH@Z 100d0340 f   SkaMarker.obj
 0001:000cf370       ?IsLightmapLightingMarked@CSkaMarker@@QAEHH@Z 100d0370 f   SkaMarker.obj
 0001:000cf3d0       ?IsTypeFlagged@CSkaMarker@@QAEHH@Z 100d03d0 f   SkaMarker.obj
 0001:000cf430       ?IsModelIndexCollidable@CSkaMarker@@QAEHH@Z 100d0430 f   SkaMarker.obj
 0001:000cf480       ?DetermineRadius@CSkaMarker@@QAEXXZ 100d0480 f   SkaMarker.obj
 0001:000cf510       ?FrequencyTotal@CSkaMarker@@QAEMXZ 100d0510 f   SkaMarker.obj
 0001:000cf530       ?RayIsValid@CSkaMarker@@QAEHAAVCCastRay@@@Z 100d0530 f   SkaMarker.obj
 0001:000cf670       ?DetermineRandomScale@CSkaMarker@@QAEEE@Z 100d0670 f   SkaMarker.obj
 0001:000cf700       ?CreateObjects@CSkaMarker@@QAEHH@Z 100d0700 f   SkaMarker.obj
 0001:000d08b0       ?FindNextTriggerSet@CSkaMarker@@QAEXAAJ000@Z 100d18b0 f   SkaMarker.obj
 0001:000d0910       ?CalculateModelIndex@CSkaMarker@@QAEJJ@Z 100d1910 f   SkaMarker.obj
 0001:000d0a00       ?GetModelIndex@CSkaMarker@@QAEEJ@Z 100d1a00 f   SkaMarker.obj
 0001:000d0a20       ?CreateTriggers@CSkaMarker@@QAEXHHH@Z 100d1a20 f   SkaMarker.obj
 0001:000d0af0       ?PlaceModelInstance@CSkaMarker@@QAEHV?$Vector@M$02@@VCCastRay@@HEEJ@Z 100d1af0 f   SkaMarker.obj
 0001:000d0c60       ?CalculateLongestAxis@CSkaMarker@@QAEXV?$AABBox@M$02@@H@Z 100d1c60 f   SkaMarker.obj
 0001:000d0d20       ?InitSkaMarker@CSkaMarker@@QAEXXZ 100d1d20 f   SkaMarker.obj
 0001:000d0dc0       ?ShutdownSkaMarker@CSkaMarker@@QAEXXZ 100d1dc0 f   SkaMarker.obj
 0001:000d0e80       ?InitCollisionBoxes@CSkaMarker@@QAEXXZ 100d1e80 f   SkaMarker.obj
 0001:000d1150       ?InitAnimations@CSkaMarker@@QAEXXZ 100d2150 f   SkaMarker.obj
 0001:000d1310       ?LimitScale@CSkaMarker@@QAEMM@Z 100d2310 f   SkaMarker.obj
 0001:000d1350       ?LimitFrequency@CSkaMarker@@QAEXXZ 100d2350 f   SkaMarker.obj
 0001:000d1400       ?LimitValue@CSkaMarker@@QAEXAAMMM@Z 100d2400 f   SkaMarker.obj
 0001:000d1430       ?LimitValue@CSkaMarker@@QAEXAAJJJ@Z 100d2430 f   SkaMarker.obj
 0001:000d1450       ?RenderFunc@CSkaMarker@@UAEXXZ 100d2450 f   SkaMarker.obj
 0001:000d1640       ?Active@CSkaMarker@@QAEHABVCEntityEvent@@@Z 100d2640 f   SkaMarker.obj
 0001:000d16a0       ?H0x78200003_Active_03@CSkaMarker@@QAEHABVCEntityEvent@@@Z 100d26a0 f   SkaMarker.obj
 0001:000d1730       ?H0x78200001_Active_01@CSkaMarker@@QAEHABVCEntityEvent@@@Z 100d2730 f   SkaMarker.obj
 0001:000d1870       ?H0x78200002_Active_02@CSkaMarker@@QAEHABVCEntityEvent@@@Z 100d2870 f   SkaMarker.obj
 0001:000d18d0       ?H0x78200004_Active_04@CSkaMarker@@QAEHABVCEntityEvent@@@Z 100d28d0 f   SkaMarker.obj
 0001:000d18e0       ?InActive@CSkaMarker@@QAEHABVCEntityEvent@@@Z 100d28e0 f   SkaMarker.obj
 0001:000d1940       ?H0x78200008_InActive_03@CSkaMarker@@QAEHABVCEntityEvent@@@Z 100d2940 f   SkaMarker.obj
 0001:000d19b0       ?H0x78200006_InActive_01@CSkaMarker@@QAEHABVCEntityEvent@@@Z 100d29b0 f   SkaMarker.obj
 0001:000d1a60       ?H0x78200007_InActive_02@CSkaMarker@@QAEHABVCEntityEvent@@@Z 100d2a60 f   SkaMarker.obj
 0001:000d1af0       ?H0x78200009_InActive_04@CSkaMarker@@QAEHABVCEntityEvent@@@Z 100d2af0 f   SkaMarker.obj
 0001:000d1b00       ?Main@CSkaMarker@@QAEHABVCEntityEvent@@@Z 100d2b00 f   SkaMarker.obj
 0001:000d1f20       ?H0x7820000a_Main_01@CSkaMarker@@QAEHABVCEntityEvent@@@Z 100d2f20 f   SkaMarker.obj
 0001:000d1fa0       ?H0x7820000b_Main_02@CSkaMarker@@QAEHABVCEntityEvent@@@Z 100d2fa0 f   SkaMarker.obj
 0001:000d20b0       ?GetName@CSkaMarker@@UBEABVCTString@@XZ 100d30b0 f i SkaMarker.obj
 0001:000d20c0       ?GetTarget@CSkaMarker@@UBEPAVCEntity@@XZ 100d30c0 f i SkaMarker.obj
 0001:000d20d0       ?IsTargetable@CSkaMarker@@UBEHXZ 100d30d0 f i SkaMarker.obj
 0001:000d20e0       ??_ECSkaMarker@@UAEPAXI@Z  100d30e0 f i SkaMarker.obj
 0001:000d20e0       ??_GCSkaMarker@@UAEPAXI@Z  100d30e0 f i SkaMarker.obj
 0001:000d2110       ??1CSkaMarker@@UAE@XZ      100d3110 f i SkaMarker.obj
 0001:000d2310       ??0t_Models@@QAE@XZ        100d3310 f i SkaMarker.obj
 0001:000d2330       ??_ECCollisionInfo@@QAEPAXI@Z 100d3330 f i SkaMarker.obj
 0001:000d2390       ??0?$CDynamicContainer@VCModelInstance@@@@QAE@XZ 100d3390 f i SkaMarker.obj
 0001:000d23b0       ??1?$CDynamicContainer@VCModelInstance@@@@QAE@XZ 100d33b0 f i SkaMarker.obj
 0001:000d2420       ??1?$CStaticArray@Ut_Models@@@@QAE@XZ 100d3420 f i SkaMarker.obj
 0001:000d2450       ??1?$CDynamicContainerIterator@VCModelInstance@@@@QAE@XZ 100d3450 f i SkaMarker.obj
 0001:000d2460       ??1?$CStaticStackArray@PAVCModelInstance@@@@QAE@XZ 100d3460 f i SkaMarker.obj
 0001:000d2490       ?Clear@?$CStaticStackArray@PAVCModelInstance@@@@QAEXXZ 100d3490 f i SkaMarker.obj
 0001:000d24c0       ?Push@?$CStaticStackArray@PAVCModelInstance@@@@QAEAAPAVCModelInstance@@XZ 100d34c0 f i SkaMarker.obj
 0001:000d2550       ?Delete@?$CStaticArray@Ut_Models@@@@QAEXXZ 100d3550 f i SkaMarker.obj
 0001:000d2570       ?Expand@?$CStaticArray@PAVCModelInstance@@@@QAEXJ@Z 100d3570 f i SkaMarker.obj
 0001:000d25f0       ?Delete@?$CStaticArray@PAVCModelInstance@@@@QAEXXZ 100d35f0 f i SkaMarker.obj
 0001:000d2740       ?CSkaMarkerManager_New@@YAPAVCEntity@@XZ 100d3740 f   SkaMarkerManager.obj
 0001:000d27a0       ?CSkaMarkerManager_OnInitClass@@YAXXZ 100d37a0 f   SkaMarkerManager.obj
 0001:000d27b0       ?CSkaMarkerManager_OnEndClass@@YAXXZ 100d37b0 f   SkaMarkerManager.obj
 0001:000d27c0       ?CSkaMarkerManager_OnPrecache@@YAXPAVCDLLEntityClass@@J@Z 100d37c0 f   SkaMarkerManager.obj
 0001:000d27d0       ?CSkaMarkerManager_OnWorldEnd@@YAXPAVCWorld@@@Z 100d37d0 f   SkaMarkerManager.obj
 0001:000d27e0       ?CSkaMarkerManager_OnWorldInit@@YAXPAVCWorld@@@Z 100d37e0 f   SkaMarkerManager.obj
 0001:000d27f0       ?CSkaMarkerManager_OnWorldTick@@YAXPAVCWorld@@@Z 100d37f0 f   SkaMarkerManager.obj
 0001:000d2800       ?CSkaMarkerManager_OnWorldRender@@YAXPAVCWorld@@@Z 100d3800 f   SkaMarkerManager.obj
 0001:000d28d0       ?SetDefaultProperties@CSkaMarkerManager@@UAEXXZ 100d38d0 f   SkaMarkerManager.obj
 0001:000d28f0       ?GetType@CSkaMarkerManager@@UAEJXZ 100d38f0 f   SkaMarkerManager.obj
 0001:000d2900       ??0CSkaMarkerManager@@QAE@XZ 100d3900 f   SkaMarkerManager.obj
 0001:000d2970       ??1CSkaMarkerManager@@UAE@XZ 100d3970 f   SkaMarkerManager.obj
 0001:000d2ae0       ?Copy@CSkaMarkerManager@@UAEXAAVCEntity@@K@Z 100d3ae0 f   SkaMarkerManager.obj
 0001:000d2db0       ?Write_t@CSkaMarkerManager@@UAEXPAVCTStream@@@Z 100d3db0 f   SkaMarkerManager.obj
 0001:000d2fd0       ?Read_t@CSkaMarkerManager@@UAEXPAVCTStream@@@Z 100d3fd0 f   SkaMarkerManager.obj
 0001:000d32e0       ?AddEntity@CSkaMarkerManager@@QAEHPAVCEntity@@@Z 100d42e0 f   SkaMarkerManager.obj
 0001:000d3490       ?RemoveEntity@CSkaMarkerManager@@QAEHPAVCEntity@@@Z 100d4490 f   SkaMarkerManager.obj
 0001:000d3520       ?AddSkaMarkerEntity@CSkaMarkerManager@@QAEHPAVCEntity@@@Z 100d4520 f   SkaMarkerManager.obj
 0001:000d3640       ?RemoveSkaMarkerEntity@CSkaMarkerManager@@QAEHPAVCEntity@@@Z 100d4640 f   SkaMarkerManager.obj
 0001:000d36c0       ?Setup@CSkaMarkerManager@@QAEXXZ 100d46c0 f   SkaMarkerManager.obj
 0001:000d37c0       ?DestroyCollideSkaMarkers@CSkaMarkerManager@@QAEXXZ 100d47c0 f   SkaMarkerManager.obj
 0001:000d3800       ?DestroyClosestItems@CSkaMarkerManager@@QAEXXZ 100d4800 f   SkaMarkerManager.obj
 0001:000d3840       ?CreateCollideSkaMarkers@CSkaMarkerManager@@QAEXXZ 100d4840 f   SkaMarkerManager.obj
 0001:000d3980       ?CreateClosestItems@CSkaMarkerManager@@QAEXXZ 100d4980 f   SkaMarkerManager.obj
 0001:000d3a20       ?Update@CSkaMarkerManager@@QAEXXZ 100d4a20 f   SkaMarkerManager.obj
 0001:000d4730       ?GetClosestData@CSkaMarkerManager@@QAEHPAVCEntity@@AAVt_ClosestData@@@Z 100d5730 f   SkaMarkerManager.obj
 0001:000d4830       ?DoesCollide@CSkaMarkerManager@@QAEHV?$Vector@M$02@@MKAAV2@AAM@Z 100d5830 f   SkaMarkerManager.obj
 0001:000d4bf0       ?RenderCheckCorners@CSkaMarkerManager@@QAEHV?$Vector@M$02@@00M@Z 100d5bf0 f   SkaMarkerManager.obj
 0001:000d4d80       ?RenderFunc@CSkaMarkerManager@@UAEXXZ 100d5d80 f   SkaMarkerManager.obj
 0001:000d4e10       ?Destroy@CSkaMarkerManager@@UAEXXZ 100d5e10 f   SkaMarkerManager.obj
 0001:000d4e20       ?Main@CSkaMarkerManager@@QAEHABVCEntityEvent@@@Z 100d5e20 f   SkaMarkerManager.obj
 0001:000d4e80       ?H0x791d0002_Main_03@CSkaMarkerManager@@QAEHABVCEntityEvent@@@Z 100d5e80 f   SkaMarkerManager.obj
 0001:000d4ef0       ?H0x791d0000_Main_01@CSkaMarkerManager@@QAEHABVCEntityEvent@@@Z 100d5ef0 f   SkaMarkerManager.obj
 0001:000d4fd0       ?H0x791d0001_Main_02@CSkaMarkerManager@@QAEHABVCEntityEvent@@@Z 100d5fd0 f   SkaMarkerManager.obj
 0001:000d5030       ?H0x791d0003_Main_04@CSkaMarkerManager@@QAEHABVCEntityEvent@@@Z 100d6030 f   SkaMarkerManager.obj
 0001:000d5090       ??_ECSkaMarkerManager@@UAEPAXI@Z 100d6090 f i SkaMarkerManager.obj
 0001:000d5090       ??_GCSkaMarkerManager@@UAEPAXI@Z 100d6090 f i SkaMarkerManager.obj
 0001:000d50c0       ??0t_CollideSkaMarker@@QAE@XZ 100d60c0 f i SkaMarkerManager.obj
 0001:000d50e0       ??1t_CollideSkaMarker@@QAE@XZ 100d60e0 f i SkaMarkerManager.obj
 0001:000d5120       ??_Et_CollideSkaMarker@@QAEPAXI@Z 100d6120 f i SkaMarkerManager.obj
 0001:000d51a0       ??_Et_ClosestData@@QAEPAXI@Z 100d61a0 f i SkaMarkerManager.obj
 0001:000d5200       ??0t_ClosestData@@QAE@XZ   100d6200 f i SkaMarkerManager.obj
 0001:000d5280       ??1?$CDynamicContainer@Vt_Entity@@@@QAE@XZ 100d6280 f i SkaMarkerManager.obj
 0001:000d52f0       ??1?$CDynamicContainerIterator@Vt_Entity@@@@QAE@XZ 100d62f0 f i SkaMarkerManager.obj
 0001:000d5300       ??1?$CStaticStackArray@PAVt_Entity@@@@QAE@XZ 100d6300 f i SkaMarkerManager.obj
 0001:000d5330       ?New@?$CStaticArray@PAVt_Entity@@@@QAEXJ@Z 100d6330 f i SkaMarkerManager.obj
 0001:000d5360       ?Delete@?$CStaticArray@PAVt_Entity@@@@QAEXXZ 100d6360 f i SkaMarkerManager.obj
 0001:000d5a10       ?CSkaModelHolder_New@@YAPAVCEntity@@XZ 100d6a10 f   SkaModelHolder.obj
 0001:000d5b30       ?CSkaModelHolder_OnInitClass@@YAXXZ 100d6b30 f   SkaModelHolder.obj
 0001:000d5b40       ?CSkaModelHolder_OnEndClass@@YAXXZ 100d6b40 f   SkaModelHolder.obj
 0001:000d5b50       ?CSkaModelHolder_OnPrecache@@YAXPAVCDLLEntityClass@@J@Z 100d6b50 f   SkaModelHolder.obj
 0001:000d5b60       ?CSkaModelHolder_OnWorldEnd@@YAXPAVCWorld@@@Z 100d6b60 f   SkaModelHolder.obj
 0001:000d5b70       ?CSkaModelHolder_OnWorldInit@@YAXPAVCWorld@@@Z 100d6b70 f   SkaModelHolder.obj
 0001:000d5b80       ?CSkaModelHolder_OnWorldTick@@YAXPAVCWorld@@@Z 100d6b80 f   SkaModelHolder.obj
 0001:000d5b90       ?CSkaModelHolder_OnWorldRender@@YAXPAVCWorld@@@Z 100d6b90 f   SkaModelHolder.obj
 0001:000d5c60       ?SetDefaultProperties@CSkaModelHolder@@UAEXXZ 100d6c60 f   SkaModelHolder.obj
 0001:000d5f20       ?GetType@CSkaModelHolder@@UAEJXZ 100d6f20 f   SkaModelHolder.obj
 0001:000d5f30       ?IsFlagged@CSkaModelHolder@@QAEHW4eSkaModelFlags@@@Z 100d6f30 f   SkaModelHolder.obj
 0001:000d5f60       ?GetClassificationBoxStretch@CSkaModelHolder@@UAE?AV?$Vector@M$02@@XZ 100d6f60 f   SkaModelHolder.obj
 0001:000d5fd0       ?SetSkaModel@CSkaModelHolder@@UAEHABVCTString@@@Z 100d6fd0 f   SkaModelHolder.obj
 0001:000d60d0       ?SetSkaModel_t@CSkaModelHolder@@UAEXABVCTString@@@Z 100d70d0 f   SkaModelHolder.obj
 0001:000d61d0       ?ReceiveDamage@CSkaModelHolder@@UAEXPAVCEntity@@W4DamageType@@MABV?$Vector@M$02@@20@Z 100d71d0 f   SkaModelHolder.obj
 0001:000d6480       ?IsTargetable@CSkaModelHolder@@UBEHXZ 100d7480 f   SkaModelHolder.obj
 0001:000d6490       ?FillEntityStatistics@CSkaModelHolder@@UAEHPAUEntityStats@@@Z 100d7490 f   SkaModelHolder.obj
 0001:000d65a0       ?GetDestruction@CSkaModelHolder@@QAEPAVCModelDestruction@@XZ 100d75a0 f   SkaModelHolder.obj
 0001:000d65b0       ?ScaleModel@CSkaModelHolder@@QAEXXZ 100d75b0 f   SkaModelHolder.obj
 0001:000d6630       ?AdjustShadingParameters@CSkaModelHolder@@UAEHAAV?$Vector@M$02@@AAK1@Z 100d7630 f   SkaModelHolder.obj
 0001:000d69d0       ?InitSkaModelHolder@CSkaModelHolder@@QAEXXZ 100d79d0 f   SkaModelHolder.obj
 0001:000d6cb0       ?RemoveFromPathFinding@CSkaModelHolder@@QAEXXZ 100d7cb0 f   SkaModelHolder.obj
 0001:000d6d40       ?Die@CSkaModelHolder@@QAEHABVCEntityEvent@@@Z 100d7d40 f   SkaModelHolder.obj
 0001:000d6e70       ?WaitAliveTime@CSkaModelHolder@@QAEHABVCEntityEvent@@@Z 100d7e70 f   SkaModelHolder.obj
 0001:000d6f00       ?H0x78240002_WaitAliveTime_01@CSkaModelHolder@@QAEHABVCEntityEvent@@@Z 100d7f00 f   SkaModelHolder.obj
 0001:000d6fa0       ?H0x78240003_WaitAliveTime_02@CSkaModelHolder@@QAEHABVCEntityEvent@@@Z 100d7fa0 f   SkaModelHolder.obj
 0001:000d7000       ?WaitNoAliveTime@CSkaModelHolder@@QAEHABVCEntityEvent@@@Z 100d8000 f   SkaModelHolder.obj
 0001:000d7070       ?H0x78240005_WaitNoAliveTime_01@CSkaModelHolder@@QAEHABVCEntityEvent@@@Z 100d8070 f   SkaModelHolder.obj
 0001:000d7270       ?H0x78240006_WaitNoAliveTime_02@CSkaModelHolder@@QAEHABVCEntityEvent@@@Z 100d8270 f   SkaModelHolder.obj
 0001:000d72d0       ?Main@CSkaModelHolder@@QAEHABVCEntityEvent@@@Z 100d82d0 f   SkaModelHolder.obj
 0001:000d73a0       ?H0x78240007_Main_01@CSkaModelHolder@@QAEHABVCEntityEvent@@@Z 100d83a0 f   SkaModelHolder.obj
 0001:000d7420       ?H0x78240008_Main_02@CSkaModelHolder@@QAEHABVCEntityEvent@@@Z 100d8420 f   SkaModelHolder.obj
 0001:000d74b0       ?GetName@CSkaModelHolder@@UBEABVCTString@@XZ 100d84b0 f i SkaModelHolder.obj
 0001:000d74c0       ?GetDescription@CSkaModelHolder@@UBEABVCTString@@XZ 100d84c0 f i SkaModelHolder.obj
 0001:000d74d0       ??_GCSkaModelHolder@@UAEPAXI@Z 100d84d0 f i SkaModelHolder.obj
 0001:000d74d0       ??_ECSkaModelHolder@@UAEPAXI@Z 100d84d0 f i SkaModelHolder.obj
 0001:000d7500       ??1CSkaModelHolder@@UAE@XZ 100d8500 f i SkaModelHolder.obj
 0001:000d7830       ?CSkeet_New@@YAPAVCEntity@@XZ 100d8830 f   Skeet.obj
 0001:000d78e0       ?CSkeet_OnInitClass@@YAXXZ 100d88e0 f   Skeet.obj
 0001:000d78f0       ?CSkeet_OnEndClass@@YAXXZ  100d88f0 f   Skeet.obj
 0001:000d7900       ?CSkeet_OnPrecache@@YAXPAVCDLLEntityClass@@J@Z 100d8900 f   Skeet.obj
 0001:000d7910       ?CSkeet_OnWorldEnd@@YAXPAVCWorld@@@Z 100d8910 f   Skeet.obj
 0001:000d7920       ?CSkeet_OnWorldInit@@YAXPAVCWorld@@@Z 100d8920 f   Skeet.obj
 0001:000d7930       ?CSkeet_OnWorldTick@@YAXPAVCWorld@@@Z 100d8930 f   Skeet.obj
 0001:000d7940       ?CSkeet_OnWorldRender@@YAXPAVCWorld@@@Z 100d8940 f   Skeet.obj
 0001:000d7a10       ?SetDefaultProperties@CSkeet@@UAEXXZ 100d8a10 f   Skeet.obj
 0001:000d7ae0       ?ReceiveDamage@CSkeet@@UAEXPAVCEntity@@W4DamageType@@MABV?$Vector@M$02@@20@Z 100d8ae0 f   Skeet.obj
 0001:000d7be0       ?Main@CSkeet@@QAEHABVCEntityEvent@@@Z 100d8be0 f   Skeet.obj
 0001:000d7d70       ?H0x7a140000_Main_01@CSkeet@@QAEHABVCEntityEvent@@@Z 100d8d70 f   Skeet.obj
 0001:000d7e60       ?H0x7a140001_Main_02@CSkeet@@QAEHABVCEntityEvent@@@Z 100d8e60 f   Skeet.obj
 0001:000d7ec0       ?H0x7a140002_Main_03@CSkeet@@QAEHABVCEntityEvent@@@Z 100d8ec0 f   Skeet.obj
 0001:000d7f30       ?H0x7a140003_Main_04@CSkeet@@QAEHABVCEntityEvent@@@Z 100d8f30 f   Skeet.obj
 0001:000d7fb0       ?H0x7a140004_Main_05@CSkeet@@QAEHABVCEntityEvent@@@Z 100d8fb0 f   Skeet.obj
 0001:000d8010       ?GetName@CSkeet@@UBEABVCTString@@XZ 100d9010 f i Skeet.obj
 0001:000d8020       ?IsTargetable@CSkeet@@UBEHXZ 100d9020 f i Skeet.obj
 0001:000d8030       ??_ECSkeet@@UAEPAXI@Z      100d9030 f i Skeet.obj
 0001:000d8030       ??_GCSkeet@@UAEPAXI@Z      100d9030 f i Skeet.obj
 0001:000d8060       ??1CSkeet@@UAE@XZ          100d9060 f i Skeet.obj
 0001:000d82f0       ?CSkeetLauncher_New@@YAPAVCEntity@@XZ 100d92f0 f   SkeetLauncher.obj
 0001:000d8390       ?CSkeetLauncher_OnInitClass@@YAXXZ 100d9390 f   SkeetLauncher.obj
 0001:000d83a0       ?CSkeetLauncher_OnEndClass@@YAXXZ 100d93a0 f   SkeetLauncher.obj
 0001:000d83b0       ?CSkeetLauncher_OnPrecache@@YAXPAVCDLLEntityClass@@J@Z 100d93b0 f   SkeetLauncher.obj
 0001:000d83c0       ?CSkeetLauncher_OnWorldEnd@@YAXPAVCWorld@@@Z 100d93c0 f   SkeetLauncher.obj
 0001:000d83d0       ?CSkeetLauncher_OnWorldInit@@YAXPAVCWorld@@@Z 100d93d0 f   SkeetLauncher.obj
 0001:000d83e0       ?CSkeetLauncher_OnWorldTick@@YAXPAVCWorld@@@Z 100d93e0 f   SkeetLauncher.obj
 0001:000d83f0       ?CSkeetLauncher_OnWorldRender@@YAXPAVCWorld@@@Z 100d93f0 f   SkeetLauncher.obj
 0001:000d84c0       ?SetDefaultProperties@CSkeetLauncher@@UAEXXZ 100d94c0 f   SkeetLauncher.obj
 0001:000d8580       ?LaunchSkeet@CSkeetLauncher@@QAEXXZ 100d9580 f   SkeetLauncher.obj
 0001:000d8730       ?Main@CSkeetLauncher@@QAEHABVCEntityEvent@@@Z 100d9730 f   SkeetLauncher.obj
 0001:000d87c0       ?H0x7a130004_Main_05@CSkeetLauncher@@QAEHABVCEntityEvent@@@Z 100d97c0 f   SkeetLauncher.obj
 0001:000d8830       ?H0x7a130000_Main_01@CSkeetLauncher@@QAEHABVCEntityEvent@@@Z 100d9830 f   SkeetLauncher.obj
 0001:000d88d0       ?H0x7a130001_Main_02@CSkeetLauncher@@QAEHABVCEntityEvent@@@Z 100d98d0 f   SkeetLauncher.obj
 0001:000d8940       ?H0x7a130002_Main_03@CSkeetLauncher@@QAEHABVCEntityEvent@@@Z 100d9940 f   SkeetLauncher.obj
 0001:000d89c0       ?H0x7a130003_Main_04@CSkeetLauncher@@QAEHABVCEntityEvent@@@Z 100d99c0 f   SkeetLauncher.obj
 0001:000d8a20       ?H0x7a130005_Main_06@CSkeetLauncher@@QAEHABVCEntityEvent@@@Z 100d9a20 f   SkeetLauncher.obj
 0001:000d8a30       ?GetName@CSkeetLauncher@@UBEABVCTString@@XZ 100d9a30 f i SkeetLauncher.obj
 0001:000d8a40       ?IsTargetable@CSkeetLauncher@@UBEHXZ 100d9a40 f i SkeetLauncher.obj
 0001:000d8a50       ??_ECSkeetLauncher@@UAEPAXI@Z 100d9a50 f i SkeetLauncher.obj
 0001:000d8a50       ??_GCSkeetLauncher@@UAEPAXI@Z 100d9a50 f i SkeetLauncher.obj
 0001:000d8a80       ??1CSkeetLauncher@@UAE@XZ  100d9a80 f i SkeetLauncher.obj
 0001:000d8ee0       ?CSkeetLauncherController_New@@YAPAVCEntity@@XZ 100d9ee0 f   SkeetLauncherController.obj
 0001:000d8fd0       ?CSkeetLauncherController_OnInitClass@@YAXXZ 100d9fd0 f   SkeetLauncherController.obj
 0001:000d8fe0       ?CSkeetLauncherController_OnEndClass@@YAXXZ 100d9fe0 f   SkeetLauncherController.obj
 0001:000d8ff0       ?CSkeetLauncherController_OnPrecache@@YAXPAVCDLLEntityClass@@J@Z 100d9ff0 f   SkeetLauncherController.obj
 0001:000d9000       ?CSkeetLauncherController_OnWorldEnd@@YAXPAVCWorld@@@Z 100da000 f   SkeetLauncherController.obj
 0001:000d9010       ?CSkeetLauncherController_OnWorldInit@@YAXPAVCWorld@@@Z 100da010 f   SkeetLauncherController.obj
 0001:000d9020       ?CSkeetLauncherController_OnWorldTick@@YAXPAVCWorld@@@Z 100da020 f   SkeetLauncherController.obj
 0001:000d9030       ?CSkeetLauncherController_OnWorldRender@@YAXPAVCWorld@@@Z 100da030 f   SkeetLauncherController.obj
 0001:000d9100       ?MakeCopy@EEnteredLauncher@@UAEPAVCEntityEvent@@XZ 100da100 f   SkeetLauncherController.obj
 0001:000d9140       ??0EEnteredLauncher@@QAE@XZ 100da140 f   SkeetLauncherController.obj
 0001:000d91b0       ?MakeCopy@ELaunchSkeet@@UAEPAVCEntityEvent@@XZ 100da1b0 f   SkeetLauncherController.obj
 0001:000d91f0       ??0ELaunchSkeet@@QAE@XZ    100da1f0 f   SkeetLauncherController.obj
 0001:000d9260       ?MakeCopy@ELaunchTrap@@UAEPAVCEntityEvent@@XZ 100da260 f   SkeetLauncherController.obj
 0001:000d92a0       ??0ELaunchTrap@@QAE@XZ     100da2a0 f   SkeetLauncherController.obj
 0001:000d9310       ?MakeCopy@EStrength@@UAEPAVCEntityEvent@@XZ 100da310 f   SkeetLauncherController.obj
 0001:000d9340       ??0EStrength@@QAE@XZ       100da340 f   SkeetLauncherController.obj
 0001:000d9350       ?SetDefaultProperties@CSkeetLauncherController@@UAEXXZ 100da350 f   SkeetLauncherController.obj
 0001:000d94b0       ?SetupFieldSettings@CSkeetLauncherController@@QAEXXZ 100da4b0 f   SkeetLauncherController.obj
 0001:000d94e0       ?GetFieldSettings@CSkeetLauncherController@@UAEPAVCFieldSettings@@XZ 100da4e0 f   SkeetLauncherController.obj
 0001:000d9500       ?RenderLauncherView@CSkeetLauncherController@@QAEXPAVCDrawPort@@@Z 100da500 f   SkeetLauncherController.obj
 0001:000d97b0       ?Main@CSkeetLauncherController@@QAEHABVCEntityEvent@@@Z 100da7b0 f   SkeetLauncherController.obj
 0001:000d9830       ?H0x7a150004_Main_01@CSkeetLauncherController@@QAEHABVCEntityEvent@@@Z 100da830 f   SkeetLauncherController.obj
 0001:000d98b0       ?H0x7a150005_Main_02@CSkeetLauncherController@@QAEHABVCEntityEvent@@@Z 100da8b0 f   SkeetLauncherController.obj
 0001:000d9970       ?H0x7a150008_Main_05@CSkeetLauncherController@@QAEHABVCEntityEvent@@@Z 100da970 f   SkeetLauncherController.obj
 0001:000d99e0       ?H0x7a150006_Main_03@CSkeetLauncherController@@QAEHABVCEntityEvent@@@Z 100da9e0 f   SkeetLauncherController.obj
 0001:000d9cb0       ?H0x7a150007_Main_04@CSkeetLauncherController@@QAEHABVCEntityEvent@@@Z 100dacb0 f   SkeetLauncherController.obj
 0001:000d9d10       ?H0x7a150009_Main_06@CSkeetLauncherController@@QAEHABVCEntityEvent@@@Z 100dad10 f   SkeetLauncherController.obj
 0001:000d9d70       ?GetName@CSkeetLauncherController@@UBEABVCTString@@XZ 100dad70 f i SkeetLauncherController.obj
 0001:000d9d80       ?IsTargetable@CSkeetLauncherController@@UBEHXZ 100dad80 f i SkeetLauncherController.obj
 0001:000d9d90       ??_GCSkeetLauncherController@@UAEPAXI@Z 100dad90 f i SkeetLauncherController.obj
 0001:000d9d90       ??_ECSkeetLauncherController@@UAEPAXI@Z 100dad90 f i SkeetLauncherController.obj
 0001:000d9dc0       ??1CSkeetLauncherController@@UAE@XZ 100dadc0 f i SkeetLauncherController.obj
 0001:000da700       ?CSmallGame_New@@YAPAVCEntity@@XZ 100db700 f   SmallGame.obj
 0001:000da8d0       ?CSmallGame_OnInitClass@@YAXXZ 100db8d0 f   SmallGame.obj
 0001:000da8e0       ?CSmallGame_OnEndClass@@YAXXZ 100db8e0 f   SmallGame.obj
 0001:000da8f0       ?CSmallGame_OnPrecache@@YAXPAVCDLLEntityClass@@J@Z 100db8f0 f   SmallGame.obj
 0001:000da900       ?CSmallGame_OnWorldEnd@@YAXPAVCWorld@@@Z 100db900 f   SmallGame.obj
 0001:000da910       ?CSmallGame_OnWorldInit@@YAXPAVCWorld@@@Z 100db910 f   SmallGame.obj
 0001:000da920       ?CSmallGame_OnWorldTick@@YAXPAVCWorld@@@Z 100db920 f   SmallGame.obj
 0001:000da930       ?CSmallGame_OnWorldRender@@YAXPAVCWorld@@@Z 100db930 f   SmallGame.obj
 0001:000da990       ?MakeCopy@ESGAmbient@@UAEPAVCEntityEvent@@XZ 100db990 f   SmallGame.obj
 0001:000da9c0       ??0ESGAmbient@@QAE@XZ      100db9c0 f   SmallGame.obj
 0001:000da9d0       ?MakeCopy@ESGFlee@@UAEPAVCEntityEvent@@XZ 100db9d0 f   SmallGame.obj
 0001:000daa00       ??0ESGFlee@@QAE@XZ         100dba00 f   SmallGame.obj
 0001:000daa10       ?MakeCopy@ESGSleep@@UAEPAVCEntityEvent@@XZ 100dba10 f   SmallGame.obj
 0001:000daa40       ??0ESGSleep@@QAE@XZ        100dba40 f   SmallGame.obj
 0001:000daa50       ?SetDefaultProperties@CSmallGame@@UAEXXZ 100dba50 f   SmallGame.obj
 0001:000dad90       ?Copy@CSmallGame@@UAEXAAVCEntity@@K@Z 100dbd90 f   SmallGame.obj
 0001:000dadc0       ?Read_t@CSmallGame@@UAEXPAVCTStream@@@Z 100dbdc0 f   SmallGame.obj
 0001:000dade0       ?GetType@CSmallGame@@UAEJXZ 100dbde0 f   SmallGame.obj
 0001:000dadf0       ?StatisticsInit@CSmallGame@@UAEXXZ 100dbdf0 f   SmallGame.obj
 0001:000db480       ?CreateHelperObjects@CSmallGame@@UAEXXZ 100dc480 f   SmallGame.obj
 0001:000db550       ?CreateSpecialAttach@CSmallGame@@QAEXXZ 100dc550 f   SmallGame.obj
 0001:000db650       ?GetClosestPlayer@CSmallGame@@QAEPAVCEntity@@XZ 100dc650 f   SmallGame.obj
 0001:000db6f0       ?GetDistanceFromPlayerSquared@CSmallGame@@QAEMXZ 100dc6f0 f   SmallGame.obj
 0001:000db790       ?ShouldEndActive@CSmallGame@@QAE_NXZ 100dc790 f   SmallGame.obj
 0001:000db900       ?ShouldFlee@CSmallGame@@QAE_NXZ 100dc900 f   SmallGame.obj
 0001:000db930       ?FindTreeToClimb@CSmallGame@@QAEXXZ 100dc930 f   SmallGame.obj
 0001:000dba30       ?ChooseEntryDestinationToTree@CSmallGame@@QAEXXZ 100dca30 f   SmallGame.obj
 0001:000dba60       ?ChooseDestinationInTree@CSmallGame@@QAEXXZ 100dca60 f   SmallGame.obj
 0001:000dbb00       ?DistanceToDestination@CSmallGame@@QAEMXZ 100dcb00 f   SmallGame.obj
 0001:000dbb50       ?ShouldBecomeActive@CSmallGame@@QAE_NXZ 100dcb50 f   SmallGame.obj
 0001:000dbe00       ?EndActive@CSmallGame@@QAEXXZ 100dce00 f   SmallGame.obj
 0001:000dbe60       ?BeginActive@CSmallGame@@QAEXXZ 100dce60 f   SmallGame.obj
 0001:000dbfd0       ?UpdateMovementToDestination@CSmallGame@@QAEXXZ 100dcfd0 f   SmallGame.obj
 0001:000dc130       ?UpdateMovementToVerticleDestination@CSmallGame@@QAEXXZ 100dd130 f   SmallGame.obj
 0001:000dc160       ?ChooseFleeDestination@CSmallGame@@QAEXXZ 100dd160 f   SmallGame.obj
 0001:000dc260       ?Logic@CSmallGame@@QAEXXZ  100dd260 f   SmallGame.obj
 0001:000dc3b0       ?CanBeClaimed@CSmallGame@@QAE_NVCEntityPointer@@@Z 100dd3b0 f   SmallGame.obj
 0001:000dc500       ?DoMoving@CSmallGame@@UAEXXZ 100dd500 f   SmallGame.obj
 0001:000dc520       ?Ambient@CSmallGame@@QAEHABVCEntityEvent@@@Z 100dd520 f   SmallGame.obj
 0001:000dc580       ?H0x744e001f_Ambient_28@CSmallGame@@QAEHABVCEntityEvent@@@Z 100dd580 f   SmallGame.obj
 0001:000dc6d0       ?H0x744e0004_Ambient_01@CSmallGame@@QAEHABVCEntityEvent@@@Z 100dd6d0 f   SmallGame.obj
 0001:000dc750       ?H0x744e0005_Ambient_02@CSmallGame@@QAEHABVCEntityEvent@@@Z 100dd750 f   SmallGame.obj
 0001:000dc7f0       ?H0x744e0006_Ambient_03@CSmallGame@@QAEHABVCEntityEvent@@@Z 100dd7f0 f   SmallGame.obj
 0001:000dc870       ?H0x744e0007_Ambient_04@CSmallGame@@QAEHABVCEntityEvent@@@Z 100dd870 f   SmallGame.obj
 0001:000dc910       ?H0x744e0008_Ambient_05@CSmallGame@@QAEHABVCEntityEvent@@@Z 100dd910 f   SmallGame.obj
 0001:000dca30       ?H0x744e0009_Ambient_06@CSmallGame@@QAEHABVCEntityEvent@@@Z 100dda30 f   SmallGame.obj
 0001:000dcab0       ?H0x744e000a_Ambient_07@CSmallGame@@QAEHABVCEntityEvent@@@Z 100ddab0 f   SmallGame.obj
 0001:000dcb10       ?H0x744e000b_Ambient_08@CSmallGame@@QAEHABVCEntityEvent@@@Z 100ddb10 f   SmallGame.obj
 0001:000dcc10       ?H0x744e000e_Ambient_11@CSmallGame@@QAEHABVCEntityEvent@@@Z 100ddc10 f   SmallGame.obj
 0001:000dccb0       ?H0x744e000c_Ambient_09@CSmallGame@@QAEHABVCEntityEvent@@@Z 100ddcb0 f   SmallGame.obj
 0001:000dcd30       ?H0x744e000d_Ambient_10@CSmallGame@@QAEHABVCEntityEvent@@@Z 100ddd30 f   SmallGame.obj
 0001:000dcd90       ?H0x744e000f_Ambient_12@CSmallGame@@QAEHABVCEntityEvent@@@Z 100ddd90 f   SmallGame.obj
 0001:000dce20       ?H0x744e0012_Ambient_15@CSmallGame@@QAEHABVCEntityEvent@@@Z 100dde20 f   SmallGame.obj
 0001:000dcec0       ?H0x744e0010_Ambient_13@CSmallGame@@QAEHABVCEntityEvent@@@Z 100ddec0 f   SmallGame.obj
 0001:000dcf40       ?H0x744e0011_Ambient_14@CSmallGame@@QAEHABVCEntityEvent@@@Z 100ddf40 f   SmallGame.obj
 0001:000dcfa0       ?H0x744e0013_Ambient_16@CSmallGame@@QAEHABVCEntityEvent@@@Z 100ddfa0 f   SmallGame.obj
 0001:000dd070       ?H0x744e0014_Ambient_17@CSmallGame@@QAEHABVCEntityEvent@@@Z 100de070 f   SmallGame.obj
 0001:000dd0f0       ?H0x744e0015_Ambient_18@CSmallGame@@QAEHABVCEntityEvent@@@Z 100de0f0 f   SmallGame.obj
 0001:000dd180       ?H0x744e0018_Ambient_21@CSmallGame@@QAEHABVCEntityEvent@@@Z 100de180 f   SmallGame.obj
 0001:000dd220       ?H0x744e0016_Ambient_19@CSmallGame@@QAEHABVCEntityEvent@@@Z 100de220 f   SmallGame.obj
 0001:000dd2a0       ?H0x744e0017_Ambient_20@CSmallGame@@QAEHABVCEntityEvent@@@Z 100de2a0 f   SmallGame.obj
 0001:000dd300       ?H0x744e0019_Ambient_22@CSmallGame@@QAEHABVCEntityEvent@@@Z 100de300 f   SmallGame.obj
 0001:000dd360       ?H0x744e001a_Ambient_23@CSmallGame@@QAEHABVCEntityEvent@@@Z 100de360 f   SmallGame.obj
 0001:000dd3c0       ?H0x744e001b_Ambient_24@CSmallGame@@QAEHABVCEntityEvent@@@Z 100de3c0 f   SmallGame.obj
 0001:000dd4d0       ?H0x744e001c_Ambient_25@CSmallGame@@QAEHABVCEntityEvent@@@Z 100de4d0 f   SmallGame.obj
 0001:000dd550       ?H0x744e001d_Ambient_26@CSmallGame@@QAEHABVCEntityEvent@@@Z 100de550 f   SmallGame.obj
 0001:000dd5b0       ?H0x744e001e_Ambient_27@CSmallGame@@QAEHABVCEntityEvent@@@Z 100de5b0 f   SmallGame.obj
 0001:000dd610       ?H0x744e0020_Ambient_29@CSmallGame@@QAEHABVCEntityEvent@@@Z 100de610 f   SmallGame.obj
 0001:000dd670       ?Flee@CSmallGame@@QAEHABVCEntityEvent@@@Z 100de670 f   SmallGame.obj
 0001:000dd710       ?H0x744e0028_Flee_07@CSmallGame@@QAEHABVCEntityEvent@@@Z 100de710 f   SmallGame.obj
 0001:000dd780       ?H0x744e0022_Flee_01@CSmallGame@@QAEHABVCEntityEvent@@@Z 100de780 f   SmallGame.obj
 0001:000dd800       ?H0x744e0023_Flee_02@CSmallGame@@QAEHABVCEntityEvent@@@Z 100de800 f   SmallGame.obj
 0001:000dd860       ?H0x744e0026_Flee_05@CSmallGame@@QAEHABVCEntityEvent@@@Z 100de860 f   SmallGame.obj
 0001:000dd900       ?H0x744e0024_Flee_03@CSmallGame@@QAEHABVCEntityEvent@@@Z 100de900 f   SmallGame.obj
 0001:000dd980       ?H0x744e0025_Flee_04@CSmallGame@@QAEHABVCEntityEvent@@@Z 100de980 f   SmallGame.obj
 0001:000dd9e0       ?H0x744e0027_Flee_06@CSmallGame@@QAEHABVCEntityEvent@@@Z 100de9e0 f   SmallGame.obj
 0001:000dda40       ?H0x744e0029_Flee_08@CSmallGame@@QAEHABVCEntityEvent@@@Z 100dea40 f   SmallGame.obj
 0001:000ddaa0       ?Sleep@CSmallGame@@QAEHABVCEntityEvent@@@Z 100deaa0 f   SmallGame.obj
 0001:000ddb60       ?H0x744e002b_Sleep_01@CSmallGame@@QAEHABVCEntityEvent@@@Z 100deb60 f   SmallGame.obj
 0001:000ddb90       ?H0x744e002c_Sleep_02@CSmallGame@@QAEHABVCEntityEvent@@@Z 100deb90 f   SmallGame.obj
 0001:000ddbf0       ?Die@CSmallGame@@QAEHABVCEntityEvent@@@Z 100debf0 f   SmallGame.obj
 0001:000ddcd0       ?H0x744e002e_Die_01@CSmallGame@@QAEHABVCEntityEvent@@@Z 100decd0 f   SmallGame.obj
 0001:000dddf0       ?H0x744e002f_Die_02@CSmallGame@@QAEHABVCEntityEvent@@@Z 100dedf0 f   SmallGame.obj
 0001:000dde50       ?MainLoop@CSmallGame@@QAEHABVCEntityEvent@@@Z 100dee50 f   SmallGame.obj
 0001:000ddeb0       ?H0x744e0033_MainLoop_03@CSmallGame@@QAEHABVCEntityEvent@@@Z 100deeb0 f   SmallGame.obj
 0001:000ddf20       ?H0x744e0031_MainLoop_01@CSmallGame@@QAEHABVCEntityEvent@@@Z 100def20 f   SmallGame.obj
 0001:000de160       ?H0x744e0032_MainLoop_02@CSmallGame@@QAEHABVCEntityEvent@@@Z 100df160 f   SmallGame.obj
 0001:000de1c0       ?H0x744e0034_MainLoop_04@CSmallGame@@QAEHABVCEntityEvent@@@Z 100df1c0 f   SmallGame.obj
 0001:000de220       ?Main@CSmallGame@@QAEHABVCEntityEvent@@@Z 100df220 f   SmallGame.obj
 0001:000de350       ?H0x744e0035_Main_01@CSmallGame@@QAEHABVCEntityEvent@@@Z 100df350 f   SmallGame.obj
 0001:000de3d0       ?H0x744e0036_Main_02@CSmallGame@@QAEHABVCEntityEvent@@@Z 100df3d0 f   SmallGame.obj
 0001:000de430       ?H0x744e0037_Main_03@CSmallGame@@QAEHABVCEntityEvent@@@Z 100df430 f   SmallGame.obj
 0001:000de4d0       ?H0x744e0038_Main_04@CSmallGame@@QAEHABVCEntityEvent@@@Z 100df4d0 f   SmallGame.obj
 0001:000de530       ??_GCSmallGame@@UAEPAXI@Z  100df530 f i SmallGame.obj
 0001:000de530       ??_ECSmallGame@@UAEPAXI@Z  100df530 f i SmallGame.obj
 0001:000de560       ??1CSmallGame@@UAE@XZ      100df560 f i SmallGame.obj
 0001:000df000       ?CSoundHolder_New@@YAPAVCEntity@@XZ 100e0000 f   SoundHolder.obj
 0001:000df1b0       ?CSoundHolder_OnInitClass@@YAXXZ 100e01b0 f   SoundHolder.obj
 0001:000df1c0       ?CSoundHolder_OnEndClass@@YAXXZ 100e01c0 f   SoundHolder.obj
 0001:000df1d0       ?CSoundHolder_OnPrecache@@YAXPAVCDLLEntityClass@@J@Z 100e01d0 f   SoundHolder.obj
 0001:000df1e0       ?CSoundHolder_OnWorldEnd@@YAXPAVCWorld@@@Z 100e01e0 f   SoundHolder.obj
 0001:000df1f0       ?CSoundHolder_OnWorldInit@@YAXPAVCWorld@@@Z 100e01f0 f   SoundHolder.obj
 0001:000df200       ?CSoundHolder_OnWorldTick@@YAXPAVCWorld@@@Z 100e0200 f   SoundHolder.obj
 0001:000df210       ?CSoundHolder_OnWorldRender@@YAXPAVCWorld@@@Z 100e0210 f   SoundHolder.obj
 0001:000df2e0       ?SetDefaultProperties@CSoundHolder@@UAEXXZ 100e02e0 f   SoundHolder.obj
 0001:000df680       ?Read_t@CSoundHolder@@UAEXPAVCTStream@@@Z 100e0680 f   SoundHolder.obj
 0001:000df710       ?Write_t@CSoundHolder@@UAEXPAVCTStream@@@Z 100e0710 f   SoundHolder.obj
 0001:000df770       ?ChecksumForSync@CSoundHolder@@UAEXAAKJ@Z 100e0770 f   SoundHolder.obj
 0001:000df7c0       ?Precache@CSoundHolder@@UAEXXZ 100e07c0 f   SoundHolder.obj
 0001:000df820       ?MirrorAndStretch@CSoundHolder@@UAEXMH@Z 100e0820 f   SoundHolder.obj
 0001:000df850       ?FindStormGlobe@CSoundHolder@@QAEHXZ 100e0850 f   SoundHolder.obj
 0001:000df910       ?Main@CSoundHolder@@QAEHABVCEntityEvent@@@Z 100e0910 f   SoundHolder.obj
 0001:000dfc50       ?H0x00cc0000_Main_01@CSoundHolder@@QAEHABVCEntityEvent@@@Z 100e0c50 f   SoundHolder.obj
 0001:000dfcd0       ?H0x00cc0001_Main_02@CSoundHolder@@QAEHABVCEntityEvent@@@Z 100e0cd0 f   SoundHolder.obj
 0001:000dff20       ?H0x00cc0004_Main_05@CSoundHolder@@QAEHABVCEntityEvent@@@Z 100e0f20 f   SoundHolder.obj
 0001:000dffb0       ?H0x00cc0002_Main_03@CSoundHolder@@QAEHABVCEntityEvent@@@Z 100e0fb0 f   SoundHolder.obj
 0001:000e0900       ?H0x00cc0003_Main_04@CSoundHolder@@QAEHABVCEntityEvent@@@Z 100e1900 f   SoundHolder.obj
 0001:000e0960       ?H0x00cc0005_Main_06@CSoundHolder@@QAEHABVCEntityEvent@@@Z 100e1960 f   SoundHolder.obj
 0001:000e09c0       ?GetName@CSoundHolder@@UBEABVCTString@@XZ 100e19c0 f i SoundHolder.obj
 0001:000e09d0       ?GetDescription@CSoundHolder@@UBEABVCTString@@XZ 100e19d0 f i SoundHolder.obj
 0001:000e09e0       ?IsTargetable@CSoundHolder@@UBEHXZ 100e19e0 f i SoundHolder.obj
 0001:000e09f0       ??_GCSoundHolder@@UAEPAXI@Z 100e19f0 f i SoundHolder.obj
 0001:000e09f0       ??_ECSoundHolder@@UAEPAXI@Z 100e19f0 f i SoundHolder.obj
 0001:000e0a20       ??1CSoundHolder@@UAE@XZ    100e1a20 f i SoundHolder.obj
 0001:000e0eb0       ?CStand_New@@YAPAVCEntity@@XZ 100e1eb0 f   Stand.obj
 0001:000e0f60       ?CStand_OnInitClass@@YAXXZ 100e1f60 f   Stand.obj
 0001:000e0f70       ?CStand_OnEndClass@@YAXXZ  100e1f70 f   Stand.obj
 0001:000e0f80       ?CStand_OnPrecache@@YAXPAVCDLLEntityClass@@J@Z 100e1f80 f   Stand.obj
 0001:000e0f90       ?CStand_OnWorldEnd@@YAXPAVCWorld@@@Z 100e1f90 f   Stand.obj
 0001:000e0fa0       ?CStand_OnWorldInit@@YAXPAVCWorld@@@Z 100e1fa0 f   Stand.obj
 0001:000e0fb0       ?CStand_OnWorldTick@@YAXPAVCWorld@@@Z 100e1fb0 f   Stand.obj
 0001:000e0fc0       ?CStand_OnWorldRender@@YAXPAVCWorld@@@Z 100e1fc0 f   Stand.obj
 0001:000e1090       ?MakeCopy@EInitStand@@UAEPAVCEntityEvent@@XZ 100e2090 f   Stand.obj
 0001:000e10d0       ??0EInitStand@@QAE@XZ      100e20d0 f   Stand.obj
 0001:000e1140       ?SetDefaultProperties@CStand@@UAEXXZ 100e2140 f   Stand.obj
 0001:000e1280       ?GetType@CStand@@UAEJXZ    100e2280 f   Stand.obj
 0001:000e1290       ?GetInStand@CStand@@QAEXVCEntityPointer@@@Z 100e2290 f   Stand.obj
 0001:000e1680       ?LeaveStand@CStand@@QAEXXZ 100e2680 f   Stand.obj
 0001:000e1850       ?HandleClick@CStand@@QAEXVCEntityPointer@@@Z 100e2850 f   Stand.obj
 0001:000e18f0       ?Main@CStand@@QAEHABVCEntityEvent@@@Z 100e28f0 f   Stand.obj
 0001:000e1a60       ?H0x77280001_Main_01@CStand@@QAEHABVCEntityEvent@@@Z 100e2a60 f   Stand.obj
 0001:000e1b10       ?H0x77280002_Main_02@CStand@@QAEHABVCEntityEvent@@@Z 100e2b10 f   Stand.obj
 0001:000e1b70       ?GetName@CStand@@UBEABVCTString@@XZ 100e2b70 f i Stand.obj
 0001:000e1b80       ?IsTargetable@CStand@@UBEHXZ 100e2b80 f i Stand.obj
 0001:000e1b90       ??_GCStand@@UAEPAXI@Z      100e2b90 f i Stand.obj
 0001:000e1b90       ??_ECStand@@UAEPAXI@Z      100e2b90 f i Stand.obj
 0001:000e1bc0       ??1CStand@@UAE@XZ          100e2bc0 f i Stand.obj
 0001:000e2250       ?CStormController_New@@YAPAVCEntity@@XZ 100e3250 f   StormController.obj
 0001:000e2360       ?CStormController_OnInitClass@@YAXXZ 100e3360 f   StormController.obj
 0001:000e2370       ?CStormController_OnEndClass@@YAXXZ 100e3370 f   StormController.obj
 0001:000e2380       ?CStormController_OnPrecache@@YAXPAVCDLLEntityClass@@J@Z 100e3380 f   StormController.obj
 0001:000e2390       ?CStormController_OnWorldEnd@@YAXPAVCWorld@@@Z 100e3390 f   StormController.obj
 0001:000e23a0       ?CStormController_OnWorldInit@@YAXPAVCWorld@@@Z 100e33a0 f   StormController.obj
 0001:000e23b0       ?CStormController_OnWorldTick@@YAXPAVCWorld@@@Z 100e33b0 f   StormController.obj
 0001:000e23c0       ?CStormController_OnWorldRender@@YAXPAVCWorld@@@Z 100e33c0 f   StormController.obj
 0001:000e2490       ?SetDefaultProperties@CStormController@@UAEXXZ 100e3490 f   StormController.obj
 0001:000e2650       ?StormStart@CStormController@@QAEXXZ 100e3650 f   StormController.obj
 0001:000e27c0       ?StormStop@CStormController@@QAEXXZ 100e37c0 f   StormController.obj
 0001:000e2930       ?CheckOneLightningTarget@CStormController@@QAEXAAVCEntityPointer@@@Z 100e3930 f   StormController.obj
 0001:000e2990       ?GetLightningsCount@CStormController@@QBEJXZ 100e3990 f   StormController.obj
 0001:000e2ac0       ?Storm@CStormController@@QAEHABVCEntityEvent@@@Z 100e3ac0 f   StormController.obj
 0001:000e2b30       ?H0x025e0001_Storm_01@CStormController@@QAEHABVCEntityEvent@@@Z 100e3b30 f   StormController.obj
 0001:000e2bb0       ?H0x025e0002_Storm_02@CStormController@@QAEHABVCEntityEvent@@@Z 100e3bb0 f   StormController.obj
 0001:000e2c10       ?StormInternal@CStormController@@QAEHABVCEntityEvent@@@Z 100e3c10 f   StormController.obj
 0001:000e2c80       ?H0x025e0008_StormInternal_05@CStormController@@QAEHABVCEntityEvent@@@Z 100e3c80 f   StormController.obj
 0001:000e2da0       ?H0x025e0006_StormInternal_03@CStormController@@QAEHABVCEntityEvent@@@Z 100e3da0 f   StormController.obj
 0001:000e2e70       ?H0x025e0004_StormInternal_01@CStormController@@QAEHABVCEntityEvent@@@Z 100e3e70 f   StormController.obj
 0001:000e2f10       ?H0x025e0005_StormInternal_02@CStormController@@QAEHABVCEntityEvent@@@Z 100e3f10 f   StormController.obj
 0001:000e2f70       ?H0x025e0007_StormInternal_04@CStormController@@QAEHABVCEntityEvent@@@Z 100e3f70 f   StormController.obj
 0001:000e3020       ?H0x025e0009_StormInternal_06@CStormController@@QAEHABVCEntityEvent@@@Z 100e4020 f   StormController.obj
 0001:000e3080       ?Main@CStormController@@QAEHABVCEntityEvent@@@Z 100e4080 f   StormController.obj
 0001:000e3230       ?H0x025e000a_Main_01@CStormController@@QAEHABVCEntityEvent@@@Z 100e4230 f   StormController.obj
 0001:000e32b0       ?H0x025e000b_Main_02@CStormController@@QAEHABVCEntityEvent@@@Z 100e42b0 f   StormController.obj
 0001:000e33e0       ?H0x025e000e_Main_05@CStormController@@QAEHABVCEntityEvent@@@Z 100e43e0 f   StormController.obj
 0001:000e3450       ?H0x025e000c_Main_03@CStormController@@QAEHABVCEntityEvent@@@Z 100e4450 f   StormController.obj
 0001:000e35a0       ?H0x025e000d_Main_04@CStormController@@QAEHABVCEntityEvent@@@Z 100e45a0 f   StormController.obj
 0001:000e3600       ?H0x025e000f_Main_06@CStormController@@QAEHABVCEntityEvent@@@Z 100e4600 f   StormController.obj
 0001:000e3610       ?IsTargetable@CStormController@@UBEHXZ 100e4610 f i StormController.obj
 0001:000e3620       ?GetName@CStormController@@UBEABVCTString@@XZ 100e4620 f i StormController.obj
 0001:000e3630       ?IsImportant@CStormController@@UBEHXZ 100e4630 f i StormController.obj
 0001:000e3640       ??_ECStormController@@UAEPAXI@Z 100e4640 f i StormController.obj
 0001:000e3640       ??_GCStormController@@UAEPAXI@Z 100e4640 f i StormController.obj
 0001:000e3670       ??1CStormController@@UAE@XZ 100e4670 f i StormController.obj
 0001:000e38e0       ??4CEntityPointer@@QAEABV0@PAVCEntity@@@Z 100e48e0 f i StormController.obj
 0001:000e3920       ??1?$CDynamicArrayIterator@VCBrush3D@@@@QAE@XZ 100e4920 f i StormController.obj
 0001:000e3930       ??1?$CDynamicArrayIterator@VCBrushSector@@@@QAE@XZ 100e4930 f i StormController.obj
 0001:000e3940       ??1?$CStaticArrayIterator@VCBrushPolygon@@@@QAE@XZ 100e4940 f i StormController.obj
 0001:000e4160       ?CStormGlobe_New@@YAPAVCEntity@@XZ 100e5160 f   StormGlobe.obj
 0001:000e4240       ?CStormGlobe_OnInitClass@@YAXXZ 100e5240 f   StormGlobe.obj
 0001:000e4250       ?CStormGlobe_OnEndClass@@YAXXZ 100e5250 f   StormGlobe.obj
 0001:000e4260       ?CStormGlobe_OnPrecache@@YAXPAVCDLLEntityClass@@J@Z 100e5260 f   StormGlobe.obj
 0001:000e4270       ?CStormGlobe_OnWorldEnd@@YAXPAVCWorld@@@Z 100e5270 f   StormGlobe.obj
 0001:000e4280       ?CStormGlobe_OnWorldInit@@YAXPAVCWorld@@@Z 100e5280 f   StormGlobe.obj
 0001:000e4290       ?CStormGlobe_OnWorldTick@@YAXPAVCWorld@@@Z 100e5290 f   StormGlobe.obj
 0001:000e42a0       ?CStormGlobe_OnWorldRender@@YAXPAVCWorld@@@Z 100e52a0 f   StormGlobe.obj
 0001:000e4370       ?SetDefaultProperties@CStormGlobe@@UAEXXZ 100e5370 f   StormGlobe.obj
 0001:000e45f0       ?Precache@CStormGlobe@@UAEXXZ 100e55f0 f   StormGlobe.obj
 0001:000e4670       ?ColorByTime@CStormGlobe@@QAEXMMAAK0@Z 100e5670 f   StormGlobe.obj
 0001:000e4910       ?OnUpdate@CStormGlobe@@QAEXH@Z 100e5910 f   StormGlobe.obj
 0001:000e4eb0       ?GetDepthSortOffset@CStormGlobe@@UAEMXZ 100e5eb0 f   StormGlobe.obj
 0001:000e4ec0       ?PickInitialWind@CStormGlobe@@QAEXXZ 100e5ec0 f   StormGlobe.obj
 0001:000e4fa0       ?CheckWindUpdate@CStormGlobe@@QAEXXZ 100e5fa0 f   StormGlobe.obj
 0001:000e50d0       ?CheckStormUpdate@CStormGlobe@@QAEXXZ 100e60d0 f   StormGlobe.obj
 0001:000e5270       ?DetermineTimeOfYear@CStormGlobe@@QAEXJJ@Z 100e6270 f   StormGlobe.obj
 0001:000e5380       ?GetTimeOfYear@CStormGlobe@@QAEJXZ 100e6380 f   StormGlobe.obj
 0001:000e5390       ?GetCurrentWeather@CStormGlobe@@QAEJXZ 100e6390 f   StormGlobe.obj
 0001:000e53a0       ?GetForecastWeather@CStormGlobe@@QAEJXZ 100e63a0 f   StormGlobe.obj
 0001:000e53b0       ?StopAllSounds@CStormGlobe@@QAEXXZ 100e63b0 f   StormGlobe.obj
 0001:000e53c0       ?StormGlobe@CStormGlobe@@QAEHABVCEntityEvent@@@Z 100e63c0 f   StormGlobe.obj
 0001:000e53d0       ?Main@CStormGlobe@@QAEHABVCEntityEvent@@@Z 100e63d0 f   StormGlobe.obj
 0001:000e54a0       ?H0x75f90001_Main_01@CStormGlobe@@QAEHABVCEntityEvent@@@Z 100e64a0 f   StormGlobe.obj
 0001:000e5520       ?H0x75f90002_Main_02@CStormGlobe@@QAEHABVCEntityEvent@@@Z 100e6520 f   StormGlobe.obj
 0001:000e5f70       ?H0x75f90005_Main_05@CStormGlobe@@QAEHABVCEntityEvent@@@Z 100e6f70 f   StormGlobe.obj
 0001:000e5fe0       ?H0x75f90003_Main_03@CStormGlobe@@QAEHABVCEntityEvent@@@Z 100e6fe0 f   StormGlobe.obj
 0001:000e6160       ?H0x75f90004_Main_04@CStormGlobe@@QAEHABVCEntityEvent@@@Z 100e7160 f   StormGlobe.obj
 0001:000e61c0       ?H0x75f90006_Main_06@CStormGlobe@@QAEHABVCEntityEvent@@@Z 100e71c0 f   StormGlobe.obj
 0001:000e61d0       ?GetName@CStormGlobe@@UBEABVCTString@@XZ 100e71d0 f i StormGlobe.obj
 0001:000e61e0       ?GetDescription@CStormGlobe@@UBEABVCTString@@XZ 100e71e0 f i StormGlobe.obj
 0001:000e61f0       ??_GCStormGlobe@@UAEPAXI@Z 100e71f0 f i StormGlobe.obj
 0001:000e61f0       ??_ECStormGlobe@@UAEPAXI@Z 100e71f0 f i StormGlobe.obj
 0001:000e6220       ??1CStormGlobe@@UAE@XZ     100e7220 f i StormGlobe.obj
 0001:000e6770       ?CSurroundParticleSystem_New@@YAPAVCEntity@@XZ 100e7770 f   SurroundParticleSystem.obj
 0001:000e67d0       ?CSurroundParticleSystem_OnInitClass@@YAXXZ 100e77d0 f   SurroundParticleSystem.obj
 0001:000e67e0       ?CSurroundParticleSystem_OnEndClass@@YAXXZ 100e77e0 f   SurroundParticleSystem.obj
 0001:000e67f0       ?CSurroundParticleSystem_OnPrecache@@YAXPAVCDLLEntityClass@@J@Z 100e77f0 f   SurroundParticleSystem.obj
 0001:000e6800       ?CSurroundParticleSystem_OnWorldEnd@@YAXPAVCWorld@@@Z 100e7800 f   SurroundParticleSystem.obj
 0001:000e6810       ?CSurroundParticleSystem_OnWorldInit@@YAXPAVCWorld@@@Z 100e7810 f   SurroundParticleSystem.obj
 0001:000e6820       ?CSurroundParticleSystem_OnWorldTick@@YAXPAVCWorld@@@Z 100e7820 f   SurroundParticleSystem.obj
 0001:000e6830       ?CSurroundParticleSystem_OnWorldRender@@YAXPAVCWorld@@@Z 100e7830 f   SurroundParticleSystem.obj
 0001:000e6900       ?MakeCopy@ESurroundParticleSystemInit@@UAEPAVCEntityEvent@@XZ 100e7900 f   SurroundParticleSystem.obj
 0001:000e6940       ??0ESurroundParticleSystemInit@@QAE@XZ 100e7940 f   SurroundParticleSystem.obj
 0001:000e69b0       ?SetDefaultProperties@CSurroundParticleSystem@@UAEXXZ 100e79b0 f   SurroundParticleSystem.obj
 0001:000e6b90       ??0CSurroundParticleSystem@@QAE@XZ 100e7b90 f   SurroundParticleSystem.obj
 0001:000e6c50       ??1CSurroundParticleSystem@@UAE@XZ 100e7c50 f   SurroundParticleSystem.obj
 0001:000e6d50       ?ChecksumForSync@CSurroundParticleSystem@@UAEXAAKJ@Z 100e7d50 f   SurroundParticleSystem.obj
 0001:000e6d60       ?CreateParticles@CSurroundParticleSystem@@QAEXJJ@Z 100e7d60 f   SurroundParticleSystem.obj
 0001:000e7570       ?Copy@CSurroundParticleSystem@@UAEXAAVCEntity@@K@Z 100e8570 f   SurroundParticleSystem.obj
 0001:000e7590       ?Read_t@CSurroundParticleSystem@@UAEXPAVCTStream@@@Z 100e8590 f   SurroundParticleSystem.obj
 0001:000e75b0       ?Write_t@CSurroundParticleSystem@@UAEXPAVCTStream@@@Z 100e85b0 f   SurroundParticleSystem.obj
 0001:000e75d0       ?AdjustShadingParameters@CSurroundParticleSystem@@UAEHAAV?$Vector@M$02@@AAK1@Z 100e85d0 f   SurroundParticleSystem.obj
 0001:000e75e0       ?UpdateSpring@CSurroundParticleSystem@@QAEXJ@Z 100e85e0 f   SurroundParticleSystem.obj
 0001:000e8090       ?AlterSpringParticleDensities@CSurroundParticleSystem@@QAEXXZ 100e9090 f   SurroundParticleSystem.obj
 0001:000e8130       ?Update@CSurroundParticleSystem@@QAEXJJ@Z 100e9130 f   SurroundParticleSystem.obj
 0001:000e81b0       ?Setup@CSurroundParticleSystem@@QAEXXZ 100e91b0 f   SurroundParticleSystem.obj
 0001:000e81f0       ?Destroy@CSurroundParticleSystem@@UAEXXZ 100e91f0 f   SurroundParticleSystem.obj
 0001:000e8200       ?Main@CSurroundParticleSystem@@QAEHABVCEntityEvent@@@Z 100e9200 f   SurroundParticleSystem.obj
 0001:000e82a0       ?H0x791e0001_Main_01@CSurroundParticleSystem@@QAEHABVCEntityEvent@@@Z 100e92a0 f   SurroundParticleSystem.obj
 0001:000e8320       ?H0x791e0002_Main_02@CSurroundParticleSystem@@QAEHABVCEntityEvent@@@Z 100e9320 f   SurroundParticleSystem.obj
 0001:000e8600       ?H0x791e0005_Main_05@CSurroundParticleSystem@@QAEHABVCEntityEvent@@@Z 100e9600 f   SurroundParticleSystem.obj
 0001:000e8670       ?H0x791e0003_Main_03@CSurroundParticleSystem@@QAEHABVCEntityEvent@@@Z 100e9670 f   SurroundParticleSystem.obj
 0001:000e8760       ?H0x791e0004_Main_04@CSurroundParticleSystem@@QAEHABVCEntityEvent@@@Z 100e9760 f   SurroundParticleSystem.obj
 0001:000e87c0       ?H0x791e0006_Main_06@CSurroundParticleSystem@@QAEHABVCEntityEvent@@@Z 100e97c0 f   SurroundParticleSystem.obj
 0001:000e8820       ??_GCSurroundParticleSystem@@UAEPAXI@Z 100e9820 f i SurroundParticleSystem.obj
 0001:000e8820       ??_ECSurroundParticleSystem@@UAEPAXI@Z 100e9820 f i SurroundParticleSystem.obj
 0001:000e8ba0       ?CSwitch_New@@YAPAVCEntity@@XZ 100e9ba0 f   Switch.obj
 0001:000e8d10       ?CSwitch_OnInitClass@@YAXXZ 100e9d10 f   Switch.obj
 0001:000e8d20       ?CSwitch_OnEndClass@@YAXXZ 100e9d20 f   Switch.obj
 0001:000e8d30       ?CSwitch_OnPrecache@@YAXPAVCDLLEntityClass@@J@Z 100e9d30 f   Switch.obj
 0001:000e8d40       ?CSwitch_OnWorldEnd@@YAXPAVCWorld@@@Z 100e9d40 f   Switch.obj
 0001:000e8d50       ?CSwitch_OnWorldInit@@YAXPAVCWorld@@@Z 100e9d50 f   Switch.obj
 0001:000e8d60       ?CSwitch_OnWorldTick@@YAXPAVCWorld@@@Z 100e9d60 f   Switch.obj
 0001:000e8d70       ?CSwitch_OnWorldRender@@YAXPAVCWorld@@@Z 100e9d70 f   Switch.obj
 0001:000e8dd0       ?SetDefaultProperties@CSwitch@@UAEXXZ 100e9dd0 f   Switch.obj
 0001:000e8e90       ?GetType@CSwitch@@UAEJXZ   100e9e90 f   Switch.obj
 0001:000e8ea0       ?GetAnimData@CSwitch@@UAEPAVCAnimData@@J@Z 100e9ea0 f   Switch.obj
 0001:000e8ef0       ?CanReactOnEntity@CSwitch@@QAEHPAVCEntity@@@Z 100e9ef0 f   Switch.obj
 0001:000e8f10       ?SwitchON@CSwitch@@QAEHABVCEntityEvent@@@Z 100e9f10 f   Switch.obj
 0001:000e9010       ?H0x00d10001_SwitchON_01@CSwitch@@QAEHABVCEntityEvent@@@Z 100ea010 f   Switch.obj
 0001:000e9080       ?H0x00d10002_SwitchON_02@CSwitch@@QAEHABVCEntityEvent@@@Z 100ea080 f   Switch.obj
 0001:000e90e0       ?SwitchOFF@CSwitch@@QAEHABVCEntityEvent@@@Z 100ea0e0 f   Switch.obj
 0001:000e91f0       ?H0x00d10004_SwitchOFF_01@CSwitch@@QAEHABVCEntityEvent@@@Z 100ea1f0 f   Switch.obj
 0001:000e9260       ?H0x00d10005_SwitchOFF_02@CSwitch@@QAEHABVCEntityEvent@@@Z 100ea260 f   Switch.obj
 0001:000e92c0       ?MainLoop_Once@CSwitch@@QAEHABVCEntityEvent@@@Z 100ea2c0 f   Switch.obj
 0001:000e9330       ?H0x00d10007_MainLoop_Once_01@CSwitch@@QAEHABVCEntityEvent@@@Z 100ea330 f   Switch.obj
 0001:000e9490       ?H0x00d10008_MainLoop_Once_02@CSwitch@@QAEHABVCEntityEvent@@@Z 100ea490 f   Switch.obj
 0001:000e94a0       ?MainLoop_OnOff@CSwitch@@QAEHABVCEntityEvent@@@Z 100ea4a0 f   Switch.obj
 0001:000e9510       ?H0x00d1000a_MainLoop_OnOff_01@CSwitch@@QAEHABVCEntityEvent@@@Z 100ea510 f   Switch.obj
 0001:000e9680       ?H0x00d1000b_MainLoop_OnOff_02@CSwitch@@QAEHABVCEntityEvent@@@Z 100ea680 f   Switch.obj
 0001:000e9690       ?Main@CSwitch@@QAEHABVCEntityEvent@@@Z 100ea690 f   Switch.obj
 0001:000e9730       ?GetName@CSwitch@@UBEABVCTString@@XZ 100ea730 f i Switch.obj
 0001:000e9740       ?GetTarget@CSwitch@@UBEPAVCEntity@@XZ 100ea740 f i Switch.obj
 0001:000e9750       ?IsTargetable@CSwitch@@UBEHXZ 100ea750 f i Switch.obj
 0001:000e9760       ??_ECSwitch@@UAEPAXI@Z     100ea760 f i Switch.obj
 0001:000e9760       ??_GCSwitch@@UAEPAXI@Z     100ea760 f i Switch.obj
 0001:000e9790       ??1CSwitch@@UAE@XZ         100ea790 f i Switch.obj
 0001:000e9950       ?ClearToDefault@@YAXAAW4eTagType@@@Z 100ea950 f i Tag.obj
 0001:000e9ad0       ?CTag_New@@YAPAVCEntity@@XZ 100eaad0 f   Tag.obj
 0001:000e9b80       ?CTag_OnInitClass@@YAXXZ   100eab80 f   Tag.obj
 0001:000e9b90       ?CTag_OnEndClass@@YAXXZ    100eab90 f   Tag.obj
 0001:000e9ba0       ?CTag_OnPrecache@@YAXPAVCDLLEntityClass@@J@Z 100eaba0 f   Tag.obj
 0001:000e9bb0       ?CTag_OnWorldEnd@@YAXPAVCWorld@@@Z 100eabb0 f   Tag.obj
 0001:000e9bc0       ?CTag_OnWorldInit@@YAXPAVCWorld@@@Z 100eabc0 f   Tag.obj
 0001:000e9bd0       ?CTag_OnWorldTick@@YAXPAVCWorld@@@Z 100eabd0 f   Tag.obj
 0001:000e9be0       ?CTag_OnWorldRender@@YAXPAVCWorld@@@Z 100eabe0 f   Tag.obj
 0001:000e9cb0       ?SetDefaultProperties@CTag@@UAEXXZ 100eacb0 f   Tag.obj
 0001:000e9d90       ?GetType@CTag@@UAEJXZ      100ead90 f   Tag.obj
 0001:000e9da0       ?SetupInstance@CTag@@QAEXXZ 100eada0 f   Tag.obj
 0001:000e9de0       ?Main@CTag@@QAEHABVCEntityEvent@@@Z 100eade0 f   Tag.obj
 0001:000e9e50       ?H0x00010000_Main_01@CTag@@QAEHABVCEntityEvent@@@Z 100eae50 f   Tag.obj
 0001:000e9e80       ?H0x00010001_Main_02@CTag@@QAEHABVCEntityEvent@@@Z 100eae80 f   Tag.obj
 0001:000e9ee0       ?GetName@CTag@@UBEABVCTString@@XZ 100eaee0 f i Tag.obj
 0001:000e9ef0       ??_GCTag@@UAEPAXI@Z        100eaef0 f i Tag.obj
 0001:000e9ef0       ??_ECTag@@UAEPAXI@Z        100eaef0 f i Tag.obj
 0001:000e9f20       ??1CTag@@UAE@XZ            100eaf20 f i Tag.obj
 0001:000ea220       ?CTeleport_New@@YAPAVCEntity@@XZ 100eb220 f   Teleport.obj
 0001:000ea2c0       ?CTeleport_OnInitClass@@YAXXZ 100eb2c0 f   Teleport.obj
 0001:000ea2d0       ?CTeleport_OnEndClass@@YAXXZ 100eb2d0 f   Teleport.obj
 0001:000ea2e0       ?CTeleport_OnPrecache@@YAXPAVCDLLEntityClass@@J@Z 100eb2e0 f   Teleport.obj
 0001:000ea2f0       ?CTeleport_OnWorldEnd@@YAXPAVCWorld@@@Z 100eb2f0 f   Teleport.obj
 0001:000ea300       ?CTeleport_OnWorldInit@@YAXPAVCWorld@@@Z 100eb300 f   Teleport.obj
 0001:000ea310       ?CTeleport_OnWorldTick@@YAXPAVCWorld@@@Z 100eb310 f   Teleport.obj
 0001:000ea320       ?CTeleport_OnWorldRender@@YAXPAVCWorld@@@Z 100eb320 f   Teleport.obj
 0001:000ea3f0       ?SetDefaultProperties@CTeleport@@UAEXXZ 100eb3f0 f   Teleport.obj
 0001:000ea490       ?GetDescription@CTeleport@@UBEABVCTString@@XZ 100eb490 f   Teleport.obj
 0001:000ea4d0       ?TeleportEntity@CTeleport@@QAEXPAVCEntity@@ABVCPlacement3D@@@Z 100eb4d0 f   Teleport.obj
 0001:000ea4f0       ?Main@CTeleport@@QAEHABVCEntityEvent@@@Z 100eb4f0 f   Teleport.obj
 0001:000ea5b0       ?H0x00db0004_Main_05@CTeleport@@QAEHABVCEntityEvent@@@Z 100eb5b0 f   Teleport.obj
 0001:000ea620       ?H0x00db0000_Main_01@CTeleport@@QAEHABVCEntityEvent@@@Z 100eb620 f   Teleport.obj
 0001:000ea720       ?H0x00db0001_Main_02@CTeleport@@QAEHABVCEntityEvent@@@Z 100eb720 f   Teleport.obj
 0001:000ea790       ?H0x00db0002_Main_03@CTeleport@@QAEHABVCEntityEvent@@@Z 100eb790 f   Teleport.obj
 0001:000ea810       ?H0x00db0003_Main_04@CTeleport@@QAEHABVCEntityEvent@@@Z 100eb810 f   Teleport.obj
 0001:000ea870       ?H0x00db0005_Main_06@CTeleport@@QAEHABVCEntityEvent@@@Z 100eb870 f   Teleport.obj
 0001:000ea880       ?GetName@CTeleport@@UBEABVCTString@@XZ 100eb880 f i Teleport.obj
 0001:000ea890       ?GetTarget@CTeleport@@UBEPAVCEntity@@XZ 100eb890 f i Teleport.obj
 0001:000ea8a0       ?IsTargetable@CTeleport@@UBEHXZ 100eb8a0 f i Teleport.obj
 0001:000ea8b0       ?IsImportant@CTeleport@@UBEHXZ 100eb8b0 f i Teleport.obj
 0001:000ea8c0       ??_ECTeleport@@UAEPAXI@Z   100eb8c0 f i Teleport.obj
 0001:000ea8c0       ??_GCTeleport@@UAEPAXI@Z   100eb8c0 f i Teleport.obj
 0001:000ea8f0       ??1CTeleport@@UAE@XZ       100eb8f0 f i Teleport.obj
 0001:000eab80       ?CTerrainEntity_New@@YAPAVCEntity@@XZ 100ebb80 f   Terrain.obj
 0001:000eabe0       ?CTerrainEntity_OnInitClass@@YAXXZ 100ebbe0 f   Terrain.obj
 0001:000eabf0       ?CTerrainEntity_OnEndClass@@YAXXZ 100ebbf0 f   Terrain.obj
 0001:000eac00       ?CTerrainEntity_OnPrecache@@YAXPAVCDLLEntityClass@@J@Z 100ebc00 f   Terrain.obj
 0001:000eac10       ?CTerrainEntity_OnWorldEnd@@YAXPAVCWorld@@@Z 100ebc10 f   Terrain.obj
 0001:000eac20       ?CTerrainEntity_OnWorldInit@@YAXPAVCWorld@@@Z 100ebc20 f   Terrain.obj
 0001:000eac30       ?CTerrainEntity_OnWorldTick@@YAXPAVCWorld@@@Z 100ebc30 f   Terrain.obj
 0001:000eac40       ?CTerrainEntity_OnWorldRender@@YAXPAVCWorld@@@Z 100ebc40 f   Terrain.obj
 0001:000ead10       ?SetDefaultProperties@CTerrainEntity@@UAEXXZ 100ebd10 f   Terrain.obj
 0001:000ead50       ?GetType@CTerrainEntity@@UAEJXZ 100ebd50 f   Terrain.obj
 0001:000ead60       ?Main@CTerrainEntity@@QAEHABVCEntityEvent@@@Z 100ebd60 f   Terrain.obj
 0001:000eadd0       ??_GCTerrainEntity@@UAEPAXI@Z 100ebdd0 f i Terrain.obj
 0001:000eadd0       ??_ECTerrainEntity@@UAEPAXI@Z 100ebdd0 f i Terrain.obj
 0001:000eae00       ??1CTerrainEntity@@UAE@XZ  100ebe00 f i Terrain.obj
 0001:000eae10       ?_CompareFrequencies@@YAHPBX0@Z 100ebe10 f   TerrainMarker.obj
 0001:000eb690       ?CTerrainMarker_New@@YAPAVCEntity@@XZ 100ec690 f   TerrainMarker.obj
 0001:000eb7d0       ?CTerrainMarker_OnInitClass@@YAXXZ 100ec7d0 f   TerrainMarker.obj
 0001:000eb7e0       ?CTerrainMarker_OnEndClass@@YAXXZ 100ec7e0 f   TerrainMarker.obj
 0001:000eb7f0       ?CTerrainMarker_OnPrecache@@YAXPAVCDLLEntityClass@@J@Z 100ec7f0 f   TerrainMarker.obj
 0001:000eb800       ?CTerrainMarker_OnWorldEnd@@YAXPAVCWorld@@@Z 100ec800 f   TerrainMarker.obj
 0001:000eb810       ?CTerrainMarker_OnWorldInit@@YAXPAVCWorld@@@Z 100ec810 f   TerrainMarker.obj
 0001:000eb820       ?CTerrainMarker_OnWorldTick@@YAXPAVCWorld@@@Z 100ec820 f   TerrainMarker.obj
 0001:000eb830       ?CTerrainMarker_OnWorldRender@@YAXPAVCWorld@@@Z 100ec830 f   TerrainMarker.obj
 0001:000eb900       ?SetDefaultProperties@CTerrainMarker@@UAEXXZ 100ec900 f   TerrainMarker.obj
 0001:000ebbf0       ?GetType@CTerrainMarker@@UAEJXZ 100ecbf0 f   TerrainMarker.obj
 0001:000ebc00       ?PreDelete@CTerrainMarker@@UAEXXZ 100ecc00 f   TerrainMarker.obj
 0001:000ebc10       ?Precache@CTerrainMarker@@UAEXXZ 100ecc10 f   TerrainMarker.obj
 0001:000ebc20       ?Copy@CTerrainMarker@@UAEXAAVCEntity@@K@Z 100ecc20 f   TerrainMarker.obj
 0001:000ebc50       ?Write_t@CTerrainMarker@@UAEXPAVCTStream@@@Z 100ecc50 f   TerrainMarker.obj
 0001:000ebda0       ?Read_t@CTerrainMarker@@UAEXPAVCTStream@@@Z 100ecda0 f   TerrainMarker.obj
 0001:000ec080       ?GetDescription@CTerrainMarker@@UBEABVCTString@@XZ 100ed080 f   TerrainMarker.obj
 0001:000ec0c0       ?RenderParticles@CTerrainMarker@@UAEXXZ 100ed0c0 f   TerrainMarker.obj
 0001:000ec5f0       ?ChooseModel@CTerrainMarker@@QAE?AVCTFileName@@XZ 100ed5f0 f   TerrainMarker.obj
 0001:000ec790       ?ChooseTexture@CTerrainMarker@@QAEXH@Z 100ed790 f   TerrainMarker.obj
 0001:000eca10       ?IsFlagged@CTerrainMarker@@QAEHW4eMarkerBehavior@@@Z 100eda10 f   TerrainMarker.obj
 0001:000eca40       ?FrequencyTotal@CTerrainMarker@@QAEMXZ 100eda40 f   TerrainMarker.obj
 0001:000eca80       ?RayIsValid@CTerrainMarker@@QAEHAAVCCastRay@@@Z 100eda80 f   TerrainMarker.obj
 0001:000ecbb0       ?CreateObjects@CTerrainMarker@@QAEHXZ 100edbb0 f   TerrainMarker.obj
 0001:000ed490       ?DestroyModels@CTerrainMarker@@QAEXXZ 100ee490 f   TerrainMarker.obj
 0001:000ed580       ?InitTerrainSystem@CTerrainMarker@@QAEXXZ 100ee580 f   TerrainMarker.obj
 0001:000ed5e0       ?ShutdownTerrainSystem@CTerrainMarker@@QAEXXZ 100ee5e0 f   TerrainMarker.obj
 0001:000ed630       ?Active@CTerrainMarker@@QAEHABVCEntityEvent@@@Z 100ee630 f   TerrainMarker.obj
 0001:000ed690       ?H0x78200003_Active_03@CTerrainMarker@@QAEHABVCEntityEvent@@@Z 100ee690 f   TerrainMarker.obj
 0001:000ed720       ?H0x78200001_Active_01@CTerrainMarker@@QAEHABVCEntityEvent@@@Z 100ee720 f   TerrainMarker.obj
 0001:000ed7c0       ?H0x78200002_Active_02@CTerrainMarker@@QAEHABVCEntityEvent@@@Z 100ee7c0 f   TerrainMarker.obj
 0001:000ed820       ?H0x78200004_Active_04@CTerrainMarker@@QAEHABVCEntityEvent@@@Z 100ee820 f   TerrainMarker.obj
 0001:000ed830       ?InActive@CTerrainMarker@@QAEHABVCEntityEvent@@@Z 100ee830 f   TerrainMarker.obj
 0001:000ed890       ?H0x78200008_InActive_03@CTerrainMarker@@QAEHABVCEntityEvent@@@Z 100ee890 f   TerrainMarker.obj
 0001:000ed900       ?H0x78200006_InActive_01@CTerrainMarker@@QAEHABVCEntityEvent@@@Z 100ee900 f   TerrainMarker.obj
 0001:000ed9b0       ?H0x78200007_InActive_02@CTerrainMarker@@QAEHABVCEntityEvent@@@Z 100ee9b0 f   TerrainMarker.obj
 0001:000eda40       ?H0x78200009_InActive_04@CTerrainMarker@@QAEHABVCEntityEvent@@@Z 100eea40 f   TerrainMarker.obj
 0001:000eda50       ?Main@CTerrainMarker@@QAEHABVCEntityEvent@@@Z 100eea50 f   TerrainMarker.obj
 0001:000edb60       ?H0x7820000a_Main_01@CTerrainMarker@@QAEHABVCEntityEvent@@@Z 100eeb60 f   TerrainMarker.obj
 0001:000edbe0       ?H0x7820000b_Main_02@CTerrainMarker@@QAEHABVCEntityEvent@@@Z 100eebe0 f   TerrainMarker.obj
 0001:000edc60       ?GetName@CTerrainMarker@@UBEABVCTString@@XZ 100eec60 f i TerrainMarker.obj
 0001:000edc70       ?GetTarget@CTerrainMarker@@UBEPAVCEntity@@XZ 100eec70 f i TerrainMarker.obj
 0001:000edc80       ?IsTargetable@CTerrainMarker@@UBEHXZ 100eec80 f i TerrainMarker.obj
 0001:000edc90       ?GetPredictionPair@CTerrainMarker@@UAEPAVCEntity@@XZ 100eec90 f i TerrainMarker.obj
 0001:000edca0       ?SetPredictionPair@CTerrainMarker@@UAEXPAVCEntity@@@Z 100eeca0 f i TerrainMarker.obj
 0001:000edce0       ??_ECTerrainMarker@@UAEPAXI@Z 100eece0 f i TerrainMarker.obj
 0001:000edce0       ??_GCTerrainMarker@@UAEPAXI@Z 100eece0 f i TerrainMarker.obj
 0001:000edd10       ??1CTerrainMarker@@UAE@XZ  100eed10 f i TerrainMarker.obj
 0001:000ede80       ??0t_Sprite@@QAE@XZ        100eee80 f i TerrainMarker.obj
 0001:000eded0       ?New@?$CStaticArray@Ut_Sprite@@@@QAEXJ@Z 100eeed0 f i TerrainMarker.obj
 0001:000edf80       ?Delete@?$CStaticArray@Ut_Sprite@@@@QAEXXZ 100eef80 f i TerrainMarker.obj
 0001:000edfa0       ??4?$CStaticStackArray@PAVCEntity@@@@QAEAAV0@ABV0@@Z 100eefa0 f i TerrainMarker.obj
 0001:000ee210       ?CThinker_New@@YAPAVCEntity@@XZ 100ef210 f   Thinker.obj
 0001:000ee2a0       ?CThinker_OnInitClass@@YAXXZ 100ef2a0 f   Thinker.obj
 0001:000ee2b0       ?CThinker_OnEndClass@@YAXXZ 100ef2b0 f   Thinker.obj
 0001:000ee2c0       ?CThinker_OnPrecache@@YAXPAVCDLLEntityClass@@J@Z 100ef2c0 f   Thinker.obj
 0001:000ee2d0       ?CThinker_OnWorldEnd@@YAXPAVCWorld@@@Z 100ef2d0 f   Thinker.obj
 0001:000ee2e0       ?CThinker_OnWorldInit@@YAXPAVCWorld@@@Z 100ef2e0 f   Thinker.obj
 0001:000ee2f0       ?CThinker_OnWorldTick@@YAXPAVCWorld@@@Z 100ef2f0 f   Thinker.obj
 0001:000ee300       ?CThinker_OnWorldRender@@YAXPAVCWorld@@@Z 100ef300 f   Thinker.obj
 0001:000ee3d0       ?MakeCopy@EThinkerInit@@UAEPAVCEntityEvent@@XZ 100ef3d0 f   Thinker.obj
 0001:000ee420       ??0EThinkerInit@@QAE@XZ    100ef420 f   Thinker.obj
 0001:000ee490       ?MakeCopy@EThink@@UAEPAVCEntityEvent@@XZ 100ef490 f   Thinker.obj
 0001:000ee4c0       ??0EThink@@QAE@XZ          100ef4c0 f   Thinker.obj
 0001:000ee4d0       ?MakeCopy@EPulseAnimation@@UAEPAVCEntityEvent@@XZ 100ef4d0 f   Thinker.obj
 0001:000ee500       ??0EPulseAnimation@@QAE@XZ 100ef500 f   Thinker.obj
 0001:000ee510       ?MakeCopy@EPulseMover@@UAEPAVCEntityEvent@@XZ 100ef510 f   Thinker.obj
 0001:000ee540       ??0EPulseMover@@QAE@XZ     100ef540 f   Thinker.obj
 0001:000ee550       ?SetDefaultProperties@CThinker@@UAEXXZ 100ef550 f   Thinker.obj
 0001:000ee5b0       ?Destroy@CThinker@@UAEXXZ  100ef5b0 f   Thinker.obj
 0001:000ee5c0       ?Write_t@CThinker@@UAEXPAVCTStream@@@Z 100ef5c0 f   Thinker.obj
 0001:000ee650       ?Read_t@CThinker@@UAEXPAVCTStream@@@Z 100ef650 f   Thinker.obj
 0001:000ee7b0       ?Main@CThinker@@QAEHABVCEntityEvent@@@Z 100ef7b0 f   Thinker.obj
 0001:000ee870       ?H0x74470006_Main_03@CThinker@@QAEHABVCEntityEvent@@@Z 100ef870 f   Thinker.obj
 0001:000ee8e0       ?H0x74470004_Main_01@CThinker@@QAEHABVCEntityEvent@@@Z 100ef8e0 f   Thinker.obj
 0001:000eeaf0       ?H0x74470005_Main_02@CThinker@@QAEHABVCEntityEvent@@@Z 100efaf0 f   Thinker.obj
 0001:000eeb50       ?H0x74470007_Main_04@CThinker@@QAEHABVCEntityEvent@@@Z 100efb50 f   Thinker.obj
 0001:000eeb60       ??_GCThinker@@UAEPAXI@Z    100efb60 f i Thinker.obj
 0001:000eeb60       ??_ECThinker@@UAEPAXI@Z    100efb60 f i Thinker.obj
 0001:000eeb90       ??1CThinker@@UAE@XZ        100efb90 f i Thinker.obj
 0001:000eee20       ?CTimeDelayedEvent_New@@YAPAVCEntity@@XZ 100efe20 f   TimeDelayedEvent.obj
 0001:000eeeb0       ?CTimeDelayedEvent_OnInitClass@@YAXXZ 100efeb0 f   TimeDelayedEvent.obj
 0001:000eeec0       ?CTimeDelayedEvent_OnEndClass@@YAXXZ 100efec0 f   TimeDelayedEvent.obj
 0001:000eeed0       ?CTimeDelayedEvent_OnPrecache@@YAXPAVCDLLEntityClass@@J@Z 100efed0 f   TimeDelayedEvent.obj
 0001:000eeee0       ?CTimeDelayedEvent_OnWorldEnd@@YAXPAVCWorld@@@Z 100efee0 f   TimeDelayedEvent.obj
 0001:000eeef0       ?CTimeDelayedEvent_OnWorldInit@@YAXPAVCWorld@@@Z 100efef0 f   TimeDelayedEvent.obj
 0001:000eef00       ?CTimeDelayedEvent_OnWorldTick@@YAXPAVCWorld@@@Z 100eff00 f   TimeDelayedEvent.obj
 0001:000eef10       ?CTimeDelayedEvent_OnWorldRender@@YAXPAVCWorld@@@Z 100eff10 f   TimeDelayedEvent.obj
 0001:000eefe0       ?MakeCopy@ETimeDelayed@@UAEPAVCEntityEvent@@XZ 100effe0 f   TimeDelayedEvent.obj
 0001:000ef060       ??0ETimeDelayed@@QAE@XZ    100f0060 f   TimeDelayedEvent.obj
 0001:000ef0f0       ?SetDefaultProperties@CTimeDelayedEvent@@UAEXXZ 100f00f0 f   TimeDelayedEvent.obj
 0001:000ef1a0       ?Main@CTimeDelayedEvent@@QAEHABVCEntityEvent@@@Z 100f01a0 f   TimeDelayedEvent.obj
 0001:000ef210       ?H0x74530001_Main_01@CTimeDelayedEvent@@QAEHABVCEntityEvent@@@Z 100f0210 f   TimeDelayedEvent.obj
 0001:000ef290       ?H0x74530002_Main_02@CTimeDelayedEvent@@QAEHABVCEntityEvent@@@Z 100f0290 f   TimeDelayedEvent.obj
 0001:000ef300       ?H0x74530003_Main_03@CTimeDelayedEvent@@QAEHABVCEntityEvent@@@Z 100f0300 f   TimeDelayedEvent.obj
 0001:000ef380       ?H0x74530004_Main_04@CTimeDelayedEvent@@QAEHABVCEntityEvent@@@Z 100f0380 f   TimeDelayedEvent.obj
 0001:000ef450       ??_GCTimeDelayedEvent@@UAEPAXI@Z 100f0450 f i TimeDelayedEvent.obj
 0001:000ef450       ??_ECTimeDelayedEvent@@UAEPAXI@Z 100f0450 f i TimeDelayedEvent.obj
 0001:000ef480       ??1CTimeDelayedEvent@@UAE@XZ 100f0480 f i TimeDelayedEvent.obj
 0001:000ef550       ?ClearToDefault@@YAXAAW4RndType@@@Z 100f0550 f i Timer.obj
 0001:000ef8e0       ?CTimeCounter_New@@YAPAVCEntity@@XZ 100f08e0 f   Timer.obj
 0001:000ef970       ?CTimeCounter_OnInitClass@@YAXXZ 100f0970 f   Timer.obj
 0001:000ef980       ?CTimeCounter_OnEndClass@@YAXXZ 100f0980 f   Timer.obj
 0001:000ef990       ?CTimeCounter_OnPrecache@@YAXPAVCDLLEntityClass@@J@Z 100f0990 f   Timer.obj
 0001:000ef9a0       ?CTimeCounter_OnWorldEnd@@YAXPAVCWorld@@@Z 100f09a0 f   Timer.obj
 0001:000ef9b0       ?CTimeCounter_OnWorldInit@@YAXPAVCWorld@@@Z 100f09b0 f   Timer.obj
 0001:000ef9c0       ?CTimeCounter_OnWorldTick@@YAXPAVCWorld@@@Z 100f09c0 f   Timer.obj
 0001:000ef9d0       ?CTimeCounter_OnWorldRender@@YAXPAVCWorld@@@Z 100f09d0 f   Timer.obj
 0001:000efaa0       ?SetDefaultProperties@CTimeCounter@@UAEXXZ 100f0aa0 f   Timer.obj
 0001:000efb50       ?GetType@CTimeCounter@@UAEJXZ 100f0b50 f   Timer.obj
 0001:000efb60       ?GetTarget@CTimeCounter@@UBEPAVCEntity@@XZ 100f0b60 f   Timer.obj
 0001:000efb70       ?TriggerEvent@CTimeCounter@@QAEHABVCEntityEvent@@@Z 100f0b70 f   Timer.obj
 0001:000efc10       ?H0x781e0001_TriggerEvent_01@CTimeCounter@@QAEHABVCEntityEvent@@@Z 100f0c10 f   Timer.obj
 0001:000efc90       ?H0x781e0002_TriggerEvent_02@CTimeCounter@@QAEHABVCEntityEvent@@@Z 100f0c90 f   Timer.obj
 0001:000efcf0       ?H0x781e0003_TriggerEvent_03@CTimeCounter@@QAEHABVCEntityEvent@@@Z 100f0cf0 f   Timer.obj
 0001:000efde0       ?H0x781e0004_TriggerEvent_04@CTimeCounter@@QAEHABVCEntityEvent@@@Z 100f0de0 f   Timer.obj
 0001:000efe60       ?H0x781e0005_TriggerEvent_05@CTimeCounter@@QAEHABVCEntityEvent@@@Z 100f0e60 f   Timer.obj
 0001:000efec0       ?H0x781e0006_TriggerEvent_06@CTimeCounter@@QAEHABVCEntityEvent@@@Z 100f0ec0 f   Timer.obj
 0001:000eff20       ?Active@CTimeCounter@@QAEHABVCEntityEvent@@@Z 100f0f20 f   Timer.obj
 0001:000eff80       ?H0x781e000a_Active_03@CTimeCounter@@QAEHABVCEntityEvent@@@Z 100f0f80 f   Timer.obj
 0001:000f0070       ?H0x781e0008_Active_01@CTimeCounter@@QAEHABVCEntityEvent@@@Z 100f1070 f   Timer.obj
 0001:000f0160       ?H0x781e0009_Active_02@CTimeCounter@@QAEHABVCEntityEvent@@@Z 100f1160 f   Timer.obj
 0001:000f01c0       ?H0x781e000b_Active_04@CTimeCounter@@QAEHABVCEntityEvent@@@Z 100f11c0 f   Timer.obj
 0001:000f01d0       ?InActive@CTimeCounter@@QAEHABVCEntityEvent@@@Z 100f11d0 f   Timer.obj
 0001:000f0240       ?H0x781e000d_InActive_01@CTimeCounter@@QAEHABVCEntityEvent@@@Z 100f1240 f   Timer.obj
 0001:000f02e0       ?H0x781e000e_InActive_02@CTimeCounter@@QAEHABVCEntityEvent@@@Z 100f12e0 f   Timer.obj
 0001:000f02f0       ?Main@CTimeCounter@@QAEHABVCEntityEvent@@@Z 100f12f0 f   Timer.obj
 0001:000f03f0       ?H0x781e000f_Main_01@CTimeCounter@@QAEHABVCEntityEvent@@@Z 100f13f0 f   Timer.obj
 0001:000f0470       ?H0x781e0010_Main_02@CTimeCounter@@QAEHABVCEntityEvent@@@Z 100f1470 f   Timer.obj
 0001:000f04f0       ?GetName@CTimeCounter@@UBEABVCTString@@XZ 100f14f0 f i Timer.obj
 0001:000f0500       ?IsTargetable@CTimeCounter@@UBEHXZ 100f1500 f i Timer.obj
 0001:000f0510       ??_GCTimeCounter@@UAEPAXI@Z 100f1510 f i Timer.obj
 0001:000f0510       ??_ECTimeCounter@@UAEPAXI@Z 100f1510 f i Timer.obj
 0001:000f0540       ??1CTimeCounter@@UAE@XZ    100f1540 f i Timer.obj
 0001:000f07d0       ?CTODController_New@@YAPAVCEntity@@XZ 100f17d0 f   TODController.obj
 0001:000f0840       ?CTODController_OnInitClass@@YAXXZ 100f1840 f   TODController.obj
 0001:000f0850       ?CTODController_OnEndClass@@YAXXZ 100f1850 f   TODController.obj
 0001:000f0860       ?CTODController_OnPrecache@@YAXPAVCDLLEntityClass@@J@Z 100f1860 f   TODController.obj
 0001:000f0870       ?CTODController_OnWorldEnd@@YAXPAVCWorld@@@Z 100f1870 f   TODController.obj
 0001:000f0880       ?CTODController_OnWorldInit@@YAXPAVCWorld@@@Z 100f1880 f   TODController.obj
 0001:000f0890       ?CTODController_OnWorldTick@@YAXPAVCWorld@@@Z 100f1890 f   TODController.obj
 0001:000f08a0       ?CTODController_OnWorldRender@@YAXPAVCWorld@@@Z 100f18a0 f   TODController.obj
 0001:000f0970       ?SetDefaultProperties@CTODController@@UAEXXZ 100f1970 f   TODController.obj
 0001:000f09d0       ?GetType@CTODController@@UAEJXZ 100f19d0 f   TODController.obj
 0001:000f09e0       ?TimeOfDay@CTODController@@QAE?AVCTString@@XZ 100f19e0 f   TODController.obj
 0001:000f0a80       ?HourOfDay@CTODController@@QAEJXZ 100f1a80 f   TODController.obj
 0001:000f0af0       ?MinuteOfDay@CTODController@@QAEJXZ 100f1af0 f   TODController.obj
 0001:000f0b60       ?SetStartTime@CTODController@@QAEXJJ@Z 100f1b60 f   TODController.obj
 0001:000f0bb0       ?SetTimeScale@CTODController@@QAEXM@Z 100f1bb0 f   TODController.obj
 0001:000f0bc0       ?Main@CTODController@@QAEHABVCEntityEvent@@@Z 100f1bc0 f   TODController.obj
 0001:000f0c30       ?GetName@CTODController@@UBEABVCTString@@XZ 100f1c30 f i TODController.obj
 0001:000f0c40       ?IsTargetable@CTODController@@UBEHXZ 100f1c40 f i TODController.obj
 0001:000f0c50       ??_GCTODController@@UAEPAXI@Z 100f1c50 f i TODController.obj
 0001:000f0c50       ??_ECTODController@@UAEPAXI@Z 100f1c50 f i TODController.obj
 0001:000f0c80       ??1CTODController@@UAE@XZ  100f1c80 f i TODController.obj
 0001:000f0fd0       ?CTouchField_New@@YAPAVCEntity@@XZ 100f1fd0 f   TouchField.obj
 0001:000f1080       ?CTouchField_OnInitClass@@YAXXZ 100f2080 f   TouchField.obj
 0001:000f1090       ?CTouchField_OnEndClass@@YAXXZ 100f2090 f   TouchField.obj
 0001:000f10a0       ?CTouchField_OnPrecache@@YAXPAVCDLLEntityClass@@J@Z 100f20a0 f   TouchField.obj
 0001:000f10b0       ?CTouchField_OnWorldEnd@@YAXPAVCWorld@@@Z 100f20b0 f   TouchField.obj
 0001:000f10c0       ?CTouchField_OnWorldInit@@YAXPAVCWorld@@@Z 100f20c0 f   TouchField.obj
 0001:000f10d0       ?CTouchField_OnWorldTick@@YAXPAVCWorld@@@Z 100f20d0 f   TouchField.obj
 0001:000f10e0       ?CTouchField_OnWorldRender@@YAXPAVCWorld@@@Z 100f20e0 f   TouchField.obj
 0001:000f11b0       ?ConsiderAll@@YAHPAVCEntity@@@Z 100f21b0 f   TouchField.obj
 0001:000f11c0       ?ConsiderPlayers@@YAHPAVCEntity@@@Z 100f21c0 f   TouchField.obj
 0001:000f11e0       ?SetDefaultProperties@CTouchField@@UAEXXZ 100f21e0 f   TouchField.obj
 0001:000f12b0       ?SetupFieldSettings@CTouchField@@QAEXXZ 100f22b0 f   TouchField.obj
 0001:000f12e0       ?GetFieldSettings@CTouchField@@UAEPAVCFieldSettings@@XZ 100f22e0 f   TouchField.obj
 0001:000f1300       ?WaitingEntry@CTouchField@@QAEHABVCEntityEvent@@@Z 100f2300 f   TouchField.obj
 0001:000f1370       ?H0x00ce0001_WaitingEntry_01@CTouchField@@QAEHABVCEntityEvent@@@Z 100f2370 f   TouchField.obj
 0001:000f14a0       ?H0x00ce0002_WaitingEntry_02@CTouchField@@QAEHABVCEntityEvent@@@Z 100f24a0 f   TouchField.obj
 0001:000f14b0       ?WaitingExit@CTouchField@@QAEHABVCEntityEvent@@@Z 100f24b0 f   TouchField.obj
 0001:000f1510       ?H0x00ce0006_WaitingExit_03@CTouchField@@QAEHABVCEntityEvent@@@Z 100f2510 f   TouchField.obj
 0001:000f1580       ?H0x00ce0004_WaitingExit_01@CTouchField@@QAEHABVCEntityEvent@@@Z 100f2580 f   TouchField.obj
 0001:000f16c0       ?H0x00ce0005_WaitingExit_02@CTouchField@@QAEHABVCEntityEvent@@@Z 100f26c0 f   TouchField.obj
 0001:000f1720       ?H0x00ce0007_WaitingExit_04@CTouchField@@QAEHABVCEntityEvent@@@Z 100f2720 f   TouchField.obj
 0001:000f1730       ?Frozen@CTouchField@@QAEHABVCEntityEvent@@@Z 100f2730 f   TouchField.obj
 0001:000f17a0       ?H0x00ce0009_Frozen_01@CTouchField@@QAEHABVCEntityEvent@@@Z 100f27a0 f   TouchField.obj
 0001:000f1820       ?H0x00ce000a_Frozen_02@CTouchField@@QAEHABVCEntityEvent@@@Z 100f2820 f   TouchField.obj
 0001:000f1830       ?Main@CTouchField@@QAEHABVCEntityEvent@@@Z 100f2830 f   TouchField.obj
 0001:000f18e0       ?GetName@CTouchField@@UBEABVCTString@@XZ 100f28e0 f i TouchField.obj
 0001:000f18f0       ?IsTargetable@CTouchField@@UBEHXZ 100f28f0 f i TouchField.obj
 0001:000f1900       ??_GCTouchField@@UAEPAXI@Z 100f2900 f i TouchField.obj
 0001:000f1900       ??_ECTouchField@@UAEPAXI@Z 100f2900 f i TouchField.obj
 0001:000f1930       ??1CTouchField@@UAE@XZ     100f2930 f i TouchField.obj
 0001:000f21f0       ?CTrigger_New@@YAPAVCEntity@@XZ 100f31f0 f   Trigger.obj
 0001:000f22d0       ?CTrigger_OnInitClass@@YAXXZ 100f32d0 f   Trigger.obj
 0001:000f22e0       ?CTrigger_OnEndClass@@YAXXZ 100f32e0 f   Trigger.obj
 0001:000f22f0       ?CTrigger_OnPrecache@@YAXPAVCDLLEntityClass@@J@Z 100f32f0 f   Trigger.obj
 0001:000f2300       ?CTrigger_OnWorldEnd@@YAXPAVCWorld@@@Z 100f3300 f   Trigger.obj
 0001:000f2310       ?CTrigger_OnWorldInit@@YAXPAVCWorld@@@Z 100f3310 f   Trigger.obj
 0001:000f2320       ?CTrigger_OnWorldTick@@YAXPAVCWorld@@@Z 100f3320 f   Trigger.obj
 0001:000f2330       ?CTrigger_OnWorldRender@@YAXPAVCWorld@@@Z 100f3330 f   Trigger.obj
 0001:000f2400       ?SetDefaultProperties@CTrigger@@UAEXXZ 100f3400 f   Trigger.obj
 0001:000f2600       ?GetTarget@CTrigger@@UBEPAVCEntity@@XZ 100f3600 f   Trigger.obj
 0001:000f2610       ?SendEventToTargets@CTrigger@@QAEHABVCEntityEvent@@@Z 100f3610 f   Trigger.obj
 0001:000f26b0       ?H0x00cd0001_SendEventToTargets_01@CTrigger@@QAEHABVCEntityEvent@@@Z 100f36b0 f   Trigger.obj
 0001:000f2750       ?H0x00cd0002_SendEventToTargets_02@CTrigger@@QAEHABVCEntityEvent@@@Z 100f3750 f   Trigger.obj
 0001:000f27b0       ?H0x00cd0003_SendEventToTargets_03@CTrigger@@QAEHABVCEntityEvent@@@Z 100f37b0 f   Trigger.obj
 0001:000f2a60       ?Active@CTrigger@@QAEHABVCEntityEvent@@@Z 100f3a60 f   Trigger.obj
 0001:000f2ad0       ?H0x00cd0005_Active_01@CTrigger@@QAEHABVCEntityEvent@@@Z 100f3ad0 f   Trigger.obj
 0001:000f2cd0       ?H0x00cd0006_Active_02@CTrigger@@QAEHABVCEntityEvent@@@Z 100f3cd0 f   Trigger.obj
 0001:000f2ce0       ?Inactive@CTrigger@@QAEHABVCEntityEvent@@@Z 100f3ce0 f   Trigger.obj
 0001:000f2d40       ?H0x00cd000c_Inactive_05@CTrigger@@QAEHABVCEntityEvent@@@Z 100f3d40 f   Trigger.obj
 0001:000f2db0       ?H0x00cd0008_Inactive_01@CTrigger@@QAEHABVCEntityEvent@@@Z 100f3db0 f   Trigger.obj
 0001:000f2e20       ?H0x00cd0009_Inactive_02@CTrigger@@QAEHABVCEntityEvent@@@Z 100f3e20 f   Trigger.obj
 0001:000f2e90       ?H0x00cd000a_Inactive_03@CTrigger@@QAEHABVCEntityEvent@@@Z 100f3e90 f   Trigger.obj
 0001:000f2f10       ?H0x00cd000b_Inactive_04@CTrigger@@QAEHABVCEntityEvent@@@Z 100f3f10 f   Trigger.obj
 0001:000f2f70       ?H0x00cd000d_Inactive_06@CTrigger@@QAEHABVCEntityEvent@@@Z 100f3f70 f   Trigger.obj
 0001:000f2f80       ?Main@CTrigger@@QAEHABVCEntityEvent@@@Z 100f3f80 f   Trigger.obj
 0001:000f3040       ?H0x00cd000e_Main_01@CTrigger@@QAEHABVCEntityEvent@@@Z 100f4040 f   Trigger.obj
 0001:000f30c0       ?H0x00cd000f_Main_02@CTrigger@@QAEHABVCEntityEvent@@@Z 100f40c0 f   Trigger.obj
 0001:000f3140       ?GetName@CTrigger@@UBEABVCTString@@XZ 100f4140 f i Trigger.obj
 0001:000f3150       ?IsTargetable@CTrigger@@UBEHXZ 100f4150 f i Trigger.obj
 0001:000f3160       ??_GCTrigger@@UAEPAXI@Z    100f4160 f i Trigger.obj
 0001:000f3160       ??_ECTrigger@@UAEPAXI@Z    100f4160 f i Trigger.obj
 0001:000f3190       ??1CTrigger@@UAE@XZ        100f4190 f i Trigger.obj
 0001:000f3a30       ?CTruck_New@@YAPAVCEntity@@XZ 100f4a30 f   Truck.obj
 0001:000f3b60       ?CTruck_OnEndClass@@YAXXZ  100f4b60 f   Truck.obj
 0001:000f3b70       ?CTruck_OnPrecache@@YAXPAVCDLLEntityClass@@J@Z 100f4b70 f   Truck.obj
 0001:000f3b80       ?CTruck_OnWorldEnd@@YAXPAVCWorld@@@Z 100f4b80 f   Truck.obj
 0001:000f3b90       ?CTruck_OnWorldInit@@YAXPAVCWorld@@@Z 100f4b90 f   Truck.obj
 0001:000f3ba0       ?CTruck_OnWorldTick@@YAXPAVCWorld@@@Z 100f4ba0 f   Truck.obj
 0001:000f3bb0       ?CTruck_OnWorldRender@@YAXPAVCWorld@@@Z 100f4bb0 f   Truck.obj
 0001:000f3c80       ?MakeCopy@ETruckStart@@UAEPAVCEntityEvent@@XZ 100f4c80 f   Truck.obj
 0001:000f3cc0       ??0ETruckStart@@QAE@XZ     100f4cc0 f   Truck.obj
 0001:000f3d30       ?MakeCopy@ETruckStop@@UAEPAVCEntityEvent@@XZ 100f4d30 f   Truck.obj
 0001:000f3d60       ??0ETruckStop@@QAE@XZ      100f4d60 f   Truck.obj
 0001:000f3d70       ?MakeCopy@ETruckFirstPersonView@@UAEPAVCEntityEvent@@XZ 100f4d70 f   Truck.obj
 0001:000f3da0       ??0ETruckFirstPersonView@@QAE@XZ 100f4da0 f   Truck.obj
 0001:000f3db0       ?MakeCopy@ETruckThirdPersonView@@UAEPAVCEntityEvent@@XZ 100f4db0 f   Truck.obj
 0001:000f3de0       ??0ETruckThirdPersonView@@QAE@XZ 100f4de0 f   Truck.obj
 0001:000f3df0       ?MakeCopy@ETruckClicked@@UAEPAVCEntityEvent@@XZ 100f4df0 f   Truck.obj
 0001:000f3e30       ??0ETruckClicked@@QAE@XZ   100f4e30 f   Truck.obj
 0001:000f3ea0       ?MakeCopy@ETruckLoadATV@@UAEPAVCEntityEvent@@XZ 100f4ea0 f   Truck.obj
 0001:000f3ee0       ??0ETruckLoadATV@@QAE@XZ   100f4ee0 f   Truck.obj
 0001:000f3f50       ?CTruck_Precache@@YAXXZ    100f4f50 f   Truck.obj
 0001:000f3fb0       ?CTruck_OnInitClass@@YAXXZ 100f4fb0 f   Truck.obj
 0001:000f3fc0       ?SetDefaultProperties@CTruck@@UAEXXZ 100f4fc0 f   Truck.obj
 0001:000f42e0       ?GetType@CTruck@@UAEJXZ    100f52e0 f   Truck.obj
 0001:000f42f0       ?Read_t@CTruck@@UAEXPAVCTStream@@@Z 100f52f0 f   Truck.obj
 0001:000f43c0       ?WheelForward@CTruck@@QAEXXZ 100f53c0 f   Truck.obj
 0001:000f4430       ?WheelBackward@CTruck@@QAEXXZ 100f5430 f   Truck.obj
 0001:000f44a0       ?WheelStop@CTruck@@QAEXXZ  100f54a0 f   Truck.obj
 0001:000f44b0       ?WheelLeft@CTruck@@QAEXXZ  100f54b0 f   Truck.obj
 0001:000f4510       ?WheelRight@CTruck@@QAEXXZ 100f5510 f   Truck.obj
 0001:000f4570       ?CreateParticles@CTruck@@QAEXXZ 100f5570 f   Truck.obj
 0001:000f4a40       ?PreMoving@CTruck@@UAEXXZ  100f5a40 f   Truck.obj
 0001:000f5440       ?DoMoving@CTruck@@UAEXXZ   100f6440 f   Truck.obj
 0001:000f54b0       ?HandleSounds@CTruck@@QAEXXZ 100f64b0 f   Truck.obj
 0001:000f5720       ?PostMoving@CTruck@@UAEXXZ 100f6720 f   Truck.obj
 0001:000f5930       ?SetupAnims@CTruck@@QAEXXZ 100f6930 f   Truck.obj
 0001:000f59c0       ?SetupTexture@CTruck@@QAEXXZ 100f69c0 f   Truck.obj
 0001:000f5b70       ?ClaimOwnership@CTruck@@QAEXVCEntityPointer@@@Z 100f6b70 f   Truck.obj
 0001:000f5cf0       ?SwitchFirstPersonView@CTruck@@QAEXXZ 100f6cf0 f   Truck.obj
 0001:000f5d60       ?SwitchThirdPersonView@CTruck@@QAEXXZ 100f6d60 f   Truck.obj
 0001:000f5e20       ?TruckStart@CTruck@@QAEXXZ 100f6e20 f   Truck.obj
 0001:000f5e60       ?TruckStop@CTruck@@QAEXXZ  100f6e60 f   Truck.obj
 0001:000f5ee0       ?Main@CTruck@@QAEHABVCEntityEvent@@@Z 100f6ee0 f   Truck.obj
 0001:000f5fe0       ?H0x76320006_Main_01@CTruck@@QAEHABVCEntityEvent@@@Z 100f6fe0 f   Truck.obj
 0001:000f6060       ?H0x76320007_Main_02@CTruck@@QAEHABVCEntityEvent@@@Z 100f7060 f   Truck.obj
 0001:000f61c0       ?H0x76320008_Main_03@CTruck@@QAEHABVCEntityEvent@@@Z 100f71c0 f   Truck.obj
 0001:000f6580       ?H0x76320009_Main_04@CTruck@@QAEHABVCEntityEvent@@@Z 100f7580 f   Truck.obj
 0001:000f65e0       ?GetName@CTruck@@UBEABVCTString@@XZ 100f75e0 f i Truck.obj
 0001:000f65f0       ?IsTargetable@CTruck@@UBEHXZ 100f75f0 f i Truck.obj
 0001:000f6600       ??_ECTruck@@UAEPAXI@Z      100f7600 f i Truck.obj
 0001:000f6600       ??_GCTruck@@UAEPAXI@Z      100f7600 f i Truck.obj
 0001:000f6630       ??1CTruck@@UAE@XZ          100f7630 f i Truck.obj
 0001:000f6bc0       ?CUpland_New@@YAPAVCEntity@@XZ 100f7bc0 f   Upland.obj
 0001:000f6d80       ?CUpland_OnInitClass@@YAXXZ 100f7d80 f   Upland.obj
 0001:000f6d90       ?CUpland_OnEndClass@@YAXXZ 100f7d90 f   Upland.obj
 0001:000f6da0       ?CUpland_OnPrecache@@YAXPAVCDLLEntityClass@@J@Z 100f7da0 f   Upland.obj
 0001:000f6db0       ?CUpland_OnWorldEnd@@YAXPAVCWorld@@@Z 100f7db0 f   Upland.obj
 0001:000f6dc0       ?CUpland_OnWorldInit@@YAXPAVCWorld@@@Z 100f7dc0 f   Upland.obj
 0001:000f6dd0       ?CUpland_OnWorldTick@@YAXPAVCWorld@@@Z 100f7dd0 f   Upland.obj
 0001:000f6de0       ?CUpland_OnWorldRender@@YAXPAVCWorld@@@Z 100f7de0 f   Upland.obj
 0001:000f6e40       ?SetDefaultProperties@CUpland@@UAEXXZ 100f7e40 f   Upland.obj
 0001:000f6f80       ?GameInit@CUpland@@UAEXXZ  100f7f80 f   Upland.obj
 0001:000f7050       ?Reinit@CUpland@@QAEXXZ    100f8050 f   Upland.obj
 0001:000f7150       ?StatisticsInit@CUpland@@UAEXXZ 100f8150 f   Upland.obj
 0001:000f7460       ?DistanceFromHunterSquared@CUpland@@QAEMXZ 100f8460 f   Upland.obj
 0001:000f74d0       ?Logic@CUpland@@UAEXXZ     100f84d0 f   Upland.obj
 0001:000f7590       ?UpdateSpook@CUpland@@QAEXXZ 100f8590 f   Upland.obj
 0001:000f7790       ?HeardShot@CUpland@@UAEXV?$Vector@M$02@@@Z 100f8790 f   Upland.obj
 0001:000f77c0       ?IsUpland@CUpland@@UAE_NXZ 100f87c0 f   Upland.obj
 0001:000f77d0       ?UpdateMover@CUpland@@UAEXXZ 100f87d0 f   Upland.obj
 0001:000f7a70       ?UpdateVelocityToTakeoff@CUpland@@QAE?AV?$Vector@M$02@@XZ 100f8a70 f   Upland.obj
 0001:000f7bd0       ?UpdateMovementToDestination@CUpland@@QAEXXZ 100f8bd0 f   Upland.obj
 0001:000f7d30       ?ChooseDestinationAwayFromPlayer@CUpland@@QAEXXZ 100f8d30 f   Upland.obj
 0001:000f7f00       ?PickDestinationNearBush@CUpland@@QAE?AV?$Vector@M$02@@MM@Z 100f8f00 f   Upland.obj
 0001:000f80b0       ?Eat@CUpland@@QAEHABVCEntityEvent@@@Z 100f90b0 f   Upland.obj
 0001:000f8120       ?H0x744d0012_Eat_18@CUpland@@QAEHABVCEntityEvent@@@Z 100f9120 f   Upland.obj
 0001:000f8230       ?H0x744d0001_Eat_01@CUpland@@QAEHABVCEntityEvent@@@Z 100f9230 f   Upland.obj
 0001:000f82d0       ?H0x744d0002_Eat_02@CUpland@@QAEHABVCEntityEvent@@@Z 100f92d0 f   Upland.obj
 0001:000f8330       ?H0x744d0011_Eat_17@CUpland@@QAEHABVCEntityEvent@@@Z 100f9330 f   Upland.obj
 0001:000f83e0       ?H0x744d0003_Eat_03@CUpland@@QAEHABVCEntityEvent@@@Z 100f93e0 f   Upland.obj
 0001:000f8480       ?H0x744d0004_Eat_04@CUpland@@QAEHABVCEntityEvent@@@Z 100f9480 f   Upland.obj
 0001:000f8530       ?H0x744d0005_Eat_05@CUpland@@QAEHABVCEntityEvent@@@Z 100f9530 f   Upland.obj
 0001:000f85d0       ?H0x744d0006_Eat_06@CUpland@@QAEHABVCEntityEvent@@@Z 100f95d0 f   Upland.obj
 0001:000f8630       ?H0x744d000e_Eat_14@CUpland@@QAEHABVCEntityEvent@@@Z 100f9630 f   Upland.obj
 0001:000f86b0       ?H0x744d0007_Eat_07@CUpland@@QAEHABVCEntityEvent@@@Z 100f96b0 f   Upland.obj
 0001:000f8750       ?H0x744d0008_Eat_08@CUpland@@QAEHABVCEntityEvent@@@Z 100f9750 f   Upland.obj
 0001:000f8800       ?H0x744d0009_Eat_09@CUpland@@QAEHABVCEntityEvent@@@Z 100f9800 f   Upland.obj
 0001:000f88a0       ?H0x744d000a_Eat_10@CUpland@@QAEHABVCEntityEvent@@@Z 100f98a0 f   Upland.obj
 0001:000f8900       ?H0x744d000b_Eat_11@CUpland@@QAEHABVCEntityEvent@@@Z 100f9900 f   Upland.obj
 0001:000f8960       ?H0x744d000c_Eat_12@CUpland@@QAEHABVCEntityEvent@@@Z 100f9960 f   Upland.obj
 0001:000f89c0       ?H0x744d000d_Eat_13@CUpland@@QAEHABVCEntityEvent@@@Z 100f99c0 f   Upland.obj
 0001:000f8a20       ?H0x744d000f_Eat_15@CUpland@@QAEHABVCEntityEvent@@@Z 100f9a20 f   Upland.obj
 0001:000f8a80       ?H0x744d0010_Eat_16@CUpland@@QAEHABVCEntityEvent@@@Z 100f9a80 f   Upland.obj
 0001:000f8ae0       ?H0x744d0013_Eat_19@CUpland@@QAEHABVCEntityEvent@@@Z 100f9ae0 f   Upland.obj
 0001:000f8b40       ?Standby@CUpland@@QAEHABVCEntityEvent@@@Z 100f9b40 f   Upland.obj
 0001:000f8c40       ?H0x744d0015_Standby_01@CUpland@@QAEHABVCEntityEvent@@@Z 100f9c40 f   Upland.obj
 0001:000f8c70       ?H0x744d0016_Standby_02@CUpland@@QAEHABVCEntityEvent@@@Z 100f9c70 f   Upland.obj
 0001:000f8cd0       ?Rest@CUpland@@QAEHABVCEntityEvent@@@Z 100f9cd0 f   Upland.obj
 0001:000f8d40       ?H0x744d001f_Rest_08@CUpland@@QAEHABVCEntityEvent@@@Z 100f9d40 f   Upland.obj
 0001:000f8e50       ?H0x744d0018_Rest_01@CUpland@@QAEHABVCEntityEvent@@@Z 100f9e50 f   Upland.obj
 0001:000f8ef0       ?H0x744d0019_Rest_02@CUpland@@QAEHABVCEntityEvent@@@Z 100f9ef0 f   Upland.obj
 0001:000f8f50       ?H0x744d001e_Rest_07@CUpland@@QAEHABVCEntityEvent@@@Z 100f9f50 f   Upland.obj
 0001:000f8fc0       ?H0x744d001a_Rest_03@CUpland@@QAEHABVCEntityEvent@@@Z 100f9fc0 f   Upland.obj
 0001:000f9040       ?H0x744d001b_Rest_04@CUpland@@QAEHABVCEntityEvent@@@Z 100fa040 f   Upland.obj
 0001:000f90a0       ?H0x744d001c_Rest_05@CUpland@@QAEHABVCEntityEvent@@@Z 100fa0a0 f   Upland.obj
 0001:000f9100       ?H0x744d001d_Rest_06@CUpland@@QAEHABVCEntityEvent@@@Z 100fa100 f   Upland.obj
 0001:000f9160       ?H0x744d0020_Rest_09@CUpland@@QAEHABVCEntityEvent@@@Z 100fa160 f   Upland.obj
 0001:000f91c0       ?Die@CUpland@@QAEHABVCEntityEvent@@@Z 100fa1c0 f   Upland.obj
 0001:000f9270       ?H0x744d0024_Die_03@CUpland@@QAEHABVCEntityEvent@@@Z 100fa270 f   Upland.obj
 0001:000f9300       ?H0x744d0022_Die_01@CUpland@@QAEHABVCEntityEvent@@@Z 100fa300 f   Upland.obj
 0001:000f9380       ?H0x744d0023_Die_02@CUpland@@QAEHABVCEntityEvent@@@Z 100fa380 f   Upland.obj
 0001:000f93e0       ?H0x744d0025_Die_04@CUpland@@QAEHABVCEntityEvent@@@Z 100fa3e0 f   Upland.obj
 0001:000f94a0       ?H0x744d0026_Die_05@CUpland@@QAEHABVCEntityEvent@@@Z 100fa4a0 f   Upland.obj
 0001:000f9630       ?H0x744d0027_Die_06@CUpland@@QAEHABVCEntityEvent@@@Z 100fa630 f   Upland.obj
 0001:000f9690       ?Flee@CUpland@@QAEHABVCEntityEvent@@@Z 100fa690 f   Upland.obj
 0001:000f9860       ?H0x744d002b_Flee_03@CUpland@@QAEHABVCEntityEvent@@@Z 100fa860 f   Upland.obj
 0001:000f9900       ?H0x744d0029_Flee_01@CUpland@@QAEHABVCEntityEvent@@@Z 100fa900 f   Upland.obj
 0001:000f9980       ?H0x744d002a_Flee_02@CUpland@@QAEHABVCEntityEvent@@@Z 100fa980 f   Upland.obj
 0001:000f99e0       ?H0x744d002c_Flee_04@CUpland@@QAEHABVCEntityEvent@@@Z 100fa9e0 f   Upland.obj
 0001:000f9a70       ?H0x744d002f_Flee_07@CUpland@@QAEHABVCEntityEvent@@@Z 100faa70 f   Upland.obj
 0001:000f9b60       ?H0x744d002d_Flee_05@CUpland@@QAEHABVCEntityEvent@@@Z 100fab60 f   Upland.obj
 0001:000f9be0       ?H0x744d002e_Flee_06@CUpland@@QAEHABVCEntityEvent@@@Z 100fabe0 f   Upland.obj
 0001:000f9c40       ?H0x744d0030_Flee_08@CUpland@@QAEHABVCEntityEvent@@@Z 100fac40 f   Upland.obj
 0001:000f9d50       ?H0x744d0033_Flee_11@CUpland@@QAEHABVCEntityEvent@@@Z 100fad50 f   Upland.obj
 0001:000f9de0       ?H0x744d0031_Flee_09@CUpland@@QAEHABVCEntityEvent@@@Z 100fade0 f   Upland.obj
 0001:000f9e60       ?H0x744d0032_Flee_10@CUpland@@QAEHABVCEntityEvent@@@Z 100fae60 f   Upland.obj
 0001:000f9ec0       ?H0x744d0034_Flee_12@CUpland@@QAEHABVCEntityEvent@@@Z 100faec0 f   Upland.obj
 0001:000f9f50       ?MainLoop@CUpland@@QAEHABVCEntityEvent@@@Z 100faf50 f   Upland.obj
 0001:000f9fb0       ?H0x744d0038_MainLoop_03@CUpland@@QAEHABVCEntityEvent@@@Z 100fafb0 f   Upland.obj
 0001:000fa020       ?H0x744d0036_MainLoop_01@CUpland@@QAEHABVCEntityEvent@@@Z 100fb020 f   Upland.obj
 0001:000fa4b0       ?H0x744d0037_MainLoop_02@CUpland@@QAEHABVCEntityEvent@@@Z 100fb4b0 f   Upland.obj
 0001:000fa510       ?H0x744d0039_MainLoop_04@CUpland@@QAEHABVCEntityEvent@@@Z 100fb510 f   Upland.obj
 0001:000fa570       ?Main@CUpland@@QAEHABVCEntityEvent@@@Z 100fb570 f   Upland.obj
 0001:000fa690       ?H0x744d003a_Main_01@CUpland@@QAEHABVCEntityEvent@@@Z 100fb690 f   Upland.obj
 0001:000fa710       ?H0x744d003b_Main_02@CUpland@@QAEHABVCEntityEvent@@@Z 100fb710 f   Upland.obj
 0001:000fa770       ?H0x744d003c_Main_03@CUpland@@QAEHABVCEntityEvent@@@Z 100fb770 f   Upland.obj
 0001:000fa810       ?H0x744d003d_Main_04@CUpland@@QAEHABVCEntityEvent@@@Z 100fb810 f   Upland.obj
 0001:000fa870       ??_ECUpland@@UAEPAXI@Z     100fb870 f i Upland.obj
 0001:000fa870       ??_GCUpland@@UAEPAXI@Z     100fb870 f i Upland.obj
 0001:000fa8a0       ??1CBirdBase@@UAE@XZ       100fb8a0 f i Upland.obj
 0001:000faa90       ??1CUpland@@UAE@XZ         100fba90 f i Upland.obj
 0001:000fac90       ??_GCBirdBase@@UAEPAXI@Z   100fbc90 f i Upland.obj
 0001:000fac90       ??_ECBirdBase@@UAEPAXI@Z   100fbc90 f i Upland.obj
 0001:000facc0       ??0CAIBase@@QAE@XZ         100fbcc0 f i Upland.obj
 0001:000fafb0       ?CVoiceHolder_New@@YAPAVCEntity@@XZ 100fbfb0 f   VoiceHolder.obj
 0001:000fb070       ?CVoiceHolder_OnInitClass@@YAXXZ 100fc070 f   VoiceHolder.obj
 0001:000fb080       ?CVoiceHolder_OnEndClass@@YAXXZ 100fc080 f   VoiceHolder.obj
 0001:000fb090       ?CVoiceHolder_OnPrecache@@YAXPAVCDLLEntityClass@@J@Z 100fc090 f   VoiceHolder.obj
 0001:000fb0a0       ?CVoiceHolder_OnWorldEnd@@YAXPAVCWorld@@@Z 100fc0a0 f   VoiceHolder.obj
 0001:000fb0b0       ?CVoiceHolder_OnWorldInit@@YAXPAVCWorld@@@Z 100fc0b0 f   VoiceHolder.obj
 0001:000fb0c0       ?CVoiceHolder_OnWorldTick@@YAXPAVCWorld@@@Z 100fc0c0 f   VoiceHolder.obj
 0001:000fb0d0       ?CVoiceHolder_OnWorldRender@@YAXPAVCWorld@@@Z 100fc0d0 f   VoiceHolder.obj
 0001:000fb1a0       ?SetDefaultProperties@CVoiceHolder@@UAEXXZ 100fc1a0 f   VoiceHolder.obj
 0001:000fb270       ?Read_t@CVoiceHolder@@UAEXPAVCTStream@@@Z 100fc270 f   VoiceHolder.obj
 0001:000fb290       ?Write_t@CVoiceHolder@@UAEXPAVCTStream@@@Z 100fc290 f   VoiceHolder.obj
 0001:000fb2b0       ?Precache@CVoiceHolder@@UAEXXZ 100fc2b0 f   VoiceHolder.obj
 0001:000fb2d0       ?GetDescription@CVoiceHolder@@UBEABVCTString@@XZ 100fc2d0 f   VoiceHolder.obj
 0001:000fb350       ?Main@CVoiceHolder@@QAEHABVCEntityEvent@@@Z 100fc350 f   VoiceHolder.obj
 0001:000fb3f0       ?H0x00e70000_Main_01@CVoiceHolder@@QAEHABVCEntityEvent@@@Z 100fc3f0 f   VoiceHolder.obj
 0001:000fb5a0       ?H0x00e70001_Main_02@CVoiceHolder@@QAEHABVCEntityEvent@@@Z 100fc5a0 f   VoiceHolder.obj
 0001:000fb600       ?GetName@CVoiceHolder@@UBEABVCTString@@XZ 100fc600 f i VoiceHolder.obj
 0001:000fb610       ?IsTargetable@CVoiceHolder@@UBEHXZ 100fc610 f i VoiceHolder.obj
 0001:000fb620       ??_GCVoiceHolder@@UAEPAXI@Z 100fc620 f i VoiceHolder.obj
 0001:000fb620       ??_ECVoiceHolder@@UAEPAXI@Z 100fc620 f i VoiceHolder.obj
 0001:000fb650       ??1CVoiceHolder@@UAE@XZ    100fc650 f i VoiceHolder.obj
 0001:000fb890       ?CVoiceOver_New@@YAPAVCEntity@@XZ 100fc890 f   VoiceOver.obj
 0001:000fb960       ?CVoiceOver_OnInitClass@@YAXXZ 100fc960 f   VoiceOver.obj
 0001:000fb970       ?CVoiceOver_OnEndClass@@YAXXZ 100fc970 f   VoiceOver.obj
 0001:000fb980       ?CVoiceOver_OnPrecache@@YAXPAVCDLLEntityClass@@J@Z 100fc980 f   VoiceOver.obj
 0001:000fb990       ?CVoiceOver_OnWorldEnd@@YAXPAVCWorld@@@Z 100fc990 f   VoiceOver.obj
 0001:000fb9a0       ?CVoiceOver_OnWorldInit@@YAXPAVCWorld@@@Z 100fc9a0 f   VoiceOver.obj
 0001:000fb9b0       ?CVoiceOver_OnWorldTick@@YAXPAVCWorld@@@Z 100fc9b0 f   VoiceOver.obj
 0001:000fb9c0       ?CVoiceOver_OnWorldRender@@YAXPAVCWorld@@@Z 100fc9c0 f   VoiceOver.obj
 0001:000fba90       ?SetDefaultProperties@CVoiceOver@@UAEXXZ 100fca90 f   VoiceOver.obj
 0001:000fbaf0       ?Destroy@CVoiceOver@@UAEXXZ 100fcaf0 f   VoiceOver.obj
 0001:000fbc00       ?Copy@CVoiceOver@@UAEXAAVCEntity@@K@Z 100fcc00 f   VoiceOver.obj
 0001:000fbc20       ?Write_t@CVoiceOver@@UAEXPAVCTStream@@@Z 100fcc20 f   VoiceOver.obj
 0001:000fbca0       ?Read_t@CVoiceOver@@UAEXPAVCTStream@@@Z 100fcca0 f   VoiceOver.obj
 0001:000fbe80       ?PlayNextVoiceOver@CVoiceOver@@UAEXXZ 100fce80 f   VoiceOver.obj
 0001:000fbf50       ?LoadVoiceOverList@CVoiceOver@@UAEXXZ 100fcf50 f   VoiceOver.obj
 0001:000fc200       ?Main@CVoiceOver@@QAEHABVCEntityEvent@@@Z 100fd200 f   VoiceOver.obj
 0001:000fc270       ?H0x77240000_Main_01@CVoiceOver@@QAEHABVCEntityEvent@@@Z 100fd270 f   VoiceOver.obj
 0001:000fc290       ?H0x77240001_Main_02@CVoiceOver@@QAEHABVCEntityEvent@@@Z 100fd290 f   VoiceOver.obj
 0001:000fc2a0       ?GetName@CVoiceOver@@UBEABVCTString@@XZ 100fd2a0 f i VoiceOver.obj
 0001:000fc2b0       ??_GCVoiceOver@@UAEPAXI@Z  100fd2b0 f i VoiceOver.obj
 0001:000fc2b0       ??_ECVoiceOver@@UAEPAXI@Z  100fd2b0 f i VoiceOver.obj
 0001:000fc2e0       ??1CVoiceOver@@UAE@XZ      100fd2e0 f i VoiceOver.obj
 0001:000fc420       ??1?$CDynamicContainer@VCTString@@@@QAE@XZ 100fd420 f i VoiceOver.obj
 0001:000fc490       ??1?$CDynamicContainerIterator@VCTString@@@@QAE@XZ 100fd490 f i VoiceOver.obj
 0001:000fc4a0       ??1?$CDynamicContainerIterator@VCSoundData@@@@QAE@XZ 100fd4a0 f i VoiceOver.obj
 0001:000fc4b0       ??1?$CStaticStackArray@PAVCSoundData@@@@QAE@XZ 100fd4b0 f i VoiceOver.obj
 0001:000fc4e0       ??1?$CStaticStackArray@PAVCTString@@@@QAE@XZ 100fd4e0 f i VoiceOver.obj
 0001:000fc510       ?Expand@?$CStaticArray@PAVCSoundData@@@@QAEXJ@Z 100fd510 f i VoiceOver.obj
 0001:000fc590       ?Expand@?$CStaticArray@PAVCTString@@@@QAEXJ@Z 100fd590 f i VoiceOver.obj
 0001:000fc8e0       ?CWatchPlayers_New@@YAPAVCEntity@@XZ 100fd8e0 f   WatchPlayers.obj
 0001:000fc980       ?CWatchPlayers_OnInitClass@@YAXXZ 100fd980 f   WatchPlayers.obj
 0001:000fc990       ?CWatchPlayers_OnEndClass@@YAXXZ 100fd990 f   WatchPlayers.obj
 0001:000fc9a0       ?CWatchPlayers_OnPrecache@@YAXPAVCDLLEntityClass@@J@Z 100fd9a0 f   WatchPlayers.obj
 0001:000fc9b0       ?CWatchPlayers_OnWorldEnd@@YAXPAVCWorld@@@Z 100fd9b0 f   WatchPlayers.obj
 0001:000fc9c0       ?CWatchPlayers_OnWorldInit@@YAXPAVCWorld@@@Z 100fd9c0 f   WatchPlayers.obj
 0001:000fc9d0       ?CWatchPlayers_OnWorldTick@@YAXPAVCWorld@@@Z 100fd9d0 f   WatchPlayers.obj
 0001:000fc9e0       ?CWatchPlayers_OnWorldRender@@YAXPAVCWorld@@@Z 100fd9e0 f   WatchPlayers.obj
 0001:000fcab0       ?SetDefaultProperties@CWatchPlayers@@UAEXXZ 100fdab0 f   WatchPlayers.obj
 0001:000fcb70       ?IsAnyPlayerClose@CWatchPlayers@@QAEHXZ 100fdb70 f   WatchPlayers.obj
 0001:000fccc0       ?SendCloseEvent@CWatchPlayers@@QAEXXZ 100fdcc0 f   WatchPlayers.obj
 0001:000fcd00       ?SendFarEvent@CWatchPlayers@@QAEXXZ 100fdd00 f   WatchPlayers.obj
 0001:000fcd30       ?Main@CWatchPlayers@@QAEHABVCEntityEvent@@@Z 100fdd30 f   WatchPlayers.obj
 0001:000fce00       ?Active@CWatchPlayers@@QAEHABVCEntityEvent@@@Z 100fde00 f   WatchPlayers.obj
 0001:000fce60       ?H0x02be0001_Active_01@CWatchPlayers@@QAEHABVCEntityEvent@@@Z 100fde60 f   WatchPlayers.obj
 0001:000fcf00       ?H0x02be0002_Active_02@CWatchPlayers@@QAEHABVCEntityEvent@@@Z 100fdf00 f   WatchPlayers.obj
 0001:000fcf60       ?Inactive@CWatchPlayers@@QAEHABVCEntityEvent@@@Z 100fdf60 f   WatchPlayers.obj
 0001:000fcfd0       ?H0x02be0004_Inactive_01@CWatchPlayers@@QAEHABVCEntityEvent@@@Z 100fdfd0 f   WatchPlayers.obj
 0001:000fd040       ?H0x02be0005_Inactive_02@CWatchPlayers@@QAEHABVCEntityEvent@@@Z 100fe040 f   WatchPlayers.obj
 0001:000fd0a0       ?CloseWatch@CWatchPlayers@@QAEHABVCEntityEvent@@@Z 100fe0a0 f   WatchPlayers.obj
 0001:000fd100       ?H0x02be0009_CloseWatch_03@CWatchPlayers@@QAEHABVCEntityEvent@@@Z 100fe100 f   WatchPlayers.obj
 0001:000fd170       ?H0x02be0007_CloseWatch_01@CWatchPlayers@@QAEHABVCEntityEvent@@@Z 100fe170 f   WatchPlayers.obj
 0001:000fd220       ?H0x02be0008_CloseWatch_02@CWatchPlayers@@QAEHABVCEntityEvent@@@Z 100fe220 f   WatchPlayers.obj
 0001:000fd280       ?H0x02be000a_CloseWatch_04@CWatchPlayers@@QAEHABVCEntityEvent@@@Z 100fe280 f   WatchPlayers.obj
 0001:000fd290       ?FarWatch@CWatchPlayers@@QAEHABVCEntityEvent@@@Z 100fe290 f   WatchPlayers.obj
 0001:000fd2f0       ?H0x02be000e_FarWatch_03@CWatchPlayers@@QAEHABVCEntityEvent@@@Z 100fe2f0 f   WatchPlayers.obj
 0001:000fd360       ?H0x02be000c_FarWatch_01@CWatchPlayers@@QAEHABVCEntityEvent@@@Z 100fe360 f   WatchPlayers.obj
 0001:000fd410       ?H0x02be000d_FarWatch_02@CWatchPlayers@@QAEHABVCEntityEvent@@@Z 100fe410 f   WatchPlayers.obj
 0001:000fd470       ?H0x02be000f_FarWatch_04@CWatchPlayers@@QAEHABVCEntityEvent@@@Z 100fe470 f   WatchPlayers.obj
 0001:000fd480       ?GetName@CWatchPlayers@@UBEABVCTString@@XZ 100fe480 f i WatchPlayers.obj
 0001:000fd490       ?IsTargetable@CWatchPlayers@@UBEHXZ 100fe490 f i WatchPlayers.obj
 0001:000fd4a0       ??_ECWatchPlayers@@UAEPAXI@Z 100fe4a0 f i WatchPlayers.obj
 0001:000fd4a0       ??_GCWatchPlayers@@UAEPAXI@Z 100fe4a0 f i WatchPlayers.obj
 0001:000fd4d0       ??1CWatchPlayers@@UAE@XZ   100fe4d0 f i WatchPlayers.obj
 0001:000fd6e0       ?CWaterRinglet_New@@YAPAVCEntity@@XZ 100fe6e0 f   WaterRinglet.obj
 0001:000fd750       ?CWaterRinglet_OnInitClass@@YAXXZ 100fe750 f   WaterRinglet.obj
 0001:000fd760       ?CWaterRinglet_OnEndClass@@YAXXZ 100fe760 f   WaterRinglet.obj
 0001:000fd770       ?CWaterRinglet_OnPrecache@@YAXPAVCDLLEntityClass@@J@Z 100fe770 f   WaterRinglet.obj
 0001:000fd780       ?CWaterRinglet_OnWorldEnd@@YAXPAVCWorld@@@Z 100fe780 f   WaterRinglet.obj
 0001:000fd790       ?CWaterRinglet_OnWorldInit@@YAXPAVCWorld@@@Z 100fe790 f   WaterRinglet.obj
 0001:000fd7a0       ?CWaterRinglet_OnWorldTick@@YAXPAVCWorld@@@Z 100fe7a0 f   WaterRinglet.obj
 0001:000fd7b0       ?CWaterRinglet_OnWorldRender@@YAXPAVCWorld@@@Z 100fe7b0 f   WaterRinglet.obj
 0001:000fd880       ?SetDefaultProperties@CWaterRinglet@@UAEXXZ 100fe880 f   WaterRinglet.obj
 0001:000fd8c0       ?Precache@CWaterRinglet@@UAEXXZ 100fe8c0 f   WaterRinglet.obj
 0001:000fd8d0       ?Main@CWaterRinglet@@QAEHABVCEntityEvent@@@Z 100fe8d0 f   WaterRinglet.obj
 0001:000fd980       ?H0x7a270002_Main_03@CWaterRinglet@@QAEHABVCEntityEvent@@@Z 100fe980 f   WaterRinglet.obj
 0001:000fda10       ?H0x7a270000_Main_01@CWaterRinglet@@QAEHABVCEntityEvent@@@Z 100fea10 f   WaterRinglet.obj
 0001:000fdac0       ?H0x7a270001_Main_02@CWaterRinglet@@QAEHABVCEntityEvent@@@Z 100feac0 f   WaterRinglet.obj
 0001:000fdb20       ?H0x7a270003_Main_04@CWaterRinglet@@QAEHABVCEntityEvent@@@Z 100feb20 f   WaterRinglet.obj
 0001:000fdb80       ?GetName@CWaterRinglet@@UBEABVCTString@@XZ 100feb80 f i WaterRinglet.obj
 0001:000fdb90       ??_ECWaterRinglet@@UAEPAXI@Z 100feb90 f i WaterRinglet.obj
 0001:000fdb90       ??_GCWaterRinglet@@UAEPAXI@Z 100feb90 f i WaterRinglet.obj
 0001:000fdbc0       ??1CWaterRinglet@@UAE@XZ   100febc0 f i WaterRinglet.obj
 0001:000fe6e0       ?CWorldBase_New@@YAPAVCEntity@@XZ 100ff6e0 f   WorldBase.obj
 0001:000fe740       ?CWorldBase_OnPrecache@@YAXPAVCDLLEntityClass@@J@Z 100ff740 f   WorldBase.obj
 0001:000fe750       ?CWorldBase_OnWorldEnd@@YAXPAVCWorld@@@Z 100ff750 f   WorldBase.obj
 0001:000fe760       ?CWorldBase_OnWorldTick@@YAXPAVCWorld@@@Z 100ff760 f   WorldBase.obj
 0001:000fe970       ?FindStats@@YAPAUEntityStats@@ABVCTString@@@Z 100ff970 f   WorldBase.obj
 0001:000fea00       ?SetPyramidPlateActivateAlpha@@YAXPAVCWorld@@JMMH@Z 100ffa00 f   WorldBase.obj
 0001:000fec20       ?SetPyramidMorphRoomAlpha@@YAXPAVCWorld@@JM@Z 100ffc20 f   WorldBase.obj
 0001:000feda0       ?CWorldBase_OnWorldInit@@YAXPAVCWorld@@@Z 100ffda0 f   WorldBase.obj
 0001:00100c10       ?CWorldBase_OnWorldRender@@YAXPAVCWorld@@@Z 10101c10 f   WorldBase.obj
 0001:00101390       ?CWorldBase_OnInitClass@@YAXXZ 10102390 f   WorldBase.obj
 0001:00101470       ?CWorldBase_OnEndClass@@YAXXZ 10102470 f   WorldBase.obj
 0001:00101ab0       ?GetDefaultForce@@YAXJABV?$Vector@M$02@@AAVCForceStrength@@1@Z 10102ab0 f   WorldBase.obj
 0001:00101b00       ?SetDefaultProperties@CWorldBase@@UAEXXZ 10102b00 f   WorldBase.obj
 0001:00101e40       ?GetVisTweaks@CWorldBase@@UAEKXZ 10102e40 f   WorldBase.obj
 0001:00101e50       ?IsTargetValid@CWorldBase@@UAEHJPAVCEntity@@@Z 10102e50 f   WorldBase.obj
 0001:00102060       ?GetForceName@CWorldBase@@UAEABVCTString@@J@Z 10103060 f   WorldBase.obj
 0001:00102150       ?GetForce@CWorldBase@@UAEXJABV?$Vector@M$02@@AAVCForceStrength@@1@Z 10103150 f   WorldBase.obj
 0001:00102200       ?GetForceController@CWorldBase@@UAEPAVCEntity@@J@Z 10103200 f   WorldBase.obj
 0001:00102240       ?GetFogName@CWorldBase@@UAEABVCTString@@J@Z 10103240 f   WorldBase.obj
 0001:00102300       ?GetFog@CWorldBase@@UAEHJAAVCFogParameters@@@Z 10103300 f   WorldBase.obj
 0001:00102330       ?GetHazeName@CWorldBase@@UAEABVCTString@@J@Z 10103330 f   WorldBase.obj
 0001:001023f0       ?GetHaze@CWorldBase@@UAEHJAAVCHazeParameters@@AAV?$Vector@M$02@@@Z 101033f0 f   WorldBase.obj
 0001:00102430       ?GetMirrorName@CWorldBase@@UAEABVCTString@@J@Z 10103430 f   WorldBase.obj
 0001:00102730       ?GetMirror@CWorldBase@@UAEHJAAVCMirrorParameters@@@Z 10103730 f   WorldBase.obj
 0001:00102790       ?GetGradientName@CWorldBase@@UAEABVCTString@@J@Z 10103790 f   WorldBase.obj
 0001:00102850       ?UncacheShadowsForGradient@CWorldBase@@QAEXPAVCGradientMarker@@@Z 10103850 f   WorldBase.obj
 0001:00102890       ?GetGradient@CWorldBase@@UAEHJAAVCGradientParameters@@@Z 10103890 f   WorldBase.obj
 0001:001028d0       ?HandleEvent@CWorldBase@@UAEHABVCEntityEvent@@@Z 101038d0 f   WorldBase.obj
 0001:001029a0       ?Main@CWorldBase@@QAEHABVCEntityEvent@@@Z 101039a0 f   WorldBase.obj
 0001:00102b10       ??0CWorldBase@@QAE@XZ      10103b10 f i WorldBase.obj
 0001:00102c90       ?GetName@CWorldBase@@UBEABVCTString@@XZ 10103c90 f i WorldBase.obj
 0001:00102ca0       ?GetDescription@CWorldBase@@UBEABVCTString@@XZ 10103ca0 f i WorldBase.obj
 0001:00102cb0       ??_GCWorldBase@@UAEPAXI@Z  10103cb0 f i WorldBase.obj
 0001:00102cb0       ??_ECWorldBase@@UAEPAXI@Z  10103cb0 f i WorldBase.obj
 0001:00102ce0       ??1CWorldBase@@UAE@XZ      10103ce0 f i WorldBase.obj
 0001:00103110       ??1EntityStats@@QAE@XZ     10104110 f i WorldBase.obj
 0001:00103120       ??0CFixedForce@@QAE@VCTString@@V?$Vector@M$02@@MM@Z 10104120 f i WorldBase.obj
 0001:001031c0       ??1CFixedForce@@QAE@XZ     101041c0 f i WorldBase.obj
 0001:001031d0       ??0?$Vector@M$02@@QAE@MMM@Z 101041d0 f i WorldBase.obj
 0001:001031f0       ??1?$CDynamicArrayIterator@UEntityStats@@@@QAE@XZ 101041f0 f i WorldBase.obj
 0001:00103200       ??_EEntityStats@@QAEPAXI@Z 10104200 f i WorldBase.obj
 0001:00103260       ?GrowPointers@?$CDynamicArray@UEntityStats@@@@QAEXJ@Z 10104260 f i WorldBase.obj
 0001:001032b0       ?AllocBlock@?$CDynamicArray@UEntityStats@@@@QAEPAUEntityStats@@J@Z 101042b0 f i WorldBase.obj
 0001:00103360       ??0EntityStats@@QAE@XZ     10104360 f i WorldBase.obj
 0001:00103510       ?CWorldLink_New@@YAPAVCEntity@@XZ 10104510 f   WorldLink.obj
 0001:001035e0       ?CWorldLink_OnInitClass@@YAXXZ 101045e0 f   WorldLink.obj
 0001:001035f0       ?CWorldLink_OnEndClass@@YAXXZ 101045f0 f   WorldLink.obj
 0001:00103600       ?CWorldLink_OnPrecache@@YAXPAVCDLLEntityClass@@J@Z 10104600 f   WorldLink.obj
 0001:00103610       ?CWorldLink_OnWorldEnd@@YAXPAVCWorld@@@Z 10104610 f   WorldLink.obj
 0001:00103620       ?CWorldLink_OnWorldInit@@YAXPAVCWorld@@@Z 10104620 f   WorldLink.obj
 0001:00103630       ?CWorldLink_OnWorldTick@@YAXPAVCWorld@@@Z 10104630 f   WorldLink.obj
 0001:00103640       ?CWorldLink_OnWorldRender@@YAXPAVCWorld@@@Z 10104640 f   WorldLink.obj
 0001:001036a0       ?SetDefaultProperties@CWorldLink@@UAEXXZ 101046a0 f   WorldLink.obj
 0001:00103710       ?HandleEvent@CWorldLink@@UAEHABVCEntityEvent@@@Z 10104710 f   WorldLink.obj
 0001:001037f0       ?Main@CWorldLink@@QAEHABVCEntityEvent@@@Z 101047f0 f   WorldLink.obj
 0001:00103860       ?IsImportant@CWorldLink@@UBEHXZ 10104860 f i WorldLink.obj
 0001:00103870       ??_ECWorldLink@@UAEPAXI@Z  10104870 f i WorldLink.obj
 0001:00103870       ??_GCWorldLink@@UAEPAXI@Z  10104870 f i WorldLink.obj
 0001:001038a0       ??1CWorldLink@@UAE@XZ      101048a0 f i WorldLink.obj
 0001:00104450       ?CWorldSettingsController_New@@YAPAVCEntity@@XZ 10105450 f   WorldSettingsController.obj
 0001:001045a0       ?CWorldSettingsController_OnInitClass@@YAXXZ 101055a0 f   WorldSettingsController.obj
 0001:001045b0       ?CWorldSettingsController_OnEndClass@@YAXXZ 101055b0 f   WorldSettingsController.obj
 0001:001045c0       ?CWorldSettingsController_OnPrecache@@YAXPAVCDLLEntityClass@@J@Z 101055c0 f   WorldSettingsController.obj
 0001:001045d0       ?CWorldSettingsController_OnWorldEnd@@YAXPAVCWorld@@@Z 101055d0 f   WorldSettingsController.obj
 0001:001045e0       ?CWorldSettingsController_OnWorldInit@@YAXPAVCWorld@@@Z 101055e0 f   WorldSettingsController.obj
 0001:001045f0       ?CWorldSettingsController_OnWorldTick@@YAXPAVCWorld@@@Z 101055f0 f   WorldSettingsController.obj
 0001:00104600       ?CWorldSettingsController_OnWorldRender@@YAXPAVCWorld@@@Z 10105600 f   WorldSettingsController.obj
 0001:001046d0       ?SetDefaultProperties@CWorldSettingsController@@UAEXXZ 101056d0 f   WorldSettingsController.obj
 0001:00104b30       ?GetType@CWorldSettingsController@@UAEJXZ 10105b30 f   WorldSettingsController.obj
 0001:00104b40       ?Write_t@CWorldSettingsController@@UAEXPAVCTStream@@@Z 10105b40 f   WorldSettingsController.obj
 0001:00104b60       ?Read_t@CWorldSettingsController@@UAEXPAVCTStream@@@Z 10105b60 f   WorldSettingsController.obj
 0001:00104bc0       ?Precache@CWorldSettingsController@@UAEXXZ 10105bc0 f   WorldSettingsController.obj
 0001:00104be0       ?GetTimeOfWeatherDay@CWorldSettingsController@@QAEMXZ 10105be0 f   WorldSettingsController.obj
 0001:00104c50       ?GetWeatherSpeed@CWorldSettingsController@@QAEMXZ 10105c50 f   WorldSettingsController.obj
 0001:00104c80       ?ConvertWeatherTimeToGameTime@CWorldSettingsController@@QAEMM@Z 10105c80 f   WorldSettingsController.obj
 0001:00104cf0       ?GetStormFactor@CWorldSettingsController@@QAEMXZ 10105cf0 f   WorldSettingsController.obj
 0001:00104db0       ?GetStormType@CWorldSettingsController@@QAEJXZ 10105db0 f   WorldSettingsController.obj
 0001:00104dc0       ?SetStormType@CWorldSettingsController@@QAEXJ@Z 10105dc0 f   WorldSettingsController.obj
 0001:00104dd0       ?SetWindSpeed@CWorldSettingsController@@QAEXM@Z 10105dd0 f   WorldSettingsController.obj
 0001:00104de0       ?GetWindSpeed@CWorldSettingsController@@QAEMXZ 10105de0 f   WorldSettingsController.obj
 0001:00104df0       ?SetWindAngle@CWorldSettingsController@@QAEXM@Z 10105df0 f   WorldSettingsController.obj
 0001:00104e00       ?GetWindAngle@CWorldSettingsController@@QAEMXZ 10105e00 f   WorldSettingsController.obj
 0001:00104e10       ?GetSunAngle@CWorldSettingsController@@QAE?AV?$Vector@M$02@@XZ 10105e10 f   WorldSettingsController.obj
 0001:00104e40       ?SetSunAngle@CWorldSettingsController@@QAEXV?$Vector@M$02@@@Z 10105e40 f   WorldSettingsController.obj
 0001:00104e60       ?GetHeightMapData@CWorldSettingsController@@QAEXAAPAVCTextureData@@AAV?$AABBox@M$02@@@Z 10105e60 f   WorldSettingsController.obj
 0001:00104e90       ?Main@CWorldSettingsController@@QAEHABVCEntityEvent@@@Z 10105e90 f   WorldSettingsController.obj
 0001:00104fa0       ?IsTargetable@CWorldSettingsController@@UBEHXZ 10105fa0 f i WorldSettingsController.obj
 0001:00104fb0       ?GetName@CWorldSettingsController@@UBEABVCTString@@XZ 10105fb0 f i WorldSettingsController.obj
 0001:00104fc0       ?IsImportant@CWorldSettingsController@@UBEHXZ 10105fc0 f i WorldSettingsController.obj
 0001:00104fd0       ??_ECWorldSettingsController@@UAEPAXI@Z 10105fd0 f i WorldSettingsController.obj
 0001:00104fd0       ??_GCWorldSettingsController@@UAEPAXI@Z 10105fd0 f i WorldSettingsController.obj
 0001:00105000       ??1CWorldSettingsController@@UAE@XZ 10106000 f i WorldSettingsController.obj
 0001:00105480       ?CZone_New@@YAPAVCEntity@@XZ 10106480 f   Zone.obj
 0001:00105520       ?CZone_OnInitClass@@YAXXZ  10106520 f   Zone.obj
 0001:00105530       ?CZone_OnEndClass@@YAXXZ   10106530 f   Zone.obj
 0001:00105540       ?CZone_OnPrecache@@YAXPAVCDLLEntityClass@@J@Z 10106540 f   Zone.obj
 0001:00105550       ?CZone_OnWorldEnd@@YAXPAVCWorld@@@Z 10106550 f   Zone.obj
 0001:00105560       ?CZone_OnWorldInit@@YAXPAVCWorld@@@Z 10106560 f   Zone.obj
 0001:00105570       ?CZone_OnWorldTick@@YAXPAVCWorld@@@Z 10106570 f   Zone.obj
 0001:00105580       ?CZone_OnWorldRender@@YAXPAVCWorld@@@Z 10106580 f   Zone.obj
 0001:00105650       ?SetDefaultProperties@CZone@@UAEXXZ 10106650 f   Zone.obj
 0001:00105740       ?GetType@CZone@@UAEJXZ     10106740 f   Zone.obj
 0001:00105750       ?GetFlags@CZone@@QAEKXZ    10106750 f   Zone.obj
 0001:00105760       ?IsZoneType@CZone@@QAEHW4eZoneType@@@Z 10106760 f   Zone.obj
 0001:00105790       ?IsDeerSpecies@CZone@@QAEHW4eDeerSpecies@@@Z 10106790 f   Zone.obj
 0001:001057c0       ?IsFowlSpecies@CZone@@QAEHW4eFowlSpecies@@@Z 101067c0 f   Zone.obj
 0001:001057f0       ?IsUplandSpecies@CZone@@QAEHW4eUplandSpecies@@@Z 101067f0 f   Zone.obj
 0001:00105820       ?IsMiscBirdSpecies@CZone@@QAEHW4eMiscBirdSpecies@@@Z 10106820 f   Zone.obj
 0001:00105850       ?IsAASpecies@CZone@@QAEHW4eDeerSpecies@@@Z 10106850 f   Zone.obj
 0001:00105880       ?GetDescription@CZone@@UBEABVCTString@@XZ 10106880 f   Zone.obj
 0001:001059d0       ?SetupFieldSettings@CZone@@QAEXXZ 101069d0 f   Zone.obj
 0001:00105a00       ?GetFieldSettings@CZone@@UAEPAVCFieldSettings@@XZ 10106a00 f   Zone.obj
 0001:00105a20       ?GetZoneBBox@CZone@@QAEXAAV?$AABBox@M$02@@@Z 10106a20 f   Zone.obj
 0001:00105a50       ?Read_t@CZone@@UAEXPAVCTStream@@@Z 10106a50 f   Zone.obj
 0001:00105a80       ?Main@CZone@@QAEHABVCEntityEvent@@@Z 10106a80 f   Zone.obj
 0001:00105b20       ?H0x78220002_Main_03@CZone@@QAEHABVCEntityEvent@@@Z 10106b20 f   Zone.obj
 0001:00105b90       ?H0x78220000_Main_01@CZone@@QAEHABVCEntityEvent@@@Z 10106b90 f   Zone.obj
 0001:00105bc0       ?H0x78220001_Main_02@CZone@@QAEHABVCEntityEvent@@@Z 10106bc0 f   Zone.obj
 0001:00105c20       ?H0x78220003_Main_04@CZone@@QAEHABVCEntityEvent@@@Z 10106c20 f   Zone.obj
 0001:00105c80       ?GetName@CZone@@UBEABVCTString@@XZ 10106c80 f i Zone.obj
 0001:00105c90       ?IsTargetable@CZone@@UBEHXZ 10106c90 f i Zone.obj
 0001:00105ca0       ??_ECZone@@UAEPAXI@Z       10106ca0 f i Zone.obj
 0001:00105ca0       ??_GCZone@@UAEPAXI@Z       10106ca0 f i Zone.obj
 0001:00105cd0       ??1CZone@@UAE@XZ           10106cd0 f i Zone.obj
 0001:00106390       ?CBFly_New@@YAPAVCEntity@@XZ 10107390 f   BFly.obj
 0001:001063f0       ?CBFly_OnPrecache@@YAXPAVCDLLEntityClass@@J@Z 101073f0 f   BFly.obj
 0001:00106400       ?CBFly_OnWorldEnd@@YAXPAVCWorld@@@Z 10107400 f   BFly.obj
 0001:00106410       ?CBFly_OnWorldInit@@YAXPAVCWorld@@@Z 10107410 f   BFly.obj
 0001:00106420       ?CBFly_OnWorldTick@@YAXPAVCWorld@@@Z 10107420 f   BFly.obj
 0001:00106430       ?CBFly_OnWorldRender@@YAXPAVCWorld@@@Z 10107430 f   BFly.obj
 0001:00106500       ?CBFly_OnInitClass@@YAXXZ  10107500 f   BFly.obj
 0001:00106510       ?CBFly_OnEndClass@@YAXXZ   10107510 f   BFly.obj
 0001:00106520       ?SetDefaultProperties@CBFly@@UAEXXZ 10107520 f   BFly.obj
 0001:00106720       ??0CBFly@@QAE@XZ           10107720 f   BFly.obj
 0001:001067d0       ??1CBFly@@UAE@XZ           101077d0 f   BFly.obj
 0001:001068d0       ?Copy@CBFly@@UAEXAAVCEntity@@K@Z 101078d0 f   BFly.obj
 0001:00106900       ?Write_t@CBFly@@UAEXPAVCTStream@@@Z 10107900 f   BFly.obj
 0001:001069b0       ?Read_t@CBFly@@UAEXPAVCTStream@@@Z 101079b0 f   BFly.obj
 0001:00106ab0       ?RenderParticles@CBFly@@UAEXXZ 10107ab0 f   BFly.obj
 0001:00107520       ?SelectRandomDesination@CBFly@@QAEXXZ 10108520 f   BFly.obj
 0001:00107600       ?Think@CBFly@@QAEXXZ       10108600 f   BFly.obj
 0001:001077b0       ?Update@CBFly@@QAEXXZ      101087b0 f   BFly.obj
 0001:00107f30       ?Main@CBFly@@QAEHABVCEntityEvent@@@Z 10108f30 f   BFly.obj
 0001:00108060       ?H0x762c0000_Main_01@CBFly@@QAEHABVCEntityEvent@@@Z 10109060 f   BFly.obj
 0001:001080e0       ?H0x762c0001_Main_02@CBFly@@QAEHABVCEntityEvent@@@Z 101090e0 f   BFly.obj
 0001:001081c0       ?H0x762c0004_Main_05@CBFly@@QAEHABVCEntityEvent@@@Z 101091c0 f   BFly.obj
 0001:00108250       ?H0x762c0002_Main_03@CBFly@@QAEHABVCEntityEvent@@@Z 10109250 f   BFly.obj
 0001:00108310       ?H0x762c0003_Main_04@CBFly@@QAEHABVCEntityEvent@@@Z 10109310 f   BFly.obj
 0001:00108370       ?H0x762c0005_Main_06@CBFly@@QAEHABVCEntityEvent@@@Z 10109370 f   BFly.obj
 0001:001083d0       ?GetName@CBFly@@UBEABVCTString@@XZ 101093d0 f i BFly.obj
 0001:001083e0       ?GetDescription@CBFly@@UBEABVCTString@@XZ 101093e0 f i BFly.obj
 0001:001083f0       ??_ECBFly@@UAEPAXI@Z       101093f0 f i BFly.obj
 0001:001083f0       ??_GCBFly@@UAEPAXI@Z       101093f0 f i BFly.obj
 0001:001089d0       ?CBirdAnimator_New@@YAPAVCEntity@@XZ 101099d0 f   BirdAnimator.obj
 0001:00108a70       ?CBirdAnimator_OnInitClass@@YAXXZ 10109a70 f   BirdAnimator.obj
 0001:00108a80       ?CBirdAnimator_OnEndClass@@YAXXZ 10109a80 f   BirdAnimator.obj
