 GameEXE

 Timestamp is 3d6fd3ce (Fri Aug 30 15:21:34 2002)

 Preferred load address is 00400000

 Start         Length     Name                   Class
 0001:00000000 000c6fbeH .text                   CODE
 0001:000c6fc0 0000e5a5H .text$x                 CODE
 0002:00000000 00000660H .idata$5                DATA
 0002:00000660 0000212cH .rdata                  DATA
 0002:00002790 00000044H .rdata$r                DATA
 0002:000027d8 0000ed58H .xdata$x                DATA
 0002:00011530 000000b4H .idata$2                DATA
 0002:000115e4 00000014H .idata$3                DATA
 0002:000115f8 00000660H .idata$4                DATA
 0002:00011c58 000032e6H .idata$6                DATA
 0002:00014f3e 00000000H .edata                  DATA
 0003:00000000 00000004H .CRT$XCA                DATA
 0003:00000004 00002950H .CRT$XCU                DATA
 0003:00002954 00000004H .CRT$XCZ                DATA
 0003:00002958 00000004H .CRT$XIA                DATA
 0003:0000295c 00000004H .CRT$XIZ                DATA
 0003:00002960 00018274H .data                   DATA
 0003:0001abd8 0002ef50H .bss                    DATA
 0004:00000000 00000238H .rsrc$01                DATA
 0004:00000240 000b5410H .rsrc$02                DATA

  Address         Publics by Value              Rva+Base     Lib:Object

 0001:00000000       ?DeleteInfoFile@@YAXABVCTFileName@@@Z 00401000 f   FileData.obj
 0001:00000050       ?DeleteFolder@@YAXABVCTFileName@@@Z 00401050 f   FileData.obj
 0001:000000e0       ??0CFileData@@QAE@XZ       004010e0 f   FileData.obj
 0001:000003d0       ??1CFileData@@UAE@XZ       004013d0 f   FileData.obj
 0001:000006d0       ?Initialize@CFileData@@QAEXXZ 004016d0 f   FileData.obj
 0001:000007b0       ?IsPathMPCapable@CFileData@@QAEHVCTFileName@@@Z 004017b0 f   FileData.obj
 0001:00000890       ?RefreshGuns@CFileData@@QAEXVCTString@@@Z 00401890 f   FileData.obj
 0001:00000af0       ?DumpGuns@CFileData@@QAEXXZ 00401af0 f   FileData.obj
 0001:00000b40       ?_IsGunMPCapable@CFileData@@AAEHPAVCInfoFile@@@Z 00401b40 f   FileData.obj
 0001:00000d20       ?RefreshHunters@CFileData@@QAEXXZ 00401d20 f   FileData.obj
 0001:00000fa0       ?DumpHunters@CFileData@@QAEXXZ 00401fa0 f   FileData.obj
 0001:00000ff0       ?_IsHunterMPCapable@CFileData@@AAEHPAVCInfoFile@@@Z 00401ff0 f   FileData.obj
 0001:00001610       ?RefreshDogs@CFileData@@QAEXVCTString@@@Z 00402610 f   FileData.obj
 0001:00001870       ?DumpDogs@CFileData@@QAEXXZ 00402870 f   FileData.obj
 0001:000018c0       ?_IsDogMPCapable@CFileData@@AAEHPAVCInfoFile@@@Z 004028c0 f   FileData.obj
 0001:000018d0       ?RefreshBaseHunters@CFileData@@QAEXXZ 004028d0 f   FileData.obj
 0001:00001ca0       ?DumpBaseHunters@CFileData@@QAEXXZ 00402ca0 f   FileData.obj
 0001:00001cf0       ?_IsBaseHunterMPCapable@CFileData@@AAEHPAVCInfoFile@@@Z 00402cf0 f   FileData.obj
 0001:000020c0       ?RefreshBaseDogs@CFileData@@QAEXXZ 004030c0 f   FileData.obj
 0001:00002490       ?DumpBaseDogs@CFileData@@QAEXXZ 00403490 f   FileData.obj
 0001:000024e0       ?_IsBaseDogMPCapable@CFileData@@AAEHPAVCInfoFile@@@Z 004034e0 f   FileData.obj
 0001:000024f0       ?RefreshBaseGuns@CFileData@@QAEXXZ 004034f0 f   FileData.obj
 0001:000028a0       ?DumpBaseGuns@CFileData@@QAEXXZ 004038a0 f   FileData.obj
 0001:000028f0       ?_IsBaseGunMPCapable@CFileData@@AAEHPAVCInfoFile@@@Z 004038f0 f   FileData.obj
 0001:00002db0       ?RefreshReticles@CFileData@@QAEXXZ 00403db0 f   FileData.obj
 0001:00003150       ?DumpReticles@CFileData@@QAEXXZ 00404150 f   FileData.obj
 0001:000031a0       ?RefreshPlayerSkins@CFileData@@QAEXVCTFileName@@@Z 004041a0 f   FileData.obj
 0001:00003650       ?DumpPlayerSkins@CFileData@@QAEXXZ 00404650 f   FileData.obj
 0001:000036a0       ?RefreshGunSkins@CFileData@@QAEXVCTFileName@@@Z 004046a0 f   FileData.obj
 0001:00003b50       ?DumpGunSkins@CFileData@@QAEXXZ 00404b50 f   FileData.obj
 0001:00003ba0       ?_AddGunSkins@CFileData@@AAEXPAVCInfoFile@@@Z 00404ba0 f   FileData.obj
 0001:00004200       ?RefreshDHGunSkins@CFileData@@QAEXVCTFileName@@@Z 00405200 f   FileData.obj
 0001:000044b0       ?DumpDHGunSkins@CFileData@@QAEXXZ 004054b0 f   FileData.obj
 0001:00004540       ?RefreshAmmoInfo@CFileData@@QAEXXZ 00405540 f   FileData.obj
 0001:000048f0       ?DumpAmmoInfo@CFileData@@QAEXXZ 004058f0 f   FileData.obj
 0001:00004940       ?GetGunInfo@CFileData@@QAEPAVCInfoFile@@JH@Z 00405940 f   FileData.obj
 0001:00004990       ?GetHunterInfo@CFileData@@QAEPAVCInfoFile@@JH@Z 00405990 f   FileData.obj
 0001:000049e0       ?GetDogInfo@CFileData@@QAEPAVCInfoFile@@JH@Z 004059e0 f   FileData.obj
 0001:00004a30       ?GetBaseDogInfo@CFileData@@QAEPAVCInfoFile@@JH@Z 00405a30 f   FileData.obj
 0001:00004a80       ?GetBaseGunInfo@CFileData@@QAEPAVCInfoFile@@JH@Z 00405a80 f   FileData.obj
 0001:00004ad0       ?GetBaseHunterInfo@CFileData@@QAEPAVCInfoFile@@JH@Z 00405ad0 f   FileData.obj
 0001:00004b20       ?GetBaseHunterInfo@CFileData@@QAEPAVCInfoFile@@VCTString@@@Z 00405b20 f   FileData.obj
 0001:00004bd0       ?GetReticleName@CFileData@@QAE?AVCTFileName@@JH@Z 00405bd0 f   FileData.obj
 0001:00004c70       ?GetGunSkinName@CFileData@@QAE?AVCTFileName@@JH@Z 00405c70 f   FileData.obj
 0001:00004d10       ?GetGunTopSkinName@CFileData@@QAE?AVCTFileName@@JH@Z 00405d10 f   FileData.obj
 0001:00004db0       ?GetGunSideSkinName@CFileData@@QAE?AVCTFileName@@JH@Z 00405db0 f   FileData.obj
 0001:00004e50       ?GetGunIconSkinName@CFileData@@QAE?AVCTFileName@@JH@Z 00405e50 f   FileData.obj
 0001:00004ef0       ?GetPlayerSkinName@CFileData@@QAE?AVCTFileName@@JH@Z 00405ef0 f   FileData.obj
 0001:00004f90       ?_AddToArray@CFileData@@AAEPAPAXPAPAXPAXAAJ2H@Z 00405f90 f   FileData.obj
 0001:00004fd0       ?_ResizeArray@CFileData@@AAEPAPAXAAJPAPAX@Z 00405fd0 f   FileData.obj
 0001:00005030       ?GetAmmoInfo@CFileData@@QAEPAVCInfoFile@@JH@Z 00406030 f   FileData.obj
 0001:00005080       ?GetAmmoInfo@CFileData@@QAEPAVCInfoFile@@VCTString@@@Z 00406080 f   FileData.obj
 0001:00005130       ?GetGunInfo@CFileData@@QAEPAVCInfoFile@@VCTString@@@Z 00406130 f   FileData.obj
 0001:000051e0       ?GetHunterInfo@CFileData@@QAEPAVCInfoFile@@VCTString@@@Z 004061e0 f   FileData.obj
 0001:00005290       ?GetHunterIndex@CFileData@@QAEJABVCTString@@@Z 00406290 f   FileData.obj
 0001:000052e0       ?GetDogInfo@CFileData@@QAEPAVCInfoFile@@VCTString@@@Z 004062e0 f   FileData.obj
 0001:00005390       ?GetDogIndex@CFileData@@QAEJABVCTString@@@Z 00406390 f   FileData.obj
 0001:000053e0       ?GetBaseDogInfo@CFileData@@QAEPAVCInfoFile@@VCTString@@@Z 004063e0 f   FileData.obj
 0001:00005490       ?GetBaseGunInfo@CFileData@@QAEPAVCInfoFile@@VCTString@@@Z 00406490 f   FileData.obj
 0001:00005540       ?CreateNewHunter@CFileData@@QAEPAVCInfoFile@@XZ 00406540 f   FileData.obj
 0001:000058a0       ?DeleteHunter@CFileData@@QAEXVCTString@@@Z 004068a0 f   FileData.obj
 0001:00005a00       ?CreateNewGun@CFileData@@QAEPAVCInfoFile@@VCTString@@@Z 00406a00 f   FileData.obj
 0001:00005de0       ?DeleteGun@CFileData@@QAEXVCTString@@@Z 00406de0 f   FileData.obj
 0001:00005e60       ?GetNextDogFileName@CFileData@@QAE?AVCTString@@V2@@Z 00406e60 f   FileData.obj
 0001:00006050       ?DeleteDog@CFileData@@QAEXVCTString@@@Z 00407050 f   FileData.obj
 0001:000060d0       ?RefreshScopeSkins@CFileData@@QAEXXZ 004070d0 f   FileData.obj
 0001:000063a0       ?DumpScopeSkins@CFileData@@QAEXXZ 004073a0 f   FileData.obj
 0001:000063f0       ?RefreshVehicleSkins@CFileData@@QAEXJ@Z 004073f0 f   FileData.obj
 0001:00007440       ?DumpVehicleSkins@CFileData@@QAEXXZ 00408440 f   FileData.obj
 0001:00007490       ?GetScopeSkinName@CFileData@@QAE?AVCTFileName@@JH@Z 00408490 f   FileData.obj
 0001:00007530       ?GetVehicleSkinName@CFileData@@QAE?AVCTFileName@@JH@Z 00408530 f   FileData.obj
 0001:000075d0       ?MoveGameBagToLogbook@CFileData@@QAEHABVCTString@@AAV2@@Z 004085d0 f   FileData.obj
 0001:000078f0       ?LoadLogbookData@CFileData@@QAEXABVCTString@@@Z 004088f0 f   FileData.obj
 0001:00007e00       ?DumpLogbookData@CFileData@@QAEXXZ 00408e00 f   FileData.obj
 0001:00007e60       ?GetLogbookInfo@CFileData@@QAEPAVCInfoFile@@J@Z 00408e60 f   FileData.obj
 0001:00007e90       ?GetLogbookIndex@CFileData@@QAEJABVCTString@@@Z 00408e90 f   FileData.obj
 0001:00007ee0       ?ExportLogbook@CFileData@@QAEHABVCTString@@0AAV2@@Z 00408ee0 f   FileData.obj
 0001:00008140       ?NukeDirectory@@YAXABVCTString@@@Z 00409140 f   FileData.obj
 0001:00008440       ??_ECFileData@@UAEPAXI@Z   00409440 f i FileData.obj
 0001:00008440       ??_GCFileData@@UAEPAXI@Z   00409440 f i FileData.obj
 0001:00008470       ?GrowPointers@?$CDynamicArray@VCInfoEntry@@@@QAEXJ@Z 00409470 f i FileData.obj
 0001:000084c0       ?ShrinkPointers@?$CDynamicArray@VCInfoEntry@@@@QAEXJ@Z 004094c0 f i FileData.obj
 0001:00008510       ?AllocBlock@?$CDynamicArray@VCInfoEntry@@@@QAEPAVCInfoEntry@@J@Z 00409510 f i FileData.obj
 0001:000085c0       ?GetIndex@?$CDynamicArray@VCInfoEntry@@@@QAEJPAVCInfoEntry@@@Z 004095c0 f i FileData.obj
 0001:000085f0       ??0?$CDynamicArray@VCInfoEntry@@@@QAE@AAV0@@Z 004095f0 f i FileData.obj
 0001:00008710       ??0?$CDynamicArray@VCInfoEntry@@@@QAE@XZ 00409710 f i FileData.obj
 0001:00008730       ??1?$CDynamicArray@VCInfoEntry@@@@QAE@XZ 00409730 f i FileData.obj
 0001:000087c0       ?Clear@CInfoEntry@@QAEXXZ  004097c0 f i FileData.obj
 0001:00008860       ?New@?$CDynamicArray@VCInfoEntry@@@@QAEPAVCInfoEntry@@J@Z 00409860 f i FileData.obj
 0001:000088f0       ?Delete@?$CDynamicArray@VCInfoEntry@@@@QAEXPAVCInfoEntry@@@Z 004098f0 f i FileData.obj
 0001:00008970       ?Clear@?$CDynamicArray@VCInfoEntry@@@@QAEXXZ 00409970 f i FileData.obj
 0001:00008a00       ?Pointer@?$CDynamicArray@VCInfoEntry@@@@QBEPBVCInfoEntry@@J@Z 00409a00 f i FileData.obj
 0001:00008a10       ?Pointer@?$CDynamicArray@VCInfoEntry@@@@QAEPAVCInfoEntry@@J@Z 00409a10 f i FileData.obj
 0001:00008a20       ??A?$CDynamicArray@VCInfoEntry@@@@QBEABVCInfoEntry@@J@Z 00409a20 f i FileData.obj
 0001:00008a30       ??A?$CDynamicArray@VCInfoEntry@@@@QAEAAVCInfoEntry@@J@Z 00409a30 f i FileData.obj
 0001:00008a40       ??4?$CDynamicArray@VCInfoEntry@@@@QAEAAV0@AAV0@@Z 00409a40 f i FileData.obj
 0001:00008bd0       ?MoveArray@?$CDynamicArray@VCInfoEntry@@@@QAEXAAV1@@Z 00409bd0 f i FileData.obj
 0001:00008c80       ?Lock@?$CDynamicArray@VCInfoEntry@@@@QAEXXZ 00409c80 f i FileData.obj
 0001:00008c90       ?Unlock@?$CDynamicArray@VCInfoEntry@@@@QAEXXZ 00409c90 f i FileData.obj
 0001:00008ca0       ?Index@?$CDynamicArray@VCInfoEntry@@@@QAEJPAVCInfoEntry@@@Z 00409ca0 f i FileData.obj
 0001:00008cd0       ?Count@?$CDynamicArray@VCInfoEntry@@@@QBEJXZ 00409cd0 f i FileData.obj
 0001:00008ce0       ??1?$CDynamicStackArray@VCTFileName@@@@QAE@XZ 00409ce0 f i FileData.obj
 0001:00008da0       ??_H@YGXPAXIHP6EX0@Z@Z     00409da0 f i FileData.obj
 0001:00008dd0       ??_ECInfoEntry@@QAEPAXI@Z  00409dd0 f i FileData.obj
 0001:00008e30       ??0CInfoEntry@@QAE@XZ      00409e30 f i FileData.obj
 0001:00008e90       ??1CInfoEntry@@QAE@XZ      00409e90 f i FileData.obj
 0001:00008ef0       ??_GCDABlockInfo@@QAEPAXI@Z 00409ef0 f i FileData.obj
 0001:00008f20       ??1CDABlockInfo@@QAE@XZ    00409f20 f i FileData.obj
 0001:00008f40       ?Clear@?$CDynamicArray@VCTFileName@@@@QAEXXZ 00409f40 f i FileData.obj
 0001:00008ff0       ??_ECTFileName@@QAEPAXI@Z  00409ff0 f i FileData.obj
 0001:00009050       ??_ECMapAnimal@@QAEPAXI@Z  0040a050 f i FileData.obj
 0001:000090b0       ??1CMapAnimal@@QAE@XZ      0040a0b0 f i FileData.obj
 0001:000090c0       ??_ETileLayer@@QAEPAXI@Z   0040a0c0 f i FileData.obj
 0001:00009120       ??1TileLayer@@QAE@XZ       0040a120 f i FileData.obj
 0001:000091d0       ??1?$CStaticStackArray@UGFXColor@@@@QAE@XZ 0040a1d0 f i FileData.obj
 0001:00009200       ??1?$CStaticStackArray@J@@QAE@XZ 0040a200 f i FileData.obj
 0001:00009230       ??1?$CStaticStackArray@UGFXTexCoord@@@@QAE@XZ 0040a230 f i FileData.obj
 0001:00009260       ?LCDInit@@YAXXZ            0040a260 f   LCDDrawing.obj
 0001:00009270       ?LCDEnd@@YAXXZ             0040a270 f   LCDDrawing.obj
 0001:00009280       ?LCDPrepare@@YAXM@Z        0040a280 f   LCDDrawing.obj
 0001:000092a0       ?LCDSetDrawport@@YAXPAVCDrawPort@@@Z 0040a2a0 f   LCDDrawing.obj
 0001:000092c0       ?LCDDrawBox@@YAXJJAAV?$AABBox@J$01@@K@Z 0040a2c0 f   LCDDrawing.obj
 0001:000092f0       ?LCDScreenBoxOpenLeft@@YAXK@Z 0040a2f0 f   LCDDrawing.obj
 0001:00009310       ?LCDScreenBoxOpenRight@@YAXK@Z 0040a310 f   LCDDrawing.obj
 0001:00009330       ?LCDScreenBox@@YAXK@Z      0040a330 f   LCDDrawing.obj
 0001:00009350       ?LCDRenderBackground@@YAXXZ 0040a350 f   LCDDrawing.obj
 0001:00009360       ?LCDRenderClouds1@@YAXXZ   0040a360 f   LCDDrawing.obj
 0001:00009370       ?LCDRenderClouds2@@YAXXZ   0040a370 f   LCDDrawing.obj
 0001:00009380       ?LCDRenderGrid@@YAXXZ      0040a380 f   LCDDrawing.obj
 0001:00009390       ?LCDGetColor@@YAKKPBD@Z    0040a390 f   LCDDrawing.obj
 0001:000093b0       ?LCDFadedColor@@YAKK@Z     0040a3b0 f   LCDDrawing.obj
 0001:000093d0       ?LCDBlinkingColor@@YAKKK@Z 0040a3d0 f   LCDDrawing.obj
 0001:000093f0       ?LCDDrawPointer@@YAXJJ@Z   0040a3f0 f   LCDDrawing.obj
 0001:0000eb00       ?SpawnFlagsForGameType@@YAKJ@Z 0040fb00 f   Menu.obj
 0001:0000ebb0       ?IsMenuEnabled@@YAHABVCTString@@@Z 0040fbb0 f   Menu.obj
 0001:0000ed50       ?ConfirmYes@@YAXXZ         0040fd50 f   Menu.obj
 0001:0000ed60       ?ConfirmNo@@YAXXZ          0040fd60 f   Menu.obj
 0001:0000ed70       ?ControlsMenuOn@@YAXXZ     0040fd70 f   Menu.obj
 0001:0000ee00       ?ControlsMenuOff@@YAXXZ    0040fe00 f   Menu.obj
 0001:00011bd0       ?PlayMenuSound@@YAXPAVCSoundData@@@Z 00412bd0 f   Menu.obj
 0001:00011c00       ?StartAmbientMenuSounds@@YAXXZ 00412c00 f   Menu.obj
 0001:00011c30       ?AddAttachment_t@@YAPAVCModelObject@@PAV1@JABVCTFileName@@J111@Z 00412c30 f   Menu.obj
 0001:00011c90       ?SetPlayerModel@@YAXPAVCModelObject@@@Z 00412c90 f   Menu.obj
 0001:00011ca0       ?TranslateRadioTexts@@YAXQAVCTString@@J@Z 00412ca0 f   Menu.obj
 0001:00011ce0       ?SetThumbnail@@YAXVCTFileName@@@Z 00412ce0 f   Menu.obj
 0001:00011ea0       ?ClearThumbnail@@YAXXZ     00412ea0 f   Menu.obj
 0001:00011f20       ?QuickSaveFromMenu@@YAXXZ  00412f20 f   Menu.obj
 0001:00011f90       ?StartCurrentLoadMenu@@YAXXZ 00412f90 f   Menu.obj
 0001:00011fb0       ?StartCurrentSaveMenu@@YAXXZ 00412fb0 f   Menu.obj
 0001:00011fd0       ?StartCurrentQuickLoadMenu@@YAXXZ 00412fd0 f   Menu.obj
 0001:00011ff0       ?StartMenus@@YAXPAD@Z      00412ff0 f   Menu.obj
 0001:00012250       ?StopMenus@@YAXH@Z         00413250 f   Menu.obj
 0001:000122b0       ?IsMenusInRoot@@YAHXZ      004132b0 f   Menu.obj
 0001:000122d0       ?StartSinglePlayerMenu@@YAXXZ 004132d0 f   Menu.obj
 0001:000122e0       ?ExitGame@@YAXXZ           004132e0 f   Menu.obj
 0001:000123e0       ?ExitAndSpawnExplorer@@YAXXZ 004133e0 f   Menu.obj
 0001:00012420       ?ExitConfirm@@YAXXZ        00413420 f   Menu.obj
 0001:00012490       ?StopConfirm@@YAXXZ        00413490 f   Menu.obj
 0001:00012500       ?ModConnect@@YAXXZ         00413500 f   Menu.obj
 0001:00012560       ?ModConnectConfirm@@YAXXZ  00413560 f   Menu.obj
 0001:000128c0       ?SaveConfirm@@YAXXZ        004138c0 f   Menu.obj
 0001:00012930       ?ModLoadYes@@YAXXZ         00413930 f   Menu.obj
 0001:00012970       ?ModConfirm@@YAXXZ         00413970 f   Menu.obj
 0001:000129e0       ?CDConfirm@@YAXP6AXXZ@Z    004139e0 f   Menu.obj
 0001:00012a50       ?StopCurrentGame@@YAXXZ    00413a50 f   Menu.obj
 0001:00012a80       ?StartSinglePlayerNewMenuCustom@@YAXXZ 00413a80 f   Menu.obj
 0001:00012aa0       ?StartSinglePlayerNewMenu@@YAXXZ 00413aa0 f   Menu.obj
 0001:00012ac0       ?SetupPlayerCharacterData@@YAXVCTString@@@Z 00413ac0 f   Menu.obj
 0001:000133d0       ?StartSinglePlayerGame@@YAXXZ 004143d0 f   Menu.obj
 0001:00013650       ?StartSinglePlayerGame_Tourist@@YAXXZ 00414650 f   Menu.obj
 0001:00013700       ?StartSinglePlayerGame_Easy@@YAXXZ 00414700 f   Menu.obj
 0001:000137b0       ?StartSinglePlayerGame_Normal@@YAXXZ 004147b0 f   Menu.obj
 0001:00013860       ?StartSinglePlayerGame_Hard@@YAXXZ 00414860 f   Menu.obj
 0001:00013910       ?StartSinglePlayerGame_Serious@@YAXXZ 00414910 f   Menu.obj
 0001:000139c0       ?StartSinglePlayerGame_Mental@@YAXXZ 004149c0 f   Menu.obj
 0001:00013a70       ?StartTraining@@YAXXZ      00414a70 f   Menu.obj
 0001:00013a90       ?StartTechTest@@YAXXZ      00414a90 f   Menu.obj
 0001:00013aa0       ?StartChangePlayerMenuFromOptions@@YAXXZ 00414aa0 f   Menu.obj
 0001:00013ad0       ?StartChangePlayerMenuFromSinglePlayer@@YAXXZ 00414ad0 f   Menu.obj
 0001:00013b10       ?StartControlsMenuFromPlayer@@YAXXZ 00414b10 f   Menu.obj
 0001:00013b30       ?StartControlsMenuFromOptions@@YAXXZ 00414b30 f   Menu.obj
 0001:00013b50       ?DisabledFunction@@YAXXZ   00414b50 f   Menu.obj
 0001:00013bc0       ?ModNotInstalled@@YAXXZ    00414bc0 f   Menu.obj
 0001:00013c60       ?StartDemoPlay@@YAXXZ      00414c60 f   Menu.obj
 0001:00013ce0       ?StartSelectLevelFromSingle@@YAXXZ 00414ce0 f   Menu.obj
 0001:00013d10       ?StartNetworkGame@@YAXXZ   00414d10 f   Menu.obj
 0001:00013f20       ?JoinNetworkGame@@YAXXZ    00414f20 f   Menu.obj
 0001:00014080       ?StartHighScoreMenu@@YAXXZ 00415080 f   Menu.obj
 0001:000140e0       ?StartNetworkLoadGame@@YAXXZ 004150e0 f   Menu.obj
 0001:000141a0       ?StartSelectPlayersMenuFromNetwork@@YAXXZ 004151a0 f   Menu.obj
 0001:000141d0       ?StartSelectPlayersMenuFromOpen@@YAXXZ 004151d0 f   Menu.obj
 0001:00014230       ?StartSelectPlayersMenuFromServers@@YAXXZ 00415230 f   Menu.obj
 0001:00014290       ?StartSelectServerLAN@@YAXXZ 00415290 f   Menu.obj
 0001:000142c0       ?StartSelectServerNET@@YAXXZ 004152c0 f   Menu.obj
 0001:000142f0       ?StartSelectLevelFromNetwork@@YAXXZ 004152f0 f   Menu.obj
 0001:00014330       ?StartSelectPlayersMenuFromNetworkLoad@@YAXXZ 00415330 f   Menu.obj
 0001:00014370       ?LSLoadSinglePlayer@@YAHABVCTFileName@@@Z 00415370 f   Menu.obj
 0001:00014430       ?LSLoadNetwork@@YAHABVCTFileName@@@Z 00415430 f   Menu.obj
 0001:00014470       ?LSLoadDemo@@YAHABVCTFileName@@@Z 00415470 f   Menu.obj
 0001:000144b0       ?LSLoadPlayerModel@@YAHABVCTFileName@@@Z 004154b0 f   Menu.obj
 0001:00014560       ?LSLoadControls@@YAHABVCTFileName@@@Z 00415560 f   Menu.obj
 0001:00014600       ?LSLoadAddon@@YAHABVCTFileName@@@Z 00415600 f   Menu.obj
 0001:00014650       ?LSLoadMod@@YAHABVCTFileName@@@Z 00415650 f   Menu.obj
 0001:00014690       ?LSLoadCustom@@YAHABVCTFileName@@@Z 00415690 f   Menu.obj
 0001:00014710       ?LSLoadNetSettings@@YAHABVCTFileName@@@Z 00415710 f   Menu.obj
 0001:000147c0       ?LSSaveAnyGame@@YAHABVCTFileName@@@Z 004157c0 f   Menu.obj
 0001:000147f0       ?LSSaveDemo@@YAHABVCTFileName@@@Z 004157f0 f   Menu.obj
 0001:00014800       ?StartPlayerModelLoadMenu@@YAXXZ 00415800 f   Menu.obj
 0001:00014960       ?StartControlsLoadMenu@@YAXXZ 00415960 f   Menu.obj
 0001:00014ad0       ?StartCustomLoadMenu@@YAXXZ 00415ad0 f   Menu.obj
 0001:00014c40       ?StartAddonsLoadMenu@@YAXXZ 00415c40 f   Menu.obj
 0001:00014db0       ?StartModsLoadMenu@@YAXXZ  00415db0 f   Menu.obj
 0001:00014f10       ?StartNetworkSettingsMenu@@YAXXZ 00415f10 f   Menu.obj
 0001:000150a0       ?SetQuickLoadNotes@@YAXXZ  004160a0 f   Menu.obj
 0001:00015160       ?StartSinglePlayerQuickLoadMenu@@YAXXZ 00416160 f   Menu.obj
 0001:000152b0       ?StartSinglePlayerLoadMenu@@YAXXZ 004162b0 f   Menu.obj
 0001:00015410       ?StartSinglePlayerSaveMenu@@YAXXZ 00416410 f   Menu.obj
 0001:00015620       ?StartDemoLoadMenu@@YAXXZ  00416620 f   Menu.obj
 0001:000157b0       ?StartDemoSaveMenu@@YAXXZ  004167b0 f   Menu.obj
 0001:000159c0       ?StartNetworkQuickLoadMenu@@YAXXZ 004169c0 f   Menu.obj
 0001:00015b30       ?StartNetworkLoadMenu@@YAXXZ 00416b30 f   Menu.obj
 0001:00015cc0       ?StartNetworkSaveMenu@@YAXXZ 00416cc0 f   Menu.obj
 0001:00015ed0       ?StartVarGameOptions@@YAXXZ 00416ed0 f   Menu.obj
 0001:00015f80       ?StartSinglePlayerGameOptions@@YAXXZ 00416f80 f   Menu.obj
 0001:00016030       ?StartGameOptionsFromNetwork@@YAXXZ 00417030 f   Menu.obj
 0001:00016040       ?StartRenderingOptionsMenu@@YAXXZ 00417040 f   Menu.obj
 0001:000160f0       ?StartCustomizeKeyboardMenu@@YAXXZ 004170f0 f   Menu.obj
 0001:00016100       ?StartCustomizeAxisMenu@@YAXXZ 00417100 f   Menu.obj
 0001:00016110       ?StartOptionsMenu@@YAXXZ   00417110 f   Menu.obj
 0001:00016130       ?StartNetworkMenu@@YAXXZ   00417130 f   Menu.obj
 0001:00016140       ?StartNetworkJoinMenu@@YAXXZ 00417140 f   Menu.obj
 0001:00016150       ?StartNetworkStartMenu@@YAXXZ 00417150 f   Menu.obj
 0001:00016160       ?StartNetworkOpenMenu@@YAXXZ 00417160 f   Menu.obj
 0001:00016170       ?InitGameTypes@@YAXXZ      00417170 f   Menu.obj
 0001:000162d0       ?InitializeMenus@@YAXXZ    004172d0 f   Menu.obj
 0001:000166d0       ?DestroyMenus@@YAXXZ       004176d0 f   Menu.obj
 0001:00016770       ?MenuGoToParent@@YAXXZ     00417770 f   Menu.obj
 0001:000167b0       ?MenuHandleWindowsMessage@@YAXABUtagMSG@@@Z 004177b0 f   Menu.obj
 0001:000168e0       ?MenuExecuteGameMenuCommand@@YAXW4eGameMenuCommand@@@Z 004178e0 f   Menu.obj
 0001:00016900       ?MenuOnKeyDown@@YAXH@Z     00417900 f   Menu.obj
 0001:00016970       ?MenuOnChar@@YAXUtagMSG@@@Z 00417970 f   Menu.obj
 0001:000169a0       ?MenuOnMouseMove@@YAXJJ@Z  004179a0 f   Menu.obj
 0001:00016a10       ?MenuUpdateMouseFocus@@YAXXZ 00417a10 f   Menu.obj
 0001:00016b80       ?SetMenuLerping@@YAXXZ     00417b80 f   Menu.obj
 0001:00016ca0       ?RenderMouseCursor@@YAXPAVCDrawPort@@@Z 00417ca0 f   Menu.obj
 0001:00016cd0       ?DoMenu@@YAHPAVCDrawPort@@@Z 00417cd0 f   Menu.obj
 0001:00017170       ?MenuBack@@YAXXZ           00418170 f   Menu.obj
 0001:00017180       ?FixupBackButton@@YAXPAVCGameMenu@@@Z 00418180 f   Menu.obj
 0001:00017190       ?ChangeToMenu@@YAXPAVCGameMenu@@@Z 00418190 f   Menu.obj
 0001:00017210       ??0CGameMenu@@QAE@XZ       00418210 f   Menu.obj
 0001:00017250       ?Initialize_t@CGameMenu@@UAEXXZ 00418250 f   Menu.obj
 0001:00017260       ?Destroy@CGameMenu@@UAEXXZ 00418260 f   Menu.obj
 0001:00017270       ?FillListItems@CGameMenu@@UAEXXZ 00418270 f   Menu.obj
 0001:00017280       ?ScrollList@CGameMenu@@QAEXJ@Z 00418280 f   Menu.obj
 0001:00017400       ?KillAllFocuses@CGameMenu@@QAEXXZ 00418400 f   Menu.obj
 0001:00017420       ?StartMenu@CGameMenu@@UAEXXZ 00418420 f   Menu.obj
 0001:000174d0       ?EndMenu@CGameMenu@@UAEXXZ 004184d0 f   Menu.obj
 0001:000174f0       ?OnKeyDown@CGameMenu@@UAEHH@Z 004184f0 f   Menu.obj
 0001:00017700       ?Think@CGameMenu@@UAEXXZ   00418700 f   Menu.obj
 0001:00017710       ?OnChar@CGameMenu@@UAEHUtagMSG@@@Z 00418710 f   Menu.obj
 0001:00017770       ?Initialize_t@CConfirmMenu@@UAEXXZ 00418770 f   Menu.obj
 0001:00017920       ?BeLarge@CConfirmMenu@@QAEXXZ 00418920 f   Menu.obj
 0001:000179b0       ?BeSmall@CConfirmMenu@@QAEXXZ 004189b0 f   Menu.obj
 0001:00017a40       ?OnKeyDown@CConfirmMenu@@UAEHH@Z 00418a40 f   Menu.obj
 0001:00017a70       ?Initialize_t@CSinglePlayerMenu@@UAEXXZ 00418a70 f   Menu.obj
 0001:000180b0       ?StartMenu@CSinglePlayerMenu@@UAEXXZ 004190b0 f   Menu.obj
 0001:000183f0       ?Initialize_t@CSinglePlayerNewMenu@@UAEXXZ 004193f0 f   Menu.obj
 0001:00018880       ?StartMenu@CSinglePlayerNewMenu@@UAEXXZ 00419880 f   Menu.obj
 0001:000188b0       ?Initialize_t@CDisabledMenu@@UAEXXZ 004198b0 f   Menu.obj
 0001:00018950       ?ChangeCrosshair@@YAXJ@Z   00419950 f   Menu.obj
 0001:00018980       ?ChangeWeaponSelect@@YAXJ@Z 00419980 f   Menu.obj
 0001:000189b0       ?ChangeWeaponHide@@YAXJ@Z  004199b0 f   Menu.obj
 0001:000189f0       ?Change3rdPerson@@YAXJ@Z   004199f0 f   Menu.obj
 0001:00018a30       ?ChangeQuotes@@YAXJ@Z      00419a30 f   Menu.obj
 0001:00018a70       ?ChangeAutoSave@@YAXJ@Z    00419a70 f   Menu.obj
 0001:00018ab0       ?ChangeCompDoubleClick@@YAXJ@Z 00419ab0 f   Menu.obj
 0001:00018af0       ?ChangeViewBobbing@@YAXJ@Z 00419af0 f   Menu.obj
 0001:00018b30       ?ChangeSharpTurning@@YAXJ@Z 00419b30 f   Menu.obj
 0001:00018b70       ?Initialize_t@CPlayerProfileMenu@@UAEXXZ 00419b70 f   Menu.obj
 0001:00019f20       ?ComboFromPlayer@CPlayerProfileMenu@@QAEJJ@Z 0041af20 f   Menu.obj
 0001:00019f30       ?PlayerFromCombo@CPlayerProfileMenu@@QAEJJ@Z 0041af30 f   Menu.obj
 0001:00019f40       ?SelectPlayer@CPlayerProfileMenu@@QAEXJ@Z 0041af40 f   Menu.obj
 0001:0001a3c0       ?OnPlayerSelect@@YAXXZ     0041b3c0 f   Menu.obj
 0001:0001a3e0       ?StartMenu@CPlayerProfileMenu@@UAEXXZ 0041b3e0 f   Menu.obj
 0001:0001a490       ?EndMenu@CPlayerProfileMenu@@UAEXXZ 0041b490 f   Menu.obj
 0001:0001a4b0       ?Initialize_t@CControlsMenu@@UAEXXZ 0041b4b0 f   Menu.obj
 0001:0001abb0       ?StartMenu@CControlsMenu@@UAEXXZ 0041bbb0 f   Menu.obj
 0001:0001ac90       ?EndMenu@CControlsMenu@@UAEXXZ 0041bc90 f   Menu.obj
 0001:0001acb0       ?ObtainActionSettings@CControlsMenu@@QAEXXZ 0041bcb0 f   Menu.obj
 0001:0001ae40       ?ApplyActionSettings@CControlsMenu@@QAEXXZ 0041be40 f   Menu.obj
 0001:0001afb0       ?Initialize_t@CLoadSaveMenu@@UAEXXZ 0041bfb0 f   Menu.obj
 0001:0001b1e0       ?qsort_CompareFileInfos_NameUp@@YAHPBX0@Z 0041c1e0 f   Menu.obj
 0001:0001b230       ?qsort_CompareFileInfos_NameDn@@YAHPBX0@Z 0041c230 f   Menu.obj
 0001:0001b280       ?qsort_CompareFileInfos_FileUp@@YAHPBX0@Z 0041c280 f   Menu.obj
 0001:0001b2d0       ?qsort_CompareFileInfos_FileDn@@YAHPBX0@Z 0041c2d0 f   Menu.obj
 0001:0001b320       ?StartMenu@CLoadSaveMenu@@UAEXXZ 0041c320 f   Menu.obj
 0001:0001b790       ?EndMenu@CLoadSaveMenu@@UAEXXZ 0041c790 f   Menu.obj
 0001:0001b7e0       ?FillListItems@CLoadSaveMenu@@UAEXXZ 0041c7e0 f   Menu.obj
 0001:0001ba80       ?ParseFile@CLoadSaveMenu@@QAEHABVCTFileName@@AAVCTString@@@Z 0041ca80 f   Menu.obj
 0001:0001bd30       ?Initialize_t@CHighScoreMenu@@UAEXXZ 0041cd30 f   Menu.obj
 0001:0001be40       ?StartMenu@CHighScoreMenu@@UAEXXZ 0041ce40 f   Menu.obj
 0001:0001be50       ?FillListItems@CCustomizeKeyboardMenu@@UAEXXZ 0041ce50 f   Menu.obj
 0001:0001bfc0       ?Initialize_t@CCustomizeKeyboardMenu@@UAEXXZ 0041cfc0 f   Menu.obj
 0001:0001c1b0       ?StartMenu@CCustomizeKeyboardMenu@@UAEXXZ 0041d1b0 f   Menu.obj
 0001:0001c1f0       ?EndMenu@CCustomizeKeyboardMenu@@UAEXXZ 0041d1f0 f   Menu.obj
 0001:0001c210       ??1CCustomizeAxisMenu@@QAE@XZ 0041d210 f   Menu.obj
 0001:0001c270       ?PreChangeAxis@@YAXJ@Z     0041d270 f   Menu.obj
 0001:0001c280       ?PostChangeAxis@@YAXJ@Z    0041d280 f   Menu.obj
 0001:0001c290       ?Initialize_t@CCustomizeAxisMenu@@UAEXXZ 0041d290 f   Menu.obj
 0001:0001ca00       ?ObtainActionSettings@CCustomizeAxisMenu@@QAEXXZ 0041da00 f   Menu.obj
 0001:0001cb00       ?ApplyActionSettings@CCustomizeAxisMenu@@QAEXXZ 0041db00 f   Menu.obj
 0001:0001cc10       ?StartMenu@CCustomizeAxisMenu@@UAEXXZ 0041dc10 f   Menu.obj
 0001:0001cc30       ?EndMenu@CCustomizeAxisMenu@@UAEXXZ 0041dc30 f   Menu.obj
 0001:0001cc50       ?Initialize_t@COptionsMenu@@UAEXXZ 0041dc50 f   Menu.obj
 0001:0001d0c0       ?FillListItems@CLevelsMenu@@UAEXXZ 0041e0c0 f   Menu.obj
 0001:0001d240       ?Initialize_t@CLevelsMenu@@UAEXXZ 0041e240 f   Menu.obj
 0001:0001d430       ?StartMenu@CLevelsMenu@@UAEXXZ 0041e430 f   Menu.obj
 0001:0001d480       ?VarApply@@YAXXZ           0041e480 f   Menu.obj
 0001:0001d4a0       ?Initialize_t@CVarMenu@@UAEXXZ 0041e4a0 f   Menu.obj
 0001:0001d740       ?FillListItems@CVarMenu@@UAEXXZ 0041e740 f   Menu.obj
 0001:0001d870       ?StartMenu@CVarMenu@@UAEXXZ 0041e870 f   Menu.obj
 0001:0001d8b0       ?EndMenu@CVarMenu@@UAEXXZ  0041e8b0 f   Menu.obj
 0001:0001d8f0       ?Think@CVarMenu@@UAEXXZ    0041e8f0 f   Menu.obj
 0001:0001d910       ?RefreshServerList@@YAXXZ  0041e910 f   Menu.obj
 0001:0001d930       ?RefreshServerListManually@@YAXXZ 0041e930 f   Menu.obj
 0001:0001d940       ?Think@CServersMenu@@UAEXXZ 0041e940 f   Menu.obj
 0001:0001d9b0       ?SortByColumn@@YAXH@Z      0041e9b0 f   Menu.obj
 0001:0001d9f0       ?SortByServer@@YAXXZ       0041e9f0 f   Menu.obj
 0001:0001da00       ?SortByMap@@YAXXZ          0041ea00 f   Menu.obj
 0001:0001da10       ?SortByPing@@YAXXZ         0041ea10 f   Menu.obj
 0001:0001da20       ?SortByPlayers@@YAXXZ      0041ea20 f   Menu.obj
 0001:0001da30       ?SortByGame@@YAXXZ         0041ea30 f   Menu.obj
 0001:0001da40       ?SortByMod@@YAXXZ          0041ea40 f   Menu.obj
 0001:0001da50       ?SortByVer@@YAXXZ          0041ea50 f   Menu.obj
 0001:0001da60       ?Initialize_t@CServersMenu@@UAEXXZ 0041ea60 f   Menu.obj
 0001:0001e0b0       ?StartMenu@CServersMenu@@UAEXXZ 0041f0b0 f   Menu.obj
 0001:0001e0d0       ?Initialize_t@CNetworkMenu@@UAEXXZ 0041f0d0 f   Menu.obj
 0001:0001e400       ?StartMenu@CNetworkMenu@@UAEXXZ 0041f400 f   Menu.obj
 0001:0001e410       ?UpdateNetworkLevel@@YAXJ@Z 0041f410 f   Menu.obj
 0001:0001e520       ?Initialize_t@CNetworkJoinMenu@@UAEXXZ 0041f520 f   Menu.obj
 0001:0001e7b0       ?Initialize_t@CNetworkStartMenu@@UAEXXZ 0041f7b0 f   Menu.obj
 0001:0001ef60       ?StartMenu@CNetworkStartMenu@@UAEXXZ 0041ff60 f   Menu.obj
 0001:0001f1e0       ?EndMenu@CNetworkStartMenu@@UAEXXZ 004201e0 f   Menu.obj
 0001:0001f340       ?FindUnusedPlayer@@YAJXZ   00420340 f   Menu.obj
 0001:0001f370       ?SelectPlayersFillMenu@@YAXXZ 00420370 f   Menu.obj
 0001:0001f6a0       ?SelectPlayersApplyMenu@@YAXXZ 004206a0 f   Menu.obj
 0001:0001f700       ?UpdateSelectPlayers@@YAXJ@Z 00420700 f   Menu.obj
 0001:0001f710       ?Initialize_t@CSelectPlayersMenu@@UAEXXZ 00420710 f   Menu.obj
 0001:0001fbf0       ?StartMenu@CSelectPlayersMenu@@UAEXXZ 00420bf0 f   Menu.obj
 0001:0001fc00       ?EndMenu@CSelectPlayersMenu@@UAEXXZ 00420c00 f   Menu.obj
 0001:0001fc70       ?Initialize_t@CNetworkOpenMenu@@UAEXXZ 00420c70 f   Menu.obj
 0001:0001ffd0       ?StartMenu@CNetworkOpenMenu@@UAEXXZ 00420fd0 f   Menu.obj
 0001:00020090       ?EndMenu@CNetworkOpenMenu@@UAEXXZ 00421090 f   Menu.obj
 0001:00020100       ??1CMGButton@@QAE@XZ       00421100 f i Menu.obj
 0001:00020180       ??1CMenuGadget@@QAE@XZ     00421180 f i Menu.obj
 0001:000201e0       ??1CMGTitle@@QAE@XZ        004211e0 f i Menu.obj
 0001:00020260       ??0CMGTitle@@QAE@XZ        00421260 f i Menu.obj
 0001:000202c0       ??0CMGLevelButton@@QAE@XZ  004212c0 f i Menu.obj
 0001:00020320       ??1CMGLevelButton@@QAE@XZ  00421320 f i Menu.obj
 0001:000203b0       ??1CMGArrow@@QAE@XZ        004213b0 f i Menu.obj
 0001:00020430       ??0CMGArrow@@QAE@XZ        00421430 f i Menu.obj
 0001:00020450       ??1CVarMenu@@QAE@XZ        00421450 f i Menu.obj
 0001:00020460       ??0CVarMenu@@QAE@XZ        00421460 f i Menu.obj
 0001:00020490       ??0CMGVarButton@@QAE@XZ    00421490 f i Menu.obj
 0001:000204b0       ??1CMGVarButton@@QAE@XZ    004214b0 f i Menu.obj
 0001:00020530       ??1CMGEdit@@QAE@XZ         00421530 f i Menu.obj
 0001:000205b0       ??1CMGTrigger@@QAE@XZ      004215b0 f i Menu.obj
 0001:00020630       ??1CMGModel@@QAE@XZ        00421630 f i Menu.obj
 0001:000206d0       ??1CMGSlider@@QAE@XZ       004216d0 f i Menu.obj
 0001:00020750       ??1CLoadSaveMenu@@QAE@XZ   00421750 f i Menu.obj
 0001:000207d0       ??0CLoadSaveMenu@@QAE@XZ   004217d0 f i Menu.obj
 0001:00020880       ??1CMGFileButton@@QAE@XZ   00421880 f i Menu.obj
 0001:00020930       ??1CMGHighScore@@QAE@XZ    00421930 f i Menu.obj
 0001:00020990       ??0CMGHighScore@@QAE@XZ    00421990 f i Menu.obj
 0001:000209b0       ??1CMGKeyDefinition@@QAE@XZ 004219b0 f i Menu.obj
 0001:00020a30       ??1CMGServerList@@QAE@XZ   00421a30 f i Menu.obj
 0001:00020ab0       ??1CMGChangePlayer@@QAE@XZ 00421ab0 f i Menu.obj
 0001:00020b30       ??0CMGChangePlayer@@QAE@XZ 00421b30 f i Menu.obj
 0001:00020b50       ?IsSeparator@CMenuGadget@@UAEHXZ 00421b50 f i Menu.obj
 0001:00020b60       ?SetBoxOnScreen@CMenuGadget@@UAEXABV?$AABBox@M$01@@@Z 00421b60 f i Menu.obj
 0001:00020b90       ?StartColorTransition@CMenuGadget@@UAEXXZ 00421b90 f i Menu.obj
 0001:00020ba0       ?EndColorTransition@CMenuGadget@@UAEXXZ 00421ba0 f i Menu.obj
 0001:00020bb0       ?UpdateColorTransition@CMenuGadget@@UAEXXZ 00421bb0 f i Menu.obj
 0001:00020bc0       ?GetModelFilename@CPlayerSettings@@QBE?AVCTFileName@@XZ 00421bc0 f i Menu.obj
 0001:00020cf0       ??1CFileInfo@@QAE@XZ       00421cf0 f i Menu.obj
 0001:00020d60       ??_ECTString@@QAEPAXI@Z    00421d60 f i Menu.obj
 0001:00020dc0       ??1CLevelInfo@@QAE@XZ      00421dc0 f i Menu.obj
 0001:00020e70       ??0?$AABBox@J$01@@QAE@ABV?$Vector@J$01@@0@Z 00421e70 f i Menu.obj
 0001:00020ed0       ?Clear@?$CDynamicArray@VCMapAnimal@@@@QAEXXZ 00421ed0 f i Menu.obj
 0001:00020f60       ?Clear@CMapAnimal@@UAEXXZ  00421f60 f i Menu.obj
 0001:00020fe0       ??0CMenuGadget@@QAE@XZ     00421fe0 f   MenuGadgets.obj
 0001:00021090       ?OnActivate@CMenuGadget@@UAEXXZ 00422090 f   MenuGadgets.obj
 0001:000210a0       ?OnKeyDown@CMenuGadget@@UAEHH@Z 004220a0 f   MenuGadgets.obj
 0001:000210d0       ?OnChar@CMenuGadget@@UAEHUtagMSG@@@Z 004220d0 f   MenuGadgets.obj
 0001:000210e0       ?OnSetFocus@CMenuGadget@@UAEXXZ 004220e0 f   MenuGadgets.obj
 0001:00021120       ?OnKillFocus@CMenuGadget@@UAEXXZ 00422120 f   MenuGadgets.obj
 0001:00021130       ?Appear@CMenuGadget@@UAEXXZ 00422130 f   MenuGadgets.obj
 0001:00021140       ?Disappear@CMenuGadget@@UAEXXZ 00422140 f   MenuGadgets.obj
 0001:00021150       ?Think@CMenuGadget@@UAEXXZ 00422150 f   MenuGadgets.obj
 0001:00021160       ?OnMouseOver@CMenuGadget@@UAEXJJ@Z 00422160 f   MenuGadgets.obj
 0001:00021170       ?GetCurrentColor@CMenuGadget@@UAEKXZ 00422170 f   MenuGadgets.obj
 0001:000211f0       ?Render@CMenuGadget@@UAEXPAVCDrawPort@@@Z 004221f0 f   MenuGadgets.obj
 0001:00021200       ?Render@CMGTitle@@UAEXPAVCDrawPort@@@Z 00422200 f   MenuGadgets.obj
 0001:00021340       ??0CMGButton@@QAE@XZ       00422340 f   MenuGadgets.obj
 0001:000213d0       ?SetText@CMGButton@@QAEXVCTString@@@Z 004223d0 f   MenuGadgets.obj
 0001:00021440       ?OnActivate@CMGButton@@UAEXXZ 00422440 f   MenuGadgets.obj
 0001:00021480       ?IsSeparator@CMGVarButton@@UAEHXZ 00422480 f   MenuGadgets.obj
 0001:00021490       ?IsEnabled@CMGVarButton@@QAEHXZ 00422490 f   MenuGadgets.obj
 0001:000214c0       ?Render@CMGButton@@UAEXPAVCDrawPort@@@Z 004224c0 f   MenuGadgets.obj
 0001:00021bf0       ?GetCharOffset@CMGButton@@QAEJPAVCDrawPort@@J@Z 00422bf0 f   MenuGadgets.obj
 0001:00021cc0       ??0CMGModel@@QAE@XZ        00422cc0 f   MenuGadgets.obj
 0001:00021d30       ?Render@CMGModel@@UAEXPAVCDrawPort@@@Z 00422d30 f   MenuGadgets.obj
 0001:000224f0       ??0CMGEdit@@QAE@XZ         004234f0 f   MenuGadgets.obj
 0001:00022550       ?Clear@CMGEdit@@QAEXXZ     00423550 f   MenuGadgets.obj
 0001:00022560       ?OnActivate@CMGEdit@@UAEXXZ 00423560 f   MenuGadgets.obj
 0001:000225d0       ?OnKillFocus@CMGEdit@@UAEXXZ 004235d0 f   MenuGadgets.obj
 0001:000225f0       ?OnKeyDown@CMGEdit@@UAEHH@Z 004235f0 f   MenuGadgets.obj
 0001:00022810       ?OnChar@CMGEdit@@UAEHUtagMSG@@@Z 00423810 f   MenuGadgets.obj
 0001:000228b0       ?Render@CMGEdit@@UAEXPAVCDrawPort@@@Z 004238b0 f   MenuGadgets.obj
 0001:000229a0       ?OnStringChanged@CMGEdit@@UAEXXZ 004239a0 f   MenuGadgets.obj
 0001:000229b0       ?OnStringCanceled@CMGEdit@@UAEXXZ 004239b0 f   MenuGadgets.obj
 0001:000229c0       ?Render@CMGArrow@@UAEXPAVCDrawPort@@@Z 004239c0 f   MenuGadgets.obj
 0001:00022b40       ?OnActivate@CMGArrow@@UAEXXZ 00423b40 f   MenuGadgets.obj
 0001:00022bd0       ?Render@CMGHighScore@@UAEXPAVCDrawPort@@@Z 00423bd0 f   MenuGadgets.obj
 0001:000230b0       ?GetNewLoopValue@@YAJHJJ@Z 004240b0 f   MenuGadgets.obj
 0001:00023100       ??0CMGTrigger@@QAE@XZ      00424100 f   MenuGadgets.obj
 0001:00023170       ?ApplyCurrentSelection@CMGTrigger@@QAEXXZ 00424170 f   MenuGadgets.obj
 0001:000231c0       ?OnSetNextInList@CMGTrigger@@QAEXH@Z 004241c0 f   MenuGadgets.obj
 0001:00023230       ?OnKeyDown@CMGTrigger@@UAEHH@Z 00424230 f   MenuGadgets.obj
 0001:00023270       ?Render@CMGTrigger@@UAEXPAVCDrawPort@@@Z 00424270 f   MenuGadgets.obj
 0001:00023680       ??0CMGSlider@@QAE@XZ       00424680 f   MenuGadgets.obj
 0001:000236c0       ?ApplyCurrentPosition@CMGSlider@@QAEXXZ 004246c0 f   MenuGadgets.obj
 0001:00023720       ?ApplyGivenPosition@CMGSlider@@QAEXJJJ@Z 00424720 f   MenuGadgets.obj
 0001:00023750       ?OnKeyDown@CMGSlider@@UAEHH@Z 00424750 f   MenuGadgets.obj
 0001:000238d0       ?GetSliderBox@CMGSlider@@QAE?AV?$AABBox@J$01@@XZ 004248d0 f   MenuGadgets.obj
 0001:00023a90       ?Render@CMGSlider@@UAEXPAVCDrawPort@@@Z 00424a90 f   MenuGadgets.obj
 0001:00023d90       ?OnActivate@CMGLevelButton@@UAEXXZ 00424d90 f   MenuGadgets.obj
 0001:00023de0       ?OnSetFocus@CMGLevelButton@@UAEXXZ 00424de0 f   MenuGadgets.obj
 0001:00023e20       ?GetSliderBox@CMGVarButton@@QAE?AV?$AABBox@J$01@@XZ 00424e20 f   MenuGadgets.obj
 0001:00023fc0       ?OnKeyDown@CMGVarButton@@UAEHH@Z 00424fc0 f   MenuGadgets.obj
 0001:000241e0       ?Render@CMGVarButton@@UAEXPAVCDrawPort@@@Z 004251e0 f   MenuGadgets.obj
 0001:00024660       ??0CMGFileButton@@QAE@XZ   00425660 f   MenuGadgets.obj
 0001:000246f0       ?RefreshText@CMGFileButton@@QAEXXZ 004256f0 f   MenuGadgets.obj
 0001:00024760       ?SaveDescription@CMGFileButton@@QAEXXZ 00425760 f   MenuGadgets.obj
 0001:00024850       ?OnFileSaveOK@@YAXXZ       00425850 f   MenuGadgets.obj
 0001:00024860       ?DoSave@CMGFileButton@@QAEXXZ 00425860 f   MenuGadgets.obj
 0001:00024890       ?SaveYes@CMGFileButton@@QAEXXZ 00425890 f   MenuGadgets.obj
 0001:000248b0       ?DoLoad@CMGFileButton@@QAEXXZ 004258b0 f   MenuGadgets.obj
 0001:00024980       ?StartEdit@CMGFileButton@@QAEXXZ 00425980 f   MenuGadgets.obj
 0001:00024990       ?OnActivate@CMGFileButton@@UAEXXZ 00425990 f   MenuGadgets.obj
 0001:00024ac0       ?OnKeyDown@CMGFileButton@@UAEHH@Z 00425ac0 f   MenuGadgets.obj
 0001:00024d60       ?OnSetFocus@CMGFileButton@@UAEXXZ 00425d60 f   MenuGadgets.obj
 0001:00024dd0       ?OnKillFocus@CMGFileButton@@UAEXXZ 00425dd0 f   MenuGadgets.obj
 0001:00024df0       ?OnStringChanged@CMGFileButton@@UAEXXZ 00425df0 f   MenuGadgets.obj
 0001:00024f80       ?OnStringCanceled@CMGFileButton@@UAEXXZ 00425f80 f   MenuGadgets.obj
 0001:00024fb0       ?Render@CMGFileButton@@UAEXPAVCDrawPort@@@Z 00425fb0 f   MenuGadgets.obj
 0001:000250e0       ?GetBoxPartHoriz@@YA?AV?$AABBox@M$01@@ABV1@MM@Z 004260e0 f   MenuGadgets.obj
 0001:000251a0       ?PrintInBox@@YAXPAVCDrawPort@@JJJVCTString@@K@Z 004261a0 f   MenuGadgets.obj
 0001:00025260       ??0CMGServerList@@QAE@XZ   00426260 f   MenuGadgets.obj
 0001:000252d0       ?AdjustFirstOnScreen@CMGServerList@@QAEXXZ 004262d0 f   MenuGadgets.obj
 0001:00025380       ?CompareSessions@@YAHPBX0@Z 00426380 f   MenuGadgets.obj
 0001:00025390       ?SortAndFilterServers@@YAXXZ 00426390 f   MenuGadgets.obj
 0001:000253a0       ?Render@CMGServerList@@UAEXPAVCDrawPort@@@Z 004263a0 f   MenuGadgets.obj
 0001:000253b0       ?GetScrollBarFullBox@CMGServerList@@QAE?AV?$AABBox@J$01@@XZ 004263b0 f   MenuGadgets.obj
 0001:00025430       ?GetScrollBarHandleBox@CMGServerList@@QAE?AV?$AABBox@J$01@@XZ 00426430 f   MenuGadgets.obj
 0001:000255b0       ?OnMouseOver@CMGServerList@@UAEXJJ@Z 004265b0 f   MenuGadgets.obj
 0001:000257c0       ?OnKeyDown@CMGServerList@@UAEHH@Z 004267c0 f   MenuGadgets.obj
 0001:00025940       ?OnSetFocus@CMGServerList@@UAEXXZ 00426940 f   MenuGadgets.obj
 0001:00025950       ?OnKillFocus@CMGServerList@@UAEXXZ 00426950 f   MenuGadgets.obj
 0001:00025960       ?OnActivate@CMGChangePlayer@@UAEXXZ 00426960 f   MenuGadgets.obj
 0001:000259f0       ?SetPlayerText@CMGChangePlayer@@QAEXXZ 004269f0 f   MenuGadgets.obj
 0001:00025ac0       ??0CMGKeyDefinition@@QAE@XZ 00426ac0 f   MenuGadgets.obj
 0001:00025b30       ?OnActivate@CMGKeyDefinition@@UAEXXZ 00426b30 f   MenuGadgets.obj
 0001:00025b60       ?OnKeyDown@CMGKeyDefinition@@UAEHH@Z 00426b60 f   MenuGadgets.obj
 0001:00025ba0       ?SetBindingNames@CMGKeyDefinition@@QAEXH@Z 00426ba0 f   MenuGadgets.obj
 0001:00025e10       ?Appear@CMGKeyDefinition@@UAEXXZ 00426e10 f   MenuGadgets.obj
 0001:00025e30       ?Disappear@CMGKeyDefinition@@UAEXXZ 00426e30 f   MenuGadgets.obj
 0001:00025e40       ?DefineKey@CMGKeyDefinition@@QAEXJ@Z 00426e40 f   MenuGadgets.obj
 0001:00025eb0       ?Think@CMGKeyDefinition@@UAEXXZ 00426eb0 f   MenuGadgets.obj
 0001:00025fa0       ?Render@CMGKeyDefinition@@UAEXPAVCDrawPort@@@Z 00426fa0 f   MenuGadgets.obj
 0001:00026100       ??0CMGSlideGroup@@QAE@XZ   00427100 f   MenuGadgets.obj
 0001:000261b0       ?AddGadget@CMGSlideGroup@@QAEXPAVCMenuGadget@@@Z 004271b0 f   MenuGadgets.obj
 0001:00026200       ?UpdateGadgetHomeBox@CMGSlideGroup@@QAEXPAVCMenuGadget@@ABV?$AABBox@M$01@@@Z 00427200 f   MenuGadgets.obj
 0001:00026250       ?Appear@CMGSlideGroup@@UAEXXZ 00427250 f   MenuGadgets.obj
 0001:000262b0       ?Think@CMGSlideGroup@@UAEXXZ 004272b0 f   MenuGadgets.obj
 0001:00026360       ?_SlideToTarget@CMGSlideGroup@@IAEXXZ 00427360 f   MenuGadgets.obj
 0001:00026490       ?_UpdateGadgets@CMGSlideGroup@@IAEXXZ 00427490 f   MenuGadgets.obj
 0001:00026560       ?_SetGadgetsVisible@CMGSlideGroup@@IAEXH@Z 00427560 f   MenuGadgets.obj
 0001:00026590       ?SetDelay@CMGSlideGroup@@QAEXM@Z 00427590 f   MenuGadgets.obj
 0001:000265b0       ?SetSpeed@CMGSlideGroup@@QAEXM@Z 004275b0 f   MenuGadgets.obj
 0001:000265c0       ?SetStart@CMGSlideGroup@@QAEXMM@Z 004275c0 f   MenuGadgets.obj
 0001:000265e0       ?SetTarget@CMGSlideGroup@@QAEXMM@Z 004275e0 f   MenuGadgets.obj
 0001:00026600       ?StartSlideToTarget@CMGSlideGroup@@QAEXXZ 00427600 f   MenuGadgets.obj
 0001:00026670       ?SetOneShot@CMGSlideGroup@@QAEXH@Z 00427670 f   MenuGadgets.obj
 0001:00026680       ??0CMGFadeGroup@@QAE@XZ    00427680 f   MenuGadgets.obj
 0001:000266e0       ?AddGadget@CMGFadeGroup@@QAEXPAVCMenuGadget@@@Z 004276e0 f   MenuGadgets.obj
 0001:00026710       ?Appear@CMGFadeGroup@@UAEXXZ 00427710 f   MenuGadgets.obj
 0001:00026750       ?Think@CMGFadeGroup@@UAEXXZ 00427750 f   MenuGadgets.obj
 0001:000267c0       ?_FadeIn@CMGFadeGroup@@IAEXXZ 004277c0 f   MenuGadgets.obj
 0001:00026850       ?_UpdateGadgets@CMGFadeGroup@@IAEXXZ 00427850 f   MenuGadgets.obj
 0001:00026880       ?SetSpeed@CMGFadeGroup@@QAEXM@Z 00427880 f   MenuGadgets.obj
 0001:00026890       ?StartFadeIn@CMGFadeGroup@@QAEXXZ 00427890 f   MenuGadgets.obj
 0001:000268e0       ?SetOneShot@CMGFadeGroup@@QAEXH@Z 004278e0 f   MenuGadgets.obj
 0001:000268f0       ??0CMGImage@@QAE@XZ        004278f0 f   MenuGadgets.obj
 0001:00026910       ?SetTexure@CMGImage@@QAEXPAVCTextureObject@@@Z 00427910 f   MenuGadgets.obj
 0001:00026920       ?Render@CMGImage@@UAEXPAVCDrawPort@@@Z 00427920 f   MenuGadgets.obj
 0001:00026a40       ?Clamp@@YAMMMM@Z           00427a40 f i MenuGadgets.obj
 0001:00026a70       ?BoxTitle@@YA?AV?$AABBox@M$01@@XZ 00427a70 f   MenuPrinting.obj
 0001:00026b00       ?BoxNoUp@@YA?AV?$AABBox@M$01@@M@Z 00427b00 f   MenuPrinting.obj
 0001:00026bb0       ?BoxNoDown@@YA?AV?$AABBox@M$01@@M@Z 00427bb0 f   MenuPrinting.obj
 0001:00026c60       ?BoxBigRow@@YA?AV?$AABBox@M$01@@M@Z 00427c60 f   MenuPrinting.obj
 0001:00026d00       ?BoxBigLeft@@YA?AV?$AABBox@M$01@@M@Z 00427d00 f   MenuPrinting.obj
 0001:00026da0       ?BoxBigRight@@YA?AV?$AABBox@M$01@@M@Z 00427da0 f   MenuPrinting.obj
 0001:00026e40       ?BoxSaveLoad@@YA?AV?$AABBox@M$01@@M@Z 00427e40 f   MenuPrinting.obj
 0001:00026ee0       ?BoxVersion@@YA?AV?$AABBox@M$01@@XZ 00427ee0 f   MenuPrinting.obj
 0001:00026f80       ?BoxMediumRow@@YA?AV?$AABBox@M$01@@M@Z 00427f80 f   MenuPrinting.obj
 0001:00027020       ?BoxKeyRow@@YA?AV?$AABBox@M$01@@M@Z 00428020 f   MenuPrinting.obj
 0001:000270c0       ?BoxMediumLeft@@YA?AV?$AABBox@M$01@@M@Z 004280c0 f   MenuPrinting.obj
 0001:00027160       ?BoxPlayerSwitch@@YA?AV?$AABBox@M$01@@M@Z 00428160 f   MenuPrinting.obj
 0001:00027200       ?BoxMediumMiddle@@YA?AV?$AABBox@M$01@@M@Z 00428200 f   MenuPrinting.obj
 0001:000272a0       ?BoxPlayerEdit@@YA?AV?$AABBox@M$01@@M@Z 004282a0 f   MenuPrinting.obj
 0001:00027340       ?BoxMediumRight@@YA?AV?$AABBox@M$01@@M@Z 00428340 f   MenuPrinting.obj
 0001:000273e0       ?BoxPopup@@YA?AV?$AABBox@M$01@@XZ 004283e0 f   MenuPrinting.obj
 0001:00027470       ?BoxPopupLabel@@YA?AV?$AABBox@M$01@@XZ 00428470 f   MenuPrinting.obj
 0001:00027500       ?BoxPopupYesLarge@@YA?AV?$AABBox@M$01@@XZ 00428500 f   MenuPrinting.obj
 0001:00027590       ?BoxPopupNoLarge@@YA?AV?$AABBox@M$01@@XZ 00428590 f   MenuPrinting.obj
 0001:00027620       ?BoxPopupYesSmall@@YA?AV?$AABBox@M$01@@XZ 00428620 f   MenuPrinting.obj
 0001:000276b0       ?BoxPopupNoSmall@@YA?AV?$AABBox@M$01@@XZ 004286b0 f   MenuPrinting.obj
 0001:00027740       ?BoxChangePlayer@@YA?AV?$AABBox@M$01@@JJ@Z 00428740 f   MenuPrinting.obj
 0001:00027800       ?BoxInfoTable@@YA?AV?$AABBox@M$01@@J@Z 00428800 f   MenuPrinting.obj
 0001:00027940       ?BoxArrow@@YA?AV?$AABBox@M$01@@W4ArrowDir@@@Z 00428940 f   MenuPrinting.obj
 0001:00027a70       ?BoxBack@@YA?AV?$AABBox@M$01@@XZ 00428a70 f   MenuPrinting.obj
 0001:00027b00       ?BoxNext@@YA?AV?$AABBox@M$01@@XZ 00428b00 f   MenuPrinting.obj
 0001:00027b90       ?BoxLeftColumn@@YA?AV?$AABBox@M$01@@M@Z 00428b90 f   MenuPrinting.obj
 0001:00027c30       ?BoxPlayerModel@@YA?AV?$AABBox@M$01@@XZ 00428c30 f   MenuPrinting.obj
 0001:00027d40       ?BoxPlayerModelName@@YA?AV?$AABBox@M$01@@XZ 00428d40 f   MenuPrinting.obj
 0001:00027dd0       ?PixBoxToFloatBox@@YA?AV?$AABBox@M$01@@PBVCDrawPort@@ABV?$AABBox@J$01@@@Z 00428dd0 f   MenuPrinting.obj
 0001:00027e70       ?SetFontSmallest@@YAXPAVCDrawPort@@@Z 00428e70 f   MenuPrinting.obj
 0001:00027eb0       ?SetFontSmall@@YAXPAVCDrawPort@@@Z 00428eb0 f   MenuPrinting.obj
 0001:00027ef0       ?SetFontMedium@@YAXPAVCDrawPort@@@Z 00428ef0 f   MenuPrinting.obj
 0001:00027f30       ?SetFontMediumWide@@YAXPAVCDrawPort@@@Z 00428f30 f   MenuPrinting.obj
 0001:0002cde0       ??0CGameButton@@QAE@XZ     0042dde0 f   SharedGameGadgets.obj
 0001:0002ce50       ?GetCurrentColor@CGameButton@@UAEKXZ 0042de50 f   SharedGameGadgets.obj
 0001:0002cee0       ?OnKeyDown@CGameButton@@UAEHH@Z 0042dee0 f   SharedGameGadgets.obj
 0001:0002cf70       ?Render@CGameButton@@UAEXPAVCDrawPort@@@Z 0042df70 f   SharedGameGadgets.obj
 0001:0002d710       ?OnKillFocus@CGameButton@@UAEXXZ 0042e710 f   SharedGameGadgets.obj
 0001:0002d730       ?Disappear@CGameButton@@UAEXXZ 0042e730 f   SharedGameGadgets.obj
 0001:0002d750       ?Think@CGameButton@@UAEXXZ 0042e750 f   SharedGameGadgets.obj
 0001:0002d770       ?OnMouseOver@CGameButton@@UAEXJJ@Z 0042e770 f   SharedGameGadgets.obj
 0001:0002d7a0       ?OnSetFocus@CGameButton@@UAEXXZ 0042e7a0 f   SharedGameGadgets.obj
 0001:0002d7c0       ?UpdateTracking@CGameButton@@UAEXXZ 0042e7c0 f   SharedGameGadgets.obj
 0001:0002d840       ?StopTracking@CGameButton@@UAEXXZ 0042e840 f   SharedGameGadgets.obj
 0001:0002d850       ?StartColorTransition@CGameButton@@UAEXXZ 0042e850 f   SharedGameGadgets.obj
 0001:0002d8a0       ?EndColorTransition@CGameButton@@UAEXXZ 0042e8a0 f   SharedGameGadgets.obj
 0001:0002d8c0       ?UpdateColorTransition@CGameButton@@UAEXXZ 0042e8c0 f   SharedGameGadgets.obj
 0001:0002d960       ??0CModelInstanceGadget@@QAE@XZ 0042e960 f   SharedGameGadgets.obj
 0001:0002db40       ?OnKeyDown@CModelInstanceGadget@@UAEHH@Z 0042eb40 f   SharedGameGadgets.obj
 0001:0002dbb0       ?HandleMouseMove@CModelInstanceGadget@@UAEHJJ@Z 0042ebb0 f   SharedGameGadgets.obj
 0001:0002dc60       ?HandleKeyUp@CModelInstanceGadget@@UAEXH@Z 0042ec60 f   SharedGameGadgets.obj
 0001:0002dcc0       ?SetRotation@CModelInstanceGadget@@UAEXHM@Z 0042ecc0 f   SharedGameGadgets.obj
 0001:0002dd10       ?UpdateRotation@CModelInstanceGadget@@UAEXXZ 0042ed10 f   SharedGameGadgets.obj
 0001:0002de20       ?LoadChildModel@CModelInstanceGadget@@UAEJABVCTString@@0ABV?$Vector@M$02@@1@Z 0042ee20 f   SharedGameGadgets.obj
 0001:0002df00       ?DeleteModelInstance@CModelInstanceGadget@@UAEXXZ 0042ef00 f   SharedGameGadgets.obj
 0001:0002df50       ?SetChildTexture@CModelInstanceGadget@@UAEXJABVCTFileName@@@Z 0042ef50 f   SharedGameGadgets.obj
 0001:0002df90       ?SetChildStretch@CModelInstanceGadget@@UAEXJABV?$Vector@M$02@@@Z 0042ef90 f   SharedGameGadgets.obj
 0001:0002dfe0       ?DeleteChildModel@CModelInstanceGadget@@UAEXJ@Z 0042efe0 f   SharedGameGadgets.obj
 0001:0002e020       ?DeleteAllChildModels@CModelInstanceGadget@@UAEXXZ 0042f020 f   SharedGameGadgets.obj
 0001:0002e060       ?GetChildModelInstance@CModelInstanceGadget@@UAEPAVCModelInstance@@J@Z 0042f060 f   SharedGameGadgets.obj
 0001:0002e090       ?DoChildAnimation@CModelInstanceGadget@@UAEXJABVCTString@@K@Z 0042f090 f   SharedGameGadgets.obj
 0001:0002e0d0       ??0CListBoxGadget@@QAE@XZ  0042f0d0 f   SharedGameGadgets.obj
 0001:0002e2e0       ?AddItem@CListBoxGadget@@UAEHABVCTString@@K@Z 0042f2e0 f   SharedGameGadgets.obj
 0001:0002e3d0       ?AddItem@CListBoxGadget@@UAEHABVCTString@@0@Z 0042f3d0 f   SharedGameGadgets.obj
 0001:0002e4e0       ?GetItemRect@CListBoxGadget@@UAE?AV?$AABBox@M$01@@J@Z 0042f4e0 f   SharedGameGadgets.obj
 0001:0002e610       ?CalcItemUnderCursor@CListBoxGadget@@UBEJXZ 0042f610 f   SharedGameGadgets.obj
 0001:0002e8b0       ?HandleMouseMove@CListBoxGadget@@UAEHJJ@Z 0042f8b0 f   SharedGameGadgets.obj
 0001:0002e8e0       ?Render@CListBoxGadget@@UAEXPAVCDrawPort@@@Z 0042f8e0 f   SharedGameGadgets.obj
 0001:0002eff0       ?OnKeyDown@CListBoxGadget@@UAEHH@Z 0042fff0 f   SharedGameGadgets.obj
 0001:0002f0b0       ?DeleteAllItems@CListBoxGadget@@UAEXXZ 004300b0 f   SharedGameGadgets.obj
 0001:0002f230       ?IsScrollable@CListBoxGadget@@UBEHXZ 00430230 f   SharedGameGadgets.obj
 0001:0002f290       ?DoScroll@CListBoxGadget@@UAEXHH@Z 00430290 f   SharedGameGadgets.obj
 0001:0002f3b0       ?ScrollCurSelIntoView@CListBoxGadget@@UAEXXZ 004303b0 f   SharedGameGadgets.obj
 0001:0002f440       ?HandleDblClk@CListBoxGadget@@UAEHH@Z 00430440 f   SharedGameGadgets.obj
 0001:0002f470       ??0CRadioButtonGroupGadget@@QAE@XZ 00430470 f   SharedGameGadgets.obj
 0001:0002f530       ?Render@CRadioButtonGroupGadget@@UAEXPAVCDrawPort@@@Z 00430530 f   SharedGameGadgets.obj
 0001:0002f640       ?OnKeyDown@CRadioButtonGroupGadget@@UAEHH@Z 00430640 f   SharedGameGadgets.obj
 0001:0002f6a0       ?GetButtonRect@CRadioButtonGroupGadget@@UBE?AV?$AABBox@M$01@@J@Z 004306a0 f   SharedGameGadgets.obj
 0001:0002f7f0       ?CalcButtonUnderCursor@CRadioButtonGroupGadget@@UBEJXZ 004307f0 f   SharedGameGadgets.obj
 0001:0002f990       ??0CTextBoxGadget@@QAE@XZ  00430990 f   SharedGameGadgets.obj
 0001:0002fab0       ?Render@CTextBoxGadget@@UAEXPAVCDrawPort@@@Z 00430ab0 f   SharedGameGadgets.obj
 0001:00030010       ?FillLineArray@CTextBoxGadget@@UAEXPAVCDrawPort@@@Z 00431010 f   SharedGameGadgets.obj
 0001:00030260       ?DoScroll@CTextBoxGadget@@UAEXH@Z 00431260 f   SharedGameGadgets.obj
 0001:000302e0       ??0CSliderCtrlGadget@@QAE@XZ 004312e0 f   SharedGameGadgets.obj
 0001:00030350       ?Render@CSliderCtrlGadget@@UAEXPAVCDrawPort@@@Z 00431350 f   SharedGameGadgets.obj
 0001:00030920       ?HitTestSlider@CSliderCtrlGadget@@UAEHJJ@Z 00431920 f   SharedGameGadgets.obj
 0001:000309c0       ?UpdateSlider@CSliderCtrlGadget@@UAEHJJ@Z 004319c0 f   SharedGameGadgets.obj
 0001:000309e0       ?OnKeyDown@CSliderCtrlGadget@@UAEHH@Z 004319e0 f   SharedGameGadgets.obj
 0001:00030bb0       ?OnKeyUp@CSliderCtrlGadget@@UAEHH@Z 00431bb0 f   SharedGameGadgets.obj
 0001:00030bc0       ?HandleMouseMove@CSliderCtrlGadget@@UAEHJJ@Z 00431bc0 f   SharedGameGadgets.obj
 0001:00030cc0       ?GetSliderTrackRect@CSliderCtrlGadget@@IAE?AV?$AABBox@J$01@@PAVCDrawPort@@@Z 00431cc0 f   SharedGameGadgets.obj
 0001:00030ed0       ?GetSliderThumbRect@CSliderCtrlGadget@@IAE?AV?$AABBox@J$01@@PAVCDrawPort@@@Z 00431ed0 f   SharedGameGadgets.obj
 0001:00031170       ?GetThumbPosAsFloat@CSliderCtrlGadget@@IBEMXZ 00432170 f   SharedGameGadgets.obj
 0001:000311f0       ?UpdateThumbPosition@CSliderCtrlGadget@@IAEXJJ@Z 004321f0 f   SharedGameGadgets.obj
 0001:00031520       ??0CCheckboxGadget@@QAE@XZ 00432520 f   SharedGameGadgets.obj
 0001:000315d0       ?InitializeTexture@CCheckboxGadget@@UAEXJJPAVCTextureObject@@@Z 004325d0 f   SharedGameGadgets.obj
 0001:000315f0       ?Render@CCheckboxGadget@@UAEXPAVCDrawPort@@@Z 004325f0 f   SharedGameGadgets.obj
 0001:000316f0       ?OnKeyDown@CCheckboxGadget@@UAEHH@Z 004326f0 f   SharedGameGadgets.obj
 0001:00031740       ??0CModelInstanceContainer@@QAE@XZ 00432740 f i SharedGameGadgets.obj
 0001:00031890       ??_ECModelInstanceContainer@@UAEPAXI@Z 00432890 f i SharedGameGadgets.obj
 0001:00031890       ??_GCModelInstanceContainer@@UAEPAXI@Z 00432890 f i SharedGameGadgets.obj
 0001:000318c0       ??1CModelInstanceContainer@@UAE@XZ 004328c0 f i SharedGameGadgets.obj
 0001:00031930       ?LoadModel@CModelInstanceContainer@@UAEXABVCTString@@@Z 00432930 f i SharedGameGadgets.obj
 0001:000319d0       ?Render@CModelInstanceContainer@@UAEXPAVCDrawPort@@@Z 004329d0 f i SharedGameGadgets.obj
 0001:00031f60       ?DoAnimation@CModelInstanceContainer@@UAEXABVCTString@@K@Z 00432f60 f i SharedGameGadgets.obj
 0001:00031fc0       ?DoAnimation@CModelInstanceContainer@@UAEXJK@Z 00432fc0 f i SharedGameGadgets.obj
 0001:00032000       ?StopAnimation@CModelInstanceContainer@@UAEXABVCTString@@@Z 00433000 f i SharedGameGadgets.obj
 0001:00032060       ?StopAnimation@CModelInstanceContainer@@UAEXJ@Z 00433060 f i SharedGameGadgets.obj
 0001:00032080       ?TransitionToAnimation@CModelInstanceContainer@@UAEXABVCTString@@KM@Z 00433080 f i SharedGameGadgets.obj
 0001:00032100       ?DeleteModelInstance@CModelInstanceContainer@@UAEXH@Z 00433100 f i SharedGameGadgets.obj
 0001:000321c0       ?SetTexture@CModelInstanceContainer@@UAEXABVCTFileName@@@Z 004331c0 f i SharedGameGadgets.obj
 0001:000322b0       ?LoadModel@CModelInstanceGadget@@UAEXABVCTString@@@Z 004332b0 f i SharedGameGadgets.obj
 0001:000322d0       ?Render@CModelInstanceGadget@@UAEXPAVCDrawPort@@@Z 004332d0 f i SharedGameGadgets.obj
 0001:000322f0       ?DoAnimation@CModelInstanceGadget@@UAEXABVCTString@@K@Z 004332f0 f i SharedGameGadgets.obj
 0001:00032310       ?DoAnimation@CModelInstanceGadget@@UAEXJK@Z 00433310 f i SharedGameGadgets.obj
 0001:00032330       ?TransitionToAnimation@CModelInstanceGadget@@UAEXABVCTString@@KM@Z 00433330 f i SharedGameGadgets.obj
 0001:00032350       ?SetBoxOnScreen@CModelInstanceGadget@@UAEXABV?$AABBox@M$01@@@Z 00433350 f i SharedGameGadgets.obj
 0001:000323a0       ?SetTexture@CModelInstanceGadget@@UAEXABVCTFileName@@@Z 004333a0 f i SharedGameGadgets.obj
 0001:000323c0       ?GetModelInstance@CModelInstanceGadget@@UAEPAVCModelInstance@@XZ 004333c0 f i SharedGameGadgets.obj
 0001:000323d0       ?GetTextLine@CTextBoxGadget@@QAE?AVCTString@@H@Z 004333d0 f i SharedGameGadgets.obj
 0001:00032410       ?GetDisplayValueFormat@CSliderCtrlGadget@@QBE?AVCTString@@XZ 00433410 f i SharedGameGadgets.obj
 0001:00032440       ?Render@CTiledTextureContainer@@UAEXPAVCDrawPort@@@Z 00433440 f i SharedGameGadgets.obj
 0001:00032680       ??1?$CDynamicStackArray@VCTString@@@@QAE@XZ 00433680 f i SharedGameGadgets.obj
 0001:00032740       ??1?$CDynamicStackArray@K@@QAE@XZ 00433740 f i SharedGameGadgets.obj
 0001:000327b0       ?SetToNormalizedEmpty@?$AABBox@M$01@@QAEXXZ 004337b0 f i SharedGameGadgets.obj
 0001:000327d0       ?New@?$CDynamicArray@VCTString@@@@QAEPAVCTString@@J@Z 004337d0 f i SharedGameGadgets.obj
 0001:00032850       ?Clear@?$CDynamicArray@VCTString@@@@QAEXXZ 00433850 f i SharedGameGadgets.obj
 0001:00032900       ?New@?$CDynamicArray@K@@QAEPAKJ@Z 00433900 f i SharedGameGadgets.obj
 0001:00032980       ?AllocBlock@?$CDynamicArray@VCTString@@@@QAEPAVCTString@@J@Z 00433980 f i SharedGameGadgets.obj
 0001:00032a30       ?AllocBlock@?$CDynamicArray@K@@QAEPAKJ@Z 00433a30 f i SharedGameGadgets.obj
 0001:00038150       ?ItemToName@WW2003@@YA?AVCTString@@J@Z 00439150 f   BackpackGadget.obj
 0001:00038420       ?NameToItem@WW2003@@YAJABVCTString@@@Z 00439420 f   BackpackGadget.obj
 0001:000386b0       ??0CPickEquipmentBackpack@WW2003@@QAE@XZ 004396b0 f   BackpackGadget.obj
 0001:00038a90       ?Render@CPickEquipmentBackpack@WW2003@@UAEXPAVCDrawPort@@@Z 00439a90 f   BackpackGadget.obj
 0001:00039740       ?OnKeyDown@CPickEquipmentBackpack@WW2003@@UAEHH@Z 0043a740 f   BackpackGadget.obj
 0001:00039840       ?AddBackpackItem@CPickEquipmentBackpack@WW2003@@UAEHJ@Z 0043a840 f   BackpackGadget.obj
 0001:00039a90       ?AddGun@CPickEquipmentBackpack@WW2003@@UAEHABVCTString@@@Z 0043aa90 f   BackpackGadget.obj
 0001:00039bd0       ?RemoveGun@CPickEquipmentBackpack@WW2003@@UAEXJ@Z 0043abd0 f   BackpackGadget.obj
 0001:00039c90       ?AddAmmo@CPickEquipmentBackpack@WW2003@@UAEHABVCTString@@@Z 0043ac90 f   BackpackGadget.obj
 0001:00039e30       ?RemoveAmmo@CPickEquipmentBackpack@WW2003@@UAEXJ@Z 0043ae30 f   BackpackGadget.obj
 0001:00039ec0       ?RemoveCurSelSlotItem@CPickEquipmentBackpack@WW2003@@UAEXXZ 0043aec0 f   BackpackGadget.obj
 0001:0003a2d0       ?FindNextFilledSlot@CPickEquipmentBackpack@WW2003@@UAE?AW4eBackpackSlotType@2@H@Z 0043b2d0 f   BackpackGadget.obj
 0001:0003a370       ?ItemInBackpack@CPickEquipmentBackpack@WW2003@@UAEHJ@Z 0043b370 f   BackpackGadget.obj
 0001:0003a3a0       ?GetSlotRect@CPickEquipmentBackpack@WW2003@@IBE?AV?$AABBox@M$01@@W4eBackpackSlotType@2@@Z 0043b3a0 f   BackpackGadget.obj
 0001:0003ae50       ?CalcSlotUnderCursor@CPickEquipmentBackpack@WW2003@@IBE?AW4eBackpackSlotType@2@XZ 0043be50 f   BackpackGadget.obj
 0001:0003b000       ?SetIconImageIndex@CPickEquipmentBackpack@WW2003@@IAEXW4eBackpackSlotType@2@J@Z 0043c000 f   BackpackGadget.obj
 0001:0003b6d0       ?UpdateToolTip@CPickEquipmentBackpack@WW2003@@IAEXXZ 0043c6d0 f   BackpackGadget.obj
 0001:0003b9b0       ?SetGunIcon@CPickEquipmentBackpack@WW2003@@IAEXJAAVCTiledTextureContainer@@@Z 0043c9b0 f   BackpackGadget.obj
 0001:0003be30       ?HandleDblClk@CPickEquipmentBackpack@WW2003@@UAEHH@Z 0043ce30 f   BackpackGadget.obj
 0001:0003be70       ?HandleMouseMove@CPickEquipmentBackpack@WW2003@@UAEHJJ@Z 0043ce70 f   BackpackGadget.obj
 0001:0003beb0       ?UpdateContents@CPickEquipmentBackpack@WW2003@@UAEXW4eHuntType@@@Z 0043ceb0 f   BackpackGadget.obj
 0001:0003c680       ?ClearAllContents@CPickEquipmentBackpack@WW2003@@UAEXXZ 0043d680 f   BackpackGadget.obj
 0001:0003c6c0       ?ReleaseTextures@CPickEquipmentBackpack@WW2003@@UAEXXZ 0043d6c0 f   BackpackGadget.obj
 0001:0003c7b0       ?RestoreTextures@CPickEquipmentBackpack@WW2003@@UAEXXZ 0043d7b0 f   BackpackGadget.obj
 0001:0003cc80       ?RemoveIncompatibleAmmo@CPickEquipmentBackpack@WW2003@@UAEXXZ 0043dc80 f   BackpackGadget.obj
 0001:0003d3b0       ?FloatBoxToPixBox@@YA?AV?$AABBox@J$01@@PBVCDrawPort@@ABV?$AABBox@M$01@@@Z 0043e3b0 f i BackpackGadget.obj
 0001:0003d4a0       ?SetToNormalizedEmpty@?$AABBox@J$01@@QAEXXZ 0043e4a0 f i BackpackGadget.obj
 0001:00042c30       ??0CGunFileProxy@WW2003@@QAE@XZ 00443c30 f   GameFileProxies.obj
 0001:00042c40       ?GetBaseGunEntry@CGunFileProxy@WW2003@@QBE?AVCTString@@ABV3@0@Z 00443c40 f   GameFileProxies.obj
 0001:00042d90       ?GetBaseGunAction@CGunFileProxy@WW2003@@QBE?AVCTString@@ABV3@@Z 00443d90 f   GameFileProxies.obj
 0001:00042ee0       ?GetGunSkin@CGunFileProxy@WW2003@@QBE?AVCTString@@ABV3@@Z 00443ee0 f   GameFileProxies.obj
 0001:00043070       ?UpdateGunData@CGunFileProxy@WW2003@@QAEXABVCTString@@0000@Z 00444070 f   GameFileProxies.obj
 0001:00043110       ?GetGunGaugeString@CGunFileProxy@WW2003@@QBE?AVCTString@@ABV3@@Z 00444110 f   GameFileProxies.obj
 0001:000431f0       ??0CHunterFileProxy@WW2003@@QAE@XZ 004441f0 f   GameFileProxies.obj
 0001:00043200       ?RefreshDogsAndGuns@CHunterFileProxy@WW2003@@QAEXXZ 00444200 f   GameFileProxies.obj
 0001:00043240       ?GetBaseHunterEntry@CHunterFileProxy@WW2003@@QBE?AVCTString@@ABV3@0@Z 00444240 f   GameFileProxies.obj
 0001:00043390       ?GetAnyGunFile@CHunterFileProxy@WW2003@@QBE?AVCTString@@ABV3@@Z 00444390 f   GameFileProxies.obj
 0001:000435d0       ?GetHunterSkin@CHunterFileProxy@WW2003@@QBE?AVCTString@@ABV3@@Z 004445d0 f   GameFileProxies.obj
 0001:00043760       ?GetCurHunterPath@CHunterFileProxy@WW2003@@QBE?AVCTString@@XZ 00444760 f   GameFileProxies.obj
 0001:00043790       ?GetCurHunterName@CHunterFileProxy@WW2003@@QBE?AVCTString@@XZ 00444790 f   GameFileProxies.obj
 0001:00043860       ?GetCurHunterFileOwner@CHunterFileProxy@WW2003@@QBEJXZ 00444860 f   GameFileProxies.obj
 0001:00043930       ?GetCurHunterIndex@CHunterFileProxy@WW2003@@QBEJXZ 00444930 f   GameFileProxies.obj
 0001:00043990       ?GetCurHunterInfo@CHunterFileProxy@WW2003@@QBEPAVCInfoFile@@XZ 00444990 f   GameFileProxies.obj
 0001:000439c0       ?SetCurHunterPath@CHunterFileProxy@WW2003@@QAEXABVCTString@@@Z 004449c0 f   GameFileProxies.obj
 0001:00043a00       ?SelectAnyValidHunterFile@CHunterFileProxy@WW2003@@QAEHXZ 00444a00 f   GameFileProxies.obj
 0001:00043ae0       ?RestoreCurHunterSkins@CHunterFileProxy@WW2003@@QAEXXZ 00444ae0 f   GameFileProxies.obj
 0001:00043b60       ?GetCurHunterIsFemale@CHunterFileProxy@WW2003@@QBEHXZ 00444b60 f   GameFileProxies.obj
 0001:00043bb0       ?GetCurHunterBaseHunter@CHunterFileProxy@WW2003@@QBE?AVCTString@@XZ 00444bb0 f   GameFileProxies.obj
 0001:00043c70       ?GetCurHunterGunFile@CHunterFileProxy@WW2003@@QBE?AVCTString@@H@Z 00444c70 f   GameFileProxies.obj
 0001:00043e60       ?GetCurHunterAmmoFile@CHunterFileProxy@WW2003@@QBE?AVCTString@@H@Z 00444e60 f   GameFileProxies.obj
 0001:000440f0       ?GetCurHunterAmmoType@CHunterFileProxy@WW2003@@QBE?AVCTString@@H@Z 004450f0 f   GameFileProxies.obj
 0001:000441f0       ?GetCurHunterGunName@CHunterFileProxy@WW2003@@QBE?AVCTString@@H@Z 004451f0 f   GameFileProxies.obj
 0001:000442f0       ?GetCurHunterGunFileOwner@CHunterFileProxy@WW2003@@QBEJH@Z 004452f0 f   GameFileProxies.obj
 0001:000443e0       ?GetCurHunterAmmoFileOwner@CHunterFileProxy@WW2003@@QBEJH@Z 004453e0 f   GameFileProxies.obj
 0001:00044470       ?GetCurHunterAmmoName@CHunterFileProxy@WW2003@@QBE?AVCTString@@H@Z 00445470 f   GameFileProxies.obj
 0001:00044570       ?GetCurHunterAmmoGaugeString@CHunterFileProxy@WW2003@@QBE?AVCTString@@H@Z 00445570 f   GameFileProxies.obj
 0001:00044710       ?GetCurHunterBaseGunFile@CHunterFileProxy@WW2003@@QBE?AVCTString@@H@Z 00445710 f   GameFileProxies.obj
 0001:00044810       ?GetCurHunterWeaponType@CHunterFileProxy@WW2003@@QBE?AVCTString@@H@Z 00445810 f   GameFileProxies.obj
 0001:00044900       ?GetCurHunterEquipmentCall@CHunterFileProxy@WW2003@@QBE?AVCTString@@H@Z 00445900 f   GameFileProxies.obj
 0001:00044c30       ?GetCurHunterEquipmentDecoy@CHunterFileProxy@WW2003@@QBE?AVCTString@@H@Z 00445c30 f   GameFileProxies.obj
 0001:00044ec0       ?GetCurHunterEquipmentMisc@CHunterFileProxy@WW2003@@QBE?AVCTString@@H@Z 00445ec0 f   GameFileProxies.obj
 0001:000451f0       ?GetCurHunterHotkeyItem@CHunterFileProxy@WW2003@@QBE?AVCTString@@H@Z 004461f0 f   GameFileProxies.obj
 0001:00045480       ?SetCurHunterHotkeyItem@CHunterFileProxy@WW2003@@QAEXHABVCTString@@H@Z 00446480 f   GameFileProxies.obj
 0001:00045580       ?GetCurHunterHotkeyItemToggleState@CHunterFileProxy@WW2003@@QBEHH@Z 00446580 f   GameFileProxies.obj
 0001:00045810       ?SetCurHunterHotkeyItemToggleState@CHunterFileProxy@WW2003@@QAEXHHH@Z 00446810 f   GameFileProxies.obj
 0001:00045990       ?GetCurHunterDogFile@CHunterFileProxy@WW2003@@QBE?AVCTString@@XZ 00446990 f   GameFileProxies.obj
 0001:00045a50       ?GetCurHunterDogFileOwner@CHunterFileProxy@WW2003@@QBEJXZ 00446a50 f   GameFileProxies.obj
 0001:00045af0       ?GetCurHunterCurDogInfo@CHunterFileProxy@WW2003@@QBEPAVCInfoFile@@XZ 00446af0 f   GameFileProxies.obj
 0001:00045b80       ?UpdateCurHunterStats@CHunterFileProxy@WW2003@@QAEXJ@Z 00446b80 f   GameFileProxies.obj
 0001:00045da0       ?UpdateCurHunterStatsAnimalCount@CHunterFileProxy@WW2003@@QAEXJJ@Z 00446da0 f   GameFileProxies.obj
 0001:00046020       ?UpdateCurHunterStatsShotsFired@CHunterFileProxy@WW2003@@QAEXJJM@Z 00447020 f   GameFileProxies.obj
 0001:000461e0       ?UpdateCurHunterGrandSlamStats@CHunterFileProxy@WW2003@@QAEXABVCTString@@J@Z 004471e0 f   GameFileProxies.obj
 0001:00046670       ?UpdateCurHunterGrandSlamModelInfo@CHunterFileProxy@WW2003@@QAEXJABVCTString@@AAVCInfoFile@@@Z 00447670 f   GameFileProxies.obj
 0001:00046cc0       ?CreateCurHunterLogbookFile@CHunterFileProxy@WW2003@@QAEHAAVCTString@@@Z 00447cc0 f   GameFileProxies.obj
 0001:00046d30       ?RefreshCurHunterLogbookData@CHunterFileProxy@WW2003@@QAEXXZ 00447d30 f   GameFileProxies.obj
 0001:00046d90       ?RefreshCustomLogbookData@CHunterFileProxy@WW2003@@QAEXXZ 00447d90 f   GameFileProxies.obj
 0001:00046e00       ?GetNumLogbookEntries@CHunterFileProxy@WW2003@@QBEJXZ 00447e00 f   GameFileProxies.obj
 0001:00046e10       ?GetLogbookEntryIndex@CHunterFileProxy@WW2003@@QBEJABVCTString@@@Z 00447e10 f   GameFileProxies.obj
 0001:00046e30       ?GetNumLogbookAnimalEntries@CHunterFileProxy@WW2003@@QBEJJ@Z 00447e30 f   GameFileProxies.obj
 0001:00046e80       ?DumpLogbookData@CHunterFileProxy@WW2003@@QAEXXZ 00447e80 f   GameFileProxies.obj
 0001:00046e90       ?GetLogbookEntryName@CHunterFileProxy@WW2003@@QBE?AVCTString@@J@Z 00447e90 f   GameFileProxies.obj
 0001:00046f80       ?GetLogbookEntryValue@CHunterFileProxy@WW2003@@QBE?AVCTString@@JABV3@@Z 00447f80 f   GameFileProxies.obj
 0001:00047070       ?GetLogbookAnimalEntryValue@CHunterFileProxy@WW2003@@QBE?AVCTString@@JJABV3@@Z 00448070 f   GameFileProxies.obj
 0001:000471e0       ?DeleteCurHunterLogbookAnimal@CHunterFileProxy@WW2003@@QAEXJJ@Z 004481e0 f   GameFileProxies.obj
 0001:00047440       ?ExportCurHunterLogbookEntry@CHunterFileProxy@WW2003@@QAEXJAAVCTString@@@Z 00448440 f   GameFileProxies.obj
 0001:00047600       ?ExportCurHunterLogbookAnimal@CHunterFileProxy@WW2003@@QAEXJJAAVCTString@@@Z 00448600 f   GameFileProxies.obj
 0001:00049a90       ?GetFirstNonEmptyLogbookEntry@CHunterFileProxy@WW2003@@QBEJXZ 0044aa90 f   GameFileProxies.obj
 0001:00049b80       ?GetBaseDogEntry@CHunterFileProxy@WW2003@@QBE?AVCTString@@ABV3@0@Z 0044ab80 f   GameFileProxies.obj
 0001:00049d30       ?GetCurHunterDogEntry@CHunterFileProxy@WW2003@@QBE?AVCTString@@ABV3@@Z 0044ad30 f   GameFileProxies.obj
 0001:00049e30       ?SetCurHunterDogFile@CHunterFileProxy@WW2003@@QAEXABVCTString@@@Z 0044ae30 f   GameFileProxies.obj
 0001:00049e80       ?GetCurHunterDogIndex@CHunterFileProxy@WW2003@@QBEJXZ 0044ae80 f   GameFileProxies.obj
 0001:00049f00       ?GetCurHunterDogStats@CHunterFileProxy@WW2003@@QAE?AVCTString@@W4eDogStatsType@2@@Z 0044af00 f   GameFileProxies.obj
 0001:0004a120       ?GetCurHunterLastMap@CHunterFileProxy@WW2003@@QBE?AVCTString@@XZ 0044b120 f   GameFileProxies.obj
 0001:0004a250       ?SetCurHunterLastMap@CHunterFileProxy@WW2003@@QAEXABVCTString@@@Z 0044b250 f   GameFileProxies.obj
 0001:0004a2c0       ?GetCurHunterSeason@CHunterFileProxy@WW2003@@QBEJXZ 0044b2c0 f   GameFileProxies.obj
 0001:0004a310       ?SetCurHunterSeason@CHunterFileProxy@WW2003@@QAEXJ@Z 0044b310 f   GameFileProxies.obj
 0001:0004a440       ?GetCurHunterTimeOfDay@CHunterFileProxy@WW2003@@QBEJXZ 0044b440 f   GameFileProxies.obj
 0001:0004a490       ?SetCurHunterTimeOfDay@CHunterFileProxy@WW2003@@QAEXJ@Z 0044b490 f   GameFileProxies.obj
 0001:0004a5c0       ?GetCurHunterTimeScale@CHunterFileProxy@WW2003@@QBEJXZ 0044b5c0 f   GameFileProxies.obj
 0001:0004a610       ?SetCurHunterTimeScale@CHunterFileProxy@WW2003@@QAEXJ@Z 0044b610 f   GameFileProxies.obj
 0001:0004a740       ?GetCurHunterLastLogEntry@CHunterFileProxy@WW2003@@QBE?AVCTString@@XZ 0044b740 f   GameFileProxies.obj
 0001:0004a870       ?SetCurHunterLastLogEntry@CHunterFileProxy@WW2003@@QAEXABVCTString@@@Z 0044b870 f   GameFileProxies.obj
 0001:0004a8e0       ?AddCallEntry@CHunterFileProxy@WW2003@@QAEXHABVCTString@@@Z 0044b8e0 f   GameFileProxies.obj
 0001:0004aa10       ?AddDecoyEntry@CHunterFileProxy@WW2003@@QAEXHABVCTString@@@Z 0044ba10 f   GameFileProxies.obj
 0001:0004ab00       ?AddMiscEntry@CHunterFileProxy@WW2003@@QAEXHABVCTString@@@Z 0044bb00 f   GameFileProxies.obj
 0001:0004ac30       ?AddGunEntry@CHunterFileProxy@WW2003@@QAEXHABVCTString@@@Z 0044bc30 f   GameFileProxies.obj
 0001:0004acf0       ?AddAmmoEntry@CHunterFileProxy@WW2003@@QAEXHABVCTString@@@Z 0044bcf0 f   GameFileProxies.obj
 0001:0004ade0       ?AddCurHunterEntry@CHunterFileProxy@WW2003@@QAEXABVCTString@@0@Z 0044bde0 f   GameFileProxies.obj
 0001:0004ae00       ?CreateNewHunter@CHunterFileProxy@WW2003@@QAE?AVCTString@@ABV3@00@Z 0044be00 f   GameFileProxies.obj
 0001:0004b1b0       ?UpdateCurHunter@CHunterFileProxy@WW2003@@QAEXABVCTString@@0@Z 0044c1b0 f   GameFileProxies.obj
 0001:0004b210       ?CreateDefaultEquipment@CHunterFileProxy@WW2003@@QAEXPAVCInfoFile@@@Z 0044c210 f   GameFileProxies.obj
 0001:0004b8f0       ?CreateDefaultDog@CHunterFileProxy@WW2003@@QAEXABVCTString@@0@Z 0044c8f0 f   GameFileProxies.obj
 0001:0004bb50       ?CreateDefaultGun@CHunterFileProxy@WW2003@@QAE?AVCTString@@ABV3@0J@Z 0044cb50 f   GameFileProxies.obj
 0001:0004bd40       ?SetDefaultGunParameters@CHunterFileProxy@WW2003@@QAEXABVCTString@@W4GunBarrel@@W4GunChoke@@2W4GunGauge@@@Z 0044cd40 f   GameFileProxies.obj
 0001:0004c110       ?SetCurHunterSkillLevel@CHunterFileProxy@WW2003@@QAEXABVCTString@@@Z 0044d110 f   GameFileProxies.obj
 0001:0004c1b0       ?GetCurHunterSkillLevel@CHunterFileProxy@WW2003@@QBEJXZ 0044d1b0 f   GameFileProxies.obj
 0001:0004c2b0       ?CreateNewGun@CHunterFileProxy@WW2003@@QAE?AVCTString@@ABV3@00@Z 0044d2b0 f   GameFileProxies.obj
 0001:0004c3e0       ?GetCurHunterBaseHunterEntry@CHunterFileProxy@WW2003@@QBE?AVCTString@@ABV3@@Z 0044d3e0 f i GameFileProxies.obj
 0001:00051e10       ??0CEditControlGadget@WW2003@@QAE@XZ 00452e10 f   GameGadgets.obj
 0001:00051e70       ?Clear@CEditControlGadget@WW2003@@QAEXXZ 00452e70 f   GameGadgets.obj
 0001:00051e80       ?OnActivate@CEditControlGadget@WW2003@@UAEXXZ 00452e80 f   GameGadgets.obj
 0001:00051ed0       ?OnKillFocus@CEditControlGadget@WW2003@@UAEXXZ 00452ed0 f   GameGadgets.obj
 0001:00051ef0       ?OnKeyDown@CEditControlGadget@WW2003@@UAEHH@Z 00452ef0 f   GameGadgets.obj
 0001:00052110       ?OnChar@CEditControlGadget@WW2003@@UAEHUtagMSG@@@Z 00453110 f   GameGadgets.obj
 0001:000521b0       ?Render@CEditControlGadget@WW2003@@UAEXPAVCDrawPort@@@Z 004531b0 f   GameGadgets.obj
 0001:000522a0       ?OnStringChanged@CEditControlGadget@WW2003@@UAEXXZ 004532a0 f   GameGadgets.obj
 0001:000522b0       ?OnStringCanceled@CEditControlGadget@WW2003@@UAEXXZ 004532b0 f   GameGadgets.obj
 0001:000522c0       ??0CTargetButton@WW2003@@QAE@XZ 004532c0 f   GameGadgets.obj
 0001:00052320       ?CalcRect@CTargetButton@WW2003@@IAEXXZ 00453320 f   GameGadgets.obj
 0001:000523c0       ?Render@CTargetButton@WW2003@@UAEXPAVCDrawPort@@@Z 004533c0 f   GameGadgets.obj
 0001:000525e0       ?InitializeIcon@CTargetButton@WW2003@@UAEXPAVCListHead@@@Z 004535e0 f   GameGadgets.obj
 0001:00052710       ?Render@CSquareButtonLarge@WW2003@@UAEXPAVCDrawPort@@@Z 00453710 f   GameGadgets.obj
 0001:00052900       ?Render@CRoundButtonSmall@WW2003@@UAEXPAVCDrawPort@@@Z 00453900 f   GameGadgets.obj
 0001:00052ae0       ??0CRolloverIconButton@WW2003@@QAE@XZ 00453ae0 f   GameGadgets.obj
 0001:00052b10       ?Render@CRolloverIconButton@WW2003@@UAEXPAVCDrawPort@@@Z 00453b10 f   GameGadgets.obj
 0001:00052d20       ?OnKillFocus@CRolloverIconButton@WW2003@@UAEXXZ 00453d20 f   GameGadgets.obj
 0001:00052d40       ?Disappear@CRolloverIconButton@WW2003@@UAEXXZ 00453d40 f   GameGadgets.obj
 0001:00052d60       ?OnSetFocus@CRolloverIconButton@WW2003@@UAEXXZ 00453d60 f   GameGadgets.obj
 0001:00052d80       ??0CTabCtrlGadget@WW2003@@QAE@XZ 00453d80 f   GameGadgets.obj
 0001:00052eb0       ?SetEquipmentMenuVersion@CTabCtrlGadget@WW2003@@QAEXXZ 00453eb0 f   GameGadgets.obj
 0001:00053120       ?SetOptionsVersion@CTabCtrlGadget@WW2003@@QAEXH@Z 00454120 f   GameGadgets.obj
 0001:00053480       ?Render@CTabCtrlGadget@WW2003@@UAEXPAVCDrawPort@@@Z 00454480 f   GameGadgets.obj
 0001:00056db0       ?OnKeyDown@CTabCtrlGadget@WW2003@@UAEHH@Z 00457db0 f   GameGadgets.obj
 0001:00056e50       ?AddTab@CTabCtrlGadget@WW2003@@UAEHABVCTString@@M@Z 00457e50 f   GameGadgets.obj
 0001:00056ec0       ?GetTabRect@CTabCtrlGadget@WW2003@@UBE?AV?$AABBox@M$01@@J@Z 00457ec0 f   GameGadgets.obj
 0001:00056ff0       ?CalcTabUnderCursor@CTabCtrlGadget@WW2003@@UBEJXZ 00457ff0 f   GameGadgets.obj
 0001:000571c0       ?HandleMouseMove@CTabCtrlGadget@WW2003@@UAEHJJ@Z 004581c0 f   GameGadgets.obj
 0001:000572d0       ?DeleteAllTabs@CTabCtrlGadget@WW2003@@UAEXXZ 004582d0 f   GameGadgets.obj
 0001:000573b0       ??0CScrollButton@WW2003@@QAE@XZ 004583b0 f   GameGadgets.obj
 0001:000573d0       ?Render@CScrollButton@WW2003@@UAEXPAVCDrawPort@@@Z 004583d0 f   GameGadgets.obj
 0001:00057550       ??0CLRArrowButton@WW2003@@QAE@XZ 00458550 f   GameGadgets.obj
 0001:00057570       ?Render@CLRArrowButton@WW2003@@UAEXPAVCDrawPort@@@Z 00458570 f   GameGadgets.obj
 0001:000576f0       ??0CClickableTextureGadget@WW2003@@QAE@XZ 004586f0 f   GameGadgets.obj
 0001:00057710       ?Render@CClickableTextureGadget@WW2003@@UAEXPAVCDrawPort@@@Z 00458710 f   GameGadgets.obj
 0001:00057810       ?OnKeyDown@CClickableTextureGadget@WW2003@@UAEHH@Z 00458810 f   GameGadgets.obj
 0001:00057870       ??0CPrevNextSmallButton@WW2003@@QAE@XZ 00458870 f   GameGadgets.obj
 0001:00057890       ?Render@CPrevNextSmallButton@WW2003@@UAEXPAVCDrawPort@@@Z 00458890 f   GameGadgets.obj
 0001:00057a10       ??0CPrevNextDogButton@WW2003@@QAE@XZ 00458a10 f   GameGadgets.obj
 0001:00057a30       ?Render@CPrevNextDogButton@WW2003@@UAEXPAVCDrawPort@@@Z 00458a30 f   GameGadgets.obj
 0001:00057b60       ??0CDogStatsGadget@WW2003@@QAE@XZ 00458b60 f   GameGadgets.obj
 0001:00057b80       ?Render@CDogStatsGadget@WW2003@@UAEXPAVCDrawPort@@@Z 00458b80 f   GameGadgets.obj
 0001:0005abf0       ??0CHunterStatsGadget@WW2003@@QAE@XZ 0045bbf0 f   GameGadgets.obj
 0001:0005ac10       ?Render@CHunterStatsGadget@WW2003@@UAEXPAVCDrawPort@@@Z 0045bc10 f   GameGadgets.obj
 0001:0005c6d0       ??1CGameButton@@QAE@XZ     0045d6d0 f i GameGadgets.obj
 0001:0005c750       ?PixelToFloatX@@YAMM@Z     0045d750 f i GameGadgets.obj
 0001:0005c760       ?PixelToFloatY@@YAMM@Z     0045d760 f i GameGadgets.obj
 0001:0005c770       ?GetUseTabs@CTabCtrlGadget@WW2003@@QBEHXZ 0045d770 f i GameGadgets.obj
 0001:0005c780       ?GetEquipmentMenuVersion@CTabCtrlGadget@WW2003@@QBEHXZ 0045d780 f i GameGadgets.obj
 0001:0005c790       ?GetNumTabs@CTabCtrlGadget@WW2003@@QBEJXZ 0045d790 f i GameGadgets.obj
 0001:0005c7a0       ?GetCurTab@CTabCtrlGadget@WW2003@@QBEJXZ 0045d7a0 f i GameGadgets.obj
 0001:0005c7b0       ?GetTabTooltip@CTabCtrlGadget@WW2003@@QAE?AVCTString@@J@Z 0045d7b0 f i GameGadgets.obj
 0001:0005c7f0       ?GetFillBackground@CDogStatsGadget@WW2003@@QBEHXZ 0045d7f0 f i GameGadgets.obj
 0001:0005c800       ?Min@@YAJJJ@Z              0045d800 f i GameGadgets.obj
 0001:0005c820       ??0?$AABBox@M$01@@QAE@ABV?$Vector@M$01@@0@Z 0045d820 f i GameGadgets.obj
 0001:0005c890       ?Min@?$AABBox@M$01@@QBEABV?$Vector@M$01@@XZ 0045d890 f i GameGadgets.obj
 0001:0005c8a0       ?Max@?$AABBox@M$01@@QBEABV?$Vector@M$01@@XZ 0045d8a0 f i GameGadgets.obj
 0001:0005c8b0       ?Size@?$AABBox@J$01@@QBE?BV?$Vector@J$01@@XZ 0045d8b0 f i GameGadgets.obj
 0001:0005c900       ?Min@?$AABBox@J$01@@QBEABV?$Vector@J$01@@XZ 0045d900 f i GameGadgets.obj
 0001:0005c910       ?Max@?$AABBox@J$01@@QBEABV?$Vector@J$01@@XZ 0045d910 f i GameGadgets.obj
 0001:0005c920       ?Max@@YAJJJ@Z              0045d920 f i GameGadgets.obj
 0001:0005c940       ??0CGameMenuBackground@WW2003@@QAE@XZ 0045d940 f   GameMenuBackground.obj
 0001:0005ce60       ??1CGameMenuBackground@WW2003@@QAE@XZ 0045de60 f   GameMenuBackground.obj
 0001:0005d110       ?GetBackgroundPieceRect@CGameMenuBackground@WW2003@@IAE?AV?$AABBox@M$01@@J@Z 0045e110 f   GameMenuBackground.obj
 0001:0005d360       ?GetMidgroundPieceRect@CGameMenuBackground@WW2003@@IAE?AV?$AABBox@M$01@@J@Z 0045e360 f   GameMenuBackground.obj
 0001:0005d530       ?GetForegroundPieceRect@CGameMenuBackground@WW2003@@IAE?AV?$AABBox@M$01@@J@Z 0045e530 f   GameMenuBackground.obj
 0001:0005d6d0       ?Initialize@CGameMenuBackground@WW2003@@UAEXXZ 0045e6d0 f   GameMenuBackground.obj
 0001:0005e670       ?Destroy@CGameMenuBackground@WW2003@@UAEXXZ 0045f670 f   GameMenuBackground.obj
 0001:0005e710       ?Render@CGameMenuBackground@WW2003@@UAEXPAVCDrawPort@@@Z 0045f710 f   GameMenuBackground.obj
 0001:0005f4c0       ?StartFade@CGameMenuBackground@WW2003@@UAEXHM@Z 004604c0 f   GameMenuBackground.obj
 0001:0005f530       ?UpdateFade@CGameMenuBackground@WW2003@@UAEXXZ 00460530 f   GameMenuBackground.obj
 0001:0005f6a0       ?AdjustFogParameters@CGameMenuBackground@WW2003@@UAEXXZ 004606a0 f   GameMenuBackground.obj
 0001:0005f720       ?GetNextAnimToPlay@CGameMenuBackground@WW2003@@UAEJXZ 00460720 f   GameMenuBackground.obj
 0001:0005f7d0       ??_GCModelInstance@@QAEPAXI@Z 004607d0 f i GameMenuBackground.obj
 0001:0005f800       ??0?$AABBox@M$01@@QAE@XZ   00460800 f i GameMenuBackground.obj
 0001:00066190       ?InitializeGameMenus@WW2003@@YAXXZ 00467190 f   GameMenus.obj
 0001:00067260       ?DestroyGameMenus@WW2003@@YAXXZ 00468260 f   GameMenus.obj
 0001:000673f0       ?PreMenuRender@WW2003@@YAXPAVCDrawPort@@@Z 004683f0 f   GameMenus.obj
 0001:00067510       ?PostMenuRender@WW2003@@YAXPAVCDrawPort@@@Z 00468510 f   GameMenus.obj
 0001:00067530       ?RenderTooltip@WW2003@@YAXPAVCDrawPort@@ABVCTString@@@Z 00468530 f   GameMenus.obj
 0001:000676b0       ?DoExitGameProcess@WW2003@@YAXH@Z 004686b0 f   GameMenus.obj
 0001:00067770       ?DoExitHuntProcess@WW2003@@YAXXZ 00468770 f   GameMenus.obj
 0001:00067820       ?ExitHunt@WW2003@@YAXXZ    00468820 f   GameMenus.obj
 0001:000678e0       ?ExitGameFromHunt@WW2003@@YAXXZ 004688e0 f   GameMenus.obj
 0001:00067950       ?ShowCreditsMenu@WW2003@@YAXXZ 00468950 f   GameMenus.obj
 0001:00067960       ?ExportHunt@WW2003@@YAXXZ  00468960 f   GameMenus.obj
 0001:00067a80       ?ExportTrophy@WW2003@@YAXXZ 00468a80 f   GameMenus.obj
 0001:00067ba0       ?DeleteTrophy@WW2003@@YAXXZ 00468ba0 f   GameMenus.obj
 0001:00067bb0       ?ShowPopupHelpMenu@WW2003@@YAXXZ 00468bb0 f   GameMenus.obj
 0001:00067c00       ?ReleaseGameMenuTextures@WW2003@@YAXXZ 00468c00 f   GameMenus.obj
 0001:00067d10       ?RestoreGameMenuTextures@WW2003@@YAXXZ 00468d10 f   GameMenus.obj
 0001:00067e20       ?HandleMouseMove@WW2003@@YAXJJ@Z 00468e20 f   GameMenus.obj
 0001:00067ed0       ?HandleKeyDown@WW2003@@YAXH@Z 00468ed0 f   GameMenus.obj
 0001:00067ef0       ?HandleKeyUp@WW2003@@YAXH@Z 00468ef0 f   GameMenus.obj
 0001:00067f60       ?HandleDblClk@WW2003@@YAXH@Z 00468f60 f   GameMenus.obj
 0001:00067fc0       ?GetCommonToolbarPieceRect@WW2003@@YA?AV?$AABBox@M$01@@PAVCTextureData@@J@Z 00468fc0 f   GameMenus.obj
 0001:00068150       ?GetTempArtPieceRect@WW2003@@YA?AV?$AABBox@M$01@@J@Z 00469150 f   GameMenus.obj
 0001:00068360       ?ExecuteGameMenuCommand@WW2003@@YAXW4eGameMenuCommand@@@Z 00469360 f   GameMenus.obj
 0001:000683a0       ?GetLocationCurrentWeather@WW2003@@YAJXZ 004693a0 f   GameMenus.obj
 0001:000683b0       ?GetLocationForecastWeather@WW2003@@YAJXZ 004693b0 f   GameMenus.obj
 0001:000683c0       ?GetLocationWeatherSpeed@WW2003@@YAJXZ 004693c0 f   GameMenus.obj
 0001:000683d0       ?GetLocationTimeOfDay@WW2003@@YAJXZ 004693d0 f   GameMenus.obj
 0001:000683e0       ?GetLocationSeason@WW2003@@YAJXZ 004693e0 f   GameMenus.obj
 0001:000683f0       ?SetupPlayerCharacterData@WW2003@@YAXXZ 004693f0 f   GameMenus.obj
 0001:00069920       ?SetupBackpackHotkeyItems@WW2003@@YAXXZ 0046a920 f   GameMenus.obj
 0001:00069b30       ?FindDefaultBackpackHotkeyItem@WW2003@@YAJJ@Z 0046ab30 f   GameMenus.obj
 0001:00069be0       ?DoPostHuntUpdates@WW2003@@YAXAAHAAVCTString@@@Z 0046abe0 f   GameMenus.obj
 0001:0006ab00       ?DeleteCurSelGun@WW2003@@YAXXZ 0046bb00 f   GameMenus.obj
 0001:0006ac30       ?DeleteCurrentHunter@WW2003@@YAXXZ 0046bc30 f   GameMenus.obj
 0001:0006ac40       ?DeleteCurrentDog@WW2003@@YAXXZ 0046bc40 f   GameMenus.obj
 0001:0006ac50       ?IsAnimalPartOfCurrentHuntType@WW2003@@YAHW4eAnimalCategory@@@Z 0046bc50 f   GameMenus.obj
 0001:0006acb0       ?OnBackgroundFadeDone@WW2003@@YAXXZ 0046bcb0 f   GameMenus.obj
 0001:0006ace0       ?GetCurWorldFile@WW2003@@YA?AVCTString@@XZ 0046bce0 f   GameMenus.obj
 0001:0006ad10       ?PlayMenuVoiceoverSound@WW2003@@YAXPAVCSoundData@@@Z 0046bd10 f   GameMenus.obj
 0001:0006ad40       ??0CMainMenu@WW2003@@QAE@XZ 0046bd40 f   GameMenus.obj
 0001:0006aee0       ?GetImagePieceRect@CMainMenu@WW2003@@IAE?AV?$AABBox@M$01@@J@Z 0046bee0 f   GameMenus.obj
 0001:0006b0d0       ?Initialize_t@CMainMenu@WW2003@@UAEXXZ 0046c0d0 f   GameMenus.obj
 0001:0006c070       ?ReleaseTextures@CMainMenu@WW2003@@UAEXXZ 0046d070 f   GameMenus.obj
 0001:0006c0c0       ?RestoreTextures@CMainMenu@WW2003@@UAEXXZ 0046d0c0 f   GameMenus.obj
 0001:0006c280       ?StartMenu@CMainMenu@WW2003@@UAEXXZ 0046d280 f   GameMenus.obj
 0001:0006c520       ?Destroy@CMainMenu@WW2003@@UAEXXZ 0046d520 f   GameMenus.obj
 0001:0006c530       ?ShowMenus@CMainMenu@WW2003@@UAEXXZ 0046d530 f   GameMenus.obj
 0001:0006c590       ?OnWaterfowlButton@CMainMenu@WW2003@@SAXXZ 0046d590 f   GameMenus.obj
 0001:0006c5b0       ?OnUplandButton@CMainMenu@WW2003@@SAXXZ 0046d5b0 f   GameMenus.obj
 0001:0006c5d0       ?OnTurkeyButton@CMainMenu@WW2003@@SAXXZ 0046d5d0 f   GameMenus.obj
 0001:0006c5f0       ?OnHunterInfoButton@CMainMenu@WW2003@@SAXXZ 0046d5f0 f   GameMenus.obj
 0001:0006c610       ?OnOptionsButton@CMainMenu@WW2003@@SAXXZ 0046d610 f   GameMenus.obj
 0001:0006c640       ?OnExitButton@CMainMenu@WW2003@@SAXXZ 0046d640 f   GameMenus.obj
 0001:0006c660       ?OnVCRButton@CMainMenu@WW2003@@SAXXZ 0046d660 f   GameMenus.obj
 0001:0006c6b0       ??0CPickLocationMenu@WW2003@@QAE@XZ 0046d6b0 f   GameMenus.obj
 0001:0006c9f0       ?Initialize_t@CPickLocationMenu@WW2003@@UAEXXZ 0046d9f0 f   GameMenus.obj
 0001:0006e410       ?ReleaseTextures@CPickLocationMenu@WW2003@@UAEXXZ 0046f410 f   GameMenus.obj
 0001:0006e520       ?RestoreTextures@CPickLocationMenu@WW2003@@UAEXXZ 0046f520 f   GameMenus.obj
 0001:0006f0b0       ?StartMenu@CPickLocationMenu@WW2003@@UAEXXZ 004700b0 f   GameMenus.obj
 0001:0006f320       ?Destroy@CPickLocationMenu@WW2003@@UAEXXZ 00470320 f   GameMenus.obj
 0001:0006f330       ?GetWorldImagePath@CPickLocationMenu@WW2003@@QBEXAAVCTFileName@@0@Z 00470330 f   GameMenus.obj
 0001:0006f3a0       ?SetWorldImagePath@CPickLocationMenu@WW2003@@QAEXABVCTFileName@@0@Z 004703a0 f   GameMenus.obj
 0001:0006f410       ?PrevMap@CPickLocationMenu@WW2003@@QAEXXZ 00470410 f   GameMenus.obj
 0001:0006f510       ?NextMap@CPickLocationMenu@WW2003@@QAEXXZ 00470510 f   GameMenus.obj
 0001:0006f610       ?PrevSeason@CPickLocationMenu@WW2003@@QAEXXZ 00470610 f   GameMenus.obj
 0001:0006f650       ?NextSeason@CPickLocationMenu@WW2003@@QAEXXZ 00470650 f   GameMenus.obj
 0001:0006f690       ?PrevTime@CPickLocationMenu@WW2003@@QAEXXZ 00470690 f   GameMenus.obj
 0001:0006f6b0       ?NextTime@CPickLocationMenu@WW2003@@QAEXXZ 004706b0 f   GameMenus.obj
 0001:0006f6d0       ?NextCurrentWeather@CPickLocationMenu@WW2003@@QAEXXZ 004706d0 f   GameMenus.obj
 0001:0006f820       ?NextForecastWeather@CPickLocationMenu@WW2003@@QAEXXZ 00470820 f   GameMenus.obj
 0001:0006f970       ?UpdateFromHunterFile@CPickLocationMenu@WW2003@@UAEXXZ 00470970 f   GameMenus.obj
 0001:0006fa80       ?UpdateWorldImage@CPickLocationMenu@WW2003@@UAEXXZ 00470a80 f   GameMenus.obj
 0001:0006fb50       ?UpdateWeather@CPickLocationMenu@WW2003@@UAEXXZ 00470b50 f   GameMenus.obj
 0001:0006fc20       ?UpdateSeason@CPickLocationMenu@WW2003@@UAEXXZ 00470c20 f   GameMenus.obj
 0001:0006fcb0       ?UpdateTimeOfDay@CPickLocationMenu@WW2003@@UAEXXZ 00470cb0 f   GameMenus.obj
 0001:0006fd40       ?HandleKeyUp@CPickLocationMenu@WW2003@@UAEXH@Z 00470d40 f   GameMenus.obj
 0001:0006fd80       ?RandomizeWeather@CPickLocationMenu@WW2003@@UAEXXZ 00470d80 f   GameMenus.obj
 0001:0006fff0       ?UpdateMapSelection@CPickLocationMenu@WW2003@@UAEXXZ 00470ff0 f   GameMenus.obj
 0001:00070470       ?SetMapDescription@CPickLocationMenu@WW2003@@QAEXABVCTString@@@Z 00471470 f   GameMenus.obj
 0001:00070610       ?GetBackgroundPieceRect@CPickLocationMenu@WW2003@@IBE?AV?$AABBox@M$01@@J@Z 00471610 f   GameMenus.obj
 0001:000708e0       ?GetWeatherString@CPickLocationMenu@WW2003@@QBE?AVCTString@@W4eWeatherType@2@@Z 004718e0 f   GameMenus.obj
 0001:000709f0       ?GetSeasonString@CPickLocationMenu@WW2003@@QBE?AVCTString@@W4eSeasonType@2@@Z 004719f0 f   GameMenus.obj
 0001:00070ac0       ?GetTimeOfDayString@CPickLocationMenu@WW2003@@QBE?AVCTString@@J@Z 00471ac0 f   GameMenus.obj
 0001:00070db0       ?OnBackButton@CPickLocationMenu@WW2003@@SAXXZ 00471db0 f   GameMenus.obj
 0001:00070de0       ?OnGearUpButton@CPickLocationMenu@WW2003@@SAXXZ 00471de0 f   GameMenus.obj
 0001:00070e10       ?OnHunterInfoButton@CPickLocationMenu@WW2003@@SAXXZ 00471e10 f   GameMenus.obj
 0001:00070e50       ?OnOptionsButton@CPickLocationMenu@WW2003@@SAXXZ 00471e50 f   GameMenus.obj
 0001:00070ea0       ?OnExitButton@CPickLocationMenu@WW2003@@SAXXZ 00471ea0 f   GameMenus.obj
 0001:00070ee0       ?OnPrevMapButton@CPickLocationMenu@WW2003@@SAXXZ 00471ee0 f   GameMenus.obj
 0001:00070ef0       ?OnNextMapButton@CPickLocationMenu@WW2003@@SAXXZ 00471ef0 f   GameMenus.obj
 0001:00070f00       ?OnPrevSeasonButton@CPickLocationMenu@WW2003@@SAXXZ 00471f00 f   GameMenus.obj
 0001:00070f10       ?OnNextSeasonButton@CPickLocationMenu@WW2003@@SAXXZ 00471f10 f   GameMenus.obj
 0001:00070f20       ?OnPrevTimeButton@CPickLocationMenu@WW2003@@SAXXZ 00471f20 f   GameMenus.obj
 0001:00070f30       ?OnNextTimeButton@CPickLocationMenu@WW2003@@SAXXZ 00471f30 f   GameMenus.obj
 0001:00070f40       ?OnCurrentWeatherClicked@CPickLocationMenu@WW2003@@SAXXZ 00471f40 f   GameMenus.obj
 0001:00070f50       ?OnForecastWeatherClicked@CPickLocationMenu@WW2003@@SAXXZ 00471f50 f   GameMenus.obj
 0001:00070f60       ?OnScrollUpButton@CPickLocationMenu@WW2003@@SAXXZ 00471f60 f   GameMenus.obj
 0001:00070f70       ?OnScrollDownButton@CPickLocationMenu@WW2003@@SAXXZ 00471f70 f   GameMenus.obj
 0001:00070f80       ??0CPickEquipmentMenu@WW2003@@QAE@XZ 00471f80 f   GameMenus.obj
 0001:00071220       ?Initialize_t@CPickEquipmentMenu@WW2003@@UAEXXZ 00472220 f   GameMenus.obj
 0001:00072910       ?StartMenu@CPickEquipmentMenu@WW2003@@UAEXXZ 00473910 f   GameMenus.obj
 0001:00072b70       ?OnKeyDown@CPickEquipmentMenu@WW2003@@UAEHH@Z 00473b70 f   GameMenus.obj
 0001:00072c30       ?Destroy@CPickEquipmentMenu@WW2003@@UAEXXZ 00473c30 f   GameMenus.obj
 0001:00072c40       ?SetPopupMode@CPickEquipmentMenu@WW2003@@QAEXH@Z 00473c40 f   GameMenus.obj
 0001:00072cd0       ?ReleaseTextures@CPickEquipmentMenu@WW2003@@UAEXXZ 00473cd0 f   GameMenus.obj
 0001:00072da0       ?RestoreTextures@CPickEquipmentMenu@WW2003@@UAEXXZ 00473da0 f   GameMenus.obj
 0001:00073290       ?UpdateControls@CPickEquipmentMenu@WW2003@@UAEXH@Z 00474290 f   GameMenus.obj
 0001:000736f0       ?UpdateItemModel@CPickEquipmentMenu@WW2003@@UAEXXZ 004746f0 f   GameMenus.obj
 0001:00075390       ?UpdateDescriptionText@CPickEquipmentMenu@WW2003@@UAEXXZ 00476390 f   GameMenus.obj
 0001:00077150       ?AddGunsToListBox@CPickEquipmentMenu@WW2003@@UAEXXZ 00478150 f   GameMenus.obj
 0001:000772a0       ?AddAmmoToListBox@CPickEquipmentMenu@WW2003@@UAEXXZ 004782a0 f   GameMenus.obj
 0001:000773d0       ?AmmoOkToLoad@CPickEquipmentMenu@WW2003@@UAEHPAVCInfoFile@@@Z 004783d0 f   GameMenus.obj
 0001:00077870       ?RefillAmmoList@CPickEquipmentMenu@WW2003@@UAEXXZ 00478870 f   GameMenus.obj
 0001:000778a0       ?JumpToEquipmentItem@CPickEquipmentMenu@WW2003@@UAEXW4eEquipmentType@2@W4eGearType@2@J@Z 004788a0 f   GameMenus.obj
 0001:00077bf0       ?GetBackgroundPieceRect@CPickEquipmentMenu@WW2003@@QBE?AV?$AABBox@M$01@@J@Z 00478bf0 f   GameMenus.obj
 0001:00077e40       ?SetEquipmentType@CPickEquipmentMenu@WW2003@@QAEXW4eEquipmentType@2@@Z 00478e40 f   GameMenus.obj
 0001:00077e80       ?SetGearType@CPickEquipmentMenu@WW2003@@QAEXW4eGearType@2@@Z 00478e80 f   GameMenus.obj
 0001:00077ea0       ?OnHunterInfoButton@CPickEquipmentMenu@WW2003@@SAXXZ 00478ea0 f   GameMenus.obj
 0001:00077ec0       ?OnOptionsButton@CPickEquipmentMenu@WW2003@@SAXXZ 00478ec0 f   GameMenus.obj
 0001:00077ef0       ?OnExitButton@CPickEquipmentMenu@WW2003@@SAXXZ 00478ef0 f   GameMenus.obj
 0001:00077f10       ?OnArmsLockerButton@CPickEquipmentMenu@WW2003@@SAXXZ 00478f10 f   GameMenus.obj
 0001:00077f20       ?OnGearButton@CPickEquipmentMenu@WW2003@@SAXXZ 00478f20 f   GameMenus.obj
 0001:00077f30       ?OnHuntButton@CPickEquipmentMenu@WW2003@@SAXXZ 00478f30 f   GameMenus.obj
 0001:00078240       ?OnBackButton@CPickEquipmentMenu@WW2003@@SAXXZ 00479240 f   GameMenus.obj
 0001:00078250       ?OnBackpackAddButton@CPickEquipmentMenu@WW2003@@SAXXZ 00479250 f   GameMenus.obj
 0001:000783f0       ?OnBackpackRemoveButton@CPickEquipmentMenu@WW2003@@SAXXZ 004793f0 f   GameMenus.obj
 0001:00078410       ?OnTabSelChanged@CPickEquipmentMenu@WW2003@@SAXXZ 00479410 f   GameMenus.obj
 0001:00078480       ?OnListBoxSelChanged@CPickEquipmentMenu@WW2003@@SAXXZ 00479480 f   GameMenus.obj
 0001:000784c0       ?OnScrollUpButton@CPickEquipmentMenu@WW2003@@SAXXZ 004794c0 f   GameMenus.obj
 0001:000784d0       ?OnScrollDownButton@CPickEquipmentMenu@WW2003@@SAXXZ 004794d0 f   GameMenus.obj
 0001:000784e0       ?OnBackpackCurSelSlotChanged@CPickEquipmentMenu@WW2003@@SAXXZ 004794e0 f   GameMenus.obj
 0001:00078670       ?OnCreateButton@CPickEquipmentMenu@WW2003@@SAXXZ 00479670 f   GameMenus.obj
 0001:000786a0       ?OnDeleteButton@CPickEquipmentMenu@WW2003@@SAXXZ 004796a0 f   GameMenus.obj
 0001:00078780       ??0CEditNameMenu@WW2003@@QAE@XZ 00479780 f   GameMenus.obj
 0001:00078840       ?Initialize_t@CEditNameMenu@WW2003@@UAEXXZ 00479840 f   GameMenus.obj
 0001:00078df0       ?ReleaseTextures@CEditNameMenu@WW2003@@UAEXXZ 00479df0 f   GameMenus.obj
 0001:00078e00       ?RestoreTextures@CEditNameMenu@WW2003@@UAEXXZ 00479e00 f   GameMenus.obj
 0001:00078e90       ?StartMenu@CEditNameMenu@WW2003@@UAEXXZ 00479e90 f   GameMenus.obj
 0001:00078f50       ?OnKeyDown@CEditNameMenu@WW2003@@UAEHH@Z 00479f50 f   GameMenus.obj
 0001:00078f80       ?GetDefaultName@CEditNameMenu@WW2003@@UBE?AVCTString@@XZ 00479f80 f   GameMenus.obj
 0001:00078fb0       ?GetMenuTitle@CEditNameMenu@WW2003@@UBE?AVCTString@@XZ 00479fb0 f   GameMenus.obj
 0001:00078fe0       ??0CCreateHunterMenuPage0@WW2003@@QAE@XZ 00479fe0 f   GameMenus.obj
 0001:00079000       ?OnKeyDown@CCreateHunterMenuPage0@WW2003@@UAEHH@Z 0047a000 f   GameMenus.obj
 0001:00079030       ?OnBackButton@CCreateHunterMenuPage0@WW2003@@SAXXZ 0047a030 f   GameMenus.obj
 0001:00079040       ?OnNextButton@CCreateHunterMenuPage0@WW2003@@SAXXZ 0047a040 f   GameMenus.obj
 0001:000790a0       ??0CCreateHunterMenu@WW2003@@QAE@XZ 0047a0a0 f   GameMenus.obj
 0001:00079200       ?Initialize_t@CCreateHunterMenu@WW2003@@UAEXXZ 0047a200 f   GameMenus.obj
 0001:00079ec0       ?ReleaseTextures@CCreateHunterMenu@WW2003@@UAEXXZ 0047aec0 f   GameMenus.obj
 0001:00079f20       ?RestoreTextures@CCreateHunterMenu@WW2003@@UAEXXZ 0047af20 f   GameMenus.obj
 0001:0007a0b0       ?StartMenu@CCreateHunterMenu@WW2003@@UAEXXZ 0047b0b0 f   GameMenus.obj
 0001:0007a270       ?OnKeyDown@CCreateHunterMenu@WW2003@@UAEHH@Z 0047b270 f   GameMenus.obj
 0001:0007a2d0       ?FillListBoxes@CCreateHunterMenu@WW2003@@UAEXXZ 0047b2d0 f   GameMenus.obj
 0001:0007a400       ?UpdateBaseHunter@CCreateHunterMenu@WW2003@@UAEXXZ 0047b400 f   GameMenus.obj
 0001:0007a630       ?UpdateHunterSkin@CCreateHunterMenu@WW2003@@UAEXXZ 0047b630 f   GameMenus.obj
 0001:0007a720       ?InitializeControls@CCreateHunterMenu@WW2003@@UAEXXZ 0047b720 f   GameMenus.obj
 0001:0007a920       ?GetBackgroundPieceRect@CCreateHunterMenu@WW2003@@QBE?AV?$AABBox@M$01@@J@Z 0047b920 f   GameMenus.obj
 0001:0007ab10       ?OnOkButton@CCreateHunterMenu@WW2003@@SAXXZ 0047bb10 f   GameMenus.obj
 0001:0007ac70       ?OnCancelButton@CCreateHunterMenu@WW2003@@SAXXZ 0047bc70 f   GameMenus.obj
 0001:0007acb0       ?OnModelListBoxSelChanged@CCreateHunterMenu@WW2003@@SAXXZ 0047bcb0 f   GameMenus.obj
 0001:0007acc0       ?OnTextureListBoxSelChanged@CCreateHunterMenu@WW2003@@SAXXZ 0047bcc0 f   GameMenus.obj
 0001:0007acd0       ?OnScrollUpButton1@CCreateHunterMenu@WW2003@@SAXXZ 0047bcd0 f   GameMenus.obj
 0001:0007ace0       ?OnScrollDownButton1@CCreateHunterMenu@WW2003@@SAXXZ 0047bce0 f   GameMenus.obj
 0001:0007acf0       ?OnScrollUpButton2@CCreateHunterMenu@WW2003@@SAXXZ 0047bcf0 f   GameMenus.obj
 0001:0007ad00       ?OnScrollDownButton2@CCreateHunterMenu@WW2003@@SAXXZ 0047bd00 f   GameMenus.obj
 0001:0007ad10       ??0CHunterInfoMenu@WW2003@@QAE@XZ 0047bd10 f   GameMenus.obj
 0001:0007af00       ?Initialize_t@CHunterInfoMenu@WW2003@@UAEXXZ 0047bf00 f   GameMenus.obj
 0001:0007bea0       ?ReleaseTextures@CHunterInfoMenu@WW2003@@UAEXXZ 0047cea0 f   GameMenus.obj
 0001:0007bf40       ?RestoreTextures@CHunterInfoMenu@WW2003@@UAEXXZ 0047cf40 f   GameMenus.obj
 0001:0007c210       ?StartMenu@CHunterInfoMenu@WW2003@@UAEXXZ 0047d210 f   GameMenus.obj
 0001:0007c340       ?IncrementSkillLevel@CHunterInfoMenu@WW2003@@UAEXXZ 0047d340 f   GameMenus.obj
 0001:0007c380       ?UpdateSkillLevel@CHunterInfoMenu@WW2003@@UAEXXZ 0047d380 f   GameMenus.obj
 0001:0007c4a0       ?PrevHunter@CHunterInfoMenu@WW2003@@UAEXXZ 0047d4a0 f   GameMenus.obj
 0001:0007c510       ?NextHunter@CHunterInfoMenu@WW2003@@UAEXXZ 0047d510 f   GameMenus.obj
 0001:0007c580       ?UpdateHunterModel@CHunterInfoMenu@WW2003@@UAEXXZ 0047d580 f   GameMenus.obj
 0001:0007c780       ?UpdateDogModel@CHunterInfoMenu@WW2003@@UAEXXZ 0047d780 f   GameMenus.obj
 0001:0007c8e0       ?UpdateVehicleModel@CHunterInfoMenu@WW2003@@UAEXXZ 0047d8e0 f   GameMenus.obj
 0001:0007cbc0       ?InitSkillLevel@CHunterInfoMenu@WW2003@@UAEXXZ 0047dbc0 f   GameMenus.obj
 0001:0007ccc0       ?DeleteCurHunter@CHunterInfoMenu@WW2003@@UAEXXZ 0047dcc0 f   GameMenus.obj
 0001:0007cda0       ?OnChangedHunter@CHunterInfoMenu@WW2003@@UAEXXZ 0047dda0 f   GameMenus.obj
 0001:0007cfc0       ?HunterModelClicked@CHunterInfoMenu@WW2003@@UAEXXZ 0047dfc0 f   GameMenus.obj
 0001:0007d070       ?DogModelClicked@CHunterInfoMenu@WW2003@@UAEXXZ 0047e070 f   GameMenus.obj
 0001:0007d080       ?Vehicle1ModelClicked@CHunterInfoMenu@WW2003@@UAEXXZ 0047e080 f   GameMenus.obj
 0001:0007d0c0       ?Vehicle2ModelClicked@CHunterInfoMenu@WW2003@@UAEXXZ 0047e0c0 f   GameMenus.obj
 0001:0007d100       ?Vehicle3ModelClicked@CHunterInfoMenu@WW2003@@UAEXXZ 0047e100 f   GameMenus.obj
 0001:0007d140       ?SetPopupMode@CHunterInfoMenu@WW2003@@QAEXH@Z 0047e140 f   GameMenus.obj
 0001:0007d1b0       ?GetBackgroundPieceRect@CHunterInfoMenu@WW2003@@IBE?AV?$AABBox@M$01@@J@Z 0047e1b0 f   GameMenus.obj
 0001:0007d480       ?OnBackButton@CHunterInfoMenu@WW2003@@SAXXZ 0047e480 f   GameMenus.obj
 0001:0007d490       ?OnLogbookButton@CHunterInfoMenu@WW2003@@SAXXZ 0047e490 f   GameMenus.obj
 0001:0007d4a0       ?OnStatsButton@CHunterInfoMenu@WW2003@@SAXXZ 0047e4a0 f   GameMenus.obj
 0001:0007d4b0       ?OnHunterInfoButton@CHunterInfoMenu@WW2003@@SAXXZ 0047e4b0 f   GameMenus.obj
 0001:0007d4c0       ?OnOptionsButton@CHunterInfoMenu@WW2003@@SAXXZ 0047e4c0 f   GameMenus.obj
 0001:0007d4f0       ?OnExitButton@CHunterInfoMenu@WW2003@@SAXXZ 0047e4f0 f   GameMenus.obj
 0001:0007d510       ?OnCreateButton@CHunterInfoMenu@WW2003@@SAXXZ 0047e510 f   GameMenus.obj
 0001:0007d550       ?OnDeleteButton@CHunterInfoMenu@WW2003@@SAXXZ 0047e550 f   GameMenus.obj
 0001:0007d610       ?OnSkillLevelButton@CHunterInfoMenu@WW2003@@SAXXZ 0047e610 f   GameMenus.obj
 0001:0007d620       ?OnPrevHunterButton@CHunterInfoMenu@WW2003@@SAXXZ 0047e620 f   GameMenus.obj
 0001:0007d630       ?OnNextHunterButton@CHunterInfoMenu@WW2003@@SAXXZ 0047e630 f   GameMenus.obj
 0001:0007d640       ?OnKennelButton@CHunterInfoMenu@WW2003@@SAXXZ 0047e640 f   GameMenus.obj
 0001:0007d650       ?OnHunterModelClicked@CHunterInfoMenu@WW2003@@SAXXZ 0047e650 f   GameMenus.obj
 0001:0007d660       ?OnDogModelClicked@CHunterInfoMenu@WW2003@@SAXXZ 0047e660 f   GameMenus.obj
 0001:0007d670       ?OnVehicle1ModelClicked@CHunterInfoMenu@WW2003@@SAXXZ 0047e670 f   GameMenus.obj
 0001:0007d680       ?OnVehicle2ModelClicked@CHunterInfoMenu@WW2003@@SAXXZ 0047e680 f   GameMenus.obj
 0001:0007d690       ?OnVehicle3ModelClicked@CHunterInfoMenu@WW2003@@SAXXZ 0047e690 f   GameMenus.obj
 0001:0007d6a0       ??0CKennelMenu@WW2003@@QAE@XZ 0047e6a0 f   GameMenus.obj
 0001:0007d9a0       ?Initialize_t@CKennelMenu@WW2003@@UAEXXZ 0047e9a0 f   GameMenus.obj
 0001:0007f9d0       ?ReleaseTextures@CKennelMenu@WW2003@@UAEXXZ 004809d0 f   GameMenus.obj
 0001:0007fa80       ?RestoreTextures@CKennelMenu@WW2003@@UAEXXZ 00480a80 f   GameMenus.obj
 0001:0007fdb0       ?StartMenu@CKennelMenu@WW2003@@UAEXXZ 00480db0 f   GameMenus.obj
 0001:0007ffa0       ?PreviousDog@CKennelMenu@WW2003@@UAEXXZ 00480fa0 f   GameMenus.obj
 0001:00080070       ?NextDog@CKennelMenu@WW2003@@UAEXXZ 00481070 f   GameMenus.obj
 0001:00080140       ?UpdateDogData@CKennelMenu@WW2003@@UAEXXZ 00481140 f   GameMenus.obj
 0001:00080740       ?UpdateDogModel@CKennelMenu@WW2003@@UAEXXZ 00481740 f   GameMenus.obj
 0001:000809f0       ?DeleteCurDog@CKennelMenu@WW2003@@UAEXXZ 004819f0 f   GameMenus.obj
 0001:00080af0       ?SetPopupMode@CKennelMenu@WW2003@@QAEXH@Z 00481af0 f   GameMenus.obj
 0001:00080c50       ?GetBackgroundPieceRect@CKennelMenu@WW2003@@IBE?AV?$AABBox@M$01@@J@Z 00481c50 f   GameMenus.obj
 0001:00080f20       ?OnBackButton@CKennelMenu@WW2003@@SAXXZ 00481f20 f   GameMenus.obj
 0001:00080f30       ?OnLogbookButton@CKennelMenu@WW2003@@SAXXZ 00481f30 f   GameMenus.obj
 0001:00080f40       ?OnStatsButton@CKennelMenu@WW2003@@SAXXZ 00481f40 f   GameMenus.obj
 0001:00080f50       ?OnHunterInfoButton@CKennelMenu@WW2003@@SAXXZ 00481f50 f   GameMenus.obj
 0001:00080f60       ?OnOptionsButton@CKennelMenu@WW2003@@SAXXZ 00481f60 f   GameMenus.obj
 0001:00080f90       ?OnExitButton@CKennelMenu@WW2003@@SAXXZ 00481f90 f   GameMenus.obj
 0001:00080fb0       ?OnCreateButton@CKennelMenu@WW2003@@SAXXZ 00481fb0 f   GameMenus.obj
 0001:00080fd0       ?OnDeleteButton@CKennelMenu@WW2003@@SAXXZ 00481fd0 f   GameMenus.obj
 0001:00081090       ?OnHunterButton@CKennelMenu@WW2003@@SAXXZ 00482090 f   GameMenus.obj
 0001:000810a0       ?OnPrevDogButton@CKennelMenu@WW2003@@SAXXZ 004820a0 f   GameMenus.obj
 0001:000810b0       ?OnNextDogButton@CKennelMenu@WW2003@@SAXXZ 004820b0 f   GameMenus.obj
 0001:000810c0       ??0CStatsMenu@WW2003@@QAE@XZ 004820c0 f   GameMenus.obj
 0001:00081200       ?Initialize_t@CStatsMenu@WW2003@@UAEXXZ 00482200 f   GameMenus.obj
 0001:00081850       ?StartMenu@CStatsMenu@WW2003@@UAEXXZ 00482850 f   GameMenus.obj
 0001:000819d0       ?ReleaseTextures@CStatsMenu@WW2003@@UAEXXZ 004829d0 f   GameMenus.obj
 0001:00081a20       ?RestoreTextures@CStatsMenu@WW2003@@UAEXXZ 00482a20 f   GameMenus.obj
 0001:00081bb0       ?GetBackgroundPieceRect@CStatsMenu@WW2003@@IBE?AV?$AABBox@M$01@@J@Z 00482bb0 f   GameMenus.obj
 0001:00081da0       ?OnBackButton@CStatsMenu@WW2003@@SAXXZ 00482da0 f   GameMenus.obj
 0001:00081db0       ?OnHunterInfoButton@CStatsMenu@WW2003@@SAXXZ 00482db0 f   GameMenus.obj
 0001:00081dc0       ?OnOptionsButton@CStatsMenu@WW2003@@SAXXZ 00482dc0 f   GameMenus.obj
 0001:00081df0       ?OnExitButton@CStatsMenu@WW2003@@SAXXZ 00482df0 f   GameMenus.obj
 0001:00081e10       ??0CLogbookMenu@WW2003@@QAE@XZ 00482e10 f   GameMenus.obj
 0001:00082150       ?Initialize_t@CLogbookMenu@WW2003@@UAEXXZ 00483150 f   GameMenus.obj
 0001:00084230       ?StartMenu@CLogbookMenu@WW2003@@UAEXXZ 00485230 f   GameMenus.obj
 0001:00084490       ?Destroy@CLogbookMenu@WW2003@@UAEXXZ 00485490 f   GameMenus.obj
 0001:000844a0       ?ReleaseTextures@CLogbookMenu@WW2003@@UAEXXZ 004854a0 f   GameMenus.obj
 0001:00084580       ?RestoreTextures@CLogbookMenu@WW2003@@UAEXXZ 00485580 f   GameMenus.obj
 0001:00084b20       ?OnKeyDown@CLogbookMenu@WW2003@@UAEHH@Z 00485b20 f   GameMenus.obj
 0001:00084be0       ?UpdateAnimalRotation@CLogbookMenu@WW2003@@QAEXXZ 00485be0 f   GameMenus.obj
 0001:00084bf0       ?PrevHunt@CLogbookMenu@WW2003@@UAEXXZ 00485bf0 f   GameMenus.obj
 0001:00084c80       ?NextHunt@CLogbookMenu@WW2003@@UAEXXZ 00485c80 f   GameMenus.obj
 0001:00084d10       ?PrevAnimal@CLogbookMenu@WW2003@@UAEXXZ 00485d10 f   GameMenus.obj
 0001:00084d90       ?NextAnimal@CLogbookMenu@WW2003@@UAEXXZ 00485d90 f   GameMenus.obj
 0001:00084e10       ?Export@CLogbookMenu@WW2003@@UAEXXZ 00485e10 f   GameMenus.obj
 0001:00084f50       ?DoExportHunt@CLogbookMenu@WW2003@@UAEXAAVCTString@@@Z 00485f50 f   GameMenus.obj
 0001:00084f90       ?DoExportTrophy@CLogbookMenu@WW2003@@UAEXAAVCTString@@@Z 00485f90 f   GameMenus.obj
 0001:00084fe0       ?DoDeleteTrophy@CLogbookMenu@WW2003@@UAEXXZ 00485fe0 f   GameMenus.obj
 0001:00085080       ?ViewExported@CLogbookMenu@WW2003@@UAEXXZ 00486080 f   GameMenus.obj
 0001:00085100       ?Delete@CLogbookMenu@WW2003@@UAEXXZ 00486100 f   GameMenus.obj
 0001:000851e0       ?UpdateTextFields@CLogbookMenu@WW2003@@UAEXXZ 004861e0 f   GameMenus.obj
 0001:00086810       ?UpdateAnimalModel@CLogbookMenu@WW2003@@UAEXXZ 00487810 f   GameMenus.obj
 0001:00087060       ?RefillLogbookData@CLogbookMenu@WW2003@@UAEXXZ 00488060 f   GameMenus.obj
 0001:00087110       ?OnEntryChanged@CLogbookMenu@WW2003@@UAEXXZ 00488110 f   GameMenus.obj
 0001:00087180       ?GetBackgroundPieceRect@CLogbookMenu@WW2003@@IBE?AV?$AABBox@M$01@@J@Z 00488180 f   GameMenus.obj
 0001:000873d0       ?FormatBeardSpurString@CLogbookMenu@WW2003@@IAEXPADM@Z 004883d0 f   GameMenus.obj
 0001:00087450       ?OnBackButton@CLogbookMenu@WW2003@@SAXXZ 00488450 f   GameMenus.obj
 0001:00087480       ?OnHunterInfoButton@CLogbookMenu@WW2003@@SAXXZ 00488480 f   GameMenus.obj
 0001:000874b0       ?OnOptionsButton@CLogbookMenu@WW2003@@SAXXZ 004884b0 f   GameMenus.obj
 0001:000874f0       ?OnExitButton@CLogbookMenu@WW2003@@SAXXZ 004884f0 f   GameMenus.obj
 0001:00087520       ?OnGrandSlamButton@CLogbookMenu@WW2003@@SAXXZ 00488520 f   GameMenus.obj
 0001:00087550       ?OnPrevHuntButton@CLogbookMenu@WW2003@@SAXXZ 00488550 f   GameMenus.obj
 0001:00087560       ?OnNextHuntButton@CLogbookMenu@WW2003@@SAXXZ 00488560 f   GameMenus.obj
 0001:00087570       ?OnPrevAnimalButton@CLogbookMenu@WW2003@@SAXXZ 00488570 f   GameMenus.obj
 0001:00087580       ?OnNextAnimalButton@CLogbookMenu@WW2003@@SAXXZ 00488580 f   GameMenus.obj
 0001:00087590       ?OnExportButton@CLogbookMenu@WW2003@@SAXXZ 00488590 f   GameMenus.obj
 0001:000875a0       ?OnViewExportedButton@CLogbookMenu@WW2003@@SAXXZ 004885a0 f   GameMenus.obj
 0001:000875b0       ?OnDeleteButton@CLogbookMenu@WW2003@@SAXXZ 004885b0 f   GameMenus.obj
 0001:000875c0       ??0CGrandSlamMenu@WW2003@@QAE@XZ 004885c0 f   GameMenus.obj
 0001:000878a0       ?Initialize_t@CGrandSlamMenu@WW2003@@UAEXXZ 004888a0 f   GameMenus.obj
 0001:00088880       ?StartMenu@CGrandSlamMenu@WW2003@@UAEXXZ 00489880 f   GameMenus.obj
 0001:00088be0       ?Destroy@CGrandSlamMenu@WW2003@@UAEXXZ 00489be0 f   GameMenus.obj
 0001:00088bf0       ?ReleaseTextures@CGrandSlamMenu@WW2003@@UAEXXZ 00489bf0 f   GameMenus.obj
 0001:00088d10       ?RestoreTextures@CGrandSlamMenu@WW2003@@UAEXXZ 00489d10 f   GameMenus.obj
 0001:00089530       ?UpdateBeardModels@CGrandSlamMenu@WW2003@@UAEXXZ 0048a530 f   GameMenus.obj
 0001:0008a4b0       ?GetBackgroundPieceRect@CGrandSlamMenu@WW2003@@IBE?AV?$AABBox@M$01@@J@Z 0048b4b0 f   GameMenus.obj
 0001:0008a700       ?OnBackButton@CGrandSlamMenu@WW2003@@SAXXZ 0048b700 f   GameMenus.obj
 0001:0008a710       ?OnHunterInfoButton@CGrandSlamMenu@WW2003@@SAXXZ 0048b710 f   GameMenus.obj
 0001:0008a720       ?OnOptionsButton@CGrandSlamMenu@WW2003@@SAXXZ 0048b720 f   GameMenus.obj
 0001:0008a750       ?OnExitButton@CGrandSlamMenu@WW2003@@SAXXZ 0048b750 f   GameMenus.obj
 0001:0008a770       ?OnBackButton@CCreateDogMenuPage0@WW2003@@SAXXZ 0048b770 f   GameMenus.obj
 0001:0008a780       ?OnNextButton@CCreateDogMenuPage0@WW2003@@SAXXZ 0048b780 f   GameMenus.obj
 0001:0008a7e0       ??0CCreateDogMenu@WW2003@@QAE@XZ 0048b7e0 f   GameMenus.obj
 0001:0008a900       ?Initialize_t@CCreateDogMenu@WW2003@@UAEXXZ 0048b900 f   GameMenus.obj
 0001:0008b8d0       ?ReleaseTextures@CCreateDogMenu@WW2003@@UAEXXZ 0048c8d0 f   GameMenus.obj
 0001:0008b920       ?RestoreTextures@CCreateDogMenu@WW2003@@UAEXXZ 0048c920 f   GameMenus.obj
 0001:0008bab0       ?StartMenu@CCreateDogMenu@WW2003@@UAEXXZ 0048cab0 f   GameMenus.obj
 0001:0008bc30       ?OnKeyDown@CCreateDogMenu@WW2003@@UAEHH@Z 0048cc30 f   GameMenus.obj
 0001:0008bc80       ?PrevSpecies@CCreateDogMenu@WW2003@@UAEXXZ 0048cc80 f   GameMenus.obj
 0001:0008bcb0       ?NextSpecies@CCreateDogMenu@WW2003@@UAEXXZ 0048ccb0 f   GameMenus.obj
 0001:0008bce0       ?UpdateDogSex@CCreateDogMenu@WW2003@@UAEXXZ 0048cce0 f   GameMenus.obj
 0001:0008bd10       ?UpdateDogModel@CCreateDogMenu@WW2003@@UAEXXZ 0048cd10 f   GameMenus.obj
 0001:0008bef0       ?UpdateDogDescription@CCreateDogMenu@WW2003@@UAEXXZ 0048cef0 f   GameMenus.obj
 0001:0008c0b0       ?CreateDogFile@CCreateDogMenu@WW2003@@UAEXXZ 0048d0b0 f   GameMenus.obj
 0001:0008c3e0       ?OnOkButton@CCreateDogMenu@WW2003@@SAXXZ 0048d3e0 f   GameMenus.obj
 0001:0008c3f0       ?OnCancelButton@CCreateDogMenu@WW2003@@SAXXZ 0048d3f0 f   GameMenus.obj
 0001:0008c400       ?OnPrevSpeciesButton@CCreateDogMenu@WW2003@@SAXXZ 0048d400 f   GameMenus.obj
 0001:0008c410       ?OnNextSpeciesButton@CCreateDogMenu@WW2003@@SAXXZ 0048d410 f   GameMenus.obj
 0001:0008c420       ?OnScrollUpButton@CCreateDogMenu@WW2003@@SAXXZ 0048d420 f   GameMenus.obj
 0001:0008c430       ?OnScrollDownButton@CCreateDogMenu@WW2003@@SAXXZ 0048d430 f   GameMenus.obj
 0001:0008c440       ?OnRadioButtonGroupSelChanged@CCreateDogMenu@WW2003@@SAXXZ 0048d440 f   GameMenus.obj
 0001:0008c450       ?OnBackButton@CCreateGunMenuPage0@WW2003@@SAXXZ 0048d450 f   GameMenus.obj
 0001:0008c4a0       ?OnNextButton@CCreateGunMenuPage0@WW2003@@SAXXZ 0048d4a0 f   GameMenus.obj
 0001:0008c500       ??0CCreateGunMenuPage1@WW2003@@QAE@XZ 0048d500 f   GameMenus.obj
 0001:0008c5f0       ?Initialize_t@CCreateGunMenuPage1@WW2003@@UAEXXZ 0048d5f0 f   GameMenus.obj
 0001:0008cef0       ?ReleaseTextures@CCreateGunMenuPage1@WW2003@@UAEXXZ 0048def0 f   GameMenus.obj
 0001:0008cf20       ?RestoreTextures@CCreateGunMenuPage1@WW2003@@UAEXXZ 0048df20 f   GameMenus.obj
 0001:0008cfe0       ?StartMenu@CCreateGunMenuPage1@WW2003@@UAEXXZ 0048dfe0 f   GameMenus.obj
 0001:0008d0d0       ?OnKeyDown@CCreateGunMenuPage1@WW2003@@UAEHH@Z 0048e0d0 f   GameMenus.obj
 0001:0008d100       ?FillListBox@CCreateGunMenuPage1@WW2003@@UAEXXZ 0048e100 f   GameMenus.obj
 0001:0008d230       ?UpdateBaseGun@CCreateGunMenuPage1@WW2003@@UAEXXZ 0048e230 f   GameMenus.obj
 0001:0008d550       ?DumpModel@CCreateGunMenuPage1@WW2003@@UAEXXZ 0048e550 f   GameMenus.obj
 0001:0008d560       ?OnNextButton@CCreateGunMenuPage1@WW2003@@SAXXZ 0048e560 f   GameMenus.obj
 0001:0008d5c0       ?OnBackButton@CCreateGunMenuPage1@WW2003@@SAXXZ 0048e5c0 f   GameMenus.obj
 0001:0008d5d0       ?OnListBoxSelChanged@CCreateGunMenuPage1@WW2003@@SAXXZ 0048e5d0 f   GameMenus.obj
 0001:0008d5e0       ?OnListBoxDblClk@CCreateGunMenuPage1@WW2003@@SAXXZ 0048e5e0 f   GameMenus.obj
 0001:0008d5f0       ?OnScrollUpButton@CCreateGunMenuPage1@WW2003@@SAXXZ 0048e5f0 f   GameMenus.obj
 0001:0008d600       ?OnScrollDownButton@CCreateGunMenuPage1@WW2003@@SAXXZ 0048e600 f   GameMenus.obj
 0001:0008d610       ??0CCreateGunMenuPage2@WW2003@@QAE@XZ 0048e610 f   GameMenus.obj
 0001:0008d700       ?Initialize_t@CCreateGunMenuPage2@WW2003@@UAEXXZ 0048e700 f   GameMenus.obj
 0001:0008e000       ?ReleaseTextures@CCreateGunMenuPage2@WW2003@@UAEXXZ 0048f000 f   GameMenus.obj
 0001:0008e030       ?RestoreTextures@CCreateGunMenuPage2@WW2003@@UAEXXZ 0048f030 f   GameMenus.obj
 0001:0008e0f0       ?StartMenu@CCreateGunMenuPage2@WW2003@@UAEXXZ 0048f0f0 f   GameMenus.obj
 0001:0008e110       ?OnKeyDown@CCreateGunMenuPage2@WW2003@@UAEHH@Z 0048f110 f   GameMenus.obj
 0001:0008e150       ?FillListBox@CCreateGunMenuPage2@WW2003@@UAEXXZ 0048f150 f   GameMenus.obj
 0001:0008e2d0       ?UpdateTexture@CCreateGunMenuPage2@WW2003@@UAEXXZ 0048f2d0 f   GameMenus.obj
 0001:0008e660       ?DumpModel@CCreateGunMenuPage2@WW2003@@UAEXXZ 0048f660 f   GameMenus.obj
 0001:0008e670       ?OnNextButton@CCreateGunMenuPage2@WW2003@@SAXXZ 0048f670 f   GameMenus.obj
 0001:0008e7a0       ?OnBackButton@CCreateGunMenuPage2@WW2003@@SAXXZ 0048f7a0 f   GameMenus.obj
 0001:0008e7b0       ?OnListBoxSelChanged@CCreateGunMenuPage2@WW2003@@SAXXZ 0048f7b0 f   GameMenus.obj
 0001:0008e7c0       ?OnListBoxDblClk@CCreateGunMenuPage2@WW2003@@SAXXZ 0048f7c0 f   GameMenus.obj
 0001:0008e7d0       ?OnScrollUpButton@CCreateGunMenuPage2@WW2003@@SAXXZ 0048f7d0 f   GameMenus.obj
 0001:0008e7e0       ?OnScrollDownButton@CCreateGunMenuPage2@WW2003@@SAXXZ 0048f7e0 f   GameMenus.obj
 0001:0008e7f0       ??0CCreateGunMenuPage3@WW2003@@QAE@XZ 0048f7f0 f   GameMenus.obj
 0001:0008e8b0       ?Initialize_t@CCreateGunMenuPage3@WW2003@@UAEXXZ 0048f8b0 f   GameMenus.obj
 0001:0008f000       ?ReleaseTextures@CCreateGunMenuPage3@WW2003@@UAEXXZ 00490000 f   GameMenus.obj
 0001:0008f030       ?RestoreTextures@CCreateGunMenuPage3@WW2003@@UAEXXZ 00490030 f   GameMenus.obj
 0001:0008f0f0       ?StartMenu@CCreateGunMenuPage3@WW2003@@UAEXXZ 004900f0 f   GameMenus.obj
 0001:0008f110       ?OnKeyDown@CCreateGunMenuPage3@WW2003@@UAEHH@Z 00490110 f   GameMenus.obj
 0001:0008f150       ?UpdateBarrelLength@CCreateGunMenuPage3@WW2003@@UAEXXZ 00490150 f   GameMenus.obj
 0001:0008f2d0       ?DumpModel@CCreateGunMenuPage3@WW2003@@UAEXXZ 004902d0 f   GameMenus.obj
 0001:0008f2e0       ?OnNextButton@CCreateGunMenuPage3@WW2003@@SAXXZ 004902e0 f   GameMenus.obj
 0001:0008f300       ?OnBackButton@CCreateGunMenuPage3@WW2003@@SAXXZ 00490300 f   GameMenus.obj
 0001:0008f310       ?OnRadioButtonGroupSelChanged@CCreateGunMenuPage3@WW2003@@SAXXZ 00490310 f   GameMenus.obj
 0001:0008f320       ??0CCreateGunMenuPage4@WW2003@@QAE@XZ 00490320 f   GameMenus.obj
 0001:0008f410       ?Initialize_t@CCreateGunMenuPage4@WW2003@@UAEXXZ 00490410 f   GameMenus.obj
 0001:0008fb60       ?ReleaseTextures@CCreateGunMenuPage4@WW2003@@UAEXXZ 00490b60 f   GameMenus.obj
 0001:0008fba0       ?RestoreTextures@CCreateGunMenuPage4@WW2003@@UAEXXZ 00490ba0 f   GameMenus.obj
 0001:0008fcd0       ?StartMenu@CCreateGunMenuPage4@WW2003@@UAEXXZ 00490cd0 f   GameMenus.obj
 0001:0008fcf0       ?OnKeyDown@CCreateGunMenuPage4@WW2003@@UAEHH@Z 00490cf0 f   GameMenus.obj
 0001:0008fd30       ?UpdateGunChoke@CCreateGunMenuPage4@WW2003@@UAEXXZ 00490d30 f   GameMenus.obj
 0001:0008ff40       ?DumpModel@CCreateGunMenuPage4@WW2003@@UAEXXZ 00490f40 f   GameMenus.obj
 0001:0008ff50       ?UpdateGunChokeArt@CCreateGunMenuPage4@WW2003@@UAEXXZ 00490f50 f   GameMenus.obj
 0001:00090080       ?OnNextButton@CCreateGunMenuPage4@WW2003@@SAXXZ 00491080 f   GameMenus.obj
 0001:000901d0       ?OnBackButton@CCreateGunMenuPage4@WW2003@@SAXXZ 004911d0 f   GameMenus.obj
 0001:000903a0       ?OnRadioButtonGroupSelChanged@CCreateGunMenuPage4@WW2003@@SAXXZ 004913a0 f   GameMenus.obj
 0001:000903b0       ??0CCreateGunMenuPage5@WW2003@@QAE@XZ 004913b0 f   GameMenus.obj
 0001:00090470       ?Initialize_t@CCreateGunMenuPage5@WW2003@@UAEXXZ 00491470 f   GameMenus.obj
 0001:00090bc0       ?ReleaseTextures@CCreateGunMenuPage5@WW2003@@UAEXXZ 00491bc0 f   GameMenus.obj
 0001:00090bf0       ?RestoreTextures@CCreateGunMenuPage5@WW2003@@UAEXXZ 00491bf0 f   GameMenus.obj
 0001:00090cb0       ?StartMenu@CCreateGunMenuPage5@WW2003@@UAEXXZ 00491cb0 f   GameMenus.obj
 0001:00090cd0       ?OnKeyDown@CCreateGunMenuPage5@WW2003@@UAEHH@Z 00491cd0 f   GameMenus.obj
 0001:00090d10       ?UpdateGunGauge@CCreateGunMenuPage5@WW2003@@UAEXXZ 00491d10 f   GameMenus.obj
 0001:00090ea0       ?DumpModel@CCreateGunMenuPage5@WW2003@@UAEXXZ 00491ea0 f   GameMenus.obj
 0001:00090eb0       ?OnNextButton@CCreateGunMenuPage5@WW2003@@SAXXZ 00491eb0 f   GameMenus.obj
 0001:00090ed0       ?OnBackButton@CCreateGunMenuPage5@WW2003@@SAXXZ 00491ed0 f   GameMenus.obj
 0001:00090ee0       ?OnRadioButtonGroupSelChanged@CCreateGunMenuPage5@WW2003@@SAXXZ 00491ee0 f   GameMenus.obj
 0001:00090ef0       ??0CCreateGunMenuPage6@WW2003@@QAE@XZ 00491ef0 f   GameMenus.obj
 0001:00090ff0       ?Initialize_t@CCreateGunMenuPage6@WW2003@@UAEXXZ 00491ff0 f   GameMenus.obj
 0001:00091c30       ?ReleaseTextures@CCreateGunMenuPage6@WW2003@@UAEXXZ 00492c30 f   GameMenus.obj
 0001:00091c60       ?RestoreTextures@CCreateGunMenuPage6@WW2003@@UAEXXZ 00492c60 f   GameMenus.obj
 0001:00091d20       ?StartMenu@CCreateGunMenuPage6@WW2003@@UAEXXZ 00492d20 f   GameMenus.obj
 0001:00091d40       ?OnKeyDown@CCreateGunMenuPage6@WW2003@@UAEHH@Z 00492d40 f   GameMenus.obj
 0001:00091d80       ?FillTextFields@CCreateGunMenuPage6@WW2003@@UAEXXZ 00492d80 f   GameMenus.obj
 0001:00092750       ?DumpModel@CCreateGunMenuPage6@WW2003@@UAEXXZ 00493750 f   GameMenus.obj
 0001:00092760       ?CreateGunFile@CCreateGunMenuPage6@WW2003@@UAEXXZ 00493760 f   GameMenus.obj
 0001:00092c40       ?OnOkButton@CCreateGunMenuPage6@WW2003@@SAXXZ 00493c40 f   GameMenus.obj
 0001:00092c90       ?OnCancelButton@CCreateGunMenuPage6@WW2003@@SAXXZ 00493c90 f   GameMenus.obj
 0001:00092ce0       ?Initialize_t@CInGameMenu@WW2003@@UAEXXZ 00493ce0 f   GameMenus.obj
 0001:000930e0       ?ReleaseTextures@CInGameMenu@WW2003@@UAEXXZ 004940e0 f   GameMenus.obj
 0001:000930f0       ?RestoreTextures@CInGameMenu@WW2003@@UAEXXZ 004940f0 f   GameMenus.obj
 0001:00093100       ?OnExitHuntButton@CInGameMenu@WW2003@@SAXXZ 00494100 f   GameMenus.obj
 0001:00093110       ?OnExitGameButton@CInGameMenu@WW2003@@SAXXZ 00494110 f   GameMenus.obj
 0001:00093120       ?OnOptionsButton@CInGameMenu@WW2003@@SAXXZ 00494120 f   GameMenus.obj
 0001:00093150       ?OnBackButton@CInGameMenu@WW2003@@SAXXZ 00494150 f   GameMenus.obj
 0001:00093160       ?Initialize_t@COkCancelMenu@WW2003@@UAEXXZ 00494160 f   GameMenus.obj
 0001:00093680       ?ReleaseTextures@COkCancelMenu@WW2003@@UAEXXZ 00494680 f   GameMenus.obj
 0001:00093690       ?RestoreTextures@COkCancelMenu@WW2003@@UAEXXZ 00494690 f   GameMenus.obj
 0001:000936a0       ?OnKeyDown@COkCancelMenu@WW2003@@UAEHH@Z 004946a0 f   GameMenus.obj
 0001:000936f0       ?RestoreDefaults@COkCancelMenu@WW2003@@QAEXXZ 004946f0 f   GameMenus.obj
 0001:00093770       ?OnOkButton@COkCancelMenu@WW2003@@SAXXZ 00494770 f   GameMenus.obj
 0001:00093780       ?OnCancelButton@COkCancelMenu@WW2003@@SAXXZ 00494780 f   GameMenus.obj
 0001:00093790       ?Initialize_t@COkCancelMenu2@WW2003@@UAEXXZ 00494790 f   GameMenus.obj
 0001:00093cb0       ?ReleaseTextures@COkCancelMenu2@WW2003@@UAEXXZ 00494cb0 f   GameMenus.obj
 0001:00093cc0       ?RestoreTextures@COkCancelMenu2@WW2003@@UAEXXZ 00494cc0 f   GameMenus.obj
 0001:00093cd0       ?OnKeyDown@COkCancelMenu2@WW2003@@UAEHH@Z 00494cd0 f   GameMenus.obj
 0001:00093d20       ?RestoreDefaults@COkCancelMenu2@WW2003@@QAEXXZ 00494d20 f   GameMenus.obj
 0001:00093da0       ?OnOkButton@COkCancelMenu2@WW2003@@SAXXZ 00494da0 f   GameMenus.obj
 0001:00093db0       ?OnCancelButton@COkCancelMenu2@WW2003@@SAXXZ 00494db0 f   GameMenus.obj
 0001:00093dc0       ??0CVehicleSkinsMenu@WW2003@@QAE@XZ 00494dc0 f   GameMenus.obj
 0001:00093ec0       ?Initialize_t@CVehicleSkinsMenu@WW2003@@UAEXXZ 00494ec0 f   GameMenus.obj
 0001:00094610       ?ReleaseTextures@CVehicleSkinsMenu@WW2003@@UAEXXZ 00495610 f   GameMenus.obj
 0001:00094670       ?RestoreTextures@CVehicleSkinsMenu@WW2003@@UAEXXZ 00495670 f   GameMenus.obj
 0001:00094800       ?StartMenu@CVehicleSkinsMenu@WW2003@@UAEXXZ 00495800 f   GameMenus.obj
 0001:000948f0       ?OnKeyDown@CVehicleSkinsMenu@WW2003@@UAEHH@Z 004958f0 f   GameMenus.obj
 0001:00094940       ?FillListBox@CVehicleSkinsMenu@WW2003@@UAEXXZ 00495940 f   GameMenus.obj
 0001:00094be0       ?UpdateVehicleSkin@CVehicleSkinsMenu@WW2003@@UAEXXZ 00495be0 f   GameMenus.obj
 0001:00094cd0       ?UpdateVehicleModel@CVehicleSkinsMenu@WW2003@@UAEXXZ 00495cd0 f   GameMenus.obj
 0001:00094f00       ?SetNewHunterVehicleSkin@CVehicleSkinsMenu@WW2003@@UAEXXZ 00495f00 f   GameMenus.obj
 0001:00094ff0       ?GetBackgroundPieceRect@CVehicleSkinsMenu@WW2003@@QBE?AV?$AABBox@M$01@@J@Z 00495ff0 f   GameMenus.obj
 0001:000951e0       ?OnOkButton@CVehicleSkinsMenu@WW2003@@SAXXZ 004961e0 f   GameMenus.obj
 0001:00095200       ?OnCancelButton@CVehicleSkinsMenu@WW2003@@SAXXZ 00496200 f   GameMenus.obj
 0001:00095220       ?OnListBoxSelChanged@CVehicleSkinsMenu@WW2003@@SAXXZ 00496220 f   GameMenus.obj
 0001:00095230       ?OnScrollUpButton@CVehicleSkinsMenu@WW2003@@SAXXZ 00496230 f   GameMenus.obj
 0001:00095240       ?OnScrollDownButton@CVehicleSkinsMenu@WW2003@@SAXXZ 00496240 f   GameMenus.obj
 0001:00095250       ??0CCreditsMenu@WW2003@@QAE@XZ 00496250 f   GameMenus.obj
 0001:000952e0       ?Initialize_t@CCreditsMenu@WW2003@@UAEXXZ 004962e0 f   GameMenus.obj
 0001:00095460       ?ReleaseTextures@CCreditsMenu@WW2003@@UAEXXZ 00496460 f   GameMenus.obj
 0001:00095470       ?RestoreTextures@CCreditsMenu@WW2003@@UAEXXZ 00496470 f   GameMenus.obj
 0001:000959c0       ?GetBackgroundPieceRect@CCreditsMenu@WW2003@@IBE?AV?$AABBox@M$01@@J@Z 004969c0 f   GameMenus.obj
 0001:00095c80       ?OnOkButton@CCreditsMenu@WW2003@@SAXXZ 00496c80 f   GameMenus.obj
 0001:00095cb0       ?OnKeyDown@CCreditsMenu@WW2003@@UAEHH@Z 00496cb0 f   GameMenus.obj
 0001:00095cc0       ?Initialize_t@CPopupHelpMenu@WW2003@@UAEXXZ 00496cc0 f   GameMenus.obj
 0001:00096310       ?OnKeyDown@CPopupHelpMenu@WW2003@@UAEHH@Z 00497310 f   GameMenus.obj
 0001:00096350       ?Think@CPopupHelpMenu@WW2003@@UAEXXZ 00497350 f   GameMenus.obj
 0001:00096390       ?ClearPopupFlag@CPopupHelpMenu@WW2003@@UAEXXZ 00497390 f   GameMenus.obj
 0001:00096490       ?ToggleCheckbox@CPopupHelpMenu@WW2003@@UAEXXZ 00497490 f   GameMenus.obj
 0001:000964b0       ?OnOkButton@CPopupHelpMenu@WW2003@@SAXXZ 004974b0 f   GameMenus.obj
 0001:000964c0       ?OnStopShowingButton@CPopupHelpMenu@WW2003@@SAXXZ 004974c0 f   GameMenus.obj
 0001:000964d0       ?Initialize_t@CVCRReplayMenu@WW2003@@UAEXXZ 004974d0 f   GameMenus.obj
 0001:00096f30       ?ReleaseTextures@CVCRReplayMenu@WW2003@@UAEXXZ 00497f30 f   GameMenus.obj
 0001:00096f40       ?RestoreTextures@CVCRReplayMenu@WW2003@@UAEXXZ 00497f40 f   GameMenus.obj
 0001:00096f50       ?OnBackButton@CVCRReplayMenu@WW2003@@SAXXZ 00497f50 f   GameMenus.obj
 0001:00096f60       ?OnPlayButton@CVCRReplayMenu@WW2003@@SAXXZ 00497f60 f   GameMenus.obj
 0001:000970f0       ?OnExitButton@CVCRReplayMenu@WW2003@@SAXXZ 004980f0 f   GameMenus.obj
 0001:00097100       ?OnFileSelectSelChange@CVCRReplayMenu@WW2003@@SAXXZ 00498100 f   GameMenus.obj
 0001:000973a0       ??1CMainMenu@WW2003@@QAE@XZ 004983a0 f i GameMenus.obj
 0001:000976a0       ??1CMGImage@@QAE@XZ        004986a0 f i GameMenus.obj
 0001:00097700       ??1CRolloverIconButton@WW2003@@QAE@XZ 00498700 f i GameMenus.obj
 0001:00097780       ??1CMGSlideGroup@@QAE@XZ   00498780 f i GameMenus.obj
 0001:000977e0       ??1CMGFadeGroup@@QAE@XZ    004987e0 f i GameMenus.obj
 0001:00097840       ??1CInGameMenu@WW2003@@QAE@XZ 00498840 f i GameMenus.obj
 0001:000979a0       ??0CInGameMenu@WW2003@@QAE@XZ 004989a0 f i GameMenus.obj
 0001:00097a20       ??1CPickLocationMenu@WW2003@@QAE@XZ 00498a20 f i GameMenus.obj
 0001:00097ea0       ??1CSquareButtonLarge@WW2003@@QAE@XZ 00498ea0 f i GameMenus.obj
 0001:00097f20       ??1CLRArrowButton@WW2003@@QAE@XZ 00498f20 f i GameMenus.obj
 0001:00097fa0       ??1CClickableTextureGadget@WW2003@@QAE@XZ 00498fa0 f i GameMenus.obj
 0001:00098000       ??1CTextBoxGadget@@QAE@XZ  00499000 f i GameMenus.obj
 0001:00098090       ??1CScrollButton@WW2003@@QAE@XZ 00499090 f i GameMenus.obj
 0001:00098110       ??1CPickEquipmentMenu@WW2003@@QAE@XZ 00499110 f i GameMenus.obj
 0001:00098550       ??1CTargetButton@WW2003@@QAE@XZ 00499550 f i GameMenus.obj
 0001:00098620       ??1CRoundButtonSmall@WW2003@@QAE@XZ 00499620 f i GameMenus.obj
 0001:000986a0       ??1CPickEquipmentBackpack@WW2003@@QAE@XZ 004996a0 f i GameMenus.obj
 0001:00098820       ??1CModelInstanceGadget@@QAE@XZ 00499820 f i GameMenus.obj
 0001:000988e0       ??1CTabCtrlGadget@WW2003@@QAE@XZ 004998e0 f i GameMenus.obj
 0001:00098980       ??1CListBoxGadget@@QAE@XZ  00499980 f i GameMenus.obj
 0001:00098ad0       ??1CHunterInfoMenu@WW2003@@QAE@XZ 00499ad0 f i GameMenus.obj
 0001:00098e00       ??1CKennelMenu@WW2003@@QAE@XZ 00499e00 f i GameMenus.obj
 0001:000992b0       ??1CPrevNextDogButton@WW2003@@QAE@XZ 0049a2b0 f i GameMenus.obj
 0001:00099330       ??1CDogStatsGadget@WW2003@@QAE@XZ 0049a330 f i GameMenus.obj
 0001:00099390       ??1CCreateHunterMenuPage0@WW2003@@QAE@XZ 0049a390 f i GameMenus.obj
 0001:00099520       ??1CEditControlGadget@WW2003@@QAE@XZ 0049a520 f i GameMenus.obj
 0001:000995a0       ??1CCreateHunterMenu@WW2003@@QAE@XZ 0049a5a0 f i GameMenus.obj
 0001:00099850       ??1CCreateDogMenuPage0@WW2003@@QAE@XZ 0049a850 f i GameMenus.obj
 0001:000999e0       ??0CCreateDogMenuPage0@WW2003@@QAE@XZ 0049a9e0 f i GameMenus.obj
 0001:00099a00       ?GetDefaultName@CCreateDogMenuPage0@WW2003@@UBE?AVCTString@@XZ 0049aa00 f i GameMenus.obj
 0001:00099a30       ?GetMenuTitle@CCreateDogMenuPage0@WW2003@@UBE?AVCTString@@XZ 0049aa30 f i GameMenus.obj
 0001:00099a60       ??1CCreateDogMenu@WW2003@@QAE@XZ 0049aa60 f i GameMenus.obj
 0001:00099d00       ??1CPrevNextSmallButton@WW2003@@QAE@XZ 0049ad00 f i GameMenus.obj
 0001:00099d80       ??1CCreateGunMenuPage0@WW2003@@QAE@XZ 0049ad80 f i GameMenus.obj
 0001:00099f10       ??0CCreateGunMenuPage0@WW2003@@QAE@XZ 0049af10 f i GameMenus.obj
 0001:00099f30       ?GetDefaultName@CCreateGunMenuPage0@WW2003@@UBE?AVCTString@@XZ 0049af30 f i GameMenus.obj
 0001:00099f60       ?GetMenuTitle@CCreateGunMenuPage0@WW2003@@UBE?AVCTString@@XZ 0049af60 f i GameMenus.obj
 0001:00099f90       ??1CCreateGunMenuPage1@WW2003@@QAE@XZ 0049af90 f i GameMenus.obj
 0001:0009a1c0       ??1CCreateGunMenuPage2@WW2003@@QAE@XZ 0049b1c0 f i GameMenus.obj
 0001:0009a3f0       ??1CCreateGunMenuPage3@WW2003@@QAE@XZ 0049b3f0 f i GameMenus.obj
 0001:0009a5a0       ??1CRadioButtonGroupGadget@@QAE@XZ 0049b5a0 f i GameMenus.obj
 0001:0009a600       ??1CCreateGunMenuPage4@WW2003@@QAE@XZ 0049b600 f i GameMenus.obj
 0001:0009a7c0       ??1CCreateGunMenuPage5@WW2003@@QAE@XZ 0049b7c0 f i GameMenus.obj
 0001:0009a970       ??1CCreateGunMenuPage6@WW2003@@QAE@XZ 0049b970 f i GameMenus.obj
 0001:0009abe0       ??1COkCancelMenu@WW2003@@QAE@XZ 0049bbe0 f i GameMenus.obj
 0001:0009ad40       ??0COkCancelMenu@WW2003@@QAE@XZ 0049bd40 f i GameMenus.obj
 0001:0009adf0       ??1CLogbookMenu@WW2003@@QAE@XZ 0049bdf0 f i GameMenus.obj
 0001:0009b300       ??1CGrandSlamMenu@WW2003@@QAE@XZ 0049c300 f i GameMenus.obj
 0001:0009b730       ??1CStatsMenu@WW2003@@QAE@XZ 0049c730 f i GameMenus.obj
 0001:0009b980       ??1CVehicleSkinsMenu@WW2003@@QAE@XZ 0049c980 f i GameMenus.obj
 0001:0009bbb0       ??1CVCRReplayMenu@WW2003@@QAE@XZ 0049cbb0 f i GameMenus.obj
 0001:0009bde0       ??0CVCRReplayMenu@WW2003@@QAE@XZ 0049cde0 f i GameMenus.obj
 0001:0009bee0       ??1CCreditsMenu@WW2003@@QAE@XZ 0049cee0 f i GameMenus.obj
 0001:0009bfa0       ??1CPopupHelpMenu@WW2003@@QAE@XZ 0049cfa0 f i GameMenus.obj
 0001:0009c140       ??0CPopupHelpMenu@WW2003@@QAE@XZ 0049d140 f i GameMenus.obj
 0001:0009c210       ?GetCurHunterDogName@CHunterFileProxy@WW2003@@QBE?AVCTString@@XZ 0049d210 f i GameMenus.obj
 0001:0009c240       ?GetItemDataString@CListBoxGadget@@QBE?AVCTString@@J@Z 0049d240 f i GameMenus.obj
 0001:0009c290       ?GetMapName@CSunstormWorldVariables@@QBE?AVCTString@@XZ 0049d290 f i GameMenus.obj
 0001:0009c2c0       ?GetMapDescription@CSunstormWorldVariables@@QBE?AVCTString@@XZ 0049d2c0 f i GameMenus.obj
 0001:0009c2f0       ??1CSunstormWorldVariables@@QAE@XZ 0049d2f0 f i GameMenus.obj
 0001:0009c3d0       ?GetItemText@CListBoxGadget@@QBE?AVCTString@@J@Z 0049d3d0 f i GameMenus.obj
 0001:0009c410       ?GetDefaultName@CCreateHunterMenuPage0@WW2003@@UBE?AVCTString@@XZ 0049d410 f i GameMenus.obj
 0001:0009c440       ?GetMenuTitle@CCreateHunterMenuPage0@WW2003@@UBE?AVCTString@@XZ 0049d440 f i GameMenus.obj
 0001:0009c470       ?GetName@CEditNameMenu@WW2003@@QBE?AVCTString@@XZ 0049d470 f i GameMenus.obj
 0001:0009c4a0       ?GetCurHunterSkin@CHunterFileProxy@WW2003@@QBE?AVCTString@@XZ 0049d4a0 f i GameMenus.obj
 0001:0009c510       ?GetBaseHunter@CCreateHunterMenu@WW2003@@QBE?AVCTString@@XZ 0049d510 f i GameMenus.obj
 0001:0009c540       ?GetHunterSkin@CCreateHunterMenu@WW2003@@QBE?AVCTString@@XZ 0049d540 f i GameMenus.obj
 0001:0009c570       ?GetCurHunterAnyGunFile@CHunterFileProxy@WW2003@@QBE?AVCTString@@XZ 0049d570 f i GameMenus.obj
 0001:0009c5e0       ?GetCurHunterBaseDogEntry@CHunterFileProxy@WW2003@@QBE?AVCTString@@ABV3@@Z 0049d5e0 f i GameMenus.obj
 0001:0009c660       ?GetCurHunterDogModel@CHunterFileProxy@WW2003@@QBE?AVCTString@@XZ 0049d660 f i GameMenus.obj
 0001:0009c6e0       ?GetCurHunterDogSex@CHunterFileProxy@WW2003@@QBE?AVCTString@@XZ 0049d6e0 f i GameMenus.obj
 0001:0009c710       ?GetCurHunterDogSpecies@CHunterFileProxy@WW2003@@QBE?AVCTString@@XZ 0049d710 f i GameMenus.obj
 0001:0009c790       ?SetDogDescription@CCreateDogMenu@WW2003@@UAEXABVCTString@@@Z 0049d790 f i GameMenus.obj
 0001:0009c7d0       ?GetBaseGun@CCreateGunMenuPage1@WW2003@@QBE?AVCTString@@XZ 0049d7d0 f i GameMenus.obj
 0001:0009c800       ?GetTexture@CCreateGunMenuPage2@WW2003@@QBE?AVCTString@@XZ 0049d800 f i GameMenus.obj
 0001:0009c830       ??A?$CDynamicStackArray@VCTFileName@@@@QAEAAVCTFileName@@J@Z 0049d830 f i GameMenus.obj
 0001:0009c840       ??0?$CDynamicArray@VCTFileName@@@@QAE@XZ 0049d840 f i GameMenus.obj
 0001:0009c860       ?Clear@?$CDynamicArray@K@@QAEXXZ 0049d860 f i GameMenus.obj
 0001:000a2110       ??0COptionsPanelItem@WW2003@@QAE@XZ 004a3110 f   GameOptionsMenu.obj
 0001:000a2230       ?Render@COptionsPanelItem@WW2003@@UAEXPAVCDrawPort@@@Z 004a3230 f   GameOptionsMenu.obj
 0001:000a2ad0       ?HitTestSlider@COptionsPanelItem@WW2003@@UAEHJJ@Z 004a3ad0 f   GameOptionsMenu.obj
 0001:000a2b80       ?UpdateSlider@COptionsPanelItem@WW2003@@UAEHJJ@Z 004a3b80 f   GameOptionsMenu.obj
 0001:000a2bc0       ?OnKeyDown@COptionsPanelItem@WW2003@@UAEXH@Z 004a3bc0 f   GameOptionsMenu.obj
 0001:000a2c40       ?GetSliderTrackRect@COptionsPanelItem@WW2003@@IAE?AV?$AABBox@J$01@@PAVCDrawPort@@@Z 004a3c40 f   GameOptionsMenu.obj
 0001:000a2ed0       ?GetSliderThumbRect@COptionsPanelItem@WW2003@@IAE?AV?$AABBox@J$01@@PAVCDrawPort@@@Z 004a3ed0 f   GameOptionsMenu.obj
 0001:000a3150       ?GetThumbPosAsFloat@COptionsPanelItem@WW2003@@IBEMXZ 004a4150 f   GameOptionsMenu.obj
 0001:000a3230       ?UpdateThumbPosition@COptionsPanelItem@WW2003@@IAEXJJ@Z 004a4230 f   GameOptionsMenu.obj
 0001:000a3530       ??0COptionsPanelGadget@WW2003@@QAE@XZ 004a4530 f   GameOptionsMenu.obj
 0001:000a35b0       ?Initialize@COptionsPanelGadget@WW2003@@UAEXXZ 004a45b0 f   GameOptionsMenu.obj
 0001:000a35c0       ?Show@COptionsPanelGadget@WW2003@@UAEXH@Z 004a45c0 f   GameOptionsMenu.obj
 0001:000a35d0       ?AddItem@COptionsPanelGadget@WW2003@@UAEXABVCTString@@W4ePanelItemControl@2@@Z 004a45d0 f   GameOptionsMenu.obj
 0001:000a36f0       ?GetItemTitle@COptionsPanelGadget@WW2003@@UBE?AVCTString@@J@Z 004a46f0 f   GameOptionsMenu.obj
 0001:000a37c0       ?SetItemTitle@COptionsPanelGadget@WW2003@@UAEXJABVCTString@@@Z 004a47c0 f   GameOptionsMenu.obj
 0001:000a3810       ?GetItemText@COptionsPanelGadget@WW2003@@UBE?AVCTString@@J@Z 004a4810 f   GameOptionsMenu.obj
 0001:000a38e0       ?SetItemText@COptionsPanelGadget@WW2003@@UAEXJABVCTString@@@Z 004a48e0 f   GameOptionsMenu.obj
 0001:000a3930       ?GetItemControlNumber@COptionsPanelGadget@WW2003@@UAEJJ@Z 004a4930 f   GameOptionsMenu.obj
 0001:000a3970       ?SetItemControlNumber@COptionsPanelGadget@WW2003@@UAEXJJ@Z 004a4970 f   GameOptionsMenu.obj
 0001:000a39a0       ?GetSliderRange@COptionsPanelGadget@WW2003@@UAEXJAAJ0@Z 004a49a0 f   GameOptionsMenu.obj
 0001:000a39e0       ?SetSliderRange@COptionsPanelGadget@WW2003@@UAEXJJJ@Z 004a49e0 f   GameOptionsMenu.obj
 0001:000a3a20       ?SetSliderCurPos@COptionsPanelGadget@WW2003@@UAEXJJ@Z 004a4a20 f   GameOptionsMenu.obj
 0001:000a3a50       ?GetSliderCurPos@COptionsPanelGadget@WW2003@@UAEJJ@Z 004a4a50 f   GameOptionsMenu.obj
 0001:000a3a90       ?Render@COptionsPanelGadget@WW2003@@UAEXPAVCDrawPort@@@Z 004a4a90 f   GameOptionsMenu.obj
 0001:000a3ba0       ?HandleMouseMove@COptionsPanelGadget@WW2003@@UAEHJJ@Z 004a4ba0 f   GameOptionsMenu.obj
 0001:000a3e20       ?OnKeyDown@COptionsPanelGadget@WW2003@@UAEHH@Z 004a4e20 f   GameOptionsMenu.obj
 0001:000a4070       ?HandleKeyUp@COptionsPanelGadget@WW2003@@UAEXH@Z 004a5070 f   GameOptionsMenu.obj
 0001:000a4090       ?SetBoxOnScreen@COptionsPanelGadget@WW2003@@UAEXABV?$AABBox@M$01@@@Z 004a5090 f   GameOptionsMenu.obj
 0001:000a41f0       ?DoScroll@COptionsPanelGadget@WW2003@@UAEXH@Z 004a51f0 f   GameOptionsMenu.obj
 0001:000a44e0       ?DefineKey@COptionsPanelGadget@WW2003@@UAEXJ@Z 004a54e0 f   GameOptionsMenu.obj
 0001:000a45b0       ?StartDefineKeyProcess@COptionsPanelGadget@WW2003@@UAEXJ@Z 004a55b0 f   GameOptionsMenu.obj
 0001:000a4670       ?GetBindingName@COptionsPanelGadget@WW2003@@UAE?AVCTString@@JH@Z 004a5670 f   GameOptionsMenu.obj
 0001:000a47b0       ?Think@COptionsPanelGadget@WW2003@@UAEXXZ 004a57b0 f   GameOptionsMenu.obj
 0001:000a48a0       ?OnItemClicked@COptionsPanelGadget@WW2003@@UAEXJ@Z 004a58a0 f   GameOptionsMenu.obj
 0001:000a48b0       ??0COptionsGadget_GraphicsPresets@WW2003@@QAE@XZ 004a58b0 f   GameOptionsMenu.obj
 0001:000a48d0       ?GetPresetName@COptionsGadget_GraphicsPresets@WW2003@@QBE?AVCTString@@W4eGraphicsPresets@2@@Z 004a58d0 f   GameOptionsMenu.obj
 0001:000a4a10       ?Initialize@COptionsGadget_GraphicsPresets@WW2003@@UAEXXZ 004a5a10 f   GameOptionsMenu.obj
 0001:000a4b30       ?Render@COptionsGadget_GraphicsPresets@WW2003@@UAEXPAVCDrawPort@@@Z 004a5b30 f   GameOptionsMenu.obj
 0001:000a4d70       ?SetItemTooltip@COptionsGadget_GraphicsPresets@WW2003@@UAEXJ@Z 004a5d70 f   GameOptionsMenu.obj
 0001:000a4ed0       ?OnItemClicked@COptionsGadget_GraphicsPresets@WW2003@@UAEXJ@Z 004a5ed0 f   GameOptionsMenu.obj
 0001:000a5040       ?DoAutoProfiling@COptionsGadget_GraphicsPresets@WW2003@@QAEXXZ 004a6040 f   GameOptionsMenu.obj
 0001:000a5060       ?AutoProfile@COptionsGadget_GraphicsPresets@WW2003@@UAE?AW4eGraphicsPresets@2@XZ 004a6060 f   GameOptionsMenu.obj
 0001:000a5240       ?HandleGraphicsPresets@COptionsGadget_GraphicsPresets@WW2003@@UAEXXZ 004a6240 f   GameOptionsMenu.obj
 0001:000a5880       ?InitControlData@COptionsGadget_GraphicsPresets@WW2003@@UAEXXZ 004a6880 f   GameOptionsMenu.obj
 0001:000a5890       ?ApplyControlData@COptionsGadget_GraphicsPresets@WW2003@@UAEXXZ 004a6890 f   GameOptionsMenu.obj
 0001:000a58a0       ?RevertOptions@COptionsGadget_GraphicsPresets@WW2003@@UAEXXZ 004a68a0 f   GameOptionsMenu.obj
 0001:000a58b0       ??0COptionsGadget_GraphicsDisplay@WW2003@@QAE@XZ 004a68b0 f   GameOptionsMenu.obj
 0001:000a59b0       ?GetAPIName@COptionsGadget_GraphicsDisplay@WW2003@@IBE?AVCTString@@W4eGraphicsAPI@2@@Z 004a69b0 f   GameOptionsMenu.obj
 0001:000a5a70       ?GetBPPName@COptionsGadget_GraphicsDisplay@WW2003@@IBE?AVCTString@@W4eGraphicsBPP@2@@Z 004a6a70 f   GameOptionsMenu.obj
 0001:000a5b50       ?FillAdaptersList@COptionsGadget_GraphicsDisplay@WW2003@@IAEXXZ 004a6b50 f   GameOptionsMenu.obj
 0001:000a5c60       ?FillResolutionLists@COptionsGadget_GraphicsDisplay@WW2003@@IAEXXZ 004a6c60 f   GameOptionsMenu.obj
 0001:000a5ef0       ?RefillResolutionLists@COptionsGadget_GraphicsDisplay@WW2003@@IAEXXZ 004a6ef0 f   GameOptionsMenu.obj
 0001:000a5f60       ?FindResolutionInList@COptionsGadget_GraphicsDisplay@WW2003@@IAEJJJ@Z 004a6f60 f   GameOptionsMenu.obj
 0001:000a5fb0       ?ResolutionIsOkToAddToList@COptionsGadget_GraphicsDisplay@WW2003@@IAEHJJ@Z 004a6fb0 f   GameOptionsMenu.obj
 0001:000a6020       ?Initialize@COptionsGadget_GraphicsDisplay@WW2003@@UAEXXZ 004a7020 f   GameOptionsMenu.obj
 0001:000a6190       ?SetItemTooltip@COptionsGadget_GraphicsDisplay@WW2003@@UAEXJ@Z 004a7190 f   GameOptionsMenu.obj
 0001:000a62f0       ?OnItemClicked@COptionsGadget_GraphicsDisplay@WW2003@@UAEXJ@Z 004a72f0 f   GameOptionsMenu.obj
 0001:000a65b0       ?InitControlData@COptionsGadget_GraphicsDisplay@WW2003@@UAEXXZ 004a75b0 f   GameOptionsMenu.obj
 0001:000a67b0       ?ApplyControlData@COptionsGadget_GraphicsDisplay@WW2003@@UAEXXZ 004a77b0 f   GameOptionsMenu.obj
 0001:000a67e0       ?RevertOptions@COptionsGadget_GraphicsDisplay@WW2003@@UAEXXZ 004a77e0 f   GameOptionsMenu.obj
 0001:000a6810       ?UpdateGreyedStates@COptionsGadget_GraphicsDisplay@WW2003@@UAEXXZ 004a7810 f   GameOptionsMenu.obj
 0001:000a6a20       ?SetNewVideoMode@COptionsGadget_GraphicsDisplay@WW2003@@UAEXH@Z 004a7a20 f   GameOptionsMenu.obj
 0001:000a6b70       ?RestoreShellVariables@COptionsGadget_GraphicsDisplay@WW2003@@UAEXXZ 004a7b70 f   GameOptionsMenu.obj
 0001:000a6bc0       ??0COptionsGadget_GraphicsPerformance@WW2003@@QAE@XZ 004a7bc0 f   GameOptionsMenu.obj
 0001:000a6be0       ?Initialize@COptionsGadget_GraphicsPerformance@WW2003@@UAEXXZ 004a7be0 f   GameOptionsMenu.obj
 0001:000a6e00       ?SetItemTooltip@COptionsGadget_GraphicsPerformance@WW2003@@UAEXJ@Z 004a7e00 f   GameOptionsMenu.obj
 0001:000a7020       ?OnItemClicked@COptionsGadget_GraphicsPerformance@WW2003@@UAEXJ@Z 004a8020 f   GameOptionsMenu.obj
 0001:000a7430       ?InitControlData@COptionsGadget_GraphicsPerformance@WW2003@@UAEXXZ 004a8430 f   GameOptionsMenu.obj
 0001:000a7a70       ?ApplyControlData@COptionsGadget_GraphicsPerformance@WW2003@@UAEXXZ 004a8a70 f   GameOptionsMenu.obj
 0001:000a7f80       ??0COptionsGadget_Sound@WW2003@@QAE@XZ 004a8f80 f   GameOptionsMenu.obj
 0001:000a7fc0       ?GetFormatName@COptionsGadget_Sound@WW2003@@QBE?AVCTString@@W4eSoundFormat@2@@Z 004a8fc0 f   GameOptionsMenu.obj
 0001:000a80e0       ?GetInterfaceName@COptionsGadget_Sound@WW2003@@QBE?AVCTString@@W4eSoundInterface@2@@Z 004a90e0 f   GameOptionsMenu.obj
 0001:000a81c0       ?Initialize@COptionsGadget_Sound@WW2003@@UAEXXZ 004a91c0 f   GameOptionsMenu.obj
 0001:000a82c0       ?SetItemTooltip@COptionsGadget_Sound@WW2003@@UAEXJ@Z 004a92c0 f   GameOptionsMenu.obj
 0001:000a83f0       ?OnItemClicked@COptionsGadget_Sound@WW2003@@UAEXJ@Z 004a93f0 f   GameOptionsMenu.obj
 0001:000a85d0       ?InitControlData@COptionsGadget_Sound@WW2003@@UAEXXZ 004a95d0 f   GameOptionsMenu.obj
 0001:000a8870       ?ApplyControlData@COptionsGadget_Sound@WW2003@@UAEXXZ 004a9870 f   GameOptionsMenu.obj
 0001:000a8a30       ??0COptionsGadget_ControlsMovement@WW2003@@QAE@XZ 004a9a30 f   GameOptionsMenu.obj
 0001:000a8a50       ?Initialize@COptionsGadget_ControlsMovement@WW2003@@UAEXXZ 004a9a50 f   GameOptionsMenu.obj
 0001:000a8cf0       ?InitControlData@COptionsGadget_ControlsMovement@WW2003@@UAEXXZ 004a9cf0 f   GameOptionsMenu.obj
 0001:000a91b0       ?OnItemClicked@COptionsGadget_ControlsMovement@WW2003@@UAEXJ@Z 004aa1b0 f   GameOptionsMenu.obj
 0001:000a91f0       ??0COptionsGadget_ControlsEquipment@WW2003@@QAE@XZ 004aa1f0 f   GameOptionsMenu.obj
 0001:000a9210       ?Initialize@COptionsGadget_ControlsEquipment@WW2003@@UAEXXZ 004aa210 f   GameOptionsMenu.obj
 0001:000a9790       ?InitControlData@COptionsGadget_ControlsEquipment@WW2003@@UAEXXZ 004aa790 f   GameOptionsMenu.obj
 0001:000aa160       ?OnItemClicked@COptionsGadget_ControlsEquipment@WW2003@@UAEXJ@Z 004ab160 f   GameOptionsMenu.obj
 0001:000aa1a0       ??0COptionsGadget_ControlsMouse@WW2003@@QAE@XZ 004ab1a0 f   GameOptionsMenu.obj
 0001:000aa1d0       ?Initialize@COptionsGadget_ControlsMouse@WW2003@@UAEXXZ 004ab1d0 f   GameOptionsMenu.obj
 0001:000aa2d0       ?InitControlData@COptionsGadget_ControlsMouse@WW2003@@UAEXXZ 004ab2d0 f   GameOptionsMenu.obj
 0001:000aa520       ?OnItemClicked@COptionsGadget_ControlsMouse@WW2003@@UAEXJ@Z 004ab520 f   GameOptionsMenu.obj
 0001:000aa770       ?ApplyControlData@COptionsGadget_ControlsMouse@WW2003@@UAEXXZ 004ab770 f   GameOptionsMenu.obj
 0001:000aa890       ??0COptionsGadget_ControlsOther@WW2003@@QAE@XZ 004ab890 f   GameOptionsMenu.obj
 0001:000aa8b0       ?Initialize@COptionsGadget_ControlsOther@WW2003@@UAEXXZ 004ab8b0 f   GameOptionsMenu.obj
 0001:000aaa40       ?InitControlData@COptionsGadget_ControlsOther@WW2003@@UAEXXZ 004aba40 f   GameOptionsMenu.obj
 0001:000aad30       ?OnItemClicked@COptionsGadget_ControlsOther@WW2003@@UAEXJ@Z 004abd30 f   GameOptionsMenu.obj
 0001:000aad70       ??0COptionsMenu@WW2003@@QAE@XZ 004abd70 f   GameOptionsMenu.obj
 0001:000aafd0       ?SetOptionsType@COptionsMenu@WW2003@@QAEXW4eOptionsType@2@@Z 004abfd0 f   GameOptionsMenu.obj
 0001:000ab010       ?UpdateControls@COptionsMenu@WW2003@@UAEXXZ 004ac010 f   GameOptionsMenu.obj
 0001:000ab140       ?OnTabCtrlSelChange@COptionsMenu@WW2003@@UAEXXZ 004ac140 f   GameOptionsMenu.obj
 0001:000ab270       ?ShowCommonToolbar@COptionsMenu@WW2003@@UAEXH@Z 004ac270 f   GameOptionsMenu.obj
 0001:000ab2b0       ?Initialize_t@COptionsMenu@WW2003@@UAEXXZ 004ac2b0 f   GameOptionsMenu.obj
 0001:000ac710       ?ReleaseTextures@COptionsMenu@WW2003@@UAEXXZ 004ad710 f   GameOptionsMenu.obj
 0001:000ac720       ?RestoreTextures@COptionsMenu@WW2003@@UAEXXZ 004ad720 f   GameOptionsMenu.obj
 0001:000ac730       ?StartMenu@COptionsMenu@WW2003@@UAEXXZ 004ad730 f   GameOptionsMenu.obj
 0001:000aca50       ?SwitchToPanel@COptionsMenu@WW2003@@UAEXAAVCOptionsPanelGadget@2@@Z 004ada50 f   GameOptionsMenu.obj
 0001:000acaf0       ?GetActivePanel@COptionsMenu@WW2003@@QAEPAVCOptionsPanelGadget@2@XZ 004adaf0 f   GameOptionsMenu.obj
 0001:000acb80       ?HandleMouseMove@COptionsMenu@WW2003@@UAEHJJ@Z 004adb80 f   GameOptionsMenu.obj
 0001:000acbd0       ?HandleKeyUp@COptionsMenu@WW2003@@UAEXH@Z 004adbd0 f   GameOptionsMenu.obj
 0001:000acbf0       ?InitControlData@COptionsMenu@WW2003@@UAEXXZ 004adbf0 f   GameOptionsMenu.obj
 0001:000acc90       ?ApplyControlData@COptionsMenu@WW2003@@UAEXXZ 004adc90 f   GameOptionsMenu.obj
 0001:000acf70       ?DoScroll@COptionsMenu@WW2003@@UAEXH@Z 004adf70 f   GameOptionsMenu.obj
 0001:000acf90       ?OnBackButton@COptionsMenu@WW2003@@SAXXZ 004adf90 f   GameOptionsMenu.obj
 0001:000acfa0       ?OnApplyButton@COptionsMenu@WW2003@@SAXXZ 004adfa0 f   GameOptionsMenu.obj
 0001:000ad090       ?OnGraphicsButton@COptionsMenu@WW2003@@SAXXZ 004ae090 f   GameOptionsMenu.obj
 0001:000ad0a0       ?OnSoundButton@COptionsMenu@WW2003@@SAXXZ 004ae0a0 f   GameOptionsMenu.obj
 0001:000ad0b0       ?OnControlsButton@COptionsMenu@WW2003@@SAXXZ 004ae0b0 f   GameOptionsMenu.obj
 0001:000ad0c0       ?OnHunterInfoButton@COptionsMenu@WW2003@@SAXXZ 004ae0c0 f   GameOptionsMenu.obj
 0001:000ad0e0       ?OnOptionsButton@COptionsMenu@WW2003@@SAXXZ 004ae0e0 f   GameOptionsMenu.obj
 0001:000ad0f0       ?OnExitButton@COptionsMenu@WW2003@@SAXXZ 004ae0f0 f   GameOptionsMenu.obj
 0001:000ad100       ?OnTabSelChanged@COptionsMenu@WW2003@@SAXXZ 004ae100 f   GameOptionsMenu.obj
 0001:000ad110       ?OnScrollUpButton@COptionsMenu@WW2003@@SAXXZ 004ae110 f   GameOptionsMenu.obj
 0001:000ad120       ?OnScrollDownButton@COptionsMenu@WW2003@@SAXXZ 004ae120 f   GameOptionsMenu.obj
 0001:000ad130       ?GetBackgroundPieceRect@COptionsMenu@WW2003@@IAE?AV?$AABBox@M$01@@J@Z 004ae130 f   GameOptionsMenu.obj
 0001:000ad310       ??0CConfirmVideoSettingsMenu@WW2003@@QAE@XZ 004ae310 f   GameOptionsMenu.obj
 0001:000ad3e0       ?Initialize_t@CConfirmVideoSettingsMenu@WW2003@@UAEXXZ 004ae3e0 f   GameOptionsMenu.obj
 0001:000ad9e0       ?ReleaseTextures@CConfirmVideoSettingsMenu@WW2003@@UAEXXZ 004ae9e0 f   GameOptionsMenu.obj
 0001:000ad9f0       ?RestoreTextures@CConfirmVideoSettingsMenu@WW2003@@UAEXXZ 004ae9f0 f   GameOptionsMenu.obj
 0001:000ada00       ?StartMenu@CConfirmVideoSettingsMenu@WW2003@@UAEXXZ 004aea00 f   GameOptionsMenu.obj
 0001:000ada40       ?EndMenu@CConfirmVideoSettingsMenu@WW2003@@UAEXXZ 004aea40 f   GameOptionsMenu.obj
 0001:000ada60       ?Think@CConfirmVideoSettingsMenu@WW2003@@UAEXXZ 004aea60 f   GameOptionsMenu.obj
 0001:000adb70       ?SetMessageText@CConfirmVideoSettingsMenu@WW2003@@QAEXABVCTString@@@Z 004aeb70 f   GameOptionsMenu.obj
 0001:000adbb0       ?SetOkFunc@CConfirmVideoSettingsMenu@WW2003@@QAEXP6AXXZ@Z 004aebb0 f   GameOptionsMenu.obj
 0001:000adbc0       ?SetCancelFunc@CConfirmVideoSettingsMenu@WW2003@@QAEXP6AXXZ@Z 004aebc0 f   GameOptionsMenu.obj
 0001:000adbd0       ?OnOkButton@CConfirmVideoSettingsMenu@WW2003@@SAXXZ 004aebd0 f   GameOptionsMenu.obj
 0001:000adbe0       ?OnCancelButton@CConfirmVideoSettingsMenu@WW2003@@SAXXZ 004aebe0 f   GameOptionsMenu.obj
 0001:000adc30       ??1COptionsMenu@WW2003@@QAE@XZ 004aec30 f i GameOptionsMenu.obj
 0001:000adfd0       ??1COptionsGadget_GraphicsPresets@WW2003@@QAE@XZ 004aefd0 f i GameOptionsMenu.obj
 0001:000ae0e0       ?Clear@COptionsPanelItem@WW2003@@UAEXXZ 004af0e0 f i GameOptionsMenu.obj
 0001:000ae1a0       ??1COptionsGadget_GraphicsDisplay@WW2003@@QAE@XZ 004af1a0 f i GameOptionsMenu.obj
 0001:000ae350       ??1COptionsGadget_GraphicsPerformance@WW2003@@QAE@XZ 004af350 f i GameOptionsMenu.obj
 0001:000ae460       ??1COptionsGadget_Sound@WW2003@@QAE@XZ 004af460 f i GameOptionsMenu.obj
 0001:000ae570       ??1COptionsGadget_ControlsMovement@WW2003@@QAE@XZ 004af570 f i GameOptionsMenu.obj
 0001:000ae680       ??1COptionsGadget_ControlsEquipment@WW2003@@QAE@XZ 004af680 f i GameOptionsMenu.obj
 0001:000ae790       ??1COptionsGadget_ControlsMouse@WW2003@@QAE@XZ 004af790 f i GameOptionsMenu.obj
 0001:000ae8a0       ??1COptionsGadget_ControlsOther@WW2003@@QAE@XZ 004af8a0 f i GameOptionsMenu.obj
 0001:000ae9b0       ??1COptionsPanelGadget@WW2003@@QAE@XZ 004af9b0 f i GameOptionsMenu.obj
 0001:000aead0       ??1CConfirmVideoSettingsMenu@WW2003@@QAE@XZ 004afad0 f i GameOptionsMenu.obj
 0001:000aec70       ?GetNumItems@COptionsPanelGadget@WW2003@@UBEJXZ 004afc70 f i GameOptionsMenu.obj
 0001:000aec80       ?RemoveAllItems@COptionsPanelGadget@WW2003@@UAEXXZ 004afc80 f i GameOptionsMenu.obj
 0001:000aed20       ?SetItemTooltip@COptionsPanelGadget@WW2003@@UAEXJ@Z 004afd20 f i GameOptionsMenu.obj
 0001:000aed90       ?InitControlData@COptionsPanelGadget@WW2003@@UAEXXZ 004afd90 f i GameOptionsMenu.obj
 0001:000aeda0       ?ApplyControlData@COptionsPanelGadget@WW2003@@UAEXXZ 004afda0 f i GameOptionsMenu.obj
 0001:000aedb0       ?RevertOptions@COptionsPanelGadget@WW2003@@UAEXXZ 004afdb0 f i GameOptionsMenu.obj
 0001:000aedc0       ?OnSliderPosChanged@COptionsPanelGadget@WW2003@@UAEXXZ 004afdc0 f i GameOptionsMenu.obj
 0001:000aedd0       ?GetTitle@COptionsPanelItem@WW2003@@QBE?AVCTString@@XZ 004afdd0 f i GameOptionsMenu.obj
 0001:000aee00       ?GetText@COptionsPanelItem@WW2003@@QBE?AVCTString@@XZ 004afe00 f i GameOptionsMenu.obj
 0001:000aee30       ??1?$CDynamicStackArray@VCOptionsPanelItem@WW2003@@@@QAE@XZ 004afe30 f i GameOptionsMenu.obj
 0001:000aeed0       ??1?$CDynamicStackArray@VCOptionsDisplayMode@WW2003@@@@QAE@XZ 004afed0 f i GameOptionsMenu.obj
 0001:000aef60       ?New@?$CDynamicArray@VCOptionsPanelItem@WW2003@@@@QAEPAVCOptionsPanelItem@WW2003@@J@Z 004aff60 f i GameOptionsMenu.obj
 0001:000aeff0       ?Clear@?$CDynamicArray@VCOptionsPanelItem@WW2003@@@@QAEXXZ 004afff0 f i GameOptionsMenu.obj
 0001:000af080       ?New@?$CDynamicArray@VCOptionsDisplayMode@WW2003@@@@QAEPAVCOptionsDisplayMode@WW2003@@J@Z 004b0080 f i GameOptionsMenu.obj
 0001:000af110       ?Clear@?$CDynamicArray@VCOptionsDisplayMode@WW2003@@@@QAEXXZ 004b0110 f i GameOptionsMenu.obj
 0001:000af190       ??_ECOptionsPanelItem@WW2003@@QAEPAXI@Z 004b0190 f i GameOptionsMenu.obj
 0001:000af1f0       ??1COptionsPanelItem@WW2003@@QAE@XZ 004b01f0 f i GameOptionsMenu.obj
 0001:000af250       ?GrowPointers@?$CDynamicArray@VCTString@@@@QAEXJ@Z 004b0250 f i GameOptionsMenu.obj
 0001:000af2a0       ?AllocBlock@?$CDynamicArray@VCOptionsPanelItem@WW2003@@@@QAEPAVCOptionsPanelItem@WW2003@@J@Z 004b02a0 f i GameOptionsMenu.obj
 0001:000af340       ?AllocBlock@?$CDynamicArray@VCOptionsDisplayMode@WW2003@@@@QAEPAVCOptionsDisplayMode@WW2003@@J@Z 004b0340 f i GameOptionsMenu.obj
 0001:000b4250       ??0CHunterInfoStage@WW2003@@QAE@XZ 004b5250 f   HunterInfoStage.obj
 0001:000b4650       ??1CHunterInfoStage@WW2003@@UAE@XZ 004b5650 f   HunterInfoStage.obj
 0001:000b4760       ?Initialize@CHunterInfoStage@WW2003@@UAEXXZ 004b5760 f   HunterInfoStage.obj
 0001:000b4a50       ?LoadStageModel@CHunterInfoStage@WW2003@@UAEXABVCTString@@ABV?$Vector@M$02@@1@Z 004b5a50 f   HunterInfoStage.obj
 0001:000b4ab0       ?LoadHunterModel@CHunterInfoStage@WW2003@@UAEXABVCTString@@0@Z 004b5ab0 f   HunterInfoStage.obj
 0001:000b4cc0       ?DeleteHunterModel@CHunterInfoStage@WW2003@@UAEXXZ 004b5cc0 f   HunterInfoStage.obj
 0001:000b4cf0       ?LoadDogModel@CHunterInfoStage@WW2003@@UAEXABVCTString@@0@Z 004b5cf0 f   HunterInfoStage.obj
 0001:000b4ef0       ?DeleteDogModel@CHunterInfoStage@WW2003@@UAEXXZ 004b5ef0 f   HunterInfoStage.obj
 0001:000b4f10       ?LoadVehicle1Model@CHunterInfoStage@WW2003@@UAEXABVCTString@@0@Z 004b5f10 f   HunterInfoStage.obj
 0001:000b50d0       ?DeleteVehicle1Model@CHunterInfoStage@WW2003@@UAEXXZ 004b60d0 f   HunterInfoStage.obj
 0001:000b50f0       ?LoadVehicle2Model@CHunterInfoStage@WW2003@@UAEXABVCTString@@0@Z 004b60f0 f   HunterInfoStage.obj
 0001:000b5280       ?DeleteVehicle2Model@CHunterInfoStage@WW2003@@UAEXXZ 004b6280 f   HunterInfoStage.obj
 0001:000b52a0       ?LoadVehicle3Model@CHunterInfoStage@WW2003@@UAEXABVCTString@@0@Z 004b62a0 f   HunterInfoStage.obj
 0001:000b5430       ?DeleteVehicle3Model@CHunterInfoStage@WW2003@@UAEXXZ 004b6430 f   HunterInfoStage.obj
 0001:000b5450       ?LoadGunModel@CHunterInfoStage@WW2003@@UAEXABVCTString@@0H@Z 004b6450 f   HunterInfoStage.obj
 0001:000b5790       ?DeleteGunModel@CHunterInfoStage@WW2003@@UAEXXZ 004b6790 f   HunterInfoStage.obj
 0001:000b5800       ?DoHunterAnimation@CHunterInfoStage@WW2003@@UAEXABVCTString@@K@Z 004b6800 f   HunterInfoStage.obj
 0001:000b5860       ?DoDogAnimation@CHunterInfoStage@WW2003@@UAEXABVCTString@@K@Z 004b6860 f   HunterInfoStage.obj
 0001:000b58c0       ?OnKeyDown@CHunterInfoStage@WW2003@@UAEHH@Z 004b68c0 f   HunterInfoStage.obj
 0001:000b5cf0       ?Render@CHunterInfoStage@WW2003@@UAEXPAVCDrawPort@@@Z 004b6cf0 f   HunterInfoStage.obj
 0001:000b5d10       ?DeleteModelInstance@CHunterInfoStage@WW2003@@UAEXXZ 004b6d10 f   HunterInfoStage.obj
 0001:000b5d50       ??_GCHunterInfoStage@WW2003@@UAEPAXI@Z 004b6d50 f i HunterInfoStage.obj
 0001:000b5d50       ??_ECHunterInfoStage@WW2003@@UAEPAXI@Z 004b6d50 f i HunterInfoStage.obj
 0001:000b5d80       ?GetModelFileName@CModelInstanceContainer@@QBE?AVCTString@@XZ 004b6d80 f i HunterInfoStage.obj
 0001:000b5db0       ?HitTestPixel@@YAHJJABV?$AABBox@J$01@@@Z 004b6db0 f i HunterInfoStage.obj
 0001:000bac50       ??0CLogbookTrophy@WW2003@@QAE@XZ 004bbc50 f   LogbookTrophy.obj
 0001:000baf30       ??1CLogbookTrophy@WW2003@@UAE@XZ 004bbf30 f   LogbookTrophy.obj
 0001:000bb0d0       ?LoadStandModel@CLogbookTrophy@WW2003@@UAEXABVCTString@@ABV?$Vector@M$02@@1M@Z 004bc0d0 f   LogbookTrophy.obj
 0001:000bb160       ?LoadAnimalModel@CLogbookTrophy@WW2003@@UAEXABVCTString@@0M@Z 004bc160 f   LogbookTrophy.obj
 0001:000bb280       ?DeleteAnimalModel@CLogbookTrophy@WW2003@@UAEXXZ 004bc280 f   LogbookTrophy.obj
 0001:000bb2b0       ?LoadTurkeyBeardModel@CLogbookTrophy@WW2003@@UAEXABVCTString@@0ABV?$Vector@M$02@@1M@Z 004bc2b0 f   LogbookTrophy.obj
 0001:000bb440       ?DeleteTurkeyBeardModel@CLogbookTrophy@WW2003@@UAEXXZ 004bc440 f   LogbookTrophy.obj
 0001:000bb4c0       ?LoadTurkeyBonusBeardModel@CLogbookTrophy@WW2003@@UAEXABVCTString@@0ABV?$Vector@M$02@@1M@Z 004bc4c0 f   LogbookTrophy.obj
 0001:000bb650       ?DeleteTurkeyBonusBeardModel@CLogbookTrophy@WW2003@@UAEXXZ 004bc650 f   LogbookTrophy.obj
 0001:000bb6e0       ?LoadBandModel@CLogbookTrophy@WW2003@@UAEXABVCTString@@0ABV?$Vector@M$02@@1M@Z 004bc6e0 f   LogbookTrophy.obj
 0001:000bb870       ?DeleteBandModel@CLogbookTrophy@WW2003@@UAEXXZ 004bc870 f   LogbookTrophy.obj
 0001:000bb8f0       ?DoAnimalAnimation@CLogbookTrophy@WW2003@@UAEXABVCTString@@K@Z 004bc8f0 f   LogbookTrophy.obj
 0001:000bb930       ?OnKeyDown@CLogbookTrophy@WW2003@@UAEHH@Z 004bc930 f   LogbookTrophy.obj
 0001:000bb940       ?Render@CLogbookTrophy@WW2003@@UAEXPAVCDrawPort@@@Z 004bc940 f   LogbookTrophy.obj
 0001:000bb960       ?DeleteModelInstance@CLogbookTrophy@WW2003@@UAEXXZ 004bc960 f   LogbookTrophy.obj
 0001:000bb9a0       ??_GCLogbookTrophy@WW2003@@UAEPAXI@Z 004bc9a0 f i LogbookTrophy.obj
 0001:000bb9a0       ??_ECLogbookTrophy@WW2003@@UAEPAXI@Z 004bc9a0 f i LogbookTrophy.obj
 0001:000bbbb0       ?GetNextParam@@YA?AVCTString@@XZ 004bcbb0 f   CmdLine.obj
 0001:000bbe40       ?ParseCommandLine@@YAXVCTString@@@Z 004bce40 f   CmdLine.obj
 0001:000bc420       ?GetTime@@YAMXZ            004bd420 f   Credits.obj
 0001:000bc480       ?PrintOneLine@@YAXPAVCDrawPort@@ABVCTString@@@Z 004bd480 f   Credits.obj
 0001:000bc4d0       ?Credits_On@@YAXJ@Z        004bd4d0 f   Credits.obj
 0001:000bc8c0       ?Credits_Off@@YAXXZ        004bd8c0 f   Credits.obj
 0001:000bc920       ?Credits_Render@@YAMPAVCDrawPort@@@Z 004bd920 f   Credits.obj
 0001:000bcb80       ??0?$CStaticStackArray@VCTString@@@@QAE@XZ 004bdb80 f i Credits.obj
 0001:000bcba0       ??1?$CStaticStackArray@VCTString@@@@QAE@XZ 004bdba0 f i Credits.obj
 0001:000bd180       ?StartTutorial@@YAXJ@Z     004be180 f   GameEXE.obj
 0001:000bd300       ?ApplyVideoMode@@YAXXZ     004be300 f   GameEXE.obj
 0001:000bd340       ?BenchMark_Info@@YAXAAVBenchmarkInfo@@@Z 004be340 f   GameEXE.obj
 0001:000bd3b0       ?UpdateInputEnabledState@@YAXXZ 004be3b0 f   GameEXE.obj
 0001:000bd460       ?UpdatePauseState@@YAXXZ   004be460 f   GameEXE.obj
 0001:000bd4d0       ?LimitFrameRate@@YAXXZ     004be4d0 f   GameEXE.obj
 0001:000bd610       ?StartNextDemo@@YAXXZ      004be610 f   GameEXE.obj
 0001:000bd710       ?RegisterGameSpy@@YAXXZ    004be710 f   GameEXE.obj
 0001:000bd7b0       ?FileExistsOnHD@@YAHABVCTString@@@Z 004be7b0 f   GameEXE.obj
 0001:000bd800       ?FindCDPath@@YAHXZ         004be800 f   GameEXE.obj
 0001:000bd920       ?IsCDInDrive@@YAHXZ        004be920 f   GameEXE.obj
 0001:000bda90       ?TrimString@@YAXPAD@Z      004bea90 f   GameEXE.obj
 0001:000bdac0       ?PerformCDCheck@@YAHXZ     004beac0 f   GameEXE.obj
 0001:000bdbf0       ?ReportBuildID@@YAXXZ      004bebf0 f   GameEXE.obj
 0001:000bdc80       ?RunBrowser@@YAXPBD@Z      004bec80 f   GameEXE.obj
 0001:000bdcb0       ?LoadAndForceTexture@@YAXAAVCTextureObject@@AAPAV1@ABVCTFileName@@@Z 004becb0 f   GameEXE.obj
 0001:000bdd30       ?InitializeGame@@YAXXZ     004bed30 f   GameEXE.obj
 0001:000bdf80       ?LoadVoiceOvers@@YAXXZ     004bef80 f   GameEXE.obj
 0001:000be010       ?Init@@YAHPAUHINSTANCE__@@HVCTString@@@Z 004bf010 f   GameEXE.obj
 0001:000bf1f0       ?End@@YAXXZ                004c01f0 f   GameEXE.obj
 0001:000bf280       ?PrintDisplayModeInfo@@YAXXZ 004c0280 f   GameEXE.obj
 0001:000bf550       ?DoGame@@YAXXZ             004c0550 f   GameEXE.obj
 0001:000bfa80       ?TeleportPlayer@@YAXH@Z    004c0a80 f   GameEXE.obj
 0001:000bfb40       ?RenderStarfield@@YAXPAVCDrawPort@@M@Z 004c0b40 f   GameEXE.obj
 0001:000bfc50       ?RenderQuitScreen@@YAMPAVCDrawPort@@PAVCViewPort@@@Z 004c0c50 f   GameEXE.obj
 0001:000bfd90       ?QuitScreenLoop@@YAXXZ     004c0d90 f   GameEXE.obj
 0001:000bff20       ?SubMain@@YAHPAUHINSTANCE__@@0PADH@Z 004c0f20 f   GameEXE.obj
 0001:000c0cd0       ?CheckModReload@@YAXXZ     004c1cd0 f   GameEXE.obj
 0001:000c0e80       ?CheckTeaser@@YAXXZ        004c1e80 f   GameEXE.obj
 0001:000c0fa0       ?CheckBrowser@@YAXXZ       004c1fa0 f   GameEXE.obj
 0001:000c0fd0       _WinMain@16                004c1fd0 f   GameEXE.obj
 0001:000c1070       ?TryToSetDisplayMode@@YAHW4GfxAPIType@@JJJW4DisplayDepth@@H@Z 004c2070 f   GameEXE.obj
 0001:000c1480       ?StartNewMode@@YAXW4GfxAPIType@@JJJW4DisplayDepth@@H@Z 004c2480 f   GameEXE.obj
 0001:000c1590       ?SetHUDBackpackStrings@@YAXXZ 004c2590 f   GameEXE.obj
 0001:000c1a00       ?GetLocalUserName@@YA?AVCTString@@XZ 004c2a00 f i GameEXE.obj
 0001:000c1a60       ??1EBoatStop@@UAE@XZ       004c2a60 f i GameEXE.obj
 0001:000c1b30       ?Matches@CSettingsEntry@@QBEHABVCTString@@@Z 004c2b30 f   GLSettings.obj
 0001:000c1b50       ?RenderingPreferencesDescription@@YAPBDH@Z 004c2b50 f   GLSettings.obj
 0001:000c1bd0       ?InitGLSettings@@YAXXZ     004c2bd0 f   GLSettings.obj
 0001:000c1eb0       ?GetGLSettings@@YAPAVCSettingsEntry@@ABVCTString@@@Z 004c2eb0 f   GLSettings.obj
 0001:000c1ee0       ?ApplyGLSettings@@YAXH@Z   004c2ee0 f   GLSettings.obj
 0001:000c21f0       ??0CLevelInfo@@QAE@XZ      004c31f0 f   LevelInfo.obj
 0001:000c23b0       ??0CLevelInfo@@QAE@ABV0@@Z 004c33b0 f   LevelInfo.obj
 0001:000c2620       ??4CLevelInfo@@QAEXABV0@@Z 004c3620 f   LevelInfo.obj
 0001:000c26a0       ?GetLevelInfo@@YAHAAVCLevelInfo@@ABVCTFileName@@@Z 004c36a0 f   LevelInfo.obj
 0001:000c2940       ?qsort_CompareLevels@@YAHPBX0@Z 004c3940 f   LevelInfo.obj
 0001:000c2990       ?LoadLevelsList@@YAXXZ     004c3990 f   LevelInfo.obj
 0001:000c2ff0       ?ClearLevelsList@@YAXXZ    004c3ff0 f   LevelInfo.obj
 0001:000c3020       ?FilterLevels@@YAXK@Z      004c4020 f   LevelInfo.obj
 0001:000c31a0       ?ValidateLevelForFlags@@YAXAAVCTString@@K@Z 004c41a0 f   LevelInfo.obj
 0001:000c32e0       ?FindLevelByFileName@@YA?AVCLevelInfo@@ABVCTFileName@@@Z 004c42e0 f   LevelInfo.obj
 0001:000c3340       ?qsort_CompareDemos@@YAHPBX0@Z 004c4340 f   LevelInfo.obj
 0001:000c3390       ?LoadDemosList@@YAXXZ      004c4390 f   LevelInfo.obj
 0001:000c35c0       ?ClearDemosList@@YAXXZ     004c45c0 f   LevelInfo.obj
 0001:000c35f0       ?GetNumLevels@@YAJXZ       004c45f0 f   LevelInfo.obj
 0001:000c3600       ?GetLevelInfo@@YA?AVCLevelInfo@@J@Z 004c4600 f   LevelInfo.obj
 0001:000c3650       ?IsLevelLoaded@@YAHABVCTString@@@Z 004c4650 f   LevelInfo.obj
 0001:000c3690       ?GetLevelIndex@@YAJABVCTString@@@Z 004c4690 f   LevelInfo.obj
 0001:000c36d0       ??1?$CDynamicStackArray@VCMapAnimal@@@@QAE@XZ 004c46d0 f i LevelInfo.obj
 0001:000c37d0       ?Push@?$CDynamicStackArray@VCMapAnimal@@@@QAEAAVCMapAnimal@@XZ 004c47d0 f i LevelInfo.obj
 0001:000c3870       ?New@?$CDynamicArray@VCTFileName@@@@QAEPAVCTFileName@@J@Z 004c4870 f i LevelInfo.obj
 0001:000c3900       ??0?$CDynamicArray@VCMapAnimal@@@@QAE@XZ 004c4900 f i LevelInfo.obj
 0001:000c3920       ?AllocBlock@?$CDynamicArray@VCTFileName@@@@QAEPAVCTFileName@@J@Z 004c4920 f i LevelInfo.obj
 0001:000c39d0       ?AllocBlock@?$CDynamicArray@VCMapAnimal@@@@QAEPAVCMapAnimal@@J@Z 004c49d0 f i LevelInfo.obj
 0001:000c3a80       ??0CMapAnimal@@QAE@XZ      004c4a80 f i LevelInfo.obj
 0001:000c3ab0       ?WriteToStream@CMapAnimal@@UAEXPAVCTStream@@@Z 004c4ab0 f i LevelInfo.obj
 0001:000c3b80       ?ReadFromStream@CMapAnimal@@UAEXPAVCTStream@@@Z 004c4b80 f i LevelInfo.obj
 0001:000c3cd0       ?WriteToStream@CSunstormWorldVariables@@UAEXPAVCTStream@@@Z 004c4cd0 f i LevelInfo.obj
 0001:000c3df0       ?ReadFromStream@CSunstormWorldVariables@@UAEXPAVCTStream@@@Z 004c4df0 f i LevelInfo.obj
 0001:000c4440       ?New@?$CDynamicArray@VCMapAnimal@@@@QAEPAVCMapAnimal@@J@Z 004c5440 f i LevelInfo.obj
 0001:000c44d0       ?GrowPointers@?$CDynamicArray@VCMapAnimal@@@@QAEXJ@Z 004c54d0 f i LevelInfo.obj
 0001:000c4520       ?GetVersionString@CSunstormWorldVariables@@UBE?AVCTString@@XZ 004c5520 f i LevelInfo.obj
 0001:000c4550       ??4CMapAnimal@@QAEAAV0@ABV0@@Z 004c5550 f i LevelInfo.obj
 0001:000c45a0       ??4CSunstormWorldVariables@@QAEAAV0@ABV0@@Z 004c55a0 f i LevelInfo.obj
 0001:000c4750       ?WindowProc_WindowChanging@@YGJPAUHWND__@@IIJ@Z 004c5750 f   MainWindow.obj
 0001:000c4840       ?WindowProc_Normal@@YGJPAUHWND__@@IIJ@Z 004c5840 f   MainWindow.obj
 0001:000c4a30       ?WindowProc@@YGJPAUHWND__@@IIJ@Z 004c5a30 f   MainWindow.obj
 0001:000c4a70       ?MainWindow_Init@@YAXXZ    004c5a70 f   MainWindow.obj
 0001:000c4b00       ?MainWindow_End@@YAXXZ     004c5b00 f   MainWindow.obj
 0001:000c4b10       ?CloseMainWindow@@YAXXZ    004c5b10 f   MainWindow.obj
 0001:000c4b30       ?ResetMainWindowNormal@@YAXXZ 004c5b30 f   MainWindow.obj
 0001:000c4bf0       ?OpenMainWindowNormal@@YAXJJ@Z 004c5bf0 f   MainWindow.obj
 0001:000c4cb0       ?OpenMainWindowFullScreen@@YAXJJ@Z 004c5cb0 f   MainWindow.obj
 0001:000c4d60       ?OpenMainWindowInvisible@@YAXXZ 004c5d60 f   MainWindow.obj
 0001:000c4df0       ?ShowSplashScreen@@YAXPAUHINSTANCE__@@@Z 004c5df0 f   SplashScreen.obj
 0001:000c5060       ?HideSplashScreen@@YAXXZ   004c6060 f   SplashScreen.obj
 0001:000c5100       ?GetNonEmptyLine_t@@YA?AVCTString@@AAVCTStream@@@Z 004c6100 f   VarList.obj
 0001:000c5240       ?TranslateLine@@YAXAAVCTString@@@Z 004c6240 f   VarList.obj
 0001:000c52f0       ?FixupFileName_t@@YAXAAVCTString@@@Z 004c62f0 f   VarList.obj
 0001:000c53d0       ?CheckPVS_t@@YAXPAVCVarSetting@@@Z 004c63d0 f   VarList.obj
 0001:000c53f0       ?ParseCFG_t@@YAXAAVCTStream@@@Z 004c63f0 f   VarList.obj
 0001:000c5ba0       ?LoadVarSettings@@YAXABVCTFileName@@@Z 004c6ba0 f   VarList.obj
 0001:000c5d10       ?FlushVarSettings@@YAXH@Z  004c6d10 f   VarList.obj
 0001:000c5f00       ??0CVarSetting@@QAE@XZ     004c6f00 f   VarList.obj
 0001:000c5fc0       ?Clear@CVarSetting@@QAEXXZ 004c6fc0 f   VarList.obj
 0001:000c6070       ?Validate@CVarSetting@@QAEHXZ 004c7070 f   VarList.obj
 0001:000c60c0       ??1CVarSetting@@QAE@XZ     004c70c0 f i VarList.obj
 0001:000c6190       ?Expand@?$CStaticArray@VCTString@@@@QAEXJ@Z 004c7190 f i VarList.obj
 0001:000c62e0       ?New@?$CStaticArray@VCTString@@@@QAEXJ@Z 004c72e0 f i VarList.obj
 0001:000c6360       _MoveFileA@8               004c7360 f   kernel32:KERNEL32.dll
 0001:000c6366       _CreateDirectoryA@8        004c7366 f   kernel32:KERNEL32.dll
 0001:000c636c       _GetFileAttributesA@4      004c736c f   kernel32:KERNEL32.dll
 0001:000c6372       _DeleteFileA@4             004c7372 f   kernel32:KERNEL32.dll
 0001:000c6378       _lstrcmpA@8                004c7378 f   kernel32:KERNEL32.dll
 0001:000c637e       _lstrlenA@4                004c737e f   kernel32:KERNEL32.dll
 0001:000c6384       _lstrcatA@8                004c7384 f   kernel32:KERNEL32.dll
 0001:000c638a       _lstrcpyA@8                004c738a f   kernel32:KERNEL32.dll
 0001:000c6390       _GetWindowsDirectoryA@8    004c7390 f   kernel32:KERNEL32.dll
 0001:000c6396       _Sleep@4                   004c7396 f   kernel32:KERNEL32.dll
 0001:000c639c       _GetModuleFileNameA@12     004c739c f   kernel32:KERNEL32.dll
 0001:000c63a2       _GetDriveTypeA@4           004c73a2 f   kernel32:KERNEL32.dll
 0001:000c63a8       _GetProcAddress@8          004c73a8 f   kernel32:KERNEL32.dll
 0001:000c63ae       _GetLastError@0            004c73ae f   kernel32:KERNEL32.dll
 0001:000c63b4       _LoadLibraryA@4            004c73b4 f   kernel32:KERNEL32.dll
 0001:000c63ba       _CreateFileA@28            004c73ba f   kernel32:KERNEL32.dll
 0001:000c63c0       _CloseHandle@4             004c73c0 f   kernel32:KERNEL32.dll
 0001:000c63c6       _lstrcpynA@12              004c73c6 f   kernel32:KERNEL32.dll
 0001:000c63cc       _ScreenToClient@8          004c73cc f   user32:USER32.dll
 0001:000c63d2       _GetCursorPos@4            004c73d2 f   user32:USER32.dll
 0001:000c63d8       _GetKeyState@4             004c73d8 f   user32:USER32.dll
 0001:000c63de       _SetCapture@4              004c73de f   user32:USER32.dll
 0001:000c63e4       _ReleaseCapture@0          004c73e4 f   user32:USER32.dll
 0001:000c63ea       _ShowCursor@4              004c73ea f   user32:USER32.dll
 0001:000c63f0       _IsIconic@4                004c73f0 f   user32:USER32.dll
 0001:000c63f6       _GetSystemMetrics@4        004c73f6 f   user32:USER32.dll
 0001:000c63fc       _ClipCursor@4              004c73fc f   user32:USER32.dll
 0001:000c6402       _GetClientRect@8           004c7402 f   user32:USER32.dll
 0001:000c6408       _PeekMessageA@20           004c7408 f   user32:USER32.dll
 0001:000c640e       _SetCursorPos@8            004c740e f   user32:USER32.dll
 0001:000c6414       _ClientToScreen@8          004c7414 f   user32:USER32.dll
 0001:000c641a       _MapVirtualKeyA@8          004c741a f   user32:USER32.dll
 0001:000c6420       _PostMessageA@16           004c7420 f   user32:USER32.dll
 0001:000c6426       _DispatchMessageA@4        004c7426 f   user32:USER32.dll
 0001:000c642c       _TranslateMessage@4        004c742c f   user32:USER32.dll
 0001:000c6432       _ShowWindow@8              004c7432 f   user32:USER32.dll
 0001:000c6438       _EndPaint@8                004c7438 f   user32:USER32.dll
 0001:000c643e       _FillRect@12               004c743e f   user32:USER32.dll
 0001:000c6444       _BeginPaint@8              004c7444 f   user32:USER32.dll
 0001:000c644a       _DefWindowProcA@16         004c744a f   user32:USER32.dll
 0001:000c6450       _LoadBitmapA@8             004c7450 f   user32:USER32.dll
 0001:000c6456       _RegisterClassExA@4        004c7456 f   user32:USER32.dll
 0001:000c645c       _LoadIconA@8               004c745c f   user32:USER32.dll
 0001:000c6462       _DestroyWindow@4           004c7462 f   user32:USER32.dll
 0001:000c6468       _SetWindowPos@28           004c7468 f   user32:USER32.dll
 0001:000c646e       _GetWindowRect@8           004c746e f   user32:USER32.dll
 0001:000c6474       _SetWindowTextA@8          004c7474 f   user32:USER32.dll
 0001:000c647a       _CreateWindowExA@48        004c747a f   user32:USER32.dll
 0001:000c6480       _UpdateWindow@4            004c7480 f   user32:USER32.dll
 0001:000c6486       _InvalidateRect@12         004c7486 f   user32:USER32.dll
 0001:000c648c       _RegisterClassA@4          004c748c f   user32:USER32.dll
 0001:000c6492       _LoadCursorA@8             004c7492 f   user32:USER32.dll
 0001:000c6498       _BitBlt@36                 004c7498 f   gdi32:GDI32.dll
 0001:000c649e       _SelectObject@8            004c749e f   gdi32:GDI32.dll
 0001:000c64a4       _CreateCompatibleDC@4      004c74a4 f   gdi32:GDI32.dll
 0001:000c64aa       _GetStockObject@4          004c74aa f   gdi32:GDI32.dll
 0001:000c64b0       _GetObjectA@12             004c74b0 f   gdi32:GDI32.dll
 0001:000c64b6       _DeleteObject@4            004c74b6 f   gdi32:GDI32.dll
 0001:000c64bc       _DeleteDC@4                004c74bc f   gdi32:GDI32.dll
 0001:000c64c2       _RegCloseKey@4             004c74c2 f   advapi32:ADVAPI32.dll
 0001:000c64c8       _RegSetValueExA@24         004c74c8 f   advapi32:ADVAPI32.dll
 0001:000c64ce       _RegCreateKeyExA@36        004c74ce f   advapi32:ADVAPI32.dll
 0001:000c64d4       _GetUserNameA@8            004c74d4 f   advapi32:ADVAPI32.dll
 0001:000c64da       _ShellExecuteA@24          004c74da f   shell32:SHELL32.dll
 0001:000c64e0       ?GenerateNewDog@@YAXVCTString@@00@Z 004c74e0 f   Entities:Entities.dll
 0001:000c64e6       ?HUDSetGameHUDVisible@@YAXH@Z 004c74e6 f   Entities:Entities.dll
 0001:000c64ec       ??0EBoatStop@@QAE@XZ       004c74ec f   Entities:Entities.dll
 0001:000c64f2       ?HUDRetrieveGameMenuCommand@@YA?AW4eGameMenuCommand@@PAVCPlayer@@@Z 004c74f2 f   Entities:Entities.dll
 0001:000c64f8       ?HUDHandleWindowsMessage@@YAHABUtagMSG@@ABVCPlayer@@@Z 004c74f8 f   Entities:Entities.dll
 0001:000c64fe       ?HUDSetBackpackUseKeyName@@YAXJABVCTString@@@Z 004c74fe f   Entities:Entities.dll
 0001:000c6504       ?FreeMemory@@YAXPAX@Z      004c7504 f   Engine:Engine.dll
 0001:000c650a       ??HCTString@@QBE?AV0@ABV0@@Z 004c750a f   Engine:Engine.dll
 0001:000c6510       ??8CTString@@QBEHPBD@Z     004c7510 f   Engine:Engine.dll
 0001:000c6516       ??1CTString@@QAE@XZ        004c7516 f   Engine:Engine.dll
 0001:000c651c       ??1CTFileName@@QAE@XZ      004c751c f   Engine:Engine.dll
 0001:000c6522       ?FileDir@CTFileName@@QBE?AV1@XZ 004c7522 f   Engine:Engine.dll
 0001:000c6528       ?StringDuplicate@@YAPADPBD@Z 004c7528 f   Engine:Engine.dll
 0001:000c652e       ?GameID@CMessageDispatcher@@QAE?AVCTString@@XZ 004c752e f   Engine:Engine.dll
 0001:000c6534       ?FindSubstr@CTString@@QAEJABV1@@Z 004c7534 f   Engine:Engine.dll
 0001:000c653a       ??1CListNode@@QAE@XZ       004c753a f   Engine:Engine.dll
 0001:000c6540       ?IsTailMarker@CListNode@@QBEHXZ 004c7540 f   Engine:Engine.dll
 0001:000c6546       ??4CTString@@QAEAAV0@PBD@Z 004c7546 f   Engine:Engine.dll
 0001:000c654c       ?Load@CInfoFile@@QAEXABVCTFileName@@HVCTString@@@Z 004c754c f   Engine:Engine.dll
 0001:000c6552       ??0CInfoFile@@QAE@XZ       004c7552 f   Engine:Engine.dll
 0001:000c6558       ?MakeDirList@@YAXAAV?$CDynamicStackArray@VCTFileName@@@@ABVCTFileName@@ABVCTString@@K@Z 004c7558 f   Engine:Engine.dll
 0001:000c655e       ?Clear@CListHead@@QAEXXZ   004c755e f   Engine:Engine.dll
 0001:000c6564       ??1CInfoFile@@QAE@XZ       004c7564 f   Engine:Engine.dll
 0001:000c656a       ??0CTFileName@@QAE@ABVCTString@@@Z 004c756a f   Engine:Engine.dll
 0001:000c6570       ?GetStringValue@CInfoFile@@QAE?AVCTString@@ABV2@@Z 004c7570 f   Engine:Engine.dll
 0001:000c6576       ?Remove@CListNode@@QAEXXZ  004c7576 f   Engine:Engine.dll
 0001:000c657c       ?IsLinked@CListNode@@QBEHXZ 004c757c f   Engine:Engine.dll
 0001:000c6582       ?PrintF@CTString@@QAAJPBDZZ 004c7582 f   Engine:Engine.dll
 0001:000c6588       ?FileName@CTFileName@@QBE?AV1@XZ 004c7588 f   Engine:Engine.dll
 0001:000c658e       ?Length@CTString@@QBEJXZ   004c758e f   Engine:Engine.dll
 0001:000c6594       ?MakeEmpty@CInfoFile@@QAEXXZ 004c7594 f   Engine:Engine.dll
 0001:000c659a       ?Save@CInfoFile@@QAEXXZ    004c759a f   Engine:Engine.dll
 0001:000c65a0       ?SaveEncoded@CInfoFile@@QAEXVCTString@@@Z 004c75a0 f   Engine:Engine.dll
 0001:000c65a6       ?AddEntry@CInfoFile@@QAEXABVCTString@@0@Z 004c75a6 f   Engine:Engine.dll
 0001:000c65ac       ??YCTString@@QAEAAV0@ABV0@@Z 004c75ac f   Engine:Engine.dll
 0001:000c65b2       ?MakeDirectory_t@@YAXABVCTFileName@@H@Z 004c75b2 f   Engine:Engine.dll
 0001:000c65b8       ?FileExt@CTFileName@@QBE?AV1@XZ 004c75b8 f   Engine:Engine.dll
 0001:000c65be       ??4CTString@@QAEAAV0@ABV0@@Z 004c75be f   Engine:Engine.dll
 0001:000c65c4       ?FatalError@@YAXPBDZZ      004c75c4 f   Engine:Engine.dll
 0001:000c65ca       ?GrowMemory@@YAXPAPAXJ@Z   004c75ca f   Engine:Engine.dll
 0001:000c65d0       ?AllocMemory@@YAPAXJ@Z     004c75d0 f   Engine:Engine.dll
 0001:000c65d6       ?ShrinkMemory@@YAXPAPAXJ@Z 004c75d6 f   Engine:Engine.dll
 0001:000c65dc       ?AddTail@CListHead@@QAEXAAVCListNode@@@Z 004c75dc f   Engine:Engine.dll
 0001:000c65e2       ?MoveList@CListHead@@QAEXAAV1@@Z 004c75e2 f   Engine:Engine.dll
 0001:000c65e8       ?GetSymbol@CShell@@QAEPAVCShellSymbol@@ABVCTString@@H@Z 004c75e8 f   Engine:Engine.dll
 0001:000c65ee       ?WarningMessage@@YAXPBDZZ  004c75ee f   Engine:Engine.dll
 0001:000c65f4       ?Count@CListHead@@QBEJXZ   004c75f4 f   Engine:Engine.dll
 0001:000c65fa       ??0CTextureObject@@QAE@XZ  004c75fa f   Engine:Engine.dll
 0001:000c6600       ??1CTextureObject@@QAE@XZ  004c7600 f   Engine:Engine.dll
 0001:000c6606       ??0CFontData@@QAE@XZ       004c7606 f   Engine:Engine.dll
 0001:000c660c       ??1CFontData@@UAE@XZ       004c760c f   Engine:Engine.dll
 0001:000c6612       ??1CModelObject@@QAE@XZ    004c7612 f   Engine:Engine.dll
 0001:000c6618       ?Play@CSoundObject@@QAEXPAVCSoundData@@J@Z 004c7618 f   Engine:Engine.dll
 0001:000c661e       ?SetData_t@CTextureObject@@QAEXABVCTFileName@@@Z 004c761e f   Engine:Engine.dll
 0001:000c6624       ?PlayAnim@CAnimObject@@QAEXJK@Z 004c7624 f   Engine:Engine.dll
 0001:000c662a       ?SetData_t@CModelObject@@QAEXABVCTFileName@@@Z 004c762a f   Engine:Engine.dll
 0001:000c6630       ?AddAttachmentModel@CModelObject@@QAEPAVCAttachmentModelObject@@J@Z 004c7630 f   Engine:Engine.dll
 0001:000c6636       ?TranslateConst@@YAPBDPBDJ@Z 004c7636 f   Engine:Engine.dll
 0001:000c663c       ?SetData@CAnimObject@@QAEXPAVCAnimData@@@Z 004c763c f   Engine:Engine.dll
 0001:000c6642       ?NoExt@CTFileName@@QBE?AV1@XZ 004c7642 f   Engine:Engine.dll
 0001:000c6648       ?Execute@CShell@@QAEXABVCTString@@@Z 004c7648 f   Engine:Engine.dll
 0001:000c664e       ?SetINDEX@CShell@@QAEXABVCTString@@J@Z 004c764e f   Engine:Engine.dll
 0001:000c6654       ?IFeel_StopEffect@@YAXPAD@Z 004c7654 f   Engine:Engine.dll
 0001:000c665a       ?CON_DiscardLastLineTimes@@YAXXZ 004c765a f   Engine:Engine.dll
 0001:000c6660       ?GetRealTimeTick@CTimer@@QBEMXZ 004c7660 f   Engine:Engine.dll
 0001:000c6666       ??0CTFileName@@QAE@XZ      004c7666 f   Engine:Engine.dll
 0001:000c666c       ?Translate@@YAPADPADJ@Z    004c766c f   Engine:Engine.dll
 0001:000c6672       ?CPrintF@@YAXPBDZZ         004c7672 f   Engine:Engine.dll
 0001:000c6678       ?FileExists@@YAHABVCTFileName@@@Z 004c7678 f   Engine:Engine.dll
 0001:000c667e       ??H@YA?AVCTString@@PBDABV0@@Z 004c767e f   Engine:Engine.dll
 0001:000c6684       ?GetIntValue@CInfoFile@@QAEJABVCTString@@@Z 004c7684 f   Engine:Engine.dll
 0001:000c668a       ?Stop@CSoundObject@@QAEXXZ 004c768a f   Engine:Engine.dll
 0001:000c6690       ?GetINDEX@CShell@@QAEJABVCTString@@@Z 004c7690 f   Engine:Engine.dll
 0001:000c6696       ??0CSoundObject@@QAE@XZ    004c7696 f   Engine:Engine.dll
 0001:000c669c       ?Obtain_t@CStock_CSoundData@@QAEPAVCSoundData@@ABVCTFileName@@@Z 004c769c f   Engine:Engine.dll
 0001:000c66a2       ?Load_t@CSerial@@QAEXVCTFileName@@@Z 004c76a2 f   Engine:Engine.dll
 0001:000c66a8       ??1CSoundObject@@QAE@XZ    004c76a8 f   Engine:Engine.dll
 0001:000c66ae       ?Release@CStock_CSoundData@@QAEXPAVCSoundData@@@Z 004c76ae f   Engine:Engine.dll
 0001:000c66b4       ?SetLerp@CTimer@@QAEXM@Z   004c76b4 f   Engine:Engine.dll
 0001:000c66ba       ?SetCurrentTick@CTimer@@QAEXM@Z 004c76ba f   Engine:Engine.dll
 0001:000c66c0       ??1CDrawPort@@QAE@XZ       004c76c0 f   Engine:Engine.dll
 0001:000c66c6       ??9CTString@@QBEHPBD@Z     004c76c6 f   Engine:Engine.dll
 0001:000c66cc       ?UpdateSounds@CSoundLibrary@@QAEXXZ 004c76cc f   Engine:Engine.dll
 0001:000c66d2       ?GetLerpedCurrentTick@CTimer@@QBE?BMXZ 004c76d2 f   Engine:Engine.dll
 0001:000c66d8       ?Fill@CDrawPort@@QBEXK@Z   004c76d8 f   Engine:Engine.dll
 0001:000c66de       ?IsFullScreen@CDisplayMode@@QAEHXZ 004c76de f   Engine:Engine.dll
 0001:000c66e4       ??0CDisplayMode@@QAE@XZ    004c76e4 f   Engine:Engine.dll
 0001:000c66ea       ?Lock@CDrawPort@@QAEHXZ    004c76ea f   Engine:Engine.dll
 0001:000c66f0       ??0CDrawPort@@QAE@PAV0@H@Z 004c76f0 f   Engine:Engine.dll
 0001:000c66f6       ?Unlock@CDrawPort@@QAEXXZ  004c76f6 f   Engine:Engine.dll
 0001:000c66fc       ?GetNameForPrinting@CPlayerCharacter@@QBE?BVCTString@@XZ 004c76fc f   Engine:Engine.dll
 0001:000c6702       ?RemovePrefix@CTString@@QAEHABV1@@Z 004c7702 f   Engine:Engine.dll
 0001:000c6708       ?SetData@CModelObject@@QAEXPAVCModelData@@@Z 004c7708 f   Engine:Engine.dll
 0001:000c670e       ?GetFLOAT@CShell@@QAEMABVCTString@@@Z 004c770e f   Engine:Engine.dll
 0001:000c6714       ?SetFLOAT@CShell@@QAEXABVCTString@@M@Z 004c7714 f   Engine:Engine.dll
 0001:000c671a       ??8CTString@@QBEHABV0@@Z   004c771a f   Engine:Engine.dll
 0001:000c6720       ?AddHead@CListHead@@QAEXAAVCListNode@@@Z 004c7720 f   Engine:Engine.dll
 0001:000c6726       ?Sort@CListHead@@QAEXP6AHPBX0@ZH@Z 004c7726 f   Engine:Engine.dll
 0001:000c672c       ?FileExistsForWriting@@YAHABVCTFileName@@@Z 004c772c f   Engine:Engine.dll
 0001:000c6732       ?ScanF@CTString@@QAAJPBDZZ 004c7732 f   Engine:Engine.dll
 0001:000c6738       ?Load_t@CTString@@QAEXABVCTFileName@@@Z 004c7738 f   Engine:Engine.dll
 0001:000c673e       ??9CTString@@QBEHABV0@@Z   004c773e f   Engine:Engine.dll
 0001:000c6744       ?GetAxisTransName@CInput@@QBEABVCTString@@J@Z 004c7744 f   Engine:Engine.dll
 0001:000c674a       ??0CTString@@QAE@XZ        004c774a f   Engine:Engine.dll
 0001:000c6750       ?EnumSessions@CNetworkLibrary@@QAEXH@Z 004c7750 f   Engine:Engine.dll
 0001:000c6756       ?GetValue@CShell@@QAE?AVCTString@@ABV2@@Z 004c7756 f   Engine:Engine.dll
 0001:000c675c       ?SetValue@CShell@@QAEXABVCTString@@0@Z 004c775c f   Engine:Engine.dll
 0001:000c6762       ?IFeel_PlayEffect@@YAXPAD@Z 004c7762 f   Engine:Engine.dll
 0001:000c6768       ?PutTextC@CDrawPort@@QBEXABVCTString@@JJKH@Z 004c7768 f   Engine:Engine.dll
 0001:000c676e       ?TrimLeft@CTString@@QAEJJ@Z 004c776e f   Engine:Engine.dll
 0001:000c6774       ?TrimRight@CTString@@QAEJJ@Z 004c7774 f   Engine:Engine.dll
 0001:000c677a       ?Undecorated@CTString@@QBE?AV1@XZ 004c777a f   Engine:Engine.dll
 0001:000c6780       ?PutText@CDrawPort@@QBEXABVCTString@@JJKH@Z 004c7780 f   Engine:Engine.dll
 0001:000c6786       ?PutTextR@CDrawPort@@QBEXABVCTString@@JJKH@Z 004c7786 f   Engine:Engine.dll
 0001:000c678c       ?Fill@CDrawPort@@QBEXJJJJK@Z 004c778c f   Engine:Engine.dll
 0001:000c6792       ?DrawBorder@CDrawPort@@QBEXJJJJKK@Z 004c7792 f   Engine:Engine.dll
 0001:000c6798       ?GetTextWidth@CDrawPort@@QBEKABVCTString@@@Z 004c7798 f   Engine:Engine.dll
 0001:000c679e       ??0CModelObject@@QAE@XZ    004c779e f   Engine:Engine.dll
 0001:000c67a4       ??1CRenderModel@@QAE@XZ    004c77a4 f   Engine:Engine.dll
 0001:000c67aa       ?EndModelRenderingView@@YAXH@Z 004c77aa f   Engine:Engine.dll
 0001:000c67b0       ?RenderShadow@CModelObject@@QAEXAAVCRenderModel@@ABVCPlacement3D@@MMMABV?$Plane@M$02@@@Z 004c77b0 f   Engine:Engine.dll
 0001:000c67b6       ?LerpColor@@YAKKKM@Z       004c77b6 f   Engine:Engine.dll
 0001:000c67bc       ?RenderModel@CModelObject@@QAEXAAVCRenderModel@@@Z 004c77bc f   Engine:Engine.dll
 0001:000c67c2       ?SetupModelRendering@CModelObject@@QAEXAAVCRenderModel@@@Z 004c77c2 f   Engine:Engine.dll
 0001:000c67c8       ?SetObjectPlacement@CRenderModel@@QAEXABVCPlacement3D@@@Z 004c77c8 f   Engine:Engine.dll
 0001:000c67ce       ?BeginModelRenderingView@@YAXAAVCAnyProjection3D@@PAVCDrawPort@@@Z 004c77ce f   Engine:Engine.dll
 0001:000c67d4       ??4CPerspectiveProjection3D@@QAEAAV0@ABV0@@Z 004c77d4 f   Engine:Engine.dll
 0001:000c67da       ??0CParallelProjection3D@@QAE@XZ 004c77da f   Engine:Engine.dll
 0001:000c67e0       ??0CProjection3D@@QAE@XZ   004c77e0 f   Engine:Engine.dll
 0001:000c67e6       ??0CPerspectiveProjection3D@@QAE@XZ 004c77e6 f   Engine:Engine.dll
 0001:000c67ec       ??0CRenderModel@@QAE@XZ    004c77ec f   Engine:Engine.dll
 0001:000c67f2       ?FillZBuffer@CDrawPort@@QBEXM@Z 004c77f2 f   Engine:Engine.dll
 0001:000c67f8       ??0CDrawPort@@QAE@PAV0@ABV?$AABBox@J$01@@@Z 004c77f8 f   Engine:Engine.dll
 0001:000c67fe       ?GetData@CModelObject@@QAEPAVCModelData@@XZ 004c77fe f   Engine:Engine.dll
 0001:000c6804       ?DeleteChar@CTString@@QAEXJ@Z 004c7804 f   Engine:Engine.dll
 0001:000c680a       ?InsertChar@CTString@@QAEXJD@Z 004c780a f   Engine:Engine.dll
 0001:000c6810       ?LengthNaked@CTString@@QBEJXZ 004c7810 f   Engine:Engine.dll
 0001:000c6816       ?TimeToString@@YA?AVCTString@@M@Z 004c7816 f   Engine:Engine.dll
 0001:000c681c       ??1CAnimObject@@QAE@XZ     004c781c f   Engine:Engine.dll
 0001:000c6822       ?PutTexture@CDrawPort@@QBEXPAVCTextureObject@@ABV?$AABBox@J$01@@K@Z 004c7822 f   Engine:Engine.dll
 0001:000c6828       ?OnlyFirstLine@CTString@@QAEXXZ 004c7828 f   Engine:Engine.dll
 0001:000c682e       ?Save_t@CTString@@QAEXABVCTFileName@@@Z 004c782e f   Engine:Engine.dll
 0001:000c6834       ?RemoveFile@@YAHABVCTFileName@@@Z 004c7834 f   Engine:Engine.dll
 0001:000c683a       ?GetInput@CInput@@QAEXH@Z  004c783a f   Engine:Engine.dll
 0001:000c6840       ?SetJoyPolling@CInput@@QAEXH@Z 004c7840 f   Engine:Engine.dll
 0001:000c6846       ?SetFont@CDrawPort@@QAEXPAVCFontData@@@Z 004c7846 f   Engine:Engine.dll
 0001:000c684c       ??1CModelInstance@@QAE@XZ  004c784c f   Engine:Engine.dll
 0001:000c6852       ?ParseSmcFile_t@@YAPAVCModelInstance@@ABVCTString@@@Z 004c7852 f   Engine:Engine.dll
 0001:000c6858       ?RM_EndRenderingView@@YAXH@Z 004c7858 f   Engine:Engine.dll
 0001:000c685e       ?RM_RenderSKA@@YAXAAVCModelInstance@@@Z 004c785e f   Engine:Engine.dll
 0001:000c6864       ?RM_SetLightColor@@YAXKK@Z 004c7864 f   Engine:Engine.dll
 0001:000c686a       ?StretchModel@CModelInstance@@QAEXAAV?$Vector@M$02@@@Z 004c786a f   Engine:Engine.dll
 0001:000c6870       ?StretchSingleModel@CModelInstance@@QAEXAAV?$Vector@M$02@@@Z 004c7870 f   Engine:Engine.dll
 0001:000c6876       ?RM_SetObjectPlacement@@YAXABV?$Matrix@M$02$02@@ABV?$Vector@M$02@@@Z 004c7876 f   Engine:Engine.dll
 0001:000c687c       ?MakeRotationMatrixFast@@YAXAAV?$Matrix@M$02$02@@ABV?$Vector@M$02@@@Z 004c787c f   Engine:Engine.dll
 0001:000c6882       ?RM_BeginRenderingView@@YAXAAVCAnyProjection3D@@PAVCDrawPort@@@Z 004c7882 f   Engine:Engine.dll
 0001:000c6888       ?AddAnimation@CModelInstance@@QAEXJKMJM@Z 004c7888 f   Engine:Engine.dll
 0001:000c688e       ?ska_GetIDFromStringTable@@YAJVCTString@@@Z 004c788e f   Engine:Engine.dll
 0001:000c6894       ?RemAnimation@CModelInstance@@QAEXJ@Z 004c7894 f   Engine:Engine.dll
 0001:000c689a       ?IsAnimationPlaying@CModelInstance@@QAEHJ@Z 004c789a f   Engine:Engine.dll
 0001:000c68a0       ?NewClonedState@CModelInstance@@QAEXM@Z 004c78a0 f   Engine:Engine.dll
 0001:000c68a6       ?Clear@CModelInstance@@QAEXXZ 004c78a6 f   Engine:Engine.dll
 0001:000c68ac       ?RemoveChild@CModelInstance@@QAEXPAV1@@Z 004c78ac f   Engine:Engine.dll
 0001:000c68b2       ?SetTextureSimple@CModelInstance@@QAEHJ@Z 004c78b2 f   Engine:Engine.dll
 0001:000c68b8       ?AddTexture_t@CModelInstance@@QAEXVCTFileName@@VCTString@@PAUMeshInstance@@@Z 004c78b8 f   Engine:Engine.dll
 0001:000c68be       ??0CTFileName@@QAE@ABV0@@Z 004c78be f   Engine:Engine.dll
 0001:000c68c4       ??0CTString@@QAE@ABV0@@Z   004c78c4 f   Engine:Engine.dll
 0001:000c68ca       ?SetOffsetRot@CModelInstance@@QAEXV?$Vector@M$02@@@Z 004c78ca f   Engine:Engine.dll
 0001:000c68d0       ?SetOffsetPos@CModelInstance@@QAEXV?$Vector@M$02@@@Z 004c78d0 f   Engine:Engine.dll
 0001:000c68d6       ?SetParentBone@CModelInstance@@QAEXJ@Z 004c78d6 f   Engine:Engine.dll
 0001:000c68dc       ?AddChild@CModelInstance@@QAEXPAV1@J@Z 004c78dc f   Engine:Engine.dll
 0001:000c68e2       ?PutTextCXY@CDrawPort@@QBEXABVCTString@@JJKH@Z 004c78e2 f   Engine:Engine.dll
 0001:000c68e8       ?Left@CTString@@QBE?AV1@H@Z 004c78e8 f   Engine:Engine.dll
 0001:000c68ee       ?Right@CTString@@QBE?AV1@H@Z 004c78ee f   Engine:Engine.dll
 0001:000c68f4       ?PutTexture@CDrawPort@@QBEXPAVCTextureObject@@ABV?$AABBox@J$01@@1K@Z 004c78f4 f   Engine:Engine.dll
 0001:000c68fa       ?GetWidth@CTextureObject@@QBEJXZ 004c78fa f   Engine:Engine.dll
 0001:000c6900       ?GetHeight@CTextureObject@@QBEJXZ 004c7900 f   Engine:Engine.dll
 0001:000c6906       ?GetFloatValue@CInfoFile@@QAEMABVCTString@@@Z 004c7906 f   Engine:Engine.dll
 0001:000c690c       ?GetCount@CInfoFile@@QAEJXZ 004c790c f   Engine:Engine.dll
 0001:000c6912       ?SaveEncoded@CInfoFile@@QAEXABVCTFileName@@VCTString@@@Z 004c7912 f   Engine:Engine.dll
 0001:000c6918       ?GetHeight@CDrawPort@@QBEJXZ 004c7918 f   Engine:Engine.dll
 0001:000c691e       ?GetWidth@CDrawPort@@QBEJXZ 004c791e f   Engine:Engine.dll
 0001:000c6924       ?DeclareSymbol@CShell@@QAEXABVCTString@@PAX@Z 004c7924 f   Engine:Engine.dll
 0001:000c692a       ??0CTFileName@@QAE@PBDH@Z  004c792a f   Engine:Engine.dll
 0001:000c6930       ?GetDoubleSlash@CTString@@QAE?AV1@XZ 004c7930 f   Engine:Engine.dll
 0001:000c6936       ?AddEquipment@CPlayerCharacter@@QAEHE@Z 004c7936 f   Engine:Engine.dll
 0001:000c693c       ?SetSunColors@@YAXKK@Z     004c793c f   Engine:Engine.dll
 0001:000c6942       ??0CTString@@QAE@PBD@Z     004c7942 f   Engine:Engine.dll
 0001:000c6948       ?EnumDisplayModes@CGfxLibrary@@QAEPAVCDisplayMode@@AAJW4GfxAPIType@@J@Z 004c7948 f   Engine:Engine.dll
 0001:000c694e       ?SetFormat@CSoundLibrary@@QAE?AW4SoundFormat@1@W421@H@Z 004c794e f   Engine:Engine.dll
 0001:000c6954       ?Split@CTString@@QAEXJAAV1@0@Z 004c7954 f   Engine:Engine.dll
 0001:000c695a       ??0CTString@@QAA@JPBDZZ    004c795a f   Engine:Engine.dll
 0001:000c6960       ?TrimSpacesLeft@CTString@@QAEJXZ 004c7960 f   Engine:Engine.dll
 0001:000c6966       ??1CTFileStream@@UAE@XZ    004c7966 f   Engine:Engine.dll
 0001:000c696c       ?Close@CTFileStream@@QAEXXZ 004c796c f   Engine:Engine.dll
 0001:000c6972       ?SetPos_t@CTStream@@QAEXJ@Z 004c7972 f   Engine:Engine.dll
 0001:000c6978       ?GetLine_t@CTStream@@QAEXAAVCTString@@D@Z 004c7978 f   Engine:Engine.dll
 0001:000c697e       ?AtEOF@CTStream@@QAEHXZ    004c797e f   Engine:Engine.dll
 0001:000c6984       ?Open_t@CTFileStream@@QAEXABVCTFileName@@W4OpenMode@CTStream@@@Z 004c7984 f   Engine:Engine.dll
 0001:000c698a       ??0CTFileStream@@QAE@XZ    004c798a f   Engine:Engine.dll
 0001:000c6990       ?MakeWideScreen@CDrawPort@@QAEXPAV1@@Z 004c7990 f   Engine:Engine.dll
 0001:000c6996       ??0CDrawPort@@QAE@PAVCRaster@@@Z 004c7996 f   Engine:Engine.dll
 0001:000c699c       ?Benchmark_Info@CGfxLibrary@@QAEXPAVCViewPort@@PAVCDrawPort@@AAVBenchmarkInfo@@@Z 004c799c f   Engine:Engine.dll
 0001:000c69a2       ?EnableInput@CInput@@QAEXPAUHWND__@@@Z 004c79a2 f   Engine:Engine.dll
 0001:000c69a8       ?DisableInput@CInput@@QAEXXZ 004c79a8 f   Engine:Engine.dll
 0001:000c69ae       ?SetLocalPause@CNetworkLibrary@@QAEXH@Z 004c79ae f   Engine:Engine.dll
 0001:000c69b4       ?IsEmpty@CListHead@@QBEHXZ 004c79b4 f   Engine:Engine.dll
 0001:000c69ba       ?HasPrefix@CTString@@QBEHABV1@@Z 004c79ba f   Engine:Engine.dll
 0001:000c69c0       ?ExpandFilePath@@YAJKABVCTFileName@@AAV1@@Z 004c79c0 f   Engine:Engine.dll
 0001:000c69c6       ?Force@CTextureData@@QAEXK@Z 004c79c6 f   Engine:Engine.dll
 0001:000c69cc       ?ThrowF_t@@YAXPADZZ        004c79cc f   Engine:Engine.dll
 0001:000c69d2       ?GetWindowsError@@YA?BVCTString@@K@Z 004c79d2 f   Engine:Engine.dll
 0001:000c69d8       ?GetEntityWithName@CNetworkLibrary@@QAEPAVCEntity@@ABVCTString@@J@Z 004c79d8 f   Engine:Engine.dll
 0001:000c69de       ?SetString@CShell@@QAEXABVCTString@@0@Z 004c79de f   Engine:Engine.dll
 0001:000c69e4       ?LoadStringVar@@YAXABVCTFileName@@AAVCTString@@@Z 004c79e4 f   Engine:Engine.dll
 0001:000c69ea       ?InfoMessage@@YAXPBDZZ     004c79ea f   Engine:Engine.dll
 0001:000c69f0       ?SetGameID@CMessageDispatcher@@QAEXVCTString@@@Z 004c79f0 f   Engine:Engine.dll
 0001:000c69f6       ?FinishTranslationTable@@YAXXZ 004c79f6 f   Engine:Engine.dll
 0001:000c69fc       ?AddTranslationTablesDir_t@@YAXABVCTFileName@@0@Z 004c79fc f   Engine:Engine.dll
 0001:000c6a02       ?InitTranslation@@YAXXZ    004c7a02 f   Engine:Engine.dll
 0001:000c6a08       ?SE_LoadDefaultFonts@@YAXXZ 004c7a08 f   Engine:Engine.dll
 0001:000c6a0e       ?SE_InitEngine@@YAXVCTString@@@Z 004c7a0e f   Engine:Engine.dll
 0001:000c6a14       ?Benchmark@CGfxLibrary@@QAEXPAVCViewPort@@PAVCDrawPort@@@Z 004c7a14 f   Engine:Engine.dll
 0001:000c6a1a       ?SE_EndEngine@@YAXXZ       004c7a1a f   Engine:Engine.dll
 0001:000c6a20       ?DestroyWindowCanvas@CGfxLibrary@@QAEXPAVCViewPort@@@Z 004c7a20 f   Engine:Engine.dll
 0001:000c6a26       ?IsWideScreen@CDisplayMode@@QAEHXZ 004c7a26 f   Engine:Engine.dll
 0001:000c6a2c       ?IsDualHead@CDisplayMode@@QAEHXZ 004c7a2c f   Engine:Engine.dll
 0001:000c6a32       ?DepthString@CDisplayMode@@QBE?AVCTString@@XZ 004c7a32 f   Engine:Engine.dll
 0001:000c6a38       ?IsDualHead@CDrawPort@@QAEHXZ 004c7a38 f   Engine:Engine.dll
 0001:000c6a3e       ?SwapBuffers@CViewPort@@QAEXXZ 004c7a3e f   Engine:Engine.dll
 0001:000c6a44       ?GetMouseLookMode@CInput@@QBEHXZ 004c7a44 f   Engine:Engine.dll
 0001:000c6a4a       ?IsGameFinished@CNetworkLibrary@@QAEHXZ 004c7a4a f   Engine:Engine.dll
 0001:000c6a50       ??4CPlayerCharacter@@QAEAAV0@ABV0@@Z 004c7a50 f   Engine:Engine.dll
 0001:000c6a56       ?IsDemoPlayFinished@CNetworkLibrary@@QAEHXZ 004c7a56 f   Engine:Engine.dll
 0001:000c6a5c       ?GameInactive@CNetworkLibrary@@QAEXXZ 004c7a5c f   Engine:Engine.dll
 0001:000c6a62       ?Play_t@CSoundObject@@QAEXABVCTFileName@@J@Z 004c7a62 f   Engine:Engine.dll
 0001:000c6a68       ?SetMouseLookMode@CInput@@QAEXH@Z 004c7a68 f   Engine:Engine.dll
 0001:000c6a6e       ?SendEvent@CEntity@@QAEXABVCEntityEvent@@@Z 004c7a6e f   Engine:Engine.dll
 0001:000c6a74       ?IsPlayingDemo@CNetworkLibrary@@QAEHXZ 004c7a74 f   Engine:Engine.dll
 0001:000c6a7a       ?ClearKeyPressed@CInput@@QAEXJ@Z 004c7a7a f   Engine:Engine.dll
 0001:000c6a80       ?GetMouseState@CSessionState@@QAEHAAUtagPOINT@@AAJAAH@Z 004c7a80 f   Engine:Engine.dll
 0001:000c6a86       ?IsPlayingDemoTutorial@CNetworkLibrary@@QAEHXZ 004c7a86 f   Engine:Engine.dll
 0001:000c6a8c       ?SSHandleWindowsMessage@CSessionState@@QAEHABUtagMSG@@@Z 004c7a8c f   Engine:Engine.dll
 0001:000c6a92       ?IsRecordingDemo@CNetworkLibrary@@QAEHXZ 004c7a92 f   Engine:Engine.dll
 0001:000c6a98       ?ResetDisplayMode@CGfxLibrary@@QAEHW4GfxAPIType@@@Z 004c7a98 f   Engine:Engine.dll
 0001:000c6a9e       ?TogglePause@CNetworkLibrary@@QAEXXZ 004c7a9e f   Engine:Engine.dll
 0001:000c6aa4       ?IsPaused@CNetworkLibrary@@QAEHXZ 004c7aa4 f   Engine:Engine.dll
 0001:000c6aaa       ?DisableStreamHandling@CTStream@@SAXXZ 004c7aaa f   Engine:Engine.dll
 0001:000c6ab0       ?ExceptionFatalError@CTStream@@SAXXZ 004c7ab0 f   Engine:Engine.dll
 0001:000c6ab6       ?ExceptionFilter@CTStream@@SAHKPAU_EXCEPTION_POINTERS@@@Z 004c7ab6 f   Engine:Engine.dll
 0001:000c6abc       ?EnableStreamHandling@CTStream@@SAXXZ 004c7abc f   Engine:Engine.dll
 0001:000c6ac2       ?CreateWindowCanvas@CGfxLibrary@@QAEXPAXPAPAVCViewPort@@PAPAVCDrawPort@@@Z 004c7ac2 f   Engine:Engine.dll
 0001:000c6ac8       ?SetDisplayMode@CGfxLibrary@@QAEHW4GfxAPIType@@JJJW4DisplayDepth@@@Z 004c7ac8 f   Engine:Engine.dll
 0001:000c6ace       ?Matches@CTString@@QBEHABV1@@Z 004c7ace f   Engine:Engine.dll
 0001:000c6ad4       ?GetLine_t@CTStream@@QAEXPADJD@Z 004c7ad4 f   Engine:Engine.dll
 0001:000c6ada       ??5@YAAAVCTStream@@AAV0@AAVCTString@@@Z 004c7ada f   Engine:Engine.dll
 0001:000c6ae0       ?PeekID_t@CTStream@@QAE?AVCChunkID@@XZ 004c7ae0 f   Engine:Engine.dll
 0001:000c6ae6       ?ExpectID_t@CTStream@@QAEXABVCChunkID@@@Z 004c7ae6 f   Engine:Engine.dll
 0001:000c6aec       ??4CTFileName@@QAEXABVCTString@@@Z 004c7aec f   Engine:Engine.dll
 0001:000c6af2       ??6@YAAAVCTStream@@AAV0@ABVCTString@@@Z 004c7af2 f   Engine:Engine.dll
 0001:000c6af8       ?WriteID_t@CTStream@@QAEXABVCChunkID@@@Z 004c7af8 f   Engine:Engine.dll
 0001:000c6afe       ?Read_t@CTStream@@QAEXPAXJ@Z 004c7afe f   Engine:Engine.dll
 0001:000c6b04       ?SE_UpdateWindowHandle@@YAXPAUHWND__@@@Z 004c7b04 f   Engine:Engine.dll
 0001:000c6b0a       ?TrimSpacesRight@CTString@@QAEJXZ 004c7b0a f   Engine:Engine.dll
 0001:000c6b10       ??1CMediaPlayer@@UAE@XZ    004c7b10 f   MediaPlayer:MediaPlayer.dll
 0001:000c6b16       ?PlayMedia@CMediaPlayer@@QAEJPBD_N11@Z 004c7b16 f   MediaPlayer:MediaPlayer.dll
 0001:000c6b1c       ??0CMediaPlayer@@QAE@PAUHINSTANCE__@@@Z 004c7b1c f   MediaPlayer:MediaPlayer.dll
 0001:000c6b22       __unlink                   004c7b22 f   MSVCRT:MSVCRT.dll
 0001:000c6b28       ___CxxFrameHandler         004c7b28 f   MSVCRT:MSVCRT.dll
 0001:000c6b30       ??2@YAPAXI@Z               004c7b30 f   MSVCRT:MSVCRT.dll
 0001:000c6b36       ??3@YAXPAX@Z               004c7b36 f   MSVCRT:MSVCRT.dll
 0001:000c6b3c       __stricmp                  004c7b3c f   MSVCRT:MSVCRT.dll
 0001:000c6b42       __strupr                   004c7b42 f   MSVCRT:MSVCRT.dll
 0001:000c6b48       ??_M@YGXPAXIHP6EX0@Z@Z     004c7b48 f   MSVCRT:ehvecdtr.obj
 0001:000c6bc8       ?__ArrayUnwind@@YGXPAXIHP6EX0@Z@Z 004c7bc8 f   MSVCRT:ehvecdtr.obj
 0001:000c6c3c       _sprintf                   004c7c3c f   MSVCRT:MSVCRT.dll
 0001:000c6c42       __rmdir                    004c7c42 f   MSVCRT:MSVCRT.dll
 0001:000c6c48       __findclose                004c7c48 f   MSVCRT:MSVCRT.dll
 0001:000c6c4e       __findnext                 004c7c4e f   MSVCRT:MSVCRT.dll
 0001:000c6c54       __findfirst                004c7c54 f   MSVCRT:MSVCRT.dll
 0001:000c6c5a       ??_L@YGXPAXIHP6EX0@Z1@Z    004c7c5a f   MSVCRT:ehvecctr.obj
 0001:000c6cdc       __onexit                   004c7cdc f   MSVCRT:atonexit.obj
 0001:000c6d08       _atexit                    004c7d08 f   MSVCRT:atonexit.obj
 0001:000c6d1a       ??0type_info@@AAE@ABV0@@Z  004c7d1a f   MSVCRT:ti_inst.obj
 0001:000c6d25       ??_Gtype_info@@UAEPAXI@Z   004c7d25 f i MSVCRT:ti_inst.obj
 0001:000c6d25       ??_Etype_info@@UAEPAXI@Z   004c7d25 f i MSVCRT:ti_inst.obj
 0001:000c6d41       ??4type_info@@AAEAAV0@ABV0@@Z 004c7d41 f   MSVCRT:ti_inst.obj
 0001:000c6d46       _strncpy                   004c7d46 f   MSVCRT:MSVCRT.dll
 0001:000c6d4c       __ftol                     004c7d4c f   MSVCRT:MSVCRT.dll
 0001:000c6d52       __CIfmod                   004c7d52 f   MSVCRT:MSVCRT.dll
 0001:000c6d58       _isprint                   004c7d58 f   MSVCRT:MSVCRT.dll
 0001:000c6d5e       _floor                     004c7d5e f   MSVCRT:MSVCRT.dll
 0001:000c6d64       _atoi                      004c7d64 f   MSVCRT:MSVCRT.dll
 0001:000c6d6a       _rand                      004c7d6a f   MSVCRT:MSVCRT.dll
 0001:000c6d70       _localtime                 004c7d70 f   MSVCRT:MSVCRT.dll
 0001:000c6d76       _time                      004c7d76 f   MSVCRT:MSVCRT.dll
 0001:000c6d7c       _fclose                    004c7d7c f   MSVCRT:MSVCRT.dll
 0001:000c6d82       _fopen                     004c7d82 f   MSVCRT:MSVCRT.dll
 0001:000c6d88       _atof                      004c7d88 f   MSVCRT:MSVCRT.dll
 0001:000c6d8e       _isspace                   004c7d8e f   MSVCRT:MSVCRT.dll
 0001:000c6d94       _strchr                    004c7d94 f   MSVCRT:MSVCRT.dll
 0001:000c6d9a       _fgets                     004c7d9a f   MSVCRT:MSVCRT.dll
 0001:000c6da0       __execv                    004c7da0 f   MSVCRT:MSVCRT.dll
 0001:000c6da6       __execl                    004c7da6 f   MSVCRT:MSVCRT.dll
 0001:000c6dac       __except_handler3          004c7dac f   MSVCRT:MSVCRT.dll
 0001:000c6db2       _sscanf                    004c7db2 f   MSVCRT:MSVCRT.dll
 0001:000c6dc0       __alloca_probe             004c7dc0 f   MSVCRT:chkstk.obj
 0001:000c6dc0       __chkstk                   004c7dc0 f   MSVCRT:chkstk.obj
 0001:000c6def       _WinMainCRTStartup         004c7def f   MSVCRT:crtexew.obj
 0001:000c6f4e       ?terminate@@YAXXZ          004c7f4e f   MSVCRT:MSVCRT.dll
 0001:000c6f54       ___dllonexit               004c7f54 f   MSVCRT:MSVCRT.dll
 0001:000c6f5a       ??1type_info@@UAE@XZ       004c7f5a f   MSVCRT:MSVCRT.dll
 0001:000c6f60       __exit                     004c7f60 f   MSVCRT:MSVCRT.dll
 0001:000c6f66       __XcptFilter               004c7f66 f   MSVCRT:MSVCRT.dll
 0001:000c6f6c       _exit                      004c7f6c f   MSVCRT:MSVCRT.dll
 0001:000c6f72       ___getmainargs             004c7f72 f   MSVCRT:MSVCRT.dll
 0001:000c6f78       __initterm                 004c7f78 f   MSVCRT:MSVCRT.dll
 0001:000c6f7e       __setdefaultprecision      004c7f7e f   MSVCRT:fp8.obj
 0001:000c6f90       ___setusermatherr          004c7f90 f   MSVCRT:MSVCRT.dll
 0001:000c6f96       __matherr                  004c7f96 f   MSVCRT:merr.obj
 0001:000c6f99       __setargv                  004c7f99 f   MSVCRT:dllargv.obj
 0001:000c6f9a       ___p__commode              004c7f9a f   MSVCRT:MSVCRT.dll
 0001:000c6fa0       ___p__fmode                004c7fa0 f   MSVCRT:MSVCRT.dll
 0001:000c6fa6       ___set_app_type            004c7fa6 f   MSVCRT:MSVCRT.dll
 0001:000c6fac       __controlfp                004c7fac f   MSVCRT:MSVCRT.dll
 0001:000c6fb2       _GetModuleHandleA@4        004c7fb2 f   kernel32:KERNEL32.dll
 0001:000c6fb8       _GetStartupInfoA@4         004c7fb8 f   kernel32:KERNEL32.dll
 0002:00000000       __imp__GetUserNameA@8      004d7000     advapi32:ADVAPI32.dll
 0002:00000004       __imp__RegCreateKeyExA@36  004d7004     advapi32:ADVAPI32.dll
 0002:00000008       __imp__RegSetValueExA@24   004d7008     advapi32:ADVAPI32.dll
 0002:0000000c       __imp__RegCloseKey@4       004d700c     advapi32:ADVAPI32.dll
 0002:00000010       \177ADVAPI32_NULL_THUNK_DATA 004d7010     advapi32:ADVAPI32.dll
 0002:00000014       __imp_?BeginModelRenderingView@@YAXAAVCAnyProjection3D@@PAVCDrawPort@@@Z 004d7014     Engine:Engine.dll
 0002:00000018       __imp_??_7CIsometricProjection3D@@6B@ 004d7018     Engine:Engine.dll
 0002:0000001c       __imp_?Fill@CDrawPort@@QBEXK@Z 004d701c     Engine:Engine.dll
 0002:00000020       __imp_?IsDualHead@CDrawPort@@QAEHXZ 004d7020     Engine:Engine.dll
 0002:00000024       __imp_?IsFullScreen@CDisplayMode@@QAEHXZ 004d7024     Engine:Engine.dll
 0002:00000028       __imp_?IsDualHead@CDisplayMode@@QAEHXZ 004d7028     Engine:Engine.dll
 0002:0000002c       __imp_?IsWideScreen@CDisplayMode@@QAEHXZ 004d702c     Engine:Engine.dll
 0002:00000030       __imp_?DepthString@CDisplayMode@@QBE?AVCTString@@XZ 004d7030     Engine:Engine.dll
 0002:00000034       __imp_?SE_EndEngine@@YAXXZ 004d7034     Engine:Engine.dll
 0002:00000038       __imp_?Benchmark@CGfxLibrary@@QAEXPAVCViewPort@@PAVCDrawPort@@@Z 004d7038     Engine:Engine.dll
 0002:0000003c       __imp_?DestroyWindowCanvas@CGfxLibrary@@QAEXPAVCViewPort@@@Z 004d703c     Engine:Engine.dll
 0002:00000040       __imp_?SE_LoadDefaultFonts@@YAXXZ 004d7040     Engine:Engine.dll
 0002:00000044       __imp_?InitTranslation@@YAXXZ 004d7044     Engine:Engine.dll
 0002:00000048       __imp_?SE_InitEngine@@YAXVCTString@@@Z 004d7048     Engine:Engine.dll
 0002:0000004c       __imp_?TrimSpacesRight@CTString@@QAEJXZ 004d704c     Engine:Engine.dll
 0002:00000050       __imp_?SE_UpdateWindowHandle@@YAXPAUHWND__@@@Z 004d7050     Engine:Engine.dll
 0002:00000054       __imp_?Read_t@CTStream@@QAEXPAXJ@Z 004d7054     Engine:Engine.dll
 0002:00000058       __imp_?WriteID_t@CTStream@@QAEXABVCChunkID@@@Z 004d7058     Engine:Engine.dll
 0002:0000005c       __imp_??6@YAAAVCTStream@@AAV0@ABVCTString@@@Z 004d705c     Engine:Engine.dll
 0002:00000060       __imp_??4CTFileName@@QAEXABVCTString@@@Z 004d7060     Engine:Engine.dll
 0002:00000064       __imp_?ExpectID_t@CTStream@@QAEXABVCChunkID@@@Z 004d7064     Engine:Engine.dll
 0002:00000068       __imp_?PeekID_t@CTStream@@QAE?AVCChunkID@@XZ 004d7068     Engine:Engine.dll
 0002:0000006c       __imp_??5@YAAAVCTStream@@AAV0@AAVCTString@@@Z 004d706c     Engine:Engine.dll
 0002:00000070       __imp_?GetLine_t@CTStream@@QAEXPADJD@Z 004d7070     Engine:Engine.dll
 0002:00000074       __imp_?Matches@CTString@@QBEHABV1@@Z 004d7074     Engine:Engine.dll
 0002:00000078       __imp_?SetDisplayMode@CGfxLibrary@@QAEHW4GfxAPIType@@JJJW4DisplayDepth@@@Z 004d7078     Engine:Engine.dll
 0002:0000007c       __imp_?CreateWindowCanvas@CGfxLibrary@@QAEXPAXPAPAVCViewPort@@PAPAVCDrawPort@@@Z 004d707c     Engine:Engine.dll
 0002:00000080       __imp_?EnableStreamHandling@CTStream@@SAXXZ 004d7080     Engine:Engine.dll
 0002:00000084       __imp_?ExceptionFilter@CTStream@@SAHKPAU_EXCEPTION_POINTERS@@@Z 004d7084     Engine:Engine.dll
 0002:00000088       __imp_?ExceptionFatalError@CTStream@@SAXXZ 004d7088     Engine:Engine.dll
 0002:0000008c       __imp_?DisableStreamHandling@CTStream@@SAXXZ 004d708c     Engine:Engine.dll
 0002:00000090       __imp_?IsPaused@CNetworkLibrary@@QAEHXZ 004d7090     Engine:Engine.dll
 0002:00000094       __imp_?TogglePause@CNetworkLibrary@@QAEXXZ 004d7094     Engine:Engine.dll
 0002:00000098       __imp_?ResetDisplayMode@CGfxLibrary@@QAEHW4GfxAPIType@@@Z 004d7098     Engine:Engine.dll
 0002:0000009c       __imp_?IsRecordingDemo@CNetworkLibrary@@QAEHXZ 004d709c     Engine:Engine.dll
 0002:000000a0       __imp_?SSHandleWindowsMessage@CSessionState@@QAEHABUtagMSG@@@Z 004d70a0     Engine:Engine.dll
 0002:000000a4       __imp_?IsPlayingDemoTutorial@CNetworkLibrary@@QAEHXZ 004d70a4     Engine:Engine.dll
 0002:000000a8       __imp_?GetMouseState@CSessionState@@QAEHAAUtagPOINT@@AAJAAH@Z 004d70a8     Engine:Engine.dll
 0002:000000ac       __imp_?ClearKeyPressed@CInput@@QAEXJ@Z 004d70ac     Engine:Engine.dll
 0002:000000b0       __imp_?IsPlayingDemo@CNetworkLibrary@@QAEHXZ 004d70b0     Engine:Engine.dll
 0002:000000b4       __imp_?SendEvent@CEntity@@QAEXABVCEntityEvent@@@Z 004d70b4     Engine:Engine.dll
 0002:000000b8       __imp_??_7CEntityEvent@@6B@ 004d70b8     Engine:Engine.dll
 0002:000000bc       __imp_?SetMouseLookMode@CInput@@QAEXH@Z 004d70bc     Engine:Engine.dll
 0002:000000c0       __imp_?Play_t@CSoundObject@@QAEXABVCTFileName@@J@Z 004d70c0     Engine:Engine.dll
 0002:000000c4       __imp_?GameInactive@CNetworkLibrary@@QAEXXZ 004d70c4     Engine:Engine.dll
 0002:000000c8       __imp_?IsDemoPlayFinished@CNetworkLibrary@@QAEHXZ 004d70c8     Engine:Engine.dll
 0002:000000cc       __imp_??4CPlayerCharacter@@QAEAAV0@ABV0@@Z 004d70cc     Engine:Engine.dll
 0002:000000d0       __imp_?IsGameFinished@CNetworkLibrary@@QAEHXZ 004d70d0     Engine:Engine.dll
 0002:000000d4       __imp_?GetAxisTransName@CInput@@QBEABVCTString@@J@Z 004d70d4     Engine:Engine.dll
 0002:000000d8       __imp_?Sort@CListHead@@QAEXP6AHPBX0@ZH@Z 004d70d8     Engine:Engine.dll
 0002:000000dc       __imp_?FileExistsForWriting@@YAHABVCTFileName@@@Z 004d70dc     Engine:Engine.dll
 0002:000000e0       __imp_?GetWindowsError@@YA?BVCTString@@K@Z 004d70e0     Engine:Engine.dll
 0002:000000e4       __imp_?ThrowF_t@@YAXPADZZ  004d70e4     Engine:Engine.dll
 0002:000000e8       __imp_?Force@CTextureData@@QAEXK@Z 004d70e8     Engine:Engine.dll
 0002:000000ec       __imp_?_strEngineBuild@@3VCTString@@A 004d70ec     Engine:Engine.dll
 0002:000000f0       __imp_?ExpandFilePath@@YAJKABVCTFileName@@AAV1@@Z 004d70f0     Engine:Engine.dll
 0002:000000f4       __imp_?AddTranslationTablesDir_t@@YAXABVCTFileName@@0@Z 004d70f4     Engine:Engine.dll
 0002:000000f8       __imp_?FinishTranslationTable@@YAXXZ 004d70f8     Engine:Engine.dll
 0002:000000fc       __imp_?SetGameID@CMessageDispatcher@@QAEXVCTString@@@Z 004d70fc     Engine:Engine.dll
 0002:00000100       __imp_?InfoMessage@@YAXPBDZZ 004d7100     Engine:Engine.dll
 0002:00000104       __imp_?snd_iFormat@@3JA    004d7104     Engine:Engine.dll
 0002:00000108       __imp_?GetMouseLookMode@CInput@@QBEHXZ 004d7108     Engine:Engine.dll
 0002:0000010c       __imp_?SwapBuffers@CViewPort@@QAEXXZ 004d710c     Engine:Engine.dll
 0002:00000110       __imp_??9CTString@@QBEHABV0@@Z 004d7110     Engine:Engine.dll
 0002:00000114       __imp_?SetLocalPause@CNetworkLibrary@@QAEXH@Z 004d7114     Engine:Engine.dll
 0002:00000118       __imp_?DisableInput@CInput@@QAEXXZ 004d7118     Engine:Engine.dll
 0002:0000011c       __imp_?EnableInput@CInput@@QAEXPAUHWND__@@@Z 004d711c     Engine:Engine.dll
 0002:00000120       __imp_?Benchmark_Info@CGfxLibrary@@QAEXPAVCViewPort@@PAVCDrawPort@@AAVBenchmarkInfo@@@Z 004d7120     Engine:Engine.dll
 0002:00000124       __imp_??0CDrawPort@@QAE@PAVCRaster@@@Z 004d7124     Engine:Engine.dll
 0002:00000128       __imp_?MakeWideScreen@CDrawPort@@QAEXPAV1@@Z 004d7128     Engine:Engine.dll
 0002:0000012c       __imp_?FreeMemory@@YAXPAX@Z 004d712c     Engine:Engine.dll
 0002:00000130       __imp_??HCTString@@QBE?AV0@ABV0@@Z 004d7130     Engine:Engine.dll
 0002:00000134       __imp_?_fnmApplicationPath@@3VCTFileName@@A 004d7134     Engine:Engine.dll
 0002:00000138       __imp_??8CTString@@QBEHPBD@Z 004d7138     Engine:Engine.dll
 0002:0000013c       __imp_??1CTString@@QAE@XZ  004d713c     Engine:Engine.dll
 0002:00000140       __imp_??1CTFileName@@QAE@XZ 004d7140     Engine:Engine.dll
 0002:00000144       __imp_?FileDir@CTFileName@@QBE?AV1@XZ 004d7144     Engine:Engine.dll
 0002:00000148       __imp_?StringDuplicate@@YAPADPBD@Z 004d7148     Engine:Engine.dll
 0002:0000014c       __imp_?GameID@CMessageDispatcher@@QAE?AVCTString@@XZ 004d714c     Engine:Engine.dll
 0002:00000150       __imp_?_pNetwork@@3PAVCNetworkLibrary@@A 004d7150     Engine:Engine.dll
 0002:00000154       __imp_?FindSubstr@CTString@@QAEJABV1@@Z 004d7154     Engine:Engine.dll
 0002:00000158       __imp_??1CListNode@@QAE@XZ 004d7158     Engine:Engine.dll
 0002:0000015c       __imp_?IsTailMarker@CListNode@@QBEHXZ 004d715c     Engine:Engine.dll
 0002:00000160       __imp_??4CTString@@QAEAAV0@PBD@Z 004d7160     Engine:Engine.dll
 0002:00000164       __imp_?Load@CInfoFile@@QAEXABVCTFileName@@HVCTString@@@Z 004d7164     Engine:Engine.dll
 0002:00000168       __imp_??0CInfoFile@@QAE@XZ 004d7168     Engine:Engine.dll
 0002:0000016c       __imp_?MakeDirList@@YAXAAV?$CDynamicStackArray@VCTFileName@@@@ABVCTFileName@@ABVCTString@@K@Z 004d716c     Engine:Engine.dll
 0002:00000170       __imp_?Clear@CListHead@@QAEXXZ 004d7170     Engine:Engine.dll
 0002:00000174       __imp_??1CInfoFile@@QAE@XZ 004d7174     Engine:Engine.dll
 0002:00000178       __imp_??0CTFileName@@QAE@ABVCTString@@@Z 004d7178     Engine:Engine.dll
 0002:0000017c       __imp_?GetStringValue@CInfoFile@@QAE?AVCTString@@ABV2@@Z 004d717c     Engine:Engine.dll
 0002:00000180       __imp_?Remove@CListNode@@QAEXXZ 004d7180     Engine:Engine.dll
 0002:00000184       __imp_?IsLinked@CListNode@@QBEHXZ 004d7184     Engine:Engine.dll
 0002:00000188       __imp_?PrintF@CTString@@QAAJPBDZZ 004d7188     Engine:Engine.dll
 0002:0000018c       __imp_?FileName@CTFileName@@QBE?AV1@XZ 004d718c     Engine:Engine.dll
 0002:00000190       __imp_?Length@CTString@@QBEJXZ 004d7190     Engine:Engine.dll
 0002:00000194       __imp_?MakeEmpty@CInfoFile@@QAEXXZ 004d7194     Engine:Engine.dll
 0002:00000198       __imp_?Save@CInfoFile@@QAEXXZ 004d7198     Engine:Engine.dll
 0002:0000019c       __imp_?SaveEncoded@CInfoFile@@QAEXVCTString@@@Z 004d719c     Engine:Engine.dll
 0002:000001a0       __imp_?AddEntry@CInfoFile@@QAEXABVCTString@@0@Z 004d71a0     Engine:Engine.dll
 0002:000001a4       __imp_??YCTString@@QAEAAV0@ABV0@@Z 004d71a4     Engine:Engine.dll
 0002:000001a8       __imp_?MakeDirectory_t@@YAXABVCTFileName@@H@Z 004d71a8     Engine:Engine.dll
 0002:000001ac       __imp_?FileExt@CTFileName@@QBE?AV1@XZ 004d71ac     Engine:Engine.dll
 0002:000001b0       __imp_??4CTString@@QAEAAV0@ABV0@@Z 004d71b0     Engine:Engine.dll
 0002:000001b4       __imp_?FatalError@@YAXPBDZZ 004d71b4     Engine:Engine.dll
 0002:000001b8       __imp_?GrowMemory@@YAXPAPAXJ@Z 004d71b8     Engine:Engine.dll
 0002:000001bc       __imp_?AllocMemory@@YAPAXJ@Z 004d71bc     Engine:Engine.dll
 0002:000001c0       __imp_?ShrinkMemory@@YAXPAPAXJ@Z 004d71c0     Engine:Engine.dll
 0002:000001c4       __imp_?AddTail@CListHead@@QAEXAAVCListNode@@@Z 004d71c4     Engine:Engine.dll
 0002:000001c8       __imp_?MoveList@CListHead@@QAEXAAV1@@Z 004d71c8     Engine:Engine.dll
 0002:000001cc       __imp_?GetSymbol@CShell@@QAEPAVCShellSymbol@@ABVCTString@@H@Z 004d71cc     Engine:Engine.dll
 0002:000001d0       __imp_?_pShell@@3PAVCShell@@A 004d71d0     Engine:Engine.dll
 0002:000001d4       __imp_?WarningMessage@@YAXPBDZZ 004d71d4     Engine:Engine.dll
 0002:000001d8       __imp_?Count@CListHead@@QBEJXZ 004d71d8     Engine:Engine.dll
 0002:000001dc       __imp_??0CTextureObject@@QAE@XZ 004d71dc     Engine:Engine.dll
 0002:000001e0       __imp_??1CTextureObject@@QAE@XZ 004d71e0     Engine:Engine.dll
 0002:000001e4       __imp_??0CFontData@@QAE@XZ 004d71e4     Engine:Engine.dll
 0002:000001e8       __imp_??1CFontData@@UAE@XZ 004d71e8     Engine:Engine.dll
 0002:000001ec       __imp_??1CModelObject@@QAE@XZ 004d71ec     Engine:Engine.dll
 0002:000001f0       __imp_?Play@CSoundObject@@QAEXPAVCSoundData@@J@Z 004d71f0     Engine:Engine.dll
 0002:000001f4       __imp_?SetData_t@CTextureObject@@QAEXABVCTFileName@@@Z 004d71f4     Engine:Engine.dll
 0002:000001f8       __imp_?PlayAnim@CAnimObject@@QAEXJK@Z 004d71f8     Engine:Engine.dll
 0002:000001fc       __imp_?SetData_t@CModelObject@@QAEXABVCTFileName@@@Z 004d71fc     Engine:Engine.dll
 0002:00000200       __imp_?AddAttachmentModel@CModelObject@@QAEPAVCAttachmentModelObject@@J@Z 004d7200     Engine:Engine.dll
 0002:00000204       __imp_?TranslateConst@@YAPBDPBDJ@Z 004d7204     Engine:Engine.dll
 0002:00000208       __imp_?SetData@CAnimObject@@QAEXPAVCAnimData@@@Z 004d7208     Engine:Engine.dll
 0002:0000020c       __imp_?NoExt@CTFileName@@QBE?AV1@XZ 004d720c     Engine:Engine.dll
 0002:00000210       __imp_?Execute@CShell@@QAEXABVCTString@@@Z 004d7210     Engine:Engine.dll
 0002:00000214       __imp_?SetINDEX@CShell@@QAEXABVCTString@@J@Z 004d7214     Engine:Engine.dll
 0002:00000218       __imp_?IFeel_StopEffect@@YAXPAD@Z 004d7218     Engine:Engine.dll
 0002:0000021c       __imp_?CON_DiscardLastLineTimes@@YAXXZ 004d721c     Engine:Engine.dll
 0002:00000220       __imp_?GetRealTimeTick@CTimer@@QBEMXZ 004d7220     Engine:Engine.dll
 0002:00000224       __imp_?_pTimer@@3PAVCTimer@@A 004d7224     Engine:Engine.dll
 0002:00000228       __imp_??0CTFileName@@QAE@XZ 004d7228     Engine:Engine.dll
 0002:0000022c       __imp_?Translate@@YAPADPADJ@Z 004d722c     Engine:Engine.dll
 0002:00000230       __imp_?CPrintF@@YAXPBDZZ   004d7230     Engine:Engine.dll
 0002:00000234       __imp_?FileExists@@YAHABVCTFileName@@@Z 004d7234     Engine:Engine.dll
 0002:00000238       __imp_??H@YA?AVCTString@@PBDABV0@@Z 004d7238     Engine:Engine.dll
 0002:0000023c       __imp_?GetIntValue@CInfoFile@@QAEJABVCTString@@@Z 004d723c     Engine:Engine.dll
 0002:00000240       __imp_?Stop@CSoundObject@@QAEXXZ 004d7240     Engine:Engine.dll
 0002:00000244       __imp_?GetINDEX@CShell@@QAEJABVCTString@@@Z 004d7244     Engine:Engine.dll
 0002:00000248       __imp_??0CSoundObject@@QAE@XZ 004d7248     Engine:Engine.dll
 0002:0000024c       __imp_?Obtain_t@CStock_CSoundData@@QAEPAVCSoundData@@ABVCTFileName@@@Z 004d724c     Engine:Engine.dll
 0002:00000250       __imp_?_pSoundStock@@3PAVCStock_CSoundData@@A 004d7250     Engine:Engine.dll
 0002:00000254       __imp_?Load_t@CSerial@@QAEXVCTFileName@@@Z 004d7254     Engine:Engine.dll
 0002:00000258       __imp_??1CSoundObject@@QAE@XZ 004d7258     Engine:Engine.dll
 0002:0000025c       __imp_?Release@CStock_CSoundData@@QAEXPAVCSoundData@@@Z 004d725c     Engine:Engine.dll
 0002:00000260       __imp_?_pInput@@3PAVCInput@@A 004d7260     Engine:Engine.dll
 0002:00000264       __imp_?SetLerp@CTimer@@QAEXM@Z 004d7264     Engine:Engine.dll
 0002:00000268       __imp_?SetCurrentTick@CTimer@@QAEXM@Z 004d7268     Engine:Engine.dll
 0002:0000026c       __imp_?TickQuantum@CTimer@@2MB 004d726c     Engine:Engine.dll
 0002:00000270       __imp_??1CDrawPort@@QAE@XZ 004d7270     Engine:Engine.dll
 0002:00000274       __imp_??9CTString@@QBEHPBD@Z 004d7274     Engine:Engine.dll
 0002:00000278       __imp_?UpdateSounds@CSoundLibrary@@QAEXXZ 004d7278     Engine:Engine.dll
 0002:0000027c       __imp_?_pSound@@3PAVCSoundLibrary@@A 004d727c     Engine:Engine.dll
 0002:00000280       __imp_?GetLerpedCurrentTick@CTimer@@QBE?BMXZ 004d7280     Engine:Engine.dll
 0002:00000284       __imp_?LoadStringVar@@YAXABVCTFileName@@AAVCTString@@@Z 004d7284     Engine:Engine.dll
 0002:00000288       __imp_?SetString@CShell@@QAEXABVCTString@@0@Z 004d7288     Engine:Engine.dll
 0002:0000028c       __imp_?_pGfx@@3PAVCGfxLibrary@@A 004d728c     Engine:Engine.dll
 0002:00000290       __imp_??0CDisplayMode@@QAE@XZ 004d7290     Engine:Engine.dll
 0002:00000294       __imp_?Lock@CDrawPort@@QAEHXZ 004d7294     Engine:Engine.dll
 0002:00000298       __imp_??0CDrawPort@@QAE@PAV0@H@Z 004d7298     Engine:Engine.dll
 0002:0000029c       __imp_?Unlock@CDrawPort@@QAEXXZ 004d729c     Engine:Engine.dll
 0002:000002a0       __imp_?GetNameForPrinting@CPlayerCharacter@@QBE?BVCTString@@XZ 004d72a0     Engine:Engine.dll
 0002:000002a4       __imp_?RemovePrefix@CTString@@QAEHABV1@@Z 004d72a4     Engine:Engine.dll
 0002:000002a8       __imp_?SetData@CModelObject@@QAEXPAVCModelData@@@Z 004d72a8     Engine:Engine.dll
 0002:000002ac       __imp_?GetFLOAT@CShell@@QAEMABVCTString@@@Z 004d72ac     Engine:Engine.dll
 0002:000002b0       __imp_?SetFLOAT@CShell@@QAEXABVCTString@@M@Z 004d72b0     Engine:Engine.dll
 0002:000002b4       __imp_??8CTString@@QBEHABV0@@Z 004d72b4     Engine:Engine.dll
 0002:000002b8       __imp_?AddHead@CListHead@@QAEXAAVCListNode@@@Z 004d72b8     Engine:Engine.dll
 0002:000002bc       __imp_?IsEmpty@CListHead@@QBEHXZ 004d72bc     Engine:Engine.dll
 0002:000002c0       __imp_?HasPrefix@CTString@@QBEHABV1@@Z 004d72c0     Engine:Engine.dll
 0002:000002c4       __imp_?ScanF@CTString@@QAAJPBDZZ 004d72c4     Engine:Engine.dll
 0002:000002c8       __imp_?Load_t@CTString@@QAEXABVCTFileName@@@Z 004d72c8     Engine:Engine.dll
 0002:000002cc       __imp_?StretchSingleModel@CModelInstance@@QAEXAAV?$Vector@M$02@@@Z 004d72cc     Engine:Engine.dll
 0002:000002d0       __imp_?StretchModel@CModelInstance@@QAEXAAV?$Vector@M$02@@@Z 004d72d0     Engine:Engine.dll
 0002:000002d4       __imp_??0CTString@@QAE@XZ  004d72d4     Engine:Engine.dll
 0002:000002d8       __imp_?EnumSessions@CNetworkLibrary@@QAEXH@Z 004d72d8     Engine:Engine.dll
 0002:000002dc       __imp_?GetValue@CShell@@QAE?AVCTString@@ABV2@@Z 004d72dc     Engine:Engine.dll
 0002:000002e0       __imp_?SetValue@CShell@@QAEXABVCTString@@0@Z 004d72e0     Engine:Engine.dll
 0002:000002e4       __imp_?IFeel_PlayEffect@@YAXPAD@Z 004d72e4     Engine:Engine.dll
 0002:000002e8       __imp_?PutTextC@CDrawPort@@QBEXABVCTString@@JJKH@Z 004d72e8     Engine:Engine.dll
 0002:000002ec       __imp_?TrimLeft@CTString@@QAEJJ@Z 004d72ec     Engine:Engine.dll
 0002:000002f0       __imp_?TrimRight@CTString@@QAEJJ@Z 004d72f0     Engine:Engine.dll
 0002:000002f4       __imp_?Undecorated@CTString@@QBE?AV1@XZ 004d72f4     Engine:Engine.dll
 0002:000002f8       __imp_?PutText@CDrawPort@@QBEXABVCTString@@JJKH@Z 004d72f8     Engine:Engine.dll
 0002:000002fc       __imp_?PutTextR@CDrawPort@@QBEXABVCTString@@JJKH@Z 004d72fc     Engine:Engine.dll
 0002:00000300       __imp_?Fill@CDrawPort@@QBEXJJJJK@Z 004d7300     Engine:Engine.dll
 0002:00000304       __imp_?DrawBorder@CDrawPort@@QBEXJJJJKK@Z 004d7304     Engine:Engine.dll
 0002:00000308       __imp_?GetTextWidth@CDrawPort@@QBEKABVCTString@@@Z 004d7308     Engine:Engine.dll
 0002:0000030c       __imp_??0CModelObject@@QAE@XZ 004d730c     Engine:Engine.dll
 0002:00000310       __imp_??1CRenderModel@@QAE@XZ 004d7310     Engine:Engine.dll
 0002:00000314       __imp_?EndModelRenderingView@@YAXH@Z 004d7314     Engine:Engine.dll
 0002:00000318       __imp_?RenderShadow@CModelObject@@QAEXAAVCRenderModel@@ABVCPlacement3D@@MMMABV?$Plane@M$02@@@Z 004d7318     Engine:Engine.dll
 0002:0000031c       __imp_?LerpColor@@YAKKKM@Z 004d731c     Engine:Engine.dll
 0002:00000320       __imp_?RenderModel@CModelObject@@QAEXAAVCRenderModel@@@Z 004d7320     Engine:Engine.dll
 0002:00000324       __imp_?SetupModelRendering@CModelObject@@QAEXAAVCRenderModel@@@Z 004d7324     Engine:Engine.dll
 0002:00000328       __imp_?SetObjectPlacement@CRenderModel@@QAEXABVCPlacement3D@@@Z 004d7328     Engine:Engine.dll
 0002:0000032c       __imp_?GetEntityWithName@CNetworkLibrary@@QAEPAVCEntity@@ABVCTString@@J@Z 004d732c     Engine:Engine.dll
 0002:00000330       __imp_??4CPerspectiveProjection3D@@QAEAAV0@ABV0@@Z 004d7330     Engine:Engine.dll
 0002:00000334       __imp_??0CParallelProjection3D@@QAE@XZ 004d7334     Engine:Engine.dll
 0002:00000338       __imp_?_strModExt@@3VCTString@@A 004d7338     Engine:Engine.dll
 0002:0000033c       __imp_??_7CSimpleProjection3D@@6B@ 004d733c     Engine:Engine.dll
 0002:00000340       __imp_??0CProjection3D@@QAE@XZ 004d7340     Engine:Engine.dll
 0002:00000344       __imp_??0CPerspectiveProjection3D@@QAE@XZ 004d7344     Engine:Engine.dll
 0002:00000348       __imp_??0CRenderModel@@QAE@XZ 004d7348     Engine:Engine.dll
 0002:0000034c       __imp_?FillZBuffer@CDrawPort@@QBEXM@Z 004d734c     Engine:Engine.dll
 0002:00000350       __imp_??0CDrawPort@@QAE@PAV0@ABV?$AABBox@J$01@@@Z 004d7350     Engine:Engine.dll
 0002:00000354       __imp_?GetData@CModelObject@@QAEPAVCModelData@@XZ 004d7354     Engine:Engine.dll
 0002:00000358       __imp_?DeleteChar@CTString@@QAEXJ@Z 004d7358     Engine:Engine.dll
 0002:0000035c       __imp_?InsertChar@CTString@@QAEXJD@Z 004d735c     Engine:Engine.dll
 0002:00000360       __imp_?LengthNaked@CTString@@QBEJXZ 004d7360     Engine:Engine.dll
 0002:00000364       __imp_?TimeToString@@YA?AVCTString@@M@Z 004d7364     Engine:Engine.dll
 0002:00000368       __imp_??1CAnimObject@@QAE@XZ 004d7368     Engine:Engine.dll
 0002:0000036c       __imp_?PutTexture@CDrawPort@@QBEXPAVCTextureObject@@ABV?$AABBox@J$01@@K@Z 004d736c     Engine:Engine.dll
 0002:00000370       __imp_?OnlyFirstLine@CTString@@QAEXXZ 004d7370     Engine:Engine.dll
 0002:00000374       __imp_?Save_t@CTString@@QAEXABVCTFileName@@@Z 004d7374     Engine:Engine.dll
 0002:00000378       __imp_?RemoveFile@@YAHABVCTFileName@@@Z 004d7378     Engine:Engine.dll
 0002:0000037c       __imp_?GetInput@CInput@@QAEXH@Z 004d737c     Engine:Engine.dll
 0002:00000380       __imp_?SetJoyPolling@CInput@@QAEXH@Z 004d7380     Engine:Engine.dll
 0002:00000384       __imp_?SetFont@CDrawPort@@QAEXPAVCFontData@@@Z 004d7384     Engine:Engine.dll
 0002:00000388       __imp_??1CModelInstance@@QAE@XZ 004d7388     Engine:Engine.dll
 0002:0000038c       __imp_?ParseSmcFile_t@@YAPAVCModelInstance@@ABVCTString@@@Z 004d738c     Engine:Engine.dll
 0002:00000390       __imp_?RM_EndRenderingView@@YAXH@Z 004d7390     Engine:Engine.dll
 0002:00000394       __imp_?RM_RenderSKA@@YAXAAVCModelInstance@@@Z 004d7394     Engine:Engine.dll
 0002:00000398       __imp_?RM_SetLightColor@@YAXKK@Z 004d7398     Engine:Engine.dll
 0002:0000039c       __imp_??0CTFileStream@@QAE@XZ 004d739c     Engine:Engine.dll
 0002:000003a0       __imp_?_pfdDisplayFont@@3PAVCFontData@@A 004d73a0     Engine:Engine.dll
 0002:000003a4       __imp_?RM_SetObjectPlacement@@YAXABV?$Matrix@M$02$02@@ABV?$Vector@M$02@@@Z 004d73a4     Engine:Engine.dll
 0002:000003a8       __imp_?MakeRotationMatrixFast@@YAXAAV?$Matrix@M$02$02@@ABV?$Vector@M$02@@@Z 004d73a8     Engine:Engine.dll
 0002:000003ac       __imp_?RM_BeginRenderingView@@YAXAAVCAnyProjection3D@@PAVCDrawPort@@@Z 004d73ac     Engine:Engine.dll
 0002:000003b0       __imp_??_7CParallelProjection3D@@6B@ 004d73b0     Engine:Engine.dll
 0002:000003b4       __imp_?AddAnimation@CModelInstance@@QAEXJKMJM@Z 004d73b4     Engine:Engine.dll
 0002:000003b8       __imp_?ska_GetIDFromStringTable@@YAJVCTString@@@Z 004d73b8     Engine:Engine.dll
 0002:000003bc       __imp_?RemAnimation@CModelInstance@@QAEXJ@Z 004d73bc     Engine:Engine.dll
 0002:000003c0       __imp_?IsAnimationPlaying@CModelInstance@@QAEHJ@Z 004d73c0     Engine:Engine.dll
 0002:000003c4       __imp_?NewClonedState@CModelInstance@@QAEXM@Z 004d73c4     Engine:Engine.dll
 0002:000003c8       __imp_?Clear@CModelInstance@@QAEXXZ 004d73c8     Engine:Engine.dll
 0002:000003cc       __imp_?RemoveChild@CModelInstance@@QAEXPAV1@@Z 004d73cc     Engine:Engine.dll
 0002:000003d0       __imp_?SetTextureSimple@CModelInstance@@QAEHJ@Z 004d73d0     Engine:Engine.dll
 0002:000003d4       __imp_?AddTexture_t@CModelInstance@@QAEXVCTFileName@@VCTString@@PAUMeshInstance@@@Z 004d73d4     Engine:Engine.dll
 0002:000003d8       __imp_??0CTFileName@@QAE@ABV0@@Z 004d73d8     Engine:Engine.dll
 0002:000003dc       __imp_??0CTString@@QAE@ABV0@@Z 004d73dc     Engine:Engine.dll
 0002:000003e0       __imp_?SetOffsetRot@CModelInstance@@QAEXV?$Vector@M$02@@@Z 004d73e0     Engine:Engine.dll
 0002:000003e4       __imp_?SetOffsetPos@CModelInstance@@QAEXV?$Vector@M$02@@@Z 004d73e4     Engine:Engine.dll
 0002:000003e8       __imp_?SetParentBone@CModelInstance@@QAEXJ@Z 004d73e8     Engine:Engine.dll
 0002:000003ec       __imp_?AddChild@CModelInstance@@QAEXPAV1@J@Z 004d73ec     Engine:Engine.dll
 0002:000003f0       __imp_?PutTextCXY@CDrawPort@@QBEXABVCTString@@JJKH@Z 004d73f0     Engine:Engine.dll
 0002:000003f4       __imp_?Left@CTString@@QBE?AV1@H@Z 004d73f4     Engine:Engine.dll
 0002:000003f8       __imp_?Right@CTString@@QBE?AV1@H@Z 004d73f8     Engine:Engine.dll
 0002:000003fc       __imp_?PutTexture@CDrawPort@@QBEXPAVCTextureObject@@ABV?$AABBox@J$01@@1K@Z 004d73fc     Engine:Engine.dll
 0002:00000400       __imp_?GetWidth@CTextureObject@@QBEJXZ 004d7400     Engine:Engine.dll
 0002:00000404       __imp_?GetHeight@CTextureObject@@QBEJXZ 004d7404     Engine:Engine.dll
 0002:00000408       __imp_?GetFloatValue@CInfoFile@@QAEMABVCTString@@@Z 004d7408     Engine:Engine.dll
 0002:0000040c       __imp_?GetCount@CInfoFile@@QAEJXZ 004d740c     Engine:Engine.dll
 0002:00000410       __imp_?SaveEncoded@CInfoFile@@QAEXABVCTFileName@@VCTString@@@Z 004d7410     Engine:Engine.dll
 0002:00000414       __imp_?GetHeight@CDrawPort@@QBEJXZ 004d7414     Engine:Engine.dll
 0002:00000418       __imp_?GetWidth@CDrawPort@@QBEJXZ 004d7418     Engine:Engine.dll
 0002:0000041c       __imp_?DeclareSymbol@CShell@@QAEXABVCTString@@PAX@Z 004d741c     Engine:Engine.dll
 0002:00000420       __imp_??0CTFileName@@QAE@PBDH@Z 004d7420     Engine:Engine.dll
 0002:00000424       __imp_?GetDoubleSlash@CTString@@QAE?AV1@XZ 004d7424     Engine:Engine.dll
 0002:00000428       __imp_?AddEquipment@CPlayerCharacter@@QAEHE@Z 004d7428     Engine:Engine.dll
 0002:0000042c       __imp_?SetSunColors@@YAXKK@Z 004d742c     Engine:Engine.dll
 0002:00000430       __imp_??0CTString@@QAE@PBD@Z 004d7430     Engine:Engine.dll
 0002:00000434       __imp_?EnumDisplayModes@CGfxLibrary@@QAEPAVCDisplayMode@@AAJW4GfxAPIType@@J@Z 004d7434     Engine:Engine.dll
 0002:00000438       __imp_?SetFormat@CSoundLibrary@@QAE?AW4SoundFormat@1@W421@H@Z 004d7438     Engine:Engine.dll
 0002:0000043c       __imp_?Split@CTString@@QAEXJAAV1@0@Z 004d743c     Engine:Engine.dll
 0002:00000440       __imp_??0CTString@@QAA@JPBDZZ 004d7440     Engine:Engine.dll
 0002:00000444       __imp_?TrimSpacesLeft@CTString@@QAEJXZ 004d7444     Engine:Engine.dll
 0002:00000448       __imp_?_strLogFile@@3VCTString@@A 004d7448     Engine:Engine.dll
 0002:0000044c       __imp_?_fnmCDPath@@3VCTFileName@@A 004d744c     Engine:Engine.dll
 0002:00000450       __imp_?_fnmMod@@3VCTFileName@@A 004d7450     Engine:Engine.dll
 0002:00000454       __imp_??1CTFileStream@@UAE@XZ 004d7454     Engine:Engine.dll
 0002:00000458       __imp_?Close@CTFileStream@@QAEXXZ 004d7458     Engine:Engine.dll
 0002:0000045c       __imp_?SetPos_t@CTStream@@QAEXJ@Z 004d745c     Engine:Engine.dll
 0002:00000460       __imp_?GetLine_t@CTStream@@QAEXAAVCTString@@D@Z 004d7460     Engine:Engine.dll
 0002:00000464       __imp_?AtEOF@CTStream@@QAEHXZ 004d7464     Engine:Engine.dll
 0002:00000468       __imp_?Open_t@CTFileStream@@QAEXABVCTFileName@@W4OpenMode@CTStream@@@Z 004d7468     Engine:Engine.dll
 0002:0000046c       \177Engine_NULL_THUNK_DATA 004d746c     Engine:Engine.dll
 0002:00000470       __imp_?HUDSetBackpackUseKeyName@@YAXJABVCTString@@@Z 004d7470     Entities:Entities.dll
 0002:00000474       __imp_?HUDHandleWindowsMessage@@YAHABUtagMSG@@ABVCPlayer@@@Z 004d7474     Entities:Entities.dll
 0002:00000478       __imp_?HUDRetrieveGameMenuCommand@@YA?AW4eGameMenuCommand@@PAVCPlayer@@@Z 004d7478     Entities:Entities.dll
 0002:0000047c       __imp_??0EBoatStop@@QAE@XZ 004d747c     Entities:Entities.dll
 0002:00000480       __imp_?HUDSetGameHUDVisible@@YAXH@Z 004d7480     Entities:Entities.dll
 0002:00000484       __imp_?GenerateNewDog@@YAXVCTString@@00@Z 004d7484     Entities:Entities.dll
 0002:00000488       \177Entities_NULL_THUNK_DATA 004d7488     Entities:Entities.dll
 0002:0000048c       __imp__SelectObject@8      004d748c     gdi32:GDI32.dll
 0002:00000490       __imp__DeleteDC@4          004d7490     gdi32:GDI32.dll
 0002:00000494       __imp__DeleteObject@4      004d7494     gdi32:GDI32.dll
 0002:00000498       __imp__GetObjectA@12       004d7498     gdi32:GDI32.dll
 0002:0000049c       __imp__GetStockObject@4    004d749c     gdi32:GDI32.dll
 0002:000004a0       __imp__CreateCompatibleDC@4 004d74a0     gdi32:GDI32.dll
 0002:000004a4       __imp__BitBlt@36           004d74a4     gdi32:GDI32.dll
 0002:000004a8       \177GDI32_NULL_THUNK_DATA  004d74a8     gdi32:GDI32.dll
 0002:000004ac       __imp__CreateDirectoryA@8  004d74ac     kernel32:KERNEL32.dll
 0002:000004b0       __imp__MoveFileA@8         004d74b0     kernel32:KERNEL32.dll
 0002:000004b4       __imp__lstrcpynA@12        004d74b4     kernel32:KERNEL32.dll
 0002:000004b8       __imp__lstrcpyA@8          004d74b8     kernel32:KERNEL32.dll
 0002:000004bc       __imp__GetFileAttributesA@4 004d74bc     kernel32:KERNEL32.dll
 0002:000004c0       __imp__DeleteFileA@4       004d74c0     kernel32:KERNEL32.dll
 0002:000004c4       __imp__lstrcmpA@8          004d74c4     kernel32:KERNEL32.dll
 0002:000004c8       __imp__lstrlenA@4          004d74c8     kernel32:KERNEL32.dll
 0002:000004cc       __imp__LoadLibraryA@4      004d74cc     kernel32:KERNEL32.dll
 0002:000004d0       __imp__CloseHandle@4       004d74d0     kernel32:KERNEL32.dll
 0002:000004d4       __imp__CreateFileA@28      004d74d4     kernel32:KERNEL32.dll
 0002:000004d8       __imp__GetDriveTypeA@4     004d74d8     kernel32:KERNEL32.dll
 0002:000004dc       __imp__GetLastError@0      004d74dc     kernel32:KERNEL32.dll
 0002:000004e0       __imp__GetProcAddress@8    004d74e0     kernel32:KERNEL32.dll
 0002:000004e4       __imp__GetWindowsDirectoryA@8 004d74e4     kernel32:KERNEL32.dll
 0002:000004e8       __imp__GetModuleFileNameA@12 004d74e8     kernel32:KERNEL32.dll
 0002:000004ec       __imp__Sleep@4             004d74ec     kernel32:KERNEL32.dll
 0002:000004f0       __imp__lstrcatA@8          004d74f0     kernel32:KERNEL32.dll
 0002:000004f4       __imp__GetStartupInfoA@4   004d74f4     kernel32:KERNEL32.dll
 0002:000004f8       __imp__GetModuleHandleA@4  004d74f8     kernel32:KERNEL32.dll
 0002:000004fc       \177KERNEL32_NULL_THUNK_DATA 004d74fc     kernel32:KERNEL32.dll
 0002:00000500       __imp___stricmp            004d7500     MSVCRT:MSVCRT.dll
 0002:00000504       __imp___strupr             004d7504     MSVCRT:MSVCRT.dll
 0002:00000508       __imp__sprintf             004d7508     MSVCRT:MSVCRT.dll
 0002:0000050c       __imp__fopen               004d750c     MSVCRT:MSVCRT.dll
 0002:00000510       __imp____set_app_type      004d7510     MSVCRT:MSVCRT.dll
 0002:00000514       __imp____p__fmode          004d7514     MSVCRT:MSVCRT.dll
 0002:00000518       __imp____p__commode        004d7518     MSVCRT:MSVCRT.dll
 0002:0000051c       __imp___adjust_fdiv        004d751c     MSVCRT:MSVCRT.dll
 0002:00000520       __imp____setusermatherr    004d7520     MSVCRT:MSVCRT.dll
 0002:00000524       __imp___initterm           004d7524     MSVCRT:MSVCRT.dll
 0002:00000528       __imp____getmainargs       004d7528     MSVCRT:MSVCRT.dll
 0002:0000052c       __imp___acmdln             004d752c     MSVCRT:MSVCRT.dll
 0002:00000530       __imp__exit                004d7530     MSVCRT:MSVCRT.dll
 0002:00000534       __imp___XcptFilter         004d7534     MSVCRT:MSVCRT.dll
 0002:00000538       __imp___exit               004d7538     MSVCRT:MSVCRT.dll
 0002:0000053c       __imp_??1type_info@@UAE@XZ 004d753c     MSVCRT:MSVCRT.dll
 0002:00000540       __imp___onexit             004d7540     MSVCRT:MSVCRT.dll
 0002:00000544       __imp____dllonexit         004d7544     MSVCRT:MSVCRT.dll
 0002:00000548       __imp_?terminate@@YAXXZ    004d7548     MSVCRT:MSVCRT.dll
 0002:0000054c       __imp__sscanf              004d754c     MSVCRT:MSVCRT.dll
 0002:00000550       __imp___except_handler3    004d7550     MSVCRT:MSVCRT.dll
 0002:00000554       __imp___execl              004d7554     MSVCRT:MSVCRT.dll
 0002:00000558       __imp___execv              004d7558     MSVCRT:MSVCRT.dll
 0002:0000055c       __imp__fgets               004d755c     MSVCRT:MSVCRT.dll
 0002:00000560       __imp__strchr              004d7560     MSVCRT:MSVCRT.dll
 0002:00000564       __imp__isspace             004d7564     MSVCRT:MSVCRT.dll
 0002:00000568       __imp__atof                004d7568     MSVCRT:MSVCRT.dll
 0002:0000056c       __imp___CIfmod             004d756c     MSVCRT:MSVCRT.dll
 0002:00000570       __imp__fclose              004d7570     MSVCRT:MSVCRT.dll
 0002:00000574       __imp__time                004d7574     MSVCRT:MSVCRT.dll
 0002:00000578       __imp__localtime           004d7578     MSVCRT:MSVCRT.dll
 0002:0000057c       __imp__rand                004d757c     MSVCRT:MSVCRT.dll
 0002:00000580       __imp__atoi                004d7580     MSVCRT:MSVCRT.dll
 0002:00000584       __imp__floor               004d7584     MSVCRT:MSVCRT.dll
 0002:00000588       __imp__isprint             004d7588     MSVCRT:MSVCRT.dll
 0002:0000058c       __imp___controlfp          004d758c     MSVCRT:MSVCRT.dll
 0002:00000590       __imp__strncpy             004d7590     MSVCRT:MSVCRT.dll
 0002:00000594       __imp___findfirst          004d7594     MSVCRT:MSVCRT.dll
 0002:00000598       __imp___unlink             004d7598     MSVCRT:MSVCRT.dll
 0002:0000059c       __imp____CxxFrameHandler   004d759c     MSVCRT:MSVCRT.dll
 0002:000005a0       __imp_??2@YAPAXI@Z         004d75a0     MSVCRT:MSVCRT.dll
 0002:000005a4       __imp_??3@YAXPAX@Z         004d75a4     MSVCRT:MSVCRT.dll
 0002:000005a8       __imp___findclose          004d75a8     MSVCRT:MSVCRT.dll
 0002:000005ac       __imp___ftol               004d75ac     MSVCRT:MSVCRT.dll
 0002:000005b0       __imp___rmdir              004d75b0     MSVCRT:MSVCRT.dll
 0002:000005b4       __imp___findnext           004d75b4     MSVCRT:MSVCRT.dll
 0002:000005b8       \177MSVCRT_NULL_THUNK_DATA 004d75b8     MSVCRT:MSVCRT.dll
 0002:000005bc       __imp_??0CMediaPlayer@@QAE@PAUHINSTANCE__@@@Z 004d75bc     MediaPlayer:MediaPlayer.dll
 0002:000005c0       __imp_??1CMediaPlayer@@UAE@XZ 004d75c0     MediaPlayer:MediaPlayer.dll
 0002:000005c4       __imp_?PlayMedia@CMediaPlayer@@QAEJPBD_N11@Z 004d75c4     MediaPlayer:MediaPlayer.dll
 0002:000005c8       \177MediaPlayer_NULL_THUNK_DATA 004d75c8     MediaPlayer:MediaPlayer.dll
 0002:000005cc       __imp__ShellExecuteA@24    004d75cc     shell32:SHELL32.dll
 0002:000005d0       \177SHELL32_NULL_THUNK_DATA 004d75d0     shell32:SHELL32.dll
 0002:000005d4       __imp__DispatchMessageA@4  004d75d4     user32:USER32.dll
 0002:000005d8       __imp__GetCursorPos@4      004d75d8     user32:USER32.dll
 0002:000005dc       __imp__GetKeyState@4       004d75dc     user32:USER32.dll
 0002:000005e0       __imp__SetCapture@4        004d75e0     user32:USER32.dll
 0002:000005e4       __imp__ReleaseCapture@0    004d75e4     user32:USER32.dll
 0002:000005e8       __imp__ShowCursor@4        004d75e8     user32:USER32.dll
 0002:000005ec       __imp__IsIconic@4          004d75ec     user32:USER32.dll
 0002:000005f0       __imp__GetSystemMetrics@4  004d75f0     user32:USER32.dll
 0002:000005f4       __imp__ClipCursor@4        004d75f4     user32:USER32.dll
 0002:000005f8       __imp__GetClientRect@8     004d75f8     user32:USER32.dll
 0002:000005fc       __imp__PeekMessageA@20     004d75fc     user32:USER32.dll
 0002:00000600       __imp__SetCursorPos@8      004d7600     user32:USER32.dll
 0002:00000604       __imp__ClientToScreen@8    004d7604     user32:USER32.dll
 0002:00000608       __imp__MapVirtualKeyA@8    004d7608     user32:USER32.dll
 0002:0000060c       __imp__PostMessageA@16     004d760c     user32:USER32.dll
 0002:00000610       __imp__ScreenToClient@8    004d7610     user32:USER32.dll
 0002:00000614       __imp__TranslateMessage@4  004d7614     user32:USER32.dll
 0002:00000618       __imp__ShowWindow@8        004d7618     user32:USER32.dll
 0002:0000061c       __imp__EndPaint@8          004d761c     user32:USER32.dll
 0002:00000620       __imp__FillRect@12         004d7620     user32:USER32.dll
 0002:00000624       __imp__BeginPaint@8        004d7624     user32:USER32.dll
 0002:00000628       __imp__DefWindowProcA@16   004d7628     user32:USER32.dll
 0002:0000062c       __imp__LoadBitmapA@8       004d762c     user32:USER32.dll
 0002:00000630       __imp__RegisterClassExA@4  004d7630     user32:USER32.dll
 0002:00000634       __imp__LoadIconA@8         004d7634     user32:USER32.dll
 0002:00000638       __imp__DestroyWindow@4     004d7638     user32:USER32.dll
 0002:0000063c       __imp__SetWindowPos@28     004d763c     user32:USER32.dll
 0002:00000640       __imp__GetWindowRect@8     004d7640     user32:USER32.dll
 0002:00000644       __imp__SetWindowTextA@8    004d7644     user32:USER32.dll
 0002:00000648       __imp__CreateWindowExA@48  004d7648     user32:USER32.dll
 0002:0000064c       __imp__UpdateWindow@4      004d764c     user32:USER32.dll
 0002:00000650       __imp__LoadCursorA@8       004d7650     user32:USER32.dll
 0002:00000654       __imp__InvalidateRect@12   004d7654     user32:USER32.dll
 0002:00000658       __imp__RegisterClassA@4    004d7658     user32:USER32.dll
 0002:0000065c       \177USER32_NULL_THUNK_DATA 004d765c     user32:USER32.dll
 0002:0000067c       ??_7CFileData@@6B@         004d767c     FileData.obj
 0002:00000680       ??_7CConfirmMenu@@6B@      004d7680     Menu.obj
 0002:000006a0       ??_7CSinglePlayerMenu@@6B@ 004d76a0     Menu.obj
 0002:000006c0       ??_7CMGTitle@@6B@          004d76c0     Menu.obj
 0002:00000700       ??_7CSinglePlayerNewMenu@@6B@ 004d7700     Menu.obj
 0002:00000720       ??_7CDisabledMenu@@6B@     004d7720     Menu.obj
 0002:00000740       ??_7CLevelsMenu@@6B@       004d7740     Menu.obj
 0002:00000760       ??_7CMGLevelButton@@6B@    004d7760     Menu.obj
 0002:000007a0       ??_7CMGArrow@@6B@          004d77a0     Menu.obj
 0002:000007e0       ??_7CVarMenu@@6B@          004d77e0     Menu.obj
 0002:00000800       ??_7CMGVarButton@@6B@      004d7800     Menu.obj
 0002:00000840       ??_7CPlayerProfileMenu@@6B@ 004d7840     Menu.obj
 0002:00000860       ??_7CControlsMenu@@6B@     004d7860     Menu.obj
 0002:00000880       ??_7CLoadSaveMenu@@6B@     004d7880     Menu.obj
 0002:000008a0       ??_7CHighScoreMenu@@6B@    004d78a0     Menu.obj
 0002:000008c0       ??_7CMGHighScore@@6B@      004d78c0     Menu.obj
 0002:00000900       ??_7CCustomizeKeyboardMenu@@6B@ 004d7900     Menu.obj
 0002:00000920       ??_7CServersMenu@@6B@      004d7920     Menu.obj
 0002:00000940       ??_7CCustomizeAxisMenu@@6B@ 004d7940     Menu.obj
 0002:00000960       ??_7COptionsMenu@@6B@      004d7960     Menu.obj
 0002:00000980       ??_7CNetworkMenu@@6B@      004d7980     Menu.obj
 0002:000009a0       ??_7CNetworkJoinMenu@@6B@  004d79a0     Menu.obj
 0002:000009c0       ??_7CNetworkStartMenu@@6B@ 004d79c0     Menu.obj
 0002:000009e0       ??_7CNetworkOpenMenu@@6B@  004d79e0     Menu.obj
 0002:00000a00       ??_7CSelectPlayersMenu@@6B@ 004d7a00     Menu.obj
 0002:00000a20       ??_7CMGChangePlayer@@6B@   004d7a20     Menu.obj
 0002:00000a60       __real@4@3ffe8000000000000000 004d7a60     Menu.obj
 0002:00000a64       __real@4@3fffaaaaaaaaaaaaa800 004d7a64     Menu.obj
 0002:00000a68       __real@4@3fff8000000000000000 004d7a68     Menu.obj
 0002:00000a6c       __real@4@00000000000000000000 004d7a6c     Menu.obj
 0002:00000a70       ??_7CGameMenu@@6B@         004d7a70     Menu.obj
 0002:00000a90       __real@4@4005c800000000000000 004d7a90     Menu.obj
 0002:00000a94       ??_7CMenuGadget@@6B@       004d7a94     MenuGadgets.obj
 0002:00000ad4       ??_7CMGButton@@6B@         004d7ad4     MenuGadgets.obj
 0002:00000b14       __real@4@3ffec000000000000000 004d7b14     MenuGadgets.obj
 0002:00000b18       __real@4@3ffde666660000000000 004d7b18     MenuGadgets.obj
 0002:00000b1c       __real@4@3ffe8ccccd0000000000 004d7b1c     MenuGadgets.obj
 0002:00000b20       __real@4@4006ff00000000000000 004d7b20     MenuGadgets.obj
 0002:00000b24       __real@4@40018000000000000000 004d7b24     MenuGadgets.obj
 0002:00000b28       __real@4@3ffd8000000000000000 004d7b28     MenuGadgets.obj
 0002:00000b2c       __real@4@40009fffffd800000800 004d7b2c     MenuGadgets.obj
 0002:00000b30       __real@4@3ffdcccccd0000000000 004d7b30     MenuGadgets.obj
 0002:00000b38       __real@8@3fffb333334000000000 004d7b38     MenuGadgets.obj
 0002:00000b40       __real@4@3ffbcccccd0000000000 004d7b40     MenuGadgets.obj
 0002:00000b44       ??_7CMGModel@@6B@          004d7b44     MenuGadgets.obj
 0002:00000b84       __real@4@4001a000000000000000 004d7b84     MenuGadgets.obj
 0002:00000b88       __real@4@bffccccccd0000000000 004d7b88     MenuGadgets.obj
 0002:00000b8c       __real@4@4003f000000000000000 004d7b8c     MenuGadgets.obj
 0002:00000b90       __real@4@4004b400000000000000 004d7b90     MenuGadgets.obj
 0002:00000b94       ??_7CMGEdit@@6B@           004d7b94     MenuGadgets.obj
 0002:00000bdc       __real@4@3ffaa3d70a0000000000 004d7bdc     MenuGadgets.obj
 0002:00000be0       __real@4@3ffaf5c28f0000000000 004d7be0     MenuGadgets.obj
 0002:00000be4       ??_7CMGTrigger@@6B@        004d7be4     MenuGadgets.obj
 0002:00000c24       ??_7CMGSlider@@6B@         004d7c24     MenuGadgets.obj
 0002:00000c64       __real@4@3fff829cbbea3fc2a000 004d7c64     MenuGadgets.obj
 0002:00000c68       __real@4@3ff8a3d70a0000000000 004d7c68     MenuGadgets.obj
 0002:00000c6c       __real@4@3ffef333330000000000 004d7c6c     MenuGadgets.obj
 0002:00000c70       __real@4@3ffc851eb80000000000 004d7c70     MenuGadgets.obj
 0002:00000c74       __real@4@3ffc99999a0000000000 004d7c74     MenuGadgets.obj
 0002:00000c78       ??_7CMGFileButton@@6B@     004d7c78     MenuGadgets.obj
 0002:00000cc0       ??_7CMGServerList@@6B@     004d7cc0     MenuGadgets.obj
 0002:00000d00       ??_7CMGKeyDefinition@@6B@  004d7d00     MenuGadgets.obj
 0002:00000d40       ??_7CMGSlideGroup@@6B@     004d7d40     MenuGadgets.obj
 0002:00000d80       __real@4@3ff58000000000000000 004d7d80     MenuGadgets.obj
 0002:00000d84       ??_7CMGFadeGroup@@6B@      004d7d84     MenuGadgets.obj
 0002:00000dc4       ??_7CMGImage@@6B@          004d7dc4     MenuGadgets.obj
 0002:00000e28       __real@4@4001b000000000000000 004d7e28     MenuPrinting.obj
 0002:00000e2c       __real@4@40019000000000000000 004d7e2c     MenuPrinting.obj
 0002:00000e30       __real@4@3ffecccccd0000000000 004d7e30     MenuPrinting.obj
 0002:00000e34       __real@4@4002f000000000000000 004d7e34     MenuPrinting.obj
 0002:00000e38       __real@4@40038000000000000000 004d7e38     MenuPrinting.obj
 0002:00000e40       ??_7CGameButton@@6B@       004d7e40     SharedGameGadgets.obj
 0002:00000e88       ??_7CModelInstanceGadget@@6B@ 004d7e88     SharedGameGadgets.obj
 0002:00000f10       ??_7CModelInstanceContainer@@6B@ 004d7f10     SharedGameGadgets.obj
 0002:00000f38       __real@4@4002a000000000000000 004d7f38     SharedGameGadgets.obj
 0002:00000f40       __real@8@4007b400000000000000 004d7f40     SharedGameGadgets.obj
 0002:00000f48       ??_7CListBoxGadget@@6B@    004d7f48     SharedGameGadgets.obj
 0002:00000fb0       ??_7CRadioButtonGroupGadget@@6B@ 004d7fb0     SharedGameGadgets.obj
 0002:00000ff8       ??_7CTextBoxGadget@@6B@    004d7ff8     SharedGameGadgets.obj
 0002:00001040       ??_7CSliderCtrlGadget@@6B@ 004d8040     SharedGameGadgets.obj
 0002:00001090       __real@4@3ffaaaaaaaaaaaaaa800 004d8090     SharedGameGadgets.obj
 0002:00001094       __real@4@3ffac800000000000000 004d8094     SharedGameGadgets.obj
 0002:00001098       __real@4@3ff98000000000000000 004d8098     SharedGameGadgets.obj
 0002:0000109c       __real@4@3ff8a000000000000000 004d809c     SharedGameGadgets.obj
 0002:000010a0       __real@4@3ff9a000000000000000 004d80a0     SharedGameGadgets.obj
 0002:000010a4       ??_7CCheckboxGadget@@6B@   004d80a4     SharedGameGadgets.obj
 0002:000010e8       ??_7CTiledTextureContainer@@6B@ 004d80e8     SharedGameGadgets.obj
 0002:000010ec       ??_7CPickEquipmentBackpack@WW2003@@6B@ 004d80ec     BackpackGadget.obj
 0002:00001168       __real@4@3ff6aaaaaaaaaaaaa800 004d8168     BackpackGadget.obj
 0002:0000116c       __real@4@3ff68000000000000000 004d816c     BackpackGadget.obj
 0002:00001170       __real@4@3ff7d555555555555000 004d8170     BackpackGadget.obj
 0002:00001174       __real@4@4003a000000000000000 004d8174     BackpackGadget.obj
 0002:00001178       __real@4@3ffea240000000000000 004d8178     BackpackGadget.obj
 0002:0000117c       __real@4@3ffeaa40000000000000 004d817c     BackpackGadget.obj
 0002:00001180       __real@4@3ffe9640000000000000 004d8180     BackpackGadget.obj
 0002:00001184       __real@4@3ffe9e40000000000000 004d8184     BackpackGadget.obj
 0002:00001188       __real@4@3ffe8a40000000000000 004d8188     BackpackGadget.obj
 0002:0000118c       __real@4@3ffe9240000000000000 004d818c     BackpackGadget.obj
 0002:00001190       __real@4@3ffdfc80000000000000 004d8190     BackpackGadget.obj
 0002:00001194       __real@4@3ffe8640000000000000 004d8194     BackpackGadget.obj
 0002:00001198       __real@4@3ffdd880000000000000 004d8198     BackpackGadget.obj
 0002:0000119c       __real@4@3ffde880000000000000 004d819c     BackpackGadget.obj
 0002:000011a0       __real@4@3ffdc080000000000000 004d81a0     BackpackGadget.obj
 0002:000011a4       __real@4@3ffdd080000000000000 004d81a4     BackpackGadget.obj
 0002:000011a8       __real@4@3ffda880000000000000 004d81a8     BackpackGadget.obj
 0002:000011ac       __real@4@3ffdb880000000000000 004d81ac     BackpackGadget.obj
 0002:000011b0       __real@4@3ffc8000000000000000 004d81b0     BackpackGadget.obj
 0002:000011b4       __real@4@3ffcaaaaaaaaaaaaa800 004d81b4     BackpackGadget.obj
 0002:000011b8       __real@4@3ffca800000000000000 004d81b8     BackpackGadget.obj
 0002:000011bc       __real@4@3ffbaaaaaaaaaaaaa800 004d81bc     BackpackGadget.obj
 0002:000011c0       __real@4@3ffd9400000000000000 004d81c0     BackpackGadget.obj
 0002:000011c4       __real@4@3ff391a2b3c4d5e6f800 004d81c4     GameFileProxies.obj
 0002:000011c8       ??_7CEditControlGadget@WW2003@@6B@ 004d81c8     GameGadgets.obj
 0002:00001218       ??_7CTargetButton@WW2003@@6B@ 004d8218     GameGadgets.obj
 0002:00001264       __real@4@3ff8d555555555555000 004d8264     GameGadgets.obj
 0002:00001268       ??_7CRolloverIconButton@WW2003@@6B@ 004d8268     GameGadgets.obj
 0002:000012b0       __real@4@3ff5aaaaaaaaaaaaa800 004d82b0     GameGadgets.obj
 0002:000012b4       __real@4@3ff3aaaaaaaaaaaaa800 004d82b4     GameGadgets.obj
 0002:000012b8       __real@4@3ff38000000000000000 004d82b8     GameGadgets.obj
 0002:000012bc       ??_7CTabCtrlGadget@WW2003@@6B@ 004d82bc     GameGadgets.obj
 0002:00001310       __real@4@3ffdc600000000000000 004d8310     GameGadgets.obj
 0002:00001314       __real@4@3ffdb600000000000000 004d8314     GameGadgets.obj
 0002:00001318       __real@4@3ffcd600000000000000 004d8318     GameGadgets.obj
 0002:0000131c       __real@4@3ffcb600000000000000 004d831c     GameGadgets.obj
 0002:00001320       __real@4@3ffde400000000000000 004d8320     GameGadgets.obj
 0002:00001324       __real@4@3ffdd400000000000000 004d8324     GameGadgets.obj
 0002:00001328       __real@4@3ffcf400000000000000 004d8328     GameGadgets.obj
 0002:0000132c       __real@4@3ffcd400000000000000 004d832c     GameGadgets.obj
 0002:00001330       __real@4@3ffe9400000000000000 004d8330     GameGadgets.obj
 0002:00001334       __real@4@3ffe8c00000000000000 004d8334     GameGadgets.obj
 0002:00001338       __real@4@3ffdda00000000000000 004d8338     GameGadgets.obj
 0002:0000133c       __real@4@3ffdca00000000000000 004d833c     GameGadgets.obj
 0002:00001340       __real@4@3ffd8880000000000000 004d8340     GameGadgets.obj
 0002:00001344       __real@4@3ffc9100000000000000 004d8344     GameGadgets.obj
 0002:00001348       __real@4@3ffbe200000000000000 004d8348     GameGadgets.obj
 0002:0000134c       __real@4@3ffcaa00000000000000 004d834c     GameGadgets.obj
 0002:00001350       __real@4@3ffd9000000000000000 004d8350     GameGadgets.obj
 0002:00001354       __real@4@3ffa8000000000000000 004d8354     GameGadgets.obj
 0002:00001358       ??_7CScrollButton@WW2003@@6B@ 004d8358     GameGadgets.obj
 0002:000013a0       ??_7CLRArrowButton@WW2003@@6B@ 004d83a0     GameGadgets.obj
 0002:000013e8       __real@4@3ff88000000000000000 004d83e8     GameGadgets.obj
 0002:000013ec       ??_7CClickableTextureGadget@WW2003@@6B@ 004d83ec     GameGadgets.obj
 0002:0000142c       ??_7CPrevNextSmallButton@WW2003@@6B@ 004d842c     GameGadgets.obj
 0002:00001474       ??_7CPrevNextDogButton@WW2003@@6B@ 004d8474     GameGadgets.obj
 0002:000014bc       ??_7CDogStatsGadget@WW2003@@6B@ 004d84bc     GameGadgets.obj
 0002:000014fc       __real@4@3ffcb000000000000000 004d84fc     GameGadgets.obj
 0002:00001500       __real@4@3ffcb6aaaaaaaaaab000 004d8500     GameGadgets.obj
 0002:00001504       __real@4@40068800000000000000 004d8504     GameGadgets.obj
 0002:00001508       __real@4@3ffc8800000000000000 004d8508     GameGadgets.obj
 0002:0000150c       __real@4@3ffe8e80000000000000 004d850c     GameGadgets.obj
 0002:00001510       __real@4@3ffe8f00000000000000 004d8510     GameGadgets.obj
 0002:00001514       __real@4@3ffba000000000000000 004d8514     GameGadgets.obj
 0002:00001518       __real@4@3ffbed55555555555800 004d8518     GameGadgets.obj
 0002:0000151c       __real@4@3ffdc500000000000000 004d851c     GameGadgets.obj
 0002:00001520       __real@4@3ffe8480000000000000 004d8520     GameGadgets.obj
 0002:00001524       __real@4@3ffdc400000000000000 004d8524     GameGadgets.obj
 0002:00001528       __real@4@3ffe8500000000000000 004d8528     GameGadgets.obj
 0002:0000152c       __real@4@3ffc9000000000000000 004d852c     GameGadgets.obj
 0002:00001530       __real@4@3ffd8c00000000000000 004d8530     GameGadgets.obj
 0002:00001534       __real@4@3ffcb6aaaaaaaaaaa800 004d8534     GameGadgets.obj
 0002:00001538       __real@4@3ffd8d00000000000000 004d8538     GameGadgets.obj
 0002:0000153c       __real@4@3ffcb955555555555800 004d853c     GameGadgets.obj
 0002:00001540       __real@4@3ffb9ffffffffffff800 004d8540     GameGadgets.obj
 0002:00001544       __real@4@3ffbed55555555555000 004d8544     GameGadgets.obj
 0002:00001548       __real@4@3ffbd000000000000000 004d8548     GameGadgets.obj
 0002:0000154c       __real@4@3ffcf000000000000000 004d854c     GameGadgets.obj
 0002:00001550       __real@4@3ffadaaaaaaaaaaaa800 004d8550     GameGadgets.obj
 0002:00001554       __real@4@3ffbcc00000000000000 004d8554     GameGadgets.obj
 0002:00001558       __real@4@3ffcf200000000000000 004d8558     GameGadgets.obj
 0002:0000155c       __real@4@3ffe8700000000000000 004d855c     GameGadgets.obj
 0002:00001560       __real@4@3ffe9740000000000000 004d8560     GameGadgets.obj
 0002:00001564       __real@4@3ffda000000000000000 004d8564     GameGadgets.obj
 0002:00001568       __real@4@3ffcfa00000000000000 004d8568     GameGadgets.obj
 0002:0000156c       __real@4@3ffd9d80000000000000 004d856c     GameGadgets.obj
 0002:00001570       __real@4@3ffc8d55555555555800 004d8570     GameGadgets.obj
 0002:00001574       __real@4@3ffcb955555555555000 004d8574     GameGadgets.obj
 0002:00001578       __real@4@3ffb9aaaaaaaaaaaa800 004d8578     GameGadgets.obj
 0002:0000157c       __real@4@3ffbf2aaaaaaaaaaa800 004d857c     GameGadgets.obj
 0002:00001580       __real@4@3ffbc400000000000000 004d8580     GameGadgets.obj
 0002:00001584       __real@4@3ffae555555555555000 004d8584     GameGadgets.obj
 0002:00001588       ??_7CHunterStatsGadget@WW2003@@6B@ 004d8588     GameGadgets.obj
 0002:000015c8       __real@4@3ffeb255555555555000 004d85c8     GameGadgets.obj
 0002:000015cc       __real@4@3ffe8a55555555555000 004d85cc     GameGadgets.obj
 0002:000015d0       __real@4@3ffdc4aaaaaaaaaaa800 004d85d0     GameGadgets.obj
 0002:000015d4       __real@4@3ffceb00000000000000 004d85d4     GameGadgets.obj
 0002:000015d8       __real@4@3ff7a000000000000000 004d85d8     GameGadgets.obj
 0002:000015dc       __real@4@3ffce600000000000000 004d85dc     GameGadgets.obj
 0002:000015e0       __real@4@3ffbe2aaaaaaaaaaa800 004d85e0     GameGadgets.obj
 0002:000015e4       __real@4@3ffaa000000000000000 004d85e4     GameGadgets.obj
 0002:000015e8       __real@4@3ffad555555555555000 004d85e8     GameGadgets.obj
 0002:000015f0       ??_7CGameMenuBackground@WW2003@@6B@ 004d85f0     GameMenuBackground.obj
 0002:0000160c       __real@4@40098000000000000000 004d860c     GameMenuBackground.obj
 0002:00001610       __real@4@c001c000000000000000 004d8610     GameMenuBackground.obj
 0002:00001614       __real@4@4001c000000000000000 004d8614     GameMenuBackground.obj
 0002:00001618       __real@8@3ffbccccccccccccd000 004d8618     GameMenuBackground.obj
 0002:00001620       __real@8@3ffcaaaaaaaaaaaaa800 004d8620     GameMenuBackground.obj
 0002:00001628       __real@8@3fff8000000000000000 004d8628     GameMenuBackground.obj
 0002:00001630       __real@8@3fffc90fd80000000000 004d8630     GameMenuBackground.obj
 0002:00001638       __real@8@3ffaccccccccccccd000 004d8638     GameMenuBackground.obj
 0002:00001640       __real@4@3ff08001000200040000 004d8640     GameMenuBackground.obj
 0002:00001644       ??_7CInGameMenu@WW2003@@6B@ 004d8644     GameMenus.obj
 0002:0000166c       ??_7CCreateDogMenuPage0@WW2003@@6B@ 004d866c     GameMenus.obj
 0002:0000169c       ??_7CCreateGunMenuPage0@WW2003@@6B@ 004d869c     GameMenus.obj
 0002:000016cc       ??_7COkCancelMenu@WW2003@@6B@ 004d86cc     GameMenus.obj
 0002:000016f4       ??_7CVCRReplayMenu@WW2003@@6B@ 004d86f4     GameMenus.obj
 0002:0000171c       ??_7CPopupHelpMenu@WW2003@@6B@ 004d871c     GameMenus.obj
 0002:00001744       __real@4@3ff5aaaaab0000000000 004d8744     GameMenus.obj
 0002:00001748       __real@4@4008c000000000000000 004d8748     GameMenus.obj
 0002:0000174c       __real@4@40088000000000000000 004d874c     GameMenus.obj
 0002:00001750       __real@4@40078000000000000000 004d8750     GameMenus.obj
 0002:00001754       ??_7CMainMenu@WW2003@@6B@  004d8754     GameMenus.obj
 0002:00001780       __real@4@4000c000000000000000 004d8780     GameMenus.obj
 0002:00001784       ??_7CPickLocationMenu@WW2003@@6B@ 004d8784     GameMenus.obj
 0002:000017cc       ??_7CSquareButtonLarge@WW2003@@6B@ 004d87cc     GameMenus.obj
 0002:00001814       ??_7CPickEquipmentMenu@WW2003@@6B@ 004d8814     GameMenus.obj
 0002:0000185c       ??_7CRoundButtonSmall@WW2003@@6B@ 004d885c     GameMenus.obj
 0002:000018a4       __real@4@bfff8000000000000000 004d88a4     GameMenus.obj
 0002:000018a8       __real@4@c002f000000000000000 004d88a8     GameMenus.obj
 0002:000018ac       ??_7CEditNameMenu@WW2003@@6B@ 004d88ac     GameMenus.obj
 0002:000018dc       __real@4@3ffcaf00000000000000 004d88dc     GameMenus.obj
 0002:000018e0       __real@4@3ffb8a00000000000000 004d88e0     GameMenus.obj
 0002:000018e4       __real@4@3ffa9555555555555000 004d88e4     GameMenus.obj
 0002:000018e8       __real@4@3ffcc800000000000000 004d88e8     GameMenus.obj
 0002:000018ec       __real@4@3ff9f000000000000000 004d88ec     GameMenus.obj
 0002:000018f0       __real@4@3ffbec00000000000000 004d88f0     GameMenus.obj
 0002:000018f4       __real@4@3ffb8000000000000000 004d88f4     GameMenus.obj
 0002:000018f8       __real@4@3ffbdaaaaaaaaaaaa800 004d88f8     GameMenus.obj
 0002:000018fc       __real@4@3ffec800000000000000 004d88fc     GameMenus.obj
 0002:00001900       ??_7CCreateHunterMenuPage0@WW2003@@6B@ 004d8900     GameMenus.obj
 0002:00001930       ??_7CCreateHunterMenu@WW2003@@6B@ 004d8930     GameMenus.obj
 0002:00001968       __real@4@3ffabaaaaaaaaaaaa800 004d8968     GameMenus.obj
 0002:0000196c       __real@4@3ffde100000000000000 004d896c     GameMenus.obj
 0002:00001970       __real@4@3ffb8c00000000000000 004d8970     GameMenus.obj
 0002:00001974       __real@4@3ffbbd55555555555000 004d8974     GameMenus.obj
 0002:00001978       __real@4@3ffdf500000000000000 004d8978     GameMenus.obj
 0002:0000197c       __real@4@3ffbcd55555555555000 004d897c     GameMenus.obj
 0002:00001980       __real@4@3ffcf800000000000000 004d8980     GameMenus.obj
 0002:00001984       __real@4@3ffdbeaaaaaaaaaaa800 004d8984     GameMenus.obj
 0002:00001988       __real@4@3ffde955555555555000 004d8988     GameMenus.obj
 0002:0000198c       __real@4@3ffe8e55555555555000 004d898c     GameMenus.obj
 0002:00001990       __real@4@3ffea3aaaaaaaaaaa800 004d8990     GameMenus.obj
 0002:00001994       __real@4@3ffdbe00000000000000 004d8994     GameMenus.obj
 0002:00001998       __real@4@3ffea400000000000000 004d8998     GameMenus.obj
 0002:0000199c       __real@4@3ffded00000000000000 004d899c     GameMenus.obj
 0002:000019a0       __real@4@3ffcdc00000000000000 004d89a0     GameMenus.obj
 0002:000019a4       __real@4@3ffcfaaaaaaaaaaaa800 004d89a4     GameMenus.obj
 0002:000019a8       __real@4@3ffdee00000000000000 004d89a8     GameMenus.obj
 0002:000019ac       __real@4@3ffda800000000000000 004d89ac     GameMenus.obj
 0002:000019b0       __real@4@3ffdf600000000000000 004d89b0     GameMenus.obj
 0002:000019b4       __real@4@3ffc86aaaaaaaaaaa800 004d89b4     GameMenus.obj
 0002:000019b8       __real@4@3ffcff00000000000000 004d89b8     GameMenus.obj
 0002:000019bc       __real@4@3ffda755555555555000 004d89bc     GameMenus.obj
 0002:000019c0       __real@4@3ffdec80000000000000 004d89c0     GameMenus.obj
 0002:000019c4       __real@4@3ffbac00000000000000 004d89c4     GameMenus.obj
 0002:000019c8       __real@4@3ffb8200000000000000 004d89c8     GameMenus.obj
 0002:000019cc       __real@4@3ffac555555555555000 004d89cc     GameMenus.obj
 0002:000019d0       __real@4@3ffc9800000000000000 004d89d0     GameMenus.obj
 0002:000019d4       ??_7CHunterInfoMenu@WW2003@@6B@ 004d89d4     GameMenus.obj
 0002:00001a38       __real@4@3ffea6aaaaaaaaaaa800 004d8a38     GameMenus.obj
 0002:00001a3c       __real@4@3ffe9d80000000000000 004d8a3c     GameMenus.obj
 0002:00001a40       ??_7CKennelMenu@WW2003@@6B@ 004d8a40     GameMenus.obj
 0002:00001a7c       __real@4@3ffdb81702e05c0b8000 004d8a7c     GameMenus.obj
 0002:00001a80       __real@4@3ff8aaaaaaaaaaaaa800 004d8a80     GameMenus.obj
 0002:00001a84       __real@4@3ffeb81702e05c0b8000 004d8a84     GameMenus.obj
 0002:00001a88       __real@4@3ffb9800000000000000 004d8a88     GameMenus.obj
 0002:00001a8c       __real@4@3ffd8980000000000000 004d8a8c     GameMenus.obj
 0002:00001a90       __real@4@3ffdcb55555555555000 004d8a90     GameMenus.obj
 0002:00001a94       __real@4@3ffea8f5c30000000000 004d8a94     GameMenus.obj
 0002:00001a98       __real@4@3ffda8f5c30000000000 004d8a98     GameMenus.obj
 0002:00001a9c       ??_7CStatsMenu@WW2003@@6B@ 004d8a9c     GameMenus.obj
 0002:00001ac4       ??_7CLogbookMenu@WW2003@@6B@ 004d8ac4     GameMenus.obj
 0002:00001b24       ??_7CGrandSlamMenu@WW2003@@6B@ 004d8b24     GameMenus.obj
 0002:00001b50       ??_7CCreateDogMenu@WW2003@@6B@ 004d8b50     GameMenus.obj
 0002:00001b94       __real@4@3ffac000000000000000 004d8b94     GameMenus.obj
 0002:00001b98       __real@4@3ffa9800000000000000 004d8b98     GameMenus.obj
 0002:00001b9c       __real@4@3ffdbd80000000000000 004d8b9c     GameMenus.obj
 0002:00001ba0       __real@4@3ffbf200000000000000 004d8ba0     GameMenus.obj
 0002:00001ba4       __real@4@3ffdb980000000000000 004d8ba4     GameMenus.obj
 0002:00001ba8       __real@4@3ffdbc00000000000000 004d8ba8     GameMenus.obj
 0002:00001bac       __real@4@3ffde6aaaaaaaaaaa800 004d8bac     GameMenus.obj
 0002:00001bb0       __real@4@3ffe8eaaaaaaaaaaa800 004d8bb0     GameMenus.obj
 0002:00001bb4       __real@4@3ffdbd55555555555000 004d8bb4     GameMenus.obj
 0002:00001bb8       __real@4@3ff8b000000000000000 004d8bb8     GameMenus.obj
 0002:00001bbc       __real@4@3ffea2aaaaaaaaaaa800 004d8bbc     GameMenus.obj
 0002:00001bc0       __real@4@3ffdeb80000000000000 004d8bc0     GameMenus.obj
 0002:00001bc4       __real@4@3ffbcaaaaaaaaaaaa800 004d8bc4     GameMenus.obj
 0002:00001bc8       __real@4@3ffdb8aaaaaaaaaaa800 004d8bc8     GameMenus.obj
 0002:00001bcc       __real@4@3ffdb580000000000000 004d8bcc     GameMenus.obj
 0002:00001bd0       __real@4@3ffd9eaaaaaaaaaaa800 004d8bd0     GameMenus.obj
 0002:00001bd4       __real@4@3ffdb400000000000000 004d8bd4     GameMenus.obj
 0002:00001bd8       __real@4@3ffd8755555555555000 004d8bd8     GameMenus.obj
 0002:00001bdc       __real@4@3ffdbf80000000000000 004d8bdc     GameMenus.obj
 0002:00001be0       __real@4@3ffd9caaaaaaaaaaa800 004d8be0     GameMenus.obj
 0002:00001be4       __real@4@3ffdcf80000000000000 004d8be4     GameMenus.obj
 0002:00001be8       __real@4@3ffbd400000000000000 004d8be8     GameMenus.obj
 0002:00001bec       ??_7CCreateGunMenuPage1@WW2003@@6B@ 004d8bec     GameMenus.obj
 0002:00001c20       __real@4@3ffad000000000000000 004d8c20     GameMenus.obj
 0002:00001c24       __real@4@3ffca155555555555000 004d8c24     GameMenus.obj
 0002:00001c28       __real@4@3ffcfeaaaaaaaaaaa800 004d8c28     GameMenus.obj
 0002:00001c2c       __real@4@3ffdeb55555555555000 004d8c2c     GameMenus.obj
 0002:00001c30       __real@4@3ffce700000000000000 004d8c30     GameMenus.obj
 0002:00001c34       __real@4@3ffcf700000000000000 004d8c34     GameMenus.obj
 0002:00001c38       __real@4@3ffca955555555555000 004d8c38     GameMenus.obj
 0002:00001c3c       __real@4@3ff89000000000000000 004d8c3c     GameMenus.obj
 0002:00001c40       __real@4@3ffe8b00000000000000 004d8c40     GameMenus.obj
 0002:00001c44       __real@4@3ffce200000000000000 004d8c44     GameMenus.obj
 0002:00001c48       __real@4@3ffbf000000000000000 004d8c48     GameMenus.obj
 0002:00001c4c       __real@4@3ffcec00000000000000 004d8c4c     GameMenus.obj
 0002:00001c50       __real@4@3ffcb800000000000000 004d8c50     GameMenus.obj
 0002:00001c54       __real@4@3ffec500000000000000 004d8c54     GameMenus.obj
 0002:00001c58       __real@4@4004ac00000000000000 004d8c58     GameMenus.obj
 0002:00001c5c       ??_7CCreateGunMenuPage2@WW2003@@6B@ 004d8c5c     GameMenus.obj
 0002:00001c90       ??_7CCreateGunMenuPage3@WW2003@@6B@ 004d8c90     GameMenus.obj
 0002:00001cc0       __real@4@3ffcb155555555555000 004d8cc0     GameMenus.obj
 0002:00001cc4       __real@4@3ff98800000000000000 004d8cc4     GameMenus.obj
 0002:00001cc8       __real@4@3ffca000000000000000 004d8cc8     GameMenus.obj
 0002:00001ccc       __real@4@3ffcad55555555555000 004d8ccc     GameMenus.obj
 0002:00001cd0       __real@4@4003b000000000000000 004d8cd0     GameMenus.obj
 0002:00001cd4       ??_7CCreateGunMenuPage4@WW2003@@6B@ 004d8cd4     GameMenus.obj
 0002:00001d08       __real@4@3ffcfc00000000000000 004d8d08     GameMenus.obj
 0002:00001d0c       __real@4@3ffbb000000000000000 004d8d0c     GameMenus.obj
 0002:00001d10       __real@4@4003d000000000000000 004d8d10     GameMenus.obj
 0002:00001d14       ??_7CCreateGunMenuPage5@WW2003@@6B@ 004d8d14     GameMenus.obj
 0002:00001d44       __real@4@3ffcd555555555555000 004d8d44     GameMenus.obj
 0002:00001d48       __real@4@3ffab000000000000000 004d8d48     GameMenus.obj
 0002:00001d4c       __real@4@4004ec00000000000000 004d8d4c     GameMenus.obj
 0002:00001d50       ??_7CCreateGunMenuPage6@WW2003@@6B@ 004d8d50     GameMenus.obj
 0002:00001d84       __real@4@3ffdd200000000000000 004d8d84     GameMenus.obj
 0002:00001d88       __real@4@3ffdba00000000000000 004d8d88     GameMenus.obj
 0002:00001d8c       __real@4@3ffda200000000000000 004d8d8c     GameMenus.obj
 0002:00001d90       __real@4@3ffd8a00000000000000 004d8d90     GameMenus.obj
 0002:00001d94       __real@4@3ffce400000000000000 004d8d94     GameMenus.obj
 0002:00001d98       __real@4@3ffcb400000000000000 004d8d98     GameMenus.obj
 0002:00001d9c       __real@4@3ff8c000000000000000 004d8d9c     GameMenus.obj
 0002:00001da0       __real@4@3ffbfa00000000000000 004d8da0     GameMenus.obj
 0002:00001da4       __real@4@3ffaf000000000000000 004d8da4     GameMenus.obj
 0002:00001da8       __real@4@3ffcb900000000000000 004d8da8     GameMenus.obj
 0002:00001dac       __real@4@3ffdd380000000000000 004d8dac     GameMenus.obj
 0002:00001db0       __real@4@3ff8f000000000000000 004d8db0     GameMenus.obj
 0002:00001db4       __real@4@3ff9d555555555555000 004d8db4     GameMenus.obj
 0002:00001db8       __real@4@3ffdd100000000000000 004d8db8     GameMenus.obj
 0002:00001dbc       __real@4@3ffdb300000000000000 004d8dbc     GameMenus.obj
 0002:00001dc0       ??_7CVehicleSkinsMenu@WW2003@@6B@ 004d8dc0     GameMenus.obj
 0002:00001df8       __real@4@3ffacaaaaaaaaaaaa800 004d8df8     GameMenus.obj
 0002:00001dfc       __real@4@3ffdf000000000000000 004d8dfc     GameMenus.obj
 0002:00001e00       __real@4@3ffdf2aaaaaaaaaaa800 004d8e00     GameMenus.obj
 0002:00001e04       __real@4@3ffe8f55555555555000 004d8e04     GameMenus.obj
 0002:00001e08       __real@4@3ffea4aaaaaaaaaaa800 004d8e08     GameMenus.obj
 0002:00001e0c       __real@4@3ffdf555555555555000 004d8e0c     GameMenus.obj
 0002:00001e10       __real@4@3ffbb400000000000000 004d8e10     GameMenus.obj
 0002:00001e14       __real@4@3ffa8c00000000000000 004d8e14     GameMenus.obj
 0002:00001e18       __real@4@3ffc9b00000000000000 004d8e18     GameMenus.obj
 0002:00001e1c       ??_7CCreditsMenu@WW2003@@6B@ 004d8e1c     GameMenus.obj
 0002:00001e44       __real@4@3ff9aaaaaaaaaaaaa800 004d8e44     GameMenus.obj
 0002:00001e48       __real@4@3ffdbb80000000000000 004d8e48     GameMenus.obj
 0002:00001e4c       ??_7COptionsPanelItem@WW2003@@6B@ 004d8e4c     GameOptionsMenu.obj
 0002:00001e60       __real@4@3ffdf3cf3dad91b51800 004d8e60     GameOptionsMenu.obj
 0002:00001e64       ??_7COptionsPanelGadget@WW2003@@6B@ 004d8e64     GameOptionsMenu.obj
 0002:00001f10       ??_7COptionsGadget_GraphicsPresets@WW2003@@6B@ 004d8f10     GameOptionsMenu.obj
 0002:00001fc4       __real@4@3ffb8555555555555000 004d8fc4     GameOptionsMenu.obj
 0002:00001fc8       __real@4@4008e200000000000000 004d8fc8     GameOptionsMenu.obj
 0002:00001fcc       __real@4@3ff5a0d3150b9f410800 004d8fcc     GameOptionsMenu.obj
 0002:00001fd0       __real@4@4005b200000000000000 004d8fd0     GameOptionsMenu.obj
 0002:00001fd8       __real@8@3ffe8000000000000000 004d8fd8     GameOptionsMenu.obj
 0002:00001fe0       ??_7COptionsGadget_GraphicsDisplay@WW2003@@6B@ 004d8fe0     GameOptionsMenu.obj
 0002:00002098       ??_7COptionsGadget_GraphicsPerformance@WW2003@@6B@ 004d9098     GameOptionsMenu.obj
 0002:00002144       __real@4@3ffacccccd0000000000 004d9144     GameOptionsMenu.obj
 0002:00002148       __real@4@3ff8a3d70a3d70a3d800 004d9148     GameOptionsMenu.obj
 0002:0000214c       ??_7COptionsGadget_Sound@WW2003@@6B@ 004d914c     GameOptionsMenu.obj
 0002:000021f8       __real@4@4005fa00000000000000 004d91f8     GameOptionsMenu.obj
 0002:000021fc       __real@4@3ff883126e978d4fe000 004d91fc     GameOptionsMenu.obj
 0002:00002200       ??_7COptionsGadget_ControlsMovement@WW2003@@6B@ 004d9200     GameOptionsMenu.obj
 0002:000022ac       ??_7COptionsGadget_ControlsEquipment@WW2003@@6B@ 004d92ac     GameOptionsMenu.obj
 0002:00002358       ??_7COptionsGadget_ControlsMouse@WW2003@@6B@ 004d9358     GameOptionsMenu.obj
 0002:00002408       __real@8@4005c800000000000000 004d9408     GameOptionsMenu.obj
 0002:00002410       ??_7COptionsGadget_ControlsOther@WW2003@@6B@ 004d9410     GameOptionsMenu.obj
 0002:000024bc       ??_7COptionsMenu@WW2003@@6B@ 004d94bc     GameOptionsMenu.obj
 0002:00002508       ??_7CConfirmVideoSettingsMenu@WW2003@@6B@ 004d9508     GameOptionsMenu.obj
 0002:00002530       ??_7CHunterInfoStage@WW2003@@6B@ 004d9530     HunterInfoStage.obj
 0002:000025fc       __real@4@3ffd92aaaaaaaaaaa800 004d95fc     HunterInfoStage.obj
 0002:00002600       __real@4@3ffe9880000000000000 004d9600     HunterInfoStage.obj
 0002:00002604       __real@4@3ffda6aaaaaaaaaaa800 004d9604     HunterInfoStage.obj
 0002:00002608       __real@4@3ffdcd00000000000000 004d9608     HunterInfoStage.obj
 0002:0000260c       __real@4@3ffe92aaaaaaaaaaa800 004d960c     HunterInfoStage.obj
 0002:00002610       ??_7CLogbookTrophy@WW2003@@6B@ 004d9610     LogbookTrophy.obj
 0002:000026c4       __real@4@3ff5ccccccccccccd000 004d96c4     Credits.obj
 0002:0000271c       __real@4@4008fa00000000000000 004d971c     GameEXE.obj
 0002:00002720       __real@8@bfff8000000000000000 004d9720     GameEXE.obj
 0002:00002728       ??_7CSunstormWorldVariables@@6B@ 004d9728     LevelInfo.obj
 0002:00002734       ??_7CMapAnimal@@6B@        004d9734     LevelInfo.obj
 0002:00002778       ??_7type_info@@6B@         004d9778     MSVCRT:ti_inst.obj
 0002:00002790       ??_R1A@?0A@A@type_info@@8  004d9790     MSVCRT:ti_inst.obj
 0002:000027a8       ??_R2type_info@@8          004d97a8     MSVCRT:ti_inst.obj
 0002:000027b0       ??_R3type_info@@8          004d97b0     MSVCRT:ti_inst.obj
 0002:000027c0       ??_R4type_info@@6B@        004d97c0     MSVCRT:ti_inst.obj
 0002:00011530       __IMPORT_DESCRIPTOR_KERNEL32 004e8530     kernel32:KERNEL32.dll
 0002:00011544       __IMPORT_DESCRIPTOR_USER32 004e8544     user32:USER32.dll
 0002:00011558       __IMPORT_DESCRIPTOR_GDI32  004e8558     gdi32:GDI32.dll
 0002:0001156c       __IMPORT_DESCRIPTOR_ADVAPI32 004e856c     advapi32:ADVAPI32.dll
 0002:00011580       __IMPORT_DESCRIPTOR_SHELL32 004e8580     shell32:SHELL32.dll
 0002:00011594       __IMPORT_DESCRIPTOR_Entities 004e8594     Entities:Entities.dll
 0002:000115a8       __IMPORT_DESCRIPTOR_Engine 004e85a8     Engine:Engine.dll
 0002:000115bc       __IMPORT_DESCRIPTOR_MediaPlayer 004e85bc     MediaPlayer:MediaPlayer.dll
 0002:000115d0       __IMPORT_DESCRIPTOR_MSVCRT 004e85d0     MSVCRT:MSVCRT.dll
 0002:000115e4       __NULL_IMPORT_DESCRIPTOR   004e85e4     kernel32:KERNEL32.dll
 0003:00000000       ___xc_a                    004ec000     MSVCRT:cinitexe.obj
 0003:00002954       ___xc_z                    004ee954     MSVCRT:cinitexe.obj
 0003:00002958       ___xi_a                    004ee958     MSVCRT:cinitexe.obj
 0003:0000295c       ___xi_z                    004ee95c     MSVCRT:cinitexe.obj
 0003:000032b8       ?_iLocalPlayer@@3JA        004ef2b8     Menu.obj
 0003:000032bc       ?_tmMenuLastTickDone@@3MA  004ef2bc     Menu.obj
 0003:000032c0       ?ctGameTypeRadioTexts@@3JA 004ef2c0     Menu.obj
 0003:000068d0       ??_R0PAD@8                 004f28d0     Menu.obj
 0003:000068e0       ??_C@_0P@NDLG@Models?2Player?2?$AA@ 004f28e0     Menu.obj
 0003:000068f0       ??_C@_04EEGN@?4amc?$AA@    004f28f0     Menu.obj
 0003:000068f8       ?afI@@3PAMA                004f28f8     MenuGadgets.obj
 0003:0000c1f8       ?g_nLastInterfaceAnim@WW2003@@3JA 004f81f8     GameMenuBackground.obj
 0003:0000c958       ?g_eHuntType@WW2003@@3W4eHuntType@@A 004f8958     GameMenus.obj
 0003:0000c960       ?g_bWWPopupHelpMainMenu@WW2003@@3HA 004f8960     GameMenus.obj
 0003:0000c964       ?g_bWWPopupHelpPickLocationMenu@WW2003@@3HA 004f8964     GameMenus.obj
 0003:0000c968       ?g_bWWPopupHelpPickEquipmentMenu@WW2003@@3HA 004f8968     GameMenus.obj
 0003:0000c96c       ?g_bWWPopupHelpHunterInfoMenu@WW2003@@3HA 004f896c     GameMenus.obj
 0003:0000c970       ?g_bWWPopupHelpKennelMenu@WW2003@@3HA 004f8970     GameMenus.obj
 0003:0000c974       ?g_bWWPopupHelpCreateDogMenu@WW2003@@3HA 004f8974     GameMenus.obj
 0003:0000c978       ?g_bWWPopupHelpCreateGunMenu@WW2003@@3HA 004f8978     GameMenus.obj
 0003:0000c97c       ?g_bWWPopupHelpStatsMenu@WW2003@@3HA 004f897c     GameMenus.obj
 0003:0000c980       ?g_bWWPopupHelpLogbookMenu@WW2003@@3HA 004f8980     GameMenus.obj
 0003:0000c984       ?g_bWWPopupHelpGrandslamMenu@WW2003@@3HA 004f8984     GameMenus.obj
 0003:0000c988       ?g_bWWPopupHelpCreateHunterMenu@WW2003@@3HA 004f8988     GameMenus.obj
 0003:0000c98c       ?g_bWWPopupHelpVehicleSkinsMenu@WW2003@@3HA 004f898c     GameMenus.obj
 0003:0000c990       ?g_bWWPopupHelpOptionsMenu@WW2003@@3HA 004f8990     GameMenus.obj
 0003:00014be0       ??_C@_0BA@BLPA@ETRSDefault_Dog?$AA@ 00500be0     GameMenus.obj
 0003:00014bf0       ??_C@_0P@MBDM@ETRSCreate?5Dog?$AA@ 00500bf0     GameMenus.obj
 0003:00014c00       ??_C@_0BA@OBEM@ETRSDefault_Gun?$AA@ 00500c00     GameMenus.obj
 0003:00014c10       ??_C@_0M@GBCA@ETRSNew?5Gun?$AA@ 00500c10     GameMenus.obj
 0003:00014c1c       ??_C@_0BD@KFFO@ETRSDefault_Hunter?$AA@ 00500c1c     GameMenus.obj
 0003:00014c30       ??_C@_0P@BJPI@ETRSNew?5Hunter?$AA@ 00500c30     GameMenus.obj
 0003:000171b4       ??_C@_0CP@OODK@Change?5options?5and?5then?5press?5th@ 005031b4     GameOptionsMenu.obj
 0003:00019354       ?cmd_iGoToMarker@@3JA      00505354     CmdLine.obj
 0003:00019358       ?cmd_iPort@@3JA            00505358     CmdLine.obj
 0003:0001949c       ?_bRunning@@3HA            0050549c     GameEXE.obj
 0003:000194a0       ?_bQuitScreen@@3HA         005054a0     GameEXE.obj
 0003:000194b0       ?sam_bFullScreenActive@@3JA 005054b0     GameEXE.obj
 0003:000194b4       ?sam_iScreenSizeI@@3JA     005054b4     GameEXE.obj
 0003:000194b8       ?sam_iScreenSizeJ@@3JA     005054b8     GameEXE.obj
 0003:000194bc       ?sam_bFirstStarted@@3JA    005054bc     GameEXE.obj
 0003:000194c0       ?sam_tmDisplayModeReport@@3MA 005054c0     GameEXE.obj
 0003:000194c8       ?sam_iVideoSetup@@3JA      005054c8     GameEXE.obj
 0003:000194cc       ?sam_bAutoAdjustAudio@@3HA 005054cc     GameEXE.obj
 0003:000194d0       ?sam_bAutoPlayDemos@@3JA   005054d0     GameEXE.obj
 0003:0001a428       ?_iLastPreferences@@3JA    00506428     GLSettings.obj
 0003:0001a91c       ??_C@_0BL@OMNH@Bogus?5Test?5Map?5Description?$AA@ 0050691c     LevelInfo.obj
 0003:0001a938       ??_C@_0BE@BLJF@Bogus?5Test?5Map?5Name?$AA@ 00506938     LevelInfo.obj
 0003:0001a94c       ??_C@_04MINC@SV04?$AA@     0050694c     LevelInfo.obj
 0003:0001a954       ??_C@_04JNDH@SV03?$AA@     00506954     LevelInfo.obj
 0003:0001a95c       ??_C@_04DHKA@SV02?$AA@     0050695c     LevelInfo.obj
 0003:0001a964       ??_C@_04MIBJ@SV01?$AA@     00506964     LevelInfo.obj
 0003:0001abb0       ??_R0?AVtype_info@@@8      00506bb0     MSVCRT:ti_inst.obj
 0003:0001abd0       ___defaultmatherr          00506bd0     MSVCRT:merr.obj
 0003:0001ac1c       ??_C@_00A@?$AA@            00506c1c     FileData.obj
 0003:0001ac20       ?_strPort@@3VCTString@@A   00506c20     Menu.obj
 0003:0001ac24       ?_strServerFilter@@3PAVCTString@@A 00506c24     Menu.obj
 0003:0001ac48       ?_fnGameToLoad@@3VCTFileName@@A 00506c48     Menu.obj
 0003:0001ac50       ?_fnDemoToPlay@@3VCTFileName@@A 00506c50     Menu.obj
 0003:0001ac58       ?_strModServerSelected@@3VCTString@@A 00506c58     Menu.obj
 0003:0001ac5c       ?_strModURLSelected@@3VCTString@@A 00506c5c     Menu.obj
 0003:0001ac60       ?_fnmModSelected@@3VCTFileName@@A 00506c60     Menu.obj
 0003:0001ac68       ?mgSelectPlayersStart@@3VCMGButton@@A 00506c68     Menu.obj
 0003:0001ace8       ?mgSelectPlayersNotes@@3VCMGButton@@A 00506ce8     Menu.obj
 0003:0001ad68       ?mgPlayer3Change@@3VCMGChangePlayer@@A 00506d68     Menu.obj
 0003:0001adf0       ?mgPlayer2Change@@3VCMGChangePlayer@@A 00506df0     Menu.obj
 0003:0001ae78       ?mgPlayer1Change@@3VCMGChangePlayer@@A 00506e78     Menu.obj
 0003:0001af00       ?mgPlayer0Change@@3VCMGChangePlayer@@A 00506f00     Menu.obj
 0003:0001af88       ?mgSplitScreenCfg@@3VCMGTrigger@@A 00506f88     Menu.obj
 0003:0001b000       ?mgObserver@@3VCMGTrigger@@A 00507000     Menu.obj
 0003:0001b078       ?mgDedicated@@3VCMGTrigger@@A 00507078     Menu.obj
 0003:0001b0f0       ?mgSelectPlayerTitle@@3VCMGTitle@@A 005070f0     Menu.obj
 0003:0001b148       ?gmSelectPlayersMenu@@3VCSelectPlayersMenu@@A 00507148     Menu.obj
 0003:0001b190       ?mgNetworkOpenJoin@@3VCMGButton@@A 00507190     Menu.obj
 0003:0001b210       ?mgNetworkOpenPort@@3VCMGEdit@@A 00507210     Menu.obj
 0003:0001b298       ?mgNetworkOpenPortLabel@@3VCMGButton@@A 00507298     Menu.obj
 0003:0001b318       ?mgNetworkOpenAddress@@3VCMGEdit@@A 00507318     Menu.obj
 0003:0001b3a0       ?mgNetworkOpenAddressLabel@@3VCMGButton@@A 005073a0     Menu.obj
 0003:0001b420       ?mgNetworkOpenTitle@@3VCMGTitle@@A 00507420     Menu.obj
 0003:0001b478       ?gmNetworkOpenMenu@@3VCNetworkOpenMenu@@A 00507478     Menu.obj
 0003:0001b4b8       ?mgNetworkStartStart@@3VCMGButton@@A 005074b8     Menu.obj
 0003:0001b538       ?mgNetworkGameOptions@@3VCMGButton@@A 00507538     Menu.obj
 0003:0001b5b8       ?mgNetworkVisible@@3VCMGTrigger@@A 005075b8     Menu.obj
 0003:0001b630       ?mgNetworkWaitAllPlayers@@3VCMGTrigger@@A 00507630     Menu.obj
 0003:0001b6a8       ?mgNetworkMaxPlayers@@3VCMGTrigger@@A 005076a8     Menu.obj
 0003:0001b720       ?mgNetworkLevel@@3VCMGButton@@A 00507720     Menu.obj
 0003:0001b7a0       ?mgNetworkDifficulty@@3VCMGTrigger@@A 005077a0     Menu.obj
 0003:0001b818       ?mgNetworkGameType@@3VCMGTrigger@@A 00507818     Menu.obj
 0003:0001b890       ?mgNetworkSessionName@@3VCMGEdit@@A 00507890     Menu.obj
 0003:0001b918       ?mgNetworkStartTitle@@3VCMGTitle@@A 00507918     Menu.obj
 0003:0001b970       ?gmNetworkStartMenu@@3VCNetworkStartMenu@@A 00507970     Menu.obj
 0003:0001b9b0       ?mgNetworkJoinOpen@@3VCMGButton@@A 005079b0     Menu.obj
 0003:0001ba30       ?mgNetworkJoinNET@@3VCMGButton@@A 00507a30     Menu.obj
 0003:0001bab0       ?mgNetworkJoinLAN@@3VCMGButton@@A 00507ab0     Menu.obj
 0003:0001bb30       ?mgNetworkJoinTitle@@3VCMGTitle@@A 00507b30     Menu.obj
 0003:0001bb88       ?gmNetworkJoinMenu@@3VCNetworkJoinMenu@@A 00507b88     Menu.obj
 0003:0001bbc8       ?mgNetworkLoad@@3VCMGButton@@A 00507bc8     Menu.obj
 0003:0001bc48       ?mgNetworkQuickLoad@@3VCMGButton@@A 00507c48     Menu.obj
 0003:0001bcc8       ?mgNetworkStart@@3VCMGButton@@A 00507cc8     Menu.obj
 0003:0001bd48       ?mgNetworkJoin@@3VCMGButton@@A 00507d48     Menu.obj
 0003:0001bdc8       ?mgNetworkTitle@@3VCMGTitle@@A 00507dc8     Menu.obj
 0003:0001be20       ?gmNetworkMenu@@3VCNetworkMenu@@A 00507e20     Menu.obj
 0003:0001be60       ?mgAddonOptions@@3VCMGButton@@A 00507e60     Menu.obj
 0003:0001bee0       ?mgCustomOptions@@3VCMGButton@@A 00507ee0     Menu.obj
 0003:0001bf60       ?mgNetworkOptions@@3VCMGButton@@A 00507f60     Menu.obj
 0003:0001bfe0       ?mgPlayerProfileOptions@@3VCMGButton@@A 00507fe0     Menu.obj
 0003:0001c060       ?mgAudioOptions@@3VCMGButton@@A 00508060     Menu.obj
 0003:0001c0e0       ?mgVideoOptions@@3VCMGButton@@A 005080e0     Menu.obj
 0003:0001c160       ?mgOptionsTitle@@3VCMGTitle@@A 00508160     Menu.obj
 0003:0001c1b8       ?gmOptionsMenu@@3VCOptionsMenu@@A 005081b8     Menu.obj
 0003:0001c1f8       ?mgAxisSmoothTrigger@@3VCMGTrigger@@A 005081f8     Menu.obj
 0003:0001c270       ?mgAxisRelativeTrigger@@3VCMGTrigger@@A 00508270     Menu.obj
 0003:0001c2e8       ?mgAxisInvertTrigger@@3VCMGTrigger@@A 005082e8     Menu.obj
 0003:0001c360       ?mgAxisDeadzone@@3VCMGSlider@@A 00508360     Menu.obj
 0003:0001c3f8       ?mgAxisSensitivity@@3VCMGSlider@@A 005083f8     Menu.obj
 0003:0001c490       ?mgAxisMountedTrigger@@3VCMGTrigger@@A 00508490     Menu.obj
 0003:0001c508       ?mgAxisActionTrigger@@3VCMGTrigger@@A 00508508     Menu.obj
 0003:0001c580       ?mgCustomizeAxisTitle@@3VCMGTitle@@A 00508580     Menu.obj
 0003:0001c5d8       ?gmCustomizeAxisMenu@@3VCCustomizeAxisMenu@@A 005085d8     Menu.obj
 0003:0001c618       ?mgServerRefresh@@3VCMGButton@@A 00508618     Menu.obj
 0003:0001c698       ?mgServerFilter@@3PAVCMGEdit@@A 00508698     Menu.obj
 0003:0001ca50       ?mgServerColumn@@3PAVCMGButton@@A 00508a50     Menu.obj
 0003:0001cdd0       ?mgServerList@@3VCMGServerList@@A 00508dd0     Menu.obj
 0003:0001cec8       ?mgServersTitle@@3VCMGTitle@@A 00508ec8     Menu.obj
 0003:0001cf20       ?gmServersMenu@@3VCServersMenu@@A 00508f20     Menu.obj
 0003:0001cf68       ?mgCustomizeArrowDn@@3VCMGArrow@@A 00508f68     Menu.obj
 0003:0001cff0       ?mgCustomizeArrowUp@@3VCMGArrow@@A 00508ff0     Menu.obj
 0003:0001d078       ?mgKey@@3PAVCMGKeyDefinition@@A 00509078     Menu.obj
 0003:0001d5b8       ?mgCustomizeKeyboardTitle@@3VCMGTitle@@A 005095b8     Menu.obj
 0003:0001d610       ?gmCustomizeKeyboardMenu@@3VCCustomizeKeyboardMenu@@A 00509610     Menu.obj
 0003:0001d650       ?mgHScore@@3VCMGHighScore@@A 00509650     Menu.obj
 0003:0001d6a0       ?mgHighScoreTitle@@3VCMGTitle@@A 005096a0     Menu.obj
 0003:0001d6f8       ?gmHighScoreMenu@@3VCHighScoreMenu@@A 005096f8     Menu.obj
 0003:0001d738       ?mgLSArrowDn@@3VCMGArrow@@A 00509738     Menu.obj
 0003:0001d7c0       ?mgLSArrowUp@@3VCMGArrow@@A 005097c0     Menu.obj
 0003:0001d848       ?amgLSButton@@3PAVCMGFileButton@@A 00509848     Menu.obj
 0003:0001e0d0       ?mgLoadSaveNotes@@3VCMGButton@@A 0050a0d0     Menu.obj
 0003:0001e150       ?mgLoadSaveTitle@@3VCMGTitle@@A 0050a150     Menu.obj
 0003:0001e1a8       ?gmLoadSaveMenu@@3VCLoadSaveMenu@@A 0050a1a8     Menu.obj
 0003:0001e238       ?mgControlsAdvanced@@3VCMGButton@@A 0050a238     Menu.obj
 0003:0001e2b8       ?mgControlsPredefined@@3VCMGButton@@A 0050a2b8     Menu.obj
 0003:0001e338       ?mgControlsIFeelTrigger@@3VCMGTrigger@@A 0050a338     Menu.obj
 0003:0001e3b0       ?mgControlsAccelTrigger@@3VCMGTrigger@@A 0050a3b0     Menu.obj
 0003:0001e428       ?mgControlsSmoothTrigger@@3VCMGTrigger@@A 0050a428     Menu.obj
 0003:0001e4a0       ?mgControlsInvertTrigger@@3VCMGTrigger@@A 0050a4a0     Menu.obj
 0003:0001e518       ?mgControlsSensitivity@@3VCMGSlider@@A 0050a518     Menu.obj
 0003:0001e5b0       ?mgControlsButtons@@3VCMGButton@@A 0050a5b0     Menu.obj
 0003:0001e630       ?mgControlsNameLabel@@3VCMGButton@@A 0050a630     Menu.obj
 0003:0001e6b0       ?mgControlsTitle@@3VCMGTitle@@A 0050a6b0     Menu.obj
 0003:0001e708       ?gmControls@@3VCControlsMenu@@A 0050a708     Menu.obj
 0003:0001e748       ?mgPlayerModel@@3VCMGModel@@A 0050a748     Menu.obj
 0003:0001e938       ?mgPlayerSharpTurning@@3VCMGTrigger@@A 0050a938     Menu.obj
 0003:0001e9b0       ?mgPlayerViewBobbing@@3VCMGTrigger@@A 0050a9b0     Menu.obj
 0003:0001ea28       ?mgPlayerCompDoubleClick@@3VCMGTrigger@@A 0050aa28     Menu.obj
 0003:0001eaa0       ?mgPlayerAutoSave@@3VCMGTrigger@@A 0050aaa0     Menu.obj
 0003:0001eb18       ?mgPlayerQuotes@@3VCMGTrigger@@A 0050ab18     Menu.obj
 0003:0001eb90       ?mgPlayer3rdPerson@@3VCMGTrigger@@A 0050ab90     Menu.obj
 0003:0001ec08       ?mgPlayerWeaponHide@@3VCMGTrigger@@A 0050ac08     Menu.obj
 0003:0001ec80       ?mgPlayerWeaponSelect@@3VCMGTrigger@@A 0050ac80     Menu.obj
 0003:0001ecf8       ?mgPlayerCrosshair@@3VCMGTrigger@@A 0050acf8     Menu.obj
 0003:0001ed70       ?mgPlayerCustomizeControls@@3VCMGButton@@A 0050ad70     Menu.obj
 0003:0001edf0       ?mgPlayerTeam@@3VCMGEdit@@A 0050adf0     Menu.obj
 0003:0001ee78       ?mgPlayerTeamLabel@@3VCMGButton@@A 0050ae78     Menu.obj
 0003:0001eef8       ?mgPlayerName@@3VCMGEdit@@A 0050aef8     Menu.obj
 0003:0001ef80       ?mgPlayerNameLabel@@3VCMGButton@@A 0050af80     Menu.obj
 0003:0001f000       ?mgPlayerNo@@3PAVCMGButton@@A 0050b000     Menu.obj
 0003:0001f400       ?mgPlayerNoLabel@@3VCMGButton@@A 0050b400     Menu.obj
 0003:0001f480       ?mgPlayerProfileTitle@@3VCMGTitle@@A 0050b480     Menu.obj
 0003:0001f4d8       ?gmPlayerProfile@@3VCPlayerProfileMenu@@A 0050b4d8     Menu.obj
 0003:0001f520       ?mgVarArrowDn@@3VCMGArrow@@A 0050b520     Menu.obj
 0003:0001f5a8       ?mgVarArrowUp@@3VCMGArrow@@A 0050b5a8     Menu.obj
 0003:0001f630       ?mgVarApply@@3VCMGButton@@A 0050b630     Menu.obj
 0003:0001f6b0       ?mgVar@@3PAVCMGVarButton@@A 0050b6b0     Menu.obj
 0003:0001fef0       ?mgVarTitle@@3VCMGTitle@@A 0050bef0     Menu.obj
 0003:0001ff48       ?gmVarMenu@@3VCVarMenu@@A  0050bf48     Menu.obj
 0003:0001ff90       ?mgLevelsArrowDn@@3VCMGArrow@@A 0050bf90     Menu.obj
 0003:00020018       ?mgLevelsArrowUp@@3VCMGArrow@@A 0050c018     Menu.obj
 0003:000200a0       ?mgManualLevel@@3PAVCMGLevelButton@@A 0050c0a0     Menu.obj
 0003:00020920       ?mgLevelsTitle@@3VCMGTitle@@A 0050c920     Menu.obj
 0003:00020978       ?gmLevelsMenu@@3VCLevelsMenu@@A 0050c978     Menu.obj
 0003:000209b8       ?mgDisabledMenuButton@@3VCMGButton@@A 0050c9b8     Menu.obj
 0003:00020a38       ?mgDisabledTitle@@3VCMGTitle@@A 0050ca38     Menu.obj
 0003:00020a90       ?gmDisabledFunction@@3VCDisabledMenu@@A 0050ca90     Menu.obj
 0003:00020ad0       ?mgSingleNewMental@@3VCMGButton@@A 0050cad0     Menu.obj
 0003:00020b50       ?mgSingleNewSerious@@3VCMGButton@@A 0050cb50     Menu.obj
 0003:00020bd0       ?mgSingleNewHard@@3VCMGButton@@A 0050cbd0     Menu.obj
 0003:00020c50       ?mgSingleNewMedium@@3VCMGButton@@A 0050cc50     Menu.obj
 0003:00020cd0       ?mgSingleNewEasy@@3VCMGButton@@A 0050ccd0     Menu.obj
 0003:00020d50       ?mgSingleNewTourist@@3VCMGButton@@A 0050cd50     Menu.obj
 0003:00020dd0       ?mgSingleNewTitle@@3VCMGTitle@@A 0050cdd0     Menu.obj
 0003:00020e28       ?gmSinglePlayerNewMenu@@3VCSinglePlayerNewMenu@@A 0050ce28     Menu.obj
 0003:00020e68       ?mgSingleOptions@@3VCMGButton@@A 0050ce68     Menu.obj
 0003:00020ee8       ?mgSinglePlayersAndControls@@3VCMGButton@@A 0050cee8     Menu.obj
 0003:00020f68       ?mgSingleTechTest@@3VCMGButton@@A 0050cf68     Menu.obj
 0003:00020fe8       ?mgSingleTraining@@3VCMGButton@@A 0050cfe8     Menu.obj
 0003:00021068       ?mgSingleLoad@@3VCMGButton@@A 0050d068     Menu.obj
 0003:000210e8       ?mgSingleQuickLoad@@3VCMGButton@@A 0050d0e8     Menu.obj
 0003:00021168       ?mgSingleCustom@@3VCMGButton@@A 0050d168     Menu.obj
 0003:000211e8       ?mgSingleNewGame@@3VCMGButton@@A 0050d1e8     Menu.obj
 0003:00021268       ?mgSinglePlayerLabel@@3VCMGButton@@A 0050d268     Menu.obj
 0003:000212e8       ?mgSingleTitle@@3VCMGTitle@@A 0050d2e8     Menu.obj
 0003:00021340       ?gmSinglePlayerMenu@@3VCSinglePlayerMenu@@A 0050d340     Menu.obj
 0003:00021380       ?mgConfirmNo@@3VCMGButton@@A 0050d380     Menu.obj
 0003:00021400       ?mgConfirmYes@@3VCMGButton@@A 0050d400     Menu.obj
 0003:00021480       ?mgConfirmLabel@@3VCMGButton@@A 0050d480     Menu.obj
 0003:00021500       ?gmConfirmMenu@@3VCConfirmMenu@@A 0050d500     Menu.obj
 0003:00021540       ?mgBack@@3VCMGButton@@A    0050d540     Menu.obj
 0003:000215c0       ?astrDifficultyRadioTexts@@3PAVCTString@@A 0050d5c0     Menu.obj
 0003:000215d8       ?astrGameTypeRadioTexts@@3PAVCTString@@A 0050d5d8     Menu.obj
 0003:00021628       ?astrMaxPlayersRadioTexts@@3PAVCTString@@A 0050d628     Menu.obj
 0003:00021664       ?astrCrosshair@@3PAVCTString@@A 0050d664     Menu.obj
 0003:00021684       ?astrWeapon@@3PAVCTString@@A 0050d684     Menu.obj
 0003:00021694       ?astrComputerInvoke@@3PAVCTString@@A 0050d694     Menu.obj
 0003:0002169c       ?astrNoYes@@3PAVCTString@@A 0050d69c     Menu.obj
 0003:000216c0       ?_fdMediumWide1024x768@@3VCFontData@@A 0050d6c0     Menu.obj
 0003:00022700       ?_fdMedium1024x768@@3VCFontData@@A 0050e700     Menu.obj
 0003:00023740       ?_fdSmall1024x768@@3VCFontData@@A 0050f740     Menu.obj
 0003:00024780       ?_fdSmallest1024x768@@3VCFontData@@A 00510780     Menu.obj
 0003:000257c0       ?_fdMediumWide800x600@@3VCFontData@@A 005117c0     Menu.obj
 0003:00026800       ?_fdMedium800x600@@3VCFontData@@A 00512800     Menu.obj
 0003:00027840       ?_fdSmall800x600@@3VCFontData@@A 00513840     Menu.obj
 0003:00028880       ?_fdSmallest800x600@@3VCFontData@@A 00514880     Menu.obj
 0003:000298c0       ?_fdMediumWide640x480@@3VCFontData@@A 005158c0     Menu.obj
 0003:0002a900       ?_fdMedium640x480@@3VCFontData@@A 00516900     Menu.obj
 0003:0002b940       ?_fdSmall640x480@@3VCFontData@@A 00517940     Menu.obj
 0003:0002c980       ?_fdSmallest640x480@@3VCFontData@@A 00518980     Menu.obj
 0003:0002d9c0       ?_toThumbnail@@3VCTextureObject@@A 005199c0     Menu.obj
 0003:0002d9d8       ?_pAfterLevelChosen@@3P6AXXZA 005199d8     Menu.obj
 0003:0002d9e0       ?_fnmControlsToCustomize@@3VCTFileName@@A 005199e0     Menu.obj
 0003:0002d9e8       ?lhMenuEntities@@3VCListHead@@A 005199e8     Menu.obj
 0003:0002d9f8       ?_lhServers@@3VCListHead@@A 005199f8     Menu.obj
 0003:0002def0       ?_bPlayerMenuFromSinglePlayer@@3HA 00519ef0     Menu.obj
 0003:0002def4       ?_gmMenuGameMode@@3W4GameMode@@A 00519ef4     Menu.obj
 0003:0002def8       ?_gmRunningGameMode@@3W4GameMode@@A 00519ef8     Menu.obj
 0003:0002defc       ?_pConfimedYes@@3P6AXXZA   00519efc     Menu.obj
 0003:0002df00       ?_pConfimedNo@@3P6AXXZA    00519f00     Menu.obj
 0003:0002df04       ?_pixCursorPosI@@3JA       00519f04     Menu.obj
 0003:0002df08       ?_pixCursorPosJ@@3JA       00519f08     Menu.obj
 0003:0002df0c       ?_pixCursorExternPosI@@3JA 00519f0c     Menu.obj
 0003:0002df10       ?_pixCursorExternPosJ@@3JA 00519f10     Menu.obj
 0003:0002df14       ?_bMouseUsedLast@@3HA      00519f14     Menu.obj
 0003:0002df18       ?_pmgUnderCursor@@3PAVCMenuGadget@@A 00519f18     Menu.obj
 0003:0002df1c       ?_bMouseRight@@3HA         00519f1c     Menu.obj
 0003:0002df20       ?_bThumbnailOn@@3HA        00519f20     Menu.obj
 0003:0002df24       ?_psdSelect@@3PAVCSoundData@@A 00519f24     Menu.obj
 0003:0002df28       ?_psdPress@@3PAVCSoundData@@A 00519f28     Menu.obj
 0003:0002df2c       ?_psdAmbient@@3PAVCSoundData@@A 00519f2c     Menu.obj
 0003:0002df30       ?_psoMenuSound@@3PAVCSoundObject@@A 00519f30     Menu.obj
 0003:0002df34       ?_psoAmbientMenuSound@@3PAVCSoundObject@@A 00519f34     Menu.obj
 0003:0002df38       ?pgmCurrentMenu@@3PAVCGameMenu@@A 00519f38     Menu.obj
 0003:0002df3c       ?_bVarChanged@@3HA         00519f3c     Menu.obj
 0003:0002e044       ?strHighScores@@3PAY05VCTString@@A 0051a044     MenuGadgets.obj
 0003:0002e14c       ?_pmgLastActivatedGadget@@3PAVCMenuGadget@@A 0051a14c     MenuGadgets.obj
 0003:0002e150       ?_bDefiningKey@@3HA        0051a150     MenuGadgets.obj
 0003:0002e154       ?_bEditingString@@3HA      0051a154     MenuGadgets.obj
 0003:0002e158       ?_pmgFileToSave@@3PAVCMGFileButton@@A 0051a158     MenuGadgets.obj
 0003:0002e15c       ?_iSort@@3HA               0051a15c     MenuGadgets.obj
 0003:0002e160       ?_bSortDown@@3HA           0051a160     MenuGadgets.obj
 0003:0002eac0       ?g_szCurDogFile@WW2003@@3VCTString@@A 0051aac0     GameFileProxies.obj
 0003:0002eac4       ?g_szCurHunterFile@WW2003@@3VCTString@@A 0051aac4     GameFileProxies.obj
 0003:0002f5c0       ?g_PopupHelpTextFile@WW2003@@3VCInfoFile@@A 0051b5c0     GameMenus.obj
 0003:0002f5e8       ?g_TabCornerOptionsOn@WW2003@@3VCTextureObject@@A 0051b5e8     GameMenus.obj
 0003:0002f600       ?g_TabCornerOptionsOff@WW2003@@3VCTextureObject@@A 0051b600     GameMenus.obj
 0003:0002f618       ?g_TabCornerEquipOn@WW2003@@3VCTextureObject@@A 0051b618     GameMenus.obj
 0003:0002f630       ?g_TabCornerEquipOff@WW2003@@3VCTextureObject@@A 0051b630     GameMenus.obj
 0003:0002f648       ?g_NextDogOff@WW2003@@3VCTextureObject@@A 0051b648     GameMenus.obj
 0003:0002f660       ?g_NextDogOn@WW2003@@3VCTextureObject@@A 0051b660     GameMenus.obj
 0003:0002f678       ?g_PrevDogOff@WW2003@@3VCTextureObject@@A 0051b678     GameMenus.obj
 0003:0002f690       ?g_PrevDogOn@WW2003@@3VCTextureObject@@A 0051b690     GameMenus.obj
 0003:0002f6a8       ?g_PrevNextSmallButton@WW2003@@3VCTextureObject@@A 0051b6a8     GameMenus.obj
 0003:0002f6c0       ?g_LRArrow@WW2003@@3VCTextureObject@@A 0051b6c0     GameMenus.obj
 0003:0002f6d8       ?g_RadioButtonFill@WW2003@@3VCTextureObject@@A 0051b6d8     GameMenus.obj
 0003:0002f6f0       ?g_TabEquipOn2@WW2003@@3VCTextureObject@@A 0051b6f0     GameMenus.obj
 0003:0002f708       ?g_TabEquipOn@WW2003@@3VCTextureObject@@A 0051b708     GameMenus.obj
 0003:0002f720       ?g_TabEquipOff@WW2003@@3VCTextureObject@@A 0051b720     GameMenus.obj
 0003:0002f738       ?g_TabGunDogMiddle@WW2003@@3VCTextureObject@@A 0051b738     GameMenus.obj
 0003:0002f750       ?g_TabCornerOn2@WW2003@@3VCTextureObject@@A 0051b750     GameMenus.obj
 0003:0002f768       ?g_TabCornerOn@WW2003@@3VCTextureObject@@A 0051b768     GameMenus.obj
 0003:0002f780       ?g_TabOnMiddle@WW2003@@3VCTextureObject@@A 0051b780     GameMenus.obj
 0003:0002f798       ?g_TabOnLeft@WW2003@@3VCTextureObject@@A 0051b798     GameMenus.obj
 0003:0002f7b0       ?g_TabCornerOff@WW2003@@3VCTextureObject@@A 0051b7b0     GameMenus.obj
 0003:0002f7c8       ?g_TabOffMiddle@WW2003@@3VCTextureObject@@A 0051b7c8     GameMenus.obj
 0003:0002f7e0       ?g_TabOffLeft@WW2003@@3VCTextureObject@@A 0051b7e0     GameMenus.obj
 0003:0002f7f8       ?g_ScrollbarButtonTexture@WW2003@@3VCTextureObject@@A 0051b7f8     GameMenus.obj
 0003:0002f810       ?g_SquareButtonLargeTexture@WW2003@@3VCTextureObject@@A 0051b810     GameMenus.obj
 0003:0002f828       ?g_RoundButtonSmallTexture@WW2003@@3VCTextureObject@@A 0051b828     GameMenus.obj
 0003:0002f840       ?g_TargetButtonTexture@WW2003@@3VCTextureObject@@A 0051b840     GameMenus.obj
 0003:0002f858       ?g_CommonNavBarTextures@WW2003@@3PAVCTextureObject@@A 0051b858     GameMenus.obj
 0003:0002f8a0       ?g_CommonToolbarTextures@WW2003@@3PAVCTextureObject@@A 0051b8a0     GameMenus.obj
 0003:0002f900       ?g_szPopupHelp@WW2003@@3VCTString@@A 0051b900     GameMenus.obj
 0003:0002f918       ?g_szCurWorldFile@WW2003@@3VCTString@@A 0051b918     GameMenus.obj
 0003:0002f920       ?g_FileData@WW2003@@3VCFileData@@A 0051b920     GameMenus.obj
 0003:0002fa90       ?g_PopupHelpMenu@WW2003@@3VCPopupHelpMenu@1@A 0051ba90     GameMenus.obj
 0003:0002fec8       ?g_CreditsMenu@WW2003@@3VCCreditsMenu@1@A 0051bec8     GameMenus.obj
 0003:000304e0       ?g_VCRReplayMenu@WW2003@@3VCVCRReplayMenu@1@A 0051c4e0     GameMenus.obj
 0003:00030ae0       ?g_VehicleSkinsMenu@WW2003@@3VCVehicleSkinsMenu@1@A 0051cae0     GameMenus.obj
 0003:00031540       ?g_StatsMenu@WW2003@@3VCStatsMenu@1@A 0051d540     GameMenus.obj
 0003:00031f30       ?g_GrandSlamMenu@WW2003@@3VCGrandSlamMenu@1@A 0051df30     GameMenus.obj
 0003:00033f08       ?g_LogbookMenu@WW2003@@3VCLogbookMenu@1@A 0051ff08     GameMenus.obj
 0003:00036418       ?g_OkCancelMenu2@WW2003@@3VCOkCancelMenu@1@A 00522418     GameMenus.obj
 0003:000367b8       ?g_OkCancelMenu@WW2003@@3VCOkCancelMenu@1@A 005227b8     GameMenus.obj
 0003:00036b58       ?g_CreateGunMenuPage6@WW2003@@3VCCreateGunMenuPage6@1@A 00522b58     GameMenus.obj
 0003:00037628       ?g_CreateGunMenuPage5@WW2003@@3VCCreateGunMenuPage5@1@A 00523628     GameMenus.obj
 0003:00037cf0       ?g_CreateGunMenuPage4@WW2003@@3VCCreateGunMenuPage4@1@A 00523cf0     GameMenus.obj
 0003:000383f0       ?g_CreateGunMenuPage3@WW2003@@3VCCreateGunMenuPage3@1@A 005243f0     GameMenus.obj
 0003:00038ab8       ?g_CreateGunMenuPage2@WW2003@@3VCCreateGunMenuPage2@1@A 00524ab8     GameMenus.obj
 0003:00039368       ?g_CreateGunMenuPage1@WW2003@@3VCCreateGunMenuPage1@1@A 00525368     GameMenus.obj
 0003:00039c18       ?g_CreateGunMenuPage0@WW2003@@3VCCreateGunMenuPage0@1@A 00525c18     GameMenus.obj
 0003:00039fe0       ?g_CreateDogMenu@WW2003@@3VCCreateDogMenu@1@A 00525fe0     GameMenus.obj
 0003:0003ad48       ?g_CreateDogMenuPage0@WW2003@@3VCCreateDogMenuPage0@1@A 00526d48     GameMenus.obj
 0003:0003b110       ?g_CreateHunterMenu@WW2003@@3VCCreateHunterMenu@1@A 00527110     GameMenus.obj
 0003:0003bf58       ?g_CreateHunterMenuPage0@WW2003@@3VCCreateHunterMenuPage0@1@A 00527f58     GameMenus.obj
 0003:0003c328       ?g_KennelMenu@WW2003@@3VCKennelMenu@1@A 00528328     GameMenus.obj
 0003:0003e718       ?g_HunterInfoMenu@WW2003@@3VCHunterInfoMenu@1@A 0052a718     GameMenus.obj
 0003:00040028       ?g_PickEquipmentMenu@WW2003@@3VCPickEquipmentMenu@1@A 0052c028     GameMenus.obj
 0003:00042710       ?g_PickLocationMenu@WW2003@@3VCPickLocationMenu@1@A 0052e710     GameMenus.obj
 0003:000442c8       ?g_GameMenuBackground@WW2003@@3VCGameMenuBackground@1@A 005302c8     GameMenus.obj
 0003:000448a8       ?colHuntersRealm@WW2003@@3KA 005308a8     GameMenus.obj
 0003:000448ac       ?colNormal@WW2003@@3KA     005308ac     GameMenus.obj
 0003:000448b0       ?colCustom@WW2003@@3KA     005308b0     GameMenus.obj
 0003:000448b8       ?gmInGameMenu@@3VCInGameMenu@WW2003@@A 005308b8     GameMenus.obj
 0003:00044bf8       ?gmMainMenu@@3VCMainMenu@WW2003@@A 00530bf8     GameMenus.obj
 0003:00046540       ?g_pDrawPort@@3PAVCDrawPort@@A 00532540     GameMenus.obj
 0003:00046568       ?g_bShowPopupHelpMenu@WW2003@@3HA 00532568     GameMenus.obj
 0003:0004656c       ?g_bHunterIsFemale@WW2003@@3HA 0053256c     GameMenus.obj
 0003:00046570       ?_psoMenuVoiceoverSound@WW2003@@3PAVCSoundObject@@A 00532570     GameMenus.obj
 0003:00046800       ?g_LargeRoundButtonTexture@WW2003@@3VCTextureObject@@A 00532800     GameOptionsMenu.obj
 0003:00046818       ?g_ConfirmVideoSettingsMenu@WW2003@@3VCConfirmVideoSettingsMenu@1@A 00532818     GameOptionsMenu.obj
 0003:00046c90       ?g_OptionsMenu@WW2003@@3VCOptionsMenu@1@A 00532c90     GameOptionsMenu.obj
 0003:00048918       ?g_SliderThumbOnTexture@@3VCTextureObject@@A 00534918     GameOptionsMenu.obj
 0003:00048930       ?g_SliderThumbTexture@@3VCTextureObject@@A 00534930     GameOptionsMenu.obj
 0003:00048948       ?g_SliderTrackTexture@@3VCTextureObject@@A 00534948     GameOptionsMenu.obj
 0003:00049654       ?cmd_strOutput@@3VCTString@@A 00535654     CmdLine.obj
 0003:00049658       ?cmd_strPassword@@3VCTString@@A 00535658     CmdLine.obj
 0003:0004965c       ?cmd_strServer@@3VCTString@@A 0053565c     CmdLine.obj
 0003:00049660       ?cmd_strScript@@3VCTString@@A 00535660     CmdLine.obj
 0003:00049664       ?cmd_strWorld@@3VCTString@@A 00535664     CmdLine.obj
 0003:00049668       ?cmd_bServer@@3HA          00535668     CmdLine.obj
 0003:0004966c       ?cmd_bQuickJoin@@3HA       0053566c     CmdLine.obj
 0003:000496e8       ?_toStarField@@3VCTextureObject@@A 005356e8     GameEXE.obj
 0003:00049718       ?_hInstance@@3PAUHINSTANCE__@@A 00535718     GameEXE.obj
 0003:0004971c       ?pvpViewPort@@3PAVCViewPort@@A 0053571c     GameEXE.obj
 0003:00049720       ?pdpWideScreen@@3PAVCDrawPort@@A 00535720     GameEXE.obj
 0003:00049724       ?pdpNormal@@3PAVCDrawPort@@A 00535724     GameEXE.obj
 0003:00049728       ?pdp@@3PAVCDrawPort@@A     00535728     GameEXE.obj
 0003:0004972c       ?g_sTutorialFile@@3VCTString@@A 0053572c     GameEXE.obj
 0003:00049730       ?g_szVoiceOverPath@@3VCTString@@A 00535730     GameEXE.obj
 0003:00049738       ?soVoiceOver@@3VCSoundObject@@A 00535738     GameEXE.obj
 0003:000497b4       ?sam_strGameName@@3VCTString@@A 005357b4     GameEXE.obj
 0003:000497b8       ?sam_strModName@@3VCTString@@A 005357b8     GameEXE.obj
 0003:000497bc       ?sam_strVersion@@3VCTString@@A 005357bc     GameEXE.obj
 0003:00049820       ?_fnmAddonToExec@@3VCTFileName@@A 00535820     GameEXE.obj
 0003:00049828       ?_strURLToVisit@@3VCTString@@A 00535828     GameEXE.obj
 0003:0004982c       ?_strModServerJoin@@3VCTString@@A 0053582c     GameEXE.obj
 0003:00049830       ?_fnmModToLoad@@3VCTFileName@@A 00535830     GameEXE.obj
 0003:00049838       ?sam_strCommandLine@@3VCTString@@A 00535838     GameEXE.obj
 0003:0004983c       ?sam_strNetworkSettings@@3VCTString@@A 0053583c     GameEXE.obj
 0003:00049840       ?_fnmForCDCheck@@3VCTString@@A 00535840     GameEXE.obj
 0003:00049844       ?_pGame@@3PAVCGame@@A      00535844     GameEXE.obj
 0003:00049848       ?bMenuActive@@3HA          00535848     GameEXE.obj
 0003:0004984c       ?bMenuRendering@@3HA       0053584c     GameEXE.obj
 0003:00049854       ?_pixDesktopWidth@@3JA     00535854     GameEXE.obj
 0003:00049858       ?sam_bWideScreen@@3JA      00535858     GameEXE.obj
 0003:0004985c       ?sam_fPlayerOffset@@3MA    0053585c     GameEXE.obj
 0003:00049860       ?sam_iDisplayDepth@@3JA    00535860     GameEXE.obj
 0003:00049864       ?sam_iDisplayAdapter@@3JA  00535864     GameEXE.obj
 0003:00049868       ?sam_iGfxAPI@@3JA          00535868     GameEXE.obj
 0003:0004986c       ?sam_bShowAllLevels@@3JA   0053586c     GameEXE.obj
 0003:00049874       ?sam_bMenuSave@@3JA        00535874     GameEXE.obj
 0003:00049878       ?sam_bMenuLoad@@3JA        00535878     GameEXE.obj
 0003:0004987c       ?sam_bMenuControls@@3JA    0053587c     GameEXE.obj
 0003:00049880       ?sam_bMenuHiScore@@3JA     00535880     GameEXE.obj
 0003:00049884       ?sam_bToggleConsole@@3JA   00535884     GameEXE.obj
 0003:00049888       ?sam_iStartCredits@@3JA    00535888     GameEXE.obj
 0003:0004988c       ?_iAddonExecState@@3JA     0053588c     GameEXE.obj
 0003:00049890       ?_ptoLogoCT@@3PAVCTextureObject@@A 00535890     GameEXE.obj
 0003:00049894       ?_ptoLogoODI@@3PAVCTextureObject@@A 00535894     GameEXE.obj
 0003:00049898       ?_ptoLogoGSpy@@3PAVCTextureObject@@A 00535898     GameEXE.obj
 0003:0004989c       ?_ptoLogoEAX@@3PAVCTextureObject@@A 0053589c     GameEXE.obj
 0003:000498a0       ?g_fScaleX@@3MA            005358a0     GameEXE.obj
 0003:000498a4       ?g_fScaleY@@3MA            005358a4     GameEXE.obj
 0003:000498a8       ?g_pVoiceOver@@3PAVCRationalEntity@@A 005358a8     GameEXE.obj
 0003:000498ac       ?g_bWasDoingDemo@@3HA      005358ac     GameEXE.obj
 0003:000498b0       ?plr_bIsCheater@@3HA       005358b0     GameEXE.obj
 0003:000498bc       ?_bCDPathFound@@3HA        005358bc     GameEXE.obj
 0003:00049928       ?_strPreferencesDescription@@3VCTString@@A 00535928     GLSettings.obj
 0003:00049940       ?_lhFilteredLevels@@3VCListHead@@A 00535940     LevelInfo.obj
 0003:00049950       ?_lhAllLevels@@3VCListHead@@A 00535950     LevelInfo.obj
 0003:00049960       ?_lhAutoDemos@@3VCListHead@@A 00535960     LevelInfo.obj
 0003:00049a98       ?_bWindowChanging@@3HA     00535a98     MainWindow.obj
 0003:00049a9c       ?_hwndMain@@3PAUHWND__@@A  00535a9c     MainWindow.obj
 0003:00049af0       ?_ctLines@@3JA             00535af0     VarList.obj
 0003:00049af4       ?_strFile@@3VCTString@@A   00535af4     VarList.obj
 0003:00049af8       ?_lhVarSettings@@3VCListHead@@A 00535af8     VarList.obj
 0003:00049b0c       __dowildcard               00535b0c     MSVCRT:wildcard.obj
 0003:00049b10       __newmode                  00535b10     MSVCRT:_newmode.obj
 0003:00049b14       __commode                  00535b14     MSVCRT:xncommod.obj
 0003:00049b18       __fmode                    00535b18     MSVCRT:xtxtmode.obj
 0003:00049b1c       __adjust_fdiv              00535b1c     <common>
 0003:00049b20       ___onexitend               00535b20     <common>
 0003:00049b24       ___onexitbegin             00535b24     <common>

 entry point at        0001:000c6def

 Static symbols

 0001:000c5090       _$E15                      004c6090 f   VarList.obj
 0001:000c50a0       _$E14                      004c60a0 f   VarList.obj
 0001:000c50b0       _$E20                      004c60b0 f   VarList.obj
 0001:000c50c0       _$E17                      004c60c0 f   VarList.obj
 0001:000c50e0       _$E19                      004c60e0 f   VarList.obj
 0001:000c50f0       _$E18                      004c60f0 f   VarList.obj
 0001:000c4f80       ?SplashWindowProc@@YGJPAUHWND__@@IIJ@Z 004c5f80 f   SplashScreen.obj
 0001:000c2190       _$E15                      004c3190 f   LevelInfo.obj
 0001:000c21a0       _$E14                      004c31a0 f   LevelInfo.obj
 0001:000c21b0       _$E18                      004c31b0 f   LevelInfo.obj
 0001:000c21c0       _$E17                      004c31c0 f   LevelInfo.obj
 0001:000c21d0       _$E21                      004c31d0 f   LevelInfo.obj
 0001:000c21e0       _$E20                      004c31e0 f   LevelInfo.obj
 0001:000c1a70       _$E15                      004c2a70 f   GLSettings.obj
 0001:000c1a80       _$E14                      004c2a80 f   GLSettings.obj
 0001:000c1a90       _$E20                      004c2a90 f   GLSettings.obj
 0001:000c1aa0       _$E17                      004c2aa0 f   GLSettings.obj
 0001:000c1ac0       _$E19                      004c2ac0 f   GLSettings.obj
 0001:000c1ad0       _$E18                      004c2ad0 f   GLSettings.obj
 0001:000c1ae0       _$E25                      004c2ae0 f   GLSettings.obj
 0001:000c1af0       _$E22                      004c2af0 f   GLSettings.obj
 0001:000c1b10       _$E24                      004c2b10 f   GLSettings.obj
 0001:000c1b20       _$E23                      004c2b20 f   GLSettings.obj
 0001:000bcbe0       _$E17                      004bdbe0 f   GameEXE.obj
 0001:000bcbf0       _$E14                      004bdbf0 f   GameEXE.obj
 0001:000bcc10       _$E16                      004bdc10 f   GameEXE.obj
 0001:000bcc20       _$E15                      004bdc20 f   GameEXE.obj
 0001:000bcc30       _$E22                      004bdc30 f   GameEXE.obj
 0001:000bcc40       _$E19                      004bdc40 f   GameEXE.obj
 0001:000bcc60       _$E21                      004bdc60 f   GameEXE.obj
 0001:000bcc70       _$E20                      004bdc70 f   GameEXE.obj
 0001:000bcc80       _$E27                      004bdc80 f   GameEXE.obj
 0001:000bcc90       _$E24                      004bdc90 f   GameEXE.obj
 0001:000bccb0       _$E26                      004bdcb0 f   GameEXE.obj
 0001:000bccc0       _$E25                      004bdcc0 f   GameEXE.obj
 0001:000bccd0       _$E32                      004bdcd0 f   GameEXE.obj
 0001:000bcce0       _$E29                      004bdce0 f   GameEXE.obj
 0001:000bcd50       _$E31                      004bdd50 f   GameEXE.obj
 0001:000bcd60       _$E30                      004bdd60 f   GameEXE.obj
 0001:000bcd70       _$E37                      004bdd70 f   GameEXE.obj
 0001:000bcd80       _$E34                      004bdd80 f   GameEXE.obj
 0001:000bcda0       _$E36                      004bdda0 f   GameEXE.obj
 0001:000bcdb0       _$E35                      004bddb0 f   GameEXE.obj
 0001:000bcdc0       _$E42                      004bddc0 f   GameEXE.obj
 0001:000bcdd0       _$E39                      004bddd0 f   GameEXE.obj
 0001:000bcdf0       _$E41                      004bddf0 f   GameEXE.obj
 0001:000bce00       _$E40                      004bde00 f   GameEXE.obj
 0001:000bce10       _$E47                      004bde10 f   GameEXE.obj
 0001:000bce20       _$E44                      004bde20 f   GameEXE.obj
 0001:000bce90       _$E46                      004bde90 f   GameEXE.obj
 0001:000bcea0       _$E45                      004bdea0 f   GameEXE.obj
 0001:000bceb0       _$E52                      004bdeb0 f   GameEXE.obj
 0001:000bcec0       _$E49                      004bdec0 f   GameEXE.obj
 0001:000bced0       _$E51                      004bded0 f   GameEXE.obj
 0001:000bcee0       _$E50                      004bdee0 f   GameEXE.obj
 0001:000bcef0       _$E57                      004bdef0 f   GameEXE.obj
 0001:000bcf00       _$E54                      004bdf00 f   GameEXE.obj
 0001:000bcf10       _$E56                      004bdf10 f   GameEXE.obj
 0001:000bcf20       _$E55                      004bdf20 f   GameEXE.obj
 0001:000bcf30       _$E62                      004bdf30 f   GameEXE.obj
 0001:000bcf40       _$E59                      004bdf40 f   GameEXE.obj
 0001:000bcf50       _$E61                      004bdf50 f   GameEXE.obj
 0001:000bcf60       _$E60                      004bdf60 f   GameEXE.obj
 0001:000bcf70       _$E67                      004bdf70 f   GameEXE.obj
 0001:000bcf80       _$E64                      004bdf80 f   GameEXE.obj
 0001:000bcf90       _$E66                      004bdf90 f   GameEXE.obj
 0001:000bcfa0       _$E65                      004bdfa0 f   GameEXE.obj
 0001:000bcfb0       _$E72                      004bdfb0 f   GameEXE.obj
 0001:000bcfc0       _$E69                      004bdfc0 f   GameEXE.obj
 0001:000bcfe0       _$E71                      004bdfe0 f   GameEXE.obj
 0001:000bcff0       _$E70                      004bdff0 f   GameEXE.obj
 0001:000bd000       _$E77                      004be000 f   GameEXE.obj
 0001:000bd010       _$E74                      004be010 f   GameEXE.obj
 0001:000bd030       _$E76                      004be030 f   GameEXE.obj
 0001:000bd040       _$E75                      004be040 f   GameEXE.obj
 0001:000bd050       _$E82                      004be050 f   GameEXE.obj
 0001:000bd060       _$E79                      004be060 f   GameEXE.obj
 0001:000bd080       _$E81                      004be080 f   GameEXE.obj
 0001:000bd090       _$E80                      004be090 f   GameEXE.obj
 0001:000bd0a0       _$E87                      004be0a0 f   GameEXE.obj
 0001:000bd0b0       _$E84                      004be0b0 f   GameEXE.obj
 0001:000bd0c0       _$E86                      004be0c0 f   GameEXE.obj
 0001:000bd0d0       _$E85                      004be0d0 f   GameEXE.obj
 0001:000bd0e0       _$E92                      004be0e0 f   GameEXE.obj
 0001:000bd0f0       _$E89                      004be0f0 f   GameEXE.obj
 0001:000bd110       _$E91                      004be110 f   GameEXE.obj
 0001:000bd120       _$E90                      004be120 f   GameEXE.obj
 0001:000bd130       _$E97                      004be130 f   GameEXE.obj
 0001:000bd140       _$E94                      004be140 f   GameEXE.obj
 0001:000bd160       _$E96                      004be160 f   GameEXE.obj
 0001:000bd170       _$E95                      004be170 f   GameEXE.obj
 0001:000bd220       ?PlayTutorial@@YAXABVCTString@@@Z 004be220 f   GameEXE.obj
 0001:000bd370       _$E102                     004be370 f   GameEXE.obj
 0001:000bd380       _$E99                      004be380 f   GameEXE.obj
 0001:000bd390       _$E101                     004be390 f   GameEXE.obj
 0001:000bd3a0       _$E100                     004be3a0 f   GameEXE.obj
 0001:000bd600       _$E105                     004be600 f   GameEXE.obj
 0001:000befb0       ?PlayDemo@@YAXABVCTString@@@Z 004bffb0 f   GameEXE.obj
 0001:000bf090       ?ApplyRenderingPreferences@@YAXXZ 004c0090 f   GameEXE.obj
 0001:000bf0a0       ?BenchMark@@YAXXZ          004c00a0 f   GameEXE.obj
 0001:000bf0c0       ?QuitGame@@YAXXZ           004c00c0 f   GameEXE.obj
 0001:000bf0d0       ?DirectoryLockOn@@YAXXZ    004c00d0 f   GameEXE.obj
 0001:000bf260       ?DirectoryLockOff@@YAXXZ   004c0260 f   GameEXE.obj
 0001:000bfb00       _$E109                     004c0b00 f   GameEXE.obj
 0001:000bfb10       _$E106                     004c0b10 f   GameEXE.obj
 0001:000bfb20       _$E108                     004c0b20 f   GameEXE.obj
 0001:000bfb30       _$E107                     004c0b30 f   GameEXE.obj
 0001:000bc370       _$E17                      004bd370 f   Credits.obj
 0001:000bc380       _$E14                      004bd380 f   Credits.obj
 0001:000bc390       _$E16                      004bd390 f   Credits.obj
 0001:000bc3a0       _$E15                      004bd3a0 f   Credits.obj
 0001:000bc3b0       _$E22                      004bd3b0 f   Credits.obj
 0001:000bc3c0       _$E19                      004bd3c0 f   Credits.obj
 0001:000bc3e0       _$E21                      004bd3e0 f   Credits.obj
 0001:000bc3f0       _$E20                      004bd3f0 f   Credits.obj
 0001:000bc400       _$E25                      004bd400 f   Credits.obj
 0001:000bc410       _$E24                      004bd410 f   Credits.obj
 0001:000bc670       ?LoadOneFile@@YAXABVCTFileName@@@Z 004bd670 f   Credits.obj
 0001:000bb9d0       _$E17                      004bc9d0 f   CmdLine.obj
 0001:000bb9e0       _$E14                      004bc9e0 f   CmdLine.obj
 0001:000bba00       _$E16                      004bca00 f   CmdLine.obj
 0001:000bba10       _$E15                      004bca10 f   CmdLine.obj
 0001:000bba20       _$E22                      004bca20 f   CmdLine.obj
 0001:000bba30       _$E19                      004bca30 f   CmdLine.obj
 0001:000bba50       _$E21                      004bca50 f   CmdLine.obj
 0001:000bba60       _$E20                      004bca60 f   CmdLine.obj
 0001:000bba70       _$E27                      004bca70 f   CmdLine.obj
 0001:000bba80       _$E24                      004bca80 f   CmdLine.obj
 0001:000bbaa0       _$E26                      004bcaa0 f   CmdLine.obj
 0001:000bbab0       _$E25                      004bcab0 f   CmdLine.obj
 0001:000bbac0       _$E32                      004bcac0 f   CmdLine.obj
 0001:000bbad0       _$E29                      004bcad0 f   CmdLine.obj
 0001:000bbaf0       _$E31                      004bcaf0 f   CmdLine.obj
 0001:000bbb00       _$E30                      004bcb00 f   CmdLine.obj
 0001:000bbb10       _$E37                      004bcb10 f   CmdLine.obj
 0001:000bbb20       _$E34                      004bcb20 f   CmdLine.obj
 0001:000bbb40       _$E36                      004bcb40 f   CmdLine.obj
 0001:000bbb50       _$E35                      004bcb50 f   CmdLine.obj
 0001:000bbb60       _$E42                      004bcb60 f   CmdLine.obj
 0001:000bbb70       _$E39                      004bcb70 f   CmdLine.obj
 0001:000bbb90       _$E41                      004bcb90 f   CmdLine.obj
 0001:000bbba0       _$E40                      004bcba0 f   CmdLine.obj
 0001:000b5de0       _$E17                      004b6de0 f   LogbookTrophy.obj
 0001:000b5df0       _$E14                      004b6df0 f   LogbookTrophy.obj
 0001:000b5e10       _$E16                      004b6e10 f   LogbookTrophy.obj
 0001:000b5e20       _$E15                      004b6e20 f   LogbookTrophy.obj
 0001:000b5e30       _$E22                      004b6e30 f   LogbookTrophy.obj
 0001:000b5e40       _$E19                      004b6e40 f   LogbookTrophy.obj
 0001:000b5e60       _$E21                      004b6e60 f   LogbookTrophy.obj
 0001:000b5e70       _$E20                      004b6e70 f   LogbookTrophy.obj
 0001:000b5e80       _$E27                      004b6e80 f   LogbookTrophy.obj
 0001:000b5e90       _$E24                      004b6e90 f   LogbookTrophy.obj
 0001:000b5eb0       _$E26                      004b6eb0 f   LogbookTrophy.obj
 0001:000b5ec0       _$E25                      004b6ec0 f   LogbookTrophy.obj
 0001:000b5ed0       _$E32                      004b6ed0 f   LogbookTrophy.obj
 0001:000b5ee0       _$E29                      004b6ee0 f   LogbookTrophy.obj
 0001:000b5f00       _$E31                      004b6f00 f   LogbookTrophy.obj
 0001:000b5f10       _$E30                      004b6f10 f   LogbookTrophy.obj
 0001:000b5f20       _$E37                      004b6f20 f   LogbookTrophy.obj
 0001:000b5f30       _$E34                      004b6f30 f   LogbookTrophy.obj
 0001:000b5f50       _$E36                      004b6f50 f   LogbookTrophy.obj
 0001:000b5f60       _$E35                      004b6f60 f   LogbookTrophy.obj
 0001:000b5f70       _$E42                      004b6f70 f   LogbookTrophy.obj
 0001:000b5f80       _$E39                      004b6f80 f   LogbookTrophy.obj
 0001:000b5fa0       _$E41                      004b6fa0 f   LogbookTrophy.obj
 0001:000b5fb0       _$E40                      004b6fb0 f   LogbookTrophy.obj
 0001:000b5fc0       _$E47                      004b6fc0 f   LogbookTrophy.obj
 0001:000b5fd0       _$E44                      004b6fd0 f   LogbookTrophy.obj
 0001:000b5ff0       _$E46                      004b6ff0 f   LogbookTrophy.obj
 0001:000b6000       _$E45                      004b7000 f   LogbookTrophy.obj
 0001:000b6010       _$E52                      004b7010 f   LogbookTrophy.obj
 0001:000b6020       _$E49                      004b7020 f   LogbookTrophy.obj
 0001:000b6040       _$E51                      004b7040 f   LogbookTrophy.obj
 0001:000b6050       _$E50                      004b7050 f   LogbookTrophy.obj
 0001:000b6060       _$E57                      004b7060 f   LogbookTrophy.obj
 0001:000b6070       _$E54                      004b7070 f   LogbookTrophy.obj
 0001:000b6090       _$E56                      004b7090 f   LogbookTrophy.obj
 0001:000b60a0       _$E55                      004b70a0 f   LogbookTrophy.obj
 0001:000b60b0       _$E62                      004b70b0 f   LogbookTrophy.obj
 0001:000b60c0       _$E59                      004b70c0 f   LogbookTrophy.obj
 0001:000b60e0       _$E61                      004b70e0 f   LogbookTrophy.obj
 0001:000b60f0       _$E60                      004b70f0 f   LogbookTrophy.obj
 0001:000b6100       _$E67                      004b7100 f   LogbookTrophy.obj
 0001:000b6110       _$E64                      004b7110 f   LogbookTrophy.obj
 0001:000b6130       _$E66                      004b7130 f   LogbookTrophy.obj
 0001:000b6140       _$E65                      004b7140 f   LogbookTrophy.obj
 0001:000b6150       _$E72                      004b7150 f   LogbookTrophy.obj
 0001:000b6160       _$E69                      004b7160 f   LogbookTrophy.obj
 0001:000b6180       _$E71                      004b7180 f   LogbookTrophy.obj
 0001:000b6190       _$E70                      004b7190 f   LogbookTrophy.obj
 0001:000b61a0       _$E77                      004b71a0 f   LogbookTrophy.obj
 0001:000b61b0       _$E74                      004b71b0 f   LogbookTrophy.obj
 0001:000b61d0       _$E76                      004b71d0 f   LogbookTrophy.obj
 0001:000b61e0       _$E75                      004b71e0 f   LogbookTrophy.obj
 0001:000b61f0       _$E82                      004b71f0 f   LogbookTrophy.obj
 0001:000b6200       _$E79                      004b7200 f   LogbookTrophy.obj
 0001:000b6220       _$E81                      004b7220 f   LogbookTrophy.obj
 0001:000b6230       _$E80                      004b7230 f   LogbookTrophy.obj
 0001:000b6240       _$E87                      004b7240 f   LogbookTrophy.obj
 0001:000b6250       _$E84                      004b7250 f   LogbookTrophy.obj
 0001:000b6270       _$E86                      004b7270 f   LogbookTrophy.obj
 0001:000b6280       _$E85                      004b7280 f   LogbookTrophy.obj
 0001:000b6290       _$E92                      004b7290 f   LogbookTrophy.obj
 0001:000b62a0       _$E89                      004b72a0 f   LogbookTrophy.obj
 0001:000b62c0       _$E91                      004b72c0 f   LogbookTrophy.obj
 0001:000b62d0       _$E90                      004b72d0 f   LogbookTrophy.obj
 0001:000b62e0       _$E97                      004b72e0 f   LogbookTrophy.obj
 0001:000b62f0       _$E94                      004b72f0 f   LogbookTrophy.obj
 0001:000b6310       _$E96                      004b7310 f   LogbookTrophy.obj
 0001:000b6320       _$E95                      004b7320 f   LogbookTrophy.obj
 0001:000b6330       _$E102                     004b7330 f   LogbookTrophy.obj
 0001:000b6340       _$E99                      004b7340 f   LogbookTrophy.obj
 0001:000b6360       _$E101                     004b7360 f   LogbookTrophy.obj
 0001:000b6370       _$E100                     004b7370 f   LogbookTrophy.obj
 0001:000b6380       _$E107                     004b7380 f   LogbookTrophy.obj
 0001:000b6390       _$E104                     004b7390 f   LogbookTrophy.obj
 0001:000b63b0       _$E106                     004b73b0 f   LogbookTrophy.obj
 0001:000b63c0       _$E105                     004b73c0 f   LogbookTrophy.obj
 0001:000b63d0       _$E112                     004b73d0 f   LogbookTrophy.obj
 0001:000b63e0       _$E109                     004b73e0 f   LogbookTrophy.obj
 0001:000b6400       _$E111                     004b7400 f   LogbookTrophy.obj
 0001:000b6410       _$E110                     004b7410 f   LogbookTrophy.obj
 0001:000b6420       _$E117                     004b7420 f   LogbookTrophy.obj
 0001:000b6430       _$E114                     004b7430 f   LogbookTrophy.obj
 0001:000b6450       _$E116                     004b7450 f   LogbookTrophy.obj
 0001:000b6460       _$E115                     004b7460 f   LogbookTrophy.obj
 0001:000b6470       _$E122                     004b7470 f   LogbookTrophy.obj
 0001:000b6480       _$E119                     004b7480 f   LogbookTrophy.obj
 0001:000b64a0       _$E121                     004b74a0 f   LogbookTrophy.obj
 0001:000b64b0       _$E120                     004b74b0 f   LogbookTrophy.obj
 0001:000b64c0       _$E127                     004b74c0 f   LogbookTrophy.obj
 0001:000b64d0       _$E124                     004b74d0 f   LogbookTrophy.obj
 0001:000b64f0       _$E126                     004b74f0 f   LogbookTrophy.obj
 0001:000b6500       _$E125                     004b7500 f   LogbookTrophy.obj
 0001:000b6510       _$E132                     004b7510 f   LogbookTrophy.obj
 0001:000b6520       _$E129                     004b7520 f   LogbookTrophy.obj
 0001:000b6540       _$E131                     004b7540 f   LogbookTrophy.obj
 0001:000b6550       _$E130                     004b7550 f   LogbookTrophy.obj
 0001:000b6560       _$E137                     004b7560 f   LogbookTrophy.obj
 0001:000b6570       _$E134                     004b7570 f   LogbookTrophy.obj
 0001:000b6590       _$E136                     004b7590 f   LogbookTrophy.obj
 0001:000b65a0       _$E135                     004b75a0 f   LogbookTrophy.obj
 0001:000b65b0       _$E142                     004b75b0 f   LogbookTrophy.obj
 0001:000b65c0       _$E139                     004b75c0 f   LogbookTrophy.obj
 0001:000b65e0       _$E141                     004b75e0 f   LogbookTrophy.obj
 0001:000b65f0       _$E140                     004b75f0 f   LogbookTrophy.obj
 0001:000b6600       _$E147                     004b7600 f   LogbookTrophy.obj
 0001:000b6610       _$E144                     004b7610 f   LogbookTrophy.obj
 0001:000b6630       _$E146                     004b7630 f   LogbookTrophy.obj
 0001:000b6640       _$E145                     004b7640 f   LogbookTrophy.obj
 0001:000b6650       _$E152                     004b7650 f   LogbookTrophy.obj
 0001:000b6660       _$E149                     004b7660 f   LogbookTrophy.obj
 0001:000b6680       _$E151                     004b7680 f   LogbookTrophy.obj
 0001:000b6690       _$E150                     004b7690 f   LogbookTrophy.obj
 0001:000b66a0       _$E157                     004b76a0 f   LogbookTrophy.obj
 0001:000b66b0       _$E154                     004b76b0 f   LogbookTrophy.obj
 0001:000b66d0       _$E156                     004b76d0 f   LogbookTrophy.obj
 0001:000b66e0       _$E155                     004b76e0 f   LogbookTrophy.obj
 0001:000b66f0       _$E162                     004b76f0 f   LogbookTrophy.obj
 0001:000b6700       _$E159                     004b7700 f   LogbookTrophy.obj
 0001:000b6720       _$E161                     004b7720 f   LogbookTrophy.obj
 0001:000b6730       _$E160                     004b7730 f   LogbookTrophy.obj
 0001:000b6740       _$E167                     004b7740 f   LogbookTrophy.obj
 0001:000b6750       _$E164                     004b7750 f   LogbookTrophy.obj
 0001:000b6770       _$E166                     004b7770 f   LogbookTrophy.obj
 0001:000b6780       _$E165                     004b7780 f   LogbookTrophy.obj
 0001:000b6790       _$E172                     004b7790 f   LogbookTrophy.obj
 0001:000b67a0       _$E169                     004b77a0 f   LogbookTrophy.obj
 0001:000b67c0       _$E171                     004b77c0 f   LogbookTrophy.obj
 0001:000b67d0       _$E170                     004b77d0 f   LogbookTrophy.obj
 0001:000b67e0       _$E177                     004b77e0 f   LogbookTrophy.obj
 0001:000b67f0       _$E174                     004b77f0 f   LogbookTrophy.obj
 0001:000b6810       _$E176                     004b7810 f   LogbookTrophy.obj
 0001:000b6820       _$E175                     004b7820 f   LogbookTrophy.obj
 0001:000b6830       _$E182                     004b7830 f   LogbookTrophy.obj
 0001:000b6840       _$E179                     004b7840 f   LogbookTrophy.obj
 0001:000b6860       _$E181                     004b7860 f   LogbookTrophy.obj
 0001:000b6870       _$E180                     004b7870 f   LogbookTrophy.obj
 0001:000b6880       _$E187                     004b7880 f   LogbookTrophy.obj
 0001:000b6890       _$E184                     004b7890 f   LogbookTrophy.obj
 0001:000b68b0       _$E186                     004b78b0 f   LogbookTrophy.obj
 0001:000b68c0       _$E185                     004b78c0 f   LogbookTrophy.obj
 0001:000b68d0       _$E192                     004b78d0 f   LogbookTrophy.obj
 0001:000b68e0       _$E189                     004b78e0 f   LogbookTrophy.obj
 0001:000b6900       _$E191                     004b7900 f   LogbookTrophy.obj
 0001:000b6910       _$E190                     004b7910 f   LogbookTrophy.obj
 0001:000b6920       _$E197                     004b7920 f   LogbookTrophy.obj
 0001:000b6930       _$E194                     004b7930 f   LogbookTrophy.obj
 0001:000b6950       _$E196                     004b7950 f   LogbookTrophy.obj
 0001:000b6960       _$E195                     004b7960 f   LogbookTrophy.obj
 0001:000b6970       _$E202                     004b7970 f   LogbookTrophy.obj
 0001:000b6980       _$E199                     004b7980 f   LogbookTrophy.obj
 0001:000b69a0       _$E201                     004b79a0 f   LogbookTrophy.obj
 0001:000b69b0       _$E200                     004b79b0 f   LogbookTrophy.obj
 0001:000b69c0       _$E207                     004b79c0 f   LogbookTrophy.obj
 0001:000b69d0       _$E204                     004b79d0 f   LogbookTrophy.obj
 0001:000b69f0       _$E206                     004b79f0 f   LogbookTrophy.obj
 0001:000b6a00       _$E205                     004b7a00 f   LogbookTrophy.obj
 0001:000b6a10       _$E212                     004b7a10 f   LogbookTrophy.obj
 0001:000b6a20       _$E209                     004b7a20 f   LogbookTrophy.obj
 0001:000b6a40       _$E211                     004b7a40 f   LogbookTrophy.obj
 0001:000b6a50       _$E210                     004b7a50 f   LogbookTrophy.obj
 0001:000b6a60       _$E217                     004b7a60 f   LogbookTrophy.obj
 0001:000b6a70       _$E214                     004b7a70 f   LogbookTrophy.obj
 0001:000b6a90       _$E216                     004b7a90 f   LogbookTrophy.obj
 0001:000b6aa0       _$E215                     004b7aa0 f   LogbookTrophy.obj
 0001:000b6ab0       _$E222                     004b7ab0 f   LogbookTrophy.obj
 0001:000b6ac0       _$E219                     004b7ac0 f   LogbookTrophy.obj
 0001:000b6ae0       _$E221                     004b7ae0 f   LogbookTrophy.obj
 0001:000b6af0       _$E220                     004b7af0 f   LogbookTrophy.obj
 0001:000b6b00       _$E227                     004b7b00 f   LogbookTrophy.obj
 0001:000b6b10       _$E224                     004b7b10 f   LogbookTrophy.obj
 0001:000b6b30       _$E226                     004b7b30 f   LogbookTrophy.obj
 0001:000b6b40       _$E225                     004b7b40 f   LogbookTrophy.obj
 0001:000b6b50       _$E232                     004b7b50 f   LogbookTrophy.obj
 0001:000b6b60       _$E229                     004b7b60 f   LogbookTrophy.obj
 0001:000b6b80       _$E231                     004b7b80 f   LogbookTrophy.obj
 0001:000b6b90       _$E230                     004b7b90 f   LogbookTrophy.obj
 0001:000b6ba0       _$E237                     004b7ba0 f   LogbookTrophy.obj
 0001:000b6bb0       _$E234                     004b7bb0 f   LogbookTrophy.obj
 0001:000b6bd0       _$E236                     004b7bd0 f   LogbookTrophy.obj
 0001:000b6be0       _$E235                     004b7be0 f   LogbookTrophy.obj
 0001:000b6bf0       _$E242                     004b7bf0 f   LogbookTrophy.obj
 0001:000b6c00       _$E239                     004b7c00 f   LogbookTrophy.obj
 0001:000b6c20       _$E241                     004b7c20 f   LogbookTrophy.obj
 0001:000b6c30       _$E240                     004b7c30 f   LogbookTrophy.obj
 0001:000b6c40       _$E247                     004b7c40 f   LogbookTrophy.obj
 0001:000b6c50       _$E244                     004b7c50 f   LogbookTrophy.obj
 0001:000b6c70       _$E246                     004b7c70 f   LogbookTrophy.obj
 0001:000b6c80       _$E245                     004b7c80 f   LogbookTrophy.obj
 0001:000b6c90       _$E252                     004b7c90 f   LogbookTrophy.obj
 0001:000b6ca0       _$E249                     004b7ca0 f   LogbookTrophy.obj
 0001:000b6cc0       _$E251                     004b7cc0 f   LogbookTrophy.obj
 0001:000b6cd0       _$E250                     004b7cd0 f   LogbookTrophy.obj
 0001:000b6ce0       _$E257                     004b7ce0 f   LogbookTrophy.obj
 0001:000b6cf0       _$E254                     004b7cf0 f   LogbookTrophy.obj
 0001:000b6d10       _$E256                     004b7d10 f   LogbookTrophy.obj
 0001:000b6d20       _$E255                     004b7d20 f   LogbookTrophy.obj
 0001:000b6d30       _$E262                     004b7d30 f   LogbookTrophy.obj
 0001:000b6d40       _$E259                     004b7d40 f   LogbookTrophy.obj
 0001:000b6d60       _$E261                     004b7d60 f   LogbookTrophy.obj
 0001:000b6d70       _$E260                     004b7d70 f   LogbookTrophy.obj
 0001:000b6d80       _$E267                     004b7d80 f   LogbookTrophy.obj
 0001:000b6d90       _$E264                     004b7d90 f   LogbookTrophy.obj
 0001:000b6db0       _$E266                     004b7db0 f   LogbookTrophy.obj
 0001:000b6dc0       _$E265                     004b7dc0 f   LogbookTrophy.obj
 0001:000b6dd0       _$E272                     004b7dd0 f   LogbookTrophy.obj
 0001:000b6de0       _$E269                     004b7de0 f   LogbookTrophy.obj
 0001:000b6e00       _$E271                     004b7e00 f   LogbookTrophy.obj
 0001:000b6e10       _$E270                     004b7e10 f   LogbookTrophy.obj
 0001:000b6e20       _$E277                     004b7e20 f   LogbookTrophy.obj
 0001:000b6e30       _$E274                     004b7e30 f   LogbookTrophy.obj
 0001:000b6e50       _$E276                     004b7e50 f   LogbookTrophy.obj
 0001:000b6e60       _$E275                     004b7e60 f   LogbookTrophy.obj
 0001:000b6e70       _$E282                     004b7e70 f   LogbookTrophy.obj
 0001:000b6e80       _$E279                     004b7e80 f   LogbookTrophy.obj
 0001:000b6ea0       _$E281                     004b7ea0 f   LogbookTrophy.obj
 0001:000b6eb0       _$E280                     004b7eb0 f   LogbookTrophy.obj
 0001:000b6ec0       _$E287                     004b7ec0 f   LogbookTrophy.obj
 0001:000b6ed0       _$E284                     004b7ed0 f   LogbookTrophy.obj
 0001:000b6ef0       _$E286                     004b7ef0 f   LogbookTrophy.obj
 0001:000b6f00       _$E285                     004b7f00 f   LogbookTrophy.obj
 0001:000b6f10       _$E292                     004b7f10 f   LogbookTrophy.obj
 0001:000b6f20       _$E289                     004b7f20 f   LogbookTrophy.obj
 0001:000b6f40       _$E291                     004b7f40 f   LogbookTrophy.obj
 0001:000b6f50       _$E290                     004b7f50 f   LogbookTrophy.obj
 0001:000b6f60       _$E297                     004b7f60 f   LogbookTrophy.obj
 0001:000b6f70       _$E294                     004b7f70 f   LogbookTrophy.obj
 0001:000b6f90       _$E296                     004b7f90 f   LogbookTrophy.obj
 0001:000b6fa0       _$E295                     004b7fa0 f   LogbookTrophy.obj
 0001:000b6fb0       _$E302                     004b7fb0 f   LogbookTrophy.obj
 0001:000b6fc0       _$E299                     004b7fc0 f   LogbookTrophy.obj
 0001:000b6fe0       _$E301                     004b7fe0 f   LogbookTrophy.obj
 0001:000b6ff0       _$E300                     004b7ff0 f   LogbookTrophy.obj
 0001:000b7000       _$E307                     004b8000 f   LogbookTrophy.obj
 0001:000b7010       _$E304                     004b8010 f   LogbookTrophy.obj
 0001:000b7030       _$E306                     004b8030 f   LogbookTrophy.obj
 0001:000b7040       _$E305                     004b8040 f   LogbookTrophy.obj
 0001:000b7050       _$E312                     004b8050 f   LogbookTrophy.obj
 0001:000b7060       _$E309                     004b8060 f   LogbookTrophy.obj
 0001:000b7080       _$E311                     004b8080 f   LogbookTrophy.obj
 0001:000b7090       _$E310                     004b8090 f   LogbookTrophy.obj
 0001:000b70a0       _$E317                     004b80a0 f   LogbookTrophy.obj
 0001:000b70b0       _$E314                     004b80b0 f   LogbookTrophy.obj
 0001:000b70d0       _$E316                     004b80d0 f   LogbookTrophy.obj
 0001:000b70e0       _$E315                     004b80e0 f   LogbookTrophy.obj
 0001:000b70f0       _$E322                     004b80f0 f   LogbookTrophy.obj
 0001:000b7100       _$E319                     004b8100 f   LogbookTrophy.obj
 0001:000b7120       _$E321                     004b8120 f   LogbookTrophy.obj
 0001:000b7130       _$E320                     004b8130 f   LogbookTrophy.obj
 0001:000b7140       _$E327                     004b8140 f   LogbookTrophy.obj
 0001:000b7150       _$E324                     004b8150 f   LogbookTrophy.obj
 0001:000b7170       _$E326                     004b8170 f   LogbookTrophy.obj
 0001:000b7180       _$E325                     004b8180 f   LogbookTrophy.obj
 0001:000b7190       _$E332                     004b8190 f   LogbookTrophy.obj
 0001:000b71a0       _$E329                     004b81a0 f   LogbookTrophy.obj
 0001:000b71c0       _$E331                     004b81c0 f   LogbookTrophy.obj
 0001:000b71d0       _$E330                     004b81d0 f   LogbookTrophy.obj
 0001:000b71e0       _$E337                     004b81e0 f   LogbookTrophy.obj
 0001:000b71f0       _$E334                     004b81f0 f   LogbookTrophy.obj
 0001:000b7210       _$E336                     004b8210 f   LogbookTrophy.obj
 0001:000b7220       _$E335                     004b8220 f   LogbookTrophy.obj
 0001:000b7230       _$E342                     004b8230 f   LogbookTrophy.obj
 0001:000b7240       _$E339                     004b8240 f   LogbookTrophy.obj
 0001:000b7260       _$E341                     004b8260 f   LogbookTrophy.obj
 0001:000b7270       _$E340                     004b8270 f   LogbookTrophy.obj
 0001:000b7280       _$E347                     004b8280 f   LogbookTrophy.obj
 0001:000b7290       _$E344                     004b8290 f   LogbookTrophy.obj
 0001:000b72b0       _$E346                     004b82b0 f   LogbookTrophy.obj
 0001:000b72c0       _$E345                     004b82c0 f   LogbookTrophy.obj
 0001:000b72d0       _$E352                     004b82d0 f   LogbookTrophy.obj
 0001:000b72e0       _$E349                     004b82e0 f   LogbookTrophy.obj
 0001:000b7300       _$E351                     004b8300 f   LogbookTrophy.obj
 0001:000b7310       _$E350                     004b8310 f   LogbookTrophy.obj
 0001:000b7320       _$E357                     004b8320 f   LogbookTrophy.obj
 0001:000b7330       _$E354                     004b8330 f   LogbookTrophy.obj
 0001:000b7350       _$E356                     004b8350 f   LogbookTrophy.obj
 0001:000b7360       _$E355                     004b8360 f   LogbookTrophy.obj
 0001:000b7370       _$E362                     004b8370 f   LogbookTrophy.obj
 0001:000b7380       _$E359                     004b8380 f   LogbookTrophy.obj
 0001:000b73a0       _$E361                     004b83a0 f   LogbookTrophy.obj
 0001:000b73b0       _$E360                     004b83b0 f   LogbookTrophy.obj
 0001:000b73c0       _$E367                     004b83c0 f   LogbookTrophy.obj
 0001:000b73d0       _$E364                     004b83d0 f   LogbookTrophy.obj
 0001:000b73f0       _$E366                     004b83f0 f   LogbookTrophy.obj
 0001:000b7400       _$E365                     004b8400 f   LogbookTrophy.obj
 0001:000b7410       _$E372                     004b8410 f   LogbookTrophy.obj
 0001:000b7420       _$E369                     004b8420 f   LogbookTrophy.obj
 0001:000b7440       _$E371                     004b8440 f   LogbookTrophy.obj
 0001:000b7450       _$E370                     004b8450 f   LogbookTrophy.obj
 0001:000b7460       _$E377                     004b8460 f   LogbookTrophy.obj
 0001:000b7470       _$E374                     004b8470 f   LogbookTrophy.obj
 0001:000b7490       _$E376                     004b8490 f   LogbookTrophy.obj
 0001:000b74a0       _$E375                     004b84a0 f   LogbookTrophy.obj
 0001:000b74b0       _$E382                     004b84b0 f   LogbookTrophy.obj
 0001:000b74c0       _$E379                     004b84c0 f   LogbookTrophy.obj
 0001:000b74e0       _$E381                     004b84e0 f   LogbookTrophy.obj
 0001:000b74f0       _$E380                     004b84f0 f   LogbookTrophy.obj
 0001:000b7500       _$E387                     004b8500 f   LogbookTrophy.obj
 0001:000b7510       _$E384                     004b8510 f   LogbookTrophy.obj
 0001:000b7530       _$E386                     004b8530 f   LogbookTrophy.obj
 0001:000b7540       _$E385                     004b8540 f   LogbookTrophy.obj
 0001:000b7550       _$E392                     004b8550 f   LogbookTrophy.obj
 0001:000b7560       _$E389                     004b8560 f   LogbookTrophy.obj
 0001:000b7580       _$E391                     004b8580 f   LogbookTrophy.obj
 0001:000b7590       _$E390                     004b8590 f   LogbookTrophy.obj
 0001:000b75a0       _$E397                     004b85a0 f   LogbookTrophy.obj
 0001:000b75b0       _$E394                     004b85b0 f   LogbookTrophy.obj
 0001:000b75d0       _$E396                     004b85d0 f   LogbookTrophy.obj
 0001:000b75e0       _$E395                     004b85e0 f   LogbookTrophy.obj
 0001:000b75f0       _$E402                     004b85f0 f   LogbookTrophy.obj
 0001:000b7600       _$E399                     004b8600 f   LogbookTrophy.obj
 0001:000b7620       _$E401                     004b8620 f   LogbookTrophy.obj
 0001:000b7630       _$E400                     004b8630 f   LogbookTrophy.obj
 0001:000b7640       _$E407                     004b8640 f   LogbookTrophy.obj
 0001:000b7650       _$E404                     004b8650 f   LogbookTrophy.obj
 0001:000b7670       _$E406                     004b8670 f   LogbookTrophy.obj
 0001:000b7680       _$E405                     004b8680 f   LogbookTrophy.obj
 0001:000b7690       _$E412                     004b8690 f   LogbookTrophy.obj
 0001:000b76a0       _$E409                     004b86a0 f   LogbookTrophy.obj
 0001:000b76c0       _$E411                     004b86c0 f   LogbookTrophy.obj
 0001:000b76d0       _$E410                     004b86d0 f   LogbookTrophy.obj
 0001:000b76e0       _$E417                     004b86e0 f   LogbookTrophy.obj
 0001:000b76f0       _$E414                     004b86f0 f   LogbookTrophy.obj
 0001:000b7710       _$E416                     004b8710 f   LogbookTrophy.obj
 0001:000b7720       _$E415                     004b8720 f   LogbookTrophy.obj
 0001:000b7730       _$E422                     004b8730 f   LogbookTrophy.obj
 0001:000b7740       _$E419                     004b8740 f   LogbookTrophy.obj
 0001:000b7760       _$E421                     004b8760 f   LogbookTrophy.obj
 0001:000b7770       _$E420                     004b8770 f   LogbookTrophy.obj
 0001:000b7780       _$E427                     004b8780 f   LogbookTrophy.obj
 0001:000b7790       _$E424                     004b8790 f   LogbookTrophy.obj
 0001:000b77b0       _$E426                     004b87b0 f   LogbookTrophy.obj
 0001:000b77c0       _$E425                     004b87c0 f   LogbookTrophy.obj
 0001:000b77d0       _$E432                     004b87d0 f   LogbookTrophy.obj
 0001:000b77e0       _$E429                     004b87e0 f   LogbookTrophy.obj
 0001:000b7800       _$E431                     004b8800 f   LogbookTrophy.obj
 0001:000b7810       _$E430                     004b8810 f   LogbookTrophy.obj
 0001:000b7820       _$E437                     004b8820 f   LogbookTrophy.obj
 0001:000b7830       _$E434                     004b8830 f   LogbookTrophy.obj
 0001:000b7850       _$E436                     004b8850 f   LogbookTrophy.obj
 0001:000b7860       _$E435                     004b8860 f   LogbookTrophy.obj
 0001:000b7870       _$E442                     004b8870 f   LogbookTrophy.obj
 0001:000b7880       _$E439                     004b8880 f   LogbookTrophy.obj
 0001:000b78a0       _$E441                     004b88a0 f   LogbookTrophy.obj
 0001:000b78b0       _$E440                     004b88b0 f   LogbookTrophy.obj
 0001:000b78c0       _$E447                     004b88c0 f   LogbookTrophy.obj
 0001:000b78d0       _$E444                     004b88d0 f   LogbookTrophy.obj
 0001:000b78f0       _$E446                     004b88f0 f   LogbookTrophy.obj
 0001:000b7900       _$E445                     004b8900 f   LogbookTrophy.obj
 0001:000b7910       _$E452                     004b8910 f   LogbookTrophy.obj
 0001:000b7920       _$E449                     004b8920 f   LogbookTrophy.obj
 0001:000b7940       _$E451                     004b8940 f   LogbookTrophy.obj
 0001:000b7950       _$E450                     004b8950 f   LogbookTrophy.obj
 0001:000b7960       _$E457                     004b8960 f   LogbookTrophy.obj
 0001:000b7970       _$E454                     004b8970 f   LogbookTrophy.obj
 0001:000b7990       _$E456                     004b8990 f   LogbookTrophy.obj
 0001:000b79a0       _$E455                     004b89a0 f   LogbookTrophy.obj
 0001:000b79b0       _$E462                     004b89b0 f   LogbookTrophy.obj
 0001:000b79c0       _$E459                     004b89c0 f   LogbookTrophy.obj
 0001:000b79e0       _$E461                     004b89e0 f   LogbookTrophy.obj
 0001:000b79f0       _$E460                     004b89f0 f   LogbookTrophy.obj
 0001:000b7a00       _$E467                     004b8a00 f   LogbookTrophy.obj
 0001:000b7a10       _$E464                     004b8a10 f   LogbookTrophy.obj
 0001:000b7a30       _$E466                     004b8a30 f   LogbookTrophy.obj
 0001:000b7a40       _$E465                     004b8a40 f   LogbookTrophy.obj
 0001:000b7a50       _$E472                     004b8a50 f   LogbookTrophy.obj
 0001:000b7a60       _$E469                     004b8a60 f   LogbookTrophy.obj
 0001:000b7a80       _$E471                     004b8a80 f   LogbookTrophy.obj
 0001:000b7a90       _$E470                     004b8a90 f   LogbookTrophy.obj
 0001:000b7aa0       _$E477                     004b8aa0 f   LogbookTrophy.obj
 0001:000b7ab0       _$E474                     004b8ab0 f   LogbookTrophy.obj
 0001:000b7ad0       _$E476                     004b8ad0 f   LogbookTrophy.obj
 0001:000b7ae0       _$E475                     004b8ae0 f   LogbookTrophy.obj
 0001:000b7af0       _$E482                     004b8af0 f   LogbookTrophy.obj
 0001:000b7b00       _$E479                     004b8b00 f   LogbookTrophy.obj
 0001:000b7b20       _$E481                     004b8b20 f   LogbookTrophy.obj
 0001:000b7b30       _$E480                     004b8b30 f   LogbookTrophy.obj
 0001:000b7b40       _$E487                     004b8b40 f   LogbookTrophy.obj
 0001:000b7b50       _$E484                     004b8b50 f   LogbookTrophy.obj
 0001:000b7b70       _$E486                     004b8b70 f   LogbookTrophy.obj
 0001:000b7b80       _$E485                     004b8b80 f   LogbookTrophy.obj
 0001:000b7b90       _$E492                     004b8b90 f   LogbookTrophy.obj
 0001:000b7ba0       _$E489                     004b8ba0 f   LogbookTrophy.obj
 0001:000b7bc0       _$E491                     004b8bc0 f   LogbookTrophy.obj
 0001:000b7bd0       _$E490                     004b8bd0 f   LogbookTrophy.obj
 0001:000b7be0       _$E497                     004b8be0 f   LogbookTrophy.obj
 0001:000b7bf0       _$E494                     004b8bf0 f   LogbookTrophy.obj
 0001:000b7c10       _$E496                     004b8c10 f   LogbookTrophy.obj
 0001:000b7c20       _$E495                     004b8c20 f   LogbookTrophy.obj
 0001:000b7c30       _$E502                     004b8c30 f   LogbookTrophy.obj
 0001:000b7c40       _$E499                     004b8c40 f   LogbookTrophy.obj
 0001:000b7c60       _$E501                     004b8c60 f   LogbookTrophy.obj
 0001:000b7c70       _$E500                     004b8c70 f   LogbookTrophy.obj
 0001:000b7c80       _$E507                     004b8c80 f   LogbookTrophy.obj
 0001:000b7c90       _$E504                     004b8c90 f   LogbookTrophy.obj
 0001:000b7cb0       _$E506                     004b8cb0 f   LogbookTrophy.obj
 0001:000b7cc0       _$E505                     004b8cc0 f   LogbookTrophy.obj
 0001:000b7cd0       _$E512                     004b8cd0 f   LogbookTrophy.obj
 0001:000b7ce0       _$E509                     004b8ce0 f   LogbookTrophy.obj
 0001:000b7d00       _$E511                     004b8d00 f   LogbookTrophy.obj
 0001:000b7d10       _$E510                     004b8d10 f   LogbookTrophy.obj
 0001:000b7d20       _$E517                     004b8d20 f   LogbookTrophy.obj
 0001:000b7d30       _$E514                     004b8d30 f   LogbookTrophy.obj
 0001:000b7d50       _$E516                     004b8d50 f   LogbookTrophy.obj
 0001:000b7d60       _$E515                     004b8d60 f   LogbookTrophy.obj
 0001:000b7d70       _$E522                     004b8d70 f   LogbookTrophy.obj
 0001:000b7d80       _$E519                     004b8d80 f   LogbookTrophy.obj
 0001:000b7da0       _$E521                     004b8da0 f   LogbookTrophy.obj
 0001:000b7db0       _$E520                     004b8db0 f   LogbookTrophy.obj
 0001:000b7dc0       _$E527                     004b8dc0 f   LogbookTrophy.obj
 0001:000b7dd0       _$E524                     004b8dd0 f   LogbookTrophy.obj
 0001:000b7df0       _$E526                     004b8df0 f   LogbookTrophy.obj
 0001:000b7e00       _$E525                     004b8e00 f   LogbookTrophy.obj
 0001:000b7e10       _$E532                     004b8e10 f   LogbookTrophy.obj
 0001:000b7e20       _$E529                     004b8e20 f   LogbookTrophy.obj
 0001:000b7e40       _$E531                     004b8e40 f   LogbookTrophy.obj
 0001:000b7e50       _$E530                     004b8e50 f   LogbookTrophy.obj
 0001:000b7e60       _$E537                     004b8e60 f   LogbookTrophy.obj
 0001:000b7e70       _$E534                     004b8e70 f   LogbookTrophy.obj
 0001:000b7e90       _$E536                     004b8e90 f   LogbookTrophy.obj
 0001:000b7ea0       _$E535                     004b8ea0 f   LogbookTrophy.obj
 0001:000b7eb0       _$E542                     004b8eb0 f   LogbookTrophy.obj
 0001:000b7ec0       _$E539                     004b8ec0 f   LogbookTrophy.obj
 0001:000b7ee0       _$E541                     004b8ee0 f   LogbookTrophy.obj
 0001:000b7ef0       _$E540                     004b8ef0 f   LogbookTrophy.obj
 0001:000b7f00       _$E547                     004b8f00 f   LogbookTrophy.obj
 0001:000b7f10       _$E544                     004b8f10 f   LogbookTrophy.obj
 0001:000b7f30       _$E546                     004b8f30 f   LogbookTrophy.obj
 0001:000b7f40       _$E545                     004b8f40 f   LogbookTrophy.obj
 0001:000b7f50       _$E552                     004b8f50 f   LogbookTrophy.obj
 0001:000b7f60       _$E549                     004b8f60 f   LogbookTrophy.obj
 0001:000b7f80       _$E551                     004b8f80 f   LogbookTrophy.obj
 0001:000b7f90       _$E550                     004b8f90 f   LogbookTrophy.obj
 0001:000b7fa0       _$E557                     004b8fa0 f   LogbookTrophy.obj
 0001:000b7fb0       _$E554                     004b8fb0 f   LogbookTrophy.obj
 0001:000b7fd0       _$E556                     004b8fd0 f   LogbookTrophy.obj
 0001:000b7fe0       _$E555                     004b8fe0 f   LogbookTrophy.obj
 0001:000b7ff0       _$E562                     004b8ff0 f   LogbookTrophy.obj
 0001:000b8000       _$E559                     004b9000 f   LogbookTrophy.obj
 0001:000b8020       _$E561                     004b9020 f   LogbookTrophy.obj
 0001:000b8030       _$E560                     004b9030 f   LogbookTrophy.obj
 0001:000b8040       _$E567                     004b9040 f   LogbookTrophy.obj
 0001:000b8050       _$E564                     004b9050 f   LogbookTrophy.obj
 0001:000b8070       _$E566                     004b9070 f   LogbookTrophy.obj
 0001:000b8080       _$E565                     004b9080 f   LogbookTrophy.obj
 0001:000b8090       _$E572                     004b9090 f   LogbookTrophy.obj
 0001:000b80a0       _$E569                     004b90a0 f   LogbookTrophy.obj
 0001:000b80c0       _$E571                     004b90c0 f   LogbookTrophy.obj
 0001:000b80d0       _$E570                     004b90d0 f   LogbookTrophy.obj
 0001:000b80e0       _$E577                     004b90e0 f   LogbookTrophy.obj
 0001:000b80f0       _$E574                     004b90f0 f   LogbookTrophy.obj
 0001:000b8110       _$E576                     004b9110 f   LogbookTrophy.obj
 0001:000b8120       _$E575                     004b9120 f   LogbookTrophy.obj
 0001:000b8130       _$E582                     004b9130 f   LogbookTrophy.obj
 0001:000b8140       _$E579                     004b9140 f   LogbookTrophy.obj
 0001:000b8160       _$E581                     004b9160 f   LogbookTrophy.obj
 0001:000b8170       _$E580                     004b9170 f   LogbookTrophy.obj
 0001:000b8180       _$E587                     004b9180 f   LogbookTrophy.obj
 0001:000b8190       _$E584                     004b9190 f   LogbookTrophy.obj
 0001:000b81b0       _$E586                     004b91b0 f   LogbookTrophy.obj
 0001:000b81c0       _$E585                     004b91c0 f   LogbookTrophy.obj
 0001:000b81d0       _$E592                     004b91d0 f   LogbookTrophy.obj
 0001:000b81e0       _$E589                     004b91e0 f   LogbookTrophy.obj
 0001:000b8200       _$E591                     004b9200 f   LogbookTrophy.obj
 0001:000b8210       _$E590                     004b9210 f   LogbookTrophy.obj
 0001:000b8220       _$E597                     004b9220 f   LogbookTrophy.obj
 0001:000b8230       _$E594                     004b9230 f   LogbookTrophy.obj
 0001:000b8250       _$E596                     004b9250 f   LogbookTrophy.obj
 0001:000b8260       _$E595                     004b9260 f   LogbookTrophy.obj
 0001:000b8270       _$E602                     004b9270 f   LogbookTrophy.obj
 0001:000b8280       _$E599                     004b9280 f   LogbookTrophy.obj
 0001:000b82a0       _$E601                     004b92a0 f   LogbookTrophy.obj
 0001:000b82b0       _$E600                     004b92b0 f   LogbookTrophy.obj
 0001:000b82c0       _$E607                     004b92c0 f   LogbookTrophy.obj
 0001:000b82d0       _$E604                     004b92d0 f   LogbookTrophy.obj
 0001:000b82f0       _$E606                     004b92f0 f   LogbookTrophy.obj
 0001:000b8300       _$E605                     004b9300 f   LogbookTrophy.obj
 0001:000b8310       _$E612                     004b9310 f   LogbookTrophy.obj
 0001:000b8320       _$E609                     004b9320 f   LogbookTrophy.obj
 0001:000b8340       _$E611                     004b9340 f   LogbookTrophy.obj
 0001:000b8350       _$E610                     004b9350 f   LogbookTrophy.obj
 0001:000b8360       _$E617                     004b9360 f   LogbookTrophy.obj
 0001:000b8370       _$E614                     004b9370 f   LogbookTrophy.obj
 0001:000b8390       _$E616                     004b9390 f   LogbookTrophy.obj
 0001:000b83a0       _$E615                     004b93a0 f   LogbookTrophy.obj
 0001:000b83b0       _$E622                     004b93b0 f   LogbookTrophy.obj
 0001:000b83c0       _$E619                     004b93c0 f   LogbookTrophy.obj
 0001:000b83e0       _$E621                     004b93e0 f   LogbookTrophy.obj
 0001:000b83f0       _$E620                     004b93f0 f   LogbookTrophy.obj
 0001:000b8400       _$E627                     004b9400 f   LogbookTrophy.obj
 0001:000b8410       _$E624                     004b9410 f   LogbookTrophy.obj
 0001:000b8430       _$E626                     004b9430 f   LogbookTrophy.obj
 0001:000b8440       _$E625                     004b9440 f   LogbookTrophy.obj
 0001:000b8450       _$E632                     004b9450 f   LogbookTrophy.obj
 0001:000b8460       _$E629                     004b9460 f   LogbookTrophy.obj
 0001:000b8480       _$E631                     004b9480 f   LogbookTrophy.obj
 0001:000b8490       _$E630                     004b9490 f   LogbookTrophy.obj
 0001:000b84a0       _$E637                     004b94a0 f   LogbookTrophy.obj
 0001:000b84b0       _$E634                     004b94b0 f   LogbookTrophy.obj
 0001:000b84d0       _$E636                     004b94d0 f   LogbookTrophy.obj
 0001:000b84e0       _$E635                     004b94e0 f   LogbookTrophy.obj
 0001:000b84f0       _$E642                     004b94f0 f   LogbookTrophy.obj
 0001:000b8500       _$E639                     004b9500 f   LogbookTrophy.obj
 0001:000b8520       _$E641                     004b9520 f   LogbookTrophy.obj
 0001:000b8530       _$E640                     004b9530 f   LogbookTrophy.obj
 0001:000b8540       _$E647                     004b9540 f   LogbookTrophy.obj
 0001:000b8550       _$E644                     004b9550 f   LogbookTrophy.obj
 0001:000b8570       _$E646                     004b9570 f   LogbookTrophy.obj
 0001:000b8580       _$E645                     004b9580 f   LogbookTrophy.obj
 0001:000b8590       _$E652                     004b9590 f   LogbookTrophy.obj
 0001:000b85a0       _$E649                     004b95a0 f   LogbookTrophy.obj
 0001:000b85c0       _$E651                     004b95c0 f   LogbookTrophy.obj
 0001:000b85d0       _$E650                     004b95d0 f   LogbookTrophy.obj
 0001:000b85e0       _$E657                     004b95e0 f   LogbookTrophy.obj
 0001:000b85f0       _$E654                     004b95f0 f   LogbookTrophy.obj
 0001:000b8610       _$E656                     004b9610 f   LogbookTrophy.obj
 0001:000b8620       _$E655                     004b9620 f   LogbookTrophy.obj
 0001:000b8630       _$E662                     004b9630 f   LogbookTrophy.obj
 0001:000b8640       _$E659                     004b9640 f   LogbookTrophy.obj
 0001:000b8660       _$E661                     004b9660 f   LogbookTrophy.obj
 0001:000b8670       _$E660                     004b9670 f   LogbookTrophy.obj
 0001:000b8680       _$E667                     004b9680 f   LogbookTrophy.obj
 0001:000b8690       _$E664                     004b9690 f   LogbookTrophy.obj
 0001:000b86b0       _$E666                     004b96b0 f   LogbookTrophy.obj
 0001:000b86c0       _$E665                     004b96c0 f   LogbookTrophy.obj
 0001:000b86d0       _$E672                     004b96d0 f   LogbookTrophy.obj
 0001:000b86e0       _$E669                     004b96e0 f   LogbookTrophy.obj
 0001:000b8700       _$E671                     004b9700 f   LogbookTrophy.obj
 0001:000b8710       _$E670                     004b9710 f   LogbookTrophy.obj
 0001:000b8720       _$E677                     004b9720 f   LogbookTrophy.obj
 0001:000b8730       _$E674                     004b9730 f   LogbookTrophy.obj
 0001:000b8750       _$E676                     004b9750 f   LogbookTrophy.obj
 0001:000b8760       _$E675                     004b9760 f   LogbookTrophy.obj
 0001:000b8770       _$E682                     004b9770 f   LogbookTrophy.obj
 0001:000b8780       _$E679                     004b9780 f   LogbookTrophy.obj
 0001:000b87a0       _$E681                     004b97a0 f   LogbookTrophy.obj
 0001:000b87b0       _$E680                     004b97b0 f   LogbookTrophy.obj
 0001:000b87c0       _$E687                     004b97c0 f   LogbookTrophy.obj
 0001:000b87d0       _$E684                     004b97d0 f   LogbookTrophy.obj
 0001:000b87f0       _$E686                     004b97f0 f   LogbookTrophy.obj
 0001:000b8800       _$E685                     004b9800 f   LogbookTrophy.obj
 0001:000b8810       _$E692                     004b9810 f   LogbookTrophy.obj
 0001:000b8820       _$E689                     004b9820 f   LogbookTrophy.obj
 0001:000b8840       _$E691                     004b9840 f   LogbookTrophy.obj
 0001:000b8850       _$E690                     004b9850 f   LogbookTrophy.obj
 0001:000b8860       _$E697                     004b9860 f   LogbookTrophy.obj
 0001:000b8870       _$E694                     004b9870 f   LogbookTrophy.obj
 0001:000b8890       _$E696                     004b9890 f   LogbookTrophy.obj
 0001:000b88a0       _$E695                     004b98a0 f   LogbookTrophy.obj
 0001:000b88b0       _$E702                     004b98b0 f   LogbookTrophy.obj
 0001:000b88c0       _$E699                     004b98c0 f   LogbookTrophy.obj
 0001:000b88e0       _$E701                     004b98e0 f   LogbookTrophy.obj
 0001:000b88f0       _$E700                     004b98f0 f   LogbookTrophy.obj
 0001:000b8900       _$E707                     004b9900 f   LogbookTrophy.obj
 0001:000b8910       _$E704                     004b9910 f   LogbookTrophy.obj
 0001:000b8930       _$E706                     004b9930 f   LogbookTrophy.obj
 0001:000b8940       _$E705                     004b9940 f   LogbookTrophy.obj
 0001:000b8950       _$E712                     004b9950 f   LogbookTrophy.obj
 0001:000b8960       _$E709                     004b9960 f   LogbookTrophy.obj
 0001:000b8980       _$E711                     004b9980 f   LogbookTrophy.obj
 0001:000b8990       _$E710                     004b9990 f   LogbookTrophy.obj
 0001:000b89a0       _$E717                     004b99a0 f   LogbookTrophy.obj
 0001:000b89b0       _$E714                     004b99b0 f   LogbookTrophy.obj
 0001:000b89d0       _$E716                     004b99d0 f   LogbookTrophy.obj
 0001:000b89e0       _$E715                     004b99e0 f   LogbookTrophy.obj
 0001:000b89f0       _$E722                     004b99f0 f   LogbookTrophy.obj
 0001:000b8a00       _$E719                     004b9a00 f   LogbookTrophy.obj
 0001:000b8a20       _$E721                     004b9a20 f   LogbookTrophy.obj
 0001:000b8a30       _$E720                     004b9a30 f   LogbookTrophy.obj
 0001:000b8a40       _$E727                     004b9a40 f   LogbookTrophy.obj
 0001:000b8a50       _$E724                     004b9a50 f   LogbookTrophy.obj
 0001:000b8a70       _$E726                     004b9a70 f   LogbookTrophy.obj
 0001:000b8a80       _$E725                     004b9a80 f   LogbookTrophy.obj
 0001:000b8a90       _$E732                     004b9a90 f   LogbookTrophy.obj
 0001:000b8aa0       _$E729                     004b9aa0 f   LogbookTrophy.obj
 0001:000b8ac0       _$E731                     004b9ac0 f   LogbookTrophy.obj
 0001:000b8ad0       _$E730                     004b9ad0 f   LogbookTrophy.obj
 0001:000b8ae0       _$E737                     004b9ae0 f   LogbookTrophy.obj
 0001:000b8af0       _$E734                     004b9af0 f   LogbookTrophy.obj
 0001:000b8b10       _$E736                     004b9b10 f   LogbookTrophy.obj
 0001:000b8b20       _$E735                     004b9b20 f   LogbookTrophy.obj
 0001:000b8b30       _$E742                     004b9b30 f   LogbookTrophy.obj
 0001:000b8b40       _$E739                     004b9b40 f   LogbookTrophy.obj
 0001:000b8b60       _$E741                     004b9b60 f   LogbookTrophy.obj
 0001:000b8b70       _$E740                     004b9b70 f   LogbookTrophy.obj
 0001:000b8b80       _$E747                     004b9b80 f   LogbookTrophy.obj
 0001:000b8b90       _$E744                     004b9b90 f   LogbookTrophy.obj
 0001:000b8bb0       _$E746                     004b9bb0 f   LogbookTrophy.obj
 0001:000b8bc0       _$E745                     004b9bc0 f   LogbookTrophy.obj
 0001:000b8bd0       _$E752                     004b9bd0 f   LogbookTrophy.obj
 0001:000b8be0       _$E749                     004b9be0 f   LogbookTrophy.obj
 0001:000b8c00       _$E751                     004b9c00 f   LogbookTrophy.obj
 0001:000b8c10       _$E750                     004b9c10 f   LogbookTrophy.obj
 0001:000b8c20       _$E757                     004b9c20 f   LogbookTrophy.obj
 0001:000b8c30       _$E754                     004b9c30 f   LogbookTrophy.obj
 0001:000b8c50       _$E756                     004b9c50 f   LogbookTrophy.obj
 0001:000b8c60       _$E755                     004b9c60 f   LogbookTrophy.obj
 0001:000b8c70       _$E762                     004b9c70 f   LogbookTrophy.obj
 0001:000b8c80       _$E759                     004b9c80 f   LogbookTrophy.obj
 0001:000b8ca0       _$E761                     004b9ca0 f   LogbookTrophy.obj
 0001:000b8cb0       _$E760                     004b9cb0 f   LogbookTrophy.obj
 0001:000b8cc0       _$E767                     004b9cc0 f   LogbookTrophy.obj
 0001:000b8cd0       _$E764                     004b9cd0 f   LogbookTrophy.obj
 0001:000b8cf0       _$E766                     004b9cf0 f   LogbookTrophy.obj
 0001:000b8d00       _$E765                     004b9d00 f   LogbookTrophy.obj
 0001:000b8d10       _$E772                     004b9d10 f   LogbookTrophy.obj
 0001:000b8d20       _$E769                     004b9d20 f   LogbookTrophy.obj
 0001:000b8d40       _$E771                     004b9d40 f   LogbookTrophy.obj
 0001:000b8d50       _$E770                     004b9d50 f   LogbookTrophy.obj
 0001:000b8d60       _$E777                     004b9d60 f   LogbookTrophy.obj
 0001:000b8d70       _$E774                     004b9d70 f   LogbookTrophy.obj
 0001:000b8d90       _$E776                     004b9d90 f   LogbookTrophy.obj
 0001:000b8da0       _$E775                     004b9da0 f   LogbookTrophy.obj
 0001:000b8db0       _$E782                     004b9db0 f   LogbookTrophy.obj
 0001:000b8dc0       _$E779                     004b9dc0 f   LogbookTrophy.obj
 0001:000b8de0       _$E781                     004b9de0 f   LogbookTrophy.obj
 0001:000b8df0       _$E780                     004b9df0 f   LogbookTrophy.obj
 0001:000b8e00       _$E787                     004b9e00 f   LogbookTrophy.obj
 0001:000b8e10       _$E784                     004b9e10 f   LogbookTrophy.obj
 0001:000b8e30       _$E786                     004b9e30 f   LogbookTrophy.obj
 0001:000b8e40       _$E785                     004b9e40 f   LogbookTrophy.obj
 0001:000b8e50       _$E792                     004b9e50 f   LogbookTrophy.obj
 0001:000b8e60       _$E789                     004b9e60 f   LogbookTrophy.obj
 0001:000b8e80       _$E791                     004b9e80 f   LogbookTrophy.obj
 0001:000b8e90       _$E790                     004b9e90 f   LogbookTrophy.obj
 0001:000b8ea0       _$E797                     004b9ea0 f   LogbookTrophy.obj
 0001:000b8eb0       _$E794                     004b9eb0 f   LogbookTrophy.obj
 0001:000b8ed0       _$E796                     004b9ed0 f   LogbookTrophy.obj
 0001:000b8ee0       _$E795                     004b9ee0 f   LogbookTrophy.obj
 0001:000b8ef0       _$E802                     004b9ef0 f   LogbookTrophy.obj
 0001:000b8f00       _$E799                     004b9f00 f   LogbookTrophy.obj
 0001:000b8f20       _$E801                     004b9f20 f   LogbookTrophy.obj
 0001:000b8f30       _$E800                     004b9f30 f   LogbookTrophy.obj
 0001:000b8f40       _$E807                     004b9f40 f   LogbookTrophy.obj
 0001:000b8f50       _$E804                     004b9f50 f   LogbookTrophy.obj
 0001:000b8f70       _$E806                     004b9f70 f   LogbookTrophy.obj
 0001:000b8f80       _$E805                     004b9f80 f   LogbookTrophy.obj
 0001:000b8f90       _$E812                     004b9f90 f   LogbookTrophy.obj
 0001:000b8fa0       _$E809                     004b9fa0 f   LogbookTrophy.obj
 0001:000b8fc0       _$E811                     004b9fc0 f   LogbookTrophy.obj
 0001:000b8fd0       _$E810                     004b9fd0 f   LogbookTrophy.obj
 0001:000b8fe0       _$E817                     004b9fe0 f   LogbookTrophy.obj
 0001:000b8ff0       _$E814                     004b9ff0 f   LogbookTrophy.obj
 0001:000b9010       _$E816                     004ba010 f   LogbookTrophy.obj
 0001:000b9020       _$E815                     004ba020 f   LogbookTrophy.obj
 0001:000b9030       _$E822                     004ba030 f   LogbookTrophy.obj
 0001:000b9040       _$E819                     004ba040 f   LogbookTrophy.obj
 0001:000b9060       _$E821                     004ba060 f   LogbookTrophy.obj
 0001:000b9070       _$E820                     004ba070 f   LogbookTrophy.obj
 0001:000b9080       _$E827                     004ba080 f   LogbookTrophy.obj
 0001:000b9090       _$E824                     004ba090 f   LogbookTrophy.obj
 0001:000b90b0       _$E826                     004ba0b0 f   LogbookTrophy.obj
 0001:000b90c0       _$E825                     004ba0c0 f   LogbookTrophy.obj
 0001:000b90d0       _$E832                     004ba0d0 f   LogbookTrophy.obj
 0001:000b90e0       _$E829                     004ba0e0 f   LogbookTrophy.obj
 0001:000b9100       _$E831                     004ba100 f   LogbookTrophy.obj
 0001:000b9110       _$E830                     004ba110 f   LogbookTrophy.obj
 0001:000b9120       _$E837                     004ba120 f   LogbookTrophy.obj
 0001:000b9130       _$E834                     004ba130 f   LogbookTrophy.obj
 0001:000b9150       _$E836                     004ba150 f   LogbookTrophy.obj
 0001:000b9160       _$E835                     004ba160 f   LogbookTrophy.obj
 0001:000b9170       _$E842                     004ba170 f   LogbookTrophy.obj
 0001:000b9180       _$E839                     004ba180 f   LogbookTrophy.obj
 0001:000b91a0       _$E841                     004ba1a0 f   LogbookTrophy.obj
 0001:000b91b0       _$E840                     004ba1b0 f   LogbookTrophy.obj
 0001:000b91c0       _$E847                     004ba1c0 f   LogbookTrophy.obj
 0001:000b91d0       _$E844                     004ba1d0 f   LogbookTrophy.obj
 0001:000b91f0       _$E846                     004ba1f0 f   LogbookTrophy.obj
 0001:000b9200       _$E845                     004ba200 f   LogbookTrophy.obj
 0001:000b9210       _$E852                     004ba210 f   LogbookTrophy.obj
 0001:000b9220       _$E849                     004ba220 f   LogbookTrophy.obj
 0001:000b9240       _$E851                     004ba240 f   LogbookTrophy.obj
 0001:000b9250       _$E850                     004ba250 f   LogbookTrophy.obj
 0001:000b9260       _$E857                     004ba260 f   LogbookTrophy.obj
 0001:000b9270       _$E854                     004ba270 f   LogbookTrophy.obj
 0001:000b9290       _$E856                     004ba290 f   LogbookTrophy.obj
 0001:000b92a0       _$E855                     004ba2a0 f   LogbookTrophy.obj
 0001:000b92b0       _$E862                     004ba2b0 f   LogbookTrophy.obj
 0001:000b92c0       _$E859                     004ba2c0 f   LogbookTrophy.obj
 0001:000b92e0       _$E861                     004ba2e0 f   LogbookTrophy.obj
 0001:000b92f0       _$E860                     004ba2f0 f   LogbookTrophy.obj
 0001:000b9300       _$E867                     004ba300 f   LogbookTrophy.obj
 0001:000b9310       _$E864                     004ba310 f   LogbookTrophy.obj
 0001:000b9330       _$E866                     004ba330 f   LogbookTrophy.obj
 0001:000b9340       _$E865                     004ba340 f   LogbookTrophy.obj
 0001:000b9350       _$E872                     004ba350 f   LogbookTrophy.obj
 0001:000b9360       _$E869                     004ba360 f   LogbookTrophy.obj
 0001:000b9380       _$E871                     004ba380 f   LogbookTrophy.obj
 0001:000b9390       _$E870                     004ba390 f   LogbookTrophy.obj
 0001:000b93a0       _$E877                     004ba3a0 f   LogbookTrophy.obj
 0001:000b93b0       _$E874                     004ba3b0 f   LogbookTrophy.obj
 0001:000b93d0       _$E876                     004ba3d0 f   LogbookTrophy.obj
 0001:000b93e0       _$E875                     004ba3e0 f   LogbookTrophy.obj
 0001:000b93f0       _$E882                     004ba3f0 f   LogbookTrophy.obj
 0001:000b9400       _$E879                     004ba400 f   LogbookTrophy.obj
 0001:000b9420       _$E881                     004ba420 f   LogbookTrophy.obj
 0001:000b9430       _$E880                     004ba430 f   LogbookTrophy.obj
 0001:000b9440       _$E887                     004ba440 f   LogbookTrophy.obj
 0001:000b9450       _$E884                     004ba450 f   LogbookTrophy.obj
 0001:000b9470       _$E886                     004ba470 f   LogbookTrophy.obj
 0001:000b9480       _$E885                     004ba480 f   LogbookTrophy.obj
 0001:000b9490       _$E892                     004ba490 f   LogbookTrophy.obj
 0001:000b94a0       _$E889                     004ba4a0 f   LogbookTrophy.obj
 0001:000b94c0       _$E891                     004ba4c0 f   LogbookTrophy.obj
 0001:000b94d0       _$E890                     004ba4d0 f   LogbookTrophy.obj
 0001:000b94e0       _$E897                     004ba4e0 f   LogbookTrophy.obj
 0001:000b94f0       _$E894                     004ba4f0 f   LogbookTrophy.obj
 0001:000b9510       _$E896                     004ba510 f   LogbookTrophy.obj
 0001:000b9520       _$E895                     004ba520 f   LogbookTrophy.obj
 0001:000b9530       _$E902                     004ba530 f   LogbookTrophy.obj
 0001:000b9540       _$E899                     004ba540 f   LogbookTrophy.obj
 0001:000b9560       _$E901                     004ba560 f   LogbookTrophy.obj
 0001:000b9570       _$E900                     004ba570 f   LogbookTrophy.obj
 0001:000b9580       _$E907                     004ba580 f   LogbookTrophy.obj
 0001:000b9590       _$E904                     004ba590 f   LogbookTrophy.obj
 0001:000b95b0       _$E906                     004ba5b0 f   LogbookTrophy.obj
 0001:000b95c0       _$E905                     004ba5c0 f   LogbookTrophy.obj
 0001:000b95d0       _$E912                     004ba5d0 f   LogbookTrophy.obj
 0001:000b95e0       _$E909                     004ba5e0 f   LogbookTrophy.obj
 0001:000b9600       _$E911                     004ba600 f   LogbookTrophy.obj
 0001:000b9610       _$E910                     004ba610 f   LogbookTrophy.obj
 0001:000b9620       _$E917                     004ba620 f   LogbookTrophy.obj
 0001:000b9630       _$E914                     004ba630 f   LogbookTrophy.obj
 0001:000b9650       _$E916                     004ba650 f   LogbookTrophy.obj
 0001:000b9660       _$E915                     004ba660 f   LogbookTrophy.obj
 0001:000b9670       _$E922                     004ba670 f   LogbookTrophy.obj
 0001:000b9680       _$E919                     004ba680 f   LogbookTrophy.obj
 0001:000b96a0       _$E921                     004ba6a0 f   LogbookTrophy.obj
 0001:000b96b0       _$E920                     004ba6b0 f   LogbookTrophy.obj
 0001:000b96c0       _$E927                     004ba6c0 f   LogbookTrophy.obj
 0001:000b96d0       _$E924                     004ba6d0 f   LogbookTrophy.obj
 0001:000b96f0       _$E926                     004ba6f0 f   LogbookTrophy.obj
 0001:000b9700       _$E925                     004ba700 f   LogbookTrophy.obj
 0001:000b9710       _$E932                     004ba710 f   LogbookTrophy.obj
 0001:000b9720       _$E929                     004ba720 f   LogbookTrophy.obj
 0001:000b9740       _$E931                     004ba740 f   LogbookTrophy.obj
 0001:000b9750       _$E930                     004ba750 f   LogbookTrophy.obj
 0001:000b9760       _$E937                     004ba760 f   LogbookTrophy.obj
 0001:000b9770       _$E934                     004ba770 f   LogbookTrophy.obj
 0001:000b9790       _$E936                     004ba790 f   LogbookTrophy.obj
 0001:000b97a0       _$E935                     004ba7a0 f   LogbookTrophy.obj
 0001:000b97b0       _$E942                     004ba7b0 f   LogbookTrophy.obj
 0001:000b97c0       _$E939                     004ba7c0 f   LogbookTrophy.obj
 0001:000b97e0       _$E941                     004ba7e0 f   LogbookTrophy.obj
 0001:000b97f0       _$E940                     004ba7f0 f   LogbookTrophy.obj
 0001:000b9800       _$E947                     004ba800 f   LogbookTrophy.obj
 0001:000b9810       _$E944                     004ba810 f   LogbookTrophy.obj
 0001:000b9830       _$E946                     004ba830 f   LogbookTrophy.obj
 0001:000b9840       _$E945                     004ba840 f   LogbookTrophy.obj
 0001:000b9850       _$E952                     004ba850 f   LogbookTrophy.obj
 0001:000b9860       _$E949                     004ba860 f   LogbookTrophy.obj
 0001:000b9880       _$E951                     004ba880 f   LogbookTrophy.obj
 0001:000b9890       _$E950                     004ba890 f   LogbookTrophy.obj
 0001:000b98a0       _$E957                     004ba8a0 f   LogbookTrophy.obj
 0001:000b98b0       _$E954                     004ba8b0 f   LogbookTrophy.obj
 0001:000b98d0       _$E956                     004ba8d0 f   LogbookTrophy.obj
 0001:000b98e0       _$E955                     004ba8e0 f   LogbookTrophy.obj
 0001:000b98f0       _$E962                     004ba8f0 f   LogbookTrophy.obj
 0001:000b9900       _$E959                     004ba900 f   LogbookTrophy.obj
 0001:000b9920       _$E961                     004ba920 f   LogbookTrophy.obj
 0001:000b9930       _$E960                     004ba930 f   LogbookTrophy.obj
 0001:000b9940       _$E967                     004ba940 f   LogbookTrophy.obj
 0001:000b9950       _$E964                     004ba950 f   LogbookTrophy.obj
 0001:000b9970       _$E966                     004ba970 f   LogbookTrophy.obj
 0001:000b9980       _$E965                     004ba980 f   LogbookTrophy.obj
 0001:000b9990       _$E972                     004ba990 f   LogbookTrophy.obj
 0001:000b99a0       _$E969                     004ba9a0 f   LogbookTrophy.obj
 0001:000b99c0       _$E971                     004ba9c0 f   LogbookTrophy.obj
 0001:000b99d0       _$E970                     004ba9d0 f   LogbookTrophy.obj
 0001:000b99e0       _$E977                     004ba9e0 f   LogbookTrophy.obj
 0001:000b99f0       _$E974                     004ba9f0 f   LogbookTrophy.obj
 0001:000b9a10       _$E976                     004baa10 f   LogbookTrophy.obj
 0001:000b9a20       _$E975                     004baa20 f   LogbookTrophy.obj
 0001:000b9a30       _$E982                     004baa30 f   LogbookTrophy.obj
 0001:000b9a40       _$E979                     004baa40 f   LogbookTrophy.obj
 0001:000b9a60       _$E981                     004baa60 f   LogbookTrophy.obj
 0001:000b9a70       _$E980                     004baa70 f   LogbookTrophy.obj
 0001:000b9a80       _$E987                     004baa80 f   LogbookTrophy.obj
 0001:000b9a90       _$E984                     004baa90 f   LogbookTrophy.obj
 0001:000b9ab0       _$E986                     004baab0 f   LogbookTrophy.obj
 0001:000b9ac0       _$E985                     004baac0 f   LogbookTrophy.obj
 0001:000b9ad0       _$E992                     004baad0 f   LogbookTrophy.obj
 0001:000b9ae0       _$E989                     004baae0 f   LogbookTrophy.obj
 0001:000b9b00       _$E991                     004bab00 f   LogbookTrophy.obj
 0001:000b9b10       _$E990                     004bab10 f   LogbookTrophy.obj
 0001:000b9b20       _$E997                     004bab20 f   LogbookTrophy.obj
 0001:000b9b30       _$E994                     004bab30 f   LogbookTrophy.obj
 0001:000b9b50       _$E996                     004bab50 f   LogbookTrophy.obj
 0001:000b9b60       _$E995                     004bab60 f   LogbookTrophy.obj
 0001:000b9b70       _$E1002                    004bab70 f   LogbookTrophy.obj
 0001:000b9b80       _$E999                     004bab80 f   LogbookTrophy.obj
 0001:000b9ba0       _$E1001                    004baba0 f   LogbookTrophy.obj
 0001:000b9bb0       _$E1000                    004babb0 f   LogbookTrophy.obj
 0001:000b9bc0       _$E1007                    004babc0 f   LogbookTrophy.obj
 0001:000b9bd0       _$E1004                    004babd0 f   LogbookTrophy.obj
 0001:000b9bf0       _$E1006                    004babf0 f   LogbookTrophy.obj
 0001:000b9c00       _$E1005                    004bac00 f   LogbookTrophy.obj
 0001:000b9c10       _$E1012                    004bac10 f   LogbookTrophy.obj
 0001:000b9c20       _$E1009                    004bac20 f   LogbookTrophy.obj
 0001:000b9c40       _$E1011                    004bac40 f   LogbookTrophy.obj
 0001:000b9c50       _$E1010                    004bac50 f   LogbookTrophy.obj
 0001:000b9c60       _$E1017                    004bac60 f   LogbookTrophy.obj
 0001:000b9c70       _$E1014                    004bac70 f   LogbookTrophy.obj
 0001:000b9c90       _$E1016                    004bac90 f   LogbookTrophy.obj
 0001:000b9ca0       _$E1015                    004baca0 f   LogbookTrophy.obj
 0001:000b9cb0       _$E1022                    004bacb0 f   LogbookTrophy.obj
 0001:000b9cc0       _$E1019                    004bacc0 f   LogbookTrophy.obj
 0001:000b9ce0       _$E1021                    004bace0 f   LogbookTrophy.obj
 0001:000b9cf0       _$E1020                    004bacf0 f   LogbookTrophy.obj
 0001:000b9d00       _$E1027                    004bad00 f   LogbookTrophy.obj
 0001:000b9d10       _$E1024                    004bad10 f   LogbookTrophy.obj
 0001:000b9d30       _$E1026                    004bad30 f   LogbookTrophy.obj
 0001:000b9d40       _$E1025                    004bad40 f   LogbookTrophy.obj
 0001:000b9d50       _$E1032                    004bad50 f   LogbookTrophy.obj
 0001:000b9d60       _$E1029                    004bad60 f   LogbookTrophy.obj
 0001:000b9d80       _$E1031                    004bad80 f   LogbookTrophy.obj
 0001:000b9d90       _$E1030                    004bad90 f   LogbookTrophy.obj
 0001:000b9da0       _$E1037                    004bada0 f   LogbookTrophy.obj
 0001:000b9db0       _$E1034                    004badb0 f   LogbookTrophy.obj
 0001:000b9dd0       _$E1036                    004badd0 f   LogbookTrophy.obj
 0001:000b9de0       _$E1035                    004bade0 f   LogbookTrophy.obj
 0001:000b9df0       _$E1042                    004badf0 f   LogbookTrophy.obj
 0001:000b9e00       _$E1039                    004bae00 f   LogbookTrophy.obj
 0001:000b9e20       _$E1041                    004bae20 f   LogbookTrophy.obj
 0001:000b9e30       _$E1040                    004bae30 f   LogbookTrophy.obj
 0001:000b9e40       _$E1047                    004bae40 f   LogbookTrophy.obj
 0001:000b9e50       _$E1044                    004bae50 f   LogbookTrophy.obj
 0001:000b9e70       _$E1046                    004bae70 f   LogbookTrophy.obj
 0001:000b9e80       _$E1045                    004bae80 f   LogbookTrophy.obj
 0001:000b9e90       _$E1052                    004bae90 f   LogbookTrophy.obj
 0001:000b9ea0       _$E1049                    004baea0 f   LogbookTrophy.obj
 0001:000b9ec0       _$E1051                    004baec0 f   LogbookTrophy.obj
 0001:000b9ed0       _$E1050                    004baed0 f   LogbookTrophy.obj
 0001:000b9ee0       _$E1057                    004baee0 f   LogbookTrophy.obj
 0001:000b9ef0       _$E1054                    004baef0 f   LogbookTrophy.obj
 0001:000b9f10       _$E1056                    004baf10 f   LogbookTrophy.obj
 0001:000b9f20       _$E1055                    004baf20 f   LogbookTrophy.obj
 0001:000b9f30       _$E1062                    004baf30 f   LogbookTrophy.obj
 0001:000b9f40       _$E1059                    004baf40 f   LogbookTrophy.obj
 0001:000b9f60       _$E1061                    004baf60 f   LogbookTrophy.obj
 0001:000b9f70       _$E1060                    004baf70 f   LogbookTrophy.obj
 0001:000b9f80       _$E1067                    004baf80 f   LogbookTrophy.obj
 0001:000b9f90       _$E1064                    004baf90 f   LogbookTrophy.obj
 0001:000b9fb0       _$E1066                    004bafb0 f   LogbookTrophy.obj
 0001:000b9fc0       _$E1065                    004bafc0 f   LogbookTrophy.obj
 0001:000b9fd0       _$E1072                    004bafd0 f   LogbookTrophy.obj
 0001:000b9fe0       _$E1069                    004bafe0 f   LogbookTrophy.obj
 0001:000ba000       _$E1071                    004bb000 f   LogbookTrophy.obj
 0001:000ba010       _$E1070                    004bb010 f   LogbookTrophy.obj
 0001:000ba020       _$E1077                    004bb020 f   LogbookTrophy.obj
 0001:000ba030       _$E1074                    004bb030 f   LogbookTrophy.obj
 0001:000ba050       _$E1076                    004bb050 f   LogbookTrophy.obj
 0001:000ba060       _$E1075                    004bb060 f   LogbookTrophy.obj
 0001:000ba070       _$E1082                    004bb070 f   LogbookTrophy.obj
 0001:000ba080       _$E1079                    004bb080 f   LogbookTrophy.obj
 0001:000ba0a0       _$E1081                    004bb0a0 f   LogbookTrophy.obj
 0001:000ba0b0       _$E1080                    004bb0b0 f   LogbookTrophy.obj
 0001:000ba0c0       _$E1087                    004bb0c0 f   LogbookTrophy.obj
 0001:000ba0d0       _$E1084                    004bb0d0 f   LogbookTrophy.obj
 0001:000ba0f0       _$E1086                    004bb0f0 f   LogbookTrophy.obj
 0001:000ba100       _$E1085                    004bb100 f   LogbookTrophy.obj
 0001:000ba110       _$E1092                    004bb110 f   LogbookTrophy.obj
 0001:000ba120       _$E1089                    004bb120 f   LogbookTrophy.obj
 0001:000ba140       _$E1091                    004bb140 f   LogbookTrophy.obj
 0001:000ba150       _$E1090                    004bb150 f   LogbookTrophy.obj
 0001:000ba160       _$E1097                    004bb160 f   LogbookTrophy.obj
 0001:000ba170       _$E1094                    004bb170 f   LogbookTrophy.obj
 0001:000ba190       _$E1096                    004bb190 f   LogbookTrophy.obj
 0001:000ba1a0       _$E1095                    004bb1a0 f   LogbookTrophy.obj
 0001:000ba1b0       _$E1102                    004bb1b0 f   LogbookTrophy.obj
 0001:000ba1c0       _$E1099                    004bb1c0 f   LogbookTrophy.obj
 0001:000ba1e0       _$E1101                    004bb1e0 f   LogbookTrophy.obj
 0001:000ba1f0       _$E1100                    004bb1f0 f   LogbookTrophy.obj
 0001:000ba200       _$E1107                    004bb200 f   LogbookTrophy.obj
 0001:000ba210       _$E1104                    004bb210 f   LogbookTrophy.obj
 0001:000ba230       _$E1106                    004bb230 f   LogbookTrophy.obj
 0001:000ba240       _$E1105                    004bb240 f   LogbookTrophy.obj
 0001:000ba250       _$E1112                    004bb250 f   LogbookTrophy.obj
 0001:000ba260       _$E1109                    004bb260 f   LogbookTrophy.obj
 0001:000ba280       _$E1111                    004bb280 f   LogbookTrophy.obj
 0001:000ba290       _$E1110                    004bb290 f   LogbookTrophy.obj
 0001:000ba2a0       _$E1117                    004bb2a0 f   LogbookTrophy.obj
 0001:000ba2b0       _$E1114                    004bb2b0 f   LogbookTrophy.obj
 0001:000ba2d0       _$E1116                    004bb2d0 f   LogbookTrophy.obj
 0001:000ba2e0       _$E1115                    004bb2e0 f   LogbookTrophy.obj
 0001:000ba2f0       _$E1122                    004bb2f0 f   LogbookTrophy.obj
 0001:000ba300       _$E1119                    004bb300 f   LogbookTrophy.obj
 0001:000ba320       _$E1121                    004bb320 f   LogbookTrophy.obj
 0001:000ba330       _$E1120                    004bb330 f   LogbookTrophy.obj
 0001:000ba340       _$E1127                    004bb340 f   LogbookTrophy.obj
 0001:000ba350       _$E1124                    004bb350 f   LogbookTrophy.obj
 0001:000ba370       _$E1126                    004bb370 f   LogbookTrophy.obj
 0001:000ba380       _$E1125                    004bb380 f   LogbookTrophy.obj
 0001:000ba390       _$E1132                    004bb390 f   LogbookTrophy.obj
 0001:000ba3a0       _$E1129                    004bb3a0 f   LogbookTrophy.obj
 0001:000ba3c0       _$E1131                    004bb3c0 f   LogbookTrophy.obj
 0001:000ba3d0       _$E1130                    004bb3d0 f   LogbookTrophy.obj
 0001:000ba3e0       _$E1137                    004bb3e0 f   LogbookTrophy.obj
 0001:000ba3f0       _$E1134                    004bb3f0 f   LogbookTrophy.obj
 0001:000ba410       _$E1136                    004bb410 f   LogbookTrophy.obj
 0001:000ba420       _$E1135                    004bb420 f   LogbookTrophy.obj
 0001:000ba430       _$E1142                    004bb430 f   LogbookTrophy.obj
 0001:000ba440       _$E1139                    004bb440 f   LogbookTrophy.obj
 0001:000ba460       _$E1141                    004bb460 f   LogbookTrophy.obj
 0001:000ba470       _$E1140                    004bb470 f   LogbookTrophy.obj
 0001:000ba480       _$E1147                    004bb480 f   LogbookTrophy.obj
 0001:000ba490       _$E1144                    004bb490 f   LogbookTrophy.obj
 0001:000ba4b0       _$E1146                    004bb4b0 f   LogbookTrophy.obj
 0001:000ba4c0       _$E1145                    004bb4c0 f   LogbookTrophy.obj
 0001:000ba4d0       _$E1152                    004bb4d0 f   LogbookTrophy.obj
 0001:000ba4e0       _$E1149                    004bb4e0 f   LogbookTrophy.obj
 0001:000ba500       _$E1151                    004bb500 f   LogbookTrophy.obj
 0001:000ba510       _$E1150                    004bb510 f   LogbookTrophy.obj
 0001:000ba520       _$E1157                    004bb520 f   LogbookTrophy.obj
 0001:000ba530       _$E1154                    004bb530 f   LogbookTrophy.obj
 0001:000ba550       _$E1156                    004bb550 f   LogbookTrophy.obj
 0001:000ba560       _$E1155                    004bb560 f   LogbookTrophy.obj
 0001:000ba570       _$E1162                    004bb570 f   LogbookTrophy.obj
 0001:000ba580       _$E1159                    004bb580 f   LogbookTrophy.obj
 0001:000ba5a0       _$E1161                    004bb5a0 f   LogbookTrophy.obj
 0001:000ba5b0       _$E1160                    004bb5b0 f   LogbookTrophy.obj
 0001:000ba5c0       _$E1167                    004bb5c0 f   LogbookTrophy.obj
 0001:000ba5d0       _$E1164                    004bb5d0 f   LogbookTrophy.obj
 0001:000ba5f0       _$E1166                    004bb5f0 f   LogbookTrophy.obj
 0001:000ba600       _$E1165                    004bb600 f   LogbookTrophy.obj
 0001:000ba610       _$E1172                    004bb610 f   LogbookTrophy.obj
 0001:000ba620       _$E1169                    004bb620 f   LogbookTrophy.obj
 0001:000ba640       _$E1171                    004bb640 f   LogbookTrophy.obj
 0001:000ba650       _$E1170                    004bb650 f   LogbookTrophy.obj
 0001:000ba660       _$E1177                    004bb660 f   LogbookTrophy.obj
 0001:000ba670       _$E1174                    004bb670 f   LogbookTrophy.obj
 0001:000ba690       _$E1176                    004bb690 f   LogbookTrophy.obj
 0001:000ba6a0       _$E1175                    004bb6a0 f   LogbookTrophy.obj
 0001:000ba6b0       _$E1182                    004bb6b0 f   LogbookTrophy.obj
 0001:000ba6c0       _$E1179                    004bb6c0 f   LogbookTrophy.obj
 0001:000ba6e0       _$E1181                    004bb6e0 f   LogbookTrophy.obj
 0001:000ba6f0       _$E1180                    004bb6f0 f   LogbookTrophy.obj
 0001:000ba700       _$E1187                    004bb700 f   LogbookTrophy.obj
 0001:000ba710       _$E1184                    004bb710 f   LogbookTrophy.obj
 0001:000ba730       _$E1186                    004bb730 f   LogbookTrophy.obj
 0001:000ba740       _$E1185                    004bb740 f   LogbookTrophy.obj
 0001:000ba750       _$E1192                    004bb750 f   LogbookTrophy.obj
 0001:000ba760       _$E1189                    004bb760 f   LogbookTrophy.obj
 0001:000ba780       _$E1191                    004bb780 f   LogbookTrophy.obj
 0001:000ba790       _$E1190                    004bb790 f   LogbookTrophy.obj
 0001:000ba7a0       _$E1197                    004bb7a0 f   LogbookTrophy.obj
 0001:000ba7b0       _$E1194                    004bb7b0 f   LogbookTrophy.obj
 0001:000ba7d0       _$E1196                    004bb7d0 f   LogbookTrophy.obj
 0001:000ba7e0       _$E1195                    004bb7e0 f   LogbookTrophy.obj
 0001:000ba7f0       _$E1202                    004bb7f0 f   LogbookTrophy.obj
 0001:000ba800       _$E1199                    004bb800 f   LogbookTrophy.obj
 0001:000ba820       _$E1201                    004bb820 f   LogbookTrophy.obj
 0001:000ba830       _$E1200                    004bb830 f   LogbookTrophy.obj
 0001:000ba840       _$E1207                    004bb840 f   LogbookTrophy.obj
 0001:000ba850       _$E1204                    004bb850 f   LogbookTrophy.obj
 0001:000ba870       _$E1206                    004bb870 f   LogbookTrophy.obj
 0001:000ba880       _$E1205                    004bb880 f   LogbookTrophy.obj
 0001:000ba890       _$E1212                    004bb890 f   LogbookTrophy.obj
 0001:000ba8a0       _$E1209                    004bb8a0 f   LogbookTrophy.obj
 0001:000ba8c0       _$E1211                    004bb8c0 f   LogbookTrophy.obj
 0001:000ba8d0       _$E1210                    004bb8d0 f   LogbookTrophy.obj
 0001:000ba8e0       _$E1217                    004bb8e0 f   LogbookTrophy.obj
 0001:000ba8f0       _$E1214                    004bb8f0 f   LogbookTrophy.obj
 0001:000ba910       _$E1216                    004bb910 f   LogbookTrophy.obj
 0001:000ba920       _$E1215                    004bb920 f   LogbookTrophy.obj
 0001:000ba930       _$E1222                    004bb930 f   LogbookTrophy.obj
 0001:000ba940       _$E1219                    004bb940 f   LogbookTrophy.obj
 0001:000ba960       _$E1221                    004bb960 f   LogbookTrophy.obj
 0001:000ba970       _$E1220                    004bb970 f   LogbookTrophy.obj
 0001:000ba980       _$E1227                    004bb980 f   LogbookTrophy.obj
 0001:000ba990       _$E1224                    004bb990 f   LogbookTrophy.obj
 0001:000ba9b0       _$E1226                    004bb9b0 f   LogbookTrophy.obj
 0001:000ba9c0       _$E1225                    004bb9c0 f   LogbookTrophy.obj
 0001:000ba9d0       _$E1232                    004bb9d0 f   LogbookTrophy.obj
 0001:000ba9e0       _$E1229                    004bb9e0 f   LogbookTrophy.obj
 0001:000baa00       _$E1231                    004bba00 f   LogbookTrophy.obj
 0001:000baa10       _$E1230                    004bba10 f   LogbookTrophy.obj
 0001:000baa20       _$E1237                    004bba20 f   LogbookTrophy.obj
 0001:000baa30       _$E1234                    004bba30 f   LogbookTrophy.obj
 0001:000baa50       _$E1236                    004bba50 f   LogbookTrophy.obj
 0001:000baa60       _$E1235                    004bba60 f   LogbookTrophy.obj
 0001:000baa70       _$E1242                    004bba70 f   LogbookTrophy.obj
 0001:000baa80       _$E1239                    004bba80 f   LogbookTrophy.obj
 0001:000baaa0       _$E1241                    004bbaa0 f   LogbookTrophy.obj
 0001:000baab0       _$E1240                    004bbab0 f   LogbookTrophy.obj
 0001:000baac0       _$E1247                    004bbac0 f   LogbookTrophy.obj
 0001:000baad0       _$E1244                    004bbad0 f   LogbookTrophy.obj
 0001:000baaf0       _$E1246                    004bbaf0 f   LogbookTrophy.obj
 0001:000bab00       _$E1245                    004bbb00 f   LogbookTrophy.obj
 0001:000bab10       _$E1252                    004bbb10 f   LogbookTrophy.obj
 0001:000bab20       _$E1249                    004bbb20 f   LogbookTrophy.obj
 0001:000bab40       _$E1251                    004bbb40 f   LogbookTrophy.obj
 0001:000bab50       _$E1250                    004bbb50 f   LogbookTrophy.obj
 0001:000bab60       _$E1257                    004bbb60 f   LogbookTrophy.obj
 0001:000bab70       _$E1254                    004bbb70 f   LogbookTrophy.obj
 0001:000bab90       _$E1256                    004bbb90 f   LogbookTrophy.obj
 0001:000baba0       _$E1255                    004bbba0 f   LogbookTrophy.obj
 0001:000babb0       _$E1262                    004bbbb0 f   LogbookTrophy.obj
 0001:000babc0       _$E1259                    004bbbc0 f   LogbookTrophy.obj
 0001:000babe0       _$E1261                    004bbbe0 f   LogbookTrophy.obj
 0001:000babf0       _$E1260                    004bbbf0 f   LogbookTrophy.obj
 0001:000bac00       _$E1267                    004bbc00 f   LogbookTrophy.obj
 0001:000bac10       _$E1264                    004bbc10 f   LogbookTrophy.obj
 0001:000bac30       _$E1266                    004bbc30 f   LogbookTrophy.obj
 0001:000bac40       _$E1265                    004bbc40 f   LogbookTrophy.obj
 0001:000af3e0       _$E17                      004b03e0 f   HunterInfoStage.obj
 0001:000af3f0       _$E14                      004b03f0 f   HunterInfoStage.obj
 0001:000af410       _$E16                      004b0410 f   HunterInfoStage.obj
 0001:000af420       _$E15                      004b0420 f   HunterInfoStage.obj
 0001:000af430       _$E22                      004b0430 f   HunterInfoStage.obj
 0001:000af440       _$E19                      004b0440 f   HunterInfoStage.obj
 0001:000af460       _$E21                      004b0460 f   HunterInfoStage.obj
 0001:000af470       _$E20                      004b0470 f   HunterInfoStage.obj
 0001:000af480       _$E27                      004b0480 f   HunterInfoStage.obj
 0001:000af490       _$E24                      004b0490 f   HunterInfoStage.obj
 0001:000af4b0       _$E26                      004b04b0 f   HunterInfoStage.obj
 0001:000af4c0       _$E25                      004b04c0 f   HunterInfoStage.obj
 0001:000af4d0       _$E32                      004b04d0 f   HunterInfoStage.obj
 0001:000af4e0       _$E29                      004b04e0 f   HunterInfoStage.obj
 0001:000af500       _$E31                      004b0500 f   HunterInfoStage.obj
 0001:000af510       _$E30                      004b0510 f   HunterInfoStage.obj
 0001:000af520       _$E37                      004b0520 f   HunterInfoStage.obj
 0001:000af530       _$E34                      004b0530 f   HunterInfoStage.obj
 0001:000af550       _$E36                      004b0550 f   HunterInfoStage.obj
 0001:000af560       _$E35                      004b0560 f   HunterInfoStage.obj
 0001:000af570       _$E42                      004b0570 f   HunterInfoStage.obj
 0001:000af580       _$E39                      004b0580 f   HunterInfoStage.obj
 0001:000af5a0       _$E41                      004b05a0 f   HunterInfoStage.obj
 0001:000af5b0       _$E40                      004b05b0 f   HunterInfoStage.obj
 0001:000af5c0       _$E47                      004b05c0 f   HunterInfoStage.obj
 0001:000af5d0       _$E44                      004b05d0 f   HunterInfoStage.obj
 0001:000af5f0       _$E46                      004b05f0 f   HunterInfoStage.obj
 0001:000af600       _$E45                      004b0600 f   HunterInfoStage.obj
 0001:000af610       _$E52                      004b0610 f   HunterInfoStage.obj
 0001:000af620       _$E49                      004b0620 f   HunterInfoStage.obj
 0001:000af640       _$E51                      004b0640 f   HunterInfoStage.obj
 0001:000af650       _$E50                      004b0650 f   HunterInfoStage.obj
 0001:000af660       _$E57                      004b0660 f   HunterInfoStage.obj
 0001:000af670       _$E54                      004b0670 f   HunterInfoStage.obj
 0001:000af690       _$E56                      004b0690 f   HunterInfoStage.obj
 0001:000af6a0       _$E55                      004b06a0 f   HunterInfoStage.obj
 0001:000af6b0       _$E62                      004b06b0 f   HunterInfoStage.obj
 0001:000af6c0       _$E59                      004b06c0 f   HunterInfoStage.obj
 0001:000af6e0       _$E61                      004b06e0 f   HunterInfoStage.obj
 0001:000af6f0       _$E60                      004b06f0 f   HunterInfoStage.obj
 0001:000af700       _$E67                      004b0700 f   HunterInfoStage.obj
 0001:000af710       _$E64                      004b0710 f   HunterInfoStage.obj
 0001:000af730       _$E66                      004b0730 f   HunterInfoStage.obj
 0001:000af740       _$E65                      004b0740 f   HunterInfoStage.obj
 0001:000af750       _$E72                      004b0750 f   HunterInfoStage.obj
 0001:000af760       _$E69                      004b0760 f   HunterInfoStage.obj
 0001:000af780       _$E71                      004b0780 f   HunterInfoStage.obj
 0001:000af790       _$E70                      004b0790 f   HunterInfoStage.obj
 0001:000af7a0       _$E77                      004b07a0 f   HunterInfoStage.obj
 0001:000af7b0       _$E74                      004b07b0 f   HunterInfoStage.obj
 0001:000af7d0       _$E76                      004b07d0 f   HunterInfoStage.obj
 0001:000af7e0       _$E75                      004b07e0 f   HunterInfoStage.obj
 0001:000af7f0       _$E82                      004b07f0 f   HunterInfoStage.obj
 0001:000af800       _$E79                      004b0800 f   HunterInfoStage.obj
 0001:000af820       _$E81                      004b0820 f   HunterInfoStage.obj
 0001:000af830       _$E80                      004b0830 f   HunterInfoStage.obj
 0001:000af840       _$E87                      004b0840 f   HunterInfoStage.obj
 0001:000af850       _$E84                      004b0850 f   HunterInfoStage.obj
 0001:000af870       _$E86                      004b0870 f   HunterInfoStage.obj
 0001:000af880       _$E85                      004b0880 f   HunterInfoStage.obj
 0001:000af890       _$E92                      004b0890 f   HunterInfoStage.obj
 0001:000af8a0       _$E89                      004b08a0 f   HunterInfoStage.obj
 0001:000af8c0       _$E91                      004b08c0 f   HunterInfoStage.obj
 0001:000af8d0       _$E90                      004b08d0 f   HunterInfoStage.obj
 0001:000af8e0       _$E97                      004b08e0 f   HunterInfoStage.obj
 0001:000af8f0       _$E94                      004b08f0 f   HunterInfoStage.obj
 0001:000af910       _$E96                      004b0910 f   HunterInfoStage.obj
 0001:000af920       _$E95                      004b0920 f   HunterInfoStage.obj
 0001:000af930       _$E102                     004b0930 f   HunterInfoStage.obj
 0001:000af940       _$E99                      004b0940 f   HunterInfoStage.obj
 0001:000af960       _$E101                     004b0960 f   HunterInfoStage.obj
 0001:000af970       _$E100                     004b0970 f   HunterInfoStage.obj
 0001:000af980       _$E107                     004b0980 f   HunterInfoStage.obj
 0001:000af990       _$E104                     004b0990 f   HunterInfoStage.obj
 0001:000af9b0       _$E106                     004b09b0 f   HunterInfoStage.obj
 0001:000af9c0       _$E105                     004b09c0 f   HunterInfoStage.obj
 0001:000af9d0       _$E112                     004b09d0 f   HunterInfoStage.obj
 0001:000af9e0       _$E109                     004b09e0 f   HunterInfoStage.obj
 0001:000afa00       _$E111                     004b0a00 f   HunterInfoStage.obj
 0001:000afa10       _$E110                     004b0a10 f   HunterInfoStage.obj
 0001:000afa20       _$E117                     004b0a20 f   HunterInfoStage.obj
 0001:000afa30       _$E114                     004b0a30 f   HunterInfoStage.obj
 0001:000afa50       _$E116                     004b0a50 f   HunterInfoStage.obj
 0001:000afa60       _$E115                     004b0a60 f   HunterInfoStage.obj
 0001:000afa70       _$E122                     004b0a70 f   HunterInfoStage.obj
 0001:000afa80       _$E119                     004b0a80 f   HunterInfoStage.obj
 0001:000afaa0       _$E121                     004b0aa0 f   HunterInfoStage.obj
 0001:000afab0       _$E120                     004b0ab0 f   HunterInfoStage.obj
 0001:000afac0       _$E127                     004b0ac0 f   HunterInfoStage.obj
 0001:000afad0       _$E124                     004b0ad0 f   HunterInfoStage.obj
 0001:000afaf0       _$E126                     004b0af0 f   HunterInfoStage.obj
 0001:000afb00       _$E125                     004b0b00 f   HunterInfoStage.obj
 0001:000afb10       _$E132                     004b0b10 f   HunterInfoStage.obj
 0001:000afb20       _$E129                     004b0b20 f   HunterInfoStage.obj
 0001:000afb40       _$E131                     004b0b40 f   HunterInfoStage.obj
 0001:000afb50       _$E130                     004b0b50 f   HunterInfoStage.obj
 0001:000afb60       _$E137                     004b0b60 f   HunterInfoStage.obj
 0001:000afb70       _$E134                     004b0b70 f   HunterInfoStage.obj
 0001:000afb90       _$E136                     004b0b90 f   HunterInfoStage.obj
 0001:000afba0       _$E135                     004b0ba0 f   HunterInfoStage.obj
 0001:000afbb0       _$E142                     004b0bb0 f   HunterInfoStage.obj
 0001:000afbc0       _$E139                     004b0bc0 f   HunterInfoStage.obj
 0001:000afbe0       _$E141                     004b0be0 f   HunterInfoStage.obj
 0001:000afbf0       _$E140                     004b0bf0 f   HunterInfoStage.obj
 0001:000afc00       _$E147                     004b0c00 f   HunterInfoStage.obj
 0001:000afc10       _$E144                     004b0c10 f   HunterInfoStage.obj
 0001:000afc30       _$E146                     004b0c30 f   HunterInfoStage.obj
 0001:000afc40       _$E145                     004b0c40 f   HunterInfoStage.obj
 0001:000afc50       _$E152                     004b0c50 f   HunterInfoStage.obj
 0001:000afc60       _$E149                     004b0c60 f   HunterInfoStage.obj
 0001:000afc80       _$E151                     004b0c80 f   HunterInfoStage.obj
 0001:000afc90       _$E150                     004b0c90 f   HunterInfoStage.obj
 0001:000afca0       _$E157                     004b0ca0 f   HunterInfoStage.obj
 0001:000afcb0       _$E154                     004b0cb0 f   HunterInfoStage.obj
 0001:000afcd0       _$E156                     004b0cd0 f   HunterInfoStage.obj
 0001:000afce0       _$E155                     004b0ce0 f   HunterInfoStage.obj
 0001:000afcf0       _$E162                     004b0cf0 f   HunterInfoStage.obj
 0001:000afd00       _$E159                     004b0d00 f   HunterInfoStage.obj
 0001:000afd20       _$E161                     004b0d20 f   HunterInfoStage.obj
 0001:000afd30       _$E160                     004b0d30 f   HunterInfoStage.obj
 0001:000afd40       _$E167                     004b0d40 f   HunterInfoStage.obj
 0001:000afd50       _$E164                     004b0d50 f   HunterInfoStage.obj
 0001:000afd70       _$E166                     004b0d70 f   HunterInfoStage.obj
 0001:000afd80       _$E165                     004b0d80 f   HunterInfoStage.obj
 0001:000afd90       _$E172                     004b0d90 f   HunterInfoStage.obj
 0001:000afda0       _$E169                     004b0da0 f   HunterInfoStage.obj
 0001:000afdc0       _$E171                     004b0dc0 f   HunterInfoStage.obj
 0001:000afdd0       _$E170                     004b0dd0 f   HunterInfoStage.obj
 0001:000afde0       _$E177                     004b0de0 f   HunterInfoStage.obj
 0001:000afdf0       _$E174                     004b0df0 f   HunterInfoStage.obj
 0001:000afe10       _$E176                     004b0e10 f   HunterInfoStage.obj
 0001:000afe20       _$E175                     004b0e20 f   HunterInfoStage.obj
 0001:000afe30       _$E182                     004b0e30 f   HunterInfoStage.obj
 0001:000afe40       _$E179                     004b0e40 f   HunterInfoStage.obj
 0001:000afe60       _$E181                     004b0e60 f   HunterInfoStage.obj
 0001:000afe70       _$E180                     004b0e70 f   HunterInfoStage.obj
 0001:000afe80       _$E187                     004b0e80 f   HunterInfoStage.obj
 0001:000afe90       _$E184                     004b0e90 f   HunterInfoStage.obj
 0001:000afeb0       _$E186                     004b0eb0 f   HunterInfoStage.obj
 0001:000afec0       _$E185                     004b0ec0 f   HunterInfoStage.obj
 0001:000afed0       _$E192                     004b0ed0 f   HunterInfoStage.obj
 0001:000afee0       _$E189                     004b0ee0 f   HunterInfoStage.obj
 0001:000aff00       _$E191                     004b0f00 f   HunterInfoStage.obj
 0001:000aff10       _$E190                     004b0f10 f   HunterInfoStage.obj
 0001:000aff20       _$E197                     004b0f20 f   HunterInfoStage.obj
 0001:000aff30       _$E194                     004b0f30 f   HunterInfoStage.obj
 0001:000aff50       _$E196                     004b0f50 f   HunterInfoStage.obj
 0001:000aff60       _$E195                     004b0f60 f   HunterInfoStage.obj
 0001:000aff70       _$E202                     004b0f70 f   HunterInfoStage.obj
 0001:000aff80       _$E199                     004b0f80 f   HunterInfoStage.obj
 0001:000affa0       _$E201                     004b0fa0 f   HunterInfoStage.obj
 0001:000affb0       _$E200                     004b0fb0 f   HunterInfoStage.obj
 0001:000affc0       _$E207                     004b0fc0 f   HunterInfoStage.obj
 0001:000affd0       _$E204                     004b0fd0 f   HunterInfoStage.obj
 0001:000afff0       _$E206                     004b0ff0 f   HunterInfoStage.obj
 0001:000b0000       _$E205                     004b1000 f   HunterInfoStage.obj
 0001:000b0010       _$E212                     004b1010 f   HunterInfoStage.obj
 0001:000b0020       _$E209                     004b1020 f   HunterInfoStage.obj
 0001:000b0040       _$E211                     004b1040 f   HunterInfoStage.obj
 0001:000b0050       _$E210                     004b1050 f   HunterInfoStage.obj
 0001:000b0060       _$E217                     004b1060 f   HunterInfoStage.obj
 0001:000b0070       _$E214                     004b1070 f   HunterInfoStage.obj
 0001:000b0090       _$E216                     004b1090 f   HunterInfoStage.obj
 0001:000b00a0       _$E215                     004b10a0 f   HunterInfoStage.obj
 0001:000b00b0       _$E222                     004b10b0 f   HunterInfoStage.obj
 0001:000b00c0       _$E219                     004b10c0 f   HunterInfoStage.obj
 0001:000b00e0       _$E221                     004b10e0 f   HunterInfoStage.obj
 0001:000b00f0       _$E220                     004b10f0 f   HunterInfoStage.obj
 0001:000b0100       _$E227                     004b1100 f   HunterInfoStage.obj
 0001:000b0110       _$E224                     004b1110 f   HunterInfoStage.obj
 0001:000b0130       _$E226                     004b1130 f   HunterInfoStage.obj
 0001:000b0140       _$E225                     004b1140 f   HunterInfoStage.obj
 0001:000b0150       _$E232                     004b1150 f   HunterInfoStage.obj
 0001:000b0160       _$E229                     004b1160 f   HunterInfoStage.obj
 0001:000b0180       _$E231                     004b1180 f   HunterInfoStage.obj
 0001:000b0190       _$E230                     004b1190 f   HunterInfoStage.obj
 0001:000b01a0       _$E237                     004b11a0 f   HunterInfoStage.obj
 0001:000b01b0       _$E234                     004b11b0 f   HunterInfoStage.obj
 0001:000b01d0       _$E236                     004b11d0 f   HunterInfoStage.obj
 0001:000b01e0       _$E235                     004b11e0 f   HunterInfoStage.obj
 0001:000b01f0       _$E242                     004b11f0 f   HunterInfoStage.obj
 0001:000b0200       _$E239                     004b1200 f   HunterInfoStage.obj
 0001:000b0220       _$E241                     004b1220 f   HunterInfoStage.obj
 0001:000b0230       _$E240                     004b1230 f   HunterInfoStage.obj
 0001:000b0240       _$E247                     004b1240 f   HunterInfoStage.obj
 0001:000b0250       _$E244                     004b1250 f   HunterInfoStage.obj
 0001:000b0270       _$E246                     004b1270 f   HunterInfoStage.obj
 0001:000b0280       _$E245                     004b1280 f   HunterInfoStage.obj
 0001:000b0290       _$E252                     004b1290 f   HunterInfoStage.obj
 0001:000b02a0       _$E249                     004b12a0 f   HunterInfoStage.obj
 0001:000b02c0       _$E251                     004b12c0 f   HunterInfoStage.obj
 0001:000b02d0       _$E250                     004b12d0 f   HunterInfoStage.obj
 0001:000b02e0       _$E257                     004b12e0 f   HunterInfoStage.obj
 0001:000b02f0       _$E254                     004b12f0 f   HunterInfoStage.obj
 0001:000b0310       _$E256                     004b1310 f   HunterInfoStage.obj
 0001:000b0320       _$E255                     004b1320 f   HunterInfoStage.obj
 0001:000b0330       _$E262                     004b1330 f   HunterInfoStage.obj
 0001:000b0340       _$E259                     004b1340 f   HunterInfoStage.obj
 0001:000b0360       _$E261                     004b1360 f   HunterInfoStage.obj
 0001:000b0370       _$E260                     004b1370 f   HunterInfoStage.obj
 0001:000b0380       _$E267                     004b1380 f   HunterInfoStage.obj
 0001:000b0390       _$E264                     004b1390 f   HunterInfoStage.obj
 0001:000b03b0       _$E266                     004b13b0 f   HunterInfoStage.obj
 0001:000b03c0       _$E265                     004b13c0 f   HunterInfoStage.obj
 0001:000b03d0       _$E272                     004b13d0 f   HunterInfoStage.obj
 0001:000b03e0       _$E269                     004b13e0 f   HunterInfoStage.obj
 0001:000b0400       _$E271                     004b1400 f   HunterInfoStage.obj
 0001:000b0410       _$E270                     004b1410 f   HunterInfoStage.obj
 0001:000b0420       _$E277                     004b1420 f   HunterInfoStage.obj
 0001:000b0430       _$E274                     004b1430 f   HunterInfoStage.obj
 0001:000b0450       _$E276                     004b1450 f   HunterInfoStage.obj
 0001:000b0460       _$E275                     004b1460 f   HunterInfoStage.obj
 0001:000b0470       _$E282                     004b1470 f   HunterInfoStage.obj
 0001:000b0480       _$E279                     004b1480 f   HunterInfoStage.obj
 0001:000b04a0       _$E281                     004b14a0 f   HunterInfoStage.obj
 0001:000b04b0       _$E280                     004b14b0 f   HunterInfoStage.obj
 0001:000b04c0       _$E287                     004b14c0 f   HunterInfoStage.obj
 0001:000b04d0       _$E284                     004b14d0 f   HunterInfoStage.obj
 0001:000b04f0       _$E286                     004b14f0 f   HunterInfoStage.obj
 0001:000b0500       _$E285                     004b1500 f   HunterInfoStage.obj
 0001:000b0510       _$E292                     004b1510 f   HunterInfoStage.obj
 0001:000b0520       _$E289                     004b1520 f   HunterInfoStage.obj
 0001:000b0540       _$E291                     004b1540 f   HunterInfoStage.obj
 0001:000b0550       _$E290                     004b1550 f   HunterInfoStage.obj
 0001:000b0560       _$E297                     004b1560 f   HunterInfoStage.obj
 0001:000b0570       _$E294                     004b1570 f   HunterInfoStage.obj
 0001:000b0590       _$E296                     004b1590 f   HunterInfoStage.obj
 0001:000b05a0       _$E295                     004b15a0 f   HunterInfoStage.obj
 0001:000b05b0       _$E302                     004b15b0 f   HunterInfoStage.obj
 0001:000b05c0       _$E299                     004b15c0 f   HunterInfoStage.obj
 0001:000b05e0       _$E301                     004b15e0 f   HunterInfoStage.obj
 0001:000b05f0       _$E300                     004b15f0 f   HunterInfoStage.obj
 0001:000b0600       _$E307                     004b1600 f   HunterInfoStage.obj
 0001:000b0610       _$E304                     004b1610 f   HunterInfoStage.obj
 0001:000b0630       _$E306                     004b1630 f   HunterInfoStage.obj
 0001:000b0640       _$E305                     004b1640 f   HunterInfoStage.obj
 0001:000b0650       _$E312                     004b1650 f   HunterInfoStage.obj
 0001:000b0660       _$E309                     004b1660 f   HunterInfoStage.obj
 0001:000b0680       _$E311                     004b1680 f   HunterInfoStage.obj
 0001:000b0690       _$E310                     004b1690 f   HunterInfoStage.obj
 0001:000b06a0       _$E317                     004b16a0 f   HunterInfoStage.obj
 0001:000b06b0       _$E314                     004b16b0 f   HunterInfoStage.obj
 0001:000b06d0       _$E316                     004b16d0 f   HunterInfoStage.obj
 0001:000b06e0       _$E315                     004b16e0 f   HunterInfoStage.obj
 0001:000b06f0       _$E322                     004b16f0 f   HunterInfoStage.obj
 0001:000b0700       _$E319                     004b1700 f   HunterInfoStage.obj
 0001:000b0720       _$E321                     004b1720 f   HunterInfoStage.obj
 0001:000b0730       _$E320                     004b1730 f   HunterInfoStage.obj
 0001:000b0740       _$E327                     004b1740 f   HunterInfoStage.obj
 0001:000b0750       _$E324                     004b1750 f   HunterInfoStage.obj
 0001:000b0770       _$E326                     004b1770 f   HunterInfoStage.obj
 0001:000b0780       _$E325                     004b1780 f   HunterInfoStage.obj
 0001:000b0790       _$E332                     004b1790 f   HunterInfoStage.obj
 0001:000b07a0       _$E329                     004b17a0 f   HunterInfoStage.obj
 0001:000b07c0       _$E331                     004b17c0 f   HunterInfoStage.obj
 0001:000b07d0       _$E330                     004b17d0 f   HunterInfoStage.obj
 0001:000b07e0       _$E337                     004b17e0 f   HunterInfoStage.obj
 0001:000b07f0       _$E334                     004b17f0 f   HunterInfoStage.obj
 0001:000b0810       _$E336                     004b1810 f   HunterInfoStage.obj
 0001:000b0820       _$E335                     004b1820 f   HunterInfoStage.obj
 0001:000b0830       _$E342                     004b1830 f   HunterInfoStage.obj
 0001:000b0840       _$E339                     004b1840 f   HunterInfoStage.obj
 0001:000b0860       _$E341                     004b1860 f   HunterInfoStage.obj
 0001:000b0870       _$E340                     004b1870 f   HunterInfoStage.obj
 0001:000b0880       _$E347                     004b1880 f   HunterInfoStage.obj
 0001:000b0890       _$E344                     004b1890 f   HunterInfoStage.obj
 0001:000b08b0       _$E346                     004b18b0 f   HunterInfoStage.obj
 0001:000b08c0       _$E345                     004b18c0 f   HunterInfoStage.obj
 0001:000b08d0       _$E352                     004b18d0 f   HunterInfoStage.obj
 0001:000b08e0       _$E349                     004b18e0 f   HunterInfoStage.obj
 0001:000b0900       _$E351                     004b1900 f   HunterInfoStage.obj
 0001:000b0910       _$E350                     004b1910 f   HunterInfoStage.obj
 0001:000b0920       _$E357                     004b1920 f   HunterInfoStage.obj
 0001:000b0930       _$E354                     004b1930 f   HunterInfoStage.obj
 0001:000b0950       _$E356                     004b1950 f   HunterInfoStage.obj
 0001:000b0960       _$E355                     004b1960 f   HunterInfoStage.obj
 0001:000b0970       _$E362                     004b1970 f   HunterInfoStage.obj
 0001:000b0980       _$E359                     004b1980 f   HunterInfoStage.obj
 0001:000b09a0       _$E361                     004b19a0 f   HunterInfoStage.obj
 0001:000b09b0       _$E360                     004b19b0 f   HunterInfoStage.obj
 0001:000b09c0       _$E367                     004b19c0 f   HunterInfoStage.obj
 0001:000b09d0       _$E364                     004b19d0 f   HunterInfoStage.obj
 0001:000b09f0       _$E366                     004b19f0 f   HunterInfoStage.obj
 0001:000b0a00       _$E365                     004b1a00 f   HunterInfoStage.obj
 0001:000b0a10       _$E372                     004b1a10 f   HunterInfoStage.obj
 0001:000b0a20       _$E369                     004b1a20 f   HunterInfoStage.obj
 0001:000b0a40       _$E371                     004b1a40 f   HunterInfoStage.obj
 0001:000b0a50       _$E370                     004b1a50 f   HunterInfoStage.obj
 0001:000b0a60       _$E377                     004b1a60 f   HunterInfoStage.obj
 0001:000b0a70       _$E374                     004b1a70 f   HunterInfoStage.obj
 0001:000b0a90       _$E376                     004b1a90 f   HunterInfoStage.obj
 0001:000b0aa0       _$E375                     004b1aa0 f   HunterInfoStage.obj
 0001:000b0ab0       _$E382                     004b1ab0 f   HunterInfoStage.obj
 0001:000b0ac0       _$E379                     004b1ac0 f   HunterInfoStage.obj
 0001:000b0ae0       _$E381                     004b1ae0 f   HunterInfoStage.obj
 0001:000b0af0       _$E380                     004b1af0 f   HunterInfoStage.obj
 0001:000b0b00       _$E387                     004b1b00 f   HunterInfoStage.obj
 0001:000b0b10       _$E384                     004b1b10 f   HunterInfoStage.obj
 0001:000b0b30       _$E386                     004b1b30 f   HunterInfoStage.obj
 0001:000b0b40       _$E385                     004b1b40 f   HunterInfoStage.obj
 0001:000b0b50       _$E392                     004b1b50 f   HunterInfoStage.obj
 0001:000b0b60       _$E389                     004b1b60 f   HunterInfoStage.obj
 0001:000b0b80       _$E391                     004b1b80 f   HunterInfoStage.obj
 0001:000b0b90       _$E390                     004b1b90 f   HunterInfoStage.obj
 0001:000b0ba0       _$E397                     004b1ba0 f   HunterInfoStage.obj
 0001:000b0bb0       _$E394                     004b1bb0 f   HunterInfoStage.obj
 0001:000b0bd0       _$E396                     004b1bd0 f   HunterInfoStage.obj
 0001:000b0be0       _$E395                     004b1be0 f   HunterInfoStage.obj
 0001:000b0bf0       _$E402                     004b1bf0 f   HunterInfoStage.obj
 0001:000b0c00       _$E399                     004b1c00 f   HunterInfoStage.obj
 0001:000b0c20       _$E401                     004b1c20 f   HunterInfoStage.obj
 0001:000b0c30       _$E400                     004b1c30 f   HunterInfoStage.obj
 0001:000b0c40       _$E407                     004b1c40 f   HunterInfoStage.obj
 0001:000b0c50       _$E404                     004b1c50 f   HunterInfoStage.obj
 0001:000b0c70       _$E406                     004b1c70 f   HunterInfoStage.obj
 0001:000b0c80       _$E405                     004b1c80 f   HunterInfoStage.obj
 0001:000b0c90       _$E412                     004b1c90 f   HunterInfoStage.obj
 0001:000b0ca0       _$E409                     004b1ca0 f   HunterInfoStage.obj
 0001:000b0cc0       _$E411                     004b1cc0 f   HunterInfoStage.obj
 0001:000b0cd0       _$E410                     004b1cd0 f   HunterInfoStage.obj
 0001:000b0ce0       _$E417                     004b1ce0 f   HunterInfoStage.obj
 0001:000b0cf0       _$E414                     004b1cf0 f   HunterInfoStage.obj
 0001:000b0d10       _$E416                     004b1d10 f   HunterInfoStage.obj
 0001:000b0d20       _$E415                     004b1d20 f   HunterInfoStage.obj
 0001:000b0d30       _$E422                     004b1d30 f   HunterInfoStage.obj
 0001:000b0d40       _$E419                     004b1d40 f   HunterInfoStage.obj
 0001:000b0d60       _$E421                     004b1d60 f   HunterInfoStage.obj
 0001:000b0d70       _$E420                     004b1d70 f   HunterInfoStage.obj
 0001:000b0d80       _$E427                     004b1d80 f   HunterInfoStage.obj
 0001:000b0d90       _$E424                     004b1d90 f   HunterInfoStage.obj
 0001:000b0db0       _$E426                     004b1db0 f   HunterInfoStage.obj
 0001:000b0dc0       _$E425                     004b1dc0 f   HunterInfoStage.obj
 0001:000b0dd0       _$E432                     004b1dd0 f   HunterInfoStage.obj
 0001:000b0de0       _$E429                     004b1de0 f   HunterInfoStage.obj
 0001:000b0e00       _$E431                     004b1e00 f   HunterInfoStage.obj
 0001:000b0e10       _$E430                     004b1e10 f   HunterInfoStage.obj
 0001:000b0e20       _$E437                     004b1e20 f   HunterInfoStage.obj
 0001:000b0e30       _$E434                     004b1e30 f   HunterInfoStage.obj
 0001:000b0e50       _$E436                     004b1e50 f   HunterInfoStage.obj
 0001:000b0e60       _$E435                     004b1e60 f   HunterInfoStage.obj
 0001:000b0e70       _$E442                     004b1e70 f   HunterInfoStage.obj
 0001:000b0e80       _$E439                     004b1e80 f   HunterInfoStage.obj
 0001:000b0ea0       _$E441                     004b1ea0 f   HunterInfoStage.obj
 0001:000b0eb0       _$E440                     004b1eb0 f   HunterInfoStage.obj
 0001:000b0ec0       _$E447                     004b1ec0 f   HunterInfoStage.obj
 0001:000b0ed0       _$E444                     004b1ed0 f   HunterInfoStage.obj
 0001:000b0ef0       _$E446                     004b1ef0 f   HunterInfoStage.obj
 0001:000b0f00       _$E445                     004b1f00 f   HunterInfoStage.obj
 0001:000b0f10       _$E452                     004b1f10 f   HunterInfoStage.obj
 0001:000b0f20       _$E449                     004b1f20 f   HunterInfoStage.obj
 0001:000b0f40       _$E451                     004b1f40 f   HunterInfoStage.obj
 0001:000b0f50       _$E450                     004b1f50 f   HunterInfoStage.obj
 0001:000b0f60       _$E457                     004b1f60 f   HunterInfoStage.obj
 0001:000b0f70       _$E454                     004b1f70 f   HunterInfoStage.obj
 0001:000b0f90       _$E456                     004b1f90 f   HunterInfoStage.obj
 0001:000b0fa0       _$E455                     004b1fa0 f   HunterInfoStage.obj
 0001:000b0fb0       _$E462                     004b1fb0 f   HunterInfoStage.obj
 0001:000b0fc0       _$E459                     004b1fc0 f   HunterInfoStage.obj
 0001:000b0fe0       _$E461                     004b1fe0 f   HunterInfoStage.obj
 0001:000b0ff0       _$E460                     004b1ff0 f   HunterInfoStage.obj
 0001:000b1000       _$E467                     004b2000 f   HunterInfoStage.obj
 0001:000b1010       _$E464                     004b2010 f   HunterInfoStage.obj
 0001:000b1030       _$E466                     004b2030 f   HunterInfoStage.obj
 0001:000b1040       _$E465                     004b2040 f   HunterInfoStage.obj
 0001:000b1050       _$E472                     004b2050 f   HunterInfoStage.obj
 0001:000b1060       _$E469                     004b2060 f   HunterInfoStage.obj
 0001:000b1080       _$E471                     004b2080 f   HunterInfoStage.obj
 0001:000b1090       _$E470                     004b2090 f   HunterInfoStage.obj
 0001:000b10a0       _$E477                     004b20a0 f   HunterInfoStage.obj
 0001:000b10b0       _$E474                     004b20b0 f   HunterInfoStage.obj
 0001:000b10d0       _$E476                     004b20d0 f   HunterInfoStage.obj
 0001:000b10e0       _$E475                     004b20e0 f   HunterInfoStage.obj
 0001:000b10f0       _$E482                     004b20f0 f   HunterInfoStage.obj
 0001:000b1100       _$E479                     004b2100 f   HunterInfoStage.obj
 0001:000b1120       _$E481                     004b2120 f   HunterInfoStage.obj
 0001:000b1130       _$E480                     004b2130 f   HunterInfoStage.obj
 0001:000b1140       _$E487                     004b2140 f   HunterInfoStage.obj
 0001:000b1150       _$E484                     004b2150 f   HunterInfoStage.obj
 0001:000b1170       _$E486                     004b2170 f   HunterInfoStage.obj
 0001:000b1180       _$E485                     004b2180 f   HunterInfoStage.obj
 0001:000b1190       _$E492                     004b2190 f   HunterInfoStage.obj
 0001:000b11a0       _$E489                     004b21a0 f   HunterInfoStage.obj
 0001:000b11c0       _$E491                     004b21c0 f   HunterInfoStage.obj
 0001:000b11d0       _$E490                     004b21d0 f   HunterInfoStage.obj
 0001:000b11e0       _$E497                     004b21e0 f   HunterInfoStage.obj
 0001:000b11f0       _$E494                     004b21f0 f   HunterInfoStage.obj
 0001:000b1210       _$E496                     004b2210 f   HunterInfoStage.obj
 0001:000b1220       _$E495                     004b2220 f   HunterInfoStage.obj
 0001:000b1230       _$E502                     004b2230 f   HunterInfoStage.obj
 0001:000b1240       _$E499                     004b2240 f   HunterInfoStage.obj
 0001:000b1260       _$E501                     004b2260 f   HunterInfoStage.obj
 0001:000b1270       _$E500                     004b2270 f   HunterInfoStage.obj
 0001:000b1280       _$E507                     004b2280 f   HunterInfoStage.obj
 0001:000b1290       _$E504                     004b2290 f   HunterInfoStage.obj
 0001:000b12b0       _$E506                     004b22b0 f   HunterInfoStage.obj
 0001:000b12c0       _$E505                     004b22c0 f   HunterInfoStage.obj
 0001:000b12d0       _$E512                     004b22d0 f   HunterInfoStage.obj
 0001:000b12e0       _$E509                     004b22e0 f   HunterInfoStage.obj
 0001:000b1300       _$E511                     004b2300 f   HunterInfoStage.obj
 0001:000b1310       _$E510                     004b2310 f   HunterInfoStage.obj
 0001:000b1320       _$E517                     004b2320 f   HunterInfoStage.obj
 0001:000b1330       _$E514                     004b2330 f   HunterInfoStage.obj
 0001:000b1350       _$E516                     004b2350 f   HunterInfoStage.obj
 0001:000b1360       _$E515                     004b2360 f   HunterInfoStage.obj
 0001:000b1370       _$E522                     004b2370 f   HunterInfoStage.obj
 0001:000b1380       _$E519                     004b2380 f   HunterInfoStage.obj
 0001:000b13a0       _$E521                     004b23a0 f   HunterInfoStage.obj
 0001:000b13b0       _$E520                     004b23b0 f   HunterInfoStage.obj
 0001:000b13c0       _$E527                     004b23c0 f   HunterInfoStage.obj
 0001:000b13d0       _$E524                     004b23d0 f   HunterInfoStage.obj
 0001:000b13f0       _$E526                     004b23f0 f   HunterInfoStage.obj
 0001:000b1400       _$E525                     004b2400 f   HunterInfoStage.obj
 0001:000b1410       _$E532                     004b2410 f   HunterInfoStage.obj
 0001:000b1420       _$E529                     004b2420 f   HunterInfoStage.obj
 0001:000b1440       _$E531                     004b2440 f   HunterInfoStage.obj
 0001:000b1450       _$E530                     004b2450 f   HunterInfoStage.obj
 0001:000b1460       _$E537                     004b2460 f   HunterInfoStage.obj
 0001:000b1470       _$E534                     004b2470 f   HunterInfoStage.obj
 0001:000b1490       _$E536                     004b2490 f   HunterInfoStage.obj
 0001:000b14a0       _$E535                     004b24a0 f   HunterInfoStage.obj
 0001:000b14b0       _$E542                     004b24b0 f   HunterInfoStage.obj
 0001:000b14c0       _$E539                     004b24c0 f   HunterInfoStage.obj
 0001:000b14e0       _$E541                     004b24e0 f   HunterInfoStage.obj
 0001:000b14f0       _$E540                     004b24f0 f   HunterInfoStage.obj
 0001:000b1500       _$E547                     004b2500 f   HunterInfoStage.obj
 0001:000b1510       _$E544                     004b2510 f   HunterInfoStage.obj
 0001:000b1530       _$E546                     004b2530 f   HunterInfoStage.obj
 0001:000b1540       _$E545                     004b2540 f   HunterInfoStage.obj
 0001:000b1550       _$E552                     004b2550 f   HunterInfoStage.obj
 0001:000b1560       _$E549                     004b2560 f   HunterInfoStage.obj
 0001:000b1580       _$E551                     004b2580 f   HunterInfoStage.obj
 0001:000b1590       _$E550                     004b2590 f   HunterInfoStage.obj
 0001:000b15a0       _$E557                     004b25a0 f   HunterInfoStage.obj
 0001:000b15b0       _$E554                     004b25b0 f   HunterInfoStage.obj
 0001:000b15d0       _$E556                     004b25d0 f   HunterInfoStage.obj
 0001:000b15e0       _$E555                     004b25e0 f   HunterInfoStage.obj
 0001:000b15f0       _$E562                     004b25f0 f   HunterInfoStage.obj
 0001:000b1600       _$E559                     004b2600 f   HunterInfoStage.obj
 0001:000b1620       _$E561                     004b2620 f   HunterInfoStage.obj
 0001:000b1630       _$E560                     004b2630 f   HunterInfoStage.obj
 0001:000b1640       _$E567                     004b2640 f   HunterInfoStage.obj
 0001:000b1650       _$E564                     004b2650 f   HunterInfoStage.obj
 0001:000b1670       _$E566                     004b2670 f   HunterInfoStage.obj
 0001:000b1680       _$E565                     004b2680 f   HunterInfoStage.obj
 0001:000b1690       _$E572                     004b2690 f   HunterInfoStage.obj
 0001:000b16a0       _$E569                     004b26a0 f   HunterInfoStage.obj
 0001:000b16c0       _$E571                     004b26c0 f   HunterInfoStage.obj
 0001:000b16d0       _$E570                     004b26d0 f   HunterInfoStage.obj
 0001:000b16e0       _$E577                     004b26e0 f   HunterInfoStage.obj
 0001:000b16f0       _$E574                     004b26f0 f   HunterInfoStage.obj
 0001:000b1710       _$E576                     004b2710 f   HunterInfoStage.obj
 0001:000b1720       _$E575                     004b2720 f   HunterInfoStage.obj
 0001:000b1730       _$E582                     004b2730 f   HunterInfoStage.obj
 0001:000b1740       _$E579                     004b2740 f   HunterInfoStage.obj
 0001:000b1760       _$E581                     004b2760 f   HunterInfoStage.obj
 0001:000b1770       _$E580                     004b2770 f   HunterInfoStage.obj
 0001:000b1780       _$E587                     004b2780 f   HunterInfoStage.obj
 0001:000b1790       _$E584                     004b2790 f   HunterInfoStage.obj
 0001:000b17b0       _$E586                     004b27b0 f   HunterInfoStage.obj
 0001:000b17c0       _$E585                     004b27c0 f   HunterInfoStage.obj
 0001:000b17d0       _$E592                     004b27d0 f   HunterInfoStage.obj
 0001:000b17e0       _$E589                     004b27e0 f   HunterInfoStage.obj
 0001:000b1800       _$E591                     004b2800 f   HunterInfoStage.obj
 0001:000b1810       _$E590                     004b2810 f   HunterInfoStage.obj
 0001:000b1820       _$E597                     004b2820 f   HunterInfoStage.obj
 0001:000b1830       _$E594                     004b2830 f   HunterInfoStage.obj
 0001:000b1850       _$E596                     004b2850 f   HunterInfoStage.obj
 0001:000b1860       _$E595                     004b2860 f   HunterInfoStage.obj
 0001:000b1870       _$E602                     004b2870 f   HunterInfoStage.obj
 0001:000b1880       _$E599                     004b2880 f   HunterInfoStage.obj
 0001:000b18a0       _$E601                     004b28a0 f   HunterInfoStage.obj
 0001:000b18b0       _$E600                     004b28b0 f   HunterInfoStage.obj
 0001:000b18c0       _$E607                     004b28c0 f   HunterInfoStage.obj
 0001:000b18d0       _$E604                     004b28d0 f   HunterInfoStage.obj
 0001:000b18f0       _$E606                     004b28f0 f   HunterInfoStage.obj
 0001:000b1900       _$E605                     004b2900 f   HunterInfoStage.obj
 0001:000b1910       _$E612                     004b2910 f   HunterInfoStage.obj
 0001:000b1920       _$E609                     004b2920 f   HunterInfoStage.obj
 0001:000b1940       _$E611                     004b2940 f   HunterInfoStage.obj
 0001:000b1950       _$E610                     004b2950 f   HunterInfoStage.obj
 0001:000b1960       _$E617                     004b2960 f   HunterInfoStage.obj
 0001:000b1970       _$E614                     004b2970 f   HunterInfoStage.obj
 0001:000b1990       _$E616                     004b2990 f   HunterInfoStage.obj
 0001:000b19a0       _$E615                     004b29a0 f   HunterInfoStage.obj
 0001:000b19b0       _$E622                     004b29b0 f   HunterInfoStage.obj
 0001:000b19c0       _$E619                     004b29c0 f   HunterInfoStage.obj
 0001:000b19e0       _$E621                     004b29e0 f   HunterInfoStage.obj
 0001:000b19f0       _$E620                     004b29f0 f   HunterInfoStage.obj
 0001:000b1a00       _$E627                     004b2a00 f   HunterInfoStage.obj
 0001:000b1a10       _$E624                     004b2a10 f   HunterInfoStage.obj
 0001:000b1a30       _$E626                     004b2a30 f   HunterInfoStage.obj
 0001:000b1a40       _$E625                     004b2a40 f   HunterInfoStage.obj
 0001:000b1a50       _$E632                     004b2a50 f   HunterInfoStage.obj
 0001:000b1a60       _$E629                     004b2a60 f   HunterInfoStage.obj
 0001:000b1a80       _$E631                     004b2a80 f   HunterInfoStage.obj
 0001:000b1a90       _$E630                     004b2a90 f   HunterInfoStage.obj
 0001:000b1aa0       _$E637                     004b2aa0 f   HunterInfoStage.obj
 0001:000b1ab0       _$E634                     004b2ab0 f   HunterInfoStage.obj
 0001:000b1ad0       _$E636                     004b2ad0 f   HunterInfoStage.obj
 0001:000b1ae0       _$E635                     004b2ae0 f   HunterInfoStage.obj
 0001:000b1af0       _$E642                     004b2af0 f   HunterInfoStage.obj
 0001:000b1b00       _$E639                     004b2b00 f   HunterInfoStage.obj
 0001:000b1b20       _$E641                     004b2b20 f   HunterInfoStage.obj
 0001:000b1b30       _$E640                     004b2b30 f   HunterInfoStage.obj
 0001:000b1b40       _$E647                     004b2b40 f   HunterInfoStage.obj
 0001:000b1b50       _$E644                     004b2b50 f   HunterInfoStage.obj
 0001:000b1b70       _$E646                     004b2b70 f   HunterInfoStage.obj
 0001:000b1b80       _$E645                     004b2b80 f   HunterInfoStage.obj
 0001:000b1b90       _$E652                     004b2b90 f   HunterInfoStage.obj
 0001:000b1ba0       _$E649                     004b2ba0 f   HunterInfoStage.obj
 0001:000b1bc0       _$E651                     004b2bc0 f   HunterInfoStage.obj
 0001:000b1bd0       _$E650                     004b2bd0 f   HunterInfoStage.obj
 0001:000b1be0       _$E657                     004b2be0 f   HunterInfoStage.obj
 0001:000b1bf0       _$E654                     004b2bf0 f   HunterInfoStage.obj
 0001:000b1c10       _$E656                     004b2c10 f   HunterInfoStage.obj
 0001:000b1c20       _$E655                     004b2c20 f   HunterInfoStage.obj
 0001:000b1c30       _$E662                     004b2c30 f   HunterInfoStage.obj
 0001:000b1c40       _$E659                     004b2c40 f   HunterInfoStage.obj
 0001:000b1c60       _$E661                     004b2c60 f   HunterInfoStage.obj
 0001:000b1c70       _$E660                     004b2c70 f   HunterInfoStage.obj
 0001:000b1c80       _$E667                     004b2c80 f   HunterInfoStage.obj
 0001:000b1c90       _$E664                     004b2c90 f   HunterInfoStage.obj
 0001:000b1cb0       _$E666                     004b2cb0 f   HunterInfoStage.obj
 0001:000b1cc0       _$E665                     004b2cc0 f   HunterInfoStage.obj
 0001:000b1cd0       _$E672                     004b2cd0 f   HunterInfoStage.obj
 0001:000b1ce0       _$E669                     004b2ce0 f   HunterInfoStage.obj
 0001:000b1d00       _$E671                     004b2d00 f   HunterInfoStage.obj
 0001:000b1d10       _$E670                     004b2d10 f   HunterInfoStage.obj
 0001:000b1d20       _$E677                     004b2d20 f   HunterInfoStage.obj
 0001:000b1d30       _$E674                     004b2d30 f   HunterInfoStage.obj
 0001:000b1d50       _$E676                     004b2d50 f   HunterInfoStage.obj
 0001:000b1d60       _$E675                     004b2d60 f   HunterInfoStage.obj
 0001:000b1d70       _$E682                     004b2d70 f   HunterInfoStage.obj
 0001:000b1d80       _$E679                     004b2d80 f   HunterInfoStage.obj
 0001:000b1da0       _$E681                     004b2da0 f   HunterInfoStage.obj
 0001:000b1db0       _$E680                     004b2db0 f   HunterInfoStage.obj
 0001:000b1dc0       _$E687                     004b2dc0 f   HunterInfoStage.obj
 0001:000b1dd0       _$E684                     004b2dd0 f   HunterInfoStage.obj
 0001:000b1df0       _$E686                     004b2df0 f   HunterInfoStage.obj
 0001:000b1e00       _$E685                     004b2e00 f   HunterInfoStage.obj
 0001:000b1e10       _$E692                     004b2e10 f   HunterInfoStage.obj
 0001:000b1e20       _$E689                     004b2e20 f   HunterInfoStage.obj
 0001:000b1e40       _$E691                     004b2e40 f   HunterInfoStage.obj
 0001:000b1e50       _$E690                     004b2e50 f   HunterInfoStage.obj
 0001:000b1e60       _$E697                     004b2e60 f   HunterInfoStage.obj
 0001:000b1e70       _$E694                     004b2e70 f   HunterInfoStage.obj
 0001:000b1e90       _$E696                     004b2e90 f   HunterInfoStage.obj
 0001:000b1ea0       _$E695                     004b2ea0 f   HunterInfoStage.obj
 0001:000b1eb0       _$E702                     004b2eb0 f   HunterInfoStage.obj
 0001:000b1ec0       _$E699                     004b2ec0 f   HunterInfoStage.obj
 0001:000b1ee0       _$E701                     004b2ee0 f   HunterInfoStage.obj
 0001:000b1ef0       _$E700                     004b2ef0 f   HunterInfoStage.obj
 0001:000b1f00       _$E707                     004b2f00 f   HunterInfoStage.obj
 0001:000b1f10       _$E704                     004b2f10 f   HunterInfoStage.obj
 0001:000b1f30       _$E706                     004b2f30 f   HunterInfoStage.obj
 0001:000b1f40       _$E705                     004b2f40 f   HunterInfoStage.obj
 0001:000b1f50       _$E712                     004b2f50 f   HunterInfoStage.obj
 0001:000b1f60       _$E709                     004b2f60 f   HunterInfoStage.obj
 0001:000b1f80       _$E711                     004b2f80 f   HunterInfoStage.obj
 0001:000b1f90       _$E710                     004b2f90 f   HunterInfoStage.obj
 0001:000b1fa0       _$E717                     004b2fa0 f   HunterInfoStage.obj
 0001:000b1fb0       _$E714                     004b2fb0 f   HunterInfoStage.obj
 0001:000b1fd0       _$E716                     004b2fd0 f   HunterInfoStage.obj
 0001:000b1fe0       _$E715                     004b2fe0 f   HunterInfoStage.obj
 0001:000b1ff0       _$E722                     004b2ff0 f   HunterInfoStage.obj
 0001:000b2000       _$E719                     004b3000 f   HunterInfoStage.obj
 0001:000b2020       _$E721                     004b3020 f   HunterInfoStage.obj
 0001:000b2030       _$E720                     004b3030 f   HunterInfoStage.obj
 0001:000b2040       _$E727                     004b3040 f   HunterInfoStage.obj
 0001:000b2050       _$E724                     004b3050 f   HunterInfoStage.obj
 0001:000b2070       _$E726                     004b3070 f   HunterInfoStage.obj
 0001:000b2080       _$E725                     004b3080 f   HunterInfoStage.obj
 0001:000b2090       _$E732                     004b3090 f   HunterInfoStage.obj
 0001:000b20a0       _$E729                     004b30a0 f   HunterInfoStage.obj
 0001:000b20c0       _$E731                     004b30c0 f   HunterInfoStage.obj
 0001:000b20d0       _$E730                     004b30d0 f   HunterInfoStage.obj
 0001:000b20e0       _$E737                     004b30e0 f   HunterInfoStage.obj
 0001:000b20f0       _$E734                     004b30f0 f   HunterInfoStage.obj
 0001:000b2110       _$E736                     004b3110 f   HunterInfoStage.obj
 0001:000b2120       _$E735                     004b3120 f   HunterInfoStage.obj
 0001:000b2130       _$E742                     004b3130 f   HunterInfoStage.obj
 0001:000b2140       _$E739                     004b3140 f   HunterInfoStage.obj
 0001:000b2160       _$E741                     004b3160 f   HunterInfoStage.obj
 0001:000b2170       _$E740                     004b3170 f   HunterInfoStage.obj
 0001:000b2180       _$E747                     004b3180 f   HunterInfoStage.obj
 0001:000b2190       _$E744                     004b3190 f   HunterInfoStage.obj
 0001:000b21b0       _$E746                     004b31b0 f   HunterInfoStage.obj
 0001:000b21c0       _$E745                     004b31c0 f   HunterInfoStage.obj
 0001:000b21d0       _$E752                     004b31d0 f   HunterInfoStage.obj
 0001:000b21e0       _$E749                     004b31e0 f   HunterInfoStage.obj
 0001:000b2200       _$E751                     004b3200 f   HunterInfoStage.obj
 0001:000b2210       _$E750                     004b3210 f   HunterInfoStage.obj
 0001:000b2220       _$E757                     004b3220 f   HunterInfoStage.obj
 0001:000b2230       _$E754                     004b3230 f   HunterInfoStage.obj
 0001:000b2250       _$E756                     004b3250 f   HunterInfoStage.obj
 0001:000b2260       _$E755                     004b3260 f   HunterInfoStage.obj
 0001:000b2270       _$E762                     004b3270 f   HunterInfoStage.obj
 0001:000b2280       _$E759                     004b3280 f   HunterInfoStage.obj
 0001:000b22a0       _$E761                     004b32a0 f   HunterInfoStage.obj
 0001:000b22b0       _$E760                     004b32b0 f   HunterInfoStage.obj
 0001:000b22c0       _$E767                     004b32c0 f   HunterInfoStage.obj
 0001:000b22d0       _$E764                     004b32d0 f   HunterInfoStage.obj
 0001:000b22f0       _$E766                     004b32f0 f   HunterInfoStage.obj
 0001:000b2300       _$E765                     004b3300 f   HunterInfoStage.obj
 0001:000b2310       _$E772                     004b3310 f   HunterInfoStage.obj
 0001:000b2320       _$E769                     004b3320 f   HunterInfoStage.obj
 0001:000b2340       _$E771                     004b3340 f   HunterInfoStage.obj
 0001:000b2350       _$E770                     004b3350 f   HunterInfoStage.obj
 0001:000b2360       _$E777                     004b3360 f   HunterInfoStage.obj
 0001:000b2370       _$E774                     004b3370 f   HunterInfoStage.obj
 0001:000b2390       _$E776                     004b3390 f   HunterInfoStage.obj
 0001:000b23a0       _$E775                     004b33a0 f   HunterInfoStage.obj
 0001:000b23b0       _$E782                     004b33b0 f   HunterInfoStage.obj
 0001:000b23c0       _$E779                     004b33c0 f   HunterInfoStage.obj
 0001:000b23e0       _$E781                     004b33e0 f   HunterInfoStage.obj
 0001:000b23f0       _$E780                     004b33f0 f   HunterInfoStage.obj
 0001:000b2400       _$E787                     004b3400 f   HunterInfoStage.obj
 0001:000b2410       _$E784                     004b3410 f   HunterInfoStage.obj
 0001:000b2430       _$E786                     004b3430 f   HunterInfoStage.obj
 0001:000b2440       _$E785                     004b3440 f   HunterInfoStage.obj
 0001:000b2450       _$E792                     004b3450 f   HunterInfoStage.obj
 0001:000b2460       _$E789                     004b3460 f   HunterInfoStage.obj
 0001:000b2480       _$E791                     004b3480 f   HunterInfoStage.obj
 0001:000b2490       _$E790                     004b3490 f   HunterInfoStage.obj
 0001:000b24a0       _$E797                     004b34a0 f   HunterInfoStage.obj
 0001:000b24b0       _$E794                     004b34b0 f   HunterInfoStage.obj
 0001:000b24d0       _$E796                     004b34d0 f   HunterInfoStage.obj
 0001:000b24e0       _$E795                     004b34e0 f   HunterInfoStage.obj
 0001:000b24f0       _$E802                     004b34f0 f   HunterInfoStage.obj
 0001:000b2500       _$E799                     004b3500 f   HunterInfoStage.obj
 0001:000b2520       _$E801                     004b3520 f   HunterInfoStage.obj
 0001:000b2530       _$E800                     004b3530 f   HunterInfoStage.obj
 0001:000b2540       _$E807                     004b3540 f   HunterInfoStage.obj
 0001:000b2550       _$E804                     004b3550 f   HunterInfoStage.obj
 0001:000b2570       _$E806                     004b3570 f   HunterInfoStage.obj
 0001:000b2580       _$E805                     004b3580 f   HunterInfoStage.obj
 0001:000b2590       _$E812                     004b3590 f   HunterInfoStage.obj
 0001:000b25a0       _$E809                     004b35a0 f   HunterInfoStage.obj
 0001:000b25c0       _$E811                     004b35c0 f   HunterInfoStage.obj
 0001:000b25d0       _$E810                     004b35d0 f   HunterInfoStage.obj
 0001:000b25e0       _$E817                     004b35e0 f   HunterInfoStage.obj
 0001:000b25f0       _$E814                     004b35f0 f   HunterInfoStage.obj
 0001:000b2610       _$E816                     004b3610 f   HunterInfoStage.obj
 0001:000b2620       _$E815                     004b3620 f   HunterInfoStage.obj
 0001:000b2630       _$E822                     004b3630 f   HunterInfoStage.obj
 0001:000b2640       _$E819                     004b3640 f   HunterInfoStage.obj
 0001:000b2660       _$E821                     004b3660 f   HunterInfoStage.obj
 0001:000b2670       _$E820                     004b3670 f   HunterInfoStage.obj
 0001:000b2680       _$E827                     004b3680 f   HunterInfoStage.obj
 0001:000b2690       _$E824                     004b3690 f   HunterInfoStage.obj
 0001:000b26b0       _$E826                     004b36b0 f   HunterInfoStage.obj
 0001:000b26c0       _$E825                     004b36c0 f   HunterInfoStage.obj
 0001:000b26d0       _$E832                     004b36d0 f   HunterInfoStage.obj
 0001:000b26e0       _$E829                     004b36e0 f   HunterInfoStage.obj
 0001:000b2700       _$E831                     004b3700 f   HunterInfoStage.obj
 0001:000b2710       _$E830                     004b3710 f   HunterInfoStage.obj
 0001:000b2720       _$E837                     004b3720 f   HunterInfoStage.obj
 0001:000b2730       _$E834                     004b3730 f   HunterInfoStage.obj
 0001:000b2750       _$E836                     004b3750 f   HunterInfoStage.obj
 0001:000b2760       _$E835                     004b3760 f   HunterInfoStage.obj
 0001:000b2770       _$E842                     004b3770 f   HunterInfoStage.obj
 0001:000b2780       _$E839                     004b3780 f   HunterInfoStage.obj
 0001:000b27a0       _$E841                     004b37a0 f   HunterInfoStage.obj
 0001:000b27b0       _$E840                     004b37b0 f   HunterInfoStage.obj
 0001:000b27c0       _$E847                     004b37c0 f   HunterInfoStage.obj
 0001:000b27d0       _$E844                     004b37d0 f   HunterInfoStage.obj
 0001:000b27f0       _$E846                     004b37f0 f   HunterInfoStage.obj
 0001:000b2800       _$E845                     004b3800 f   HunterInfoStage.obj
 0001:000b2810       _$E852                     004b3810 f   HunterInfoStage.obj
 0001:000b2820       _$E849                     004b3820 f   HunterInfoStage.obj
 0001:000b2840       _$E851                     004b3840 f   HunterInfoStage.obj
 0001:000b2850       _$E850                     004b3850 f   HunterInfoStage.obj
 0001:000b2860       _$E857                     004b3860 f   HunterInfoStage.obj
 0001:000b2870       _$E854                     004b3870 f   HunterInfoStage.obj
 0001:000b2890       _$E856                     004b3890 f   HunterInfoStage.obj
 0001:000b28a0       _$E855                     004b38a0 f   HunterInfoStage.obj
 0001:000b28b0       _$E862                     004b38b0 f   HunterInfoStage.obj
 0001:000b28c0       _$E859                     004b38c0 f   HunterInfoStage.obj
 0001:000b28e0       _$E861                     004b38e0 f   HunterInfoStage.obj
 0001:000b28f0       _$E860                     004b38f0 f   HunterInfoStage.obj
 0001:000b2900       _$E867                     004b3900 f   HunterInfoStage.obj
 0001:000b2910       _$E864                     004b3910 f   HunterInfoStage.obj
 0001:000b2930       _$E866                     004b3930 f   HunterInfoStage.obj
 0001:000b2940       _$E865                     004b3940 f   HunterInfoStage.obj
 0001:000b2950       _$E872                     004b3950 f   HunterInfoStage.obj
 0001:000b2960       _$E869                     004b3960 f   HunterInfoStage.obj
 0001:000b2980       _$E871                     004b3980 f   HunterInfoStage.obj
 0001:000b2990       _$E870                     004b3990 f   HunterInfoStage.obj
 0001:000b29a0       _$E877                     004b39a0 f   HunterInfoStage.obj
 0001:000b29b0       _$E874                     004b39b0 f   HunterInfoStage.obj
 0001:000b29d0       _$E876                     004b39d0 f   HunterInfoStage.obj
 0001:000b29e0       _$E875                     004b39e0 f   HunterInfoStage.obj
 0001:000b29f0       _$E882                     004b39f0 f   HunterInfoStage.obj
 0001:000b2a00       _$E879                     004b3a00 f   HunterInfoStage.obj
 0001:000b2a20       _$E881                     004b3a20 f   HunterInfoStage.obj
 0001:000b2a30       _$E880                     004b3a30 f   HunterInfoStage.obj
 0001:000b2a40       _$E887                     004b3a40 f   HunterInfoStage.obj
 0001:000b2a50       _$E884                     004b3a50 f   HunterInfoStage.obj
 0001:000b2a70       _$E886                     004b3a70 f   HunterInfoStage.obj
 0001:000b2a80       _$E885                     004b3a80 f   HunterInfoStage.obj
 0001:000b2a90       _$E892                     004b3a90 f   HunterInfoStage.obj
 0001:000b2aa0       _$E889                     004b3aa0 f   HunterInfoStage.obj
 0001:000b2ac0       _$E891                     004b3ac0 f   HunterInfoStage.obj
 0001:000b2ad0       _$E890                     004b3ad0 f   HunterInfoStage.obj
 0001:000b2ae0       _$E897                     004b3ae0 f   HunterInfoStage.obj
 0001:000b2af0       _$E894                     004b3af0 f   HunterInfoStage.obj
 0001:000b2b10       _$E896                     004b3b10 f   HunterInfoStage.obj
 0001:000b2b20       _$E895                     004b3b20 f   HunterInfoStage.obj
 0001:000b2b30       _$E902                     004b3b30 f   HunterInfoStage.obj
 0001:000b2b40       _$E899                     004b3b40 f   HunterInfoStage.obj
 0001:000b2b60       _$E901                     004b3b60 f   HunterInfoStage.obj
 0001:000b2b70       _$E900                     004b3b70 f   HunterInfoStage.obj
 0001:000b2b80       _$E907                     004b3b80 f   HunterInfoStage.obj
 0001:000b2b90       _$E904                     004b3b90 f   HunterInfoStage.obj
 0001:000b2bb0       _$E906                     004b3bb0 f   HunterInfoStage.obj
 0001:000b2bc0       _$E905                     004b3bc0 f   HunterInfoStage.obj
 0001:000b2bd0       _$E912                     004b3bd0 f   HunterInfoStage.obj
 0001:000b2be0       _$E909                     004b3be0 f   HunterInfoStage.obj
 0001:000b2c00       _$E911                     004b3c00 f   HunterInfoStage.obj
 0001:000b2c10       _$E910                     004b3c10 f   HunterInfoStage.obj
 0001:000b2c20       _$E917                     004b3c20 f   HunterInfoStage.obj
 0001:000b2c30       _$E914                     004b3c30 f   HunterInfoStage.obj
 0001:000b2c50       _$E916                     004b3c50 f   HunterInfoStage.obj
 0001:000b2c60       _$E915                     004b3c60 f   HunterInfoStage.obj
 0001:000b2c70       _$E922                     004b3c70 f   HunterInfoStage.obj
 0001:000b2c80       _$E919                     004b3c80 f   HunterInfoStage.obj
 0001:000b2ca0       _$E921                     004b3ca0 f   HunterInfoStage.obj
 0001:000b2cb0       _$E920                     004b3cb0 f   HunterInfoStage.obj
 0001:000b2cc0       _$E927                     004b3cc0 f   HunterInfoStage.obj
 0001:000b2cd0       _$E924                     004b3cd0 f   HunterInfoStage.obj
 0001:000b2cf0       _$E926                     004b3cf0 f   HunterInfoStage.obj
 0001:000b2d00       _$E925                     004b3d00 f   HunterInfoStage.obj
 0001:000b2d10       _$E932                     004b3d10 f   HunterInfoStage.obj
 0001:000b2d20       _$E929                     004b3d20 f   HunterInfoStage.obj
 0001:000b2d40       _$E931                     004b3d40 f   HunterInfoStage.obj
 0001:000b2d50       _$E930                     004b3d50 f   HunterInfoStage.obj
 0001:000b2d60       _$E937                     004b3d60 f   HunterInfoStage.obj
 0001:000b2d70       _$E934                     004b3d70 f   HunterInfoStage.obj
 0001:000b2d90       _$E936                     004b3d90 f   HunterInfoStage.obj
 0001:000b2da0       _$E935                     004b3da0 f   HunterInfoStage.obj
 0001:000b2db0       _$E942                     004b3db0 f   HunterInfoStage.obj
 0001:000b2dc0       _$E939                     004b3dc0 f   HunterInfoStage.obj
 0001:000b2de0       _$E941                     004b3de0 f   HunterInfoStage.obj
 0001:000b2df0       _$E940                     004b3df0 f   HunterInfoStage.obj
 0001:000b2e00       _$E947                     004b3e00 f   HunterInfoStage.obj
 0001:000b2e10       _$E944                     004b3e10 f   HunterInfoStage.obj
 0001:000b2e30       _$E946                     004b3e30 f   HunterInfoStage.obj
 0001:000b2e40       _$E945                     004b3e40 f   HunterInfoStage.obj
 0001:000b2e50       _$E952                     004b3e50 f   HunterInfoStage.obj
 0001:000b2e60       _$E949                     004b3e60 f   HunterInfoStage.obj
 0001:000b2e80       _$E951                     004b3e80 f   HunterInfoStage.obj
 0001:000b2e90       _$E950                     004b3e90 f   HunterInfoStage.obj
 0001:000b2ea0       _$E957                     004b3ea0 f   HunterInfoStage.obj
 0001:000b2eb0       _$E954                     004b3eb0 f   HunterInfoStage.obj
 0001:000b2ed0       _$E956                     004b3ed0 f   HunterInfoStage.obj
 0001:000b2ee0       _$E955                     004b3ee0 f   HunterInfoStage.obj
 0001:000b2ef0       _$E962                     004b3ef0 f   HunterInfoStage.obj
 0001:000b2f00       _$E959                     004b3f00 f   HunterInfoStage.obj
 0001:000b2f20       _$E961                     004b3f20 f   HunterInfoStage.obj
 0001:000b2f30       _$E960                     004b3f30 f   HunterInfoStage.obj
 0001:000b2f40       _$E967                     004b3f40 f   HunterInfoStage.obj
 0001:000b2f50       _$E964                     004b3f50 f   HunterInfoStage.obj
 0001:000b2f70       _$E966                     004b3f70 f   HunterInfoStage.obj
 0001:000b2f80       _$E965                     004b3f80 f   HunterInfoStage.obj
 0001:000b2f90       _$E972                     004b3f90 f   HunterInfoStage.obj
 0001:000b2fa0       _$E969                     004b3fa0 f   HunterInfoStage.obj
 0001:000b2fc0       _$E971                     004b3fc0 f   HunterInfoStage.obj
 0001:000b2fd0       _$E970                     004b3fd0 f   HunterInfoStage.obj
 0001:000b2fe0       _$E977                     004b3fe0 f   HunterInfoStage.obj
 0001:000b2ff0       _$E974                     004b3ff0 f   HunterInfoStage.obj
 0001:000b3010       _$E976                     004b4010 f   HunterInfoStage.obj
 0001:000b3020       _$E975                     004b4020 f   HunterInfoStage.obj
 0001:000b3030       _$E982                     004b4030 f   HunterInfoStage.obj
 0001:000b3040       _$E979                     004b4040 f   HunterInfoStage.obj
 0001:000b3060       _$E981                     004b4060 f   HunterInfoStage.obj
 0001:000b3070       _$E980                     004b4070 f   HunterInfoStage.obj
 0001:000b3080       _$E987                     004b4080 f   HunterInfoStage.obj
 0001:000b3090       _$E984                     004b4090 f   HunterInfoStage.obj
 0001:000b30b0       _$E986                     004b40b0 f   HunterInfoStage.obj
 0001:000b30c0       _$E985                     004b40c0 f   HunterInfoStage.obj
 0001:000b30d0       _$E992                     004b40d0 f   HunterInfoStage.obj
 0001:000b30e0       _$E989                     004b40e0 f   HunterInfoStage.obj
 0001:000b3100       _$E991                     004b4100 f   HunterInfoStage.obj
 0001:000b3110       _$E990                     004b4110 f   HunterInfoStage.obj
 0001:000b3120       _$E997                     004b4120 f   HunterInfoStage.obj
 0001:000b3130       _$E994                     004b4130 f   HunterInfoStage.obj
 0001:000b3150       _$E996                     004b4150 f   HunterInfoStage.obj
 0001:000b3160       _$E995                     004b4160 f   HunterInfoStage.obj
 0001:000b3170       _$E1002                    004b4170 f   HunterInfoStage.obj
 0001:000b3180       _$E999                     004b4180 f   HunterInfoStage.obj
 0001:000b31a0       _$E1001                    004b41a0 f   HunterInfoStage.obj
 0001:000b31b0       _$E1000                    004b41b0 f   HunterInfoStage.obj
 0001:000b31c0       _$E1007                    004b41c0 f   HunterInfoStage.obj
 0001:000b31d0       _$E1004                    004b41d0 f   HunterInfoStage.obj
 0001:000b31f0       _$E1006                    004b41f0 f   HunterInfoStage.obj
 0001:000b3200       _$E1005                    004b4200 f   HunterInfoStage.obj
 0001:000b3210       _$E1012                    004b4210 f   HunterInfoStage.obj
 0001:000b3220       _$E1009                    004b4220 f   HunterInfoStage.obj
 0001:000b3240       _$E1011                    004b4240 f   HunterInfoStage.obj
 0001:000b3250       _$E1010                    004b4250 f   HunterInfoStage.obj
 0001:000b3260       _$E1017                    004b4260 f   HunterInfoStage.obj
 0001:000b3270       _$E1014                    004b4270 f   HunterInfoStage.obj
 0001:000b3290       _$E1016                    004b4290 f   HunterInfoStage.obj
 0001:000b32a0       _$E1015                    004b42a0 f   HunterInfoStage.obj
 0001:000b32b0       _$E1022                    004b42b0 f   HunterInfoStage.obj
 0001:000b32c0       _$E1019                    004b42c0 f   HunterInfoStage.obj
 0001:000b32e0       _$E1021                    004b42e0 f   HunterInfoStage.obj
 0001:000b32f0       _$E1020                    004b42f0 f   HunterInfoStage.obj
 0001:000b3300       _$E1027                    004b4300 f   HunterInfoStage.obj
 0001:000b3310       _$E1024                    004b4310 f   HunterInfoStage.obj
 0001:000b3330       _$E1026                    004b4330 f   HunterInfoStage.obj
 0001:000b3340       _$E1025                    004b4340 f   HunterInfoStage.obj
 0001:000b3350       _$E1032                    004b4350 f   HunterInfoStage.obj
 0001:000b3360       _$E1029                    004b4360 f   HunterInfoStage.obj
 0001:000b3380       _$E1031                    004b4380 f   HunterInfoStage.obj
 0001:000b3390       _$E1030                    004b4390 f   HunterInfoStage.obj
 0001:000b33a0       _$E1037                    004b43a0 f   HunterInfoStage.obj
 0001:000b33b0       _$E1034                    004b43b0 f   HunterInfoStage.obj
 0001:000b33d0       _$E1036                    004b43d0 f   HunterInfoStage.obj
 0001:000b33e0       _$E1035                    004b43e0 f   HunterInfoStage.obj
 0001:000b33f0       _$E1042                    004b43f0 f   HunterInfoStage.obj
 0001:000b3400       _$E1039                    004b4400 f   HunterInfoStage.obj
 0001:000b3420       _$E1041                    004b4420 f   HunterInfoStage.obj
 0001:000b3430       _$E1040                    004b4430 f   HunterInfoStage.obj
 0001:000b3440       _$E1047                    004b4440 f   HunterInfoStage.obj
 0001:000b3450       _$E1044                    004b4450 f   HunterInfoStage.obj
 0001:000b3470       _$E1046                    004b4470 f   HunterInfoStage.obj
 0001:000b3480       _$E1045                    004b4480 f   HunterInfoStage.obj
 0001:000b3490       _$E1052                    004b4490 f   HunterInfoStage.obj
 0001:000b34a0       _$E1049                    004b44a0 f   HunterInfoStage.obj
 0001:000b34c0       _$E1051                    004b44c0 f   HunterInfoStage.obj
 0001:000b34d0       _$E1050                    004b44d0 f   HunterInfoStage.obj
 0001:000b34e0       _$E1057                    004b44e0 f   HunterInfoStage.obj
 0001:000b34f0       _$E1054                    004b44f0 f   HunterInfoStage.obj
 0001:000b3510       _$E1056                    004b4510 f   HunterInfoStage.obj
 0001:000b3520       _$E1055                    004b4520 f   HunterInfoStage.obj
 0001:000b3530       _$E1062                    004b4530 f   HunterInfoStage.obj
 0001:000b3540       _$E1059                    004b4540 f   HunterInfoStage.obj
 0001:000b3560       _$E1061                    004b4560 f   HunterInfoStage.obj
 0001:000b3570       _$E1060                    004b4570 f   HunterInfoStage.obj
 0001:000b3580       _$E1067                    004b4580 f   HunterInfoStage.obj
 0001:000b3590       _$E1064                    004b4590 f   HunterInfoStage.obj
 0001:000b35b0       _$E1066                    004b45b0 f   HunterInfoStage.obj
 0001:000b35c0       _$E1065                    004b45c0 f   HunterInfoStage.obj
 0001:000b35d0       _$E1072                    004b45d0 f   HunterInfoStage.obj
 0001:000b35e0       _$E1069                    004b45e0 f   HunterInfoStage.obj
 0001:000b3600       _$E1071                    004b4600 f   HunterInfoStage.obj
 0001:000b3610       _$E1070                    004b4610 f   HunterInfoStage.obj
 0001:000b3620       _$E1077                    004b4620 f   HunterInfoStage.obj
 0001:000b3630       _$E1074                    004b4630 f   HunterInfoStage.obj
 0001:000b3650       _$E1076                    004b4650 f   HunterInfoStage.obj
 0001:000b3660       _$E1075                    004b4660 f   HunterInfoStage.obj
 0001:000b3670       _$E1082                    004b4670 f   HunterInfoStage.obj
 0001:000b3680       _$E1079                    004b4680 f   HunterInfoStage.obj
 0001:000b36a0       _$E1081                    004b46a0 f   HunterInfoStage.obj
 0001:000b36b0       _$E1080                    004b46b0 f   HunterInfoStage.obj
 0001:000b36c0       _$E1087                    004b46c0 f   HunterInfoStage.obj
 0001:000b36d0       _$E1084                    004b46d0 f   HunterInfoStage.obj
 0001:000b36f0       _$E1086                    004b46f0 f   HunterInfoStage.obj
 0001:000b3700       _$E1085                    004b4700 f   HunterInfoStage.obj
 0001:000b3710       _$E1092                    004b4710 f   HunterInfoStage.obj
 0001:000b3720       _$E1089                    004b4720 f   HunterInfoStage.obj
 0001:000b3740       _$E1091                    004b4740 f   HunterInfoStage.obj
 0001:000b3750       _$E1090                    004b4750 f   HunterInfoStage.obj
 0001:000b3760       _$E1097                    004b4760 f   HunterInfoStage.obj
 0001:000b3770       _$E1094                    004b4770 f   HunterInfoStage.obj
 0001:000b3790       _$E1096                    004b4790 f   HunterInfoStage.obj
 0001:000b37a0       _$E1095                    004b47a0 f   HunterInfoStage.obj
 0001:000b37b0       _$E1102                    004b47b0 f   HunterInfoStage.obj
 0001:000b37c0       _$E1099                    004b47c0 f   HunterInfoStage.obj
 0001:000b37e0       _$E1101                    004b47e0 f   HunterInfoStage.obj
 0001:000b37f0       _$E1100                    004b47f0 f   HunterInfoStage.obj
 0001:000b3800       _$E1107                    004b4800 f   HunterInfoStage.obj
 0001:000b3810       _$E1104                    004b4810 f   HunterInfoStage.obj
 0001:000b3830       _$E1106                    004b4830 f   HunterInfoStage.obj
 0001:000b3840       _$E1105                    004b4840 f   HunterInfoStage.obj
 0001:000b3850       _$E1112                    004b4850 f   HunterInfoStage.obj
 0001:000b3860       _$E1109                    004b4860 f   HunterInfoStage.obj
 0001:000b3880       _$E1111                    004b4880 f   HunterInfoStage.obj
 0001:000b3890       _$E1110                    004b4890 f   HunterInfoStage.obj
 0001:000b38a0       _$E1117                    004b48a0 f   HunterInfoStage.obj
 0001:000b38b0       _$E1114                    004b48b0 f   HunterInfoStage.obj
 0001:000b38d0       _$E1116                    004b48d0 f   HunterInfoStage.obj
 0001:000b38e0       _$E1115                    004b48e0 f   HunterInfoStage.obj
 0001:000b38f0       _$E1122                    004b48f0 f   HunterInfoStage.obj
 0001:000b3900       _$E1119                    004b4900 f   HunterInfoStage.obj
 0001:000b3920       _$E1121                    004b4920 f   HunterInfoStage.obj
 0001:000b3930       _$E1120                    004b4930 f   HunterInfoStage.obj
 0001:000b3940       _$E1127                    004b4940 f   HunterInfoStage.obj
 0001:000b3950       _$E1124                    004b4950 f   HunterInfoStage.obj
 0001:000b3970       _$E1126                    004b4970 f   HunterInfoStage.obj
 0001:000b3980       _$E1125                    004b4980 f   HunterInfoStage.obj
 0001:000b3990       _$E1132                    004b4990 f   HunterInfoStage.obj
 0001:000b39a0       _$E1129                    004b49a0 f   HunterInfoStage.obj
 0001:000b39c0       _$E1131                    004b49c0 f   HunterInfoStage.obj
 0001:000b39d0       _$E1130                    004b49d0 f   HunterInfoStage.obj
 0001:000b39e0       _$E1137                    004b49e0 f   HunterInfoStage.obj
 0001:000b39f0       _$E1134                    004b49f0 f   HunterInfoStage.obj
 0001:000b3a10       _$E1136                    004b4a10 f   HunterInfoStage.obj
 0001:000b3a20       _$E1135                    004b4a20 f   HunterInfoStage.obj
 0001:000b3a30       _$E1142                    004b4a30 f   HunterInfoStage.obj
 0001:000b3a40       _$E1139                    004b4a40 f   HunterInfoStage.obj
 0001:000b3a60       _$E1141                    004b4a60 f   HunterInfoStage.obj
 0001:000b3a70       _$E1140                    004b4a70 f   HunterInfoStage.obj
 0001:000b3a80       _$E1147                    004b4a80 f   HunterInfoStage.obj
 0001:000b3a90       _$E1144                    004b4a90 f   HunterInfoStage.obj
 0001:000b3ab0       _$E1146                    004b4ab0 f   HunterInfoStage.obj
 0001:000b3ac0       _$E1145                    004b4ac0 f   HunterInfoStage.obj
 0001:000b3ad0       _$E1152                    004b4ad0 f   HunterInfoStage.obj
 0001:000b3ae0       _$E1149                    004b4ae0 f   HunterInfoStage.obj
 0001:000b3b00       _$E1151                    004b4b00 f   HunterInfoStage.obj
 0001:000b3b10       _$E1150                    004b4b10 f   HunterInfoStage.obj
 0001:000b3b20       _$E1157                    004b4b20 f   HunterInfoStage.obj
 0001:000b3b30       _$E1154                    004b4b30 f   HunterInfoStage.obj
 0001:000b3b50       _$E1156                    004b4b50 f   HunterInfoStage.obj
 0001:000b3b60       _$E1155                    004b4b60 f   HunterInfoStage.obj
 0001:000b3b70       _$E1162                    004b4b70 f   HunterInfoStage.obj
 0001:000b3b80       _$E1159                    004b4b80 f   HunterInfoStage.obj
 0001:000b3ba0       _$E1161                    004b4ba0 f   HunterInfoStage.obj
 0001:000b3bb0       _$E1160                    004b4bb0 f   HunterInfoStage.obj
 0001:000b3bc0       _$E1167                    004b4bc0 f   HunterInfoStage.obj
 0001:000b3bd0       _$E1164                    004b4bd0 f   HunterInfoStage.obj
 0001:000b3bf0       _$E1166                    004b4bf0 f   HunterInfoStage.obj
 0001:000b3c00       _$E1165                    004b4c00 f   HunterInfoStage.obj
 0001:000b3c10       _$E1172                    004b4c10 f   HunterInfoStage.obj
 0001:000b3c20       _$E1169                    004b4c20 f   HunterInfoStage.obj
 0001:000b3c40       _$E1171                    004b4c40 f   HunterInfoStage.obj
 0001:000b3c50       _$E1170                    004b4c50 f   HunterInfoStage.obj
 0001:000b3c60       _$E1177                    004b4c60 f   HunterInfoStage.obj
 0001:000b3c70       _$E1174                    004b4c70 f   HunterInfoStage.obj
 0001:000b3c90       _$E1176                    004b4c90 f   HunterInfoStage.obj
 0001:000b3ca0       _$E1175                    004b4ca0 f   HunterInfoStage.obj
 0001:000b3cb0       _$E1182                    004b4cb0 f   HunterInfoStage.obj
 0001:000b3cc0       _$E1179                    004b4cc0 f   HunterInfoStage.obj
 0001:000b3ce0       _$E1181                    004b4ce0 f   HunterInfoStage.obj
 0001:000b3cf0       _$E1180                    004b4cf0 f   HunterInfoStage.obj
 0001:000b3d00       _$E1187                    004b4d00 f   HunterInfoStage.obj
 0001:000b3d10       _$E1184                    004b4d10 f   HunterInfoStage.obj
 0001:000b3d30       _$E1186                    004b4d30 f   HunterInfoStage.obj
 0001:000b3d40       _$E1185                    004b4d40 f   HunterInfoStage.obj
 0001:000b3d50       _$E1192                    004b4d50 f   HunterInfoStage.obj
 0001:000b3d60       _$E1189                    004b4d60 f   HunterInfoStage.obj
 0001:000b3d80       _$E1191                    004b4d80 f   HunterInfoStage.obj
 0001:000b3d90       _$E1190                    004b4d90 f   HunterInfoStage.obj
 0001:000b3da0       _$E1197                    004b4da0 f   HunterInfoStage.obj
 0001:000b3db0       _$E1194                    004b4db0 f   HunterInfoStage.obj
 0001:000b3dd0       _$E1196                    004b4dd0 f   HunterInfoStage.obj
 0001:000b3de0       _$E1195                    004b4de0 f   HunterInfoStage.obj
 0001:000b3df0       _$E1202                    004b4df0 f   HunterInfoStage.obj
 0001:000b3e00       _$E1199                    004b4e00 f   HunterInfoStage.obj
 0001:000b3e20       _$E1201                    004b4e20 f   HunterInfoStage.obj
 0001:000b3e30       _$E1200                    004b4e30 f   HunterInfoStage.obj
 0001:000b3e40       _$E1207                    004b4e40 f   HunterInfoStage.obj
 0001:000b3e50       _$E1204                    004b4e50 f   HunterInfoStage.obj
 0001:000b3e70       _$E1206                    004b4e70 f   HunterInfoStage.obj
 0001:000b3e80       _$E1205                    004b4e80 f   HunterInfoStage.obj
 0001:000b3e90       _$E1212                    004b4e90 f   HunterInfoStage.obj
 0001:000b3ea0       _$E1209                    004b4ea0 f   HunterInfoStage.obj
 0001:000b3ec0       _$E1211                    004b4ec0 f   HunterInfoStage.obj
 0001:000b3ed0       _$E1210                    004b4ed0 f   HunterInfoStage.obj
 0001:000b3ee0       _$E1217                    004b4ee0 f   HunterInfoStage.obj
 0001:000b3ef0       _$E1214                    004b4ef0 f   HunterInfoStage.obj
 0001:000b3f10       _$E1216                    004b4f10 f   HunterInfoStage.obj
 0001:000b3f20       _$E1215                    004b4f20 f   HunterInfoStage.obj
 0001:000b3f30       _$E1222                    004b4f30 f   HunterInfoStage.obj
 0001:000b3f40       _$E1219                    004b4f40 f   HunterInfoStage.obj
 0001:000b3f60       _$E1221                    004b4f60 f   HunterInfoStage.obj
 0001:000b3f70       _$E1220                    004b4f70 f   HunterInfoStage.obj
 0001:000b3f80       _$E1227                    004b4f80 f   HunterInfoStage.obj
 0001:000b3f90       _$E1224                    004b4f90 f   HunterInfoStage.obj
 0001:000b3fb0       _$E1226                    004b4fb0 f   HunterInfoStage.obj
 0001:000b3fc0       _$E1225                    004b4fc0 f   HunterInfoStage.obj
 0001:000b3fd0       _$E1232                    004b4fd0 f   HunterInfoStage.obj
 0001:000b3fe0       _$E1229                    004b4fe0 f   HunterInfoStage.obj
 0001:000b4000       _$E1231                    004b5000 f   HunterInfoStage.obj
 0001:000b4010       _$E1230                    004b5010 f   HunterInfoStage.obj
 0001:000b4020       _$E1237                    004b5020 f   HunterInfoStage.obj
 0001:000b4030       _$E1234                    004b5030 f   HunterInfoStage.obj
 0001:000b4050       _$E1236                    004b5050 f   HunterInfoStage.obj
 0001:000b4060       _$E1235                    004b5060 f   HunterInfoStage.obj
 0001:000b4070       _$E1242                    004b5070 f   HunterInfoStage.obj
 0001:000b4080       _$E1239                    004b5080 f   HunterInfoStage.obj
 0001:000b40a0       _$E1241                    004b50a0 f   HunterInfoStage.obj
 0001:000b40b0       _$E1240                    004b50b0 f   HunterInfoStage.obj
 0001:000b40c0       _$E1247                    004b50c0 f   HunterInfoStage.obj
 0001:000b40d0       _$E1244                    004b50d0 f   HunterInfoStage.obj
 0001:000b40f0       _$E1246                    004b50f0 f   HunterInfoStage.obj
 0001:000b4100       _$E1245                    004b5100 f   HunterInfoStage.obj
 0001:000b4110       _$E1252                    004b5110 f   HunterInfoStage.obj
 0001:000b4120       _$E1249                    004b5120 f   HunterInfoStage.obj
 0001:000b4140       _$E1251                    004b5140 f   HunterInfoStage.obj
 0001:000b4150       _$E1250                    004b5150 f   HunterInfoStage.obj
 0001:000b4160       _$E1257                    004b5160 f   HunterInfoStage.obj
 0001:000b4170       _$E1254                    004b5170 f   HunterInfoStage.obj
 0001:000b4190       _$E1256                    004b5190 f   HunterInfoStage.obj
 0001:000b41a0       _$E1255                    004b51a0 f   HunterInfoStage.obj
 0001:000b41b0       _$E1262                    004b51b0 f   HunterInfoStage.obj
 0001:000b41c0       _$E1259                    004b51c0 f   HunterInfoStage.obj
 0001:000b41e0       _$E1261                    004b51e0 f   HunterInfoStage.obj
 0001:000b41f0       _$E1260                    004b51f0 f   HunterInfoStage.obj
 0001:000b4200       _$E1267                    004b5200 f   HunterInfoStage.obj
 0001:000b4210       _$E1264                    004b5210 f   HunterInfoStage.obj
 0001:000b4230       _$E1266                    004b5230 f   HunterInfoStage.obj
 0001:000b4240       _$E1265                    004b5240 f   HunterInfoStage.obj
 0001:0009c8c0       _$E15                      0049d8c0 f   GameOptionsMenu.obj
 0001:0009c8d0       _$E14                      0049d8d0 f   GameOptionsMenu.obj
 0001:0009ca20       _$E18                      0049da20 f   GameOptionsMenu.obj
 0001:0009ca30       _$E17                      0049da30 f   GameOptionsMenu.obj
 0001:0009cab0       _$E21                      0049dab0 f   GameOptionsMenu.obj
 0001:0009cac0       _$E20                      0049dac0 f   GameOptionsMenu.obj
 0001:0009cad0       _$E24                      0049dad0 f   GameOptionsMenu.obj
 0001:0009cae0       _$E23                      0049dae0 f   GameOptionsMenu.obj
 0001:0009cb60       _$E27                      0049db60 f   GameOptionsMenu.obj
 0001:0009cb70       _$E26                      0049db70 f   GameOptionsMenu.obj
 0001:0009cbf0       _$E30                      0049dbf0 f   GameOptionsMenu.obj
 0001:0009cc00       _$E29                      0049dc00 f   GameOptionsMenu.obj
 0001:0009cc80       _$E33                      0049dc80 f   GameOptionsMenu.obj
 0001:0009cc90       _$E32                      0049dc90 f   GameOptionsMenu.obj
 0001:0009cca0       _$E36                      0049dca0 f   GameOptionsMenu.obj
 0001:0009ccb0       _$E35                      0049dcb0 f   GameOptionsMenu.obj
 0001:0009cd30       _$E39                      0049dd30 f   GameOptionsMenu.obj
 0001:0009cd40       _$E38                      0049dd40 f   GameOptionsMenu.obj
 0001:0009cdc0       _$E42                      0049ddc0 f   GameOptionsMenu.obj
 0001:0009cdd0       _$E41                      0049ddd0 f   GameOptionsMenu.obj
 0001:0009ce50       _$E45                      0049de50 f   GameOptionsMenu.obj
 0001:0009ce60       _$E44                      0049de60 f   GameOptionsMenu.obj
 0001:0009cee0       _$E48                      0049dee0 f   GameOptionsMenu.obj
 0001:0009cef0       _$E47                      0049def0 f   GameOptionsMenu.obj
 0001:0009cf70       _$E51                      0049df70 f   GameOptionsMenu.obj
 0001:0009cf80       _$E50                      0049df80 f   GameOptionsMenu.obj
 0001:0009d000       _$E54                      0049e000 f   GameOptionsMenu.obj
 0001:0009d010       _$E53                      0049e010 f   GameOptionsMenu.obj
 0001:0009d090       _$E57                      0049e090 f   GameOptionsMenu.obj
 0001:0009d0a0       _$E56                      0049e0a0 f   GameOptionsMenu.obj
 0001:0009d120       _$E62                      0049e120 f   GameOptionsMenu.obj
 0001:0009d130       _$E59                      0049e130 f   GameOptionsMenu.obj
 0001:0009d150       _$E61                      0049e150 f   GameOptionsMenu.obj
 0001:0009d160       _$E60                      0049e160 f   GameOptionsMenu.obj
 0001:0009d170       _$E67                      0049e170 f   GameOptionsMenu.obj
 0001:0009d180       _$E64                      0049e180 f   GameOptionsMenu.obj
 0001:0009d1a0       _$E66                      0049e1a0 f   GameOptionsMenu.obj
 0001:0009d1b0       _$E65                      0049e1b0 f   GameOptionsMenu.obj
 0001:0009d1c0       _$E72                      0049e1c0 f   GameOptionsMenu.obj
 0001:0009d1d0       _$E69                      0049e1d0 f   GameOptionsMenu.obj
 0001:0009d1f0       _$E71                      0049e1f0 f   GameOptionsMenu.obj
 0001:0009d200       _$E70                      0049e200 f   GameOptionsMenu.obj
 0001:0009d210       _$E77                      0049e210 f   GameOptionsMenu.obj
 0001:0009d220       _$E74                      0049e220 f   GameOptionsMenu.obj
 0001:0009d240       _$E76                      0049e240 f   GameOptionsMenu.obj
 0001:0009d250       _$E75                      0049e250 f   GameOptionsMenu.obj
 0001:0009d260       _$E82                      0049e260 f   GameOptionsMenu.obj
 0001:0009d270       _$E79                      0049e270 f   GameOptionsMenu.obj
 0001:0009d290       _$E81                      0049e290 f   GameOptionsMenu.obj
 0001:0009d2a0       _$E80                      0049e2a0 f   GameOptionsMenu.obj
 0001:0009d2b0       _$E87                      0049e2b0 f   GameOptionsMenu.obj
 0001:0009d2c0       _$E84                      0049e2c0 f   GameOptionsMenu.obj
 0001:0009d2e0       _$E86                      0049e2e0 f   GameOptionsMenu.obj
 0001:0009d2f0       _$E85                      0049e2f0 f   GameOptionsMenu.obj
 0001:0009d300       _$E92                      0049e300 f   GameOptionsMenu.obj
 0001:0009d310       _$E89                      0049e310 f   GameOptionsMenu.obj
 0001:0009d330       _$E91                      0049e330 f   GameOptionsMenu.obj
 0001:0009d340       _$E90                      0049e340 f   GameOptionsMenu.obj
 0001:0009d350       _$E97                      0049e350 f   GameOptionsMenu.obj
 0001:0009d360       _$E94                      0049e360 f   GameOptionsMenu.obj
 0001:0009d380       _$E96                      0049e380 f   GameOptionsMenu.obj
 0001:0009d390       _$E95                      0049e390 f   GameOptionsMenu.obj
 0001:0009d3a0       _$E102                     0049e3a0 f   GameOptionsMenu.obj
 0001:0009d3b0       _$E99                      0049e3b0 f   GameOptionsMenu.obj
 0001:0009d3d0       _$E101                     0049e3d0 f   GameOptionsMenu.obj
 0001:0009d3e0       _$E100                     0049e3e0 f   GameOptionsMenu.obj
 0001:0009d3f0       _$E107                     0049e3f0 f   GameOptionsMenu.obj
 0001:0009d400       _$E104                     0049e400 f   GameOptionsMenu.obj
 0001:0009d420       _$E106                     0049e420 f   GameOptionsMenu.obj
 0001:0009d430       _$E105                     0049e430 f   GameOptionsMenu.obj
 0001:0009d440       _$E112                     0049e440 f   GameOptionsMenu.obj
 0001:0009d450       _$E109                     0049e450 f   GameOptionsMenu.obj
 0001:0009d470       _$E111                     0049e470 f   GameOptionsMenu.obj
 0001:0009d480       _$E110                     0049e480 f   GameOptionsMenu.obj
 0001:0009d490       _$E117                     0049e490 f   GameOptionsMenu.obj
 0001:0009d4a0       _$E114                     0049e4a0 f   GameOptionsMenu.obj
 0001:0009d4c0       _$E116                     0049e4c0 f   GameOptionsMenu.obj
 0001:0009d4d0       _$E115                     0049e4d0 f   GameOptionsMenu.obj
 0001:0009d4e0       _$E122                     0049e4e0 f   GameOptionsMenu.obj
 0001:0009d4f0       _$E119                     0049e4f0 f   GameOptionsMenu.obj
 0001:0009d510       _$E121                     0049e510 f   GameOptionsMenu.obj
 0001:0009d520       _$E120                     0049e520 f   GameOptionsMenu.obj
 0001:0009d530       _$E127                     0049e530 f   GameOptionsMenu.obj
 0001:0009d540       _$E124                     0049e540 f   GameOptionsMenu.obj
 0001:0009d560       _$E126                     0049e560 f   GameOptionsMenu.obj
 0001:0009d570       _$E125                     0049e570 f   GameOptionsMenu.obj
 0001:0009d580       _$E132                     0049e580 f   GameOptionsMenu.obj
 0001:0009d590       _$E129                     0049e590 f   GameOptionsMenu.obj
 0001:0009d5b0       _$E131                     0049e5b0 f   GameOptionsMenu.obj
 0001:0009d5c0       _$E130                     0049e5c0 f   GameOptionsMenu.obj
 0001:0009d5d0       _$E137                     0049e5d0 f   GameOptionsMenu.obj
 0001:0009d5e0       _$E134                     0049e5e0 f   GameOptionsMenu.obj
 0001:0009d600       _$E136                     0049e600 f   GameOptionsMenu.obj
 0001:0009d610       _$E135                     0049e610 f   GameOptionsMenu.obj
 0001:0009d620       _$E142                     0049e620 f   GameOptionsMenu.obj
 0001:0009d630       _$E139                     0049e630 f   GameOptionsMenu.obj
 0001:0009d650       _$E141                     0049e650 f   GameOptionsMenu.obj
 0001:0009d660       _$E140                     0049e660 f   GameOptionsMenu.obj
 0001:0009d670       _$E147                     0049e670 f   GameOptionsMenu.obj
 0001:0009d680       _$E144                     0049e680 f   GameOptionsMenu.obj
 0001:0009d6a0       _$E146                     0049e6a0 f   GameOptionsMenu.obj
 0001:0009d6b0       _$E145                     0049e6b0 f   GameOptionsMenu.obj
 0001:0009d6c0       _$E152                     0049e6c0 f   GameOptionsMenu.obj
 0001:0009d6d0       _$E149                     0049e6d0 f   GameOptionsMenu.obj
 0001:0009d6f0       _$E151                     0049e6f0 f   GameOptionsMenu.obj
 0001:0009d700       _$E150                     0049e700 f   GameOptionsMenu.obj
 0001:0009d710       _$E157                     0049e710 f   GameOptionsMenu.obj
 0001:0009d720       _$E154                     0049e720 f   GameOptionsMenu.obj
 0001:0009d740       _$E156                     0049e740 f   GameOptionsMenu.obj
 0001:0009d750       _$E155                     0049e750 f   GameOptionsMenu.obj
 0001:0009d760       _$E162                     0049e760 f   GameOptionsMenu.obj
 0001:0009d770       _$E159                     0049e770 f   GameOptionsMenu.obj
 0001:0009d790       _$E161                     0049e790 f   GameOptionsMenu.obj
 0001:0009d7a0       _$E160                     0049e7a0 f   GameOptionsMenu.obj
 0001:0009d7b0       _$E167                     0049e7b0 f   GameOptionsMenu.obj
 0001:0009d7c0       _$E164                     0049e7c0 f   GameOptionsMenu.obj
 0001:0009d7e0       _$E166                     0049e7e0 f   GameOptionsMenu.obj
 0001:0009d7f0       _$E165                     0049e7f0 f   GameOptionsMenu.obj
 0001:0009d800       _$E172                     0049e800 f   GameOptionsMenu.obj
 0001:0009d810       _$E169                     0049e810 f   GameOptionsMenu.obj
 0001:0009d830       _$E171                     0049e830 f   GameOptionsMenu.obj
 0001:0009d840       _$E170                     0049e840 f   GameOptionsMenu.obj
 0001:0009d850       _$E177                     0049e850 f   GameOptionsMenu.obj
 0001:0009d860       _$E174                     0049e860 f   GameOptionsMenu.obj
 0001:0009d880       _$E176                     0049e880 f   GameOptionsMenu.obj
 0001:0009d890       _$E175                     0049e890 f   GameOptionsMenu.obj
 0001:0009d8a0       _$E182                     0049e8a0 f   GameOptionsMenu.obj
 0001:0009d8b0       _$E179                     0049e8b0 f   GameOptionsMenu.obj
 0001:0009d8d0       _$E181                     0049e8d0 f   GameOptionsMenu.obj
 0001:0009d8e0       _$E180                     0049e8e0 f   GameOptionsMenu.obj
 0001:0009d8f0       _$E187                     0049e8f0 f   GameOptionsMenu.obj
 0001:0009d900       _$E184                     0049e900 f   GameOptionsMenu.obj
 0001:0009d920       _$E186                     0049e920 f   GameOptionsMenu.obj
 0001:0009d930       _$E185                     0049e930 f   GameOptionsMenu.obj
 0001:0009d940       _$E192                     0049e940 f   GameOptionsMenu.obj
 0001:0009d950       _$E189                     0049e950 f   GameOptionsMenu.obj
 0001:0009d970       _$E191                     0049e970 f   GameOptionsMenu.obj
 0001:0009d980       _$E190                     0049e980 f   GameOptionsMenu.obj
 0001:0009d990       _$E197                     0049e990 f   GameOptionsMenu.obj
 0001:0009d9a0       _$E194                     0049e9a0 f   GameOptionsMenu.obj
 0001:0009d9c0       _$E196                     0049e9c0 f   GameOptionsMenu.obj
 0001:0009d9d0       _$E195                     0049e9d0 f   GameOptionsMenu.obj
 0001:0009d9e0       _$E202                     0049e9e0 f   GameOptionsMenu.obj
 0001:0009d9f0       _$E199                     0049e9f0 f   GameOptionsMenu.obj
 0001:0009da10       _$E201                     0049ea10 f   GameOptionsMenu.obj
 0001:0009da20       _$E200                     0049ea20 f   GameOptionsMenu.obj
 0001:0009da30       _$E207                     0049ea30 f   GameOptionsMenu.obj
 0001:0009da40       _$E204                     0049ea40 f   GameOptionsMenu.obj
 0001:0009da60       _$E206                     0049ea60 f   GameOptionsMenu.obj
 0001:0009da70       _$E205                     0049ea70 f   GameOptionsMenu.obj
 0001:0009da80       _$E212                     0049ea80 f   GameOptionsMenu.obj
 0001:0009da90       _$E209                     0049ea90 f   GameOptionsMenu.obj
 0001:0009dab0       _$E211                     0049eab0 f   GameOptionsMenu.obj
 0001:0009dac0       _$E210                     0049eac0 f   GameOptionsMenu.obj
 0001:0009dad0       _$E217                     0049ead0 f   GameOptionsMenu.obj
 0001:0009dae0       _$E214                     0049eae0 f   GameOptionsMenu.obj
 0001:0009db00       _$E216                     0049eb00 f   GameOptionsMenu.obj
 0001:0009db10       _$E215                     0049eb10 f   GameOptionsMenu.obj
 0001:0009db20       _$E222                     0049eb20 f   GameOptionsMenu.obj
 0001:0009db30       _$E219                     0049eb30 f   GameOptionsMenu.obj
 0001:0009db50       _$E221                     0049eb50 f   GameOptionsMenu.obj
 0001:0009db60       _$E220                     0049eb60 f   GameOptionsMenu.obj
 0001:0009db70       _$E227                     0049eb70 f   GameOptionsMenu.obj
 0001:0009db80       _$E224                     0049eb80 f   GameOptionsMenu.obj
 0001:0009dba0       _$E226                     0049eba0 f   GameOptionsMenu.obj
 0001:0009dbb0       _$E225                     0049ebb0 f   GameOptionsMenu.obj
 0001:0009dbc0       _$E232                     0049ebc0 f   GameOptionsMenu.obj
 0001:0009dbd0       _$E229                     0049ebd0 f   GameOptionsMenu.obj
 0001:0009dbf0       _$E231                     0049ebf0 f   GameOptionsMenu.obj
 0001:0009dc00       _$E230                     0049ec00 f   GameOptionsMenu.obj
 0001:0009dc10       _$E237                     0049ec10 f   GameOptionsMenu.obj
 0001:0009dc20       _$E234                     0049ec20 f   GameOptionsMenu.obj
 0001:0009dc40       _$E236                     0049ec40 f   GameOptionsMenu.obj
 0001:0009dc50       _$E235                     0049ec50 f   GameOptionsMenu.obj
 0001:0009dc60       _$E242                     0049ec60 f   GameOptionsMenu.obj
 0001:0009dc70       _$E239                     0049ec70 f   GameOptionsMenu.obj
 0001:0009dc90       _$E241                     0049ec90 f   GameOptionsMenu.obj
 0001:0009dca0       _$E240                     0049eca0 f   GameOptionsMenu.obj
 0001:0009dcb0       _$E247                     0049ecb0 f   GameOptionsMenu.obj
 0001:0009dcc0       _$E244                     0049ecc0 f   GameOptionsMenu.obj
 0001:0009dce0       _$E246                     0049ece0 f   GameOptionsMenu.obj
 0001:0009dcf0       _$E245                     0049ecf0 f   GameOptionsMenu.obj
 0001:0009dd00       _$E252                     0049ed00 f   GameOptionsMenu.obj
 0001:0009dd10       _$E249                     0049ed10 f   GameOptionsMenu.obj
 0001:0009dd30       _$E251                     0049ed30 f   GameOptionsMenu.obj
 0001:0009dd40       _$E250                     0049ed40 f   GameOptionsMenu.obj
 0001:0009dd50       _$E257                     0049ed50 f   GameOptionsMenu.obj
 0001:0009dd60       _$E254                     0049ed60 f   GameOptionsMenu.obj
 0001:0009dd80       _$E256                     0049ed80 f   GameOptionsMenu.obj
 0001:0009dd90       _$E255                     0049ed90 f   GameOptionsMenu.obj
 0001:0009dda0       _$E262                     0049eda0 f   GameOptionsMenu.obj
 0001:0009ddb0       _$E259                     0049edb0 f   GameOptionsMenu.obj
 0001:0009ddd0       _$E261                     0049edd0 f   GameOptionsMenu.obj
 0001:0009dde0       _$E260                     0049ede0 f   GameOptionsMenu.obj
 0001:0009ddf0       _$E267                     0049edf0 f   GameOptionsMenu.obj
 0001:0009de00       _$E264                     0049ee00 f   GameOptionsMenu.obj
 0001:0009de20       _$E266                     0049ee20 f   GameOptionsMenu.obj
 0001:0009de30       _$E265                     0049ee30 f   GameOptionsMenu.obj
 0001:0009de40       _$E272                     0049ee40 f   GameOptionsMenu.obj
 0001:0009de50       _$E269                     0049ee50 f   GameOptionsMenu.obj
 0001:0009de70       _$E271                     0049ee70 f   GameOptionsMenu.obj
 0001:0009de80       _$E270                     0049ee80 f   GameOptionsMenu.obj
 0001:0009de90       _$E277                     0049ee90 f   GameOptionsMenu.obj
 0001:0009dea0       _$E274                     0049eea0 f   GameOptionsMenu.obj
 0001:0009dec0       _$E276                     0049eec0 f   GameOptionsMenu.obj
 0001:0009ded0       _$E275                     0049eed0 f   GameOptionsMenu.obj
 0001:0009dee0       _$E282                     0049eee0 f   GameOptionsMenu.obj
 0001:0009def0       _$E279                     0049eef0 f   GameOptionsMenu.obj
 0001:0009df10       _$E281                     0049ef10 f   GameOptionsMenu.obj
 0001:0009df20       _$E280                     0049ef20 f   GameOptionsMenu.obj
 0001:0009df30       _$E287                     0049ef30 f   GameOptionsMenu.obj
 0001:0009df40       _$E284                     0049ef40 f   GameOptionsMenu.obj
 0001:0009df60       _$E286                     0049ef60 f   GameOptionsMenu.obj
 0001:0009df70       _$E285                     0049ef70 f   GameOptionsMenu.obj
 0001:0009df80       _$E292                     0049ef80 f   GameOptionsMenu.obj
 0001:0009df90       _$E289                     0049ef90 f   GameOptionsMenu.obj
 0001:0009dfb0       _$E291                     0049efb0 f   GameOptionsMenu.obj
 0001:0009dfc0       _$E290                     0049efc0 f   GameOptionsMenu.obj
 0001:0009dfd0       _$E297                     0049efd0 f   GameOptionsMenu.obj
 0001:0009dfe0       _$E294                     0049efe0 f   GameOptionsMenu.obj
 0001:0009e000       _$E296                     0049f000 f   GameOptionsMenu.obj
 0001:0009e010       _$E295                     0049f010 f   GameOptionsMenu.obj
 0001:0009e020       _$E302                     0049f020 f   GameOptionsMenu.obj
 0001:0009e030       _$E299                     0049f030 f   GameOptionsMenu.obj
 0001:0009e050       _$E301                     0049f050 f   GameOptionsMenu.obj
 0001:0009e060       _$E300                     0049f060 f   GameOptionsMenu.obj
 0001:0009e070       _$E307                     0049f070 f   GameOptionsMenu.obj
 0001:0009e080       _$E304                     0049f080 f   GameOptionsMenu.obj
 0001:0009e0a0       _$E306                     0049f0a0 f   GameOptionsMenu.obj
 0001:0009e0b0       _$E305                     0049f0b0 f   GameOptionsMenu.obj
 0001:0009e0c0       _$E312                     0049f0c0 f   GameOptionsMenu.obj
 0001:0009e0d0       _$E309                     0049f0d0 f   GameOptionsMenu.obj
 0001:0009e0f0       _$E311                     0049f0f0 f   GameOptionsMenu.obj
 0001:0009e100       _$E310                     0049f100 f   GameOptionsMenu.obj
 0001:0009e110       _$E317                     0049f110 f   GameOptionsMenu.obj
 0001:0009e120       _$E314                     0049f120 f   GameOptionsMenu.obj
 0001:0009e140       _$E316                     0049f140 f   GameOptionsMenu.obj
 0001:0009e150       _$E315                     0049f150 f   GameOptionsMenu.obj
 0001:0009e160       _$E322                     0049f160 f   GameOptionsMenu.obj
 0001:0009e170       _$E319                     0049f170 f   GameOptionsMenu.obj
 0001:0009e190       _$E321                     0049f190 f   GameOptionsMenu.obj
 0001:0009e1a0       _$E320                     0049f1a0 f   GameOptionsMenu.obj
 0001:0009e1b0       _$E327                     0049f1b0 f   GameOptionsMenu.obj
 0001:0009e1c0       _$E324                     0049f1c0 f   GameOptionsMenu.obj
 0001:0009e1e0       _$E326                     0049f1e0 f   GameOptionsMenu.obj
 0001:0009e1f0       _$E325                     0049f1f0 f   GameOptionsMenu.obj
 0001:0009e200       _$E332                     0049f200 f   GameOptionsMenu.obj
 0001:0009e210       _$E329                     0049f210 f   GameOptionsMenu.obj
 0001:0009e230       _$E331                     0049f230 f   GameOptionsMenu.obj
 0001:0009e240       _$E330                     0049f240 f   GameOptionsMenu.obj
 0001:0009e250       _$E337                     0049f250 f   GameOptionsMenu.obj
 0001:0009e260       _$E334                     0049f260 f   GameOptionsMenu.obj
 0001:0009e280       _$E336                     0049f280 f   GameOptionsMenu.obj
 0001:0009e290       _$E335                     0049f290 f   GameOptionsMenu.obj
 0001:0009e2a0       _$E342                     0049f2a0 f   GameOptionsMenu.obj
 0001:0009e2b0       _$E339                     0049f2b0 f   GameOptionsMenu.obj
 0001:0009e2d0       _$E341                     0049f2d0 f   GameOptionsMenu.obj
 0001:0009e2e0       _$E340                     0049f2e0 f   GameOptionsMenu.obj
 0001:0009e2f0       _$E347                     0049f2f0 f   GameOptionsMenu.obj
 0001:0009e300       _$E344                     0049f300 f   GameOptionsMenu.obj
 0001:0009e320       _$E346                     0049f320 f   GameOptionsMenu.obj
 0001:0009e330       _$E345                     0049f330 f   GameOptionsMenu.obj
 0001:0009e340       _$E352                     0049f340 f   GameOptionsMenu.obj
 0001:0009e350       _$E349                     0049f350 f   GameOptionsMenu.obj
 0001:0009e370       _$E351                     0049f370 f   GameOptionsMenu.obj
 0001:0009e380       _$E350                     0049f380 f   GameOptionsMenu.obj
 0001:0009e390       _$E357                     0049f390 f   GameOptionsMenu.obj
 0001:0009e3a0       _$E354                     0049f3a0 f   GameOptionsMenu.obj
 0001:0009e3c0       _$E356                     0049f3c0 f   GameOptionsMenu.obj
 0001:0009e3d0       _$E355                     0049f3d0 f   GameOptionsMenu.obj
 0001:0009e3e0       _$E362                     0049f3e0 f   GameOptionsMenu.obj
 0001:0009e3f0       _$E359                     0049f3f0 f   GameOptionsMenu.obj
 0001:0009e410       _$E361                     0049f410 f   GameOptionsMenu.obj
 0001:0009e420       _$E360                     0049f420 f   GameOptionsMenu.obj
 0001:0009e430       _$E367                     0049f430 f   GameOptionsMenu.obj
 0001:0009e440       _$E364                     0049f440 f   GameOptionsMenu.obj
 0001:0009e460       _$E366                     0049f460 f   GameOptionsMenu.obj
 0001:0009e470       _$E365                     0049f470 f   GameOptionsMenu.obj
 0001:0009e480       _$E372                     0049f480 f   GameOptionsMenu.obj
 0001:0009e490       _$E369                     0049f490 f   GameOptionsMenu.obj
 0001:0009e4b0       _$E371                     0049f4b0 f   GameOptionsMenu.obj
 0001:0009e4c0       _$E370                     0049f4c0 f   GameOptionsMenu.obj
 0001:0009e4d0       _$E377                     0049f4d0 f   GameOptionsMenu.obj
 0001:0009e4e0       _$E374                     0049f4e0 f   GameOptionsMenu.obj
 0001:0009e500       _$E376                     0049f500 f   GameOptionsMenu.obj
 0001:0009e510       _$E375                     0049f510 f   GameOptionsMenu.obj
 0001:0009e520       _$E382                     0049f520 f   GameOptionsMenu.obj
 0001:0009e530       _$E379                     0049f530 f   GameOptionsMenu.obj
 0001:0009e550       _$E381                     0049f550 f   GameOptionsMenu.obj
 0001:0009e560       _$E380                     0049f560 f   GameOptionsMenu.obj
 0001:0009e570       _$E387                     0049f570 f   GameOptionsMenu.obj
 0001:0009e580       _$E384                     0049f580 f   GameOptionsMenu.obj
 0001:0009e5a0       _$E386                     0049f5a0 f   GameOptionsMenu.obj
 0001:0009e5b0       _$E385                     0049f5b0 f   GameOptionsMenu.obj
 0001:0009e5c0       _$E392                     0049f5c0 f   GameOptionsMenu.obj
 0001:0009e5d0       _$E389                     0049f5d0 f   GameOptionsMenu.obj
 0001:0009e5f0       _$E391                     0049f5f0 f   GameOptionsMenu.obj
 0001:0009e600       _$E390                     0049f600 f   GameOptionsMenu.obj
 0001:0009e610       _$E397                     0049f610 f   GameOptionsMenu.obj
 0001:0009e620       _$E394                     0049f620 f   GameOptionsMenu.obj
 0001:0009e640       _$E396                     0049f640 f   GameOptionsMenu.obj
 0001:0009e650       _$E395                     0049f650 f   GameOptionsMenu.obj
 0001:0009e660       _$E402                     0049f660 f   GameOptionsMenu.obj
 0001:0009e670       _$E399                     0049f670 f   GameOptionsMenu.obj
 0001:0009e690       _$E401                     0049f690 f   GameOptionsMenu.obj
 0001:0009e6a0       _$E400                     0049f6a0 f   GameOptionsMenu.obj
 0001:0009e6b0       _$E407                     0049f6b0 f   GameOptionsMenu.obj
 0001:0009e6c0       _$E404                     0049f6c0 f   GameOptionsMenu.obj
 0001:0009e6e0       _$E406                     0049f6e0 f   GameOptionsMenu.obj
 0001:0009e6f0       _$E405                     0049f6f0 f   GameOptionsMenu.obj
 0001:0009e700       _$E412                     0049f700 f   GameOptionsMenu.obj
 0001:0009e710       _$E409                     0049f710 f   GameOptionsMenu.obj
 0001:0009e730       _$E411                     0049f730 f   GameOptionsMenu.obj
 0001:0009e740       _$E410                     0049f740 f   GameOptionsMenu.obj
 0001:0009e750       _$E417                     0049f750 f   GameOptionsMenu.obj
 0001:0009e760       _$E414                     0049f760 f   GameOptionsMenu.obj
 0001:0009e780       _$E416                     0049f780 f   GameOptionsMenu.obj
 0001:0009e790       _$E415                     0049f790 f   GameOptionsMenu.obj
 0001:0009e7a0       _$E422                     0049f7a0 f   GameOptionsMenu.obj
 0001:0009e7b0       _$E419                     0049f7b0 f   GameOptionsMenu.obj
 0001:0009e7d0       _$E421                     0049f7d0 f   GameOptionsMenu.obj
 0001:0009e7e0       _$E420                     0049f7e0 f   GameOptionsMenu.obj
 0001:0009e7f0       _$E427                     0049f7f0 f   GameOptionsMenu.obj
 0001:0009e800       _$E424                     0049f800 f   GameOptionsMenu.obj
 0001:0009e820       _$E426                     0049f820 f   GameOptionsMenu.obj
 0001:0009e830       _$E425                     0049f830 f   GameOptionsMenu.obj
 0001:0009e840       _$E432                     0049f840 f   GameOptionsMenu.obj
 0001:0009e850       _$E429                     0049f850 f   GameOptionsMenu.obj
 0001:0009e870       _$E431                     0049f870 f   GameOptionsMenu.obj
 0001:0009e880       _$E430                     0049f880 f   GameOptionsMenu.obj
 0001:0009e890       _$E437                     0049f890 f   GameOptionsMenu.obj
 0001:0009e8a0       _$E434                     0049f8a0 f   GameOptionsMenu.obj
 0001:0009e8c0       _$E436                     0049f8c0 f   GameOptionsMenu.obj
 0001:0009e8d0       _$E435                     0049f8d0 f   GameOptionsMenu.obj
 0001:0009e8e0       _$E442                     0049f8e0 f   GameOptionsMenu.obj
 0001:0009e8f0       _$E439                     0049f8f0 f   GameOptionsMenu.obj
 0001:0009e910       _$E441                     0049f910 f   GameOptionsMenu.obj
 0001:0009e920       _$E440                     0049f920 f   GameOptionsMenu.obj
 0001:0009e930       _$E447                     0049f930 f   GameOptionsMenu.obj
 0001:0009e940       _$E444                     0049f940 f   GameOptionsMenu.obj
 0001:0009e960       _$E446                     0049f960 f   GameOptionsMenu.obj
 0001:0009e970       _$E445                     0049f970 f   GameOptionsMenu.obj
 0001:0009e980       _$E452                     0049f980 f   GameOptionsMenu.obj
 0001:0009e990       _$E449                     0049f990 f   GameOptionsMenu.obj
 0001:0009e9b0       _$E451                     0049f9b0 f   GameOptionsMenu.obj
 0001:0009e9c0       _$E450                     0049f9c0 f   GameOptionsMenu.obj
 0001:0009e9d0       _$E457                     0049f9d0 f   GameOptionsMenu.obj
 0001:0009e9e0       _$E454                     0049f9e0 f   GameOptionsMenu.obj
 0001:0009ea00       _$E456                     0049fa00 f   GameOptionsMenu.obj
 0001:0009ea10       _$E455                     0049fa10 f   GameOptionsMenu.obj
 0001:0009ea20       _$E462                     0049fa20 f   GameOptionsMenu.obj
 0001:0009ea30       _$E459                     0049fa30 f   GameOptionsMenu.obj
 0001:0009ea50       _$E461                     0049fa50 f   GameOptionsMenu.obj
 0001:0009ea60       _$E460                     0049fa60 f   GameOptionsMenu.obj
 0001:0009ea70       _$E467                     0049fa70 f   GameOptionsMenu.obj
 0001:0009ea80       _$E464                     0049fa80 f   GameOptionsMenu.obj
 0001:0009eaa0       _$E466                     0049faa0 f   GameOptionsMenu.obj
 0001:0009eab0       _$E465                     0049fab0 f   GameOptionsMenu.obj
 0001:0009eac0       _$E472                     0049fac0 f   GameOptionsMenu.obj
 0001:0009ead0       _$E469                     0049fad0 f   GameOptionsMenu.obj
 0001:0009eaf0       _$E471                     0049faf0 f   GameOptionsMenu.obj
 0001:0009eb00       _$E470                     0049fb00 f   GameOptionsMenu.obj
 0001:0009eb10       _$E477                     0049fb10 f   GameOptionsMenu.obj
 0001:0009eb20       _$E474                     0049fb20 f   GameOptionsMenu.obj
 0001:0009eb40       _$E476                     0049fb40 f   GameOptionsMenu.obj
 0001:0009eb50       _$E475                     0049fb50 f   GameOptionsMenu.obj
 0001:0009eb60       _$E482                     0049fb60 f   GameOptionsMenu.obj
 0001:0009eb70       _$E479                     0049fb70 f   GameOptionsMenu.obj
 0001:0009eb90       _$E481                     0049fb90 f   GameOptionsMenu.obj
 0001:0009eba0       _$E480                     0049fba0 f   GameOptionsMenu.obj
 0001:0009ebb0       _$E487                     0049fbb0 f   GameOptionsMenu.obj
 0001:0009ebc0       _$E484                     0049fbc0 f   GameOptionsMenu.obj
 0001:0009ebe0       _$E486                     0049fbe0 f   GameOptionsMenu.obj
 0001:0009ebf0       _$E485                     0049fbf0 f   GameOptionsMenu.obj
 0001:0009ec00       _$E492                     0049fc00 f   GameOptionsMenu.obj
 0001:0009ec10       _$E489                     0049fc10 f   GameOptionsMenu.obj
 0001:0009ec30       _$E491                     0049fc30 f   GameOptionsMenu.obj
 0001:0009ec40       _$E490                     0049fc40 f   GameOptionsMenu.obj
 0001:0009ec50       _$E497                     0049fc50 f   GameOptionsMenu.obj
 0001:0009ec60       _$E494                     0049fc60 f   GameOptionsMenu.obj
 0001:0009ec80       _$E496                     0049fc80 f   GameOptionsMenu.obj
 0001:0009ec90       _$E495                     0049fc90 f   GameOptionsMenu.obj
 0001:0009eca0       _$E502                     0049fca0 f   GameOptionsMenu.obj
 0001:0009ecb0       _$E499                     0049fcb0 f   GameOptionsMenu.obj
 0001:0009ecd0       _$E501                     0049fcd0 f   GameOptionsMenu.obj
 0001:0009ece0       _$E500                     0049fce0 f   GameOptionsMenu.obj
 0001:0009ecf0       _$E507                     0049fcf0 f   GameOptionsMenu.obj
 0001:0009ed00       _$E504                     0049fd00 f   GameOptionsMenu.obj
 0001:0009ed20       _$E506                     0049fd20 f   GameOptionsMenu.obj
 0001:0009ed30       _$E505                     0049fd30 f   GameOptionsMenu.obj
 0001:0009ed40       _$E512                     0049fd40 f   GameOptionsMenu.obj
 0001:0009ed50       _$E509                     0049fd50 f   GameOptionsMenu.obj
 0001:0009ed70       _$E511                     0049fd70 f   GameOptionsMenu.obj
 0001:0009ed80       _$E510                     0049fd80 f   GameOptionsMenu.obj
 0001:0009ed90       _$E517                     0049fd90 f   GameOptionsMenu.obj
 0001:0009eda0       _$E514                     0049fda0 f   GameOptionsMenu.obj
 0001:0009edc0       _$E516                     0049fdc0 f   GameOptionsMenu.obj
 0001:0009edd0       _$E515                     0049fdd0 f   GameOptionsMenu.obj
 0001:0009ede0       _$E522                     0049fde0 f   GameOptionsMenu.obj
 0001:0009edf0       _$E519                     0049fdf0 f   GameOptionsMenu.obj
 0001:0009ee10       _$E521                     0049fe10 f   GameOptionsMenu.obj
 0001:0009ee20       _$E520                     0049fe20 f   GameOptionsMenu.obj
 0001:0009ee30       _$E527                     0049fe30 f   GameOptionsMenu.obj
 0001:0009ee40       _$E524                     0049fe40 f   GameOptionsMenu.obj
 0001:0009ee60       _$E526                     0049fe60 f   GameOptionsMenu.obj
 0001:0009ee70       _$E525                     0049fe70 f   GameOptionsMenu.obj
 0001:0009ee80       _$E532                     0049fe80 f   GameOptionsMenu.obj
 0001:0009ee90       _$E529                     0049fe90 f   GameOptionsMenu.obj
 0001:0009eeb0       _$E531                     0049feb0 f   GameOptionsMenu.obj
 0001:0009eec0       _$E530                     0049fec0 f   GameOptionsMenu.obj
 0001:0009eed0       _$E537                     0049fed0 f   GameOptionsMenu.obj
 0001:0009eee0       _$E534                     0049fee0 f   GameOptionsMenu.obj
 0001:0009ef00       _$E536                     0049ff00 f   GameOptionsMenu.obj
 0001:0009ef10       _$E535                     0049ff10 f   GameOptionsMenu.obj
 0001:0009ef20       _$E542                     0049ff20 f   GameOptionsMenu.obj
 0001:0009ef30       _$E539                     0049ff30 f   GameOptionsMenu.obj
 0001:0009ef50       _$E541                     0049ff50 f   GameOptionsMenu.obj
 0001:0009ef60       _$E540                     0049ff60 f   GameOptionsMenu.obj
 0001:0009ef70       _$E547                     0049ff70 f   GameOptionsMenu.obj
 0001:0009ef80       _$E544                     0049ff80 f   GameOptionsMenu.obj
 0001:0009efa0       _$E546                     0049ffa0 f   GameOptionsMenu.obj
 0001:0009efb0       _$E545                     0049ffb0 f   GameOptionsMenu.obj
 0001:0009efc0       _$E552                     0049ffc0 f   GameOptionsMenu.obj
 0001:0009efd0       _$E549                     0049ffd0 f   GameOptionsMenu.obj
 0001:0009eff0       _$E551                     0049fff0 f   GameOptionsMenu.obj
 0001:0009f000       _$E550                     004a0000 f   GameOptionsMenu.obj
 0001:0009f010       _$E557                     004a0010 f   GameOptionsMenu.obj
 0001:0009f020       _$E554                     004a0020 f   GameOptionsMenu.obj
 0001:0009f040       _$E556                     004a0040 f   GameOptionsMenu.obj
 0001:0009f050       _$E555                     004a0050 f   GameOptionsMenu.obj
 0001:0009f060       _$E562                     004a0060 f   GameOptionsMenu.obj
 0001:0009f070       _$E559                     004a0070 f   GameOptionsMenu.obj
 0001:0009f090       _$E561                     004a0090 f   GameOptionsMenu.obj
