LIBRARY GAME 
EXPORTS 
??0CButtonAction@@QAE@ABV0@@Z 
??0CButtonAction@@QAE@XZ 
??0CControls@@QAE@ABV0@@Z 
??0CControls@@QAE@XZ 
??0CHighScoreEntry@@QAE@ABV0@@Z 
??0CHighScoreEntry@@QAE@XZ 
??0CLocalPlayer@@QAE@XZ 
??1CButtonAction@@QAE@XZ 
??1CControls@@QAE@XZ 
??1CHighScoreEntry@@QAE@XZ 
??4CAxisAction@@QAEAAV0@ABV0@@Z 
??4CButtonAction@@QAEAAV0@AAV0@@Z 
??4CControls@@QAEAAV0@AAV0@@Z 
??4CHighScoreEntry@@QAEAAV0@ABV0@@Z 
??4CLocalPlayer@@QAEAAV0@ABV0@@Z 
?AddButtonAction@CControls@@QAEAAVCButtonAction@@XZ 
?CalculateInfluencesForAllAxis@CControls@@QAEXXZ 
?ComputerForceOff@CGame@@QAEXXZ 
?ComputerKeyDown@CGame@@QAEXUtagMSG@@@Z 
?ComputerMouseMove@CGame@@QAEXJJ@Z 
?ComputerRender@CGame@@QAEXPAVCDrawPort@@@Z 
?ConsoleChar@CGame@@QAEXUtagMSG@@@Z 
?ConsoleKeyDown@CGame@@QAEXUtagMSG@@@Z 
?ConsolePrintLastLines@CGame@@QAEXPAVCDrawPort@@@Z 
?ConsoleRender@CGame@@QAEXPAVCDrawPort@@@Z 
?CreateAction@CControls@@QAEXAAVCPlayerAction@@@Z 
?DemoReportAnalyzedProfile@CGame@@QAE?AVCTString@@XZ 
?DemoReportFragmentsProfile@CGame@@QAE?AVCTString@@J@Z 
?DisableLoadingHook@CGame@@QAEXXZ 
?DoButtonActions@CControls@@QAEXXZ 
?EnableLoadingHook@CGame@@QAEXPAVCDrawPort@@@Z 
?End@CGame@@SAXXZ 
?Flesh@@3VCGame@@A 
?GameMainLoop@CGame@@QAEXXZ 
?GameRedrawView@CGame@@QAEXPAVCDrawPort@@K@Z 
?GetAxisValue@CControls@@QAEMJ@Z 
?GetDefaultGameDescription@CGame@@QAE?AVCTString@@H@Z 
?GetLivePlayersCount@CGame@@QAEJXZ 
?GetPlayersCount@CGame@@QAEJXZ 
?Initialize@CGame@@SAXABVCTFileName@@@Z 
?JoinGame@CGame@@QAEHAAVCNetworkSession@@@Z 
?LCDBlinkingColor@@YAKKK@Z 
?LCDDrawBox@@YAXJJAAV?$AABBox@J$01@@K@Z 
?LCDDrawPointer@@YAXJJ@Z 
?LCDEnd@@YAXXZ 
?LCDFadedColor@@YAKK@Z 
?LCDInit@@YAXXZ 
?LCDPrepare@@YAXM@Z 
?LCDRenderClouds1@@YAXXZ 
?LCDRenderClouds2@@YAXXZ 
?LCDRenderClouds2Light@@YAXXZ 
?LCDRenderGrid@@YAXXZ 
?LCDScreenBox@@YAXK@Z 
?LCDScreenBoxOpenLeft@@YAXK@Z 
?LCDScreenBoxOpenRight@@YAXK@Z 
?LCDSetDrawport@@YAXPAVCDrawPort@@@Z 
?LoadGame@CGame@@QAEHABVCTFileName@@@Z 
?LoadPlayersAndControls@CGame@@QAEXXZ 
?Load_t@CControls@@QAEXVCTFileName@@@Z 
?Load_t@CGame@@QAEXXZ 
?NewGame@CGame@@QAEHABVCTString@@ABVCTFileName@@AAVCSessionProperties@@@Z 
?QuickTest@CGame@@SAXABVCTFileName@@PAVCDrawPort@@PAVCViewPort@@@Z 
?Read_t@CButtonAction@@QAEXAAVCTStream@@@Z 
?RemoveButtonAction@CControls@@QAEXAAVCButtonAction@@@Z 
?SaveGame@CGame@@QAEHABVCTFileName@@@Z 
?SavePlayersAndControls@CGame@@QAEXXZ 
?Save_t@CControls@@QAEXVCTFileName@@@Z 
?Save_t@CGame@@QAEXXZ 
?SetMultiPlayerSession@CGame@@QAEXAAVCSessionProperties@@@Z 
?SetQuickStartSession@CGame@@QAEXAAVCSessionProperties@@@Z 
?SetSinglePlayerSession@CGame@@QAEXAAVCSessionProperties@@@Z 
?StartDemoPlay@CGame@@QAEHABVCTFileName@@@Z 
?StartDemoRec@CGame@@QAEHABVCTFileName@@@Z 
?StopDemoRec@CGame@@QAEXXZ 
?StopGame@CGame@@QAEXXZ 
?SwitchAxesToDefaults@CControls@@QAEXXZ 
?SwitchToDefaults@CControls@@QAEXXZ 
?Write_t@CButtonAction@@QAEXAAVCTStream@@@Z 
?_csComputerState@@3W4ConsoleState@@A 
?_csConsoleState@@3W4ConsoleState@@A 
?_strConsoleInputBuffer@@3VCTString@@A 
?astrAxisNames@@3PAPADA 
