Microsoft (R) COFF/PE Dumper Version 10.00.30319.01
Copyright (C) Microsoft Corporation.  All rights reserved.


Dump of file Entities.dll

File Type: DLL

  Section contains the following exports for Entities.dll

    00000000 characteristics
    3C8CC5E4 time date stamp Mon Mar 11 17:57:40 2002
        0.00 version
           1 ordinal base
        2118 number of functions
        2118 number of names

    ordinal hint RVA      name

          1    0 000113A0 ??0CBullet@@QAE@ABV0@@Z
          2    1 00011380 ??0CBullet@@QAE@XZ
          3    2 000138A0 ??0CCharacterContainer@@QAE@AAV0@@Z
          4    3 0002D900 ??0CCompMessageID@@QAE@ABV0@@Z
          5    4 0001DF40 ??0CCompMessageID@@QAE@XZ
          6    5 00011780 ??0CDinoAnimator@@QAE@ABV0@@Z
          7    6 00011750 ??0CDinoAnimator@@QAE@XZ
          8    7 0000BA50 ??0CEnemyBase@@QAE@AAV0@@Z
          9    8 00053990 ??0CEnemyBase@@QAE@XZ
         10    9 0005CED0 ??0CEnemyRunInto@@QAE@AAV0@@Z
         11    A 0005CEB0 ??0CEnemyRunInto@@QAE@XZ
         12    B 00069280 ??0CItem@@QAE@ABV0@@Z
         13    C 000691E0 ??0CItem@@QAE@XZ
         14    D 000093E0 ??0CNavigationMarker@@QAE@ABV0@@Z
         15    E 00009300 ??0CNavigationMarker@@QAE@XZ
         16    F 0000E500 ??0CPlayer@@QAE@AAV0@@Z
         17   10 000906A0 ??0CPlayer@@QAE@XZ
         18   11 00043DF0 ??0CPlayerAnimator@@QAE@ABV0@@Z
         19   12 00043DC0 ??0CPlayerAnimator@@QAE@XZ
         20   13 00088DD0 ??0CPlayerView@@QAE@ABV0@@Z
         21   14 00088DA0 ??0CPlayerView@@QAE@XZ
         22   15 00012930 ??0CPlayerWeapons@@QAE@ABV0@@Z
         23   16 00012880 ??0CPlayerWeapons@@QAE@XZ
         24   17 0000AB50 ??0CProjectile@@QAE@ABV0@@Z
         25   18 0000AAC0 ??0CProjectile@@QAE@XZ
         26   19 00001270 ??0CReminder@@QAE@ABV0@@Z
         27   1A 00001250 ??0CReminder@@QAE@XZ
         28   1B 0000A4D0 ??0CWatcher@@QAE@ABV0@@Z
         29   1C 0000A4A0 ??0CWatcher@@QAE@XZ
         30   1D 0002DFF0 ??0EAAAttack@@QAE@ABV0@@Z
         31   1E 0002EC00 ??0EAAAttack@@QAE@XZ
         32   1F 0002DA40 ??0EAAEat@@QAE@ABV0@@Z
         33   20 0002EA20 ??0EAAEat@@QAE@XZ
         34   21 0002DE70 ??0EAAFlee@@QAE@ABV0@@Z
         35   22 0002EB70 ??0EAAFlee@@QAE@XZ
         36   23 0002DD70 ??0EAASleep@@QAE@ABV0@@Z
         37   24 0002EB10 ??0EAASleep@@QAE@XZ
         38   25 0002DB40 ??0EAATagAlong@@QAE@ABV0@@Z
         39   26 0002EA70 ??0EAATagAlong@@QAE@XZ
         40   27 0002D940 ??0EAAWander@@QAE@ABV0@@Z
         41   28 0002E9E0 ??0EAAWander@@QAE@XZ
         42   29 0000CD40 ??0EABCombat@@QAE@ABV0@@Z
         43   2A 000BDED0 ??0EABCombat@@QAE@XZ
         44   2B 0000CF40 ??0EABFlee@@QAE@ABV0@@Z
         45   2C 000BDF50 ??0EABFlee@@QAE@XZ
         46   2D 0000D040 ??0EABGoHome@@QAE@ABV0@@Z
         47   2E 000BDF90 ??0EABGoHome@@QAE@XZ
         48   2F 0000CE40 ??0EABScript@@QAE@ABV0@@Z
         49   30 000BDF10 ??0EABScript@@QAE@XZ
         50   31 0000D140 ??0EASleep@@QAE@ABV0@@Z
         51   32 000BDFD0 ??0EASleep@@QAE@XZ
         52   33 0002CB70 ??0EActivate@@QAE@ABV0@@Z
         53   34 00066330 ??0EActivate@@QAE@XZ
         54   35 0006FE80 ??0EActivateMission@@QAE@ABV0@@Z
         55   36 00072CF0 ??0EActivateMission@@QAE@XZ
         56   37 00012320 ??0EAltFireWeapon@@QAE@ABV0@@Z
         57   38 000AE730 ??0EAltFireWeapon@@QAE@XZ
         58   39 00012420 ??0EAltReleaseWeapon@@QAE@ABV0@@Z
         59   3A 000AE770 ??0EAltReleaseWeapon@@QAE@XZ
         60   3B 00043B30 ??0EAnimatorInit@@QAE@ABV0@@Z
         61   3C 000A8740 ??0EAnimatorInit@@QAE@XZ
         62   3D 0000E280 ??0EAutoAction@@QAE@ABV0@@Z
         63   3E 0008C0A0 ??0EAutoAction@@QAE@XZ
         64   3F 00012220 ??0EBoringWeapon@@QAE@ABV0@@Z
         65   40 000AE6F0 ??0EBoringWeapon@@QAE@XZ
         66   41 000350C0 ??0EBrushDestroyed@@QAE@ABV0@@Z
         67   42 00079E10 ??0EBrushDestroyed@@QAE@XZ
         68   43 00011120 ??0EBulletInit@@QAE@ABV0@@Z
         69   44 0003A6A0 ??0EBulletInit@@QAE@XZ
         70   45 0000DC20 ??0ECameraStart@@QAE@ABV0@@Z
         71   46 0008BEC0 ??0ECameraStart@@QAE@XZ
         72   47 0000DE50 ??0ECameraStop@@QAE@ABV0@@Z
         73   48 0008BF70 ??0ECameraStop@@QAE@XZ
         74   49 0002D4A0 ??0ECenterMessage@@QAE@ABV0@@Z
         75   4A 00066950 ??0ECenterMessage@@QAE@XZ
         76   4B 00001550 ??0EChangeAnim@@QAE@ABV0@@Z
         77   4C 000330D0 ??0EChangeAnim@@QAE@XZ
         78   4D 000672C0 ??0EChangeGravity@@QAE@ABV0@@Z
         79   4E 000684C0 ??0EChangeGravity@@QAE@XZ
         80   4F 0000B270 ??0EChangeMusic@@QAE@ABV0@@Z
         81   50 0007E980 ??0EChangeMusic@@QAE@XZ
         82   51 0002D5F0 ??0EComputerMessage@@QAE@ABV0@@Z
         83   52 00066A60 ??0EComputerMessage@@QAE@XZ
         84   53 00013D20 ??0EDBCombat@@QAE@ABV0@@Z
         85   54 00048100 ??0EDBCombat@@QAE@XZ
         86   55 00013F20 ??0EDBFlee@@QAE@ABV0@@Z
         87   56 00048180 ??0EDBFlee@@QAE@XZ
         88   57 00014020 ??0EDBGoHome@@QAE@ABV0@@Z
         89   58 000481C0 ??0EDBGoHome@@QAE@XZ
         90   59 00013E20 ??0EDBScript@@QAE@ABV0@@Z
         91   5A 00048140 ??0EDBScript@@QAE@XZ
         92   5B 00014120 ??0EDBSleep@@QAE@ABV0@@Z
         93   5C 00048200 ??0EDBSleep@@QAE@XZ
         94   5D 0002CBD0 ??0EDeactivate@@QAE@ABV0@@Z
         95   5E 00066370 ??0EDeactivate@@QAE@XZ
         96   5F 00070510 ??0EDestroyMission@@QAE@ABV0@@Z
         97   60 00072F00 ??0EDestroyMission@@QAE@XZ
         98   61 0000E180 ??0EDisconnected@@QAE@ABV0@@Z
         99   62 0008C050 ??0EDisconnected@@QAE@XZ
        100   63 0002CCF0 ??0EEnd@@QAE@ABV0@@Z
        101   64 00066430 ??0EEnd@@QAE@XZ
        102   65 000702E0 ??0EEndMissionLose@@QAE@ABV0@@Z
        103   66 00072E50 ??0EEndMissionLose@@QAE@XZ
        104   67 000700B0 ??0EEndMissionWin@@QAE@ABV0@@Z
        105   68 00072DA0 ??0EEndMissionWin@@QAE@XZ
        106   69 0000B7B0 ??0EEnemyThresholdCrossed@@QAE@ABV0@@Z
        107   6A 00052E90 ??0EEnemyThresholdCrossed@@QAE@XZ
        108   6B 0002CC30 ??0EEnvironmentStart@@QAE@ABV0@@Z
        109   6C 000663B0 ??0EEnvironmentStart@@QAE@XZ
        110   6D 0002CC90 ??0EEnvironmentStop@@QAE@ABV0@@Z
        111   6E 000663F0 ??0EEnvironmentStop@@QAE@XZ
        112   6F 00012520 ??0EFireWeapon@@QAE@ABV0@@Z
        113   70 000AE7B0 ??0EFireWeapon@@QAE@XZ
        114   71 0000B6B0 ??0EForceWound@@QAE@ABV0@@Z
        115   72 00052E50 ??0EForceWound@@QAE@XZ
        116   73 0000B8B0 ??0EHasBeenEaten@@QAE@ABV0@@Z
        117   74 00052ED0 ??0EHasBeenEaten@@QAE@XZ
        118   75 000697E0 ??0EHealthItem@@QAE@ABV0@@Z
        119   76 00069BB0 ??0EHealthItem@@QAE@XZ
        120   77 0000DA20 ??0EHint@@QAE@ABV0@@Z
        121   78 0008BE00 ??0EHint@@QAE@XZ
        122   79 00034FC0 ??0EHit@@QAE@ABV0@@Z
        123   7A 00079DD0 ??0EHit@@QAE@XZ
        124   7B 0002D850 ??0EHitBySpaceShipBeam@@QAE@ABV0@@Z
        125   7C 00066C30 ??0EHitBySpaceShipBeam@@QAE@XZ
        126   7D 0002D140 ??0EKilledEnemy@@QAE@ABV0@@Z
        127   7E 00066720 ??0EKilledEnemy@@QAE@XZ
        128   7F 0000A820 ??0ELaunchProjectile@@QAE@ABV0@@Z
        129   80 000BA770 ??0ELaunchProjectile@@QAE@XZ
        130   81 00011DB0 ??0ELowerWeapon@@QAE@ABV0@@Z
        131   82 000AE5A0 ??0ELowerWeapon@@QAE@XZ
        132   83 0006EDC0 ??0EMessageItem@@QAE@ABV0@@Z
        133   84 0006F3A0 ??0EMessageItem@@QAE@XZ
        134   85 00046D50 ??0ENPCFlee@@QAE@ABV0@@Z
        135   86 00081170 ??0ENPCFlee@@QAE@XZ
        136   87 00046EC0 ??0ENPCFollow@@QAE@ABV0@@Z
        137   88 00081200 ??0ENPCFollow@@QAE@XZ
        138   89 000470F0 ??0ENPCScriptStart@@QAE@ABV0@@Z
        139   8A 000812A0 ??0ENPCScriptStart@@QAE@XZ
        140   8B 00070740 ??0EPauseMission@@QAE@ABV0@@Z
        141   8C 00072FB0 ??0EPauseMission@@QAE@XZ
        142   8D 0000A000 ??0EPulse@@QAE@ABV0@@Z
        143   8E 000CC2A0 ??0EPulse@@QAE@XZ
        144   8F 000019E0 ??0ERangeModelDestruction@@QAE@ABV0@@Z
        145   90 00074370 ??0ERangeModelDestruction@@QAE@XZ
        146   91 0000E080 ??0ERebirth@@QAE@ABV0@@Z
        147   92 0008C010 ??0ERebirth@@QAE@XZ
        148   93 0002D0C0 ??0EReceiveScore@@QAE@ABV0@@Z
        149   94 000666D0 ??0EReceiveScore@@QAE@XZ
        150   95 0000B5B0 ??0EReconsiderBehavior@@QAE@ABV0@@Z
        151   96 00052E10 ??0EReconsiderBehavior@@QAE@XZ
        152   97 00012620 ??0EReleaseWeapon@@QAE@ABV0@@Z
        153   98 000AE7F0 ??0EReleaseWeapon@@QAE@XZ
        154   99 00012720 ??0EReloadWeapon@@QAE@ABV0@@Z
        155   9A 000AE830 ??0EReloadWeapon@@QAE@XZ
        156   9B 0002CEC0 ??0EReminder@@QAE@ABV0@@Z
        157   9C 00066570 ??0EReminder@@QAE@XZ
        158   9D 00001000 ??0EReminderInit@@QAE@ABV0@@Z
        159   9E 000BD100 ??0EReminderInit@@QAE@XZ
        160   9F 00070DD0 ??0EResetMission@@QAE@ABV0@@Z
        161   A0 000731C0 ??0EResetMission@@QAE@XZ
        162   A1 0000B4B0 ??0ERestartAttack@@QAE@ABV0@@Z
        163   A2 00052DD0 ??0ERestartAttack@@QAE@XZ
        164   A3 00070970 ??0EResumeMission@@QAE@ABV0@@Z
        165   A4 00073060 ??0EResumeMission@@QAE@XZ
        166   A5 0002D200 ??0ERetargetMovingBrush@@QAE@ABV0@@Z
        167   A6 000667B0 ??0ERetargetMovingBrush@@QAE@XZ
        168   A7 0002D1A0 ??0ESecretFound@@QAE@ABV0@@Z
        169   A8 00066760 ??0ESecretFound@@QAE@XZ
        170   A9 00012100 ??0ESelectWeapon@@QAE@ABV0@@Z
        171   AA 000AE6A0 ??0ESelectWeapon@@QAE@XZ
        172   AB 000899C0 ??0ESetAmmo@@QAE@ABV0@@Z
        173   AC 000CED00 ??0ESetAmmo@@QAE@XZ
        174   AD 0002D370 ??0ESound@@QAE@ABV0@@Z
        175   AE 00066860 ??0ESound@@QAE@XZ
        176   AF 00001D40 ??0ESpawnDebris@@QAE@ABV0@@Z
        177   B0 00041D70 ??0ESpawnDebris@@QAE@XZ
        178   B1 00001B30 ??0ESpawnEffect@@QAE@ABV0@@Z
        179   B2 00035E40 ??0ESpawnEffect@@QAE@XZ
        180   B3 00042A50 ??0ESpawnEffector@@QAE@ABV0@@Z
        181   B4 000500D0 ??0ESpawnEffector@@QAE@XZ
        182   B5 00001710 ??0ESpawnSpray@@QAE@ABV0@@Z
        183   B6 00039AC0 ??0ESpawnSpray@@QAE@XZ
        184   B7 0002CA60 ??0EStart@@QAE@ABV0@@Z
        185   B8 00066290 ??0EStart@@QAE@XZ
        186   B9 0002CF40 ??0EStartAttack@@QAE@ABV0@@Z
        187   BA 000665C0 ??0EStartAttack@@QAE@XZ
        188   BB 0002CA00 ??0EStop@@QAE@ABV0@@Z
        189   BC 00066240 ??0EStop@@QAE@XZ
        190   BD 0002CFA0 ??0EStopAttack@@QAE@ABV0@@Z
        191   BE 00066600 ??0EStopAttack@@QAE@XZ
        192   BF 0002D000 ??0EStopBlindness@@QAE@ABV0@@Z
        193   C0 00066640 ??0EStopBlindness@@QAE@XZ
        194   C1 0002D060 ??0EStopDeafness@@QAE@ABV0@@Z
        195   C2 00066680 ??0EStopDeafness@@QAE@XZ
        196   C3 0002CE60 ??0ETeleportMovingBrush@@QAE@ABV0@@Z
        197   C4 00066520 ??0ETeleportMovingBrush@@QAE@XZ
        198   C5 0000A120 ??0EThink@@QAE@ABV0@@Z
        199   C6 000CC2F0 ??0EThink@@QAE@XZ
        200   C7 00070BA0 ??0ETimeoutMission@@QAE@ABV0@@Z
        201   C8 00073110 ??0ETimeoutMission@@QAE@XZ
        202   C9 0002CD50 ??0ETrigger@@QAE@ABV0@@Z
        203   CA 00066480 ??0ETrigger@@QAE@XZ
        204   CB 000CA000 ??0ETwister@@QAE@ABV0@@Z
        205   CC 000CA790 ??0ETwister@@QAE@XZ
        206   CD 00088A60 ??0EViewInit@@QAE@ABV0@@Z
        207   CE 000ABE30 ??0EViewInit@@QAE@XZ
        208   CF 0002D720 ??0EVoiceMessage@@QAE@ABV0@@Z
        209   D0 00066B70 ??0EVoiceMessage@@QAE@XZ
        210   D1 0000A220 ??0EWatch@@QAE@ABV0@@Z
        211   D2 000CC340 ??0EWatch@@QAE@XZ
        212   D3 00009DD0 ??0EWatcherInit@@QAE@ABV0@@Z
        213   D4 000CC1F0 ??0EWatcherInit@@QAE@XZ
        214   D5 000CD9E0 ??0EWater@@QAE@ABV0@@Z
        215   D6 000CE040 ??0EWater@@QAE@XZ
        216   D7 00010ED0 ??0EWeaponEffectInit@@QAE@ABV0@@Z
        217   D8 000B95F0 ??0EWeaponEffectInit@@QAE@XZ
        218   D9 00089870 ??0EWeaponItem@@QAE@ABV0@@Z
        219   DA 000CECA0 ??0EWeaponItem@@QAE@XZ
        220   DB 00011EB0 ??0EWeaponsInit@@QAE@ABV0@@Z
        221   DC 000AE5F0 ??0EWeaponsInit@@QAE@XZ
        222   DD 0000D4B0 ??0MissionGoal@@QAE@ABV0@@Z
        223   DE 0000D940 ??0MissionSystem@@QAE@ABV0@@Z
        224   DF 0000D250 ??0MissionTimer@@QAE@ABV0@@Z
        225   E0 0002D8B0 ??0PlayerStats@@QAE@XZ
        226   E1 00011610 ??1CBullet@@UAE@XZ
        227   E2 0001D850 ??1CCompMessageID@@QAE@XZ
        228   E3 00011C50 ??1CDinoAnimator@@UAE@XZ
        229   E4 0000CAB0 ??1CEnemyBase@@UAE@XZ
        230   E5 0005CFC0 ??1CEnemyRunInto@@UAE@XZ
        231   E6 00069690 ??1CItem@@UAE@XZ
        232   E7 00009AF0 ??1CNavigationMarker@@UAE@XZ
        233   E8 00010A80 ??1CPlayer@@UAE@XZ
        234   E9 000442D0 ??1CPlayerAnimator@@UAE@XZ
        235   EA 00089730 ??1CPlayerView@@UAE@XZ
        236   EB 00013680 ??1CPlayerWeapons@@UAE@XZ
        237   EC 0000B0F0 ??1CProjectile@@UAE@XZ
        238   ED 00001410 ??1CReminder@@UAE@XZ
        239   EE 0000A6A0 ??1CWatcher@@UAE@XZ
        240   EF 0002E060 ??1EAAAttack@@UAE@XZ
        241   F0 0002DA80 ??1EAAEat@@UAE@XZ
        242   F1 0002DF00 ??1EAAFlee@@UAE@XZ
        243   F2 0002DDB0 ??1EAASleep@@UAE@XZ
        244   F3 0002DBB0 ??1EAATagAlong@@UAE@XZ
        245   F4 0002D980 ??1EAAWander@@UAE@XZ
        246   F5 0000CD80 ??1EABCombat@@UAE@XZ
        247   F6 0000CF80 ??1EABFlee@@UAE@XZ
        248   F7 0000D080 ??1EABGoHome@@UAE@XZ
        249   F8 0000CE80 ??1EABScript@@UAE@XZ
        250   F9 0000D180 ??1EASleep@@UAE@XZ
        251   FA 00008360 ??1EActivate@@UAE@XZ
        252   FB 0006FEF0 ??1EActivateMission@@UAE@XZ
        253   FC 00012360 ??1EAltFireWeapon@@UAE@XZ
        254   FD 00012460 ??1EAltReleaseWeapon@@UAE@XZ
        255   FE 00043BA0 ??1EAnimatorInit@@UAE@XZ
        256   FF 0000E2F0 ??1EAutoAction@@UAE@XZ
        257  100 00012260 ??1EBoringWeapon@@UAE@XZ
        258  101 00035100 ??1EBrushDestroyed@@UAE@XZ
        259  102 000111B0 ??1EBulletInit@@UAE@XZ
        260  103 0000DC90 ??1ECameraStart@@UAE@XZ
        261  104 0000DEC0 ??1ECameraStop@@UAE@XZ
        262  105 00008F80 ??1ECenterMessage@@UAE@XZ
        263  106 00001600 ??1EChangeAnim@@UAE@XZ
        264  107 00067330 ??1EChangeGravity@@UAE@XZ
        265  108 0000B340 ??1EChangeMusic@@UAE@XZ
        266  109 00009090 ??1EComputerMessage@@UAE@XZ
        267  10A 00013D60 ??1EDBCombat@@UAE@XZ
        268  10B 00013F60 ??1EDBFlee@@UAE@XZ
        269  10C 00014060 ??1EDBGoHome@@UAE@XZ
        270  10D 00013E60 ??1EDBScript@@UAE@XZ
        271  10E 00014160 ??1EDBSleep@@UAE@XZ
        272  10F 00008400 ??1EDeactivate@@UAE@XZ
        273  110 00070580 ??1EDestroyMission@@UAE@XZ
        274  111 0000E1C0 ??1EDisconnected@@UAE@XZ
        275  112 00008610 ??1EEnd@@UAE@XZ
        276  113 00070350 ??1EEndMissionLose@@UAE@XZ
        277  114 00070120 ??1EEndMissionWin@@UAE@XZ
        278  115 0000B7F0 ??1EEnemyThresholdCrossed@@UAE@XZ
        279  116 000084A0 ??1EEnvironmentStart@@UAE@XZ
        280  117 00008540 ??1EEnvironmentStop@@UAE@XZ
        281  118 00012560 ??1EFireWeapon@@UAE@XZ
        282  119 0000B6F0 ??1EForceWound@@UAE@XZ
        283  11A 0000B8F0 ??1EHasBeenEaten@@UAE@XZ
        284  11B 00069830 ??1EHealthItem@@UAE@XZ
        285  11C 0000DAC0 ??1EHint@@UAE@XZ
        286  11D 00035000 ??1EHit@@UAE@XZ
        287  11E 00009250 ??1EHitBySpaceShipBeam@@UAE@XZ
        288  11F 00008C30 ??1EKilledEnemy@@UAE@XZ
        289  120 0000A8B0 ??1ELaunchProjectile@@UAE@XZ
        290  121 00011DF0 ??1ELowerWeapon@@UAE@XZ
        291  122 0006EE70 ??1EMessageItem@@UAE@XZ
        292  123 00046DE0 ??1ENPCFlee@@UAE@XZ
        293  124 00046F30 ??1ENPCFollow@@UAE@XZ
        294  125 00047130 ??1ENPCScriptStart@@UAE@XZ
        295  126 000707B0 ??1EPauseMission@@UAE@XZ
        296  127 0000A050 ??1EPulse@@UAE@XZ
        297  128 00001A20 ??1ERangeModelDestruction@@UAE@XZ
        298  129 0000E0C0 ??1ERebirth@@UAE@XZ
        299  12A 00008B90 ??1EReceiveScore@@UAE@XZ
        300  12B 0000B5F0 ??1EReconsiderBehavior@@UAE@XZ
        301  12C 00012660 ??1EReleaseWeapon@@UAE@XZ
        302  12D 00012760 ??1EReloadWeapon@@UAE@XZ
        303  12E 00008870 ??1EReminder@@UAE@XZ
        304  12F 00001090 ??1EReminderInit@@UAE@XZ
        305  130 00070E40 ??1EResetMission@@UAE@XZ
        306  131 0000B4F0 ??1ERestartAttack@@UAE@XZ
        307  132 000709E0 ??1EResumeMission@@UAE@XZ
        308  133 00008D40 ??1ERetargetMovingBrush@@UAE@XZ
        309  134 00008CD0 ??1ESecretFound@@UAE@XZ
        310  135 00012150 ??1ESelectWeapon@@UAE@XZ
        311  136 00089A10 ??1ESetAmmo@@UAE@XZ
        312  137 00008E60 ??1ESound@@UAE@XZ
        313  138 00001E10 ??1ESpawnDebris@@UAE@XZ
        314  139 00001C20 ??1ESpawnEffect@@UAE@XZ
        315  13A 00042B90 ??1ESpawnEffector@@UAE@XZ
        316  13B 000017E0 ??1ESpawnSpray@@UAE@XZ
        317  13C 00008240 ??1EStart@@UAE@XZ
        318  13D 000088E0 ??1EStartAttack@@UAE@XZ
        319  13E 000081A0 ??1EStop@@UAE@XZ
        320  13F 00008980 ??1EStopAttack@@UAE@XZ
        321  140 00008A20 ??1EStopBlindness@@UAE@XZ
        322  141 00008AC0 ??1EStopDeafness@@UAE@XZ
        323  142 000087A0 ??1ETeleportMovingBrush@@UAE@XZ
        324  143 0000A160 ??1EThink@@UAE@XZ
        325  144 00070C10 ??1ETimeoutMission@@UAE@XZ
        326  145 00008680 ??1ETrigger@@UAE@XZ
        327  146 000CA090 ??1ETwister@@UAE@XZ
        328  147 00088B30 ??1EViewInit@@UAE@XZ
        329  148 00009170 ??1EVoiceMessage@@UAE@XZ
        330  149 0000A290 ??1EWatch@@UAE@XZ
        331  14A 00009E40 ??1EWatcherInit@@UAE@XZ
        332  14B 000CDA70 ??1EWater@@UAE@XZ
        333  14C 00010F60 ??1EWeaponEffectInit@@UAE@XZ
        334  14D 000898E0 ??1EWeaponItem@@UAE@XZ
        335  14E 00011F40 ??1EWeaponsInit@@UAE@XZ
        336  14F 0000D240 ??1MissionTimer@@UAE@XZ
        337  150 00011530 ??4CBullet@@QAEAAV0@AAV0@@Z
        338  151 00013A80 ??4CCharacterContainer@@QAEAAV0@AAV0@@Z
        339  152 0001D630 ??4CCompMessageID@@QAEAAV0@ABV0@@Z
        340  153 000119C0 ??4CDinoAnimator@@QAEAAV0@AAV0@@Z
        341  154 0000C1D0 ??4CEnemyBase@@QAEAAV0@AAV0@@Z
        342  155 0005CF40 ??4CEnemyRunInto@@QAEAAV0@AAV0@@Z
        343  156 00069460 ??4CItem@@QAEAAV0@AAV0@@Z
        344  157 00009740 ??4CNavigationMarker@@QAEAAV0@AAV0@@Z
        345  158 0000F920 ??4CPlayer@@QAEAAV0@AAV0@@Z
        346  159 00044040 ??4CPlayerAnimator@@QAEAAV0@AAV0@@Z
        347  15A 00089270 ??4CPlayerView@@QAEAAV0@AAV0@@Z
        348  15B 00012FF0 ??4CPlayerWeapons@@QAEAAV0@AAV0@@Z
        349  15C 0000AE50 ??4CProjectile@@QAEAAV0@AAV0@@Z
        350  15D 00001320 ??4CReminder@@QAEAAV0@AAV0@@Z
        351  15E 0000A590 ??4CWatcher@@QAEAAV0@AAV0@@Z
        352  15F 0002E020 ??4EAAAttack@@QAEAAV0@ABV0@@Z
        353  160 0002DA60 ??4EAAEat@@QAEAAV0@ABV0@@Z
        354  161 0002DEC0 ??4EAAFlee@@QAEAAV0@ABV0@@Z
        355  162 0002DD90 ??4EAASleep@@QAEAAV0@ABV0@@Z
        356  163 0002DB70 ??4EAATagAlong@@QAEAAV0@ABV0@@Z
        357  164 0002D960 ??4EAAWander@@QAEAAV0@ABV0@@Z
        358  165 0000CD60 ??4EABCombat@@QAEAAV0@ABV0@@Z
        359  166 0000CF60 ??4EABFlee@@QAEAAV0@ABV0@@Z
        360  167 0000D060 ??4EABGoHome@@QAEAAV0@ABV0@@Z
        361  168 0000CE60 ??4EABScript@@QAEAAV0@ABV0@@Z
        362  169 0000D160 ??4EASleep@@QAEAAV0@ABV0@@Z
        363  16A 0002CB90 ??4EActivate@@QAEAAV0@ABV0@@Z
        364  16B 0006FEB0 ??4EActivateMission@@QAEAAV0@ABV0@@Z
        365  16C 00012340 ??4EAltFireWeapon@@QAEAAV0@ABV0@@Z
        366  16D 00012440 ??4EAltReleaseWeapon@@QAEAAV0@ABV0@@Z
        367  16E 00043B60 ??4EAnimatorInit@@QAEAAV0@ABV0@@Z
        368  16F 0000E2B0 ??4EAutoAction@@QAEAAV0@ABV0@@Z
        369  170 00012240 ??4EBoringWeapon@@QAEAAV0@ABV0@@Z
        370  171 000350E0 ??4EBrushDestroyed@@QAEAAV0@ABV0@@Z
        371  172 00011160 ??4EBulletInit@@QAEAAV0@ABV0@@Z
        372  173 0000DC50 ??4ECameraStart@@QAEAAV0@ABV0@@Z
        373  174 0000DE80 ??4ECameraStop@@QAEAAV0@ABV0@@Z
        374  175 0002D510 ??4ECenterMessage@@QAEAAV0@ABV0@@Z
        375  176 000015B0 ??4EChangeAnim@@QAEAAV0@ABV0@@Z
        376  177 000672F0 ??4EChangeGravity@@QAEAAV0@ABV0@@Z
        377  178 0000B2F0 ??4EChangeMusic@@QAEAAV0@ABV0@@Z
        378  179 0002D660 ??4EComputerMessage@@QAEAAV0@ABV0@@Z
        379  17A 00013D40 ??4EDBCombat@@QAEAAV0@ABV0@@Z
        380  17B 00013F40 ??4EDBFlee@@QAEAAV0@ABV0@@Z
        381  17C 00014040 ??4EDBGoHome@@QAEAAV0@ABV0@@Z
        382  17D 00013E40 ??4EDBScript@@QAEAAV0@ABV0@@Z
        383  17E 00014140 ??4EDBSleep@@QAEAAV0@ABV0@@Z
        384  17F 0002CBF0 ??4EDeactivate@@QAEAAV0@ABV0@@Z
        385  180 00070540 ??4EDestroyMission@@QAEAAV0@ABV0@@Z
        386  181 0000E1A0 ??4EDisconnected@@QAEAAV0@ABV0@@Z
        387  182 0002CD10 ??4EEnd@@QAEAAV0@ABV0@@Z
        388  183 00070310 ??4EEndMissionLose@@QAEAAV0@ABV0@@Z
        389  184 000700E0 ??4EEndMissionWin@@QAEAAV0@ABV0@@Z
        390  185 0000B7D0 ??4EEnemyThresholdCrossed@@QAEAAV0@ABV0@@Z
        391  186 0002CC50 ??4EEnvironmentStart@@QAEAAV0@ABV0@@Z
        392  187 0002CCB0 ??4EEnvironmentStop@@QAEAAV0@ABV0@@Z
        393  188 00012540 ??4EFireWeapon@@QAEAAV0@ABV0@@Z
        394  189 0000B6D0 ??4EForceWound@@QAEAAV0@ABV0@@Z
        395  18A 0000B8D0 ??4EHasBeenEaten@@QAEAAV0@ABV0@@Z
        396  18B 00069810 ??4EHealthItem@@QAEAAV0@ABV0@@Z
        397  18C 0000DA80 ??4EHint@@QAEAAV0@ABV0@@Z
        398  18D 00034FE0 ??4EHit@@QAEAAV0@ABV0@@Z
        399  18E 0002D870 ??4EHitBySpaceShipBeam@@QAEAAV0@ABV0@@Z
        400  18F 0002D160 ??4EKilledEnemy@@QAEAAV0@ABV0@@Z
        401  190 0000A860 ??4ELaunchProjectile@@QAEAAV0@ABV0@@Z
        402  191 00011DD0 ??4ELowerWeapon@@QAEAAV0@ABV0@@Z
        403  192 0006EE30 ??4EMessageItem@@QAEAAV0@ABV0@@Z
        404  193 00046DA0 ??4ENPCFlee@@QAEAAV0@ABV0@@Z
        405  194 00046EF0 ??4ENPCFollow@@QAEAAV0@ABV0@@Z
        406  195 00047110 ??4ENPCScriptStart@@QAEAAV0@ABV0@@Z
        407  196 00070770 ??4EPauseMission@@QAEAAV0@ABV0@@Z
        408  197 0000A030 ??4EPulse@@QAEAAV0@ABV0@@Z
        409  198 00001A00 ??4ERangeModelDestruction@@QAEAAV0@ABV0@@Z
        410  199 0000E0A0 ??4ERebirth@@QAEAAV0@ABV0@@Z
        411  19A 0002D0F0 ??4EReceiveScore@@QAEAAV0@ABV0@@Z
        412  19B 0000B5D0 ??4EReconsiderBehavior@@QAEAAV0@ABV0@@Z
        413  19C 00012640 ??4EReleaseWeapon@@QAEAAV0@ABV0@@Z
        414  19D 00012740 ??4EReloadWeapon@@QAEAAV0@ABV0@@Z
        415  19E 0002CEF0 ??4EReminder@@QAEAAV0@ABV0@@Z
        416  19F 00001040 ??4EReminderInit@@QAEAAV0@ABV0@@Z
        417  1A0 00070E00 ??4EResetMission@@QAEAAV0@ABV0@@Z
        418  1A1 0000B4D0 ??4ERestartAttack@@QAEAAV0@ABV0@@Z
        419  1A2 000709A0 ??4EResumeMission@@QAEAAV0@ABV0@@Z
        420  1A3 0002D230 ??4ERetargetMovingBrush@@QAEAAV0@ABV0@@Z
        421  1A4 0002D1C0 ??4ESecretFound@@QAEAAV0@ABV0@@Z
        422  1A5 00012130 ??4ESelectWeapon@@QAEAAV0@ABV0@@Z
        423  1A6 000899F0 ??4ESetAmmo@@QAEAAV0@ABV0@@Z
        424  1A7 0002D3B0 ??4ESound@@QAEAAV0@ABV0@@Z
        425  1A8 00001DB0 ??4ESpawnDebris@@QAEAAV0@ABV0@@Z
        426  1A9 00001BB0 ??4ESpawnEffect@@QAEAAV0@ABV0@@Z
        427  1AA 00042AE0 ??4ESpawnEffector@@QAEAAV0@ABV0@@Z
        428  1AB 00001770 ??4ESpawnSpray@@QAEAAV0@ABV0@@Z
        429  1AC 0002CA90 ??4EStart@@QAEAAV0@ABV0@@Z
        430  1AD 0002CF60 ??4EStartAttack@@QAEAAV0@ABV0@@Z
        431  1AE 0002CA20 ??4EStop@@QAEAAV0@ABV0@@Z
        432  1AF 0002CFC0 ??4EStopAttack@@QAEAAV0@ABV0@@Z
        433  1B0 0002D020 ??4EStopBlindness@@QAEAAV0@ABV0@@Z
        434  1B1 0002D080 ??4EStopDeafness@@QAEAAV0@ABV0@@Z
        435  1B2 0002CE80 ??4ETeleportMovingBrush@@QAEAAV0@ABV0@@Z
        436  1B3 0000A140 ??4EThink@@QAEAAV0@ABV0@@Z
        437  1B4 00070BD0 ??4ETimeoutMission@@QAEAAV0@ABV0@@Z
        438  1B5 0002CD80 ??4ETrigger@@QAEAAV0@ABV0@@Z
        439  1B6 000CA040 ??4ETwister@@QAEAAV0@ABV0@@Z
        440  1B7 00088AB0 ??4EViewInit@@QAEAAV0@ABV0@@Z
        441  1B8 0002D790 ??4EVoiceMessage@@QAEAAV0@ABV0@@Z
        442  1B9 0000A250 ??4EWatch@@QAEAAV0@ABV0@@Z
        443  1BA 00009E00 ??4EWatcherInit@@QAEAAV0@ABV0@@Z
        444  1BB 000CDA20 ??4EWater@@QAEAAV0@ABV0@@Z
        445  1BC 00010F10 ??4EWeaponEffectInit@@QAEAAV0@ABV0@@Z
        446  1BD 000898B0 ??4EWeaponItem@@QAEAAV0@ABV0@@Z
        447  1BE 00011EF0 ??4EWeaponsInit@@QAEAAV0@ABV0@@Z
        448  1BF 0000D640 ??4MissionGoal@@QAEAAV0@ABV0@@Z
        449  1C0 0000D8E0 ??4MissionSystem@@QAE?AV0@ABV0@@Z
        450  1C1 0000D280 ??4MissionTimer@@QAEAAV0@ABV0@@Z
        451  1C2 0002D8D0 ??4PlayerStats@@QAEAAU0@ABU0@@Z
        452  1C3 000E816C ??_7CBullet@@6B@
        453  1C4 000E84EC ??_7CCharacterContainer@@6B@
        454  1C5 000E8274 ??_7CDinoAnimator@@6B@
        455  1C6 000E7E48 ??_7CEnemyBase@@6B@
        456  1C7 000EA238 ??_7CEnemyRunInto@@6B@
        457  1C8 000EAF70 ??_7CItem@@6B@
        458  1C9 000E7AB4 ??_7CNavigationMarker@@6B@
        459  1CA 000E802C ??_7CPlayer@@6B@
        460  1CB 000E99DC ??_7CPlayerAnimator@@6B@
        461  1CC 000EC654 ??_7CPlayerView@@6B@
        462  1CD 000E83D4 ??_7CPlayerWeapons@@6B@
        463  1CE 000E7CFC ??_7CProjectile@@6B@
        464  1CF 000E7944 ??_7CReminder@@6B@
        465  1D0 000E7BDC ??_7CWatcher@@6B@
        466  1D1 000E88BC ??_7EAAAttack@@6B@
        467  1D2 000E889C ??_7EAAEat@@6B@
        468  1D3 000E88B4 ??_7EAAFlee@@6B@
        469  1D4 000E88AC ??_7EAASleep@@6B@
        470  1D5 000E88A4 ??_7EAATagAlong@@6B@
        471  1D6 000E8894 ??_7EAAWander@@6B@
        472  1D7 000E7FC8 ??_7EABCombat@@6B@
        473  1D8 000E7FD8 ??_7EABFlee@@6B@
        474  1D9 000E7FE0 ??_7EABGoHome@@6B@
        475  1DA 000E7FD0 ??_7EABScript@@6B@
        476  1DB 000E7FE8 ??_7EASleep@@6B@
        477  1DC 000E87EC ??_7EActivate@@6B@
        478  1DD 000EB758 ??_7EActivateMission@@6B@
        479  1DE 000E83AC ??_7EAltFireWeapon@@6B@
        480  1DF 000E83B4 ??_7EAltReleaseWeapon@@6B@
        481  1E0 000E99D4 ??_7EAnimatorInit@@6B@
        482  1E1 000E8024 ??_7EAutoAction@@6B@
        483  1E2 000E83A4 ??_7EBoringWeapon@@6B@
        484  1E3 000E8EAC ??_7EBrushDestroyed@@6B@
        485  1E4 000E8164 ??_7EBulletInit@@6B@
        486  1E5 000E8004 ??_7ECameraStart@@6B@
        487  1E6 000E800C ??_7ECameraStop@@6B@
        488  1E7 000E8874 ??_7ECenterMessage@@6B@
        489  1E8 000E7A5C ??_7EChangeAnim@@6B@
        490  1E9 000EAC4C ??_7EChangeGravity@@6B@
        491  1EA 000E7E18 ??_7EChangeMusic@@6B@
        492  1EB 000E887C ??_7EComputerMessage@@6B@
        493  1EC 000E84F0 ??_7EDBCombat@@6B@
        494  1ED 000E8500 ??_7EDBFlee@@6B@
        495  1EE 000E8508 ??_7EDBGoHome@@6B@
        496  1EF 000E84F8 ??_7EDBScript@@6B@
        497  1F0 000E8510 ??_7EDBSleep@@6B@
        498  1F1 000E87F4 ??_7EDeactivate@@6B@
        499  1F2 000EB770 ??_7EDestroyMission@@6B@
        500  1F3 000E801C ??_7EDisconnected@@6B@
        501  1F4 000E880C ??_7EEnd@@6B@
        502  1F5 000EB768 ??_7EEndMissionLose@@6B@
        503  1F6 000EB760 ??_7EEndMissionWin@@6B@
        504  1F7 000E7E38 ??_7EEnemyThresholdCrossed@@6B@
        505  1F8 000E87FC ??_7EEnvironmentStart@@6B@
        506  1F9 000E8804 ??_7EEnvironmentStop@@6B@
        507  1FA 000E83BC ??_7EFireWeapon@@6B@
        508  1FB 000E7E30 ??_7EForceWound@@6B@
        509  1FC 000E7E40 ??_7EHasBeenEaten@@6B@
        510  1FD 000EB090 ??_7EHealthItem@@6B@
        511  1FE 000E7FFC ??_7EHint@@6B@
        512  1FF 000E8EA4 ??_7EHit@@6B@
        513  200 000E888C ??_7EHitBySpaceShipBeam@@6B@
        514  201 000E8854 ??_7EKilledEnemy@@6B@
        515  202 000E7CF4 ??_7ELaunchProjectile@@6B@
        516  203 000E838C ??_7ELowerWeapon@@6B@
        517  204 000EB4F8 ??_7EMessageItem@@6B@
        518  205 000E9B18 ??_7ENPCFlee@@6B@
        519  206 000E9B20 ??_7ENPCFollow@@6B@
        520  207 000E9B28 ??_7ENPCScriptStart@@6B@
        521  208 000EB778 ??_7EPauseMission@@6B@
        522  209 000E7BC4 ??_7EPulse@@6B@
        523  20A 000E7A6C ??_7ERangeModelDestruction@@6B@
        524  20B 000E8014 ??_7ERebirth@@6B@
        525  20C 000E884C ??_7EReceiveScore@@6B@
        526  20D 000E7E28 ??_7EReconsiderBehavior@@6B@
        527  20E 000E83C4 ??_7EReleaseWeapon@@6B@
        528  20F 000E83CC ??_7EReloadWeapon@@6B@
        529  210 000E8824 ??_7EReminder@@6B@
        530  211 000E793C ??_7EReminderInit@@6B@
        531  212 000EB790 ??_7EResetMission@@6B@
        532  213 000E7E20 ??_7ERestartAttack@@6B@
        533  214 000EB780 ??_7EResumeMission@@6B@
        534  215 000E8864 ??_7ERetargetMovingBrush@@6B@
        535  216 000E885C ??_7ESecretFound@@6B@
        536  217 000E839C ??_7ESelectWeapon@@6B@
        537  218 000EC778 ??_7ESetAmmo@@6B@
        538  219 000E886C ??_7ESound@@6B@
        539  21A 000E7A7C ??_7ESpawnDebris@@6B@
        540  21B 000E7A74 ??_7ESpawnEffect@@6B@
        541  21C 000E98A0 ??_7ESpawnEffector@@6B@
        542  21D 000E7A64 ??_7ESpawnSpray@@6B@
        543  21E 000E87E4 ??_7EStart@@6B@
        544  21F 000E882C ??_7EStartAttack@@6B@
        545  220 000E87DC ??_7EStop@@6B@
        546  221 000E8834 ??_7EStopAttack@@6B@
        547  222 000E883C ??_7EStopBlindness@@6B@
        548  223 000E8844 ??_7EStopDeafness@@6B@
        549  224 000E881C ??_7ETeleportMovingBrush@@6B@
        550  225 000E7BCC ??_7EThink@@6B@
        551  226 000EB788 ??_7ETimeoutMission@@6B@
        552  227 000E8814 ??_7ETrigger@@6B@
        553  228 000ED5CC ??_7ETwister@@6B@
        554  229 000EC64C ??_7EViewInit@@6B@
        555  22A 000E8884 ??_7EVoiceMessage@@6B@
        556  22B 000E7BD4 ??_7EWatch@@6B@
        557  22C 000E7BBC ??_7EWatcherInit@@6B@
        558  22D 000ED924 ??_7EWater@@6B@
        559  22E 000E815C ??_7EWeaponEffectInit@@6B@
        560  22F 000EC770 ??_7EWeaponItem@@6B@
        561  230 000E8394 ??_7EWeaponsInit@@6B@
        562  231 000E7FF4 ??_7MissionGoal@@6B@
        563  232 000E7FF8 ??_7MissionSystem@@6B@
        564  233 000E7FF0 ??_7MissionTimer@@6B@
        565  234 00128F80 ?AAActions_enum@@3VCEntityPropertyEnumType@@A
        566  235 00128F48 ?AAActions_values@@3PAVCEntityPropertyEnumValue@@A
        567  236 00128FA0 ?AASpecies_enum@@3VCEntityPropertyEnumType@@A
        568  237 00128F88 ?AASpecies_values@@3PAVCEntityPropertyEnumValue@@A
        569  238 000CC430 ?Active@CWatcher@@QAEHABVCEntityEvent@@@Z
        570  239 00098D40 ?ActiveActions@CPlayer@@QAEXABVCPlayerAction@@@Z
        571  23A 00045010 ?AddAttachmentModel@CDinoAnimator@@QAEXPAVCModelObject@@JKKKKK@Z
        572  23B 000A8B70 ?AddAttachmentModel@CPlayerAnimator@@QAEXPAVCModelObject@@JKKKKK@Z
        573  23C 00002A00 ?AddAttachmentToModel@@YAXPAVCEntity@@AAVCModelObject@@JKKKKK@Z
        574  23D 00090570 ?AddBouble@CPlayer@@QAEXV?$Vector@M$02@@0@Z
        575  23E 000B3E80 ?AddDefaultAmmoForWeapon@CPlayerWeapons@@QAEXJM@Z
        576  23F 00054DD0 ?AddDependentsToPrediction@CEnemyBase@@UAEXXZ
        577  240 00091360 ?AddDependentsToPrediction@CPlayer@@UAEXXZ
        578  241 000ABFC0 ?AddDependentsToPrediction@CPlayerView@@UAEXXZ
        579  242 000AFF80 ?AddDependentsToPrediction@CPlayerWeapons@@UAEXXZ
        580  243 0006B070 ?AddFlare@CItem@@QAEXKKABV?$Vector@M$02@@0@Z
        581  244 0006AF90 ?AddItem@CItem@@QAEXKKKKK@Z
        582  245 0006AFF0 ?AddItemAttachment@CItem@@QAEXJKKKKK@Z
        583  246 0006AFC0 ?AddItemSpecial@CItem@@QAEXJKKKKK@Z
        584  247 000B3DD0 ?AddManaToPlayer@CPlayerWeapons@@QAEXJ@Z
        585  248 00045050 ?AddWeaponAttachment@CDinoAnimator@@QAEXJKKKKK@Z
        586  249 000A8BB0 ?AddWeaponAttachment@CPlayerAnimator@@QAEXJKKKKK@Z
        587  24A 000B4090 ?AddWeaponPercent_internal@CPlayerWeapons@@QAEMJM@Z
        588  24B 00057C00 ?AdjustDifficulty@CEnemyBase@@UAEXXZ
        589  24C 0005D540 ?AdjustDifficulty@CEnemyRunInto@@UAEXXZ
        590  24D 0006ACE0 ?AdjustDifficulty@CItem@@UAEXXZ
        591  24E 0006ACF0 ?AdjustMipFactor@CItem@@UAEXAAM@Z
        592  24F 0009A450 ?AdjustMouseSensitivity@CPlayer@@QAEXXZ
        593  250 000557C0 ?AdjustShadingParameters@CEnemyBase@@UAEHAAV?$Vector@M$02@@AAK1@Z
        594  251 0006AE30 ?AdjustShadingParameters@CItem@@UAEHAAV?$Vector@M$02@@AAK1@Z
        595  252 00094520 ?AdjustShadingParameters@CPlayer@@UAEHAAV?$Vector@M$02@@AAK1@Z
        596  253 000BAB70 ?AdjustShadingParameters@CProjectile@@UAEHAAV?$Vector@M$02@@AAK1@Z
        597  254 0000D3C0 ?AffectsOutcome@MissionGoal@@QAEX_N@Z
        598  255 0013DAF0 ?AgentBotCurState_enum@@3VCEntityPropertyEnumType@@A
        599  256 0013DAC0 ?AgentBotCurState_values@@3PAVCEntityPropertyEnumValue@@A
        600  257 000986D0 ?AliveActions@CPlayer@@QAEXABVCPlayerAction@@@Z
        601  258 00057C70 ?AnimForDamage@CEnemyBase@@UAEJM@Z
        602  259 00045280 ?AnimateBanking@CDinoAnimator@@QAEXXZ
        603  25A 000A9000 ?AnimateBanking@CPlayerAnimator@@QAEXXZ
        604  25B 000459B0 ?AnimatePlayer@CDinoAnimator@@QAEXXZ
        605  25C 000A9B60 ?AnimatePlayer@CPlayerAnimator@@QAEXXZ
        606  25D 00045440 ?AnimateSoftEyes@CDinoAnimator@@QAEXXZ
        607  25E 000A91C0 ?AnimateSoftEyes@CPlayerAnimator@@QAEXXZ
        608  25F 00097A50 ?ApplyAction@CPlayer@@UAEXABVCPlayerAction@@M@Z
        609  260 000949F0 ?ApplyShaking@CPlayer@@QAEXAAVCPlacement3D@@@Z
        610  261 00132E48 ?Assignment_enum@@3VCEntityPropertyEnumType@@A
        611  262 00132D68 ?Assignment_values@@3PAVCEntityPropertyEnumValue@@A
        612  263 000987F0 ?AutoActions@CPlayer@@QAEXABVCPlayerAction@@@Z
        613  264 000A2600 ?AutoAppear@CPlayer@@QAEHABVCEntityEvent@@@Z
        614  265 000A1FA0 ?AutoFallDown@CPlayer@@QAEHABVCEntityEvent@@@Z
        615  266 000A2120 ?AutoFallToAbys@CPlayer@@QAEHABVCEntityEvent@@@Z
        616  267 000A11C0 ?AutoGoToMarker@CPlayer@@QAEHABVCEntityEvent@@@Z
        617  268 000A14A0 ?AutoGoToMarkerAndStop@CPlayer@@QAEHABVCEntityEvent@@@Z
        618  269 000A22A0 ?AutoLookAround@CPlayer@@QAEHABVCEntityEvent@@@Z
        619  26A 000A1C30 ?AutoPickItem@CPlayer@@QAEHABVCEntityEvent@@@Z
        620  26B 000A2D50 ?AutoStoreWeapon@CPlayer@@QAEHABVCEntityEvent@@@Z
        621  26C 000A25A0 ?AutoTeleport@CPlayer@@QAEHABVCEntityEvent@@@Z
        622  26D 000A17C0 ?AutoUseItem@CPlayer@@QAEHABVCEntityEvent@@@Z
        623  26E 0012A298 ?BasicEffectType_enum@@3VCEntityPropertyEnumType@@A
        624  26F 0012A168 ?BasicEffectType_values@@3PAVCEntityPropertyEnumValue@@A
        625  270 0005B3E0 ?BeWounded@CEnemyBase@@QAEHABVCEntityEvent@@@Z
        626  271 0012B070 ?BlendControllerType_enum@@3VCEntityPropertyEnumType@@A
        627  272 0012B038 ?BlendControllerType_values@@3PAVCEntityPropertyEnumValue@@A
        628  273 001340C0 ?BlockAction_enum@@3VCEntityPropertyEnumType@@A
        629  274 001340A8 ?BlockAction_values@@3PAVCEntityPropertyEnumValue@@A
        630  275 00057310 ?BlowUp@CEnemyBase@@UAEXXZ
        631  276 00097160 ?BlowUp@CPlayer@@QAEXXZ
        632  277 00057300 ?BlowUpBase@CEnemyBase@@QAEXXZ
        633  278 00045900 ?BodyAndHeadOrientation@CDinoAnimator@@QAEXAAVCPlacement3D@@@Z
        634  279 000A9680 ?BodyAndHeadOrientation@CPlayerAnimator@@QAEXAAVCPlacement3D@@@Z
        635  27A 00046800 ?BodyAnimationTemplate@CDinoAnimator@@QAEXJJJJK@Z
        636  27B 000AA8F0 ?BodyAnimationTemplate@CPlayerAnimator@@QAEXJJJJK@Z
        637  27C 000468D0 ?BodyPickItemAnimation@CDinoAnimator@@QAEXXZ
        638  27D 000AAA30 ?BodyPickItemAnimation@CPlayerAnimator@@QAEXXZ
        639  27E 00046890 ?BodyPullAnimation@CDinoAnimator@@QAEXXZ
        640  27F 000AA960 ?BodyPullAnimation@CPlayerAnimator@@QAEXXZ
        641  280 000468C0 ?BodyPullItemAnimation@CDinoAnimator@@QAEXXZ
        642  281 000AA990 ?BodyPullItemAnimation@CPlayerAnimator@@QAEXXZ
        643  282 00046850 ?BodyPushAnimation@CDinoAnimator@@QAEXXZ
        644  283 000AA940 ?BodyPushAnimation@CPlayerAnimator@@QAEXXZ
        645  284 00046940 ?BodyRemoveItem@CDinoAnimator@@QAEXXZ
        646  285 000AAAD0 ?BodyRemoveItem@CPlayerAnimator@@QAEXXZ
        647  286 00046830 ?BodyRunAnimation@CDinoAnimator@@QAEXXZ
        648  287 00046840 ?BodyStillAnimation@CDinoAnimator@@QAEXXZ
        649  288 000AA930 ?BodyStillAnimation@CPlayerAnimator@@QAEXXZ
        650  289 00046820 ?BodyWalkAnimation@CDinoAnimator@@QAEXXZ
        651  28A 000AA920 ?BodyWalkAnimation@CPlayerAnimator@@QAEXXZ
        652  28B 00131100 ?BoolEType_enum@@3VCEntityPropertyEnumType@@A
        653  28C 001310E8 ?BoolEType_values@@3PAVCEntityPropertyEnumValue@@A
        654  28D 000B89A0 ?BoringWeaponAnimation@CPlayerWeapons@@QAEHABVCEntityEvent@@@Z
        655  28E 000BB8A0 ?BounceSound@CProjectile@@QAEXXZ
        656  28F 000B50C0 ?BringUp@CPlayerWeapons@@QAEHABVCEntityEvent@@@Z
        657  290 0012B3F8 ?BulletHitType_enum@@3VCEntityPropertyEnumType@@A
        658  291 0012B3B8 ?BulletHitType_values@@3PAVCEntityPropertyEnumValue@@A
        659  292 0009B610 ?ButtonsActions@CPlayer@@QAEXAAVCPlayerAction@@@Z
        660  293 00053E30 ?CalcDelta@CEnemyBase@@QAE?AV?$Vector@M$02@@PAVCEntity@@@Z
        661  294 00053E90 ?CalcDist@CEnemyBase@@QAEMPAVCEntity@@@Z
        662  295 000561C0 ?CalcDistanceInPlaneToDestination@CEnemyBase@@QAEMXZ
        663  296 0003AA20 ?CalcJitterTarget@CBullet@@QAEXM@Z
        664  297 0003AB40 ?CalcJitterTargetFixed@CBullet@@QAEXMMM@Z
        665  298 00053F40 ?CalcPlaneDelta@CEnemyBase@@QAE?AV?$Vector@M$02@@PAVCEntity@@@Z
        666  299 00054010 ?CalcPlaneDist@CEnemyBase@@QAEMPAVCEntity@@@Z
        667  29A 0003A890 ?CalcTarget@CBullet@@QAEXM@Z
        668  29B 0003A910 ?CalcTarget@CBullet@@QAEXPAVCEntity@@M@Z
        669  29C 000B24E0 ?CalcWeaponPosition3rdPersonView@CPlayerWeapons@@QAEXV?$Vector@M$02@@AAVCPlacement3D@@H@Z
        670  29D 000460F0 ?CalcWeaponPosition@CDinoAnimator@@QAEXV?$Vector@M$02@@AAVCPlacement3D@@H@Z
        671  29E 000B2720 ?CalcWeaponPosition@CPlayerWeapons@@QAEXV?$Vector@M$02@@AAVCPlacement3D@@H@Z
        672  29F 000546C0 ?CalculateAngularLaunchParams@CEnemyBase@@QAEXV?$Vector@M$02@@M00MAAM1@Z
        673  2A0 00053470 ?CalculateMarkerDesire@CEnemyBase@@UAEMPAVCTerrainMarker@@@Z
        674  2A1 000549F0 ?CalculatePredictedPosition@CEnemyBase@@QAE?AV?$Vector@M$02@@V2@0M0M@Z
        675  2A2 000566C0 ?CanAttackEnemy@CEnemyBase@@QAEHPAVCEntity@@M@Z
        676  2A3 0009B270 ?CanEat@CPlayer@@QAEHVCEntityPointer@@M@Z
        677  2A4 0009AFE0 ?CanEatAgent@CPlayer@@QAEHXZ
        678  2A5 00053830 ?CanHear@CEnemyBase@@QAE_NVCEntityPointer@@M@Z
        679  2A6 00056700 ?CanHitEnemy@CEnemyBase@@UAEHPAVCEntity@@M@Z
        680  2A7 000536D0 ?CanSee@CEnemyBase@@QAE_NVCEntityPointer@@@Z
        681  2A8 0009FB20 ?CanSee@CPlayer@@QAE_NVCEntityPointer@@@Z
        682  2A9 000975A0 ?ChangePlayerView@CPlayer@@QAEXXZ
        683  2AA 00045790 ?ChangeView@CDinoAnimator@@QAEXAAVCPlacement3D@@@Z
        684  2AB 000A9510 ?ChangeView@CPlayerAnimator@@QAEXAAVCPlacement3D@@@Z
        685  2AC 000B4AD0 ?ChangeWeapon@CPlayerWeapons@@QAEHABVCEntityEvent@@@Z
        686  2AD 00097FA0 ?CharacterChanged@CPlayer@@UAEXABVCPlayerCharacter@@@Z
        687  2AE 00094270 ?CheatAllMessages@CPlayer@@QAEXXZ
        688  2AF 000940E0 ?CheatAllMessagesDir@CPlayer@@QAEXABVCTString@@@Z
        689  2B0 000B3D70 ?CheatGiveAll@CPlayerWeapons@@QAEXXZ
        690  2B1 000B3CE0 ?CheatOpen@CPlayerWeapons@@QAEXXZ
        691  2B2 0009C4D0 ?Cheats@CPlayer@@QAEXXZ
        692  2B3 0009C490 ?CheatsEnabled@CPlayer@@QAEHXZ
        693  2B4 00056670 ?CheckFallForPathFinding@CEnemyBase@@QAEHABVEWouldFall@@@Z
        694  2B5 000564D0 ?CheckForStandardWaypoints@CEnemyBase@@QAEXXZ
        695  2B6 000979A0 ?CheckGameEnd@CPlayer@@QAEXXZ
        696  2B7 00090CE0 ?CheckHighScore@CPlayer@@QAEXXZ
        697  2B8 000B0940 ?CheckTargetPrediction@CPlayerWeapons@@QAEXPAVCEntity@@@Z
        698  2B9 00056550 ?CheckTouchForPathFinding@CEnemyBase@@QAEHABVETouch@@@Z
        699  2BA 00054E10 ?ChecksumForSync@CEnemyBase@@UAEXAAKJ@Z
        700  2BB 00096060 ?ChecksumForSync@CPlayer@@UAEXAAKJ@Z
        701  2BC 000B3DE0 ?ClampAllAmmo@CPlayerWeapons@@QAEXXZ
        702  2BD 00140680 ?ClasificationBits_enum@@3VCEntityPropertyEnumType@@A
        703  2BE 00140600 ?ClasificationBits_values@@3PAVCEntityPropertyEnumValue@@A
        704  2BF 00001F10 ?Clear@CCompMessageID@@QAEXXZ
        705  2C0 00080490 ?ClearReversePath@CNavigationMarker@@QAEXXZ
        706  2C1 00090670 ?ClearShellLaunchData@CPlayer@@QAEXXZ
        707  2C2 0002E180 ?ClearToDefault@@YAXAAVEAAAttack@@@Z
        708  2C3 0002DB20 ?ClearToDefault@@YAXAAVEAAEat@@@Z
        709  2C4 0002DFA0 ?ClearToDefault@@YAXAAVEAAFlee@@@Z
        710  2C5 0002DE50 ?ClearToDefault@@YAXAAVEAASleep@@@Z
        711  2C6 0002DCD0 ?ClearToDefault@@YAXAAVEAATagAlong@@@Z
        712  2C7 0002DA20 ?ClearToDefault@@YAXAAVEAAWander@@@Z
        713  2C8 0000CE20 ?ClearToDefault@@YAXAAVEABCombat@@@Z
        714  2C9 0000D020 ?ClearToDefault@@YAXAAVEABFlee@@@Z
        715  2CA 0000D120 ?ClearToDefault@@YAXAAVEABGoHome@@@Z
        716  2CB 0000CF20 ?ClearToDefault@@YAXAAVEABScript@@@Z
        717  2CC 0000D220 ?ClearToDefault@@YAXAAVEASleep@@@Z
        718  2CD 0002CBB0 ?ClearToDefault@@YAXAAVEActivate@@@Z
        719  2CE 00070010 ?ClearToDefault@@YAXAAVEActivateMission@@@Z
        720  2CF 00012400 ?ClearToDefault@@YAXAAVEAltFireWeapon@@@Z
        721  2D0 00012500 ?ClearToDefault@@YAXAAVEAltReleaseWeapon@@@Z
        722  2D1 00043CC0 ?ClearToDefault@@YAXAAVEAnimatorInit@@@Z
        723  2D2 0000E410 ?ClearToDefault@@YAXAAVEAutoAction@@@Z
        724  2D3 00012300 ?ClearToDefault@@YAXAAVEBoringWeapon@@@Z
        725  2D4 000351A0 ?ClearToDefault@@YAXAAVEBrushDestroyed@@@Z
        726  2D5 000112D0 ?ClearToDefault@@YAXAAVEBulletInit@@@Z
        727  2D6 0000DDB0 ?ClearToDefault@@YAXAAVECameraStart@@@Z
        728  2D7 0000DFE0 ?ClearToDefault@@YAXAAVECameraStop@@@Z
        729  2D8 0002D560 ?ClearToDefault@@YAXAAVECenterMessage@@@Z
        730  2D9 000016A0 ?ClearToDefault@@YAXAAVEChangeAnim@@@Z
        731  2DA 00067450 ?ClearToDefault@@YAXAAVEChangeGravity@@@Z
        732  2DB 0000B420 ?ClearToDefault@@YAXAAVEChangeMusic@@@Z
        733  2DC 0002D6A0 ?ClearToDefault@@YAXAAVEComputerMessage@@@Z
        734  2DD 00013E00 ?ClearToDefault@@YAXAAVEDBCombat@@@Z
        735  2DE 00014000 ?ClearToDefault@@YAXAAVEDBFlee@@@Z
        736  2DF 00014100 ?ClearToDefault@@YAXAAVEDBGoHome@@@Z
        737  2E0 00013F00 ?ClearToDefault@@YAXAAVEDBScript@@@Z
        738  2E1 00014200 ?ClearToDefault@@YAXAAVEDBSleep@@@Z
        739  2E2 0002CC10 ?ClearToDefault@@YAXAAVEDeactivate@@@Z
        740  2E3 000706A0 ?ClearToDefault@@YAXAAVEDestroyMission@@@Z
        741  2E4 0000E260 ?ClearToDefault@@YAXAAVEDisconnected@@@Z
        742  2E5 0002CD30 ?ClearToDefault@@YAXAAVEEnd@@@Z
        743  2E6 00070470 ?ClearToDefault@@YAXAAVEEndMissionLose@@@Z
        744  2E7 00070240 ?ClearToDefault@@YAXAAVEEndMissionWin@@@Z
        745  2E8 0000B890 ?ClearToDefault@@YAXAAVEEnemyThresholdCrossed@@@Z
        746  2E9 0002CC70 ?ClearToDefault@@YAXAAVEEnvironmentStart@@@Z
        747  2EA 0002CCD0 ?ClearToDefault@@YAXAAVEEnvironmentStop@@@Z
        748  2EB 00012600 ?ClearToDefault@@YAXAAVEFireWeapon@@@Z
        749  2EC 0000B790 ?ClearToDefault@@YAXAAVEForceWound@@@Z
        750  2ED 0000B990 ?ClearToDefault@@YAXAAVEHasBeenEaten@@@Z
        751  2EE 000698D0 ?ClearToDefault@@YAXAAVEHealthItem@@@Z
        752  2EF 0000DBA0 ?ClearToDefault@@YAXAAVEHint@@@Z
        753  2F0 000350A0 ?ClearToDefault@@YAXAAVEHit@@@Z
        754  2F1 0002D890 ?ClearToDefault@@YAXAAVEHitBySpaceShipBeam@@@Z
        755  2F2 0002D180 ?ClearToDefault@@YAXAAVEKilledEnemy@@@Z
        756  2F3 0000A9D0 ?ClearToDefault@@YAXAAVELaunchProjectile@@@Z
        757  2F4 00011E90 ?ClearToDefault@@YAXAAVELowerWeapon@@@Z
        758  2F5 0006EF50 ?ClearToDefault@@YAXAAVEMessageItem@@@Z
        759  2F6 00046E80 ?ClearToDefault@@YAXAAVENPCFlee@@@Z
        760  2F7 00047050 ?ClearToDefault@@YAXAAVENPCFollow@@@Z
        761  2F8 000471D0 ?ClearToDefault@@YAXAAVENPCScriptStart@@@Z
        762  2F9 000708D0 ?ClearToDefault@@YAXAAVEPauseMission@@@Z
        763  2FA 0000A0F0 ?ClearToDefault@@YAXAAVEPulse@@@Z
        764  2FB 00001AC0 ?ClearToDefault@@YAXAAVERangeModelDestruction@@@Z
        765  2FC 0000E160 ?ClearToDefault@@YAXAAVERebirth@@@Z
        766  2FD 0002D110 ?ClearToDefault@@YAXAAVEReceiveScore@@@Z
        767  2FE 0000B690 ?ClearToDefault@@YAXAAVEReconsiderBehavior@@@Z
        768  2FF 00012700 ?ClearToDefault@@YAXAAVEReleaseWeapon@@@Z
        769  300 00012800 ?ClearToDefault@@YAXAAVEReloadWeapon@@@Z
        770  301 0002CF10 ?ClearToDefault@@YAXAAVEReminder@@@Z
        771  302 000011B0 ?ClearToDefault@@YAXAAVEReminderInit@@@Z
        772  303 00070F60 ?ClearToDefault@@YAXAAVEResetMission@@@Z
        773  304 0000B590 ?ClearToDefault@@YAXAAVERestartAttack@@@Z
        774  305 00070B00 ?ClearToDefault@@YAXAAVEResumeMission@@@Z
        775  306 0002D270 ?ClearToDefault@@YAXAAVERetargetMovingBrush@@@Z
        776  307 0002D1E0 ?ClearToDefault@@YAXAAVESecretFound@@@Z
        777  308 000121F0 ?ClearToDefault@@YAXAAVESelectWeapon@@@Z
        778  309 00089AB0 ?ClearToDefault@@YAXAAVESetAmmo@@@Z
        779  30A 0002D400 ?ClearToDefault@@YAXAAVESound@@@Z
        780  30B 00001EB0 ?ClearToDefault@@YAXAAVESpawnDebris@@@Z
        781  30C 00001CC0 ?ClearToDefault@@YAXAAVESpawnEffect@@@Z
        782  30D 00042CC0 ?ClearToDefault@@YAXAAVESpawnEffector@@@Z
        783  30E 00001900 ?ClearToDefault@@YAXAAVESpawnSpray@@@Z
        784  30F 0002CAD0 ?ClearToDefault@@YAXAAVEStart@@@Z
        785  310 0002CF80 ?ClearToDefault@@YAXAAVEStartAttack@@@Z
        786  311 0002CA40 ?ClearToDefault@@YAXAAVEStop@@@Z
        787  312 0002CFE0 ?ClearToDefault@@YAXAAVEStopAttack@@@Z
        788  313 0002D040 ?ClearToDefault@@YAXAAVEStopBlindness@@@Z
        789  314 0002D0A0 ?ClearToDefault@@YAXAAVEStopDeafness@@@Z
        790  315 0002CEA0 ?ClearToDefault@@YAXAAVETeleportMovingBrush@@@Z
        791  316 0000A200 ?ClearToDefault@@YAXAAVEThink@@@Z
        792  317 00070D30 ?ClearToDefault@@YAXAAVETimeoutMission@@@Z
        793  318 0002CDC0 ?ClearToDefault@@YAXAAVETrigger@@@Z
        794  319 000CA1B0 ?ClearToDefault@@YAXAAVETwister@@@Z
        795  31A 00088C60 ?ClearToDefault@@YAXAAVEViewInit@@@Z
        796  31B 0002D7D0 ?ClearToDefault@@YAXAAVEVoiceMessage@@@Z
        797  31C 0000A3B0 ?ClearToDefault@@YAXAAVEWatch@@@Z
        798  31D 00009F60 ?ClearToDefault@@YAXAAVEWatcherInit@@@Z
        799  31E 000CDB90 ?ClearToDefault@@YAXAAVEWater@@@Z
        800  31F 00011080 ?ClearToDefault@@YAXAAVEWeaponEffectInit@@@Z
        801  320 00089980 ?ClearToDefault@@YAXAAVEWeaponItem@@@Z
        802  321 00012060 ?ClearToDefault@@YAXAAVEWeaponsInit@@@Z
        803  322 0002E220 ?ClearToDefault@@YAXAAW4AAActions@@@Z
        804  323 0002E230 ?ClearToDefault@@YAXAAW4AASpecies@@@Z
        805  324 0000CD30 ?ClearToDefault@@YAXAAW4AgentBotCurState@@@Z
        806  325 00071020 ?ClearToDefault@@YAXAAW4Assignment@@@Z
        807  326 00001B10 ?ClearToDefault@@YAXAAW4BasicEffectType@@@Z
        808  327 000390F0 ?ClearToDefault@@YAXAAW4BlendControllerType@@@Z
        809  328 000351C0 ?ClearToDefault@@YAXAAW4BlockAction@@@Z
        810  329 0002D310 ?ClearToDefault@@YAXAAW4BoolEType@@@Z
        811  32A 00011370 ?ClearToDefault@@YAXAAW4BulletHitType@@@Z
        812  32B 00042E10 ?ClearToDefault@@YAXAAW4ClasificationBits@@@Z
        813  32C 000019C0 ?ClearToDefault@@YAXAAW4CustomShadingType@@@Z
        814  32D 00001D30 ?ClearToDefault@@YAXAAW4DebrisParticlesType@@@Z
        815  32E 0000B9C0 ?ClearToDefault@@YAXAAW4DestinationType@@@Z
        816  32F 00001AE0 ?ClearToDefault@@YAXAAW4DestructionDebrisType@@@Z
        817  330 00013D00 ?ClearToDefault@@YAXAAW4DinoBotCurState@@@Z
        818  331 00013D10 ?ClearToDefault@@YAXAAW4DinoBotSpecies@@@Z
        819  332 0004CD60 ?ClearToDefault@@YAXAAW4DoorType@@@Z
        820  333 00088A40 ?ClearToDefault@@YAXAAW4EXSpecies@@@Z
        821  334 0004EA30 ?ClearToDefault@@YAXAAW4EffectMarkerType@@@Z
        822  335 00001B20 ?ClearToDefault@@YAXAAW4EffectParticlesType@@@Z
        823  336 00042A40 ?ClearToDefault@@YAXAAW4EffectorEffectType@@@Z
        824  337 0005E300 ?ClearToDefault@@YAXAAW4EnemySpawnerType@@@Z
        825  338 0002D330 ?ClearToDefault@@YAXAAW4EntityInfoBodyType@@@Z
        826  339 0002D320 ?ClearToDefault@@YAXAAW4EventEType@@@Z
        827  33A 00042DF0 ?ClearToDefault@@YAXAAW4FogAttenuationType@@@Z
        828  33B 00042E00 ?ClearToDefault@@YAXAAW4FogGraduationType2@@@Z
        829  33C 000674F0 ?ClearToDefault@@YAXAAW4GravityType@@@Z
        830  33D 00001B00 ?ClearToDefault@@YAXAAW4LensFlareType@@@Z
        831  33E 00001AF0 ?ClearToDefault@@YAXAAW4LightType@@@Z
        832  33F 0002D340 ?ClearToDefault@@YAXAAW4MessageSound@@@Z
        833  340 00071000 ?ClearToDefault@@YAXAAW4MissionEventType@@@Z
        834  341 00071010 ?ClearToDefault@@YAXAAW4MissionType@@@Z
        835  342 0000B260 ?ClearToDefault@@YAXAAW4MusicType@@@Z
        836  343 000092D0 ?ClearToDefault@@YAXAAW4NMNavTypes@@@Z
        837  344 000471F0 ?ClearToDefault@@YAXAAW4NPCActions@@@Z
        838  345 00047200 ?ClearToDefault@@YAXAAW4NPCGender@@@Z
        839  346 00047220 ?ClearToDefault@@YAXAAW4NPCOnTrigger@@@Z
        840  347 00047210 ?ClearToDefault@@YAXAAW4NPCType@@@Z
        841  348 00088A30 ?ClearToDefault@@YAXAAW4PMSpecies@@@Z
        842  349 00085490 ?ClearToDefault@@YAXAAW4PSBlendType@@@Z
        843  34A 000854A0 ?ClearToDefault@@YAXAAW4PSPartType@@@Z
        844  34B 0002D350 ?ClearToDefault@@YAXAAW4ParticleTexture@@@Z
        845  34C 00084120 ?ClearToDefault@@YAXAAW4ParticlesHolderType@@@Z
        846  34D 00043D60 ?ClearToDefault@@YAXAAW4PlayerAnimTypes@@@Z
        847  34E 00089850 ?ClearToDefault@@YAXAAW4PlayerAutoAction@@@Z
        848  34F 0000DA10 ?ClearToDefault@@YAXAAW4PlayerState@@@Z
        849  350 0000DA00 ?ClearToDefault@@YAXAAW4PlayerViewType@@@Z
        850  351 0000A810 ?ClearToDefault@@YAXAAW4ProjectileMovingType@@@Z
        851  352 0000A800 ?ClearToDefault@@YAXAAW4ProjectileType@@@Z
        852  353 000019D0 ?ClearToDefault@@YAXAAW4ShadowType@@@Z
        853  354 0002D360 ?ClearToDefault@@YAXAAW4SoundType@@@Z
        854  355 000C71F0 ?ClearToDefault@@YAXAAW4SpeciesType@@@Z
        855  356 00001700 ?ClearToDefault@@YAXAAW4SprayParticlesType@@@Z
        856  357 00051650 ?ClearToDefault@@YAXAAW4SwitchType@@@Z
        857  358 0000B9B0 ?ClearToDefault@@YAXAAW4TargetType@@@Z
        858  359 000092C0 ?ClearToDefault@@YAXAAW4TerrainPointTypes@@@Z
        859  35A 000351D0 ?ClearToDefault@@YAXAAW4TouchOrDamageEvent@@@Z
        860  35B 0000B9D0 ?ClearToDefault@@YAXAAW4TransFlags@@@Z
        861  35C 000C9FF0 ?ClearToDefault@@YAXAAW4TwisterSize@@@Z
        862  35D 00088A50 ?ClearToDefault@@YAXAAW4ViewType@@@Z
        863  35E 00042E20 ?ClearToDefault@@YAXAAW4VisibilityBits@@@Z
        864  35F 00034FB0 ?ClearToDefault@@YAXAAW4WarpRotation@@@Z
        865  360 000CD9D0 ?ClearToDefault@@YAXAAW4WaterSize@@@Z
        866  361 00010EC0 ?ClearToDefault@@YAXAAW4WeaponEffectType@@@Z
        867  362 00089860 ?ClearToDefault@@YAXAAW4WeaponItemType@@@Z
        868  363 00012820 ?ClearToDefault@@YAXAAW4WeaponType@@@Z
        869  364 00089840 ?ClearToDefault@@YAXAAW4WorldLinkType@@@Z
        870  365 000B3930 ?ClearWeapons@CPlayerWeapons@@QAEXXZ
        871  366 00020060 ?CloseParticles@@YAXXZ
        872  367 00097820 ?ComputerPressed@CPlayer@@QAEXXZ
        873  368 00046A40 ?ControlFlareAttachment@CDinoAnimator@@QAEXXZ
        874  369 000AABF0 ?ControlFlareAttachment@CPlayerAnimator@@QAEXXZ
        875  36A 000B1B70 ?ControlFlareAttachment@CPlayerWeapons@@QAEXXZ
        876  36B 00053BF0 ?Copy@CEnemyBase@@UAEXAAVCEntity@@K@Z
        877  36C 000909B0 ?Copy@CPlayer@@UAEXAAVCEntity@@K@Z
        878  36D 000BAB40 ?Copy@CProjectile@@UAEXAAVCEntity@@K@Z
        879  36E 000B4860 ?CrossBowBoring@CPlayerWeapons@@QAEMXZ
        880  36F 000B7670 ?CrossBowStart@CPlayerWeapons@@QAEHABVCEntityEvent@@@Z
        881  370 000B7740 ?CrossBowStop@CPlayerWeapons@@QAEHABVCEntityEvent@@@Z
        882  371 00045F30 ?Crouch@CDinoAnimator@@QAEXXZ
        883  372 000AA3E0 ?Crouch@CPlayerAnimator@@QAEXXZ
        884  373 0000D8B0 ?CurrentLevel@MissionSystem@@QAEAAHXZ
        885  374 00133BC8 ?CustomShadingType_enum@@3VCEntityPropertyEnumType@@A
        886  375 00133BB0 ?CustomShadingType_values@@3PAVCEntityPropertyEnumValue@@A
        887  376 00046270 ?CutWithKnife@CDinoAnimator@@QAEHMMMMMM@Z
        888  377 000B2AB0 ?CutWithKnife@CPlayerWeapons@@QAEHMMMMMM@Z
        889  378 00096650 ?DamageImpact@CPlayer@@QAEXW4DamageType@@MABV?$Vector@M$02@@1@Z
        890  379 000075B0 ?DamageStrength@@YAMW4EntityInfoBodyType@@W4DamageType@@@Z
        891  37A 0005B900 ?Death@CEnemyBase@@QAEHABVCEntityEvent@@@Z
        892  37B 000A00A0 ?Death@CPlayer@@QAEHABVCEntityEvent@@@Z
        893  37C 00099D30 ?DeathActions@CPlayer@@QAEXABVCPlayerAction@@@Z
        894  37D 00057C80 ?DeathNotify@CEnemyBase@@UAEXXZ
        895  37E 0005BB90 ?DeathSequence@CEnemyBase@@QAEHABVCEntityEvent@@@Z
        896  37F 00057CA0 ?DeathSound@CEnemyBase@@UAEXXZ
        897  380 0012BE70 ?DebrisParticlesType_enum@@3VCEntityPropertyEnumType@@A
        898  381 0012BE48 ?DebrisParticlesType_values@@3PAVCEntityPropertyEnumValue@@A
        899  382 00007100 ?Debris_Begin@@YAXW4EntityInfoBodyType@@W4DebrisParticlesType@@W4BasicEffectType@@MABV?$Vector@M$02@@3MMK@Z
        900  383 00007180 ?Debris_Spawn@@YA?AVCEntityPointer@@PAVCEntity@@0JJJJJJMABV?$Vector@M$02@@@Z
        901  384 0012EBF8 ?DestinationType_enum@@3VCEntityPropertyEnumType@@A
        902  385 0012EBD8 ?DestinationType_values@@3PAVCEntityPropertyEnumValue@@A
        903  386 00090130 ?Destroy@CPlayer@@UAEXXZ
        904  387 000AFF20 ?Destroy@CPlayerWeapons@@UAEXXZ
        905  388 0003B0E0 ?DestroyBullet@CBullet@@QAEXXZ
        906  389 00133708 ?DestructionDebrisType_enum@@3VCEntityPropertyEnumType@@A
        907  38A 001336F0 ?DestructionDebrisType_values@@3PAVCEntityPropertyEnumValue@@A
        908  38B 0005B570 ?Die@CEnemyBase@@QAEHABVCEntityEvent@@@Z
        909  38C 0012C2C8 ?DinoBotCurState_enum@@3VCEntityPropertyEnumType@@A
        910  38D 0012C298 ?DinoBotCurState_values@@3PAVCEntityPropertyEnumValue@@A
        911  38E 0012C300 ?DinoBotSpecies_enum@@3VCEntityPropertyEnumType@@A
        912  38F 0012C2D0 ?DinoBotSpecies_values@@3PAVCEntityPropertyEnumValue@@A
        913  390 00097EE0 ?Disconnect@CPlayer@@UAEXXZ
        914  391 000A30E0 ?DoAutoActions@CPlayer@@QAEHABVCEntityEvent@@@Z
        915  392 00090300 ?DoDinoQuickAttack@CPlayer@@QAEXXZ
        916  393 00095CD0 ?DoMoving@CPlayer@@UAEXXZ
        917  394 000ABFE0 ?DoMoving@CPlayerView@@UAEXXZ
        918  395 000AFF30 ?DoNightVision@CPlayerWeapons@@QAEXH@Z
        919  396 000AFFE0 ?DoRecoil@CPlayerWeapons@@QAEXXZ
        920  397 000AFF50 ?DoThermal@CPlayerWeapons@@QAEXH@Z
        921  398 0012E108 ?DoorType_enum@@3VCEntityPropertyEnumType@@A
        922  399 0012E0E8 ?DoorType_values@@3PAVCEntityPropertyEnumValue@@A
        923  39A 000B4050 ?DropWeapon@CPlayerWeapons@@QAEXXZ
        924  39B 00054C40 ?DropsMarker@CEnemyBase@@UBEHAAVCTFileName@@AAVCTString@@@Z
        925  39C 000CC7C0 ?Dummy@CWatcher@@QAEHABVCEntityEvent@@@Z
        926  39D 000364A0 ?DumpSync_t@CBasicEffect@@UAEXAAVCTStream@@J@Z
        927  39E 00054E30 ?DumpSync_t@CEnemyBase@@UAEXAAVCTStream@@J@Z
        928  39F 000960F0 ?DumpSync_t@CPlayer@@UAEXAAVCTStream@@J@Z
        929  3A0 000BAA80 ?DumpSync_t@CProjectile@@UAEXAAVCTStream@@J@Z
        930  3A1 0013BAD0 ?EXSpecies_enum@@3VCEntityPropertyEnumType@@A
        931  3A2 0013BA98 ?EXSpecies_values@@3PAVCEntityPropertyEnumValue@@A
        932  3A3 0012E5F0 ?EffectMarkerType_enum@@3VCEntityPropertyEnumType@@A
        933  3A4 0012E5A0 ?EffectMarkerType_values@@3PAVCEntityPropertyEnumValue@@A
        934  3A5 0012A2D0 ?EffectParticlesType_enum@@3VCEntityPropertyEnumType@@A
        935  3A6 0012A2A0 ?EffectParticlesType_values@@3PAVCEntityPropertyEnumValue@@A
        936  3A7 0012E958 ?EffectorEffectType_enum@@3VCEntityPropertyEnumType@@A
        937  3A8 0012E8E8 ?EffectorEffectType_values@@3PAVCEntityPropertyEnumValue@@A
        938  3A9 0009AE50 ?EndDinoVision@CPlayer@@QAEXXZ
        939  3AA 0009A730 ?EndNightVision@CPlayer@@QAEXXZ
        940  3AB 0009AAB0 ?EndThermalVision@CPlayer@@QAEXXZ
        941  3AC 0012FDD8 ?EnemySpawnerType_enum@@3VCEntityPropertyEnumType@@A
        942  3AD 0012FDA8 ?EnemySpawnerType_values@@3PAVCEntityPropertyEnumValue@@A
        943  3AE 001311D0 ?EntityInfoBodyType_enum@@3VCEntityPropertyEnumType@@A
        944  3AF 00131180 ?EntityInfoBodyType_values@@3PAVCEntityPropertyEnumValue@@A
        945  3B0 00131178 ?EventEType_enum@@3VCEntityPropertyEnumType@@A
        946  3B1 00131108 ?EventEType_values@@3PAVCEntityPropertyEnumValue@@A
        947  3B2 00046030 ?Fall@CDinoAnimator@@QAEXXZ
        948  3B3 000AA560 ?Fall@CPlayerAnimator@@QAEXXZ
        949  3B4 00055080 ?FillEntityStatistics@CEnemyBase@@UAEHPAUEntityStats@@@Z
        950  3B5 00094830 ?FindMusicHolder@CPlayer@@QAEXXZ
        951  3B6 00056390 ?FindNextPathMarker@CEnemyBase@@UAEXXZ
        952  3B7 000B4920 ?FindPrimaryWeaponInDirection@CPlayerWeapons@@QAE?AW4WeaponType@@J@Z
        953  3B8 000B48A0 ?FindWeaponInDirection@CPlayerWeapons@@QAE?AW4WeaponType@@J@Z
        954  3B9 0005D600 ?Fire@CEnemyRunInto@@QAEHABVCEntityEvent@@@Z
        955  3BA 000B5320 ?Fire@CPlayerWeapons@@QAEHABVCEntityEvent@@@Z
        956  3BB 00046720 ?FireAnimation@CDinoAnimator@@QAEXJKMMMM@Z
        957  3BC 000AA650 ?FireAnimation@CPlayerAnimator@@QAEXJK@Z
        958  3BD 000AA8E0 ?FireAnimationOff@CPlayerAnimator@@QAEXXZ
        959  3BE 000B6B50 ?FireAssaultRifle@CPlayerWeapons@@QAEHABVCEntityEvent@@@Z
        960  3BF 000B3650 ?FireBullets@CPlayerWeapons@@QAEXMMMMJPAMMM@Z
        961  3C0 000B7A90 ?FireCrossBow@CPlayerWeapons@@QAEHABVCEntityEvent@@@Z
        962  3C1 000B3790 ?FireGrenade@CPlayerWeapons@@QAEXJ@Z
        963  3C2 000B7E70 ?FireGrenadeLauncher@CPlayerWeapons@@QAEHABVCEntityEvent@@@Z
        964  3C3 000B3720 ?FireMachineBullet@CPlayerWeapons@@QAEXMMMMMM@Z
        965  3C4 000B35F0 ?FireOneBullet@CPlayerWeapons@@QAEXMMMM@Z
        966  3C5 000B6120 ?FirePistol@CPlayerWeapons@@QAEHABVCEntityEvent@@@Z
        967  3C6 000B63F0 ?FireShotgun@CPlayerWeapons@@QAEHABVCEntityEvent@@@Z
        968  3C7 000B70E0 ?FireSniperRifle@CPlayerWeapons@@QAEHABVCEntityEvent@@@Z
        969  3C8 000A0DF0 ?FirstInit@CPlayer@@QAEHABVCEntityEvent@@@Z
        970  3C9 00007840 ?FixupCausedToPlayer@@YAPAVCEntity@@PAV1@0H@Z
        971  3CA 00130EB8 ?FogAttenuationType_enum@@3VCEntityPropertyEnumType@@A
        972  3CB 00130EA0 ?FogAttenuationType_values@@3PAVCEntityPropertyEnumValue@@A
        973  3CC 00130ED8 ?FogGraduationType2_enum@@3VCEntityPropertyEnumType@@A
        974  3CD 00130EC0 ?FogGraduationType2_values@@3PAVCEntityPropertyEnumValue@@A
        975  3CE 00053510 ?ForgetEnemy@CEnemyBase@@QAEXXZ
        976  3CF 00094820 ?GetActionMarker@CPlayer@@QAEPAVCPlayerActionMarker@@XZ
        977  3D0 000902C0 ?GetAlpha@CPlayer@@QBEJJ@Z
        978  3D1 000B4460 ?GetAltWeapon@CPlayerWeapons@@QAE?AW4WeaponType@@W42@@Z
        979  3D2 000B3C20 ?GetAmmo@CPlayerWeapons@@QAEJXZ
        980  3D3 000B4380 ?GetAmmoPercent@CPlayerWeapons@@QAEMXZ
        981  3D4 000A99C0 ?GetAnimBodyIndex@CPlayerAnimator@@QAEJJ@Z
        982  3D5 000A9840 ?GetAnimIndex@CPlayerAnimator@@QAEJJ@Z
        983  3D6 000AFFD0 ?GetAnimator@CPlayerWeapons@@QAEPAVCPlayerAnimator@@XZ
        984  3D7 00055AA0 ?GetAttackMoveFrequency@CEnemyBase@@UAEMM@Z
        985  3D8 00044F20 ?GetBody@CDinoAnimator@@QAEPAVCModelObject@@XZ
        986  3D9 000A8A80 ?GetBody@CPlayerAnimator@@QAEPAVCModelObject@@XZ
        987  3DA 00044F40 ?GetBodyRen@CDinoAnimator@@QAEPAVCModelObject@@XZ
        988  3DB 000A8AA0 ?GetBodyRen@CPlayerAnimator@@QAEPAVCModelObject@@XZ
        989  3DC 00058260 ?GetClosestNode@CEnemyBase@@QAE?AVCEntityPointer@@V?$Vector@M$02@@@Z
        990  3DD 00054D20 ?GetComputerMessageName@CEnemyBase@@UBEABVCTFileName@@XZ
        991  3DE 00090340 ?GetCrossHairType@CPlayer@@QAE?BJXZ
        992  3DF 00053B80 ?GetCrushHealth@CEnemyBase@@UAEMXZ
        993  3E0 0000D8C0 ?GetCurrentLevel@MissionSystem@@QAEHXZ
        994  3E1 0009D930 ?GetDeathmatchStartMarker@CPlayer@@QAEPAVCEntity@@XZ
        995  3E2 00054CE0 ?GetDescription@CEnemyBase@@UBEABVCTString@@XZ
        996  3E3 00069170 ?GetDescription@CItem@@UBEABVCTString@@XZ
        997  3E4 00080470 ?GetDescription@CNavigationMarker@@UBEABVCTString@@XZ
        998  3E5 0009A120 ?GetDestinationAngle@CPlayer@@QBEMXZ
        999  3E6 0009A0C0 ?GetDestinationCoords@CPlayer@@QBEXAAM0@Z
       1000  3E7 000923E0 ?GetDetailStatsCoop@CPlayer@@QAEXAAVCTString@@@Z
       1001  3E8 00091700 ?GetDetailStatsDM@CPlayer@@QAEXAAVCTString@@@Z
       1002  3E9 00092F60 ?GetDetailStatsSP@CPlayer@@QAEXAAVCTString@@J@Z
       1003  3EA 000538E0 ?GetDirectionalPosition@CEnemyBase@@QAE?AV?$Vector@M$02@@V2@M@Z
       1004  3EB 000580E0 ?GetEnemyNode@CEnemyBase@@QAE?AVCEntityPointer@@XZ
       1005  3EC 000546B0 ?GetEntityInfo@CEnemyBase@@UAEPAXXZ
       1006  3ED 00080460 ?GetEntityInfo@CNavigationMarker@@UAEPAXXZ
       1007  3EE 000974A0 ?GetEntityInfo@CPlayer@@UAEPAXXZ
       1008  3EF 00002140 ?GetEntityInfoPosition@@YAXPAVCEntity@@PAMAAV?$Vector@M$02@@@Z
       1009  3F0 0009A040 ?GetFOV@CPlayer@@QBEMXZ
       1010  3F1 00054050 ?GetFrustumAngle@CEnemyBase@@QAEMABV?$Vector@M$02@@@Z
       1011  3F2 00007D40 ?GetGameDamageMultiplier@@YAMXZ
       1012  3F3 00093E10 ?GetGameSpyPlayerInfo@CPlayer@@UAEXJAAVCTString@@@Z
       1013  3F4 0009A030 ?GetHeatLevel@CPlayer@@QBEMXZ
       1014  3F5 0009C720 ?GetLerpedAbsoluteViewPlacement@CPlayer@@QAEXAAVCPlacement3D@@@Z
       1015  3F6 000AC010 ?GetLerpedPlacement@CPlayerView@@UBE?AVCPlacement3D@@XZ
       1016  3F7 00098B80 ?GetLerpedWeaponPosition@CPlayer@@QAEXV?$Vector@M$02@@AAVCPlacement3D@@@Z
       1017  3F8 000912F0 ?GetLightSource@CPlayer@@UAEPAVCLightSource@@XZ
       1018  3F9 000BAB20 ?GetLightSource@CProjectile@@UAEPAVCLightSource@@XZ
       1019  3FA 000B3C80 ?GetMaxAmmo@CPlayerWeapons@@QAEJXZ
       1020  3FB 0009A020 ?GetMaxHealth@CPlayer@@QBEMXZ
       1021  3FC 00094630 ?GetModelForRendering@CPlayer@@UAEPAVCModelObject@@XZ
       1022  3FD 0000B9E0 ?GetName@CEnemyBase@@UBEABVCTString@@XZ
       1023  3FE 00069160 ?GetName@CItem@@UBEABVCTString@@XZ
       1024  3FF 000092E0 ?GetName@CNavigationMarker@@UBEABVCTString@@XZ
       1025  400 00090BE0 ?GetNumKills@CPlayer@@QAEHXZ
       1026  401 000CC420 ?GetOwner@CWatcher@@QAEPAVCEnemyBase@@XZ
       1027  402 00054110 ?GetPlaneFrustumAngle@CEnemyBase@@QAEMABV?$Vector@M$02@@@Z
       1028  403 00044F10 ?GetPlayer@CDinoAnimator@@QAEPAVCMovableModelEntity@@XZ
       1029  404 000A8A70 ?GetPlayer@CPlayerAnimator@@QAEPAVCMovableModelEntity@@XZ
       1030  405 000AFFC0 ?GetPlayer@CPlayerWeapons@@QAEPAVCEntity@@XZ
       1031  406 00090990 ?GetPlayerAnimator@CPlayer@@QAEPAVCPlayerAnimator@@XZ
       1032  407 00053AD0 ?GetPlayerKillDescription@CEnemyBase@@UAE?AVCTString@@ABV2@ABVEDeath@@@Z
       1033  408 000902B0 ?GetPlayerType@CPlayer@@QAE?BJXZ
       1034  409 00090980 ?GetPlayerWeapons@CPlayer@@QAEPAVCPlayerWeapons@@XZ
       1035  40A 000021F0 ?GetPositionCastRay@@YAXPAVCEntity@@0AAV?$Vector@M$02@@1@Z
       1036  40B 00090E70 ?GetPredictName@CPlayer@@QBE?AVCTString@@XZ
       1037  40C 00011700 ?GetPredictionPair@CDinoAnimator@@UAEPAVCEntity@@XZ
       1038  40D 0000BA00 ?GetPredictionPair@CEnemyBase@@UAEPAVCEntity@@XZ
       1039  40E 00069190 ?GetPredictionPair@CItem@@UAEPAVCEntity@@XZ
       1040  40F 0000E4B0 ?GetPredictionPair@CPlayer@@UAEPAVCEntity@@XZ
       1041  410 00043D70 ?GetPredictionPair@CPlayerAnimator@@UAEPAVCEntity@@XZ
       1042  411 00088D50 ?GetPredictionPair@CPlayerView@@UAEPAVCEntity@@XZ
       1043  412 00012830 ?GetPredictionPair@CPlayerWeapons@@UAEPAVCEntity@@XZ
       1044  413 0000AA70 ?GetPredictionPair@CProjectile@@UAEPAVCEntity@@XZ
       1045  414 0000A450 ?GetPredictionPair@CWatcher@@UAEPAVCEntity@@XZ
       1046  415 0006AE20 ?GetPredictionRange@CItem@@UAEMXZ
       1047  416 00091350 ?GetPredictionRange@CPlayer@@UAEMXZ
       1048  417 00053AC0 ?GetPredictionTime@CEnemyBase@@UAEMXZ
       1049  418 00091340 ?GetPredictionTime@CPlayer@@UAEMXZ
       1050  419 00053B90 ?GetPropA@CEnemyBase@@UAEAAMAAM@Z
       1051  41A 000BB920 ?GetRotationSpeed@CProjectile@@QAEMMMM@Z
       1052  41B 0002D8F0 ?GetSP@@YAPBVCSessionProperties@@XZ
       1053  41C 000B4450 ?GetSelectedWeapon@CPlayerWeapons@@QAEJW4WeaponType@@@Z
       1054  41D 000909A0 ?GetSettings@CPlayer@@QAEPAVCPlayerSettings@@XZ
       1055  41E 00091640 ?GetShortStats@CPlayer@@QAEXAAVCTString@@@Z
       1056  41F 00090390 ?GetSniping@CPlayer@@QAE?BHXZ
       1057  420 0000D3F0 ?GetState@MissionGoal@@QAE?AW4t_mgState@@XZ
       1058  421 00091590 ?GetStats@CPlayer@@QAEXAAVCTString@@W4CompStatType@@J@Z
       1059  422 00091450 ?GetStatsInGameTimeGame@CPlayer@@QAEMXZ
       1060  423 00091420 ?GetStatsInGameTimeLevel@CPlayer@@QAEMXZ
       1061  424 000914D0 ?GetStatsRealWorldStarted@CPlayer@@QAE?AVCTString@@XZ
       1062  425 00091480 ?GetStatsRealWorldTime@CPlayer@@QAEMXZ
       1063  426 00007530 ?GetStdEntityInfo@@YAPAUEntityInfo@@W4EntityInfoBodyType@@@Z
       1064  427 000B43E0 ?GetStrongerWeapon@CPlayerWeapons@@QAE?AW4WeaponType@@J@Z
       1065  428 0009DF40 ?GetTeleportingOffset@CPlayer@@QAE?AV?$Vector@M$02@@XZ
       1066  429 0000D3E0 ?GetType@MissionGoal@@QAE?AW4t_mgType@@XZ
       1067  42A 0009D550 ?GetViewEntity@CPlayer@@QAEPAVCEntity@@XZ
       1068  42B 00053BA0 ?GetWatcher@CEnemyBase@@QAEPAVCWatcher@@H@Z
       1069  42C 00090350 ?GetWatcher@CPlayer@@QAEPAVCWatcher@@J@Z
       1070  42D 000A9720 ?GetWeaponAnimIndex@CPlayerAnimator@@QAEJJ@Z
       1071  42E 000B42E0 ?GetWeaponPercent_internal@CPlayerWeapons@@QAEMJ@Z
       1072  42F 00094BA0 ?GetWorldGlaring@CPlayer@@QAEKXZ
       1073  430 001316C0 ?GravityType_enum@@3VCEntityPropertyEnumType@@A
       1074  431 001316A0 ?GravityType_values@@3PAVCEntityPropertyEnumValue@@A
       1075  432 000B4870 ?GrenadeLauncherBoring@CPlayerWeapons@@QAEMXZ
       1076  433 00058490 ?H0x01360007_WaypointMoveToDestination_01@CEnemyBase@@QAEHABVCEntityEvent@@@Z
       1077  434 00058510 ?H0x01360008_WaypointMoveToDestination_02@CEnemyBase@@QAEHABVCEntityEvent@@@Z
       1078  435 00058590 ?H0x01360009_WaypointMoveToDestination_03@CEnemyBase@@QAEHABVCEntityEvent@@@Z
       1079  436 00058630 ?H0x0136000a_WaypointMoveToDestination_04@CEnemyBase@@QAEHABVCEntityEvent@@@Z
       1080  437 000586F0 ?H0x0136000b_WaypointMoveToDestination_05@CEnemyBase@@QAEHABVCEntityEvent@@@Z
       1081  438 00058790 ?H0x0136000c_WaypointMoveToDestination_06@CEnemyBase@@QAEHABVCEntityEvent@@@Z
       1082  439 000587F0 ?H0x0136000d_WaypointMoveToDestination_07@CEnemyBase@@QAEHABVCEntityEvent@@@Z
       1083  43A 00058850 ?H0x0136000e_WaypointMoveToDestination_08@CEnemyBase@@QAEHABVCEntityEvent@@@Z
       1084  43B 000588B0 ?H0x0136000f_WaypointMoveToDestination_09@CEnemyBase@@QAEHABVCEntityEvent@@@Z
       1085  43C 00058950 ?H0x01360010_WaypointMoveToDestination_10@CEnemyBase@@QAEHABVCEntityEvent@@@Z
       1086  43D 00058A40 ?H0x01360011_WaypointMoveToDestination_11@CEnemyBase@@QAEHABVCEntityEvent@@@Z
       1087  43E 00058AC0 ?H0x01360012_WaypointMoveToDestination_12@CEnemyBase@@QAEHABVCEntityEvent@@@Z
       1088  43F 00058B30 ?H0x01360013_WaypointMoveToDestination_13@CEnemyBase@@QAEHABVCEntityEvent@@@Z
       1089  440 00058BD0 ?H0x01360014_WaypointMoveToDestination_14@CEnemyBase@@QAEHABVCEntityEvent@@@Z
       1090  441 00058E40 ?H0x01360015_WaypointMoveToDestination_15@CEnemyBase@@QAEHABVCEntityEvent@@@Z
       1091  442 00058EC0 ?H0x01360016_WaypointMoveToDestination_16@CEnemyBase@@QAEHABVCEntityEvent@@@Z
       1092  443 00058F20 ?H0x01360017_WaypointMoveToDestination_17@CEnemyBase@@QAEHABVCEntityEvent@@@Z
       1093  444 00059070 ?H0x01360018_WaypointMoveToDestination_18@CEnemyBase@@QAEHABVCEntityEvent@@@Z
       1094  445 000590F0 ?H0x01360019_WaypointMoveToDestination_19@CEnemyBase@@QAEHABVCEntityEvent@@@Z
       1095  446 00059160 ?H0x0136001a_WaypointMoveToDestination_20@CEnemyBase@@QAEHABVCEntityEvent@@@Z
       1096  447 00059210 ?H0x0136001b_WaypointMoveToDestination_21@CEnemyBase@@QAEHABVCEntityEvent@@@Z
       1097  448 00058FE0 ?H0x0136001c_WaypointMoveToDestination_22@CEnemyBase@@QAEHABVCEntityEvent@@@Z
       1098  449 00059270 ?H0x0136001d_WaypointMoveToDestination_23@CEnemyBase@@QAEHABVCEntityEvent@@@Z
       1099  44A 000592D0 ?H0x0136001e_WaypointMoveToDestination_24@CEnemyBase@@QAEHABVCEntityEvent@@@Z
       1100  44B 00058D00 ?H0x0136001f_WaypointMoveToDestination_25@CEnemyBase@@QAEHABVCEntityEvent@@@Z
       1101  44C 00059330 ?H0x01360020_WaypointMoveToDestination_26@CEnemyBase@@QAEHABVCEntityEvent@@@Z
       1102  44D 00059390 ?H0x01360021_WaypointMoveToDestination_27@CEnemyBase@@QAEHABVCEntityEvent@@@Z
       1103  44E 000594A0 ?H0x01360022_WaypointMoveToDestination_28@CEnemyBase@@QAEHABVCEntityEvent@@@Z
       1104  44F 00059520 ?H0x01360023_WaypointMoveToDestination_29@CEnemyBase@@QAEHABVCEntityEvent@@@Z
       1105  450 00059620 ?H0x01360024_WaypointMoveToDestination_30@CEnemyBase@@QAEHABVCEntityEvent@@@Z
       1106  451 000596A0 ?H0x01360025_WaypointMoveToDestination_31@CEnemyBase@@QAEHABVCEntityEvent@@@Z
       1107  452 00059710 ?H0x01360026_WaypointMoveToDestination_32@CEnemyBase@@QAEHABVCEntityEvent@@@Z
       1108  453 000597C0 ?H0x01360027_WaypointMoveToDestination_33@CEnemyBase@@QAEHABVCEntityEvent@@@Z
       1109  454 00059590 ?H0x01360028_WaypointMoveToDestination_34@CEnemyBase@@QAEHABVCEntityEvent@@@Z
       1110  455 00059820 ?H0x01360029_WaypointMoveToDestination_35@CEnemyBase@@QAEHABVCEntityEvent@@@Z
       1111  456 00059880 ?H0x0136002a_WaypointMoveToDestination_36@CEnemyBase@@QAEHABVCEntityEvent@@@Z
       1112  457 000598E0 ?H0x0136002b_WaypointMoveToDestination_37@CEnemyBase@@QAEHABVCEntityEvent@@@Z
       1113  458 00059940 ?H0x0136002c_WaypointMoveToDestination_38@CEnemyBase@@QAEHABVCEntityEvent@@@Z
       1114  459 000599A0 ?H0x0136002d_WaypointMoveToDestination_39@CEnemyBase@@QAEHABVCEntityEvent@@@Z
       1115  45A 00059A00 ?H0x0136002e_WaypointMoveToDestination_40@CEnemyBase@@QAEHABVCEntityEvent@@@Z
       1116  45B 00059A60 ?H0x0136002f_WaypointMoveToDestination_41@CEnemyBase@@QAEHABVCEntityEvent@@@Z
       1117  45C 000589B0 ?H0x01360030_WaypointMoveToDestination_42@CEnemyBase@@QAEHABVCEntityEvent@@@Z
       1118  45D 00059AC0 ?H0x01360031_WaypointMoveToDestination_43@CEnemyBase@@QAEHABVCEntityEvent@@@Z
       1119  45E 00059B90 ?H0x01360033_WaypointMoveToEnemy_01@CEnemyBase@@QAEHABVCEntityEvent@@@Z
       1120  45F 00059C10 ?H0x01360034_WaypointMoveToEnemy_02@CEnemyBase@@QAEHABVCEntityEvent@@@Z
       1121  460 00059F40 ?H0x01360035_WaypointMoveToEnemy_03@CEnemyBase@@QAEHABVCEntityEvent@@@Z
       1122  461 00059FE0 ?H0x01360036_WaypointMoveToEnemy_04@CEnemyBase@@QAEHABVCEntityEvent@@@Z
       1123  462 00059DD0 ?H0x01360037_WaypointMoveToEnemy_05@CEnemyBase@@QAEHABVCEntityEvent@@@Z
       1124  463 0005A040 ?H0x01360038_WaypointMoveToEnemy_06@CEnemyBase@@QAEHABVCEntityEvent@@@Z
       1125  464 0005A0B0 ?H0x01360039_WaypointMoveToEnemy_07@CEnemyBase@@QAEHABVCEntityEvent@@@Z
       1126  465 0005A370 ?H0x0136003a_WaypointMoveToEnemy_08@CEnemyBase@@QAEHABVCEntityEvent@@@Z
       1127  466 0005A410 ?H0x0136003b_WaypointMoveToEnemy_09@CEnemyBase@@QAEHABVCEntityEvent@@@Z
       1128  467 0005A200 ?H0x0136003c_WaypointMoveToEnemy_10@CEnemyBase@@QAEHABVCEntityEvent@@@Z
       1129  468 0005A470 ?H0x0136003d_WaypointMoveToEnemy_11@CEnemyBase@@QAEHABVCEntityEvent@@@Z
       1130  469 0005A110 ?H0x0136003e_WaypointMoveToEnemy_12@CEnemyBase@@QAEHABVCEntityEvent@@@Z
       1131  46A 0005A4E0 ?H0x0136003f_WaypointMoveToEnemy_13@CEnemyBase@@QAEHABVCEntityEvent@@@Z
       1132  46B 0005A750 ?H0x01360040_WaypointMoveToEnemy_14@CEnemyBase@@QAEHABVCEntityEvent@@@Z
       1133  46C 0005A7F0 ?H0x01360041_WaypointMoveToEnemy_15@CEnemyBase@@QAEHABVCEntityEvent@@@Z
       1134  46D 0005A5D0 ?H0x01360042_WaypointMoveToEnemy_16@CEnemyBase@@QAEHABVCEntityEvent@@@Z
       1135  46E 0005A860 ?H0x01360043_WaypointMoveToEnemy_17@CEnemyBase@@QAEHABVCEntityEvent@@@Z
       1136  46F 0005AA80 ?H0x01360045_MoveToDestination_01@CEnemyBase@@QAEHABVCEntityEvent@@@Z
       1137  470 0005AB20 ?H0x01360046_MoveToDestination_02@CEnemyBase@@QAEHABVCEntityEvent@@@Z
       1138  471 0005A990 ?H0x01360047_MoveToDestination_03@CEnemyBase@@QAEHABVCEntityEvent@@@Z
       1139  472 0005AB80 ?H0x01360048_MoveToDestination_04@CEnemyBase@@QAEHABVCEntityEvent@@@Z
       1140  473 0005AE20 ?H0x0136004a_MoveThroughMarkers_01@CEnemyBase@@QAEHABVCEntityEvent@@@Z
       1141  474 0005AEC0 ?H0x0136004b_MoveThroughMarkers_02@CEnemyBase@@QAEHABVCEntityEvent@@@Z
       1142  475 0005B0B0 ?H0x0136004c_MoveThroughMarkers_03@CEnemyBase@@QAEHABVCEntityEvent@@@Z
       1143  476 0005B130 ?H0x0136004d_MoveThroughMarkers_04@CEnemyBase@@QAEHABVCEntityEvent@@@Z
       1144  477 0005B190 ?H0x0136004e_MoveThroughMarkers_05@CEnemyBase@@QAEHABVCEntityEvent@@@Z
       1145  478 0005B1F0 ?H0x0136004f_MoveThroughMarkers_06@CEnemyBase@@QAEHABVCEntityEvent@@@Z
       1146  479 0005B260 ?H0x01360050_MoveThroughMarkers_07@CEnemyBase@@QAEHABVCEntityEvent@@@Z
       1147  47A 0005B2E0 ?H0x01360051_MoveThroughMarkers_08@CEnemyBase@@QAEHABVCEntityEvent@@@Z
       1148  47B 0005AC60 ?H0x01360052_MoveThroughMarkers_09@CEnemyBase@@QAEHABVCEntityEvent@@@Z
       1149  47C 0005B380 ?H0x01360053_MoveThroughMarkers_10@CEnemyBase@@QAEHABVCEntityEvent@@@Z
       1150  47D 0005B490 ?H0x01360055_BeWounded_01@CEnemyBase@@QAEHABVCEntityEvent@@@Z
       1151  47E 0005B510 ?H0x01360056_BeWounded_02@CEnemyBase@@QAEHABVCEntityEvent@@@Z
       1152  47F 0005B7C0 ?H0x01360058_Die_01@CEnemyBase@@QAEHABVCEntityEvent@@@Z
       1153  480 0005B8A0 ?H0x01360059_Die_02@CEnemyBase@@QAEHABVCEntityEvent@@@Z
       1154  481 0005B9C0 ?H0x0136005b_Death_01@CEnemyBase@@QAEHABVCEntityEvent@@@Z
       1155  482 0005BA40 ?H0x0136005c_Death_02@CEnemyBase@@QAEHABVCEntityEvent@@@Z
       1156  483 0005BAB0 ?H0x0136005d_Death_03@CEnemyBase@@QAEHABVCEntityEvent@@@Z
       1157  484 0005BB30 ?H0x0136005e_Death_04@CEnemyBase@@QAEHABVCEntityEvent@@@Z
       1158  485 0005BBF0 ?H0x01360060_DeathSequence_01@CEnemyBase@@QAEHABVCEntityEvent@@@Z
       1159  486 0005BC90 ?H0x01360061_DeathSequence_02@CEnemyBase@@QAEHABVCEntityEvent@@@Z
       1160  487 0005BD10 ?H0x01360062_DeathSequence_03@CEnemyBase@@QAEHABVCEntityEvent@@@Z
       1161  488 0005BDD0 ?H0x01360063_DeathSequence_04@CEnemyBase@@QAEHABVCEntityEvent@@@Z
       1162  489 0005BE90 ?H0x01360064_DeathSequence_05@CEnemyBase@@QAEHABVCEntityEvent@@@Z
       1163  48A 0005C010 ?H0x01360065_DeathSequence_06@CEnemyBase@@QAEHABVCEntityEvent@@@Z
       1164  48B 0005D7D0 ?H0x01380002_RotateToEnemy_01@CEnemyRunInto@@QAEHABVCEntityEvent@@@Z
       1165  48C 0005D900 ?H0x01380003_RotateToEnemy_02@CEnemyRunInto@@QAEHABVCEntityEvent@@@Z
       1166  48D 0005D730 ?H0x01380004_RotateToEnemy_03@CEnemyRunInto@@QAEHABVCEntityEvent@@@Z
       1167  48E 0005D960 ?H0x01380005_RotateToEnemy_04@CEnemyRunInto@@QAEHABVCEntityEvent@@@Z
       1168  48F 0005DB00 ?H0x01380007_RunIntoEnemy_01@CEnemyRunInto@@QAEHABVCEntityEvent@@@Z
       1169  490 0005DE20 ?H0x01380008_RunIntoEnemy_02@CEnemyRunInto@@QAEHABVCEntityEvent@@@Z
       1170  491 0005DA60 ?H0x01380009_RunIntoEnemy_03@CEnemyRunInto@@QAEHABVCEntityEvent@@@Z
       1171  492 0005DE80 ?H0x0138000a_RunIntoEnemy_04@CEnemyRunInto@@QAEHABVCEntityEvent@@@Z
       1172  493 0005DF80 ?H0x0138000c_RunAwayFromEnemy_01@CEnemyRunInto@@QAEHABVCEntityEvent@@@Z
       1173  494 0005E1D0 ?H0x0138000d_RunAwayFromEnemy_02@CEnemyRunInto@@QAEHABVCEntityEvent@@@Z
       1174  495 0009FF90 ?H0x01910009_WorldChangeDead_01@CPlayer@@QAEHABVCEntityEvent@@@Z
       1175  496 000A0030 ?H0x0191000a_WorldChangeDead_02@CPlayer@@QAEHABVCEntityEvent@@@Z
       1176  497 000A09B0 ?H0x0191000c_Death_01@CPlayer@@QAEHABVCEntityEvent@@@Z
       1177  498 000A0AA0 ?H0x0191000d_Death_02@CPlayer@@QAEHABVCEntityEvent@@@Z
       1178  499 000A0DB0 ?H0x0191000f_TheEnd_01@CPlayer@@QAEHABVCEntityEvent@@@Z
       1179  49A 000A0DE0 ?H0x01910010_TheEnd_02@CPlayer@@QAEHABVCEntityEvent@@@Z
       1180  49B 000A1360 ?H0x01910014_AutoGoToMarker_01@CPlayer@@QAEHABVCEntityEvent@@@Z
       1181  49C 000A13E0 ?H0x01910015_AutoGoToMarker_02@CPlayer@@QAEHABVCEntityEvent@@@Z
       1182  49D 000A1280 ?H0x01910016_AutoGoToMarker_03@CPlayer@@QAEHABVCEntityEvent@@@Z
       1183  49E 000A1440 ?H0x01910017_AutoGoToMarker_04@CPlayer@@QAEHABVCEntityEvent@@@Z
       1184  49F 000A1650 ?H0x01910019_AutoGoToMarkerAndStop_01@CPlayer@@QAEHABVCEntityEvent@@@Z
       1185  4A0 000A16D0 ?H0x0191001a_AutoGoToMarkerAndStop_02@CPlayer@@QAEHABVCEntityEvent@@@Z
       1186  4A1 000A1560 ?H0x0191001b_AutoGoToMarkerAndStop_03@CPlayer@@QAEHABVCEntityEvent@@@Z
       1187  4A2 000A1730 ?H0x0191001c_AutoGoToMarkerAndStop_04@CPlayer@@QAEHABVCEntityEvent@@@Z
       1188  4A3 000A1850 ?H0x0191001e_AutoUseItem_01@CPlayer@@QAEHABVCEntityEvent@@@Z
       1189  4A4 000A18D0 ?H0x0191001f_AutoUseItem_02@CPlayer@@QAEHABVCEntityEvent@@@Z
       1190  4A5 000A1990 ?H0x01910020_AutoUseItem_03@CPlayer@@QAEHABVCEntityEvent@@@Z
       1191  4A6 000A1A10 ?H0x01910021_AutoUseItem_04@CPlayer@@QAEHABVCEntityEvent@@@Z
       1192  4A7 000A1B40 ?H0x01910022_AutoUseItem_05@CPlayer@@QAEHABVCEntityEvent@@@Z
       1193  4A8 000A1BC0 ?H0x01910023_AutoUseItem_06@CPlayer@@QAEHABVCEntityEvent@@@Z
       1194  4A9 000A1CC0 ?H0x01910025_AutoPickItem_01@CPlayer@@QAEHABVCEntityEvent@@@Z
       1195  4AA 000A1D40 ?H0x01910026_AutoPickItem_02@CPlayer@@QAEHABVCEntityEvent@@@Z
       1196  4AB 000A1EB0 ?H0x01910027_AutoPickItem_03@CPlayer@@QAEHABVCEntityEvent@@@Z
       1197  4AC 000A1F30 ?H0x01910028_AutoPickItem_04@CPlayer@@QAEHABVCEntityEvent@@@Z
       1198  4AD 000A2040 ?H0x0191002a_AutoFallDown_01@CPlayer@@QAEHABVCEntityEvent@@@Z
       1199  4AE 000A20C0 ?H0x0191002b_AutoFallDown_02@CPlayer@@QAEHABVCEntityEvent@@@Z
       1200  4AF 000A21C0 ?H0x0191002d_AutoFallToAbys_01@CPlayer@@QAEHABVCEntityEvent@@@Z
       1201  4B0 000A2240 ?H0x0191002e_AutoFallToAbys_02@CPlayer@@QAEHABVCEntityEvent@@@Z
       1202  4B1 000A2370 ?H0x01910030_AutoLookAround_01@CPlayer@@QAEHABVCEntityEvent@@@Z
       1203  4B2 000A23F0 ?H0x01910031_AutoLookAround_02@CPlayer@@QAEHABVCEntityEvent@@@Z
       1204  4B3 000A24C0 ?H0x01910032_AutoLookAround_03@CPlayer@@QAEHABVCEntityEvent@@@Z
       1205  4B4 000A2540 ?H0x01910033_AutoLookAround_04@CPlayer@@QAEHABVCEntityEvent@@@Z
       1206  4B5 000A2700 ?H0x01910036_AutoAppear_01@CPlayer@@QAEHABVCEntityEvent@@@Z
       1207  4B6 000A2780 ?H0x01910037_AutoAppear_02@CPlayer@@QAEHABVCEntityEvent@@@Z
       1208  4B7 000A2800 ?H0x01910038_AutoAppear_03@CPlayer@@QAEHABVCEntityEvent@@@Z
       1209  4B8 000A2880 ?H0x01910039_AutoAppear_04@CPlayer@@QAEHABVCEntityEvent@@@Z
       1210  4B9 000A2970 ?H0x0191003a_AutoAppear_05@CPlayer@@QAEHABVCEntityEvent@@@Z
       1211  4BA 000A29F0 ?H0x0191003b_AutoAppear_06@CPlayer@@QAEHABVCEntityEvent@@@Z
       1212  4BB 000A2A90 ?H0x0191003c_AutoAppear_07@CPlayer@@QAEHABVCEntityEvent@@@Z
       1213  4BC 000A2B10 ?H0x0191003d_AutoAppear_08@CPlayer@@QAEHABVCEntityEvent@@@Z
       1214  4BD 000A2C70 ?H0x0191003f_TravellingInBeam_01@CPlayer@@QAEHABVCEntityEvent@@@Z
       1215  4BE 000A2CF0 ?H0x01910040_TravellingInBeam_02@CPlayer@@QAEHABVCEntityEvent@@@Z
       1216  4BF 000A2DE0 ?H0x01910042_AutoStoreWeapon_01@CPlayer@@QAEHABVCEntityEvent@@@Z
       1217  4C0 000A2E60 ?H0x01910043_AutoStoreWeapon_02@CPlayer@@QAEHABVCEntityEvent@@@Z
       1218  4C1 000A2FA0 ?H0x01910044_AutoStoreWeapon_03@CPlayer@@QAEHABVCEntityEvent@@@Z
       1219  4C2 000A3020 ?H0x01910045_AutoStoreWeapon_04@CPlayer@@QAEHABVCEntityEvent@@@Z
       1220  4C3 000A3080 ?H0x01910046_AutoStoreWeapon_05@CPlayer@@QAEHABVCEntityEvent@@@Z
       1221  4C4 000A3280 ?H0x01910048_DoAutoActions_01@CPlayer@@QAEHABVCEntityEvent@@@Z
       1222  4C5 000A3300 ?H0x01910049_DoAutoActions_02@CPlayer@@QAEHABVCEntityEvent@@@Z
       1223  4C6 000A33F0 ?H0x0191004a_DoAutoActions_03@CPlayer@@QAEHABVCEntityEvent@@@Z
       1224  4C7 000A3490 ?H0x0191004b_DoAutoActions_04@CPlayer@@QAEHABVCEntityEvent@@@Z
       1225  4C8 000A3580 ?H0x0191004c_DoAutoActions_05@CPlayer@@QAEHABVCEntityEvent@@@Z
       1226  4C9 000A3620 ?H0x0191004d_DoAutoActions_06@CPlayer@@QAEHABVCEntityEvent@@@Z
       1227  4CA 000A3710 ?H0x0191004e_DoAutoActions_07@CPlayer@@QAEHABVCEntityEvent@@@Z
       1228  4CB 000A37B0 ?H0x0191004f_DoAutoActions_08@CPlayer@@QAEHABVCEntityEvent@@@Z
       1229  4CC 000A38A0 ?H0x01910050_DoAutoActions_09@CPlayer@@QAEHABVCEntityEvent@@@Z
       1230  4CD 000A38C0 ?H0x01910051_DoAutoActions_10@CPlayer@@QAEHABVCEntityEvent@@@Z
       1231  4CE 000A39B0 ?H0x01910052_DoAutoActions_11@CPlayer@@QAEHABVCEntityEvent@@@Z
       1232  4CF 000A3A50 ?H0x01910053_DoAutoActions_12@CPlayer@@QAEHABVCEntityEvent@@@Z
       1233  4D0 000A3CE0 ?H0x01910054_DoAutoActions_13@CPlayer@@QAEHABVCEntityEvent@@@Z
       1234  4D1 000A3D80 ?H0x01910055_DoAutoActions_14@CPlayer@@QAEHABVCEntityEvent@@@Z
       1235  4D2 000A3E70 ?H0x01910056_DoAutoActions_15@CPlayer@@QAEHABVCEntityEvent@@@Z
       1236  4D3 000A3F10 ?H0x01910057_DoAutoActions_16@CPlayer@@QAEHABVCEntityEvent@@@Z
       1237  4D4 000A4000 ?H0x01910058_DoAutoActions_17@CPlayer@@QAEHABVCEntityEvent@@@Z
       1238  4D5 000A40A0 ?H0x01910059_DoAutoActions_18@CPlayer@@QAEHABVCEntityEvent@@@Z
       1239  4D6 000A4190 ?H0x0191005a_DoAutoActions_19@CPlayer@@QAEHABVCEntityEvent@@@Z
       1240  4D7 000A4230 ?H0x0191005b_DoAutoActions_20@CPlayer@@QAEHABVCEntityEvent@@@Z
       1241  4D8 000A4820 ?H0x0191005c_DoAutoActions_21@CPlayer@@QAEHABVCEntityEvent@@@Z
       1242  4D9 000A48C0 ?H0x0191005d_DoAutoActions_22@CPlayer@@QAEHABVCEntityEvent@@@Z
       1243  4DA 000A49C0 ?H0x0191005e_DoAutoActions_23@CPlayer@@QAEHABVCEntityEvent@@@Z
       1244  4DB 000A4A60 ?H0x0191005f_DoAutoActions_24@CPlayer@@QAEHABVCEntityEvent@@@Z
       1245  4DC 000A4D30 ?H0x01910060_DoAutoActions_25@CPlayer@@QAEHABVCEntityEvent@@@Z
       1246  4DD 000A4DE0 ?H0x01910061_DoAutoActions_26@CPlayer@@QAEHABVCEntityEvent@@@Z
       1247  4DE 000A4CA0 ?H0x01910062_DoAutoActions_27@CPlayer@@QAEHABVCEntityEvent@@@Z
       1248  4DF 000A4E40 ?H0x01910063_DoAutoActions_28@CPlayer@@QAEHABVCEntityEvent@@@Z
       1249  4E0 000A4EB0 ?H0x01910064_DoAutoActions_29@CPlayer@@QAEHABVCEntityEvent@@@Z
       1250  4E1 000A5000 ?H0x01910065_DoAutoActions_30@CPlayer@@QAEHABVCEntityEvent@@@Z
       1251  4E2 000A4F10 ?H0x01910066_DoAutoActions_31@CPlayer@@QAEHABVCEntityEvent@@@Z
       1252  4E3 000A5060 ?H0x01910067_DoAutoActions_32@CPlayer@@QAEHABVCEntityEvent@@@Z
       1253  4E4 000A4BB0 ?H0x01910068_DoAutoActions_33@CPlayer@@QAEHABVCEntityEvent@@@Z
       1254  4E5 000A50C0 ?H0x01910069_DoAutoActions_34@CPlayer@@QAEHABVCEntityEvent@@@Z
       1255  4E6 000A4AC0 ?H0x0191006a_DoAutoActions_35@CPlayer@@QAEHABVCEntityEvent@@@Z
       1256  4E7 000A5120 ?H0x0191006b_DoAutoActions_36@CPlayer@@QAEHABVCEntityEvent@@@Z
       1257  4E8 000A4920 ?H0x0191006c_DoAutoActions_37@CPlayer@@QAEHABVCEntityEvent@@@Z
       1258  4E9 000A5180 ?H0x0191006d_DoAutoActions_38@CPlayer@@QAEHABVCEntityEvent@@@Z
       1259  4EA 000A4780 ?H0x0191006e_DoAutoActions_39@CPlayer@@QAEHABVCEntityEvent@@@Z
       1260  4EB 000A51E0 ?H0x0191006f_DoAutoActions_40@CPlayer@@QAEHABVCEntityEvent@@@Z
       1261  4EC 000A46C0 ?H0x01910070_DoAutoActions_41@CPlayer@@QAEHABVCEntityEvent@@@Z
       1262  4ED 000A5240 ?H0x01910071_DoAutoActions_42@CPlayer@@QAEHABVCEntityEvent@@@Z
       1263  4EE 000A4600 ?H0x01910072_DoAutoActions_43@CPlayer@@QAEHABVCEntityEvent@@@Z
       1264  4EF 000A52A0 ?H0x01910073_DoAutoActions_44@CPlayer@@QAEHABVCEntityEvent@@@Z
       1265  4F0 000A4540 ?H0x01910074_DoAutoActions_45@CPlayer@@QAEHABVCEntityEvent@@@Z
       1266  4F1 000A5300 ?H0x01910075_DoAutoActions_46@CPlayer@@QAEHABVCEntityEvent@@@Z
       1267  4F2 000A4480 ?H0x01910076_DoAutoActions_47@CPlayer@@QAEHABVCEntityEvent@@@Z
       1268  4F3 000A5360 ?H0x01910077_DoAutoActions_48@CPlayer@@QAEHABVCEntityEvent@@@Z
       1269  4F4 000A4290 ?H0x01910078_DoAutoActions_49@CPlayer@@QAEHABVCEntityEvent@@@Z
       1270  4F5 000A53C0 ?H0x01910079_DoAutoActions_50@CPlayer@@QAEHABVCEntityEvent@@@Z
       1271  4F6 000A4100 ?H0x0191007a_DoAutoActions_51@CPlayer@@QAEHABVCEntityEvent@@@Z
       1272  4F7 000A5420 ?H0x0191007b_DoAutoActions_52@CPlayer@@QAEHABVCEntityEvent@@@Z
       1273  4F8 000A3F70 ?H0x0191007c_DoAutoActions_53@CPlayer@@QAEHABVCEntityEvent@@@Z
       1274  4F9 000A5480 ?H0x0191007d_DoAutoActions_54@CPlayer@@QAEHABVCEntityEvent@@@Z
       1275  4FA 000A3DE0 ?H0x0191007e_DoAutoActions_55@CPlayer@@QAEHABVCEntityEvent@@@Z
       1276  4FB 000A54E0 ?H0x0191007f_DoAutoActions_56@CPlayer@@QAEHABVCEntityEvent@@@Z
       1277  4FC 000A3C50 ?H0x01910080_DoAutoActions_57@CPlayer@@QAEHABVCEntityEvent@@@Z
       1278  4FD 000A5540 ?H0x01910081_DoAutoActions_58@CPlayer@@QAEHABVCEntityEvent@@@Z
       1279  4FE 000A3AB0 ?H0x01910082_DoAutoActions_59@CPlayer@@QAEHABVCEntityEvent@@@Z
       1280  4FF 000A55A0 ?H0x01910083_DoAutoActions_60@CPlayer@@QAEHABVCEntityEvent@@@Z
       1281  500 000A3920 ?H0x01910084_DoAutoActions_61@CPlayer@@QAEHABVCEntityEvent@@@Z
       1282  501 000A5600 ?H0x01910085_DoAutoActions_62@CPlayer@@QAEHABVCEntityEvent@@@Z
       1283  502 000A3810 ?H0x01910086_DoAutoActions_63@CPlayer@@QAEHABVCEntityEvent@@@Z
       1284  503 000A5660 ?H0x01910087_DoAutoActions_64@CPlayer@@QAEHABVCEntityEvent@@@Z
       1285  504 000A3680 ?H0x01910088_DoAutoActions_65@CPlayer@@QAEHABVCEntityEvent@@@Z
       1286  505 000A56C0 ?H0x01910089_DoAutoActions_66@CPlayer@@QAEHABVCEntityEvent@@@Z
       1287  506 000A34F0 ?H0x0191008a_DoAutoActions_67@CPlayer@@QAEHABVCEntityEvent@@@Z
       1288  507 000A5720 ?H0x0191008b_DoAutoActions_68@CPlayer@@QAEHABVCEntityEvent@@@Z
       1289  508 000A3360 ?H0x0191008c_DoAutoActions_69@CPlayer@@QAEHABVCEntityEvent@@@Z
       1290  509 000A3190 ?H0x0191008d_DoAutoActions_70@CPlayer@@QAEHABVCEntityEvent@@@Z
       1291  50A 000A5800 ?H0x0191008e_DoAutoActions_71@CPlayer@@QAEHABVCEntityEvent@@@Z
       1292  50B 000A5BF0 ?H0x01910090_Main_01@CPlayer@@QAEHABVCEntityEvent@@@Z
       1293  50C 000A5CB0 ?H0x01910091_Main_02@CPlayer@@QAEHABVCEntityEvent@@@Z
       1294  50D 000A6240 ?H0x01910092_Main_03@CPlayer@@QAEHABVCEntityEvent@@@Z
       1295  50E 000A6F20 ?H0x01910093_Main_04@CPlayer@@QAEHABVCEntityEvent@@@Z
       1296  50F 000B4BB0 ?H0x0192000a_ChangeWeapon_01@CPlayerWeapons@@QAEHABVCEntityEvent@@@Z
       1297  510 000B4C50 ?H0x0192000b_ChangeWeapon_02@CPlayerWeapons@@QAEHABVCEntityEvent@@@Z
       1298  511 000B4CE0 ?H0x0192000c_ChangeWeapon_03@CPlayerWeapons@@QAEHABVCEntityEvent@@@Z
       1299  512 000B4D80 ?H0x0192000d_ChangeWeapon_04@CPlayerWeapons@@QAEHABVCEntityEvent@@@Z
       1300  513 000B4DF0 ?H0x0192000e_ChangeWeapon_05@CPlayerWeapons@@QAEHABVCEntityEvent@@@Z
       1301  514 000B4FE0 ?H0x01920010_PutDown_01@CPlayerWeapons@@QAEHABVCEntityEvent@@@Z
       1302  515 000B5060 ?H0x01920011_PutDown_02@CPlayerWeapons@@QAEHABVCEntityEvent@@@Z
       1303  516 000B5230 ?H0x01920013_BringUp_01@CPlayerWeapons@@QAEHABVCEntityEvent@@@Z
       1304  517 000B52B0 ?H0x01920014_BringUp_02@CPlayerWeapons@@QAEHABVCEntityEvent@@@Z
       1305  518 000B5460 ?H0x01920016_Fire_01@CPlayerWeapons@@QAEHABVCEntityEvent@@@Z
       1306  519 000B5500 ?H0x01920017_Fire_02@CPlayerWeapons@@QAEHABVCEntityEvent@@@Z
       1307  51A 000B5560 ?H0x01920018_Fire_03@CPlayerWeapons@@QAEHABVCEntityEvent@@@Z
       1308  51B 000B56F0 ?H0x01920019_Fire_04@CPlayerWeapons@@QAEHABVCEntityEvent@@@Z
       1309  51C 000B5770 ?H0x0192001a_Fire_05@CPlayerWeapons@@QAEHABVCEntityEvent@@@Z
       1310  51D 000B57D0 ?H0x0192001b_Fire_06@CPlayerWeapons@@QAEHABVCEntityEvent@@@Z
       1311  51E 000B5840 ?H0x0192001c_Fire_07@CPlayerWeapons@@QAEHABVCEntityEvent@@@Z
       1312  51F 000B5A70 ?H0x0192001d_Fire_08@CPlayerWeapons@@QAEHABVCEntityEvent@@@Z
       1313  520 000B55F0 ?H0x0192001e_Fire_09@CPlayerWeapons@@QAEHABVCEntityEvent@@@Z
       1314  521 000B5AD0 ?H0x0192001f_Fire_10@CPlayerWeapons@@QAEHABVCEntityEvent@@@Z
       1315  522 000B5EA0 ?H0x01920021_SwingKnife_01@CPlayerWeapons@@QAEHABVCEntityEvent@@@Z
       1316  523 000B5F20 ?H0x01920022_SwingKnife_02@CPlayerWeapons@@QAEHABVCEntityEvent@@@Z
       1317  524 000B5FE0 ?H0x01920023_SwingKnife_03@CPlayerWeapons@@QAEHABVCEntityEvent@@@Z
       1318  525 000B6060 ?H0x01920024_SwingKnife_04@CPlayerWeapons@@QAEHABVCEntityEvent@@@Z
       1319  526 000B60C0 ?H0x01920025_SwingKnife_05@CPlayerWeapons@@QAEHABVCEntityEvent@@@Z
       1320  527 000B6280 ?H0x01920027_FirePistol_01@CPlayerWeapons@@QAEHABVCEntityEvent@@@Z
       1321  528 000B6300 ?H0x01920028_FirePistol_02@CPlayerWeapons@@QAEHABVCEntityEvent@@@Z
       1322  529 000B6990 ?H0x0192002b_FireShotgun_01@CPlayerWeapons@@QAEHABVCEntityEvent@@@Z
       1323  52A 000B6A10 ?H0x0192002c_FireShotgun_02@CPlayerWeapons@@QAEHABVCEntityEvent@@@Z
       1324  52B 000B6AF0 ?H0x0192002d_FireShotgun_03@CPlayerWeapons@@QAEHABVCEntityEvent@@@Z
       1325  52C 000B6A80 ?H0x0192002e_FireShotgun_04@CPlayerWeapons@@QAEHABVCEntityEvent@@@Z
       1326  52D 000B6F20 ?H0x01920030_FireAssaultRifle_01@CPlayerWeapons@@QAEHABVCEntityEvent@@@Z
       1327  52E 000B6FA0 ?H0x01920031_FireAssaultRifle_02@CPlayerWeapons@@QAEHABVCEntityEvent@@@Z
       1328  52F 000B7080 ?H0x01920032_FireAssaultRifle_03@CPlayerWeapons@@QAEHABVCEntityEvent@@@Z
       1329  530 000B7010 ?H0x01920033_FireAssaultRifle_04@CPlayerWeapons@@QAEHABVCEntityEvent@@@Z
       1330  531 000B74B0 ?H0x01920035_FireSniperRifle_01@CPlayerWeapons@@QAEHABVCEntityEvent@@@Z
       1331  532 000B7530 ?H0x01920036_FireSniperRifle_02@CPlayerWeapons@@QAEHABVCEntityEvent@@@Z
       1332  533 000B7610 ?H0x01920037_FireSniperRifle_03@CPlayerWeapons@@QAEHABVCEntityEvent@@@Z
       1333  534 000B75A0 ?H0x01920038_FireSniperRifle_04@CPlayerWeapons@@QAEHABVCEntityEvent@@@Z
       1334  535 000B7CB0 ?H0x0192003c_FireCrossBow_01@CPlayerWeapons@@QAEHABVCEntityEvent@@@Z
       1335  536 000B7D30 ?H0x0192003d_FireCrossBow_02@CPlayerWeapons@@QAEHABVCEntityEvent@@@Z
       1336  537 000B7E10 ?H0x0192003e_FireCrossBow_03@CPlayerWeapons@@QAEHABVCEntityEvent@@@Z
       1337  538 000B7DA0 ?H0x0192003f_FireCrossBow_04@CPlayerWeapons@@QAEHABVCEntityEvent@@@Z
       1338  539 000B7FD0 ?H0x01920041_FireGrenadeLauncher_01@CPlayerWeapons@@QAEHABVCEntityEvent@@@Z
       1339  53A 000B8050 ?H0x01920042_FireGrenadeLauncher_02@CPlayerWeapons@@QAEHABVCEntityEvent@@@Z
       1340  53B 000B7F20 ?H0x01920043_FireGrenadeLauncher_03@CPlayerWeapons@@QAEHABVCEntityEvent@@@Z
       1341  53C 000B8100 ?H0x01920044_FireGrenadeLauncher_04@CPlayerWeapons@@QAEHABVCEntityEvent@@@Z
       1342  53D 000B8310 ?H0x01920045_FireGrenadeLauncher_05@CPlayerWeapons@@QAEHABVCEntityEvent@@@Z
       1343  53E 000B8390 ?H0x01920046_FireGrenadeLauncher_06@CPlayerWeapons@@QAEHABVCEntityEvent@@@Z
       1344  53F 000B8270 ?H0x01920047_FireGrenadeLauncher_07@CPlayerWeapons@@QAEHABVCEntityEvent@@@Z
       1345  540 000B8440 ?H0x01920048_FireGrenadeLauncher_08@CPlayerWeapons@@QAEHABVCEntityEvent@@@Z
       1346  541 000B8540 ?H0x01920049_FireGrenadeLauncher_09@CPlayerWeapons@@QAEHABVCEntityEvent@@@Z
       1347  542 000B85C0 ?H0x0192004a_FireGrenadeLauncher_10@CPlayerWeapons@@QAEHABVCEntityEvent@@@Z
       1348  543 000B8620 ?H0x0192004b_FireGrenadeLauncher_11@CPlayerWeapons@@QAEHABVCEntityEvent@@@Z
       1349  544 000B8680 ?H0x0192004c_FireGrenadeLauncher_12@CPlayerWeapons@@QAEHABVCEntityEvent@@@Z
       1350  545 000B84D0 ?H0x0192004d_FireGrenadeLauncher_13@CPlayerWeapons@@QAEHABVCEntityEvent@@@Z
       1351  546 000B8750 ?H0x0192004e_FireGrenadeLauncher_14@CPlayerWeapons@@QAEHABVCEntityEvent@@@Z
       1352  547 000B86E0 ?H0x0192004f_FireGrenadeLauncher_15@CPlayerWeapons@@QAEHABVCEntityEvent@@@Z
       1353  548 000B8840 ?H0x01920051_Reload_01@CPlayerWeapons@@QAEHABVCEntityEvent@@@Z
       1354  549 000B88E0 ?H0x01920052_Reload_02@CPlayerWeapons@@QAEHABVCEntityEvent@@@Z
       1355  54A 000B8940 ?H0x01920053_Reload_03@CPlayerWeapons@@QAEHABVCEntityEvent@@@Z
       1356  54B 000B8A60 ?H0x01920055_BoringWeaponAnimation_01@CPlayerWeapons@@QAEHABVCEntityEvent@@@Z
       1357  54C 000B8AE0 ?H0x01920056_BoringWeaponAnimation_02@CPlayerWeapons@@QAEHABVCEntityEvent@@@Z
       1358  54D 000B8B40 ?H0x01920057_BoringWeaponAnimation_03@CPlayerWeapons@@QAEHABVCEntityEvent@@@Z
       1359  54E 000B8C10 ?H0x01920059_Idle_01@CPlayerWeapons@@QAEHABVCEntityEvent@@@Z
       1360  54F 000B8DF0 ?H0x0192005a_Idle_02@CPlayerWeapons@@QAEHABVCEntityEvent@@@Z
       1361  550 000B8EC0 ?H0x0192005c_Stopped_01@CPlayerWeapons@@QAEHABVCEntityEvent@@@Z
       1362  551 000B8F40 ?H0x0192005d_Stopped_02@CPlayerWeapons@@QAEHABVCEntityEvent@@@Z
       1363  552 000B9060 ?H0x0192005e_Main_01@CPlayerWeapons@@QAEHABVCEntityEvent@@@Z
       1364  553 000B9280 ?H0x0192005f_Main_02@CPlayerWeapons@@QAEHABVCEntityEvent@@@Z
       1365  554 000AD250 ?H0x01930001_Main_01@CPlayerView@@QAEHABVCEntityEvent@@@Z
       1366  555 000AD340 ?H0x01930002_Main_02@CPlayerView@@QAEHABVCEntityEvent@@@Z
       1367  556 000AAE20 ?H0x01960002_Main_01@CPlayerAnimator@@QAEHABVCEntityEvent@@@Z
       1368  557 000AAED0 ?H0x01960003_Main_02@CPlayerAnimator@@QAEHABVCEntityEvent@@@Z
       1369  558 00046BD0 ?H0x01980001_Main_01@CDinoAnimator@@QAEHABVCEntityEvent@@@Z
       1370  559 00046C80 ?H0x01980002_Main_02@CDinoAnimator@@QAEHABVCEntityEvent@@@Z
       1371  55A 000BBA30 ?H0x01f50002_ProjectileFly_01@CProjectile@@QAEHABVCEntityEvent@@@Z
       1372  55B 000BBC70 ?H0x01f50003_ProjectileFly_02@CProjectile@@QAEHABVCEntityEvent@@@Z
       1373  55C 000BC0E0 ?H0x01f50005_ProjectileGuidedFly_01@CProjectile@@QAEHABVCEntityEvent@@@Z
       1374  55D 000BC2B0 ?H0x01f50006_ProjectileGuidedFly_02@CProjectile@@QAEHABVCEntityEvent@@@Z
       1375  55E 000BBD80 ?H0x01f50007_ProjectileGuidedFly_03@CProjectile@@QAEHABVCEntityEvent@@@Z
       1376  55F 000BC310 ?H0x01f50008_ProjectileGuidedFly_04@CProjectile@@QAEHABVCEntityEvent@@@Z
       1377  560 000BC430 ?H0x01f5000a_ProjectileSlide_01@CProjectile@@QAEHABVCEntityEvent@@@Z
       1378  561 000BC720 ?H0x01f5000b_ProjectileSlide_02@CProjectile@@QAEHABVCEntityEvent@@@Z
       1379  562 000BC8D0 ?H0x01f5000c_Main_01@CProjectile@@QAEHABVCEntityEvent@@@Z
       1380  563 000BC970 ?H0x01f5000d_Main_02@CProjectile@@QAEHABVCEntityEvent@@@Z
       1381  564 000BCA60 ?H0x01f5000e_Main_03@CProjectile@@QAEHABVCEntityEvent@@@Z
       1382  565 000BCB00 ?H0x01f5000f_Main_04@CProjectile@@QAEHABVCEntityEvent@@@Z
       1383  566 000BCB60 ?H0x01f50010_Main_05@CProjectile@@QAEHABVCEntityEvent@@@Z
       1384  567 000BCBC0 ?H0x01f50011_Main_06@CProjectile@@QAEHABVCEntityEvent@@@Z
       1385  568 000BC9D0 ?H0x01f50012_Main_07@CProjectile@@QAEHABVCEntityEvent@@@Z
       1386  569 000BCCA0 ?H0x01f50013_Main_08@CProjectile@@QAEHABVCEntityEvent@@@Z
       1387  56A 000BCD20 ?H0x01f50014_Main_09@CProjectile@@QAEHABVCEntityEvent@@@Z
       1388  56B 000BCD80 ?H0x01f50015_Main_10@CProjectile@@QAEHABVCEntityEvent@@@Z
       1389  56C 000CC560 ?H0x02bc0005_Active_01@CWatcher@@QAEHABVCEntityEvent@@@Z
       1390  56D 000CC650 ?H0x02bc0006_Active_02@CWatcher@@QAEHABVCEntityEvent@@@Z
       1391  56E 000CC490 ?H0x02bc0007_Active_03@CWatcher@@QAEHABVCEntityEvent@@@Z
       1392  56F 000CC6B0 ?H0x02bc0008_Active_04@CWatcher@@QAEHABVCEntityEvent@@@Z
       1393  570 000CC730 ?H0x02bc000a_Inactive_01@CWatcher@@QAEHABVCEntityEvent@@@Z
       1394  571 000CC7B0 ?H0x02bc000b_Inactive_02@CWatcher@@QAEHABVCEntityEvent@@@Z
       1395  572 000CC830 ?H0x02bc000d_Dummy_01@CWatcher@@QAEHABVCEntityEvent@@@Z
       1396  573 000CC840 ?H0x02bc000e_Dummy_02@CWatcher@@QAEHABVCEntityEvent@@@Z
       1397  574 000CC930 ?H0x02bc000f_Main_01@CWatcher@@QAEHABVCEntityEvent@@@Z
       1398  575 000CC9D0 ?H0x02bc0010_Main_02@CWatcher@@QAEHABVCEntityEvent@@@Z
       1399  576 000BD2C0 ?H0x02bf0001_Main_01@CReminder@@QAEHABVCEntityEvent@@@Z
       1400  577 000BD340 ?H0x02bf0002_Main_02@CReminder@@QAEHABVCEntityEvent@@@Z
       1401  578 000BD3D0 ?H0x02bf0003_Main_03@CReminder@@QAEHABVCEntityEvent@@@Z
       1402  579 0006B1E0 ?H0x03200002_ItemLoop_01@CItem@@QAEHABVCEntityEvent@@@Z
       1403  57A 0006B260 ?H0x03200003_ItemLoop_02@CItem@@QAEHABVCEntityEvent@@@Z
       1404  57B 0006B2E0 ?H0x03200004_ItemLoop_03@CItem@@QAEHABVCEntityEvent@@@Z
       1405  57C 0006B400 ?H0x03200005_ItemLoop_04@CItem@@QAEHABVCEntityEvent@@@Z
       1406  57D 0006B470 ?H0x03200006_ItemLoop_05@CItem@@QAEHABVCEntityEvent@@@Z
       1407  57E 0006B4F0 ?H0x03200007_ItemLoop_06@CItem@@QAEHABVCEntityEvent@@@Z
       1408  57F 0006B600 ?H0x03200009_ItemReceived_01@CItem@@QAEHABVCEntityEvent@@@Z
       1409  580 0006B670 ?H0x0320000a_ItemReceived_02@CItem@@QAEHABVCEntityEvent@@@Z
       1410  581 0006B820 ?H0x0320000b_ItemReceived_03@CItem@@QAEHABVCEntityEvent@@@Z
       1411  582 0006B7C0 ?H0x0320000c_ItemReceived_04@CItem@@QAEHABVCEntityEvent@@@Z
       1412  583 000B4250 ?HandleAmmoPickup@CPlayerWeapons@@QAEXM@Z
       1413  584 00057CD0 ?HandleEvent@CEnemyBase@@UAEHABVCEntityEvent@@@Z
       1414  585 000B4650 ?HasAmmo@CPlayerWeapons@@QAEHW4WeaponType@@@Z
       1415  586 00093F40 ?HasMessage@CPlayer@@QAEHABVCTFileName@@@Z
       1416  587 0009A050 ?HasObjective@CPlayer@@QBEHXZ
       1417  588 00057E40 ?HasReachedDestination@CEnemyBase@@QAE_NXZ
       1418  589 00057F40 ?HasReachedOrientation@CEnemyBase@@QAE_NXZ
       1419  58A 000469E0 ?HideFlare@CDinoAnimator@@QAEXJJJ@Z
       1420  58B 000AAB90 ?HideFlare@CPlayerAnimator@@QAEXJJJ@Z
       1421  58C 000B1A90 ?HideFlare@CPlayerWeapons@@QAEXAAVCModelObject@@JJ@Z
       1422  58D 0005D5F0 ?HigherMass@CEnemyRunInto@@UAEHXZ
       1423  58E 000AFFF0 ?HoldingFire@CPlayerWeapons@@QAEHXZ
       1424  58F 000B8BA0 ?Idle@CPlayerWeapons@@QAEHABVCEntityEvent@@@Z
       1425  590 00053ED0 ?IfTargetCrushed@CEnemyBase@@QAEHPAVCEntity@@ABV?$Vector@M$02@@@Z
       1426  591 00053520 ?InImmediateDanger@CEnemyBase@@QAE_NXZ
       1427  592 00058060 ?InPathMarker@CEnemyBase@@QAE_NXZ
       1428  593 000CC6C0 ?Inactive@CWatcher@@QAEHABVCEntityEvent@@@Z
       1429  594 0005D570 ?IncreaseKickedMass@CEnemyRunInto@@QAEXPAVCEntity@@@Z
       1430  595 0008FE80 ?InitGoals@CPlayer@@UAEXXZ
       1431  596 0001F3D0 ?InitParticles@@YAXXZ
       1432  597 0008FE90 ?InitWatchers@CPlayer@@QAEXXZ
       1433  598 00045180 ?Initialize@CDinoAnimator@@QAEXXZ
       1434  599 0006AF10 ?Initialize@CItem@@QAEXXZ
       1435  59A 000A8EF0 ?Initialize@CPlayerAnimator@@QAEXXZ
       1436  59B 0009DBD0 ?InitializePlayer@CPlayer@@QAEXH@Z
       1437  59C 000B3990 ?InitializeWeapons@CPlayerWeapons@@QAEXJJJM@Z
       1438  59D 0000D450 ?IsActive@MissionGoal@@QAE_NXZ
       1439  59E 0000D400 ?IsCompleted@MissionGoal@@QAE_NXZ
       1440  59F 00096050 ?IsConnected@CPlayer@@QBEHXZ
       1441  5A0 0000D420 ?IsExpired@MissionGoal@@QAE_NXZ
       1442  5A1 0000D410 ?IsFailed@MissionGoal@@QAE_NXZ
       1443  5A2 00094960 ?IsFuss@CPlayer@@QAEHXZ
       1444  5A3 000542E0 ?IsInFrustum@CEnemyBase@@QAEHPAVCEntity@@M@Z
       1445  5A4 000543B0 ?IsInPlaneFrustum@CEnemyBase@@QAEHPAVCEntity@@M@Z
       1446  5A5 00080480 ?IsMarker@CNavigationMarker@@UBEHXZ
       1447  5A6 00090530 ?IsMissionComplete@CPlayer@@QAE_NJ@Z
       1448  5A7 0000D430 ?IsPaused@MissionGoal@@QAE_NXZ
       1449  5A8 0000D440 ?IsRunning@MissionGoal@@QAE_NXZ
       1450  5A9 0000B9F0 ?IsTargetable@CEnemyBase@@UBEHXZ
       1451  5AA 00069180 ?IsTargetable@CItem@@UBEHXZ
       1452  5AB 000092F0 ?IsTargetable@CNavigationMarker@@UBEHXZ
       1453  5AC 00055A60 ?IsValidForEnemy@CEnemyBase@@QAEHPAVCEntity@@@Z
       1454  5AD 00054530 ?IsVisible@CEnemyBase@@QAEHPAVCEntity@@H@Z
       1455  5AE 0009FBA0 ?IsVisible@CPlayer@@QAEHPAVCEntity@@@Z
       1456  5AF 00054600 ?IsVisibleCheckAll@CEnemyBase@@QAEHPAVCEntity@@@Z
       1457  5B0 0006B110 ?ItemCollected@CItem@@QAEHABVCEntityEvent@@@Z
       1458  5B1 0006B170 ?ItemLoop@CItem@@QAEHABVCEntityEvent@@@Z
       1459  5B2 00094390 ?ItemPicked@CPlayer@@QAEXABVCTString@@M@Z
       1460  5B3 0006B550 ?ItemReceived@CItem@@QAEHABVCEntityEvent@@@Z
       1461  5B4 000028F0 ?KickEntity@@YAXPAVCEntity@@V?$Vector@M$02@@@Z
       1462  5B5 0003AC60 ?LaunchBullet@CBullet@@QAEXHHH@Z
       1463  5B6 000578D0 ?LeaveStain@CEnemyBase@@UAEXH@Z
       1464  5B7 00096320 ?LeaveStain@CPlayer@@UAEXH@Z
       1465  5B8 00131FC8 ?LensFlareType_enum@@3VCEntityPropertyEnumType@@A
       1466  5B9 00131F60 ?LensFlareType_values@@3PAVCEntityPropertyEnumValue@@A
       1467  5BA 00007970 ?LerpPlacementsPrecise@@YA?AVCPlacement3D@@ABV1@0M@Z
       1468  5BB 0000D480 ?Level@MissionGoal@@QAEAAJXZ
       1469  5BC 00131F58 ?LightType_enum@@3VCEntityPropertyEnumType@@A
       1470  5BD 00131F30 ?LightType_values@@3PAVCEntityPropertyEnumValue@@A
       1471  5BE 00094FE0 ?ListenFromEntity@CPlayer@@QAEXPAVCEntity@@ABVCPlacement3D@@@Z
       1472  5BF 0005D5A0 ?LiveEntityTouched@CEnemyRunInto@@UAEXVETouch@@@Z
       1473  5C0 0003B910 ?Main@CBullet@@QAEHABVCEntityEvent@@@Z
       1474  5C1 00046AF0 ?Main@CDinoAnimator@@QAEHABVCEntityEvent@@@Z
       1475  5C2 0005C070 ?Main@CEnemyBase@@QAEHABVCEntityEvent@@@Z
       1476  5C3 0005E2B0 ?Main@CEnemyRunInto@@QAEHABVCEntityEvent@@@Z
       1477  5C4 00080630 ?Main@CNavigationMarker@@QAEHABVCEntityEvent@@@Z
       1478  5C5 000A58F0 ?Main@CPlayer@@QAEHABVCEntityEvent@@@Z
       1479  5C6 000AAD40 ?Main@CPlayerAnimator@@QAEHABVCEntityEvent@@@Z
       1480  5C7 000AD100 ?Main@CPlayerView@@QAEHABVCEntityEvent@@@Z
       1481  5C8 000B8F50 ?Main@CPlayerWeapons@@QAEHABVCEntityEvent@@@Z
       1482  5C9 000BC780 ?Main@CProjectile@@QAEHABVCEntityEvent@@@Z
       1483  5CA 000BD1C0 ?Main@CReminder@@QAEHABVCEntityEvent@@@Z
       1484  5CB 000CC850 ?Main@CWatcher@@QAEHABVCEntityEvent@@@Z
       1485  5CC 0005E250 ?MainLoop@CEnemyRunInto@@QAEHABVCEntityEvent@@@Z
       1486  5CD 0002EBC0 ?MakeCopy@EAAAttack@@UAEPAVCEntityEvent@@XZ
       1487  5CE 0002E9F0 ?MakeCopy@EAAEat@@UAEPAVCEntityEvent@@XZ
       1488  5CF 0002EB20 ?MakeCopy@EAAFlee@@UAEPAVCEntityEvent@@XZ
       1489  5D0 0002EAE0 ?MakeCopy@EAASleep@@UAEPAVCEntityEvent@@XZ
       1490  5D1 0002EA30 ?MakeCopy@EAATagAlong@@UAEPAVCEntityEvent@@XZ
       1491  5D2 0002E9B0 ?MakeCopy@EAAWander@@UAEPAVCEntityEvent@@XZ
       1492  5D3 000BDEA0 ?MakeCopy@EABCombat@@UAEPAVCEntityEvent@@XZ
       1493  5D4 000BDF20 ?MakeCopy@EABFlee@@UAEPAVCEntityEvent@@XZ
       1494  5D5 000BDF60 ?MakeCopy@EABGoHome@@UAEPAVCEntityEvent@@XZ
       1495  5D6 000BDEE0 ?MakeCopy@EABScript@@UAEPAVCEntityEvent@@XZ
       1496  5D7 000BDFA0 ?MakeCopy@EASleep@@UAEPAVCEntityEvent@@XZ
       1497  5D8 00066300 ?MakeCopy@EActivate@@UAEPAVCEntityEvent@@XZ
       1498  5D9 00072CB0 ?MakeCopy@EActivateMission@@UAEPAVCEntityEvent@@XZ
       1499  5DA 000AE700 ?MakeCopy@EAltFireWeapon@@UAEPAVCEntityEvent@@XZ
       1500  5DB 000AE740 ?MakeCopy@EAltReleaseWeapon@@UAEPAVCEntityEvent@@XZ
       1501  5DC 000A8700 ?MakeCopy@EAnimatorInit@@UAEPAVCEntityEvent@@XZ
       1502  5DD 0008C060 ?MakeCopy@EAutoAction@@UAEPAVCEntityEvent@@XZ
       1503  5DE 000AE6C0 ?MakeCopy@EBoringWeapon@@UAEPAVCEntityEvent@@XZ
       1504  5DF 00079DE0 ?MakeCopy@EBrushDestroyed@@UAEPAVCEntityEvent@@XZ
       1505  5E0 0003A660 ?MakeCopy@EBulletInit@@UAEPAVCEntityEvent@@XZ
       1506  5E1 0008BE80 ?MakeCopy@ECameraStart@@UAEPAVCEntityEvent@@XZ
       1507  5E2 0008BF30 ?MakeCopy@ECameraStop@@UAEPAVCEntityEvent@@XZ
       1508  5E3 000668D0 ?MakeCopy@ECenterMessage@@UAEPAVCEntityEvent@@XZ
       1509  5E4 00033060 ?MakeCopy@EChangeAnim@@UAEPAVCEntityEvent@@XZ
       1510  5E5 00068480 ?MakeCopy@EChangeGravity@@UAEPAVCEntityEvent@@XZ
       1511  5E6 0007E8F0 ?MakeCopy@EChangeMusic@@UAEPAVCEntityEvent@@XZ
       1512  5E7 000669E0 ?MakeCopy@EComputerMessage@@UAEPAVCEntityEvent@@XZ
       1513  5E8 000480D0 ?MakeCopy@EDBCombat@@UAEPAVCEntityEvent@@XZ
       1514  5E9 00048150 ?MakeCopy@EDBFlee@@UAEPAVCEntityEvent@@XZ
       1515  5EA 00048190 ?MakeCopy@EDBGoHome@@UAEPAVCEntityEvent@@XZ
       1516  5EB 00048110 ?MakeCopy@EDBScript@@UAEPAVCEntityEvent@@XZ
       1517  5EC 000481D0 ?MakeCopy@EDBSleep@@UAEPAVCEntityEvent@@XZ
       1518  5ED 00066340 ?MakeCopy@EDeactivate@@UAEPAVCEntityEvent@@XZ
       1519  5EE 00072EC0 ?MakeCopy@EDestroyMission@@UAEPAVCEntityEvent@@XZ
       1520  5EF 0008C020 ?MakeCopy@EDisconnected@@UAEPAVCEntityEvent@@XZ
       1521  5F0 00066400 ?MakeCopy@EEnd@@UAEPAVCEntityEvent@@XZ
       1522  5F1 00072E10 ?MakeCopy@EEndMissionLose@@UAEPAVCEntityEvent@@XZ
       1523  5F2 00072D60 ?MakeCopy@EEndMissionWin@@UAEPAVCEntityEvent@@XZ
       1524  5F3 00052E60 ?MakeCopy@EEnemyThresholdCrossed@@UAEPAVCEntityEvent@@XZ
       1525  5F4 00066380 ?MakeCopy@EEnvironmentStart@@UAEPAVCEntityEvent@@XZ
       1526  5F5 000663C0 ?MakeCopy@EEnvironmentStop@@UAEPAVCEntityEvent@@XZ
       1527  5F6 000AE780 ?MakeCopy@EFireWeapon@@UAEPAVCEntityEvent@@XZ
       1528  5F7 00052E20 ?MakeCopy@EForceWound@@UAEPAVCEntityEvent@@XZ
       1529  5F8 00052EA0 ?MakeCopy@EHasBeenEaten@@UAEPAVCEntityEvent@@XZ
       1530  5F9 00069B70 ?MakeCopy@EHealthItem@@UAEPAVCEntityEvent@@XZ
       1531  5FA 0008BD90 ?MakeCopy@EHint@@UAEPAVCEntityEvent@@XZ
       1532  5FB 00079DA0 ?MakeCopy@EHit@@UAEPAVCEntityEvent@@XZ
       1533  5FC 00066C00 ?MakeCopy@EHitBySpaceShipBeam@@UAEPAVCEntityEvent@@XZ
       1534  5FD 000666F0 ?MakeCopy@EKilledEnemy@@UAEPAVCEntityEvent@@XZ
       1535  5FE 000BA720 ?MakeCopy@ELaunchProjectile@@UAEPAVCEntityEvent@@XZ
       1536  5FF 000AE570 ?MakeCopy@ELowerWeapon@@UAEPAVCEntityEvent@@XZ
       1537  600 0006F320 ?MakeCopy@EMessageItem@@UAEPAVCEntityEvent@@XZ
       1538  601 00081120 ?MakeCopy@ENPCFlee@@UAEPAVCEntityEvent@@XZ
       1539  602 000811C0 ?MakeCopy@ENPCFollow@@UAEPAVCEntityEvent@@XZ
       1540  603 00081270 ?MakeCopy@ENPCScriptStart@@UAEPAVCEntityEvent@@XZ
       1541  604 00072F70 ?MakeCopy@EPauseMission@@UAEPAVCEntityEvent@@XZ
       1542  605 000CC260 ?MakeCopy@EPulse@@UAEPAVCEntityEvent@@XZ
       1543  606 00074340 ?MakeCopy@ERangeModelDestruction@@UAEPAVCEntityEvent@@XZ
       1544  607 0008BFE0 ?MakeCopy@ERebirth@@UAEPAVCEntityEvent@@XZ
       1545  608 00066690 ?MakeCopy@EReceiveScore@@UAEPAVCEntityEvent@@XZ
       1546  609 00052DE0 ?MakeCopy@EReconsiderBehavior@@UAEPAVCEntityEvent@@XZ
       1547  60A 000AE7C0 ?MakeCopy@EReleaseWeapon@@UAEPAVCEntityEvent@@XZ
       1548  60B 000AE800 ?MakeCopy@EReloadWeapon@@UAEPAVCEntityEvent@@XZ
       1549  60C 00066530 ?MakeCopy@EReminder@@UAEPAVCEntityEvent@@XZ
       1550  60D 000BD0B0 ?MakeCopy@EReminderInit@@UAEPAVCEntityEvent@@XZ
       1551  60E 00073180 ?MakeCopy@EResetMission@@UAEPAVCEntityEvent@@XZ
       1552  60F 00052DA0 ?MakeCopy@ERestartAttack@@UAEPAVCEntityEvent@@XZ
       1553  610 00073020 ?MakeCopy@EResumeMission@@UAEPAVCEntityEvent@@XZ
       1554  611 00066770 ?MakeCopy@ERetargetMovingBrush@@UAEPAVCEntityEvent@@XZ
       1555  612 00066730 ?MakeCopy@ESecretFound@@UAEPAVCEntityEvent@@XZ
       1556  613 000AE660 ?MakeCopy@ESelectWeapon@@UAEPAVCEntityEvent@@XZ
       1557  614 000CECC0 ?MakeCopy@ESetAmmo@@UAEPAVCEntityEvent@@XZ
       1558  615 00066820 ?MakeCopy@ESound@@UAEPAVCEntityEvent@@XZ
       1559  616 00041D00 ?MakeCopy@ESpawnDebris@@UAEPAVCEntityEvent@@XZ
       1560  617 00035DC0 ?MakeCopy@ESpawnEffect@@UAEPAVCEntityEvent@@XZ
       1561  618 00050040 ?MakeCopy@ESpawnEffector@@UAEPAVCEntityEvent@@XZ
       1562  619 00039A50 ?MakeCopy@ESpawnSpray@@UAEPAVCEntityEvent@@XZ
       1563  61A 00066250 ?MakeCopy@EStart@@UAEPAVCEntityEvent@@XZ
       1564  61B 00066590 ?MakeCopy@EStartAttack@@UAEPAVCEntityEvent@@XZ
       1565  61C 00066210 ?MakeCopy@EStop@@UAEPAVCEntityEvent@@XZ
       1566  61D 000665D0 ?MakeCopy@EStopAttack@@UAEPAVCEntityEvent@@XZ
       1567  61E 00066610 ?MakeCopy@EStopBlindness@@UAEPAVCEntityEvent@@XZ
       1568  61F 00066650 ?MakeCopy@EStopDeafness@@UAEPAVCEntityEvent@@XZ
       1569  620 000664F0 ?MakeCopy@ETeleportMovingBrush@@UAEPAVCEntityEvent@@XZ
       1570  621 000CC2C0 ?MakeCopy@EThink@@UAEPAVCEntityEvent@@XZ
       1571  622 000730D0 ?MakeCopy@ETimeoutMission@@UAEPAVCEntityEvent@@XZ
       1572  623 00066440 ?MakeCopy@ETrigger@@UAEPAVCEntityEvent@@XZ
       1573  624 000CA750 ?MakeCopy@ETwister@@UAEPAVCEntityEvent@@XZ
       1574  625 000ABDD0 ?MakeCopy@EViewInit@@UAEPAVCEntityEvent@@XZ
       1575  626 00066AF0 ?MakeCopy@EVoiceMessage@@UAEPAVCEntityEvent@@XZ
       1576  627 000CC300 ?MakeCopy@EWatch@@UAEPAVCEntityEvent@@XZ
       1577  628 000CC1B0 ?MakeCopy@EWatcherInit@@UAEPAVCEntityEvent@@XZ
       1578  629 000CE000 ?MakeCopy@EWater@@UAEPAVCEntityEvent@@XZ
       1579  62A 000B95B0 ?MakeCopy@EWeaponEffectInit@@UAEPAVCEntityEvent@@XZ
       1580  62B 000CEC50 ?MakeCopy@EWeaponItem@@UAEPAVCEntityEvent@@XZ
       1581  62C 000AE5B0 ?MakeCopy@EWeaponsInit@@UAEPAVCEntityEvent@@XZ
       1582  62D 000903B0 ?MarkMissionComplete@CPlayer@@QAE_NJ@Z
       1583  62E 0006ADD0 ?MarkPickedBy@CItem@@QAEHPAVCEntity@@@Z
       1584  62F 001311E8 ?MessageSound_enum@@3VCEntityPropertyEnumType@@A
       1585  630 001311D8 ?MessageSound_values@@3PAVCEntityPropertyEnumValue@@A
       1586  631 0000D490 ?Metric@MissionGoal@@QAEAAJXZ
       1587  632 0000D920 ?MissionCount@MissionSystem@@QAEHXZ
       1588  633 00133420 ?MissionEventType_enum@@3VCEntityPropertyEnumType@@A
       1589  634 001333D8 ?MissionEventType_values@@3PAVCEntityPropertyEnumValue@@A
       1590  635 00132D60 ?MissionType_enum@@3VCEntityPropertyEnumType@@A
       1591  636 00132D20 ?MissionType_values@@3PAVCEntityPropertyEnumValue@@A
       1592  637 00053480 ?ModifyWayPointValue@CEnemyBase@@UAEMMPAVCNavigationMarker@@@Z
       1593  638 0005ABE0 ?MoveThroughMarkers@CEnemyBase@@QAEHABVCEntityEvent@@@Z
       1594  639 0005A8C0 ?MoveToDestination@CEnemyBase@@QAEHABVCEntityEvent@@@Z
       1595  63A 00055AE0 ?MovementAnimation@CEnemyBase@@UAEXK@Z
       1596  63B 00054C10 ?MovesByTargetedRoute@CEnemyBase@@UBEHAAVCTString@@@Z
       1597  63C 00134BB8 ?MusicType_enum@@3VCEntityPropertyEnumType@@A
       1598  63D 00134B90 ?MusicType_values@@3PAVCEntityPropertyEnumValue@@A
       1599  63E 00134E50 ?NMNavTypes_enum@@3VCEntityPropertyEnumType@@A
       1600  63F 00134E40 ?NMNavTypes_values@@3PAVCEntityPropertyEnumValue@@A
       1601  640 001351E8 ?NPCActions_enum@@3VCEntityPropertyEnumType@@A
       1602  641 001351D0 ?NPCActions_values@@3PAVCEntityPropertyEnumValue@@A
       1603  642 00135200 ?NPCGender_enum@@3VCEntityPropertyEnumType@@A
       1604  643 001351F0 ?NPCGender_values@@3PAVCEntityPropertyEnumValue@@A
       1605  644 00135240 ?NPCOnTrigger_enum@@3VCEntityPropertyEnumType@@A
       1606  645 00135228 ?NPCOnTrigger_values@@3PAVCEntityPropertyEnumValue@@A
       1607  646 00135220 ?NPCType_enum@@3VCEntityPropertyEnumType@@A
       1608  647 00135208 ?NPCType_values@@3PAVCEntityPropertyEnumValue@@A
       1609  648 00001FE0 ?NewMessage@CCompMessageID@@QAEXABVCTFileName@@@Z
       1610  649 0009E8C0 ?OldTeleportPlayer@CPlayer@@QAEXW4WorldLinkType@@@Z
       1611  64A 00046950 ?OnPreRender@CDinoAnimator@@QAEXXZ
       1612  64B 000AAB00 ?OnPreRender@CPlayerAnimator@@QAEXXZ
       1613  64C 0002C230 ?PATH_BuildPath@@YAXPAVCEntity@@ABV?$Vector@M$02@@1AAPAV1@PAV?$CDynamicContainer@VCEntity@@@@H@Z
       1614  64D 0002BF30 ?PATH_ClearAllNodes@@YAXXZ
       1615  64E 0002BE80 ?PATH_FindAllNodes@@YAXXZ
       1616  64F 0002C720 ?PATH_FindMoveByMarkers@@YAXPAVCEntity@@ABV?$Vector@M$02@@1AAPAV1@PAV?$CDynamicContainer@VCEntity@@@@@Z
       1617  650 0002BF20 ?PATH_PathList@@YAAAV?$CDynamicContainer@VCNavigationMarker@@@@XZ
       1618  651 0013BA90 ?PMSpecies_enum@@3VCEntityPropertyEnumType@@A
       1619  652 0013BA58 ?PMSpecies_values@@3PAVCEntityPropertyEnumValue@@A
       1620  653 001362B8 ?PSBlendType_enum@@3VCEntityPropertyEnumType@@A
       1621  654 00136298 ?PSBlendType_values@@3PAVCEntityPropertyEnumValue@@A
       1622  655 001362D0 ?PSPartType_enum@@3VCEntityPropertyEnumType@@A
       1623  656 001362C0 ?PSPartType_values@@3PAVCEntityPropertyEnumValue@@A
       1624  657 00131270 ?ParticleTexture_enum@@3VCEntityPropertyEnumType@@A
       1625  658 001311F0 ?ParticleTexture_values@@3PAVCEntityPropertyEnumValue@@A
       1626  659 00135FA8 ?ParticlesHolderType_enum@@3VCEntityPropertyEnumType@@A
       1627  65A 00135F30 ?ParticlesHolderType_values@@3PAVCEntityPropertyEnumValue@@A
       1628  65B 00029FF0 ?Particles_Appearing@@YAXPAVCEntity@@M@Z
       1629  65C 00025EF0 ?Particles_Atomic@@YAXPAVCEntity@@MMW4ParticleTexture@@J@Z
       1630  65D 00022000 ?Particles_BeastBigProjectileTrail@@YAXPAVCEntity@@MMMJ@Z
       1631  65E 00021FF0 ?Particles_BeastBigProjectileTrail_Prepare@@YAXPAVCEntity@@@Z
       1632  65F 00021860 ?Particles_BeastProjectileDebrisTrail@@YAXPAVCEntity@@M@Z
       1633  660 00021850 ?Particles_BeastProjectileDebrisTrail_Prepare@@YAXPAVCEntity@@@Z
       1634  661 00021A90 ?Particles_BeastProjectileTrail@@YAXPAVCEntity@@MMJ@Z
       1635  662 00021A80 ?Particles_BeastProjectileTrail_Prepare@@YAXPAVCEntity@@@Z
       1636  663 0002A1D0 ?Particles_BloodSpray@@YAXW4SprayParticlesType@@PAVCEntity@@V?$Vector@M$02@@MV?$AABBox@M$02@@2MM@Z
       1637  664 00022980 ?Particles_BloodTrail@@YAXPAVCEntity@@@Z
       1638  665 000204A0 ?Particles_BombTrail@@YAXPAVCEntity@@@Z
       1639  666 00020490 ?Particles_BombTrail_Prepare@@YAXPAVCEntity@@@Z
       1640  667 000280D0 ?Particles_BulletSpray@@YAXPAVCEntity@@V?$Vector@M$02@@W4EffectParticlesType@@M1@Z
       1641  668 00021020 ?Particles_CannonBall@@YAXPAVCEntity@@M@Z
       1642  669 000209B0 ?Particles_ColoredStarsTrail@@YAXPAVCEntity@@@Z
       1643  66A 00024EA0 ?Particles_DamageSmoke@@YAXPAVCEntity@@MV?$AABBox@M$02@@M@Z
       1644  66B 00029B40 ?Particles_Death@@YAXPAVCEntity@@M@Z
       1645  66C 0002ABB0 ?Particles_DestroyingObelisk@@YAXPAVCEntity@@M@Z
       1646  66D 0002AF40 ?Particles_DestroyingPylon@@YAXPAVCEntity@@V?$Vector@M$02@@M@Z
       1647  66E 00025880 ?Particles_ElectricitySparks@@YAXPAVCEntity@@MMMJ@Z
       1648  66F 00024220 ?Particles_Emanate@@YAXPAVCEntity@@MMW4ParticleTexture@@J@Z
       1649  670 00024840 ?Particles_EmanatePlane@@YAXPAVCEntity@@MMMMMMW4ParticleTexture@@J@Z
       1650  671 00028A60 ?Particles_EmptyShells@@YAXPAVCEntity@@PAUShellLaunchData@@@Z
       1651  672 00022BF0 ?Particles_FireBreath@@YAJPAVCEntity@@V?$Vector@M$02@@1MM@Z
       1652  673 00020BF0 ?Particles_Fireball01Trail@@YAXPAVCEntity@@@Z
       1653  674 00020BE0 ?Particles_Fireball01Trail_Prepare@@YAXPAVCEntity@@@Z
       1654  675 000206A0 ?Particles_FirecrackerTrail@@YAXPAVCEntity@@@Z
       1655  676 00020690 ?Particles_FirecrackerTrail_Prepare@@YAXPAVCEntity@@@Z
       1656  677 000235F0 ?Particles_FlameThrower@@YAXABVCPlacement3D@@0MM@Z
       1657  678 0002B760 ?Particles_Flies@@YAXPAVCEntity@@MMW4ParticleTexture@@J@Z
       1658  679 00024B40 ?Particles_Fountain@@YAXPAVCEntity@@MMW4ParticleTexture@@J@Z
       1659  67A 00026340 ?Particles_Ghostbuster@@YAXABV?$Vector@M$02@@0JMMM@Z
       1660  67B 00020DD0 ?Particles_GrenadeTrail@@YAXPAVCEntity@@@Z
       1661  67C 00020DC0 ?Particles_GrenadeTrail_Prepare@@YAXPAVCEntity@@@Z
       1662  67D 0002B3C0 ?Particles_HitGround@@YAXPAVCEntity@@MM@Z
       1663  67E 000215E0 ?Particles_LavaBombTrail@@YAXPAVCEntity@@M@Z
       1664  67F 000215D0 ?Particles_LavaBombTrail_Prepare@@YAXPAVCEntity@@@Z
       1665  680 00025D80 ?Particles_LavaErupting@@YAXPAVCEntity@@MMMMMM@Z
       1666  681 00027CD0 ?Particles_LavaFlow@@YAXPAVCEntity@@MMMMMJ@Z
       1667  682 000213C0 ?Particles_LavaTrail@@YAXPAVCEntity@@@Z
       1668  683 000213B0 ?Particles_LavaTrail_Prepare@@YAXPAVCEntity@@@Z
       1669  684 00027440 ?Particles_Lightning@@YAXV?$Vector@M$02@@0M@Z
       1670  685 00025540 ?Particles_MetalParts@@YAXPAVCEntity@@MV?$AABBox@M$02@@M@Z
       1671  686 000267C0 ?Particles_Rain@@YAXPAVCEntity@@MJMPAVCTextureData@@AAV?$AABBox@M$02@@@Z
       1672  687 00022F40 ?Particles_Regeneration@@YAJPAVCEntity@@MMMH@Z
       1673  688 00023C50 ?Particles_Rising@@YAXPAVCEntity@@MMMMMMMW4ParticleTexture@@J@Z
       1674  689 00022600 ?Particles_RocketTrail@@YAXPAVCEntity@@M@Z
       1675  68A 000225F0 ?Particles_RocketTrail_Prepare@@YAXPAVCEntity@@@Z
       1676  68B 00020350 ?Particles_RomboidTrail@@YAXPAVCEntity@@@Z
       1677  68C 000251B0 ?Particles_RunningDust@@YAXPAVCEntity@@@Z
       1678  68D 000251A0 ?Particles_RunningDust_Prepare@@YAXPAVCEntity@@@Z
       1679  68E 000274F0 ?Particles_SandFlow@@YAXPAVCEntity@@MMMMMJ@Z
       1680  68F 00026B90 ?Particles_Snow@@YAXPAVCEntity@@MJ@Z
       1681  690 00023FB0 ?Particles_Spiral@@YAXPAVCEntity@@MMW4ParticleTexture@@J@Z
       1682  691 00020890 ?Particles_SpiralTrail@@YAXPAVCEntity@@@Z
       1683  692 00023A10 ?Particles_Stardust@@YAXPAVCEntity@@MMW4ParticleTexture@@J@Z
       1684  693 000202B0 ?Particles_ViewerLocal@@YAXPAVCEntity@@@Z
       1685  694 000278E0 ?Particles_WaterFlow@@YAXPAVCEntity@@MMMMMJ@Z
       1686  695 00024470 ?Particles_WaterfallFoam@@YAXPAVCEntity@@MMMMMMMJ@Z
       1687  696 00020AB0 ?Particles_WhiteLineTrail@@YAXPAVCEntity@@@Z
       1688  697 00021160 ?Particles_XBow@@YAXPAVCEntity@@M@Z
       1689  698 00021150 ?Particles_XBow_Prepare@@YAXPAVCEntity@@@Z
       1690  699 000A5890 ?Pepper@CPlayer@@QAEHABVCEntityEvent@@@Z
       1691  69A 000B4840 ?PistolBoring@CPlayerWeapons@@QAEMXZ
       1692  69B 00057CB0 ?PlayDeathAnim@CEnemyBase@@UAEMXZ
       1693  69C 000B4710 ?PlayDefaultAnim@CPlayerWeapons@@QAEXXZ
       1694  69D 0009B4E0 ?PlayDinoAttackSound@CPlayer@@QAEXXZ
       1695  69E 00044ED0 ?PlayEatAnim@CDinoAnimator@@QAEXXZ
       1696  69F 000944F0 ?PlayLightAnim@CPlayer@@QAEXJK@Z
       1697  6A0 000B1B90 ?PlayLightAnim@CPlayerWeapons@@QAEXJK@Z
       1698  6A1 00053460 ?PlayPainAnim@CEnemyBase@@UAEMXZ
       1699  6A2 0013B698 ?PlayerAnimTypes_enum@@3VCEntityPropertyEnumType@@A
       1700  6A3 0013B5A0 ?PlayerAnimTypes_values@@3PAVCEntityPropertyEnumValue@@A
       1701  6A4 0013B2B8 ?PlayerAutoAction_enum@@3VCEntityPropertyEnumType@@A
       1702  6A5 0013B1F0 ?PlayerAutoAction_values@@3PAVCEntityPropertyEnumValue@@A
       1703  6A6 00053E00 ?PlayerDestinationPos@CEnemyBase@@UAE?AV?$Vector@M$02@@XZ
       1704  6A7 000BADF0 ?PlayerGrenade@CProjectile@@QAEXXZ
       1705  6A8 000BB2B0 ?PlayerGrenadeExplosion@CProjectile@@QAEXXZ
       1706  6A9 001367B0 ?PlayerState_enum@@3VCEntityPropertyEnumType@@A
       1707  6AA 00136788 ?PlayerState_values@@3PAVCEntityPropertyEnumValue@@A
       1708  6AB 00136780 ?PlayerViewType_enum@@3VCEntityPropertyEnumType@@A
       1709  6AC 00136760 ?PlayerViewType_values@@3PAVCEntityPropertyEnumValue@@A
       1710  6AD 000BACA0 ?PlayerXBow@CProjectile@@QAEXXZ
       1711  6AE 000BAF70 ?PlayerXBowExplosion@CProjectile@@QAEXXZ
       1712  6AF 00095D20 ?PostMoving@CPlayer@@UAEXXZ
       1713  6B0 000AC000 ?PostMoving@CPlayerView@@UAEXXZ
       1714  6B1 000BAA40 ?PostMoving@CProjectile@@UAEXXZ
       1715  6B2 00095C90 ?PreMoving@CPlayer@@UAEXXZ
       1716  6B3 000ABFD0 ?PreMoving@CPlayerView@@UAEXXZ
       1717  6B4 000BA9E0 ?PreMoving@CProjectile@@UAEXXZ
       1718  6B5 00097A40 ?PreapplyAction@CPlayer@@QAEXABVCPlayerAction@@@Z
       1719  6B6 00044F00 ?Precache@CDinoAnimator@@UAEXXZ
       1720  6B7 00053D00 ?Precache@CEnemyBase@@UAEXXZ
       1721  6B8 000A8A50 ?Precache@CPlayerAnimator@@UAEXXZ
       1722  6B9 000AFFB0 ?Precache@CPlayerWeapons@@UAEXXZ
       1723  6BA 000B34A0 ?PrepareBullet@CPlayerWeapons@@QAEXMMM@Z
       1724  6BB 00056B70 ?PrepareFreeFlyingProjectile@CEnemyBase@@QAEXAAVCPlacement3D@@V?$Vector@M$02@@AAV3@2@Z
       1725  6BC 000567A0 ?PreparePropelledProjectile@CEnemyBase@@QAEXAAVCPlacement3D@@V?$Vector@M$02@@AAV3@2@Z
       1726  6BD 000B4880 ?PrimaryToSecondary@CPlayerWeapons@@QAE?AW4WeaponType@@W42@@Z
       1727  6BE 000076B0 ?PrintCenterMessage@@YAXPAVCEntity@@0ABVCTString@@MW4MessageSound@@@Z
       1728  6BF 000070A0 ?PrintConsole@@YAPBDXZ
       1729  6C0 000070B0 ?PrintStack@@YAPBDPAVCEntity@@@Z
       1730  6C1 000BB970 ?ProjectileFly@CProjectile@@QAEHABVCEntityEvent@@@Z
       1731  6C2 000BBCD0 ?ProjectileGuidedFly@CProjectile@@QAEHABVCEntityEvent@@@Z
       1732  6C3 000BB6F0 ?ProjectileHitted@CProjectile@@QAEXXZ
       1733  6C4 0013D5D8 ?ProjectileMovingType_enum@@3VCEntityPropertyEnumType@@A
       1734  6C5 0013D5C0 ?ProjectileMovingType_values@@3PAVCEntityPropertyEnumValue@@A
       1735  6C6 000BC370 ?ProjectileSlide@CProjectile@@QAEHABVCEntityEvent@@@Z
       1736  6C7 000BB580 ?ProjectileTouch@CProjectile@@QAEXVCEntityPointer@@@Z
       1737  6C8 0013D5B8 ?ProjectileType_enum@@3VCEntityPropertyEnumType@@A
       1738  6C9 0013D5A0 ?ProjectileType_values@@3PAVCEntityPropertyEnumValue@@A
       1739  6CA 0009F630 ?Pulse@CPlayer@@QAEXVEPulse@@@Z
       1740  6CB 000B4E50 ?PutDown@CPlayerWeapons@@QAEHABVCEntityEvent@@@Z
       1741  6CC 00001F40 ?Read_t@CCompMessageID@@QAEXAAVCTStream@@@Z
       1742  6CD 00044EE0 ?Read_t@CDinoAnimator@@UAEXPAVCTStream@@@Z
       1743  6CE 00054E90 ?Read_t@CEnemyBase@@UAEXPAVCTStream@@@Z
       1744  6CF 00091010 ?Read_t@CPlayer@@UAEXPAVCTStream@@@Z
       1745  6D0 000A8A30 ?Read_t@CPlayerAnimator@@UAEXPAVCTStream@@@Z
       1746  6D1 000BAA50 ?Read_t@CProjectile@@UAEXPAVCTStream@@@Z
       1747  6D2 000A0FD0 ?Rebirth@CPlayer@@QAEHABVCEntityEvent@@@Z
       1748  6D3 000B4070 ?ReceiveAmmo@CPlayerWeapons@@QAEHABVCEntityEvent@@@Z
       1749  6D4 00093FB0 ?ReceiveComputerMessage@CPlayer@@QAEXABVCTFileName@@K@Z
       1750  6D5 000550F0 ?ReceiveDamage@CEnemyBase@@UAEXPAVCEntity@@W4DamageType@@MABV?$Vector@M$02@@2@Z
       1751  6D6 00096C20 ?ReceiveDamage@CPlayer@@UAEXPAVCEntity@@W4DamageType@@MABV?$Vector@M$02@@2@Z
       1752  6D7 000974E0 ?ReceiveItem@CPlayer@@UAEHABVCEntityEvent@@@Z
       1753  6D8 000B4080 ?ReceivePackAmmo@CPlayerWeapons@@QAEHABVCEntityEvent@@@Z
       1754  6D9 000B4060 ?ReceiveWeapon@CPlayerWeapons@@QAEHABVCEntityEvent@@@Z
       1755  6DA 0009F230 ?RecordEndOfLevelData@CPlayer@@QAEXXZ
       1756  6DB 000B87B0 ?Reload@CPlayerWeapons@@QAEHABVCEntityEvent@@@Z
       1757  6DC 000B6390 ?ReloadPistol@CPlayerWeapons@@QAEHABVCEntityEvent@@@Z
       1758  6DD 00046A50 ?ReminderAction@CDinoAnimator@@QAEHABVCEntityEvent@@@Z
       1759  6DE 000AACA0 ?ReminderAction@CPlayerAnimator@@QAEHABVCEntityEvent@@@Z
       1760  6DF 00002A40 ?RemoveAttachmentFromModel@@YAXAAVCModelObject@@J@Z
       1761  6E0 00046880 ?RemoveWeapon@CDinoAnimator@@QAEXXZ
       1762  6E1 000AA950 ?RemoveWeapon@CPlayerAnimator@@QAEXXZ
       1763  6E2 000957E0 ?RenderCameraView@CPlayer@@QAEXPAVCDrawPort@@H@Z
       1764  6E3 000B1310 ?RenderCrosshair@CPlayerWeapons@@QAEXAAVCProjection3D@@PAVCDrawPort@@AAVCPlacement3D@@@Z
       1765  6E4 000950D0 ?RenderDummyView@CPlayer@@QAEXPAVCDrawPort@@@Z
       1766  6E5 00095A00 ?RenderGameView@CPlayer@@UAEXPAVCDrawPort@@PAX@Z
       1767  6E6 0009D5E0 ?RenderHUD@CPlayer@@QAEXAAVCPerspectiveProjection3D@@PAVCDrawPort@@V?$Vector@M$02@@KKH@Z
       1768  6E7 00057CC0 ?RenderParticles@CEnemyBase@@UAEXXZ
       1769  6E8 0009F420 ?RenderParticles@CPlayer@@UAEXXZ
       1770  6E9 000AC060 ?RenderParticles@CPlayerView@@UAEXXZ
       1771  6EA 000BAC80 ?RenderParticles@CProjectile@@UAEXXZ
       1772  6EB 00095200 ?RenderPlayerView@CPlayer@@QAEXPAVCDrawPort@@H@Z
       1773  6EC 000B00A0 ?RenderWeaponModel@CPlayerWeapons@@QAEXAAVCPerspectiveProjection3D@@PAVCDrawPort@@V?$Vector@M$02@@KKH@Z
       1774  6ED 000AAC50 ?Reset@CPlayerAnimator@@QAEXXZ
       1775  6EE 000B3970 ?ResetWeaponMovingOffset@CPlayerWeapons@@QAEXXZ
       1776  6EF 000805B0 ?ReversePath@CNavigationMarker@@QAEXXZ
       1777  6F0 00045FB0 ?Rise@CDinoAnimator@@QAEXXZ
       1778  6F1 000AA4A0 ?Rise@CPlayerAnimator@@QAEXXZ
       1779  6F2 0005D690 ?RotateToEnemy@CEnemyRunInto@@QAEHABVCEntityEvent@@@Z
       1780  6F3 00099CF0 ?RoundViewAngle@CPlayer@@QAEXAAMM@Z
       1781  6F4 0005DEE0 ?RunAwayFromEnemy@CEnemyRunInto@@QAEHABVCEntityEvent@@@Z
       1782  6F5 0005D9C0 ?RunIntoEnemy@CEnemyRunInto@@QAEHABVCEntityEvent@@@Z
       1783  6F6 00053450 ?RunningAnim@CEnemyBase@@UAEXXZ
       1784  6F7 000940C0 ?SayVoiceMessage@CPlayer@@QAEXABVCTFileName@@@Z
       1785  6F8 000B4890 ?SecondaryToPrimary@CPlayerWeapons@@QAE?AW4WeaponType@@W42@@Z
       1786  6F9 00056730 ?SeeEntity@CEnemyBase@@QAEHPAVCEntity@@M@Z
       1787  6FA 00056760 ?SeeEntityInPlane@CEnemyBase@@QAEHPAVCEntity@@M@Z
       1788  6FB 000B44F0 ?SelectNewWeapon@CPlayerWeapons@@QAEXXZ
       1789  6FC 000B49D0 ?SelectWeaponChange@CPlayerWeapons@@QAEXJ@Z
       1790  6FD 000025D0 ?SendInRange@@YAXPAVCEntity@@W4EventEType@@ABV?$AABBox@M$02@@@Z
       1791  6FE 000022B0 ?SendToTarget@@YAXPAVCEntity@@W4EventEType@@0@Z
       1792  6FF 00045080 ?SetAttachment@CDinoAnimator@@QAEXJ@Z
       1793  700 000A8C20 ?SetAttachment@CPlayerAnimator@@QAEXJ@Z
       1794  701 000450B0 ?SetBodyAnimation@CDinoAnimator@@QAEXJK@Z
       1795  702 000A8E40 ?SetBodyAnimation@CPlayerAnimator@@QAEXJJK@Z
       1796  703 00002280 ?SetBoolFromBoolEType@@YAXAAHW4BoolEType@@@Z
       1797  704 000AC080 ?SetCameraPosition@CPlayerView@@QAEXXZ
       1798  705 00002960 ?SetComponents@@YAXPAVCEntity@@AAVCModelObject@@KKKKK@Z
       1799  706 00044F60 ?SetComponents@CDinoAnimator@@QAEXPAVCModelObject@@KKKKK@Z
       1800  707 000A8AC0 ?SetComponents@CPlayerAnimator@@QAEXPAVCModelObject@@KKKKK@Z
       1801  708 00096010 ?SetConnected@CPlayer@@QAEXXZ
       1802  709 0000D8D0 ?SetCurrentLevel@MissionSystem@@QAEHH@Z
       1803  70A 000B1BD0 ?SetCurrentWeaponModel@CPlayerWeapons@@QAEXXZ
       1804  70B 0003A880 ?SetDamage@CBullet@@QAEXM@Z
       1805  70C 00094980 ?SetDefaultMouthPitch@CPlayer@@QAEXXZ
       1806  70D 0002EC70 ?SetDefaultProperties@CAmbientAnimal@@UAEXXZ
       1807  70E 00032750 ?SetDefaultProperties@CAmbientAnimalZone@@UAEXXZ
       1808  70F 00033110 ?SetDefaultProperties@CAnimationChanger@@UAEXXZ
       1809  710 00033F90 ?SetDefaultProperties@CAnimationHub@@UAEXXZ
       1810  711 00034CB0 ?SetDefaultProperties@CBackgroundViewer@@UAEXXZ
       1811  712 00036370 ?SetDefaultProperties@CBasicEffect@@UAEXXZ
       1812  713 00039330 ?SetDefaultProperties@CBlendController@@UAEXXZ
       1813  714 00039B50 ?SetDefaultProperties@CBloodSpray@@UAEXXZ
       1814  715 0003A7A0 ?SetDefaultProperties@CBullet@@UAEXXZ
       1815  716 0003C170 ?SetDefaultProperties@CCamera@@UAEXXZ
       1816  717 0003F150 ?SetDefaultProperties@CCameraMarker@@UAEXXZ
       1817  718 0003F840 ?SetDefaultProperties@CCopier@@UAEXXZ
       1818  719 000405F0 ?SetDefaultProperties@CCounter@@UAEXXZ
       1819  71A 000413A0 ?SetDefaultProperties@CDamager@@UAEXXZ
       1820  71B 00041DB0 ?SetDefaultProperties@CDebris@@UAEXXZ
       1821  71C 00043330 ?SetDefaultProperties@CDestroyableArchitecture@@UAEXXZ
       1822  71D 00044D70 ?SetDefaultProperties@CDinoAnimator@@UAEXXZ
       1823  71E 00048210 ?SetDefaultProperties@CDinosaur@@UAEXXZ
       1824  71F 0004D320 ?SetDefaultProperties@CDoorController@@UAEXXZ
       1825  720 0004EF30 ?SetDefaultProperties@CEffectMarker@@UAEXXZ
       1826  721 000501F0 ?SetDefaultProperties@CEffector@@UAEXXZ
       1827  722 00052EE0 ?SetDefaultProperties@CEnemyBase@@UAEXXZ
       1828  723 0005C410 ?SetDefaultProperties@CEnemyCounter@@UAEXXZ
       1829  724 0005CC90 ?SetDefaultProperties@CEnemyMarker@@UAEXXZ
       1830  725 0005D4F0 ?SetDefaultProperties@CEnemyRunInto@@UAEXXZ
       1831  726 0005E9B0 ?SetDefaultProperties@CEnemySpawner@@UAEXXZ
       1832  727 00061770 ?SetDefaultProperties@CEnvironmentBase@@UAEXXZ
       1833  728 000638E0 ?SetDefaultProperties@CEnvironmentMarker@@UAEXXZ
       1834  729 000642C0 ?SetDefaultProperties@CEruptor@@UAEXXZ
       1835  72A 00065B70 ?SetDefaultProperties@CFogMarker@@UAEXXZ
       1836  72B 00066C40 ?SetDefaultProperties@CGlobal@@UAEXXZ
       1837  72C 00066F90 ?SetDefaultProperties@CGradientMarker@@UAEXXZ
       1838  72D 000679A0 ?SetDefaultProperties@CGravityMarker@@UAEXXZ
       1839  72E 00068530 ?SetDefaultProperties@CGravityRouter@@UAEXXZ
       1840  72F 00068C70 ?SetDefaultProperties@CHazeMarker@@UAEXXZ
       1841  730 00069BD0 ?SetDefaultProperties@CHealthItem@@UAEXXZ
       1842  731 0006AC10 ?SetDefaultProperties@CItem@@UAEXXZ
       1843  732 0006C0B0 ?SetDefaultProperties@CLight@@UAEXXZ
       1844  733 0006D2E0 ?SetDefaultProperties@CLightning@@UAEXXZ
       1845  734 0006E300 ?SetDefaultProperties@CMarker@@UAEXXZ
       1846  735 0006E8F0 ?SetDefaultProperties@CMessageHolder@@UAEXXZ
       1847  736 0006F430 ?SetDefaultProperties@CMessageItem@@UAEXXZ
       1848  737 0006FB90 ?SetDefaultProperties@CMirrorMarker@@UAEXXZ
       1849  738 000716D0 ?SetDefaultProperties@CMissionHolder@@UAEXXZ
       1850  739 00073230 ?SetDefaultProperties@CMissionTrigger@@UAEXXZ
       1851  73A 00074380 ?SetDefaultProperties@CModelDestruction@@UAEXXZ
       1852  73B 00076BE0 ?SetDefaultProperties@CModelHolder2@@UAEXXZ
       1853  73C 00075570 ?SetDefaultProperties@CModelHolder@@UAEXXZ
       1854  73D 00079E20 ?SetDefaultProperties@CMovingBrush@@UAEXXZ
       1855  73E 0007D030 ?SetDefaultProperties@CMovingBrushMarker@@UAEXXZ
       1856  73F 0007D770 ?SetDefaultProperties@CMusicChanger@@UAEXXZ
       1857  740 0007EA50 ?SetDefaultProperties@CMusicHolder@@UAEXXZ
       1858  741 000812B0 ?SetDefaultProperties@CNPC@@UAEXXZ
       1859  742 00080280 ?SetDefaultProperties@CNavigationMarker@@UAEXXZ
       1860  743 00085EB0 ?SetDefaultProperties@CParticleSystem@@UAEXXZ
       1861  744 00084700 ?SetDefaultProperties@CParticlesHolder@@UAEXXZ
       1862  745 000885E0 ?SetDefaultProperties@CPendulum@@UAEXXZ
       1863  746 0008F810 ?SetDefaultProperties@CPlayer@@UAEXXZ
       1864  747 000A7860 ?SetDefaultProperties@CPlayerActionMarker@@UAEXXZ
       1865  748 000A88B0 ?SetDefaultProperties@CPlayerAnimator@@UAEXXZ
       1866  749 000AB490 ?SetDefaultProperties@CPlayerMarker@@UAEXXZ
       1867  74A 000ABEF0 ?SetDefaultProperties@CPlayerView@@UAEXXZ
       1868  74B 000AFB10 ?SetDefaultProperties@CPlayerWeapons@@UAEXXZ
       1869  74C 000B9670 ?SetDefaultProperties@CPlayerWeaponsEffects@@UAEXXZ
       1870  74D 000BA8C0 ?SetDefaultProperties@CProjectile@@UAEXXZ
       1871  74E 000BD170 ?SetDefaultProperties@CReminder@@UAEXXZ
       1872  74F 000BDFE0 ?SetDefaultProperties@CSoldier@@UAEXXZ
       1873  750 000C27B0 ?SetDefaultProperties@CSoldierData@@UAEXXZ
       1874  751 000C3040 ?SetDefaultProperties@CSoundHolder@@UAEXXZ
       1875  752 000C3F40 ?SetDefaultProperties@CStormController@@UAEXXZ
       1876  753 000C5610 ?SetDefaultProperties@CSwitch@@UAEXXZ
       1877  754 000C66B0 ?SetDefaultProperties@CTeleport@@UAEXXZ
       1878  755 000C70A0 ?SetDefaultProperties@CTerrainMarker@@UAEXXZ
       1879  756 000C78C0 ?SetDefaultProperties@CTouchField@@UAEXXZ
       1880  757 000C8F70 ?SetDefaultProperties@CTrigger@@UAEXXZ
       1881  758 000CA800 ?SetDefaultProperties@CTwister@@UAEXXZ
       1882  759 000CB970 ?SetDefaultProperties@CVoiceHolder@@UAEXXZ
       1883  75A 000CCED0 ?SetDefaultProperties@CWatchPlayers@@UAEXXZ
       1884  75B 000CC3B0 ?SetDefaultProperties@CWatcher@@UAEXXZ
       1885  75C 000CE0B0 ?SetDefaultProperties@CWater@@UAEXXZ
       1886  75D 000CED20 ?SetDefaultProperties@CWeaponItem@@UAEXXZ
       1887  75E 000D3650 ?SetDefaultProperties@CWorldBase@@UAEXXZ
       1888  75F 000D5130 ?SetDefaultProperties@CWorldLink@@UAEXXZ
       1889  760 000D5CA0 ?SetDefaultProperties@CWorldSettingsController@@UAEXXZ
       1890  761 00055AF0 ?SetDesiredMovement@CEnemyBase@@UAEKXZ
       1891  762 000B1AE0 ?SetFlare@CPlayerWeapons@@QAEXJJ@Z
       1892  763 00097940 ?SetGameEnd@CPlayer@@QAEXXZ
       1893  764 000A8D40 ?SetItem@CPlayerAnimator@@QAEXPAVCModelObject@@@Z
       1894  765 0006B030 ?SetItemAttachmentAnim@CItem@@QAEXJJ@Z
       1895  766 0000D340 ?SetOwner@MissionGoal@@QAEXVCEntityPointer@@@Z
       1896  767 00006D30 ?SetPlayerAppearance@@YAHPAVCModelObject@@PAVCPlayerCharacter@@AAVCTString@@H@Z
       1897  768 00011710 ?SetPredictionPair@CDinoAnimator@@UAEXPAVCEntity@@@Z
       1898  769 0000BA10 ?SetPredictionPair@CEnemyBase@@UAEXPAVCEntity@@@Z
       1899  76A 000691A0 ?SetPredictionPair@CItem@@UAEXPAVCEntity@@@Z
       1900  76B 0000E4C0 ?SetPredictionPair@CPlayer@@UAEXPAVCEntity@@@Z
       1901  76C 00043D80 ?SetPredictionPair@CPlayerAnimator@@UAEXPAVCEntity@@@Z
       1902  76D 00088D60 ?SetPredictionPair@CPlayerView@@UAEXPAVCEntity@@@Z
       1903  76E 00012840 ?SetPredictionPair@CPlayerWeapons@@UAEXPAVCEntity@@@Z
       1904  76F 0000AA80 ?SetPredictionPair@CProjectile@@UAEXPAVCEntity@@@Z
       1905  770 0000A460 ?SetPredictionPair@CWatcher@@UAEXPAVCEntity@@@Z
       1906  771 00053A90 ?SetPredictionTime@CEnemyBase@@UAEXM@Z
       1907  772 00091310 ?SetPredictionTime@CPlayer@@UAEXM@Z
       1908  773 000949B0 ?SetRandomMouthPitch@CPlayer@@QAEXMM@Z
       1909  774 000949E0 ?SetSpeakMouthPitch@CPlayer@@QAEXXZ
       1910  775 00095F40 ?SetUnconnected@CPlayer@@QAEXXZ
       1911  776 000A8C60 ?SetWeapon@CPlayerAnimator@@QAEXXZ
       1912  777 000A8E30 ?SetWeaponAnimation@CPlayerAnimator@@QAEXJK@Z
       1913  778 000B2A10 ?Setup3DSoundParameters@CPlayerWeapons@@QAEXXZ
       1914  779 00071BF0 ?SetupAssignments@CMissionHolder@@QAEXXZ
       1915  77A 00094450 ?SetupLightSource@CPlayer@@QAEXXZ
       1916  77B 000BABD0 ?SetupLightSource@CProjectile@@QAEXH@Z
       1917  77C 00094CC0 ?SetupView@CPlayer@@QAEXPAVCDrawPort@@AAVCAnyProjection3D@@AAPAVCEntity@@AAVCPlacement3D@@AAKH@Z
       1918  77D 00133BE8 ?ShadowType_enum@@3VCEntityPropertyEnumType@@A
       1919  77E 00133BD0 ?ShadowType_values@@3PAVCEntityPropertyEnumValue@@A
       1920  77F 00057090 ?ShootPredictedProjectile@CEnemyBase@@QAEPAVCEntity@@W4ProjectileType@@V?$Vector@M$02@@AAV4@2@Z
       1921  780 00056F50 ?ShootProjectile@CEnemyBase@@QAEPAVCEntity@@W4ProjectileType@@AAV?$Vector@M$02@@1@Z
       1922  781 000B4850 ?ShotgunBoring@CPlayerWeapons@@QAEMXZ
       1923  782 00057260 ?ShouldBlowUp@CEnemyBase@@UAEHXZ
       1924  783 000970C0 ?ShouldBlowUp@CPlayer@@QAEHXZ
       1925  784 00053490 ?ShouldStopCombat@CEnemyBase@@QAE_NXZ
       1926  785 00046960 ?ShowFlare@CDinoAnimator@@QAEXJJJ@Z
       1927  786 000AAB10 ?ShowFlare@CPlayerAnimator@@QAEXJJJ@Z
       1928  787 000B1A20 ?ShowFlare@CPlayerWeapons@@QAEXAAVCModelObject@@JJM@Z
       1929  788 0006ADA0 ?ShowItemParticles@CItem@@QAEHXZ
       1930  789 00090D30 ?ShowingSniperOverlay@CPlayer@@QBEHXZ
       1931  78A 001312A0 ?SoundType_enum@@3VCEntityPropertyEnumType@@A
       1932  78B 00131278 ?SoundType_values@@3PAVCEntityPropertyEnumValue@@A
       1933  78C 00098C00 ?SpawnBubbles@CPlayer@@QAEXJ@Z
       1934  78D 0003B790 ?SpawnEffect@CBullet@@QAEXABV?$Vector@M$02@@ABVESpawnEffect@@@Z
       1935  78E 000BB820 ?SpawnEffect@CProjectile@@QAEXABVCPlacement3D@@ABVESpawnEffect@@@Z
       1936  78F 0003B0F0 ?SpawnHitTypeEffect@CBullet@@QAEXW4BulletHitType@@HV?$Vector@M$02@@111@Z
       1937  790 00007750 ?SpawnRangeSound@@YAXPAVCEntity@@0W4SoundType@@M@Z
       1938  791 000B38D0 ?SpawnRangeSound@CPlayerWeapons@@QAEXM@Z
       1939  792 00002780 ?SpawnReminder@@YA?AVCEntityPointer@@PAVCEntity@@MJ@Z
       1940  793 0009F3F0 ?SpawnTeleport@CPlayer@@QAEXXZ
       1941  794 0003B4D0 ?SpawnTrail@CBullet@@QAEXXZ
       1942  795 0013F3C0 ?SpeciesType_enum@@3VCEntityPropertyEnumType@@A
       1943  796 0013F388 ?SpeciesType_values@@3PAVCEntityPropertyEnumValue@@A
       1944  797 0012B260 ?SprayParticlesType_enum@@3VCEntityPropertyEnumType@@A
       1945  798 0012B208 ?SprayParticlesType_values@@3PAVCEntityPropertyEnumValue@@A
       1946  799 000460C0 ?Stand@CDinoAnimator@@QAEXXZ
       1947  79A 000AA600 ?Stand@CPlayerAnimator@@QAEXXZ
       1948  79B 0009AC30 ?StartDinoVision@CPlayer@@QAEXXZ
       1949  79C 0009A590 ?StartNightVision@CPlayer@@QAEXXZ
       1950  79D 00056280 ?StartPathFinding@CEnemyBase@@UAEXXZ
       1951  79E 0009A8D0 ?StartThermalVision@CPlayer@@QAEXXZ
       1952  79F 00056140 ?StopMoving@CEnemyBase@@QAEXXZ
       1953  7A0 00056160 ?StopRotating@CEnemyBase@@QAEXXZ
       1954  7A1 000903A0 ?StopSniping@CPlayer@@QAEXXZ
       1955  7A2 00056190 ?StopTranslating@CEnemyBase@@QAEXXZ
       1956  7A3 000B8E00 ?Stopped@CPlayerWeapons@@QAEHABVCEntityEvent@@@Z
       1957  7A4 00045220 ?StoreLast@CDinoAnimator@@QAEXXZ
       1958  7A5 000A8FA0 ?StoreLast@CPlayerAnimator@@QAEXXZ
       1959  7A6 0006B0E0 ?StretchItem@CItem@@QAEXABV?$Vector@M$02@@@Z
       1960  7A7 000559B0 ?StretchModel@CEnemyBase@@QAEXXZ
       1961  7A8 00046060 ?Swim@CDinoAnimator@@QAEXXZ
       1962  7A9 000AA5B0 ?Swim@CPlayerAnimator@@QAEXXZ
       1963  7AA 000B5B50 ?SwingKnife@CPlayerWeapons@@QAEHABVCEntityEvent@@@Z
       1964  7AB 0013EE30 ?SwitchType_enum@@3VCEntityPropertyEnumType@@A
       1965  7AC 0013EE20 ?SwitchType_values@@3PAVCEntityPropertyEnumValue@@A
       1966  7AD 000A8C50 ?SyncWeapon@CPlayerAnimator@@QAEXXZ
       1967  7AE 0012EBD0 ?TargetType_enum@@3VCEntityPropertyEnumType@@A
       1968  7AF 0012EBB8 ?TargetType_values@@3PAVCEntityPropertyEnumValue@@A
       1969  7B0 0009DF80 ?TeleportPlayer@CPlayer@@QAEXW4WorldLinkType@@@Z
       1970  7B1 0009F480 ?TeleportToAutoMarker@CPlayer@@QAEXPAVCPlayerActionMarker@@@Z
       1971  7B2 0013F230 ?TerrainPointTypes_enum@@3VCEntityPropertyEnumType@@A
       1972  7B3 0013F208 ?TerrainPointTypes_values@@3PAVCEntityPropertyEnumValue@@A
       1973  7B4 000A0B90 ?TheEnd@CPlayer@@QAEHABVCEntityEvent@@@Z
       1974  7B5 0000D4A0 ?Thumbnail@MissionGoal@@QAEAAVCTFileName@@XZ
       1975  7B6 001340E0 ?TouchOrDamageEvent_enum@@3VCEntityPropertyEnumType@@A
       1976  7B7 001340C8 ?TouchOrDamageEvent_values@@3PAVCEntityPropertyEnumValue@@A
       1977  7B8 0012EC20 ?TransFlags_enum@@3VCEntityPropertyEnumType@@A
       1978  7B9 0012EC00 ?TransFlags_values@@3PAVCEntityPropertyEnumValue@@A
       1979  7BA 000A2B70 ?TravellingInBeam@CPlayer@@QAEHABVCEntityEvent@@@Z
       1980  7BB 0013FB48 ?TwisterSize_enum@@3VCEntityPropertyEnumType@@A
       1981  7BC 0013FB30 ?TwisterSize_values@@3PAVCEntityPropertyEnumValue@@A
       1982  7BD 00090D40 ?UnZoom@CPlayer@@QAEXXZ
       1983  7BE 0000D470 ?UniqueID@MissionGoal@@QAEJXZ
       1984  7BF 000904B0 ?UnmarkMissionComplete@CPlayer@@QAE_NJ@Z
       1985  7C0 0009A210 ?UpdateCompassArrowAlpha@CPlayer@@QAEXXZ
       1986  7C1 0009A440 ?UpdateDestAngle@CPlayer@@QAEXXZ
       1987  7C2 00053570 ?UpdateEnemyStats@CEnemyBase@@QAEXXZ
       1988  7C3 0009A310 ?UpdateGoal@CPlayer@@QAEXXZ
       1989  7C4 00090BF0 ?UpdateLatency@CPlayer@@QAEXM@Z
       1990  7C5 000948D0 ?UpdateLevelStats@CPlayer@@QAEXXZ
       1991  7C6 0009F7E0 ?UpdateNoise@CPlayer@@QAEXXZ
       1992  7C7 000B0D90 ?UpdateTargetingInfo@CPlayerWeapons@@QAEXXZ
       1993  7C8 0009F910 ?UpdateThermal@CPlayer@@QAEXXZ
       1994  7C9 000B0AB0 ?UpdateZoomInfo@CPlayerWeapons@@QAEXJ@Z
       1995  7CA 00097830 ?UsePressed@CPlayer@@QAEXH@Z
       1996  7CB 00090CB0 ?ValidateCharacter@CPlayer@@QAEXXZ
       1997  7CC 0013BE40 ?ViewType_enum@@3VCEntityPropertyEnumType@@A
       1998  7CD 0013BE18 ?ViewType_values@@3PAVCEntityPropertyEnumValue@@A
       1999  7CE 00140708 ?VisibilityBits_enum@@3VCEntityPropertyEnumType@@A
       2000  7CF 00140688 ?VisibilityBits_values@@3PAVCEntityPropertyEnumValue@@A
       2001  7D0 00053440 ?WalkingAnim@CEnemyBase@@UAEXXZ
       2002  7D1 00132BA0 ?WarpRotation_enum@@3VCEntityPropertyEnumType@@A
       2003  7D2 00132B88 ?WarpRotation_values@@3PAVCEntityPropertyEnumValue@@A
       2004  7D3 001401A8 ?WaterSize_enum@@3VCEntityPropertyEnumType@@A
       2005  7D4 00140190 ?WaterSize_values@@3PAVCEntityPropertyEnumValue@@A
       2006  7D5 00058390 ?WaypointHit@CEnemyBase@@QAEHABVCEntityEvent@@@Z
       2007  7D6 000583F0 ?WaypointMoveToDestination@CEnemyBase@@QAEHABVCEntityEvent@@@Z
       2008  7D7 00059B20 ?WaypointMoveToEnemy@CEnemyBase@@QAEHABVCEntityEvent@@@Z
       2009  7D8 0013D440 ?WeaponEffectType_enum@@3VCEntityPropertyEnumType@@A
       2010  7D9 0013D430 ?WeaponEffectType_values@@3PAVCEntityPropertyEnumValue@@A
       2011  7DA 00140390 ?WeaponItemType_enum@@3VCEntityPropertyEnumType@@A
       2012  7DB 00140370 ?WeaponItemType_values@@3PAVCEntityPropertyEnumValue@@A
       2013  7DC 000B08C0 ?WeaponMovingOffset@CPlayerWeapons@@QAEXAAV?$Vector@M$02@@@Z
       2014  7DD 000B4470 ?WeaponSelectOk@CPlayerWeapons@@QAEHW4WeaponType@@@Z
       2015  7DE 000B0010 ?WeaponSound@CPlayerWeapons@@QAEXJ@Z
       2016  7DF 0013BF78 ?WeaponType_enum@@3VCEntityPropertyEnumType@@A
       2017  7E0 0013BF10 ?WeaponType_values@@3PAVCEntityPropertyEnumValue@@A
       2018  7E1 0009FCD0 ?WorldChange@CPlayer@@QAEHABVCEntityEvent@@@Z
       2019  7E2 0009FE60 ?WorldChangeDead@CPlayer@@QAEHABVCEntityEvent@@@Z
       2020  7E3 001414B8 ?WorldLinkType_enum@@3VCEntityPropertyEnumType@@A
       2021  7E4 001414A8 ?WorldLinkType_values@@3PAVCEntityPropertyEnumValue@@A
       2022  7E5 00057C90 ?WoundSound@CEnemyBase@@UAEXXZ
       2023  7E6 0009FC70 ?Wounded@CPlayer@@QAEHABVCEntityEvent@@@Z
       2024  7E7 00001F90 ?Write_t@CCompMessageID@@QAEXAAVCTStream@@@Z
       2025  7E8 00055000 ?Write_t@CEnemyBase@@UAEXPAVCTStream@@@Z
       2026  7E9 00090ED0 ?Write_t@CPlayer@@UAEXPAVCTStream@@@Z
       2027  7EA 00154280 ?cmp_bInitialStart@@3HA
       2028  7EB 0015427C ?cmp_bUpdateInBackground@@3HA
       2029  7EC 00154278 ?cmp_ppenDHPlayer@@3PAVCPlayer@@A
       2030  7ED 00154274 ?cmp_ppenPlayer@@3PAVCPlayer@@A
       2031  7EE 0008C1C0 ?ctl_ComposeActionPacket@@YAXABVCPlayerCharacter@@AAVCPlayerAction@@H@Z
       2032  7EF 001371AC ?ctl_pvPlayerControls@@3PAXA
       2033  7F0 000EC648 ?ctl_slPlayerControlsSize@@3JB
       2034  7F1 00154284 ?plr_iHiScore@@3JA
       2035  7F2 001299E8 CAmbientAnimalZone_DLLClass
       2036  7F3 001292E8 CAmbientAnimal_DLLClass
       2037  7F4 00129AF0 CAnimationChanger_DLLClass
       2038  7F5 00129E28 CAnimationHub_DLLClass
       2039  7F6 0012A030 CBackgroundViewer_DLLClass
       2040  7F7 0012A3D8 CBasicEffect_DLLClass
       2041  7F8 0012B088 CBlendController_DLLClass
       2042  7F9 0012B298 CBloodSpray_DLLClass
       2043  7FA 0012B410 CBullet_DLLClass
       2044  7FB 0012B7B0 CCameraMarker_DLLClass
       2045  7FC 0012B558 CCamera_DLLClass
       2046  7FD 0012B9C0 CCopier_DLLClass
       2047  7FE 0012BB80 CCounter_DLLClass
       2048  7FF 0012BD30 CDamager_DLLClass
       2049  800 0012BEC8 CDebris_DLLClass
       2050  801 0012BF70 CDestroyableArchitecture_DLLClass
       2051  802 0012C1B0 CDinoAnimator_DLLClass
       2052  803 0012C578 CDinosaur_DLLClass
       2053  804 0012E3B0 CDoorController_DLLClass
       2054  805 0012E608 CEffectMarker_DLLClass
       2055  806 0012E9D0 CEffector_DLLClass
       2056  807 0012F248 CEnemyBase_DLLClass
       2057  808 0012F9B8 CEnemyCounter_DLLClass
       2058  809 0012FAB0 CEnemyMarker_DLLClass
       2059  80A 0012FD28 CEnemyRunInto_DLLClass
       2060  80B 00130160 CEnemySpawner_DLLClass
       2061  80C 00130650 CEnvironmentBase_DLLClass
       2062  80D 001309D8 CEnvironmentMarker_DLLClass
       2063  80E 00130D08 CEruptor_DLLClass
       2064  80F 00130EF0 CFogMarker_DLLClass
       2065  810 001312B8 CGlobal_DLLClass
       2066  811 00131568 CGradientMarker_DLLClass
       2067  812 001316D8 CGravityMarker_DLLClass
       2068  813 00131888 CGravityRouter_DLLClass
       2069  814 001319E0 CHazeMarker_DLLClass
       2070  815 00131C70 CHealthItem_DLLClass
       2071  816 00131E70 CItem_DLLClass
       2072  817 00131FE0 CLight_DLLClass
       2073  818 001325C0 CLightning_DLLClass
       2074  819 00132788 CMarker_DLLClass
       2075  81A 001328D0 CMessageHolder_DLLClass
       2076  81B 00132A18 CMessageItem_DLLClass
       2077  81C 00132BB8 CMirrorMarker_DLLClass
       2078  81D 00132F00 CMissionHolder_DLLClass
       2079  81E 001334F8 CMissionTrigger_DLLClass
       2080  81F 00133720 CModelDestruction_DLLClass
       2081  820 00133C50 CModelHolder2_DLLClass
       2082  821 001339F0 CModelHolder_DLLClass
       2083  822 001347D8 CMovingBrushMarker_DLLClass
       2084  823 001342B8 CMovingBrush_DLLClass
       2085  824 00134A30 CMusicChanger_DLLClass
       2086  825 00134C50 CMusicHolder_DLLClass
       2087  826 001353F8 CNPC_DLLClass
       2088  827 00134E68 CNavigationMarker_DLLClass
       2089  828 00136348 CParticleSystem_DLLClass
       2090  829 00136080 CParticlesHolder_DLLClass
       2091  82A 00136640 CPendulum_DLLClass
       2092  82B 0013B2D0 CPlayerActionMarker_DLLClass
       2093  82C 0013B6E0 CPlayerAnimator_DLLClass
       2094  82D 0013BAE8 CPlayerMarker_DLLClass
       2095  82E 0013BE78 CPlayerView_DLLClass
       2096  82F 0013D538 CPlayerWeaponsEffects_DLLClass
       2097  830 0013C500 CPlayerWeapons_DLLClass
       2098  831 001370A8 CPlayer_DLLClass
       2099  832 0013D740 CProjectile_DLLClass
       2100  833 0013DA50 CReminder_DLLClass
       2101  834 0013E878 CSoldierData_DLLClass
       2102  835 0013DDC8 CSoldier_DLLClass
       2103  836 0013E928 CSoundHolder_DLLClass
       2104  837 0013EBA8 CStormController_DLLClass
       2105  838 0013EF28 CSwitch_DLLClass
       2106  839 0013F0D8 CTeleport_DLLClass
       2107  83A 0013F248 CTerrainMarker_DLLClass
       2108  83B 0013F4A8 CTouchField_DLLClass
       2109  83C 0013F810 CTrigger_DLLClass
       2110  83D 0013FBE0 CTwister_DLLClass
       2111  83E 0013FCE8 CVoiceHolder_DLLClass
       2112  83F 00140040 CWatchPlayers_DLLClass
       2113  840 0013FED8 CWatcher_DLLClass
       2114  841 00140210 CWater_DLLClass
       2115  842 00140498 CWeaponItem_DLLClass
       2116  843 00140720 CWorldBase_DLLClass
       2117  844 001414D0 CWorldLink_DLLClass
       2118  845 001415F8 CWorldSettingsController_DLLClass

  Summary

       35000 .data
       3E000 .rdata
       21000 .reloc
       E6000 .text
