LIBRARY GAMEGUI 
EXPORTS 
??0MissionGoal@@QAE@ABV0@@Z 
??0MissionSystem@@QAE@ABV0@@Z 
??0MissionTimer@@QAE@ABV0@@Z 
??1MissionTimer@@UAE@XZ 
??4MissionGoal@@QAEAAV0@ABV0@@Z 
??4MissionSystem@@QAE?AV0@ABV0@@Z 
??4MissionTimer@@QAEAAV0@ABV0@@Z 
??_7MissionGoal@@6B@ 
??_7MissionSystem@@6B@ 
??_7MissionTimer@@6B@ 
?AffectsOutcome@MissionGoal@@QAEX_N@Z 
?CurrentLevel@MissionSystem@@QAEAAHXZ 
?GetCurrentLevel@MissionSystem@@QAEHXZ 
?GetState@MissionGoal@@QAE?AW4t_mgState@@XZ 
?GetType@MissionGoal@@QAE?AW4t_mgType@@XZ 
?IsActive@MissionGoal@@QAE_NXZ 
?IsCompleted@MissionGoal@@QAE_NXZ 
?IsExpired@MissionGoal@@QAE_NXZ 
?IsFailed@MissionGoal@@QAE_NXZ 
?IsPaused@MissionGoal@@QAE_NXZ 
?IsRunning@MissionGoal@@QAE_NXZ 
?Level@MissionGoal@@QAEAAJXZ 
?Metric@MissionGoal@@QAEAAJXZ 
?MissionCount@MissionSystem@@QAEHXZ 
?OnAudioQuality@CGameGUI@@SAXXZ 
?OnInvokeConsole@CGameGUI@@SAXXZ 
?OnPlayerSettings@CGameGUI@@SAXXZ 
?OnSelectPlayerAndControls@CGameGUI@@SAXXZ 
?OnVideoQuality@CGameGUI@@SAXXZ 
?SetCurrentLevel@MissionSystem@@QAEHH@Z 
?SetOwner@MissionGoal@@QAEXVCEntityPointer@@@Z 
?Thumbnail@MissionGoal@@QAEAAVCTFileName@@XZ 
?UniqueID@MissionGoal@@QAEJXZ 
GAMEGUI_Create 
