LIBRARY MEDIAPLAYER 
EXPORTS 
??0CMediaPlayer@@QAE@ABV0@@Z 
??0CMediaPlayer@@QAE@PAUHINSTANCE__@@@Z 
??0CMediaPlayer@@QAE@XZ 
??1CMediaPlayer@@UAE@XZ 
??4CMediaPlayer@@QAEAAV0@ABV0@@Z 
??_7CMediaPlayer@@6B@ 
?App@CMediaPlayer@@QAEPAUHWND__@@XZ 
?AudioOnly@CMediaPlayer@@QAEHXZ 
?CheckVisibility@CMediaPlayer@@QAEXXZ 
?CloseClip@CMediaPlayer@@QAEXXZ 
?CloseInterfaces@CMediaPlayer@@QAEXXZ 
?GetClipFileName@CMediaPlayer@@QAEHPAD@Z 
?GetFilename@CMediaPlayer@@QAEXPAD0@Z 
?HandleGraphEvent@CMediaPlayer@@QAEJXZ 
?InitPlayerWindow@CMediaPlayer@@QAEJXZ 
?InitVideoWindow@CMediaPlayer@@QAEJHH@Z 
?Looping@CMediaPlayer@@QAEHXZ 
?MoveVideoWindow@CMediaPlayer@@QAEXXZ 
?OpenClip@CMediaPlayer@@QAEXXZ 
?PauseClip@CMediaPlayer@@QAEXXZ 
?PlayMedia@CMediaPlayer@@QAEJPBD_N11@Z 
?PlayMovieInWindow@CMediaPlayer@@QAEJPAD@Z 
?PlayState@CMediaPlayer@@QAE?AW4PLAYSTATE@@XZ 
?ShowTitle@CMediaPlayer@@QAEHXZ 
?StopClip@CMediaPlayer@@QAEXXZ 
?ToggleFullScreen@CMediaPlayer@@QAEJXZ 
?ToggleMute@CMediaPlayer@@QAEJXZ 
?UpdateMainTitle@CMediaPlayer@@QAEXXZ 
