LIBRARY MIDDLELINK 
EXPORTS 
??0CCharacterContainer@@QAE@AAV0@@Z 
??0CCharacterContainer@@QAE@XZ 
??0MissionGoal@@QAE@ABV0@@Z 
??0MissionGoal@@QAE@XZ 
??0MissionSystem@@QAE@ABV0@@Z 
??0MissionSystem@@QAE@XZ 
??0MissionTimer@@QAE@ABV0@@Z 
??0MissionTimer@@QAE@XZ 
??1CCharacterContainer@@UAE@XZ 
??1MissionGoal@@UAE@XZ 
??1MissionSystem@@UAE@XZ 
??1MissionTimer@@UAE@XZ 
??4CCharacterContainer@@QAEAAV0@AAV0@@Z 
??4MissionGoal@@QAEAAV0@ABV0@@Z 
??4MissionGoal@@QAEAAV0@PAV0@@Z 
??4MissionSystem@@QAE?AV0@ABV0@@Z 
??4MissionTimer@@QAEAAV0@ABV0@@Z 
??8MissionGoal@@QAE_NAAV0@@Z 
??_7CCharacterContainer@@6B@ 
??_7MissionGoal@@6B@ 
??_7MissionSystem@@6B@ 
??_7MissionTimer@@6B@ 
?ActivateGoals@MissionSystem@@QAEXH@Z 
?AddToMissions@MissionSystem@@QAE_NVCEntityPointer@@@Z 
?AffectsOutcome@MissionGoal@@QAEX_N@Z 
?Clear@CCharacterContainer@@QAEXXZ 
?Clear@MissionGoal@@QAEXXZ 
?CountEntities@MissionSystem@@QAEHVCEntityPointer@@W4t_mgAssignment@@@Z 
?CurrentGoal@MissionSystem@@QAEPAVMissionGoal@@VCEntityPointer@@_N@Z 
?CurrentLevel@MissionSystem@@QAEAAHXZ 
?Destroy@CCharacterContainer@@QAEXXZ 
?Destroy@MissionSystem@@QAEXXZ 
?DumpGoals@MissionSystem@@QAEXXZ 
?DumpSpecificGoal@MissionSystem@@QAE_NAAPAVMissionGoal@@@Z 
?ElapsedTime@MissionTimer@@QAEJ_N@Z 
?EndMission@MissionGoal@@QAE?AW4t_mgState@@XZ 
?EntityHasGoal@MissionSystem@@QAE_NVCEntityPointer@@PAVMissionGoal@@_N@Z 
?Get@CCharacterContainer@@SAAAV1@XZ 
?Get@MissionSystem@@SAAAV1@XZ 
?GetContainer@CCharacterContainer@@QAEPAV?$CDynamicContainer@VCEntity@@@@VCTString@@@Z 
?GetCurrentLevel@MissionSystem@@QAEHXZ 
?GetPlayerEndText@MissionSystem@@QAE?AVCTString@@PAVCEntity@@_N@Z 
?GetState@MissionGoal@@QAE?AW4t_mgState@@XZ 
?GetType@MissionGoal@@QAE?AW4t_mgType@@XZ 
?IsActive@MissionGoal@@QAE_NXZ 
?IsCompleted@MissionGoal@@QAE_NXZ 
?IsExpired@MissionGoal@@QAE_NXZ 
?IsFailed@MissionGoal@@QAE_NXZ 
?IsPaused@MissionGoal@@QAE_NXZ 
?IsProperClass@MissionSystem@@QAE_NVCEntityPointer@@PAVMissionGoal@@W4t_QuerryType@1@@Z 
?IsRunning@MissionGoal@@QAE_NXZ 
?Level@MissionGoal@@QAEAAJXZ 
?LoadGoals@MissionSystem@@QAEXXZ 
?Message@MissionSystem@@QAEXVCEntityPointer@@W4t_msEvent@@PAX@Z 
?Metric@MissionGoal@@QAEAAJXZ 
?MissionCount@MissionSystem@@QAEHXZ 
?OwnerHasMostKills@MissionGoal@@QAE_NXZ 
?PauseMission@MissionGoal@@QAEXXZ 
?PauseTimer@MissionTimer@@QAE_NXZ 
?ResetTimer@MissionTimer@@QAEXXZ 
?RestartTimer@MissionTimer@@QAE_NXZ 
?ResumeMission@MissionGoal@@QAEXXZ 
?SetCompleted@MissionGoal@@QAEXXZ 
?SetCurrentLevel@MissionSystem@@QAEHH@Z 
?SetFailed@MissionGoal@@QAEXXZ 
?SetOwner@MissionGoal@@QAEXVCEntityPointer@@@Z 
?SetState@MissionGoal@@QAE?AW4t_mgState@@W42@@Z 
?SetTimeToComplete@MissionGoal@@QAEXJ@Z 
?SetType@MissionGoal@@QAE?AW4t_mgType@@W42@@Z 
?StartAllGoals@MissionSystem@@QAEXXZ 
?StartMission@MissionGoal@@QAE_N_N@Z 
?StartTimer@MissionTimer@@QAE_NXZ 
?StopTimer@MissionTimer@@QAEJ_N@Z 
?Thumbnail@MissionGoal@@QAEAAVCTFileName@@XZ 
?UniqueID@MissionGoal@@QAEJXZ 
?Update@MissionGoal@@QAEXXZ 
?UpdateGoals@MissionSystem@@QAEXVCEntityPointer@@@Z 
?_pgCharacterContainer@@3PAVCCharacterContainer@@A 
?_pgMissionSystem@@3PAVMissionSystem@@A 
?m_szState@MissionGoal@@2PAPADA 
?nContainerReference@@3HA 
?nReferenceCount@@3HA 
