Microsoft (R) COFF/PE Dumper Version 10.00.30319.01
Copyright (C) Microsoft Corporation.  All rights reserved.


Dump of file Engine.dll

File Type: DLL

  Section contains the following exports for Engine.dll

    00000000 characteristics
    3DFEEE6A time date stamp Tue Dec 17 12:29:14 2002
        0.00 version
           1 ordinal base
        3532 number of functions
        3532 number of names

    ordinal hint RVA      name

          1    0 000024D0 ??0CAnimData@@QAE@XZ
          2    1 000037C0 ??0CAnimObject@@QAE@XZ
          3    2 0001B340 ??0CAnimSet@@QAE@ABV0@@Z
          4    3 00133760 ??0CAnimSet@@QAE@XZ
          5    4 000123C0 ??0CAnyProjection3D@@QAE@ABV0@@Z
          6    5 00012370 ??0CAnyProjection3D@@QAE@XZ
          7    6 00089C00 ??0CAttachedModel@@QAE@ABV0@@Z
          8    7 0008CD60 ??0CAttachedModel@@QAE@XZ
          9    8 000975D0 ??0CAttachedModelPosition@@QAE@XZ
         10    9 00089E30 ??0CAttachedSound@@QAE@ABV0@@Z
         11    A 0008D120 ??0CAttachedSound@@QAE@XZ
         12    B 0001A900 ??0CAttachmentModelObject@@QAE@ABV0@@Z
         13    C 0001A8B0 ??0CAttachmentModelObject@@QAE@XZ
         14    D 0010DAD0 ??0CAutoPrecacheModel@@QAE@XZ
         15    E 0010D970 ??0CAutoPrecacheSound@@QAE@XZ
         16    F 0010DB90 ??0CAutoPrecacheTexture@@QAE@XZ
         17   10 00015AD0 ??0CBoolDefaultFalse@@QAE@XZ
         18   11 00015770 ??0CBrush3D@@QAE@ABV0@@Z
         19   12 00116140 ??0CBrush3D@@QAE@XZ
         20   13 000AB3C0 ??0CBrushArchive@@QAE@AAV0@@Z
         21   14 000AB350 ??0CBrushArchive@@QAE@XZ
         22   15 000147D0 ??0CBrushBase@@QAE@ABV0@@Z
         23   16 000147C0 ??0CBrushBase@@QAE@XZ
         24   17 000148F0 ??0CBrushEdge@@QAE@PAVCBrushVertex@@0@Z
         25   18 000148E0 ??0CBrushEdge@@QAE@XZ
         26   19 00015660 ??0CBrushMip@@QAE@AAV0@@Z
         27   1A 0011AB20 ??0CBrushMip@@QAE@XZ
         28   1B 00014890 ??0CBrushPlane@@QAE@XZ
         29   1C 00015160 ??0CBrushPolygon@@QAE@ABV0@@Z
         30   1D 00014F50 ??0CBrushPolygon@@QAE@XZ
         31   1E 00014EB0 ??0CBrushPolygonTexture@@QAE@ABV0@@Z
         32   1F 00014E00 ??0CBrushPolygonTexture@@QAE@XZ
         33   20 0011E680 ??0CBrushSector@@QAE@ABV0@@Z
         34   21 0011E7A0 ??0CBrushSector@@QAE@XZ
         35   22 00014B80 ??0CBrushShadowLayer@@QAE@ABV0@@Z
         36   23 00122450 ??0CBrushShadowLayer@@QAE@XZ
         37   24 00014C50 ??0CBrushShadowMap@@QAE@ABV0@@Z
         38   25 001230A0 ??0CBrushShadowMap@@QAE@XZ
         39   26 000147F0 ??0CBrushVertex@@QAE@XZ
         40   27 000BDEE0 ??0CCastRay@@QAE@PAVCEntity@@ABV?$Vector@M$02@@1@Z
         41   28 000BDDA0 ??0CCastRay@@QAE@PAVCEntity@@ABVCPlacement3D@@@Z
         42   29 000BDE40 ??0CCastRay@@QAE@PAVCEntity@@ABVCPlacement3D@@M@Z
         43   2A 00004770 ??0CChangeable@@QAE@XZ
         44   2B 000047C0 ??0CChangeableRT@@QAE@XZ
         45   2C 00001710 ??0CChunkID@@QAE@PBD@Z
         46   2D 00109240 ??0CCollisionInfo@@QAE@ABV0@@Z
         47   2E 000B03B0 ??0CCollisionInfo@@QAE@XZ
         48   2F 00017EA0 ??0CCommunicationInterface@@QAE@ABV0@@Z
         49   30 000DDBB0 ??0CCommunicationInterface@@QAE@XZ
         50   31 000802A0 ??0CContentType@@QAE@ABV0@@Z
         51   32 00080250 ??0CContentType@@QAE@XZ
         52   33 000193D0 ??0CDisableAsyncProgress@@QAE@XZ
         53   34 00048E20 ??0CDisplayMode@@QAE@XZ
         54   35 00049AC0 ??0CDrawPort@@QAE@PAV0@ABV?$AABBox@J$01@@@Z
         55   36 00049F00 ??0CDrawPort@@QAE@PAV0@J@Z
         56   37 00049A80 ??0CDrawPort@@QAE@PAV0@NNNN@Z
         57   38 00049460 ??0CDrawPort@@QAE@PBV0@@Z
         58   39 00049340 ??0CDrawPort@@QAE@XZ
         59   3A 0008A090 ??0CEditModel@@QAE@AAV0@@Z
         60   3B 0008A870 ??0CEditModel@@QAE@XZ
         61   3C 00017720 ??0CEntity@@QAE@ABV0@@Z
         62   3D 001069F0 ??0CEntity@@QAE@XZ
         63   3E 00027810 ??0CEntityClass@@QAE@ABV0@@Z
         64   3F 00110D50 ??0CEntityClass@@QAE@PAVCDLLEntityClass@@@Z
         65   40 00110CD0 ??0CEntityClass@@QAE@XZ
         66   41 00027560 ??0CEntityComponent@@QAE@ABV0@@Z
         67   42 000274F0 ??0CEntityComponent@@QAE@W4EntityComponentType@@KKPAD@Z
         68   43 00027530 ??0CEntityComponent@@QAE@XZ
         69   44 00015B70 ??0CEntityEvent@@QAE@ABV0@@Z
         70   45 00015AF0 ??0CEntityEvent@@QAE@J@Z
         71   46 00106730 ??0CEntityID@@QAE@ABV0@@Z
         72   47 00106760 ??0CEntityID@@QAE@PAVCEntity@@@Z
         73   48 00106700 ??0CEntityID@@QAE@XZ
         74   49 000187F0 ??0CEntityMessage@@QAE@ABV0@@Z
         75   4A 000187D0 ??0CEntityMessage@@QAE@XZ
         76   4B 00027480 ??0CEntityProperty@@QAE@W4PropertyType@0@PAVCEntityPropertyEnumType@@KJPADDKK@Z
         77   4C 000274C0 ??0CEntityProperty@@QAE@XZ
         78   4D 000803C0 ??0CEnvironmentType@@QAE@ABV0@@Z
         79   4E 000803A0 ??0CEnvironmentType@@QAE@XZ
         80   4F 000F6E10 ??0CFieldSettings@@QAE@ABV0@@Z
         81   50 000F6E00 ??0CFieldSettings@@QAE@XZ
         82   51 00001630 ??0CFileNameNode@@QAE@ABV0@@Z
         83   52 00002460 ??0CFileNameNode@@QAE@PBDPAVCListHead@@@Z
         84   53 00055960 ??0CFontCharData@@QAE@XZ
         85   54 000490E0 ??0CFontData@@QAE@ABV0@@Z
         86   55 00055A30 ??0CFontData@@QAE@XZ
         87   56 00013A00 ??0CGfxLibrary@@QAE@ABV0@@Z
         88   57 00067ED0 ??0CGfxLibrary@@QAE@XZ
         89   58 00080460 ??0CIlluminationType@@QAE@ABV0@@Z
         90   59 00080440 ??0CIlluminationType@@QAE@XZ
         91   5A 0006EA30 ??0CImageInfo@@QAE@XZ
         92   5B 0000B730 ??0CInput@@QAE@XZ
         93   5C 0000AE10 ??0CInputDevice@@QAE@ABV0@@Z
         94   5D 0000C630 ??0CInputDevice@@QAE@XZ
         95   5E 0003D3F0 ??0CIntersector@@QAE@MM@Z
         96   5F 00011450 ??0CIsometricProjection3D@@QAE@ABV0@@Z
         97   60 00011430 ??0CIsometricProjection3D@@QAE@XZ
         98   61 00115020 ??0CLastPositions@@QAE@ABV0@@Z
         99   62 000D4BA0 ??0CLastPositions@@QAE@XZ
        100   63 000F6F10 ??0CLensFlareType@@QAE@XZ
        101   64 000ABD70 ??0CLightSource@@QAE@ABV0@@Z
        102   65 00129490 ??0CLightSource@@QAE@XZ
        103   66 000014A0 ??0CListHead@@QAE@ABV0@@Z
        104   67 00001490 ??0CListHead@@QAE@XZ
        105   68 000014D0 ??0CListNode@@QAE@ABV0@@Z
        106   69 000014C0 ??0CListNode@@QAE@XZ
        107   6A 00017910 ??0CLiveEntity@@QAE@ABV0@@Z
        108   6B 0010F920 ??0CLiveEntity@@QAE@XZ
        109   6C 00010880 ??0CMappingDefinition@@QAE@XZ
        110   6D 00089AE0 ??0CMappingUndo@@QAE@ABV0@@Z
        111   6E 00089AD0 ??0CMappingUndo@@QAE@XZ
        112   6F 00010850 ??0CMappingVectors@@QAE@XZ
        113   70 0001BED0 ??0CMesh@@QAE@ABV0@@Z
        114   71 00137080 ??0CMesh@@QAE@XZ
        115   72 00018940 ??0CMessageDispatcher@@QAE@ABV0@@Z
        116   73 000E7F10 ??0CMessageDispatcher@@QAE@XZ
        117   74 0001A450 ??0CModelCollisionBox@@QAE@ABV0@@Z
        118   75 000973E0 ??0CModelCollisionBox@@QAE@XZ
        119   76 00094FD0 ??0CModelData@@QAE@ABV0@@Z
        120   77 00095620 ??0CModelData@@QAE@XZ
        121   78 0001A5A0 ??0CModelInfo@@QAE@ABV0@@Z
        122   79 0001A570 ??0CModelInfo@@QAE@XZ
        123   7A 0013DF00 ??0CModelInstance@@QAE@AAV0@@Z
        124   7B 0013DB90 ??0CModelInstance@@QAE@XZ
        125   7C 0001B620 ??0CModelInstanceSerial@@QAE@ABV0@@Z
        126   7D 00140500 ??0CModelInstanceSerial@@QAE@XZ
        127   7E 0001A770 ??0CModelObject@@QAE@ABV0@@Z
        128   7F 00098CA0 ??0CModelObject@@QAE@XZ
        129   80 00026F40 ??0CModelPatch@@QAE@ABV0@@Z
        130   81 00095470 ??0CModelPatch@@QAE@XZ
        131   82 00095290 ??0CModelRenderPrefs@@QAE@XZ
        132   83 00085F30 ??0CMovableBrushEntity@@QAE@ABV0@@Z
        133   84 00085F10 ??0CMovableBrushEntity@@QAE@XZ
        134   85 00084D90 ??0CMovableEntity@@QAE@ABV0@@Z
        135   86 00166AA0 ??0CMovableEntity@@QAE@XZ
        136   87 00085670 ??0CMovableModelEntity@@QAE@ABV0@@Z
        137   88 00085650 ??0CMovableModelEntity@@QAE@XZ
        138   89 000B0360 ??0CMovingSphere@@QAE@XZ
        139   8A 000D64A0 ??0CNetworkLibrary@@QAE@XZ
        140   8B 000E8810 ??0CNetworkMessage@@QAE@ABV0@@Z
        141   8C 000E87E0 ??0CNetworkMessage@@QAE@W4NetworkMessageType@@@Z
        142   8D 000E87B0 ??0CNetworkMessage@@QAE@XZ
        143   8E 00018870 ??0CNetworkProvider@@QAE@ABV0@@Z
        144   8F 000E7CB0 ??0CNetworkProvider@@QAE@XZ
        145   90 00018990 ??0CNetworkSession@@QAE@ABV0@@Z
        146   91 000E7D80 ??0CNetworkSession@@QAE@ABVCTString@@@Z
        147   92 000E7CE0 ??0CNetworkSession@@QAE@XZ
        148   93 000329F0 ??0CObject3D@@QAE@AAV0@@Z
        149   94 00032B40 ??0CObject3D@@QAE@XZ
        150   95 000326D0 ??0CObjectPolygon@@QAE@AAV0@@Z
        151   96 00032610 ??0CObjectPolygon@@QAE@XZ
        152   97 000325A0 ??0CObjectPolygonEdge@@QAE@PAVCObjectEdge@@@Z
        153   98 000325C0 ??0CObjectPolygonEdge@@QAE@PAVCObjectEdge@@H@Z
        154   99 00032590 ??0CObjectPolygonEdge@@QAE@XZ
        155   9A 00037FA0 ??0CObjectSector@@QAE@XZ
        156   9B 000F6E70 ??0COneLensFlare@@QAE@ABV0@@Z
        157   9C 000F6E60 ??0COneLensFlare@@QAE@XZ
        158   9D 00011940 ??0CParallelProjection3D@@QAE@ABV0@@Z
        159   9E 00011920 ??0CParallelProjection3D@@QAE@XZ
        160   9F 00010EA0 ??0CPerspectiveProjection3D@@QAE@ABV0@@Z
        161   A0 00040320 ??0CPerspectiveProjection3D@@QAE@XZ
        162   A1 000108F0 ??0CPlacement3D@@QAE@ABV?$Vector@M$02@@0@Z
        163   A2 000108E0 ??0CPlacement3D@@QAE@XZ
        164   A3 000E9650 ??0CPlayerAction@@QAE@XZ
        165   A4 000841B0 ??0CPlayerCharacter@@QAE@ABV0@@Z
        166   A5 00115830 ??0CPlayerCharacter@@QAE@ABVCTString@@@Z
        167   A6 001157B0 ??0CPlayerCharacter@@QAE@XZ
        168   A7 000867F0 ??0CPlayerEntity@@QAE@ABV0@@Z
        169   A8 00086790 ??0CPlayerEntity@@QAE@XZ
        170   A9 000D4960 ??0CPlayerSource@@QAE@ABV0@@Z
        171   AA 000EA560 ??0CPlayerSource@@QAE@XZ
        172   AB 0008AB40 ??0CProgressRoutines@@QAE@XZ
        173   AC 000109D0 ??0CProjection3D@@QAE@ABV0@@Z
        174   AD 0003D2B0 ??0CProjection3D@@QAE@XZ
        175   AE 00017B10 ??0CRationalEntity@@QAE@ABV0@@Z
        176   AF 0010FB90 ??0CRationalEntity@@QAE@XZ
        177   B0 00019CB0 ??0CRelationDst@@QAE@XZ
        178   B1 00019C60 ??0CRelationSrc@@QAE@XZ
        179   B2 0009FF40 ??0CRenderModel@@QAE@XZ
        180   B3 00001360 ??0CSerial@@QAE@ABV0@@Z
        181   B4 00020330 ??0CSerial@@QAE@XZ
        182   B5 000847D0 ??0CServer@@QAE@ABV0@@Z
        183   B6 000EBAC0 ??0CServer@@QAE@XZ
        184   B7 000842A0 ??0CSessionState@@QAE@ABV0@@Z
        185   B8 000F0B10 ??0CSessionState@@QAE@XZ
        186   B9 000317D0 ??0CSetFPUPrecision@@QAE@W4FPUPrecisionType@@@Z
        187   BA 0001B890 ??0CShader@@QAE@ABV0@@Z
        188   BB 0001B780 ??0CShader@@QAE@P6AXXZP6AXAAUShaderDesc@@@ZP6AXAAVCTString@@J@ZP6AX3JW4FOGTYPE@@@Z@Z
        189   BC 0001B750 ??0CShader@@QAE@XZ
        190   BD 000D4AC0 ??0CShadingInfo@@QAE@ABV0@@Z
        191   BE 000D4AB0 ??0CShadingInfo@@QAE@XZ
        192   BF 00014630 ??0CShadowMap@@QAE@ABV0@@Z
        193   C0 00073C90 ??0CShadowMap@@QAE@XZ
        194   C1 00008530 ??0CShell@@QAE@AAV0@@Z
        195   C2 00020A20 ??0CShell@@QAE@XZ
        196   C3 00011EB0 ??0CSimpleProjection3D@@QAE@ABV0@@Z
        197   C4 00011E90 ??0CSimpleProjection3D@@QAE@XZ
        198   C5 00042F90 ??0CSimpleProjection3D_DOUBLE@@QAE@XZ
        199   C6 0001B090 ??0CSkeleton@@QAE@ABV0@@Z
        200   C7 0014FD70 ??0CSkeleton@@QAE@XZ
        201   C8 00027270 ??0CSoundData@@QAE@ABV0@@Z
        202   C9 0007E5F0 ??0CSoundData@@QAE@XZ
        203   CA 000804C0 ??0CSoundLibrary@@QAE@XZ
        204   CB 0001AB80 ??0CSoundObject@@QAE@ABV0@@Z
        205   CC 00086E80 ??0CSoundObject@@QAE@XZ
        206   CD 00080180 ??0CSurfaceType@@QAE@ABV0@@Z
        207   CE 00080130 ??0CSurfaceType@@QAE@XZ
        208   CF 0002D970 ??0CTCriticalSection@@QAE@XZ
        209   D0 000012B0 ??0CTFileName@@QAE@ABV0@@Z
        210   D1 00001210 ??0CTFileName@@QAE@ABVCTString@@@Z
        211   D2 000011C0 ??0CTFileName@@QAE@PBD@Z
        212   D3 00001240 ??0CTFileName@@QAE@PBDH@Z
        213   D4 000011F0 ??0CTFileName@@QAE@XZ
        214   D5 00001C30 ??0CTFileStream@@QAE@AAV0@@Z
        215   D6 0002AF50 ??0CTFileStream@@QAE@XZ
        216   D7 00001E80 ??0CTMemoryStream@@QAE@AAV0@@Z
        217   D8 0002BE60 ??0CTMemoryStream@@QAE@PAXJW4OpenMode@CTStream@@@Z
        218   D9 0002BD80 ??0CTMemoryStream@@QAE@XZ
        219   DA 0002D9E0 ??0CTSingleLock@@QAE@PAVCTCriticalSection@@H@Z
        220   DB 000019F0 ??0CTStream@@QAE@AAV0@@Z
        221   DC 0002A9E0 ??0CTStream@@QAE@XZ
        222   DD 000010F0 ??0CTString@@QAA@JPBDZZ
        223   DE 00001090 ??0CTString@@QAE@ABV0@@Z
        224   DF 000010B0 ??0CTString@@QAE@PBD@Z
        225   E0 000010D0 ??0CTString@@QAE@PBG@Z
        226   E1 00001070 ??0CTString@@QAE@XZ
        227   E2 000075C0 ??0CTWString@@QAE@ABV0@@Z
        228   E3 00007600 ??0CTWString@@QAE@PBD@Z
        229   E4 000075E0 ??0CTWString@@QAE@PBG@Z
        230   E5 00007510 ??0CTWString@@QAE@XZ
        231   E6 000675D0 ??0CTerrain@@QAE@ABV0@@Z
        232   E7 001514F0 ??0CTerrain@@QAE@XZ
        233   E8 000AB8C0 ??0CTerrainArchive@@QAE@AAV0@@Z
        234   E9 000AB860 ??0CTerrainArchive@@QAE@XZ
        235   EA 00106530 ??0CTerrainLayer@@QAE@ABV0@@Z
        236   EB 00157770 ??0CTerrainLayer@@QAE@XZ
        237   EC 000800B0 ??0CTextureBlending@@QAE@ABV0@@Z
        238   ED 000ABEB0 ??0CTextureBlending@@QAE@XZ
        239   EE 00014360 ??0CTextureData@@QAE@ABV0@@Z
        240   EF 000757F0 ??0CTextureData@@QAE@XZ
        241   F0 000899C0 ??0CTextureDataInfo@@QAE@ABV0@@Z
        242   F1 00089960 ??0CTextureDataInfo@@QAE@XZ
        243   F2 000145D0 ??0CTextureObject@@QAE@ABV0@@Z
        244   F3 00078470 ??0CTextureObject@@QAE@XZ
        245   F4 00080030 ??0CTextureTransformation@@QAE@ABV0@@Z
        246   F5 000ABE30 ??0CTextureTransformation@@QAE@XZ
        247   F6 00089ED0 ??0CThumbnailSettings@@QAE@ABV0@@Z
        248   F7 0008A600 ??0CThumbnailSettings@@QAE@XZ
        249   F8 000021A0 ??0CTimer@@QAE@ABV0@@Z
        250   F9 0002DDA0 ??0CTimer@@QAE@H@Z
        251   FA 000316A0 ??0CUpdateable@@QAE@XZ
        252   FB 000316E0 ??0CUpdateableRT@@QAE@XZ
        253   FC 0000B3A0 ??0CViewPort@@QAE@ABV0@@Z
        254   FD 0007E0A0 ??0CViewPort@@QAE@JJPAUHWND__@@@Z
        255   FE 000ABF20 ??0CWorld@@QAE@XZ
        256   FF 000F7940 ??0CWorldRenderPrefs@@QAE@XZ
        257  100 00015F40 ??0EBegin@@QAE@ABV0@@Z
        258  101 00164E10 ??0EBegin@@QAE@XZ
        259  102 00016580 ??0EBlock@@QAE@ABV0@@Z
        260  103 001650F0 ??0EBlock@@QAE@XZ
        261  104 00016D10 ??0EDamage@@QAE@ABV0@@Z
        262  105 00165420 ??0EDamage@@QAE@XZ
        263  106 00016FB0 ??0EDeath@@QAE@ABV0@@Z
        264  107 00165590 ??0EDeath@@QAE@XZ
        265  108 00016C00 ??0EFirstWorldBase@@QAE@ABV0@@Z
        266  109 00165380 ??0EFirstWorldBase@@QAE@XZ
        267  10A 00015C40 ??0EInternal@@QAE@ABV0@@Z
        268  10B 00164CF0 ??0EInternal@@QAE@XZ
        269  10C 00016380 ??0EPass@@QAE@ABV0@@Z
        270  10D 00165000 ??0EPass@@QAE@XZ
        271  10E 000173A0 ??0EPlayerInit@@QAE@ABV0@@Z
        272  10F 00165750 ??0EPlayerInit@@QAE@XZ
        273  110 00016AE0 ??0EPostLevelChange@@QAE@ABV0@@Z
        274  111 00165310 ??0EPostLevelChange@@QAE@XZ
        275  112 000169C0 ??0EPreLevelChange@@QAE@ABV0@@Z
        276  113 001652A0 ??0EPreLevelChange@@QAE@XZ
        277  114 00015E40 ??0EReturn@@QAE@ABV0@@Z
        278  115 00164DB0 ??0EReturn@@QAE@XZ
        279  116 00017280 ??0ETakingBreath@@QAE@ABV0@@Z
        280  117 001656D0 ??0ETakingBreath@@QAE@XZ
        281  118 000168C0 ??0ETeleport@@QAE@ABV0@@Z
        282  119 00165240 ??0ETeleport@@QAE@XZ
        283  11A 00016040 ??0ETimer@@QAE@ABV0@@Z
        284  11B 00164E70 ??0ETimer@@QAE@XZ
        285  11C 00016140 ??0ETouch@@QAE@ABV0@@Z
        286  11D 00164F00 ??0ETouch@@QAE@XZ
        287  11E 00015D40 ??0EVoid@@QAE@ABV0@@Z
        288  11F 00164D50 ??0EVoid@@QAE@XZ
        289  120 000167C0 ??0EWouldFall@@QAE@ABV0@@Z
        290  121 001651E0 ??0EWouldFall@@QAE@XZ
        291  122 0001A050 ??0MappingSurface@@QAE@ABU0@@Z
        292  123 00098C50 ??0MappingSurface@@QAE@XZ
        293  124 0001BAD0 ??0MeshLOD@@QAE@ABU0@@Z
        294  125 00136260 ??0MeshLOD@@QAE@XZ
        295  126 0001BDF0 ??0MeshMorphMap@@QAE@XZ
        296  127 00136B00 ??0MeshSurface@@QAE@XZ
        297  128 0001BC00 ??0MeshUVMap@@QAE@XZ
        298  129 0001BD10 ??0MeshWeightMap@@QAE@XZ
        299  12A 00019F30 ??0ModelFrameInfo@@QAE@XZ
        300  12B 00019F00 ??0ModelFrameVertex16@@QAE@XZ
        301  12C 00019ED0 ??0ModelFrameVertex16_old@@QAE@XZ
        302  12D 00019EB0 ??0ModelFrameVertex8@@QAE@XZ
        303  12E 00096AD0 ??0ModelMipInfo@@QAE@XZ
        304  12F 000989F0 ??0ModelPolygon@@QAE@XZ
        305  130 00095E70 ??0ModelTextureVertex@@QAE@XZ
        306  131 0001A340 ??0PolygonsPerPatch@@QAE@XZ
        307  132 0001B060 ??0SkeletonBone@@QAE@XZ
        308  133 0001AE80 ??0SkeletonLOD@@QAE@ABU0@@Z
        309  134 0001AE20 ??0SkeletonLOD@@QAE@XZ
        310  135 0001A410 ??0TransformedVertexData@@QAE@XZ
        311  136 000024F0 ??1CAnimData@@UAE@XZ
        312  137 000037F0 ??1CAnimObject@@QAE@XZ
        313  138 00133780 ??1CAnimSet@@UAE@XZ
        314  139 0008CDF0 ??1CAttachedModel@@QAE@XZ
        315  13A 00089EC0 ??1CAttachedSound@@QAE@XZ
        316  13B 0001AAA0 ??1CAttachmentModelObject@@QAE@XZ
        317  13C 0010DAE0 ??1CAutoPrecacheModel@@QAE@XZ
        318  13D 0010D980 ??1CAutoPrecacheSound@@QAE@XZ
        319  13E 0010DBA0 ??1CAutoPrecacheTexture@@QAE@XZ
        320  13F 00116200 ??1CBrush3D@@QAE@XZ
        321  140 000AB6B0 ??1CBrushArchive@@UAE@XZ
        322  141 00015700 ??1CBrushMip@@QAE@XZ
        323  142 00015040 ??1CBrushPolygon@@QAE@XZ
        324  143 00014F40 ??1CBrushPolygonTexture@@QAE@XZ
        325  144 0011E8C0 ??1CBrushSector@@QAE@XZ
        326  145 00122480 ??1CBrushShadowLayer@@QAE@XZ
        327  146 001231B0 ??1CBrushShadowMap@@QAE@XZ
        328  147 000BDF50 ??1CCastRay@@QAE@XZ
        329  148 000B04B0 ??1CCollisionInfo@@QAE@XZ
        330  149 00017E40 ??1CCommunicationInterface@@QAE@XZ
        331  14A 00080390 ??1CContentType@@QAE@XZ
        332  14B 000193F0 ??1CDisableAsyncProgress@@QAE@XZ
        333  14C 000493A0 ??1CDrawPort@@QAE@XZ
        334  14D 0008A970 ??1CEditModel@@UAE@XZ
        335  14E 00106B00 ??1CEntity@@UAE@XZ
        336  14F 00110DD0 ??1CEntityClass@@UAE@XZ
        337  150 00027630 ??1CEntityComponent@@QAE@XZ
        338  151 00015B10 ??1CEntityEvent@@UAE@XZ
        339  152 00106710 ??1CEntityID@@QAE@XZ
        340  153 000187E0 ??1CEntityMessage@@QAE@XZ
        341  154 00080430 ??1CEnvironmentType@@QAE@XZ
        342  155 000F6E50 ??1CFieldSettings@@QAE@XZ
        343  156 00001690 ??1CFileNameNode@@QAE@XZ
        344  157 00055B00 ??1CFontData@@UAE@XZ
        345  158 000680E0 ??1CGfxLibrary@@QAE@XZ
        346  159 000804B0 ??1CIlluminationType@@QAE@XZ
        347  15A 0006EA40 ??1CImageInfo@@QAE@XZ
        348  15B 0000B8A0 ??1CInput@@QAE@XZ
        349  15C 0000C6A0 ??1CInputDevice@@QAE@XZ
        350  15D 000D4C40 ??1CLastPositions@@QAE@XZ
        351  15E 000F6FE0 ??1CLensFlareType@@QAE@XZ
        352  15F 001294D0 ??1CLightSource@@QAE@XZ
        353  160 000014F0 ??1CListNode@@QAE@XZ
        354  161 00017A50 ??1CLiveEntity@@UAE@XZ
        355  162 00089BE0 ??1CMappingUndo@@QAE@XZ
        356  163 001370A0 ??1CMesh@@UAE@XZ
        357  164 000E7F70 ??1CMessageDispatcher@@QAE@XZ
        358  165 0001A510 ??1CModelCollisionBox@@QAE@XZ
        359  166 00095D10 ??1CModelData@@UAE@XZ
        360  167 0001A750 ??1CModelInfo@@QAE@XZ
        361  168 0013DD90 ??1CModelInstance@@QAE@XZ
        362  169 00140520 ??1CModelInstanceSerial@@UAE@XZ
        363  16A 00098D70 ??1CModelObject@@QAE@XZ
        364  16B 00026FF0 ??1CModelPatch@@QAE@XZ
        365  16C 000866F0 ??1CMovableBrushEntity@@UAE@XZ
        366  16D 00166B40 ??1CMovableEntity@@UAE@XZ
        367  16E 00085E70 ??1CMovableModelEntity@@UAE@XZ
        368  16F 000D6760 ??1CNetworkLibrary@@QAE@XZ
        369  170 000E88B0 ??1CNetworkMessage@@QAE@XZ
        370  171 000188E0 ??1CNetworkProvider@@QAE@XZ
        371  172 00018B40 ??1CNetworkSession@@QAE@XZ
        372  173 00032B60 ??1CObject3D@@QAE@XZ
        373  174 00032990 ??1CObjectPolygon@@QAE@XZ
        374  175 00038070 ??1CObjectSector@@QAE@XZ
        375  176 000F6F00 ??1COneLensFlare@@QAE@XZ
        376  177 00084240 ??1CPlayerCharacter@@QAE@XZ
        377  178 00086D50 ??1CPlayerEntity@@UAE@XZ
        378  179 000EA5F0 ??1CPlayerSource@@QAE@XZ
        379  17A 00017D20 ??1CRationalEntity@@UAE@XZ
        380  17B 00019CC0 ??1CRelationDst@@QAE@XZ
        381  17C 00019C70 ??1CRelationSrc@@QAE@XZ
        382  17D 0009FF70 ??1CRenderModel@@QAE@XZ
        383  17E 00020370 ??1CSerial@@UAE@XZ
        384  17F 000EBC80 ??1CServer@@QAE@XZ
        385  180 000F0C40 ??1CSessionState@@QAE@XZ
        386  181 00031800 ??1CSetFPUPrecision@@QAE@XZ
        387  182 0001B800 ??1CShader@@UAE@XZ
        388  183 000D4B80 ??1CShadingInfo@@QAE@XZ
        389  184 00073CF0 ??1CShadowMap@@QAE@XZ
        390  185 00020AF0 ??1CShell@@QAE@XZ
        391  186 0014FD90 ??1CSkeleton@@UAE@XZ
        392  187 0007E630 ??1CSoundData@@UAE@XZ
        393  188 00080590 ??1CSoundLibrary@@QAE@XZ
        394  189 00086F20 ??1CSoundObject@@QAE@XZ
        395  18A 00080240 ??1CSurfaceType@@QAE@XZ
        396  18B 0002D990 ??1CTCriticalSection@@QAE@XZ
        397  18C 00001320 ??1CTFileName@@QAE@XZ
        398  18D 0002AFD0 ??1CTFileStream@@UAE@XZ
        399  18E 0002BF70 ??1CTMemoryStream@@UAE@XZ
        400  18F 0002DA10 ??1CTSingleLock@@QAE@XZ
        401  190 0002AB60 ??1CTStream@@UAE@XZ
        402  191 00001120 ??1CTString@@QAE@XZ
        403  192 00007680 ??1CTWString@@QAE@XZ
        404  193 001515A0 ??1CTerrain@@QAE@XZ
        405  194 000ABBA0 ??1CTerrainArchive@@UAE@XZ
        406  195 00157A00 ??1CTerrainLayer@@QAE@XZ
        407  196 00080120 ??1CTextureBlending@@QAE@XZ
        408  197 000758A0 ??1CTextureData@@UAE@XZ
        409  198 00089A70 ??1CTextureDataInfo@@QAE@XZ
        410  199 000145F0 ??1CTextureObject@@QAE@XZ
        411  19A 000800A0 ??1CTextureTransformation@@QAE@XZ
        412  19B 0008A040 ??1CThumbnailSettings@@QAE@XZ
        413  19C 0002E220 ??1CTimer@@QAE@XZ
        414  19D 0007E110 ??1CViewPort@@QAE@XZ
        415  19E 000AC4E0 ??1CWorld@@QAE@XZ
        416  19F 00015F80 ??1EBegin@@UAE@XZ
        417  1A0 00016630 ??1EBlock@@UAE@XZ
        418  1A1 00016E00 ??1EDamage@@UAE@XZ
        419  1A2 000170B0 ??1EDeath@@UAE@XZ
        420  1A3 00016C40 ??1EFirstWorldBase@@UAE@XZ
        421  1A4 00015C80 ??1EInternal@@UAE@XZ
        422  1A5 00016400 ??1EPass@@UAE@XZ
        423  1A6 00017400 ??1EPlayerInit@@UAE@XZ
        424  1A7 00016B30 ??1EPostLevelChange@@UAE@XZ
        425  1A8 00016A10 ??1EPreLevelChange@@UAE@XZ
        426  1A9 00015E80 ??1EReturn@@UAE@XZ
        427  1AA 000172D0 ??1ETakingBreath@@UAE@XZ
        428  1AB 00016900 ??1ETeleport@@UAE@XZ
        429  1AC 00016080 ??1ETimer@@UAE@XZ
        430  1AD 000161F0 ??1ETouch@@UAE@XZ
        431  1AE 00015D80 ??1EVoid@@UAE@XZ
        432  1AF 00016800 ??1EWouldFall@@UAE@XZ
        433  1B0 00098BD0 ??1MappingSurface@@QAE@XZ
        434  1B1 001362F0 ??1MeshLOD@@QAE@XZ
        435  1B2 0001BE80 ??1MeshMorphMap@@QAE@XZ
        436  1B3 00136B40 ??1MeshSurface@@QAE@XZ
        437  1B4 0001BCA0 ??1MeshUVMap@@QAE@XZ
        438  1B5 0001BDA0 ??1MeshWeightMap@@QAE@XZ
        439  1B6 00098A80 ??1ModelMipInfo@@QAE@XZ
        440  1B7 00098A00 ??1ModelPolygon@@QAE@XZ
        441  1B8 0001A280 ??1PolygonsPerPatch@@QAE@XZ
        442  1B9 0001AFE0 ??1SkeletonLOD@@QAE@XZ
        443  1BA 0001B3A0 ??4CAnimSet@@QAEAAV0@ABV0@@Z
        444  1BB 00012AF0 ??4CAnyProjection3D@@QAEXABV0@@Z
        445  1BC 000130F0 ??4CAnyProjection3D@@QAEXABVCIsometricProjection3D@@@Z
        446  1BD 00013630 ??4CAnyProjection3D@@QAEXABVCParallelProjection3D@@@Z
        447  1BE 00013360 ??4CAnyProjection3D@@QAEXABVCPerspectiveProjection3D@@@Z
        448  1BF 00012E90 ??4CAnyProjection3D@@QAEXABVCSimpleProjection3D@@@Z
        449  1C0 00089D10 ??4CAttachedModel@@QAEAAV0@ABV0@@Z
        450  1C1 0001A530 ??4CAttachedModelPosition@@QAEAAV0@ABV0@@Z
        451  1C2 00089E70 ??4CAttachedSound@@QAEAAV0@ABV0@@Z
        452  1C3 0001AA00 ??4CAttachmentModelObject@@QAEAAV0@ABV0@@Z
        453  1C4 000AB330 ??4CAutoPrecacheModel@@QAEAAV0@ABV0@@Z
        454  1C5 000AB320 ??4CAutoPrecacheSound@@QAEAAV0@ABV0@@Z
        455  1C6 000AB340 ??4CAutoPrecacheTexture@@QAEAAV0@ABV0@@Z
        456  1C7 00015AE0 ??4CBoolDefaultFalse@@QAEAAV0@ABV0@@Z
        457  1C8 00015910 ??4CBrush3D@@QAEAAV0@ABV0@@Z
        458  1C9 000AB530 ??4CBrushArchive@@QAEAAV0@AAV0@@Z
        459  1CA 000147E0 ??4CBrushBase@@QAEAAV0@ABV0@@Z
        460  1CB 00014930 ??4CBrushEdge@@QAEAAV0@ABV0@@Z
        461  1CC 000156B0 ??4CBrushMip@@QAEAAV0@AAV0@@Z
        462  1CD 000148C0 ??4CBrushPlane@@QAEAAV0@ABV0@@Z
        463  1CE 00015310 ??4CBrushPolygon@@QAEAAV0@ABV0@@Z
        464  1CF 00014B60 ??4CBrushPolygonEdge@@QAEAAV0@ABV0@@Z
        465  1D0 00014EF0 ??4CBrushPolygonTexture@@QAEAAV0@ABV0@@Z
        466  1D1 0011E790 ??4CBrushSector@@QAEAAV0@ABV0@@Z
        467  1D2 00014BE0 ??4CBrushShadowLayer@@QAEAAV0@ABV0@@Z
        468  1D3 00014D30 ??4CBrushShadowMap@@QAEAAV0@ABV0@@Z
        469  1D4 00014870 ??4CBrushVertex@@QAEAAV0@ABV0@@Z
        470  1D5 0006FB40 ??4CCastRay@@QAEAAV0@ABV0@@Z
        471  1D6 00001000 ??4CChangeable@@QAEAAV0@ABV0@@Z
        472  1D7 00004740 ??4CChangeableRT@@QAEAAV0@ABV0@@Z
        473  1D8 000016D0 ??4CChunkID@@QAEAAV0@ABV0@@Z
        474  1D9 000B0420 ??4CCollisionInfo@@QAEAAV0@ABV0@@Z
        475  1DA 00017F40 ??4CCommunicationInterface@@QAEAAV0@ABV0@@Z
        476  1DB 00080310 ??4CContentType@@QAEAAV0@ABV0@@Z
        477  1DC 00027660 ??4CDLLEntityClass@@QAEAAV0@ABV0@@Z
        478  1DD 00027640 ??4CDLLEntityEvent@@QAEAAV0@ABV0@@Z
        479  1DE 00010820 ??4CDisableAsyncProgress@@QAEAAV0@ABV0@@Z
        480  1DF 000085C0 ??4CDisplayMode@@QAEAAV0@ABV0@@Z
        481  1E0 000493B0 ??4CDrawPort@@QAEAAV0@AAV0@@Z
        482  1E1 0008A2D0 ??4CEditModel@@QAEAAV0@AAV0@@Z
        483  1E2 000174D0 ??4CEntity@@UAEAAV0@AAV0@@Z
        484  1E3 000278B0 ??4CEntityClass@@QAEAAV0@ABV0@@Z
        485  1E4 000275C0 ??4CEntityComponent@@QAEAAV0@ABV0@@Z
        486  1E5 00015B90 ??4CEntityEvent@@QAEAAV0@ABV0@@Z
        487  1E6 001067F0 ??4CEntityID@@QAEABV0@AAV0@@Z
        488  1E7 00106830 ??4CEntityID@@QAEABV0@K@Z
        489  1E8 001067A0 ??4CEntityID@@QAEABV0@PAVCEntity@@@Z
        490  1E9 00018830 ??4CEntityMessage@@QAEAAV0@ABV0@@Z
        491  1EA 000274D0 ??4CEntityProperty@@QAEAAV0@ABV0@@Z
        492  1EB 000803F0 ??4CEnvironmentType@@QAEAAV0@ABV0@@Z
        493  1EC 000F6E30 ??4CFieldSettings@@QAEAAV0@ABV0@@Z
        494  1ED 00001660 ??4CFileNameNode@@QAEAAV0@ABV0@@Z
        495  1EE 00048F90 ??4CFontCharData@@QAEAAV0@ABV0@@Z
        496  1EF 000491C0 ??4CFontData@@QAEAAV0@ABV0@@Z
        497  1F0 00013DD0 ??4CGfxLibrary@@QAEAAV0@ABV0@@Z
        498  1F1 00080480 ??4CIlluminationType@@QAEAAV0@ABV0@@Z
        499  1F2 00048F60 ??4CImageInfo@@QAEAAV0@ABV0@@Z
        500  1F3 0000B050 ??4CInput@@QAEAAV0@ABV0@@Z
        501  1F4 0000AE90 ??4CInputDevice@@QAEAAV0@ABV0@@Z
        502  1F5 0003D440 ??4CIntersector@@QAEAAV0@ABV0@@Z
        503  1F6 000116C0 ??4CIsometricProjection3D@@QAEAAV0@ABV0@@Z
        504  1F7 000D4BB0 ??4CLastPositions@@QAEAAV0@ABV0@@Z
        505  1F8 000F6F20 ??4CLensFlareType@@QAEAAV0@ABV0@@Z
        506  1F9 000ABDD0 ??4CLightSource@@QAEAAV0@ABV0@@Z
        507  1FA 000014B0 ??4CListHead@@QAEXABV0@@Z
        508  1FB 00001510 ??4CListNode@@QAEAAV0@ABV0@@Z
        509  1FC 00017A30 ??4CLiveEntity@@QAEAAV0@AAV0@@Z
        510  1FD 000108A0 ??4CMappingDefinition@@QAEAAV0@ABV0@@Z
        511  1FE 00010830 ??4CMappingDefinitionUI@@QAEAAV0@ABV0@@Z
        512  1FF 00089B60 ??4CMappingUndo@@QAEAAV0@ABV0@@Z
        513  200 00010860 ??4CMappingVectors@@QAEAAV0@ABV0@@Z
        514  201 0001BF30 ??4CMesh@@QAEAAV0@ABV0@@Z
        515  202 00018960 ??4CMessageDispatcher@@QAEAAV0@ABV0@@Z
        516  203 0001A550 ??4CMipInfo@@QAEAAV0@ABV0@@Z
        517  204 0001A4B0 ??4CModelCollisionBox@@QAEAAV0@ABV0@@Z
        518  205 000950D0 ??4CModelData@@QAEAAV0@ABV0@@Z
        519  206 0001A660 ??4CModelInfo@@QAEAAV0@ABV0@@Z
        520  207 0013DFC0 ??4CModelInstance@@QAEXAAV0@@Z
        521  208 0001B670 ??4CModelInstanceSerial@@QAEAAV0@ABV0@@Z
        522  209 0001A840 ??4CModelObject@@QAEAAV0@ABV0@@Z
        523  20A 00026FB0 ??4CModelPatch@@QAEAAV0@ABV0@@Z
        524  20B 00089900 ??4CModelRenderPrefs@@QAEAAV0@ABV0@@Z
        525  20C 00086310 ??4CMovableBrushEntity@@QAEAAV0@AAV0@@Z
        526  20D 00085170 ??4CMovableEntity@@QAEAAV0@AAV0@@Z
        527  20E 00085A70 ??4CMovableModelEntity@@QAEAAV0@AAV0@@Z
        528  20F 000B0390 ??4CMovingSphere@@QAEAAV0@ABV0@@Z
        529  210 000E8840 ??4CNetworkMessage@@QAEXABV0@@Z
        530  211 000188A0 ??4CNetworkProvider@@QAEAAV0@ABV0@@Z
        531  212 00018A60 ??4CNetworkSession@@QAEAAV0@ABV0@@Z
        532  213 00032F80 ??4CObject3D@@QAEAAV0@AAV0@@Z
        533  214 00032800 ??4CObjectPolygon@@QAEAAV0@AAV0@@Z
        534  215 000325F0 ??4CObjectPolygonEdge@@QAEAAV0@ABV0@@Z
        535  216 0003ADD0 ??4CObjectSector@@QAEAAV0@AAV0@@Z
        536  217 000F6EC0 ??4COneLensFlare@@QAEAAV0@ABV0@@Z
        537  218 00011BF0 ??4CParallelProjection3D@@QAEAAV0@ABV0@@Z
        538  219 00011170 ??4CPerspectiveProjection3D@@QAEAAV0@ABV0@@Z
        539  21A 000108C0 ??4CPlacement3D@@QAEAAV0@ABV0@@Z
        540  21B 000187B0 ??4CPlayerAction@@QAEAAV0@ABV0@@Z
        541  21C 00115E00 ??4CPlayerCharacter@@QAEAAV0@ABV0@@Z
        542  21D 00086910 ??4CPlayerEntity@@QAEAAV0@AAV0@@Z
        543  21E 000D4A30 ??4CPlayerSource@@QAEAAV0@ABV0@@Z
        544  21F 00089940 ??4CProgressRoutines@@QAEAAV0@ABV0@@Z
        545  220 00010C30 ??4CProjection3D@@QAEAAV0@ABV0@@Z
        546  221 00017C70 ??4CRationalEntity@@QAEAAV0@AAV0@@Z
        547  222 00089920 ??4CRenderModel@@QAEAAV0@ABV0@@Z
        548  223 000013B0 ??4CSerial@@QAEAAV0@ABV0@@Z
        549  224 00084A60 ??4CServer@@QAEAAV0@ABV0@@Z
        550  225 00084540 ??4CSessionState@@QAEAAV0@ABV0@@Z
        551  226 00031730 ??4CSetFPUPrecision@@QAEAAV0@ABV0@@Z
        552  227 0001B920 ??4CShader@@QAEAAV0@ABV0@@Z
        553  228 000D4B20 ??4CShadingInfo@@QAEAAV0@ABV0@@Z
        554  229 000146F0 ??4CShadowMap@@QAEAAV0@ABV0@@Z
        555  22A 00008590 ??4CShell@@QAEAAV0@AAV0@@Z
        556  22B 00012110 ??4CSimpleProjection3D@@QAEAAV0@ABV0@@Z
        557  22C 00032B20 ??4CSimpleProjection3D_DOUBLE@@QAEAAV0@ABV0@@Z
        558  22D 0001B0F0 ??4CSkeleton@@QAEAAV0@ABV0@@Z
        559  22E 00027330 ??4CSoundData@@QAEAAV0@ABV0@@Z
        560  22F 0001ACD0 ??4CSoundObject@@QAEAAV0@ABV0@@Z
        561  230 000801E0 ??4CSurfaceType@@QAEAAV0@ABV0@@Z
        562  231 000012E0 ??4CTFileName@@QAEAAV0@ABV0@@Z
        563  232 00008C40 ??4CTFileName@@QAEAAV0@PBD@Z
        564  233 00001270 ??4CTFileName@@QAEXABVCTString@@@Z
        565  234 00001190 ??4CTString@@QAEAAV0@ABV0@@Z
        566  235 00001160 ??4CTString@@QAEAAV0@PBD@Z
        567  236 000076F0 ??4CTWString@@QAEAAV0@ABV0@@Z
        568  237 00007750 ??4CTWString@@QAEAAV0@PBD@Z
        569  238 00007720 ??4CTWString@@QAEAAV0@PBG@Z
        570  239 00067610 ??4CTerrain@@QAEAAV0@ABV0@@Z
        571  23A 000ABA30 ??4CTerrainArchive@@QAEAAV0@AAV0@@Z
        572  23B 001579F0 ??4CTerrainLayer@@QAEAAV0@ABV0@@Z
        573  23C 000800E0 ??4CTextureBlending@@QAEAAV0@ABV0@@Z
        574  23D 00014450 ??4CTextureData@@QAEAAV0@ABV0@@Z
        575  23E 00089A20 ??4CTextureDataInfo@@QAEAAV0@ABV0@@Z
        576  23F 000145E0 ??4CTextureObject@@QAEAAV0@ABV0@@Z
        577  240 00080060 ??4CTextureTransformation@@QAEAAV0@ABV0@@Z
        578  241 00089F80 ??4CThumbnailSettings@@QAEAAV0@ABV0@@Z
        579  242 00002200 ??4CTimer@@QAEAAV0@ABV0@@Z
        580  243 00004750 ??4CUpdateable@@QAEAAV0@ABV0@@Z
        581  244 00004760 ??4CUpdateableRT@@QAEAAV0@ABV0@@Z
        582  245 0000B410 ??4CViewPort@@QAEAAV0@AAV0@@Z
        583  246 000B5BC0 ??4CWorldRenderPrefs@@QAEAAV0@ABV0@@Z
        584  247 00015F60 ??4EBegin@@QAEAAV0@ABV0@@Z
        585  248 000165D0 ??4EBlock@@QAEAAV0@ABV0@@Z
        586  249 00016D80 ??4EDamage@@QAEAAV0@ABV0@@Z
        587  24A 00017030 ??4EDeath@@QAEAAV0@ABV0@@Z
        588  24B 00016C20 ??4EFirstWorldBase@@QAEAAV0@ABV0@@Z
        589  24C 00015C60 ??4EInternal@@QAEAAV0@ABV0@@Z
        590  24D 000163C0 ??4EPass@@QAEAAV0@ABV0@@Z
        591  24E 000173D0 ??4EPlayerInit@@QAEAAV0@ABV0@@Z
        592  24F 00016B10 ??4EPostLevelChange@@QAEAAV0@ABV0@@Z
        593  250 000169F0 ??4EPreLevelChange@@QAEAAV0@ABV0@@Z
        594  251 00015E60 ??4EReturn@@QAEAAV0@ABV0@@Z
        595  252 000172B0 ??4ETakingBreath@@QAEAAV0@ABV0@@Z
        596  253 000168E0 ??4ETeleport@@QAEAAV0@ABV0@@Z
        597  254 00016060 ??4ETimer@@QAEAAV0@ABV0@@Z
        598  255 00016190 ??4ETouch@@QAEAAV0@ABV0@@Z
        599  256 00015D60 ??4EVoid@@QAEAAV0@ABV0@@Z
        600  257 000167E0 ??4EWouldFall@@QAEAAV0@ABV0@@Z
        601  258 0001A120 ??4MappingSurface@@QAEAAU0@ABU0@@Z
        602  259 001365C0 ??4MeshLOD@@QAEXABU0@@Z
        603  25A 0001BE00 ??4MeshMorphMap@@QAEAAU0@ABU0@@Z
        604  25B 0001BBC0 ??4MeshNormal@@QAEAAU0@ABU0@@Z
        605  25C 00136CA0 ??4MeshSurface@@QAEXABU0@@Z
        606  25D 0001BCD0 ??4MeshTexCoord@@QAEAAU0@ABU0@@Z
        607  25E 0001BCF0 ??4MeshTriangle@@QAEAAU0@ABU0@@Z
        608  25F 0001BC20 ??4MeshUVMap@@QAEAAU0@ABU0@@Z
        609  260 0001BBA0 ??4MeshVertex@@QAEAAU0@ABU0@@Z
        610  261 0001BEB0 ??4MeshVertexMorph@@QAEAAU0@ABU0@@Z
        611  262 0001BDD0 ??4MeshVertexWeight@@QAEAAU0@ABU0@@Z
        612  263 0001BBE0 ??4MeshVertexWeightInfo@@QAEAAU0@ABU0@@Z
        613  264 0001BD20 ??4MeshWeightMap@@QAEAAU0@ABU0@@Z
        614  265 00019F60 ??4ModelFrameInfo@@QAEAAU0@ABU0@@Z
        615  266 00019F10 ??4ModelFrameVertex16@@QAEAAU0@ABU0@@Z
        616  267 00019EE0 ??4ModelFrameVertex16_old@@QAEAAU0@ABU0@@Z
        617  268 00019EC0 ??4ModelFrameVertex8@@QAEAAU0@ABU0@@Z
        618  269 00027040 ??4ModelMipInfo@@QAEAAU0@ABU0@@Z
        619  26A 00019FC0 ??4ModelPolygon@@QAEAAU0@ABU0@@Z
        620  26B 00019FA0 ??4ModelPolygonVertex@@QAEAAU0@ABU0@@Z
        621  26C 00019F80 ??4ModelTextureVertex@@QAEAAU0@ABU0@@Z
        622  26D 0001A350 ??4PolygonsPerPatch@@QAEAAU0@ABU0@@Z
        623  26E 0001B070 ??4SkeletonBone@@QAEAAU0@ABU0@@Z
        624  26F 0001AEF0 ??4SkeletonLOD@@QAEAAU0@ABU0@@Z
        625  270 0001A420 ??4TransformedVertexData@@QAEAAU0@ABU0@@Z
        626  271 00044F10 ??5@YAAAVCTStream@@AAV0@AAVCMappingDefinition@@@Z
        627  272 0003C900 ??5@YAAAVCTStream@@AAV0@AAVCPlacement3D@@@Z
        628  273 00115ED0 ??5@YAAAVCTStream@@AAV0@AAVCPlayerCharacter@@@Z
        629  274 00008EB0 ??5@YAAAVCTStream@@AAV0@AAVCTFileName@@@Z
        630  275 000066F0 ??5@YAAAVCTStream@@AAV0@AAVCTString@@@Z
        631  276 00018290 ??5CNetworkMessage@@QAEAAV0@AAC@Z
        632  277 00018170 ??5CNetworkMessage@@QAEAAV0@AAE@Z
        633  278 00018230 ??5CNetworkMessage@@QAEAAV0@AAF@Z
        634  279 00018110 ??5CNetworkMessage@@QAEAAV0@AAG@Z
        635  27A 000181D0 ??5CNetworkMessage@@QAEAAV0@AAJ@Z
        636  27B 000180B0 ??5CNetworkMessage@@QAEAAV0@AAK@Z
        637  27C 00017FF0 ??5CNetworkMessage@@QAEAAV0@AAM@Z
        638  27D 00018050 ??5CNetworkMessage@@QAEAAV0@AAN@Z
        639  27E 000E8A40 ??5CNetworkMessage@@QAEAAV0@AAVCTString@@@Z
        640  27F 000182F0 ??5CNetworkMessage@@QAEAAV0@AAW4NetworkMessageType@@@Z
        641  280 00001890 ??5CTStream@@QAEAAV0@AAC@Z
        642  281 00001830 ??5CTStream@@QAEAAV0@AAE@Z
        643  282 00001870 ??5CTStream@@QAEAAV0@AAF@Z
        644  283 00001810 ??5CTStream@@QAEAAV0@AAG@Z
        645  284 000018B0 ??5CTStream@@QAEAAV0@AAH@Z
        646  285 00001850 ??5CTStream@@QAEAAV0@AAJ@Z
        647  286 000017F0 ??5CTStream@@QAEAAV0@AAK@Z
        648  287 000017B0 ??5CTStream@@QAEAAV0@AAM@Z
        649  288 000017D0 ??5CTStream@@QAEAAV0@AAN@Z
        650  289 00115EB0 ??6@YAAAVCTStream@@AAV0@AAVCPlayerCharacter@@@Z
        651  28A 00044F40 ??6@YAAAVCTStream@@AAV0@ABVCMappingDefinition@@@Z
        652  28B 0003C930 ??6@YAAAVCTStream@@AAV0@ABVCPlacement3D@@@Z
        653  28C 000093F0 ??6@YAAAVCTStream@@AAV0@ABVCTFileName@@@Z
        654  28D 000067B0 ??6@YAAAVCTStream@@AAV0@ABVCTString@@@Z
        655  28E 00018600 ??6CNetworkMessage@@QAEAAV0@ABC@Z
        656  28F 000184E0 ??6CNetworkMessage@@QAEAAV0@ABE@Z
        657  290 000185A0 ??6CNetworkMessage@@QAEAAV0@ABF@Z
        658  291 00018480 ??6CNetworkMessage@@QAEAAV0@ABG@Z
        659  292 00018540 ??6CNetworkMessage@@QAEAAV0@ABJ@Z
        660  293 00018420 ??6CNetworkMessage@@QAEAAV0@ABK@Z
        661  294 00018350 ??6CNetworkMessage@@QAEAAV0@ABM@Z
        662  295 000183B0 ??6CNetworkMessage@@QAEAAV0@ABN@Z
        663  296 000E8B00 ??6CNetworkMessage@@QAEAAV0@ABVCTString@@@Z
        664  297 00018660 ??6CNetworkMessage@@QAEAAV0@ABW4NetworkMessageType@@@Z
        665  298 000019B0 ??6CTStream@@QAEAAV0@ABC@Z
        666  299 00001950 ??6CTStream@@QAEAAV0@ABE@Z
        667  29A 00001990 ??6CTStream@@QAEAAV0@ABF@Z
        668  29B 00001930 ??6CTStream@@QAEAAV0@ABG@Z
        669  29C 000019D0 ??6CTStream@@QAEAAV0@ABH@Z
        670  29D 00001970 ??6CTStream@@QAEAAV0@ABJ@Z
        671  29E 00001910 ??6CTStream@@QAEAAV0@ABK@Z
        672  29F 000018D0 ??6CTStream@@QAEAAV0@ABM@Z
        673  2A0 000018F0 ??6CTStream@@QAEAAV0@ABN@Z
        674  2A1 00005DB0 ??8@YAHPBDABVCTString@@@Z
        675  2A2 00001730 ??8CChunkID@@QBEHABV0@@Z
        676  2A3 00010930 ??8CPlacement3D@@QBEHABV0@@Z
        677  2A4 00115E80 ??8CPlayerCharacter@@QBEHABV0@@Z
        678  2A5 00005D70 ??8CTString@@QBEHABV0@@Z
        679  2A6 00005D90 ??8CTString@@QBEHPBD@Z
        680  2A7 00007780 ??8CTWString@@QBEHABV0@@Z
        681  2A8 000077A0 ??8CTWString@@QBEHPBG@Z
        682  2A9 00096110 ??8MappingSurface@@QBEHABU0@@Z
        683  2AA 00005E10 ??9@YAHPBDABVCTString@@@Z
        684  2AB 000322D0 ??9@YAXAAV?$Matrix@N$02$02@@ABV?$Vector@M$02@@@Z
        685  2AC 00001750 ??9CChunkID@@QBEHABV0@@Z
        686  2AD 00005DD0 ??9CTString@@QBEHABV0@@Z
        687  2AE 00005DF0 ??9CTString@@QBEHPBD@Z
        688  2AF 000077C0 ??9CTWString@@QBEHABV0@@Z
        689  2B0 000077E0 ??9CTWString@@QBEHPBG@Z
        690  2B1 00012AE0 ??BCAnyProjection3D@@QAEPAVCProjection3D@@XZ
        691  2B2 000016C0 ??BCChunkID@@QAEPADXZ
        692  2B3 000016B0 ??BCChunkID@@QBEPBDXZ
        693  2B4 00106890 ??BCEntityID@@QBEPAVCEntity@@XZ
        694  2B5 00001150 ??BCTString@@QBEPBDXZ
        695  2B6 00007500 ??BCTWString@@QBEPBGXZ
        696  2B7 00012AD0 ??CCAnyProjection3D@@QAEPAVCProjection3D@@XZ
        697  2B8 00106880 ??CCEntityID@@QAEPAVCEntity@@XZ
        698  2B9 001068A0 ??DCEntityID@@QAEAAVCEntity@@XZ
        699  2BA 00005EB0 ??H@YA?AVCTString@@PBDABV0@@Z
        700  2BB 00005E30 ??HCTString@@QBE?AV0@ABV0@@Z
        701  2BC 00007800 ??HCTWString@@QBE?AV0@ABV0@@Z
        702  2BD 00005F30 ??YCTString@@QAEAAV0@ABV0@@Z
        703  2BE 000078E0 ??YCTWString@@QAEAAV0@ABV0@@Z
        704  2BF 00032120 ??_6@YAXAAV?$Matrix@N$02$02@@ABV?$Vector@M$02@@@Z
        705  2C0 00032480 ??_6@YAXAAV?$Vector@M$02@@ABV?$Matrix@N$02$02@@@Z
        706  2C1 001B8B54 ??_7CAnimSet@@6B@
        707  2C2 001B86FC ??_7CBrush3D@@6B@
        708  2C3 001B9B98 ??_7CBrushArchive@@6B@
        709  2C4 001B86E0 ??_7CBrushBase@@6B@
        710  2C5 001B86E4 ??_7CBrushShadowMap@@6B@
        711  2C6 001B9AE4 ??_7CEditModel@@6B@
        712  2C7 001B8820 ??_7CEntity@@6B@
        713  2C8 001B8C24 ??_7CEntityClass@@6B@
        714  2C9 001B8700 ??_7CEntityEvent@@6B@
        715  2CA 001B8DD0 ??_7CFontData@@6B@
        716  2CB 001B85B8 ??_7CIsometricProjection3D@@6B@
        717  2CC 001B8918 ??_7CLiveEntity@@6B@
        718  2CD 001B8BB4 ??_7CMesh@@6B@
        719  2CE 001B9B18 ??_7CModelData@@6B@
        720  2CF 001B8B74 ??_7CModelInstanceSerial@@6B@
        721  2D0 001B9850 ??_7CMovableBrushEntity@@6B@
        722  2D1 001B9610 ??_7CMovableEntity@@6B@
        723  2D2 001B9730 ??_7CMovableModelEntity@@6B@
        724  2D3 001B8608 ??_7CParallelProjection3D@@6B@
        725  2D4 001B8568 ??_7CPerspectiveProjection3D@@6B@
        726  2D5 001B9970 ??_7CPlayerEntity@@6B@
        727  2D6 001B8518 ??_7CProjection3D@@6B@
        728  2D7 001B8A10 ??_7CRationalEntity@@6B@
        729  2D8 001B8440 ??_7CSerial@@6B@
        730  2D9 001B8B94 ??_7CShader@@6B@
        731  2DA 001B86C8 ??_7CShadowMap@@6B@
        732  2DB 001B8658 ??_7CSimpleProjection3D@@6B@
        733  2DC 001B8B34 ??_7CSkeleton@@6B@
        734  2DD 001B8C04 ??_7CSoundData@@6B@
        735  2DE 001B8478 ??_7CTFileStream@@6B@
        736  2DF 001B8490 ??_7CTMemoryStream@@6B@
        737  2E0 001B8460 ??_7CTStream@@6B@
        738  2E1 001B8F3C ??_7CTerrain@@6B@
        739  2E2 001B9BB8 ??_7CTerrainArchive@@6B@
        740  2E3 001B86A4 ??_7CTextureData@@6B@
        741  2E4 001B8740 ??_7EBegin@@6B@
        742  2E5 001B8780 ??_7EBlock@@6B@
        743  2E6 001B87E0 ??_7EDamage@@6B@
        744  2E7 001B87F0 ??_7EDeath@@6B@
        745  2E8 001B87D0 ??_7EFirstWorldBase@@6B@
        746  2E9 001B8710 ??_7EInternal@@6B@
        747  2EA 001B8770 ??_7EPass@@6B@
        748  2EB 001B8810 ??_7EPlayerInit@@6B@
        749  2EC 001B87C0 ??_7EPostLevelChange@@6B@
        750  2ED 001B87B0 ??_7EPreLevelChange@@6B@
        751  2EE 001B8730 ??_7EReturn@@6B@
        752  2EF 001B8800 ??_7ETakingBreath@@6B@
        753  2F0 001B87A0 ??_7ETeleport@@6B@
        754  2F1 001B8750 ??_7ETimer@@6B@
        755  2F2 001B8760 ??_7ETouch@@6B@
        756  2F3 001B8720 ??_7EVoid@@6B@
        757  2F4 001B8790 ??_7EWouldFall@@6B@
        758  2F5 0021ECD8 ??_C@_00A@?$AA@
        759  2F6 00202500 ??_C@_04GPCF@?5?5?5?5?$AA@
        760  2F7 00204B60 ??_C@_0CE@CGJN@ETRSWarning?3?5Message?5over?9readin@
        761  2F8 00204B84 ??_C@_0CE@LJHK@ETRSWarning?3?5Message?5over?9writin@
        762  2F9 000016F0 ??_FCChunkID@@QAEXXZ
        763  2FA 0003D460 ??_FCIntersector@@QAEXXZ
        764  2FB 00002260 ??_FCTimer@@QAEXXZ
        765  2FC 0003C960 ?AbsoluteToRelative@CPlacement3D@@QAEXABV1@@Z
        766  2FD 0003CA20 ?AbsoluteToRelativeSmooth@CPlacement3D@@QAEXABV1@@Z
        767  2FE 00092670 ?ActivateNextCollisionBox@CEditModel@@QAEXXZ
        768  2FF 00092660 ?ActivatePreviousCollisionBox@CEditModel@@QAEXXZ
        769  300 000F08C0 ?ActiveRemoteSessions@CServer@@QAEJXZ
        770  301 0000ED00 ?AddAfter@CListNode@@QAEXAAV1@@Z
        771  302 000BF4B0 ?AddAllSectorsOfBrush@CCastRay@@QAEXPAVCBrush3D@@@Z
        772  303 0006D210 ?AddAlphaChannel@@YAXPAEPAKJ0@Z
        773  304 0013EE30 ?AddAnimSet_t@CModelInstance@@QAEXABVCTFileName@@@Z
        774  305 00003380 ?AddAnimation@CAnimData@@QAEXXZ
        775  306 001345A0 ?AddAnimation@CAnimSet@@QAEXPAUAnimation@@@Z
        776  307 0010C4C0 ?AddAnimation@CEntity@@QAEXJKMJJM@Z
        777  308 0013F4B0 ?AddAnimation@CModelInstance@@QAEXJKMJM@Z
        778  309 0010D480 ?AddAttachment@CEntity@@QAEXJKK@Z
        779  30A 0010D4D0 ?AddAttachment@CEntity@@QAEXJVCTFileName@@0@Z
        780  30B 0009B3B0 ?AddAttachmentModel@CModelObject@@QAEPAVCAttachmentModelObject@@J@Z
        781  30C 000DCD80 ?AddBandwidthGraphValue@CNetworkLibrary@@QAEXK@Z
        782  30D 0000ED20 ?AddBefore@CListNode@@QAEXAAV1@@Z
        783  30E 0013E6F0 ?AddChild@CModelInstance@@QAEXPAV1@J@Z
        784  30F 0013E220 ?AddColisionBox@CModelInstance@@QAEXVCTString@@V?$Vector@M$02@@1@Z
        785  310 00092550 ?AddCollisionBox@CEditModel@@QAEXXZ
        786  311 00047ED0 ?AddColors@@YAKKK@Z
        787  312 0000C400 ?AddDevice@CInput@@QAEHW4DeviceType@@J@Z
        788  313 0003D470 ?AddEdge@CIntersector@@QAEXMMMM@Z
        789  314 0007D320 ?AddEffectSource@CTextureEffectGlobal@@QAEXKJJJJ@Z
        790  315 000B4F30 ?AddEntityToCollisionGrid@CWorld@@QAEXPAVCEntity@@ABV?$AABBox@M$02@@@Z
        791  316 0005A420 ?AddExtension_OGL@CGfxLibrary@@AAEXKPBD@Z
        792  317 00067570 ?AddFlag@CTerrain@@QAEXK@Z
        793  318 0013FCF0 ?AddFlagsToPlayingAnim@CModelInstance@@QAEHJK@Z
        794  319 00075950 ?AddFrame_t@CTextureData@@QAEXPBVCImageInfo@@@Z
        795  31A 00118760 ?AddFromObject3D_t@CBrushMip@@QAEPAVCBrushSector@@AAVCObject3D@@@Z
        796  31B 0002E250 ?AddHandler@CTimer@@QAEXPAVCTimerHandler@@@Z
        797  31C 0000EB40 ?AddHead@CListHead@@QAEXAAVCListNode@@@Z
        798  31D 00129850 ?AddLayer@CLightSource@@QAEXAAVCBrushPolygon@@@Z
        799  31E 0013AA40 ?AddMeshLod@CMesh@@QAEXAAUMeshLOD@@@Z
        800  31F 0013EDC0 ?AddMesh_t@CModelInstance@@QAEXABVCTFileName@@@Z
        801  320 00118660 ?AddMipBrushFromObject3D_t@CBrush3D@@QAEXAAVCObject3D@@M@Z
        802  321 0008F270 ?AddMipModel@CEditModel@@AAEXPAVCObject3D@@@Z
        803  322 000DCCA0 ?AddNetGraphValue@CNetworkLibrary@@QAEXW4NetGraphEntryType@@M@Z
        804  323 000B5F90 ?AddObjectToBrush@CWorld@@QAEXAAVCObject3D@@AAVCEntity@@@Z
        805  324 000F3130 ?AddPlayer@CSessionState@@QAEXJAAVCPlayerCharacter@@AAK11J@Z
        806  325 000EF0D0 ?AddPlayerUpdate@CServer@@QAEHJAAV?$Vector@M$02@@H@Z
        807  326 000DC940 ?AddPlayer_t@CNetworkLibrary@@QAEPAVCPlayerSource@@AAVCPlayerCharacter@@@Z
        808  327 001150C0 ?AddPosition@CLastPositions@@QAEXABV?$Vector@M$02@@@Z
        809  328 000178C0 ?AddReference@CEntity@@QAEXXZ
        810  329 00110E30 ?AddReference@CEntityClass@@QAEXXZ
        811  32A 0007EA60 ?AddReference@CSoundData@@QAEXXZ
        812  32B 00019DC0 ?AddRelationPair@@YAXAAVCRelationSrc@@AAVCRelationDst@@@Z
        813  32C 00019E60 ?AddRelationPairHeadHead@@YAXAAVCRelationSrc@@AAVCRelationDst@@@Z
        814  32D 00019E10 ?AddRelationPairTailTail@@YAXAAVCRelationSrc@@AAVCRelationDst@@@Z
        815  32E 000BFD90 ?AddSector@CCastRay@@QAEXPAVCBrushSector@@@Z
        816  32F 000BF610 ?AddSectorsAroundEntity@CCastRay@@QAEXPAVCEntity@@@Z
        817  330 0013FF10 ?AddSimpleShadow@CModelInstance@@QAEXMABV?$Plane@M$02@@@Z
        818  331 000A2360 ?AddSimpleShadow@CModelObject@@QAEXAAVCRenderModel@@MABV?$Plane@M$02@@@Z
        819  332 000A8DF0 ?AddSimpleShadow_View@CModelObject@@AAEXAAVCRenderModel@@MABV?$Plane@M$02@@@Z
        820  333 0013EE10 ?AddSkeleton_t@CModelInstance@@QAEXABVCTFileName@@@Z
        821  334 00150340 ?AddSkletonLod@CSkeleton@@QAEXAAUSkeletonLOD@@@Z
        822  335 0000EB60 ?AddTail@CListHead@@QAEXAAVCListNode@@@Z
        823  336 0004CF60 ?AddTexture@CDrawPort@@QBEXMMMMK@Z
        824  337 0004D8B0 ?AddTexture@CDrawPort@@QBEXMMMMKMMMMKMMMMKMMMMK@Z
        825  338 0004D290 ?AddTexture@CDrawPort@@QBEXMMMMMMMMK@Z
        826  339 0008CC30 ?AddTexture_t@CEditModel@@QAEPAVCTextureDataInfo@@ABVCTFileName@@JJ@Z
        827  33A 0013EEF0 ?AddTexture_t@CModelInstance@@QAEXABVCTFileName@@JPAUMeshInstance@@@Z
        828  33B 0013EF60 ?AddTexture_t@CModelInstance@@QAEXABVCTFileName@@VCTString@@PAUMeshInstance@@@Z
        829  33C 000ACFB0 ?AddTimer@CWorld@@QAEXPAVCRationalEntity@@@Z
        830  33D 00111400 ?AddToCRCTable@CEntityClass@@UAEXXZ
        831  33E 00114810 ?AddToCRCTable@CEntityComponent@@QAEXXZ
        832  33F 00020680 ?AddToCRCTable@CSerial@@UAEXXZ
        833  340 001671C0 ?AddToMovers@CMovableEntity@@QAEXXZ
        834  341 00167230 ?AddToMoversDuringMoving@CMovableEntity@@QAEXXZ
        835  342 00082500 ?AddToPendingList@CSoundLibrary@@QAEXAAVCSoundObject@@@Z
        836  343 0002EC70 ?AddTranslationTable_t@@YAXABVCTFileName@@@Z
        837  344 0002EC90 ?AddTranslationTablesDir_t@@YAXABVCTFileName@@0@Z
        838  345 0004D5E0 ?AddTriangle@CDrawPort@@QBEXMMMMMMK@Z
        839  346 000DDAF0 ?AddressToString@@YA?AVCTString@@K@Z
        840  347 0006E320 ?AdjustBitmapColor@@YAXPAK0JJJJ@Z
        841  348 0010D8B0 ?AdjustBones@CEntity@@UAEXXZ
        842  349 00047900 ?AdjustColor@@YAKKJJ@Z
        843  34A 00166A40 ?AdjustDeadReckoning@CMovableEntity@@QAEXVCPlacement3D@@0M@Z
        844  34B 000479F0 ?AdjustGamma@@YAKKM@Z
        845  34C 000AD020 ?AdjustLateTimers@CWorld@@QAEXM@Z
        846  34D 000F4280 ?AdjustLocalTime@CSessionState@@QAEXXZ
        847  34E 00107230 ?AdjustMipFactor@CEntity@@UAEXAAM@Z
        848  34F 0010D8C0 ?AdjustShaderParams@CEntity@@UAEXJPAVCShader@@AAUShaderParams@@@Z
        849  350 00107220 ?AdjustShadingParameters@CEntity@@UAEHAAV?$Vector@M$02@@AAK1@Z
        850  351 0000EEE0 ?AllocMemory@@YAPAXJ@Z
        851  352 0000EE90 ?AllocMemoryAligned@@YAPAXJJ@Z
        852  353 0002ACA0 ?AllocateVirtualMemory@CTStream@@QAEXK@Z
        853  354 001693D0 ?AllowForGroundPolygon@CMovableEntity@@UAEHPAVCBrushPolygon@@@Z
        854  355 00031E40 ?AnglesToDirectionVector@@YAXABV?$Vector@M$02@@AAV1@@Z
        855  356 00171C60 ?ApplyAction@CPlayerEntity@@UAEXABVCPlayerAction@@M@Z
        856  357 000EAD70 ?ApplyActionLocally@CPlayerSource@@QAEXABVCPlayerAction@@@Z
        857  358 00166780 ?ApplyDeadReckoning@CMovableEntity@@QAEXXZ
        858  359 000EAEA0 ?ApplyNewerActions@CPlayerSource@@QAEXK@Z
        859  35A 0009A660 ?ApplySurfaceToPolygon@CModelObject@@QAEXPAVCDrawPort@@PAVCProjection3D@@JJJK@Z
        860  35B 00099B90 ?ApplySurfaceToPolygonsInRegion@CModelObject@@QAEXPAVCDrawPort@@PAVCProjection3D@@V?$AABBox@J$01@@JK@Z
        861  35C 00032CE0 ?ArePolygonsPlanar@CObject3D@@QAEHXZ
        862  35D 00012890 ?AspectRatioL@CProjection3D@@QAEAAMXZ
        863  35E 000128A0 ?AspectRatioR@CProjection3D@@QBEABMXZ
        864  35F 00029090 ?AtEOF@CTStream@@QAEHXZ
        865  360 0006EBC0 ?Attach@CImageInfo@@QAEXPAEJJJ@Z
        866  361 00099510 ?AutoMipModelingOff@CModelObject@@QAEXXZ
        867  362 00099500 ?AutoMipModelingOn@CModelObject@@QAEXXZ
        868  363 0009B090 ?AutoSetAttachments@CModelObject@@QAEXXZ
        869  364 0009AD50 ?AutoSetTextures@CModelObject@@QAEXXZ
        870  365 000953E0 ?BBoxAllShow@CModelRenderPrefs@@QAEXH@Z
        871  366 000953D0 ?BBoxAllVisible@CModelRenderPrefs@@QAEHXZ
        872  367 000953C0 ?BBoxFrameShow@CModelRenderPrefs@@QAEXH@Z
        873  368 000953B0 ?BBoxFrameVisible@CModelRenderPrefs@@QAEHXZ
        874  369 00036800 ?BatchLoading_t@CObject3D@@SAXH@Z
        875  36A 00012A30 ?BeIsometric@CAnyProjection3D@@QAEXXZ
        876  36B 00012A50 ?BeParallel@CAnyProjection3D@@QAEXXZ
        877  36C 00012A40 ?BePerspective@CAnyProjection3D@@QAEXXZ
        878  36D 00012A20 ?BeSimple@CAnyProjection3D@@QAEXXZ
        879  36E 0009FB10 ?BeginModelRenderingMask@@YAXAAVCAnyProjection3D@@PAEJJ@Z
        880  36F 0009F880 ?BeginModelRenderingView@@YAXAAVCAnyProjection3D@@PAVCDrawPort@@@Z
        881  370 00045A70 ?Benchmark@CGfxLibrary@@QAEXPAVCViewPort@@PAVCDrawPort@@@Z
        882  371 000DE240 ?Bind_t@CCommunicationInterface@@QAEXKK@Z
        883  372 0004DC60 ?BlendScreen@CDrawPort@@QAEXXZ
        884  373 000DE6F0 ?Broadcast_Receive@CCommunicationInterface@@QAEHPAXAAJAAVCAddress@@@Z
        885  374 000DE660 ?Broadcast_Send@CCommunicationInterface@@QAEXPBXJAAVCAddress@@@Z
        886  375 000DE760 ?Broadcast_Update_t@CCommunicationInterface@@QAEXXZ
        887  376 00004F50 ?CON_DiscardLastLineTimes@@YAXXZ
        888  377 00004F60 ?CON_GetBuffer@@YAPBDXZ
        889  378 00004F80 ?CON_GetBufferSize@@YAJXZ
        890  379 00004F00 ?CON_GetLastLine@@YA?AVCTString@@J@Z
        891  37A 00004EE0 ?CON_NumberOfLinesAfter@@YAJM@Z
        892  37B 00004E40 ?CPrintF@@YAXPBDZZ
        893  37C 00004EC0 ?CPutString@@YAXPBD@Z
        894  37D 000B6390 ?CSGAdd@CWorld@@QAEXAAVCEntity@@AAV1@0ABVCPlacement3D@@@Z
        895  37E 00034600 ?CSGAddMaterial@CObject3D@@QAEXAAV1@0@Z
        896  37F 000346C0 ?CSGAddMaterialReverse@CObject3D@@QAEXAAV1@0@Z
        897  380 000B63F0 ?CSGAddReverse@CWorld@@QAEXAAVCEntity@@AAV1@0ABVCPlacement3D@@@Z
        898  381 00034540 ?CSGAddRooms@CObject3D@@QAEXAAV1@0@Z
        899  382 00034910 ?CSGJoinSectors@CObject3D@@QAEXAAV1@0@Z
        900  383 000B6450 ?CSGRemove@CWorld@@QAEXAAVCEntity@@AAV1@0ABVCPlacement3D@@@Z
        901  384 00034780 ?CSGRemoveMaterial@CObject3D@@QAEXAAV1@0@Z
        902  385 000349D0 ?CSGSplitPolygons@CObject3D@@QAEXAAV1@0@Z
        903  386 00034850 ?CSGSplitSectors@CObject3D@@QAEXAAV1@0@Z
        904  387 0002C560 ?CTDeleteFile@@YAHABVCTFileName@@@Z
        905  388 0002C610 ?CTMoveFile@@YAHABVCTFileName@@0@Z
        906  389 00073D90 ?Cache@CShadowMap@@QAEXJ@Z
        907  38A 00116F30 ?CacheAllShadowmaps@CBrushArchive@@QAEXXZ
        908  38B 0016E7C0 ?CacheNearPolygons@CMovableEntity@@QAEXXZ
        909  38C 001500F0 ?CalculateAbsoluteTransformations@CSkeleton@@QAEXJ@Z
        910  38D 0011CB50 ?CalculateArea@CBrushPolygon@@QAENXZ
        911  38E 0011BCD0 ?CalculateBoundingBox@CBrushPolygon@@QAEXXZ
        912  38F 001165E0 ?CalculateBoundingBoxes@CBrush3D@@QAEXXZ
        913  390 001167F0 ?CalculateBoundingBoxes@CBrushArchive@@QAEXXZ
        914  391 0011B0B0 ?CalculateBoundingBoxes@CBrushMip@@QAEXAAVCSimpleProjection3D_DOUBLE@@@Z
        915  392 0011EA30 ?CalculateBoundingBoxes@CBrushSector@@QAEXAAVCSimpleProjection3D_DOUBLE@@@Z
        916  393 001165F0 ?CalculateBoundingBoxesForOneMip@CBrush3D@@QAEXPAVCBrushMip@@@Z
        917  394 000AD1B0 ?CalculateDirectionalShadows@CWorld@@QAEXXZ
        918  395 0014E370 ?CalculateFadeFactor@@YAMABUAnimList@@@Z
        919  396 0008FBB0 ?CalculateMappingForMips@CEditModel@@QAEXXZ
        920  397 000AD260 ?CalculateNonDirectionalShadows@CWorld@@QAEXXZ
        921  398 00091640 ?CalculatePatchesPerPolygon@CEditModel@@QAEXXZ
        922  399 0008F920 ?CalculateUnwrappedMapping@CEditModel@@QAEXAAVCObject3D@@00@Z
        923  39A 0011F690 ?CalculateVolume@CBrushSector@@QAENXZ
        924  39B 000174F0 ?Call@CEntity@@QAEXJJHABVCEntityEvent@@@Z
        925  39C 00110040 ?Call@CRationalEntity@@QAEXJJHABVCEntityEvent@@@Z
        926  39D 000191A0 ?CallProgressHook_t@@YAXM@Z
        927  39E 000B7840 ?CanCopySectors@CWorld@@QAEHAAV?$CSelection@VCBrushSector@@$00@@@Z
        928  39F 000B74D0 ?CanJoinAllPossiblePolygons@CWorld@@QAEHAAV?$CSelection@VCBrushPolygon@@$0BAA@@@@Z
        929  3A0 000B7150 ?CanJoinPolygons@CWorld@@QAEHAAV?$CSelection@VCBrushPolygon@@$0BAA@@@@Z
        930  3A1 000B6D20 ?CanJoinSectors@CWorld@@QAEHAAV?$CSelection@VCBrushSector@@$00@@@Z
        931  3A2 000BFA60 ?Cast@CCastRay@@QAEXPAVCWorld@@@Z
        932  3A3 000BFD70 ?CastRay@CWorld@@QAEXAAVCCastRay@@@Z
        933  3A4 00044D90 ?Center@CMappingDefinition@@QAEXABVCMappingVectors@@ABV?$Vector@M$02@@@Z
        934  3A5 000EA9F0 ?ChangeCharacter@CPlayerSource@@QAEXAAVCPlayerCharacter@@@Z
        935  3A6 0016F190 ?ChangeCollisionBoxIndexNow@CMovableModelEntity@@QAEHJ@Z
        936  3A7 0016F120 ?ChangeCollisionBoxIndexNow@CMovableModelEntity@@QAEHJPAPAVCEntity@@@Z
        937  3A8 0016F1F0 ?ChangeCollisionBoxIndexWhenPossible@CMovableModelEntity@@QAEXJ@Z
        938  3A9 000DA540 ?ChangeLevel@CNetworkLibrary@@QAEXABVCTFileName@@HJ@Z
        939  3AA 000DAF00 ?ChangeLevel_client_internal_t@CNetworkLibrary@@QAEXXZ
        940  3AB 000DA5F0 ?ChangeLevel_internal@CNetworkLibrary@@QAEXXZ
        941  3AC 0013F290 ?ChangeParent@CModelInstance@@QAEXPAV1@0@Z
        942  3AD 00014320 ?ChangeSize@CTextureData@@QAEXJ@Z
        943  3AE 00137130 ?ChangeSurfaceShader_t@@YAXAAUMeshSurface@@VCTString@@@Z
        944  3AF 00171C80 ?CharacterChanged@CPlayerEntity@@UAEXABVCPlayerCharacter@@@Z
        945  3B0 000EC920 ?CharacterNameIsUsed@CServer@@QAEHAAVCPlayerCharacter@@@Z
        946  3B1 00110EA0 ?CheckClassProperties@CEntityClass@@QAEXXZ
        947  3B2 0016F100 ?CheckForCollisionNow@CMovableModelEntity@@QAEHJPAPAVCEntity@@@Z
        948  3B3 00015B60 ?CheckIDs@CEntityEvent@@UAEHXZ
        949  3B4 00164E20 ?CheckIDs@EBegin@@UAEHXZ
        950  3B5 00165190 ?CheckIDs@EBlock@@UAEHXZ
        951  3B6 001654E0 ?CheckIDs@EDamage@@UAEHXZ
        952  3B7 00165680 ?CheckIDs@EDeath@@UAEHXZ
        953  3B8 00165390 ?CheckIDs@EFirstWorldBase@@UAEHXZ
        954  3B9 00164D00 ?CheckIDs@EInternal@@UAEHXZ
        955  3BA 00165070 ?CheckIDs@EPass@@UAEHXZ
        956  3BB 00165770 ?CheckIDs@EPlayerInit@@UAEHXZ
        957  3BC 00165330 ?CheckIDs@EPostLevelChange@@UAEHXZ
        958  3BD 001652C0 ?CheckIDs@EPreLevelChange@@UAEHXZ
        959  3BE 00164DC0 ?CheckIDs@EReturn@@UAEHXZ
        960  3BF 001656F0 ?CheckIDs@ETakingBreath@@UAEHXZ
        961  3C0 00165250 ?CheckIDs@ETeleport@@UAEHXZ
        962  3C1 00164E80 ?CheckIDs@ETimer@@UAEHXZ
        963  3C2 00164FA0 ?CheckIDs@ETouch@@UAEHXZ
        964  3C3 00164D60 ?CheckIDs@EVoid@@UAEHXZ
        965  3C4 001651F0 ?CheckIDs@EWouldFall@@UAEHXZ
        966  3C5 00123590 ?CheckLayersUpToDate@CBrushShadowMap@@UAEXXZ
        967  3C6 00074670 ?CheckLayersUpToDate@CShadowMap@@UAEXXZ
        968  3C7 000DCBD0 ?CheckVersion_t@CNetworkLibrary@@QAEXAAVCTStream@@HAAH@Z
        969  3C8 000758F0 ?ClampMipLevel@CTextureData@@QBEJM@Z
        970  3C9 0006D110 ?ClampTextureSize@@YAJJJJJ@Z
        971  3CA 00002540 ?Clear@CAnimData@@UAEXXZ
        972  3CB 001353E0 ?Clear@CAnimSet@@UAEXXZ
        973  3CC 0008CE50 ?Clear@CAttachedModel@@QAEXXZ
        974  3CD 0001A520 ?Clear@CAttachedModelPosition@@QAEXXZ
        975  3CE 00089DC0 ?Clear@CAttachedSound@@QAEXXZ
        976  3CF 00116440 ?Clear@CBrush3D@@QAEXXZ
        977  3D0 00014910 ?Clear@CBrushEdge@@QAEXXZ
        978  3D1 0011AE50 ?Clear@CBrushMip@@QAEXXZ
        979  3D2 000148A0 ?Clear@CBrushPlane@@QAEXXZ
        980  3D3 0011C670 ?Clear@CBrushPolygon@@QAEXXZ
        981  3D4 00014950 ?Clear@CBrushPolygonEdge@@QAEXXZ
        982  3D5 00014E90 ?Clear@CBrushPolygonTexture@@QAEXXZ
        983  3D6 0011F570 ?Clear@CBrushSector@@QAEXXZ
        984  3D7 00014800 ?Clear@CBrushVertex@@QAEXXZ
        985  3D8 000B03F0 ?Clear@CCollisionInfo@@QAEXXZ
        986  3D9 00017550 ?Clear@CEntity@@QAEXXZ
        987  3DA 00110E60 ?Clear@CEntityClass@@UAEXXZ
        988  3DB 00055B60 ?Clear@CFontData@@UAEXXZ
        989  3DC 0006EBF0 ?Clear@CImageInfo@@QAEXXZ
        990  3DD 0003D410 ?Clear@CIntersector@@QAEXXZ
        991  3DE 0000EB00 ?Clear@CListHead@@QAEXXZ
        992  3DF 0013C380 ?Clear@CMesh@@UAEXXZ
        993  3E0 0001A440 ?Clear@CModelCollisionBox@@QAEXXZ
        994  3E1 000957A0 ?Clear@CModelData@@UAEXXZ
        995  3E2 001402C0 ?Clear@CModelInstance@@QAEXXZ
        996  3E3 001406F0 ?Clear@CModelInstanceSerial@@UAEXXZ
        997  3E4 00032C30 ?Clear@CObject3D@@QAEXXZ
        998  3E5 00032670 ?Clear@CObjectPolygon@@QAEXXZ
        999  3E6 000325E0 ?Clear@CObjectPolygonEdge@@QAEXXZ
       1000  3E7 000E9660 ?Clear@CPlayerAction@@QAEXXZ
       1001  3E8 0009FF80 ?Clear@CRenderModel@@QAEXXZ
       1002  3E9 00020390 ?Clear@CSerial@@UAEXXZ
       1003  3EA 000733F0 ?Clear@CShader@@UAEXXZ
       1004  3EB 000742C0 ?Clear@CShadowMap@@QAEXXZ
       1005  3EC 00150C90 ?Clear@CSkeleton@@UAEXXZ
       1006  3ED 0007EA00 ?Clear@CSoundData@@UAEXXZ
       1007  3EE 00081BA0 ?Clear@CSoundLibrary@@QAEXXZ
       1008  3EF 00001130 ?Clear@CTString@@QAEXXZ
       1009  3F0 000076E0 ?Clear@CTWString@@QAEXXZ
       1010  3F1 00152420 ?Clear@CTerrain@@QAEXXZ
       1011  3F2 000783A0 ?Clear@CTextureData@@UAEXXZ
       1012  3F3 000AC700 ?Clear@CWorld@@QAEXXZ
       1013  3F4 00098930 ?Clear@ModelMipInfo@@QAEXXZ
       1014  3F5 0001A310 ?Clear@PolygonsPerPatch@@QAEXXZ
       1015  3F6 00166740 ?ClearActionApplied@CMovableEntity@@UAEXXZ
       1016  3F7 00095A80 ?ClearAnimations@CModelData@@QAEXXZ
       1017  3F8 0007E680 ?ClearBuffer@CSoundData@@QAEXXZ
       1018  3F9 000B4F20 ?ClearCollisionGrid@CWorld@@QAEXXZ
       1019  3FA 0000C810 ?ClearControlsValue@CInputDevice@@QAEXXZ
       1020  3FB 0000C3F0 ?ClearInput@CInput@@QAEXXZ
       1021  3FC 00081BB0 ?ClearLibrary@CSoundLibrary@@QAEXXZ
       1022  3FD 000AE3B0 ?ClearMarkedForUseFlag@CWorld@@QAEXXZ
       1023  3FE 0016B200 ?ClearMovingTemp@CMovableEntity@@UAEXXZ
       1024  3FF 0010FBD0 ?ClearMovingTemp@CRationalEntity@@UAEXXZ
       1025  400 00169790 ?ClearNextPosition@CMovableEntity@@QAEXXZ
       1026  401 00166770 ?ClearReapplyingActions@CMovableEntity@@UAEXXZ
       1027  402 000BDF60 ?ClearSectorList@CCastRay@@QAEXXZ
       1028  403 00166EB0 ?ClearTemporaryData@CMovableEntity@@QAEXXZ
       1029  404 000276B0 ?ClearToDefault@@YAXAAC@Z
       1030  405 000276A0 ?ClearToDefault@@YAXAAE@Z
       1031  406 000276D0 ?ClearToDefault@@YAXAAF@Z
       1032  407 000276C0 ?ClearToDefault@@YAXAAG@Z
       1033  408 000276E0 ?ClearToDefault@@YAXAAH@Z
       1034  409 00027690 ?ClearToDefault@@YAXAAJ@Z
       1035  40A 000277D0 ?ClearToDefault@@YAXAAK@Z
       1036  40B 00027680 ?ClearToDefault@@YAXAAM@Z
       1037  40C 000277E0 ?ClearToDefault@@YAXAAPAVCModelData@@@Z
       1038  40D 000277F0 ?ClearToDefault@@YAXAAPAVCTextureData@@@Z
       1039  40E 00027740 ?ClearToDefault@@YAXAAV?$Plane@M$02@@@Z
       1040  40F 00027790 ?ClearToDefault@@YAXAAV?$Vector@M$02@@@Z
       1041  410 00027800 ?ClearToDefault@@YAXAAVCEntityID@@@Z
       1042  411 000276F0 ?ClearToDefault@@YAXAAVCEntityPointer@@@Z
       1043  412 00027710 ?ClearToDefault@@YAXAAVCTString@@@Z
       1044  413 00016020 ?ClearToDefault@@YAXAAVEBegin@@@Z
       1045  414 00016710 ?ClearToDefault@@YAXAAVEBlock@@@Z
       1046  415 00016EE0 ?ClearToDefault@@YAXAAVEDamage@@@Z
       1047  416 000171A0 ?ClearToDefault@@YAXAAVEDeath@@@Z
       1048  417 00016CE0 ?ClearToDefault@@YAXAAVEFirstWorldBase@@@Z
       1049  418 00015D20 ?ClearToDefault@@YAXAAVEInternal@@@Z
       1050  419 000164E0 ?ClearToDefault@@YAXAAVEPass@@@Z
       1051  41A 000174A0 ?ClearToDefault@@YAXAAVEPlayerInit@@@Z
       1052  41B 00016BD0 ?ClearToDefault@@YAXAAVEPostLevelChange@@@Z
       1053  41C 00016AB0 ?ClearToDefault@@YAXAAVEPreLevelChange@@@Z
       1054  41D 00015F20 ?ClearToDefault@@YAXAAVEReturn@@@Z
       1055  41E 00017370 ?ClearToDefault@@YAXAAVETakingBreath@@@Z
       1056  41F 000169A0 ?ClearToDefault@@YAXAAVETeleport@@@Z
       1057  420 00016120 ?ClearToDefault@@YAXAAVETimer@@@Z
       1058  421 000162D0 ?ClearToDefault@@YAXAAVETouch@@@Z
       1059  422 00015E20 ?ClearToDefault@@YAXAAVEVoid@@@Z
       1060  423 000168A0 ?ClearToDefault@@YAXAAVEWouldFall@@@Z
       1061  424 00016D00 ?ClearToDefault@@YAXAAW4DamageType@@@Z
       1062  425 0016E820 ?ClientCacheNearPolygons@CMovableEntity@@QAEXXZ
       1063  426 000DF730 ?Client_Clear@CCommunicationInterface@@QAEXXZ
       1064  427 000DF3F0 ?Client_Close@CCommunicationInterface@@QAEXXZ
       1065  428 000DF340 ?Client_Init_t@CCommunicationInterface@@QAEXK@Z
       1066  429 000DF290 ?Client_Init_t@CCommunicationInterface@@QAEXPAD@Z
       1067  42A 000DF790 ?Client_IsConnected@CCommunicationInterface@@QAEHXZ
       1068  42B 000DF4B0 ?Client_OpenLocal@CCommunicationInterface@@QAEXXZ
       1069  42C 000DF530 ?Client_OpenNet_t@CCommunicationInterface@@QAEXK@Z
       1070  42D 000DF920 ?Client_PeekSize_Reliable@CCommunicationInterface@@QAEXAAJ0@Z
       1071  42E 000DF8B0 ?Client_Receive_Reliable@CCommunicationInterface@@QAEHAAVCTStream@@@Z
       1072  42F 000DF840 ?Client_Receive_Reliable@CCommunicationInterface@@QAEHPAXAAJ@Z
       1073  430 000DF9D0 ?Client_Receive_Unreliable@CCommunicationInterface@@QAEHPAXAAJ@Z
       1074  431 000DF7C0 ?Client_Send_Reliable@CCommunicationInterface@@QAEXPBXJ@Z
       1075  432 000DF950 ?Client_Send_Unreliable@CCommunicationInterface@@QAEXPBXJ@Z
       1076  433 000DFA40 ?Client_Update@CCommunicationInterface@@QAEHXZ
       1077  434 0003E9E0 ?ClipLine@CIsometricProjection3D@@UBEKAAV?$Vector@M$02@@0@Z
       1078  435 00040130 ?ClipLine@CParallelProjection3D@@UBEKAAV?$Vector@M$02@@0@Z
       1079  436 00041E90 ?ClipLine@CPerspectiveProjection3D@@UBEKAAV?$Vector@M$02@@0@Z
       1080  437 00042F10 ?ClipLine@CSimpleProjection3D@@UBEKAAV?$Vector@M$02@@0@Z
       1081  438 000B3A30 ?ClipMove@CWorld@@QAEXAAVCClipMove@@@Z
       1082  439 000DDCC0 ?Close@CCommunicationInterface@@QAEXXZ
       1083  43A 0002B810 ?Close@CTFileStream@@QAEXXZ
       1084  43B 0007E4A0 ?CloseCanvas@CViewPort@@QAEXXZ
       1085  43C 000F0520 ?CloseClient@CServer@@QAEXJ@Z
       1086  43D 00024F30 ?CloseExceptionHandler@@YAXXZ
       1087  43E 00047570 ?ColorToHSV@@YAXKAAE00@Z
       1088  43F 0009A590 ?ColorizePolygon@CModelObject@@QAEXPAVCDrawPort@@PAVCProjection3D@@JJJH@Z
       1089  440 000999A0 ?ColorizeRegion@CModelObject@@QAEXPAVCDrawPort@@PAVCProjection3D@@V?$AABBox@J$01@@JH@Z
       1090  441 0002AD40 ?CommitPage@CTStream@@QAEXJ@Z
       1091  442 00082560 ?CommitPlayingBuffer@CSoundLibrary@@AAEJAAVCSoundObject@@AAH@Z
       1092  443 00047760 ?CompareChroma@@YAHKK@Z
       1093  444 00111870 ?ComponentForPointer@CDLLEntityClass@@QAEPAVCEntityComponent@@PAX@Z
       1094  445 00111670 ?ComponentForPointer@CEntityClass@@QAEPAVCEntityComponent@@PAX@Z
       1095  446 00111810 ?ComponentForTypeAndID@CDLLEntityClass@@QAEPAVCEntityComponent@@W4EntityComponentType@@J@Z
       1096  447 0010F8A0 ?ComponentForTypeAndID@CEntity@@QAEPAVCEntityComponent@@KK@Z
       1097  448 00111650 ?ComponentForTypeAndID@CEntityClass@@QAEPAVCEntityComponent@@W4EntityComponentType@@J@Z
       1098  449 00077840 ?Compress@CTextureData@@QAEPAEAAJH@Z
       1099  44A 000ECBA0 ?ConnectLocalSessionState@CServer@@QAEXJAAVCNetworkMessage@@@Z
       1100  44B 000ECCD0 ?ConnectRemoteSessionState@CServer@@QAEXJAAVCNetworkMessage@@@Z
       1101  44C 00003970 ?ContinueAnim@CAnimObject@@QAEXXZ
       1102  44D 000BFCC0 ?ContinueCast@CCastRay@@QAEXPAVCWorld@@@Z
       1103  44E 000BFD80 ?ContinueCast@CWorld@@QAEXAAVCCastRay@@@Z
       1104  44F 00037610 ?ConvertArraysToO3D@CObject3D@@QAEXXZ
       1105  450 00003800 ?Copy@CAnimObject@@QAEXAAV1@@Z
       1106  451 00116470 ?Copy@CBrush3D@@QAEXAAV1@MH@Z
       1107  452 0011AB80 ?Copy@CBrushMip@@QAEXAAV1@MH@Z
       1108  453 00112820 ?Copy@CEntity@@UAEXAAV1@K@Z
       1109  454 0010F940 ?Copy@CLiveEntity@@UAEXAAVCEntity@@K@Z
       1110  455 0013FFE0 ?Copy@CModelInstance@@QAEXAAV1@@Z
       1111  456 00098E10 ?Copy@CModelObject@@QAEXAAV1@@Z
       1112  457 00166DE0 ?Copy@CMovableEntity@@UAEXAAVCEntity@@K@Z
       1113  458 000E7E40 ?Copy@CNetworkSession@@QAEXABV1@@Z
       1114  459 00171B70 ?Copy@CPlayerEntity@@UAEXAAVCEntity@@K@Z
       1115  45A 0010FC10 ?Copy@CRationalEntity@@UAEXAAVCEntity@@K@Z
       1116  45B 00086F80 ?Copy@CSoundObject@@QAEXAAV1@@Z
       1117  45C 00078480 ?Copy@CTextureObject@@QAEXAAV1@@Z
       1118  45D 00113640 ?CopyAllEntitiesExceptOne@CWorld@@QAEXAAV1@AAVCEntity@@ABVCPlacement3D@@@Z
       1119  45E 00109DD0 ?CopyCollisionInfo@CEntity@@QAEXAAV1@@Z
       1120  45F 0002A000 ?CopyDictionary@CTStream@@QAEXAAV1@@Z
       1121  460 00112F90 ?CopyEntities@CWorld@@QAEXAAV1@AAV?$CDynamicContainer@VCEntity@@@@AAV?$CSelection@VCEntity@@$00@@ABVCPlacement3D@@@Z
       1122  461 001137B0 ?CopyEntityInWorld@CWorld@@QAEPAVCEntity@@AAV2@ABVCPlacement3D@@HKH@Z
       1123  462 00112F30 ?CopyEntityProperties@CEntity@@QAEXAAV1@K@Z
       1124  463 0011C700 ?CopyFromSameSector@CBrushPolygon@@QAEXAAV1@@Z
       1125  464 0013FF50 ?CopyMeshInstance@CModelInstance@@QAEXAAV1@@Z
       1126  465 000822E0 ?CopyMixerBuffer_dsound@CSoundLibrary@@AAEXJ@Z
       1127  466 00082380 ?CopyMixerBuffer_waveout@CSoundLibrary@@AAEXXZ
       1128  467 001134C0 ?CopyOneEntity@CWorld@@QAEPAVCEntity@@AAV2@ABVCPlacement3D@@@Z
       1129  468 00112BE0 ?CopyOneProperty@CEntity@@QAEXAAVCEntityProperty@@0AAV1@K@Z
       1130  469 0011D7E0 ?CopyPolygon@CBrushPolygon@@QAEAAV1@AAV1@@Z
       1131  46A 000B7E00 ?CopyPolygonInWorld@CWorld@@QAEXAAVCBrushPolygon@@AAVCBrushSector@@JAAJ2@Z
       1132  46B 000B8240 ?CopyPolygonsToBrush@CWorld@@QAEXAAV?$CSelection@VCBrushPolygon@@$0BAA@@@PAVCEntity@@@Z
       1133  46C 0011C890 ?CopyProperties@CBrushPolygon@@QAEAAV1@AAV1@H@Z
       1134  46D 0011C9F0 ?CopyPropertiesWithoutTexture@CBrushPolygon@@QAEAAV1@AAV1@@Z
       1135  46E 000B7880 ?CopySectors@CWorld@@QAEXAAV?$CSelection@VCBrushSector@@$00@@PAVCEntity@@H@Z
       1136  46F 000B5C20 ?CopySourceBrushSectorsToObject@CWorld@@QAEXAAVCEntity@@AAV?$CSelection@VCBrushSector@@$03@@ABVCPlacement3D@@AAVCObject3D@@2AAV?$AABBox@N$02@@@Z
       1137  470 00014E40 ?CopyTextureProperties@CBrushPolygonTexture@@QAEAAV1@AAV1@H@Z
       1138  471 0011CA50 ?CopyTextures@CBrushPolygon@@QAEAAV1@AAV1@@Z
       1139  472 00092880 ?CorrectCollisionBoxSize@CEditModel@@QAEXXZ
       1140  473 00031960 ?Cos@@YAMM@Z
       1141  474 00002290 ?CosFast@@YAMM@Z
       1142  475 0000EC00 ?Count@CListHead@@QBEJXZ
       1143  476 000915B0 ?CountPatches@CEditModel@@QAEJXZ
       1144  477 00002600 ?CreateAnimations@CAnimData@@QAEXJVCTString@@JM@Z
       1145  478 000A0320 ?CreateAttachment@CModelObject@@QAEHAAVCRenderModel@@AAVCAttachmentModelObject@@@Z
       1146  479 0011BE60 ?CreateBSPPolygon@CBrushPolygon@@QAEXAAV?$BSPPolygon@N$02@@@Z
       1147  47A 0011BF80 ?CreateBSPPolygonNonPrecise@CBrushPolygon@@QAEXAAV?$BSPPolygon@N$02@@@Z
       1148  47B 0005A560 ?CreateContext_OGL@CGfxLibrary@@AAEHPAUHDC__@@@Z
       1149  47C 00075D30 ?CreateEffectTexture@CTextureData@@QAEXJJJPAV1@K@Z
       1150  47D 0008D270 ?CreateEmptyAttachingSounds@CEditModel@@QAEXXZ
       1151  47E 0010F8E0 ?CreateEntity@CEntity@@QAEPAV1@ABVCPlacement3D@@JKH@Z
       1152  47F 000ACA60 ?CreateEntity@CWorld@@QAEPAVCEntity@@ABVCPlacement3D@@PAVCEntityClass@@KH@Z
       1153  480 000ACC20 ?CreateEntity_t@CWorld@@QAEPAVCEntity@@ABVCPlacement3D@@ABVCTFileName@@KH@Z
       1154  481 00090170 ?CreateMipModels_t@CEditModel@@QAEXAAVCObject3D@@0JJ@Z
       1155  482 00140750 ?CreateModelInstance@@YAPAVCModelInstance@@VCTString@@@Z
       1156  483 000388B0 ?CreatePolygon@CObjectSector@@QAEPAVCObjectPolygon@@JQAJAAVCObjectMaterial@@KH@Z
       1157  484 000383E0 ?CreatePolygon@CObjectSector@@QAEPAVCObjectPolygon@@JQAV?$Vector@N$02@@AAVCObjectMaterial@@KH@Z
       1158  485 000B86C0 ?CreatePolygon@CWorld@@QAEXAAV?$CSelection@VCBrushVertex@@$01@@@Z
       1159  486 0008DA90 ?CreateScriptFile_t@CEditModel@@QAEXAAVCTFileName@@@Z
       1160  487 000330B0 ?CreateSectorBSPs@CObject3D@@QAEXXZ
       1161  488 00032CC0 ?CreateSectorIndices@CObject3D@@QAEXXZ
       1162  489 000DE1B0 ?CreateSocket_t@CCommunicationInterface@@QAEXXZ
       1163  48A 00049800 ?CreateSubDrawPort@CDrawPort@@QAE?AV1@ABV?$AABBox@J$01@@@Z
       1164  48B 00049900 ?CreateSubDrawPortRatio@CDrawPort@@QAE?AV1@ABV?$AABBox@M$01@@@Z
       1165  48C 00078A80 ?CreateTexture_t@@YAXABVCTFileName@@0JJK@Z
       1166  48D 00078BD0 ?CreateTexture_t@@YAXABVCTFileName@@JJK@Z
       1167  48E 0006C090 ?CreateWindowCanvas@CGfxLibrary@@QAEXPAXPAPAVCViewPort@@PAPAVCDrawPort@@@Z
       1168  48F 0006C170 ?CreateWorkCanvas@CGfxLibrary@@QAEXJJPAPAVCDrawPort@@@Z
       1169  490 0002B2C0 ?Create_t@CTFileStream@@QAEXABVCTFileName@@W4CreateMode@CTStream@@@Z
       1170  491 00075BE0 ?Create_t@CTextureData@@QAEXPBVCImageInfo@@JJK@Z
       1171  492 00002130 ?CurrentTick@CTimer@@QBE?BMXZ
       1172  493 000807A0 ?DSFail@CSoundLibrary@@AAEHPAD@Z
       1173  494 000807D0 ?DSLockBuffer@CSoundLibrary@@AAEHPAUIDirectSoundBuffer@@JAAPAXAAK@Z
       1174  495 00080860 ?DSPlayMainBuffers@CSoundLibrary@@AAEXXZ
       1175  496 0021C2E8 ?DamageType_enum@@3VCEntityPropertyEnumType@@A
       1176  497 0021C238 ?DamageType_values@@3PAVCEntityPropertyEnumValue@@A
       1177  498 00033510 ?DebugDump@CObject3D@@QAEXXZ
       1178  499 000D9860 ?DebugSave@CNetworkLibrary@@QAEXXZ
       1179  49A 000223C0 ?DeclareSymbol@CShell@@QAEXABVCTString@@PAX@Z
       1180  49B 0002AE00 ?DecommitPage@CTStream@@QAEXJ@Z
       1181  49C 00031E00 ?DecomposeRotationMatrix@@YAXAAV?$Vector@M$02@@ABV?$Matrix@M$02$02@@@Z
       1182  49D 00031D10 ?DecomposeRotationMatrixNoSnap@@YAXAAV?$Vector@M$02@@ABV?$Matrix@M$02$02@@@Z
       1183  49E 00002760 ?DefaultAnimation@CAnimData@@QAEXXZ
       1184  49F 0013E870 ?DeleteAllChildren@CModelInstance@@QAEXH@Z
       1185  4A0 00003550 ?DeleteAnimation@CAnimData@@QAEXJ@Z
       1186  4A1 00116220 ?DeleteBrushMip@CBrush3D@@QAEXPAVCBrushMip@@@Z
       1187  4A2 00006CE2 ?DeleteChar@CTString@@QAEXJ@Z
       1188  4A3 00006DD2 ?DeleteChars@CTString@@QAEXJJ@Z
       1189  4A4 0013E840 ?DeleteChild@CModelInstance@@QAEXPAV1@@Z
       1190  4A5 000925C0 ?DeleteCurrentCollisionBox@CEditModel@@QAEXXZ
       1191  4A6 00073360 ?DeleteHandles@CShader@@QAEXXZ
       1192  4A7 001407D0 ?DeleteModelInstance@@YAXPAVCModelInstance@@@Z
       1193  4A8 000B84D0 ?DeletePolygons@CWorld@@QAEXAAV?$CDynamicContainer@VCBrushPolygon@@@@@Z
       1194  4A9 000B7CD0 ?DeleteSectors@CWorld@@QAEXAAV?$CSelection@VCBrushSector@@$00@@H@Z
       1195  4AA 0011AA40 ?DeleteSelectedSectors@CBrushMip@@QAEXAAV?$CSelection@VCBrushSector@@$03@@@Z
       1196  4AB 00106AD0 ?DeleteSelf@CEntity@@QAEXXZ
       1197  4AC 000129C0 ?DepthBufferFarL@CProjection3D@@QAEAAMXZ
       1198  4AD 000129D0 ?DepthBufferFarR@CProjection3D@@QBEABMXZ
       1199  4AE 000129A0 ?DepthBufferNearL@CProjection3D@@QAEAAMXZ
       1200  4AF 000129B0 ?DepthBufferNearR@CProjection3D@@QBEABMXZ
       1201  4B0 00048E30 ?DepthString@CDisplayMode@@QBE?AVCTString@@XZ
       1202  4B1 000478C0 ?DesaturateColor@@YAKK@Z
       1203  4B2 00015130 ?Deselect@CBrushPolygon@@QAEXK@Z
       1204  4B3 00015540 ?Deselect@CBrushSector@@QAEXK@Z
       1205  4B4 00014830 ?Deselect@CBrushVertex@@QAEXK@Z
       1206  4B5 00017580 ?Deselect@CEntity@@QAEXK@Z
       1207  4B6 00095380 ?DesreaseShadowQuality@CModelRenderPrefs@@QAEXXZ
       1208  4B7 00108720 ?Destroy@CEntity@@QAEXH@Z
       1209  4B8 000B4EF0 ?DestroyCollisionGrid@CWorld@@QAEXXZ
       1210  4B9 000ACCA0 ?DestroyEntities@CWorld@@QAEXAAV?$CSelection@VCEntity@@$00@@@Z
       1211  4BA 000ACC70 ?DestroyOneEntity@CWorld@@QAEXPAVCEntity@@@Z
       1212  4BB 0006C150 ?DestroyWindowCanvas@CGfxLibrary@@QAEXPAVCViewPort@@@Z
       1213  4BC 0006C210 ?DestroyWorkCanvas@CGfxLibrary@@QAEXPAVCDrawPort@@@Z
       1214  4BD 0006EBE0 ?Detach@CImageInfo@@QAEXXZ
       1215  4BE 0002A600 ?DictionaryPreload_t@CTStream@@QAEXXZ
       1216  4BF 0002A100 ?DictionaryReadBegin_t@CTStream@@QAEJXZ
       1217  4C0 0002A2B0 ?DictionaryReadEnd_t@CTStream@@QAEXXZ
       1218  4C1 00029BA0 ?DictionaryWriteBegin_t@CTStream@@QAEXABVCTFileName@@J@Z
       1219  4C2 00029CD0 ?DictionaryWriteEnd_t@CTStream@@QAEXXZ
       1220  4C3 00031F50 ?DirectionVectorToAngles@@YAXABV?$Vector@M$02@@AAV1@@Z
       1221  4C4 00031EA0 ?DirectionVectorToAnglesNoSnap@@YAXABV?$Vector@M$02@@AAV1@@Z
       1222  4C5 0000C8A0 ?DisableControl@CInputDevice@@QAEXJ@Z
       1223  4C6 0000C860 ?DisableDevice@CInputDevice@@QAEXXZ
       1224  4C7 0000C2A0 ?DisableInput@CInput@@QAEXXZ
       1225  4C8 0002E3E0 ?DisableLerp@CTimer@@QAEXXZ
       1226  4C9 00028D30 ?DisableStreamHandling@CTStream@@SAXXZ
       1227  4CA 000B5940 ?DisableVisTweaks@CWorldRenderPrefs@@QAEXH@Z
       1228  4CB 00123110 ?DiscardAllLayers@CBrushShadowMap@@QAEXXZ
       1229  4CC 000AD3B0 ?DiscardAllShadows@CWorld@@QAEXXZ
       1230  4CD 00109D60 ?DiscardCollisionInfo@CEntity@@QAEXXZ
       1231  4CE 0011C6D0 ?DiscardShadingInfos@CBrushPolygon@@QAEXXZ
       1232  4CF 00129780 ?DiscardShadowLayers@CLightSource@@QAEXXZ
       1233  4D0 00122530 ?DiscardShadows@CBrushPolygon@@QAEXXZ
       1234  4D1 00122500 ?DiscardShadows@CBrushShadowLayer@@QAEXXZ
       1235  4D2 00123150 ?DiscardShadows@CBrushShadowMap@@QAEXXZ
       1236  4D3 00171C70 ?Disconnect@CPlayerEntity@@UAEXXZ
       1237  4D4 0006D870 ?DitherBitmap@@YAXJPAK0JJJJ@Z
       1238  4D5 0006DBC0 ?DitherMipmaps@@YAXJPAK0JJ@Z
       1239  4D6 000B6030 ?DoCSGOperation@CWorld@@QAEXAAVCEntity@@AAV1@0ABVCPlacement3D@@P8CObject3D@@AEXAAV4@3@Z4@Z
       1240  4D7 00165920 ?DoMoving@CMovableBrushEntity@@UAEXXZ
       1241  4D8 0016DD10 ?DoMoving@CMovableEntity@@UAEXXZ
       1242  4D9 0016F0E0 ?DoMoving@CMovableModelEntity@@UAEXXZ
       1243  4DA 00171B60 ?DoMoving@CPlayerEntity@@UAEXXZ
       1244  4DB 0010FBF0 ?DoMoving@CRationalEntity@@UAEXXZ
       1245  4DC 0004AB10 ?DrawBorder@CDrawPort@@QBEXJJJJKK@Z
       1246  4DD 00090B90 ?DrawFilledSurface@CEditModel@@QAEXPAVCDrawPort@@JJMJJKK@Z
       1247  4DE 0004A9F0 ?DrawLine3D@CDrawPort@@QBEXV?$Vector@M$02@@0K@Z
       1248  4DF 0004A7F0 ?DrawLine@CDrawPort@@QBEXJJJJKK@Z
       1249  4E0 0004A6D0 ?DrawPoint3D@CDrawPort@@QBEXV?$Vector@M$02@@KM@Z
       1250  4E1 0004A580 ?DrawPoint@CDrawPort@@QBEXJJKJ@Z
       1251  4E2 00090990 ?DrawWireSurface@CEditModel@@QAEXPAVCDrawPort@@JJMJJKK@Z
       1252  4E3 000F05A0 ?DropLaggingClients@CServer@@QAEXXZ
       1253  4E4 00107130 ?DropsMarker@CEntity@@UBEHAAVCTFileName@@AAVCTString@@@Z
       1254  4E5 00165970 ?Dummy@CMovableBrushEntity@@QAEHABVCEntityEvent@@@Z
       1255  4E6 0016EA10 ?Dummy@CMovableEntity@@QAEHABVCEntityEvent@@@Z
       1256  4E7 0016F250 ?Dummy@CMovableModelEntity@@QAEHABVCEntityEvent@@@Z
       1257  4E8 00171CB0 ?Dummy@CPlayerEntity@@QAEHABVCEntityEvent@@@Z
       1258  4E9 000E8F00 ?Dump@CNetworkMessage@@QAEXXZ
       1259  4EA 00024FE0 ?DumpCurrentStack@@YAXPAVCTFileStream@@@Z
       1260  4EB 000ACE60 ?DumpReferenceInfo@CWorld@@QAEXPAVCEntity@@@Z
       1261  4EC 000F0820 ?DumpStats@CServer@@QAEXXZ
       1262  4ED 00171A90 ?DumpToConsole@CPlayerEntity@@UAEXXZ
       1263  4EE 00091450 ?EditAddPatch@CEditModel@@QAEHVCTFileName@@V?$Vector@J$01@@AAJ@Z
       1264  4EF 00091580 ?EditRemoveAllPatches@CEditModel@@QAEXXZ
       1265  4F0 00091550 ?EditRemovePatch@CEditModel@@QAEXJ@Z
       1266  4F1 0000C880 ?EnableControl@CInputDevice@@QAEXJ@Z
       1267  4F2 0000C840 ?EnableDevice@CInputDevice@@QAEXXZ
       1268  4F3 0000BFB0 ?EnableInput@CInput@@QAEXPAUHWND__@@@Z
       1269  4F4 0000BF90 ?EnableInput@CInput@@QAEXPAVCViewPort@@@Z
       1270  4F5 001404E0 ?EnableSrcRememberFN@CModelInstance@@SAXH@Z
       1271  4F6 00028CB0 ?EnableStreamHandling@CTStream@@SAXXZ
       1272  4F7 001404F0 ?EnableVertexArrayKeeping@CModelInstance@@SAXH@Z
       1273  4F8 001077B0 ?End@CEntity@@QAEXXZ
       1274  4F9 000569F0 ?EndDriver_D3D@CGfxLibrary@@AAEXXZ
       1275  4FA 0005CA50 ?EndDriver_OGL@CGfxLibrary@@AAEXXZ
       1276  4FB 0009FF30 ?EndModelRenderingMask@@YAXXZ
       1277  4FC 0009FAA0 ?EndModelRenderingView@@YAXH@Z
       1278  4FD 000E8A20 ?EndOfMessage@CNetworkMessage@@QAEHXZ
       1279  4FE 000DDDA0 ?EndWinsock@CCommunicationInterface@@QAEXXZ
       1280  4FF 001077C0 ?End_internal@CEntity@@QAEXXZ
       1281  500 0010D700 ?EntityAdjustBonesCallback@@YAXPAX@Z
       1282  501 0010D710 ?EntityAdjustShaderParamsCallback@@YAXPAXJPAVCShader@@AAUShaderParams@@@Z
       1283  502 000AE230 ?EntityExists@CWorld@@QAEHKAAPAVCEntity@@@Z
       1284  503 000AE1F0 ?EntityFromID@CWorld@@QAEPAVCEntity@@K@Z
       1285  504 0006CA90 ?EnumDisplayModes@CGfxLibrary@@QAEPAVCDisplayMode@@AAJW4GfxAPIType@@J@Z
       1286  505 000E8160 ?EnumNetworkProviders@CMessageDispatcher@@QAEXAAVCListHead@@@Z
       1287  506 000E8040 ?EnumNetworkProviders_startup@CMessageDispatcher@@QAEXAAVCListHead@@@Z
       1288  507 000DD220 ?EnumSessionsContinue@CNetworkLibrary@@QAEXXZ
       1289  508 000DD1C0 ?EnumSessionsStart@CNetworkLibrary@@QAEXH@Z
       1290  509 000DD6D0 ?EnumSessionsStop@CNetworkLibrary@@QAEXXZ
       1291  50A 00008960 ?ErrorDescription@@YAPBDPBUErrorTable@@J@Z
       1292  50B 00022970 ?ErrorF@CShell@@QAAXPBDZZ
       1293  50C 00008910 ?ErrorName@@YAPBDPBUErrorTable@@J@Z
       1294  50D 00028E40 ?ExceptionFatalError@CTStream@@SAXXZ
       1295  50E 00028D50 ?ExceptionFilter@CTStream@@SAHKPAU_EXCEPTION_POINTERS@@@Z
       1296  50F 00022480 ?Execute@CShell@@QAEXABVCTString@@@Z
       1297  510 0006EC10 ?ExpandEdges@CImageInfo@@QAEXJ@Z
       1298  511 0002C700 ?ExpandFilePath@@YAJKABVCTFileName@@AAV1@@Z
       1299  512 000295C0 ?ExpectID_t@CTStream@@QAEXABVCChunkID@@@Z
       1300  513 00029660 ?ExpectKeyword_t@CTStream@@QAEXABVCTString@@@Z
       1301  514 00090FC0 ?ExportSurfaceNumbersAndNames@CEditModel@@QAEXVCTFileName@@@Z
       1302  515 000776D0 ?Export_t@CTextureData@@QAEXAAVCImageInfo@@J@Z
       1303  516 000E8C40 ?ExtractSubMessage@CNetworkMessage@@QAEXAAV1@@Z
       1304  517 0003CF10 ?Extrapolate@CPlacement3D@@QAEXABV1@0M@Z
       1305  518 000129E0 ?FOVL@CPerspectiveProjection3D@@QAEAAMXZ
       1306  519 000129F0 ?FOVR@CPerspectiveProjection3D@@QBEABMXZ
       1307  51A 00029460 ?FPrintF_t@CTStream@@QAAXPBDZZ
       1308  51B 0010F7A0 ?FRnd@CEntity@@QAEMXZ
       1309  51C 00087530 ?Fade@CSoundObject@@QAEXMMH@Z
       1310  51D 00167740 ?FakeJump@CMovableEntity@@QAEXABV?$Vector@M$02@@0MMMMM@Z
       1311  51E 00107E70 ?FallDownToFloor@CEntity@@QAEXXZ
       1312  51F 00012850 ?FarClipDistanceL@CProjection3D@@QAEAAMXZ
       1313  520 00012860 ?FarClipDistanceR@CProjection3D@@QBEABMXZ
       1314  521 000085E0 ?FatalError@@YAXPBDZZ
       1315  522 00078F00 ?FetchRow@CTextureData@@QAEXJPAXJH@Z
       1316  523 0002B9C0 ?FileCommitPage@CTFileStream@@QAEXJ@Z
       1317  524 0002BB40 ?FileDecommitPage@CTFileStream@@QAEXJ@Z
       1318  525 00008B90 ?FileDir@CTFileName@@QBE?AV1@XZ
       1319  526 0002C160 ?FileExists@@YAHABVCTFileName@@@Z
       1320  527 0002C1F0 ?FileExistsForWriting@@YAHABVCTFileName@@@Z
       1321  528 00008D00 ?FileExt@CTFileName@@QBE?AV1@XZ
       1322  529 00008C50 ?FileName@CTFileName@@QBE?AV1@XZ
       1323  52A 0010DC50 ?FileNameForComponent@CEntity@@QAEABVCTFileName@@JJ@Z
       1324  52B 0002BBB0 ?FileReadAhead_t@CTFileStream@@QAEXJJ@Z
       1325  52C 0004AEA0 ?Fill@CDrawPort@@QBEXJJJJK@Z
       1326  52D 0004B1A0 ?Fill@CDrawPort@@QBEXJJJJKKKK@Z
       1327  52E 0004B440 ?Fill@CDrawPort@@QBEXK@Z
       1328  52F 0010F0C0 ?FillEntityStatistics@CEntity@@UAEHPAUEntityStats@@@Z
       1329  530 0004B520 ?FillZBuffer@CDrawPort@@QBEXJJJJM@Z
       1330  531 0004B630 ?FillZBuffer@CDrawPort@@QBEXM@Z
       1331  532 0006DC10 ?FilterBitmap@@YAXJPAK0JJJJ@Z
       1332  533 000ADB90 ?FilterEntitiesBySpawnFlags@CWorld@@QAEXK@Z
       1333  534 0013FB30 ?FindAnimationByID@CModelInstance@@QAEHHPAJ0@Z
       1334  535 0014FE20 ?FindBoneInLOD@CSkeleton@@QBEJJJ@Z
       1335  536 00109B20 ?FindCollisionInfo@CEntity@@QAEXXZ
       1336  537 0010AF50 ?FindEntitiesInRange@CEntity@@QAEXABV?$AABBox@M$02@@AAV?$CDynamicContainer@VCEntity@@@@H@Z
       1337  538 0011F050 ?FindEntitiesInSector@CBrushSector@@QAEXXZ
       1338  539 000B5430 ?FindEntitiesNearBox@CWorld@@QAEXABV?$AABBox@M$02@@AAV?$CStaticStackArray@PAVCEntity@@@@@Z
       1339  53A 000ACF20 ?FindEntityWithCharacter@CWorld@@QAEPAVCPlayerEntity@@AAVCPlayerCharacter@@@Z
       1340  53B 0013FBA0 ?FindFirstAnimationID@CModelInstance@@QAEJXZ
       1341  53C 00123280 ?FindLightRectangle@CBrushShadowMap@@QAEXAAVCLightSource@@AAVCLightRectangle@@@Z
       1342  53D 001127D0 ?FindRemappedEntityPointer@CEntity@@SAPAV1@PAV1@@Z
       1343  53E 000F4110 ?FindRememberedLevel@CSessionState@@QAEPAVCRememberedLevel@@ABVCTString@@@Z
       1344  53F 0010A110 ?FindSectorsAroundEntity@CEntity@@QAEXXZ
       1345  540 0010A6D0 ?FindSectorsAroundEntityNear@CEntity@@QAEXXZ
       1346  541 001088F0 ?FindShadingInfo@CEntity@@QAEXXZ
       1347  542 0012A2F0 ?FindShadowLayers@CLightSource@@QAEXH@Z
       1348  543 000AD290 ?FindShadowLayers@CWorld@@QAEXABV?$AABBox@M$02@@HH@Z
       1349  544 001299D0 ?FindShadowLayersDirectional@CLightSource@@QAEXH@Z
       1350  545 00129C40 ?FindShadowLayersPoint@CLightSource@@QAEXH@Z
       1351  546 000060A0 ?FindSubstr@CTString@@QAEJABV1@@Z
       1352  547 0013F200 ?FindTexureInstance@CModelInstance@@QAEPAUTextureInstance@@J@Z
       1353  548 0013F260 ?FindTexureInstance@CModelInstance@@QAEPAUTextureInstance@@JAAUMeshInstance@@@Z
       1354  549 000DD0D0 ?FinishCRCGather@CNetworkLibrary@@QAEXXZ
       1355  54A 0002EC30 ?FinishTranslationTable@@YAXXZ
       1356  54B 00003A60 ?FirstFrame@CAnimObject@@QAEXXZ
       1357  54C 000EC8F0 ?FirstInactivePlayer@CServer@@QAEPAVCPlayerTarget@@XZ
       1358  54D 0006D2D0 ?FlipBitmap@@YAXPAE0JJJH@Z
       1359  54E 000B8F00 ?FlipPolygon@CWorld@@QAEXAAVCBrushPolygon@@@Z
       1360  54F 000139F0 ?Flush@CGfxLibrary@@QAEXXZ
       1361  550 00081D40 ?Flush@CSoundLibrary@@QAEXXZ
       1362  551 0004DC30 ?FlushRenderingQueue@CDrawPort@@QBEXXZ
       1363  552 000777D0 ?Force@CTextureData@@QAEXK@Z
       1364  553 0016F1B0 ?ForceCollisionBoxIndexChange@CMovableModelEntity@@QAEXJ@Z
       1365  554 00167730 ?ForceFullStop@CMovableEntity@@QAEXXZ
       1366  555 001676A0 ?ForceStopRotation@CMovableEntity@@QAEXXZ
       1367  556 00167610 ?ForceStopTranslation@CMovableEntity@@QAEXXZ
       1368  557 000F4250 ?ForgetOldLevels@CSessionState@@QAEXXZ
       1369  558 0002AAD0 ?FreeBuffer@CTStream@@QAEXXZ
       1370  559 0000EF00 ?FreeMemory@@YAXPAX@Z
       1371  55A 0000EEC0 ?FreeMemoryAligned@@YAXPAX@Z
       1372  55B 000C93F0 ?FreeUnused@CStock_CAnimData@@QAEXXZ
       1373  55C 000CA350 ?FreeUnused@CStock_CAnimSet@@QAEXXZ
       1374  55D 000CB140 ?FreeUnused@CStock_CEntityClass@@QAEXXZ
       1375  55E 000CBFC0 ?FreeUnused@CStock_CFontData@@QAEXXZ
       1376  55F 000CCE40 ?FreeUnused@CStock_CMesh@@QAEXXZ
       1377  560 000CDCB0 ?FreeUnused@CStock_CModelData@@QAEXXZ
       1378  561 000CEB20 ?FreeUnused@CStock_CModelInstance@@QAEXXZ
       1379  562 000CF980 ?FreeUnused@CStock_CShader@@QAEXXZ
       1380  563 000D0850 ?FreeUnused@CStock_CSkeleton@@QAEXXZ
       1381  564 000D16D0 ?FreeUnused@CStock_CSoundData@@QAEXXZ
       1382  565 000D2540 ?FreeUnused@CStock_CTextureData@@QAEXXZ
       1383  566 00109680 ?FromBrush@CCollisionInfo@@QAEXPAVCBrush3D@@@Z
       1384  567 000445D0 ?FromMappingVectors@CMappingDefinition@@QAEXABVCMappingVectors@@0@Z
       1385  568 00109370 ?FromModel@CCollisionInfo@@QAEXPAVCEntity@@J@Z
       1386  569 001186E0 ?FromObject3D_t@CBrush3D@@QAEXAAVCObject3D@@@Z
       1387  56A 00118880 ?FromObjectSector_t@CBrushSector@@QAEXAAVCObjectSector@@@Z
       1388  56B 00043A00 ?FromPlane@CMappingVectors@@QAEXABV?$Plane@M$02@@@Z
       1389  56C 00043B60 ?FromPlane_DOUBLE@CMappingVectors@@QAEXABV?$Plane@N$02@@@Z
       1390  56D 00109670 ?FromSkaModel@CCollisionInfo@@QAEXPAVCEntity@@J@Z
       1391  56E 00043D90 ?FromUI@CMappingDefinition@@QAEXABVCMappingDefinitionUI@@@Z
       1392  56F 00012810 ?FrontClipDistanceL@CProjection3D@@QAEAAMXZ
       1393  570 00012820 ?FrontClipDistanceR@CProjection3D@@QBEABMXZ
       1394  571 000DCE50 ?GameInactive@CNetworkLibrary@@QAEXXZ
       1395  572 0008A080 ?GetActiveCollisionBoxIndex@CEditModel@@QAEJXZ
       1396  573 00095B00 ?GetAllFramesBBox@CModelData@@QAEXAAV?$AABBox@M$02@@@Z
       1397  574 0013DFD0 ?GetAllFramesBBox@CModelInstance@@QAEXAAV?$AABBox@M$02@@@Z
       1398  575 0009AA50 ?GetAllFramesBBox@CModelObject@@QAEXAAV?$AABBox@M$02@@@Z
       1399  576 00003EE0 ?GetAnim@CAnimObject@@QBEJXZ
       1400  577 00107160 ?GetAnimData@CEntity@@UAEPAVCAnimData@@J@Z
       1401  578 00003330 ?GetAnimInfo@CAnimData@@QBEXJAAVCAnimInfo@@@Z
       1402  579 00003D50 ?GetAnimInfo@CAnimObject@@QBEXJAAVCAnimInfo@@@Z
       1403  57A 00003880 ?GetAnimLength@CAnimObject@@QBEMJ@Z
       1404  57B 0013FBD0 ?GetAnimLength@CModelInstance@@QAEMJH@Z
       1405  57C 0013FC40 ?GetAnimPlayingTime@CModelInstance@@QAEMJ@Z
       1406  57D 00003540 ?GetAnimsCt@CAnimData@@QBEJXZ
       1407  57E 00003EC0 ?GetAnimsCt@CAnimObject@@QBEJXZ
       1408  57F 000AA770 ?GetAttachmentMatrices@CModelObject@@QAEXPAVCAttachmentModelObject@@AAV?$Matrix@M$02$02@@AAV?$Vector@M$02@@@Z
       1409  580 0009B480 ?GetAttachmentModel@CModelObject@@QAEPAVCAttachmentModelObject@@J@Z
       1410  581 0009B4B0 ?GetAttachmentModelList@CModelObject@@QAAPAVCAttachmentModelObject@@JZZ
       1411  582 00099E80 ?GetAttachmentPlacement@CModelObject@@QAE?AVCPlacement3D@@AAVCAttachmentModelObject@@@Z
       1412  583 000AAD00 ?GetAttachmentTransformations@CModelObject@@QAEXJAAV?$Matrix@M$02$02@@AAV?$Vector@M$02@@H@Z
       1413  584 000AD070 ?GetBackgroundColor@CWorld@@QAEKXZ
       1414  585 000AD0D0 ?GetBackgroundViewer@CWorld@@QAEPAVCEntity@@XZ
       1415  586 0010D7C0 ?GetBoneAbsPosition@CEntity@@QAEHJAAV?$Vector@M$02@@0@Z
       1416  587 0010D730 ?GetBoneRelPosition@CEntity@@QAEHJAAV?$Vector@M$02@@0@Z
       1417  588 0010D810 ?GetBoneTransformations@CEntity@@QAEHJAAV?$Matrix@M$02$02@@AAV?$Vector@M$02@@@Z
       1418  589 00106D30 ?GetBoundingBox@CEntity@@QAEXAAV?$AABBox@M$02@@@Z
       1419  58A 000333F0 ?GetBoundingBox@CObject3D@@QAEXAAV?$AABBox@N$02@@@Z
       1420  58B 000176C0 ?GetBrush@CEntity@@QAEPAVCBrush3D@@XZ
       1421  58C 000B5C00 ?GetBrushMip@CWorld@@QAEPAVCBrushMip@@AAVCEntity@@@Z
       1422  58D 001163A0 ?GetBrushMipByDistance@CBrush3D@@QAEPAVCBrushMip@@M@Z
       1423  58E 001163E0 ?GetBrushMipByIndex@CBrush3D@@QAEPAVCBrushMip@@J@Z
       1424  58F 00015510 ?GetBrushPolygon@CBrushShadowMap@@QAEPAVCBrushPolygon@@XZ
       1425  590 00015760 ?GetBrushType@CBrush3D@@UAEJXZ
       1426  591 000147B0 ?GetBrushType@CBrushBase@@UAEJXZ
       1427  592 00067560 ?GetBrushType@CTerrain@@UAEJXZ
       1428  593 00004A60 ?GetBuffer@CConsole@@QAEPBDXZ
       1429  594 00004A80 ?GetBufferSize@CConsole@@QAEJXZ
       1430  595 0000DA50 ?GetCharFromKey@@YADKH@Z
       1431  596 00049010 ?GetCharSpacing@CFontData@@QBEJXZ
       1432  597 00048FE0 ?GetCharWidthA@CFontData@@QBEJD@Z
       1433  598 000EAB90 ?GetChatMask@CPlayerSource@@QAEKXZ
       1434  599 0013F3F0 ?GetChild@CModelInstance@@QAEPAV1@JH@Z
       1435  59A 001086D0 ?GetChildOfClass@CEntity@@QAEPAV1@PBD@Z
       1436  59B 000176A0 ?GetClass@CEntity@@QAEPAVCEntityClass@@XZ
       1437  59C 001073E0 ?GetClassificationBoxStretch@CEntity@@UAE?AV?$Vector@M$02@@XZ
       1438  59D 000EC800 ?GetClientsCount@CServer@@QAEJXZ
       1439  59E 0013E110 ?GetColisionBox@CModelInstance@@QAEAAUColisionBox@@J@Z
       1440  59F 0013E0E0 ?GetColisionBoxIndex@CModelInstance@@QAEJJ@Z
       1441  5A0 00092A60 ?GetCollisionBoxDimensionEquality@CEditModel@@QAEJXZ
       1442  5A1 00095C50 ?GetCollisionBoxDimensionEquality@CModelData@@QAEJJ@Z
       1443  5A2 0013E1C0 ?GetCollisionBoxDimensionEquality@CModelInstance@@QAEJJ@Z
       1444  5A3 0009AAB0 ?GetCollisionBoxDimensionEquality@CModelObject@@QAEJJ@Z
       1445  5A4 00107420 ?GetCollisionBoxIndex@CEntity@@UAEJXZ
       1446  5A5 0016F0F0 ?GetCollisionBoxIndex@CMovableModelEntity@@UAEJXZ
       1447  5A6 00092A50 ?GetCollisionBoxMax@CEditModel@@QAEAAV?$Vector@M$02@@XZ
       1448  5A7 00095C00 ?GetCollisionBoxMax@CModelData@@QAE?AV?$Vector@M$02@@J@Z
       1449  5A8 0013E170 ?GetCollisionBoxMax@CModelInstance@@QAE?AV?$Vector@M$02@@J@Z
       1450  5A9 0009AA90 ?GetCollisionBoxMax@CModelObject@@QAE?AV?$Vector@M$02@@J@Z
       1451  5AA 00092A40 ?GetCollisionBoxMin@CEditModel@@QAEAAV?$Vector@M$02@@XZ
       1452  5AB 00095BB0 ?GetCollisionBoxMin@CModelData@@QAE?AV?$Vector@M$02@@J@Z
       1453  5AC 0013E130 ?GetCollisionBoxMin@CModelInstance@@QAE?AV?$Vector@M$02@@J@Z
       1454  5AD 0009AA70 ?GetCollisionBoxMin@CModelObject@@QAE?AV?$Vector@M$02@@J@Z
       1455  5AE 000926E0 ?GetCollisionBoxName@CEditModel@@QAE?AVCTString@@J@Z
       1456  5AF 00092780 ?GetCollisionBoxName@CEditModel@@QAE?AVCTString@@XZ
       1457  5B0 00107430 ?GetCollisionBoxParameters@CEntity@@UAEXJAAV?$AABBox@M$02@@AAJ@Z
       1458  5B1 00017680 ?GetCollisionFlags@CEntity@@QBEKXZ
       1459  5B2 00099630 ?GetColorName@CModelObject@@QAE?AVCTString@@J@Z
       1460  5B3 00020940 ?GetCompletionString@CShellSymbol@@QBE?AVCTString@@XZ
       1461  5B4 00015570 ?GetContentType@CBrushSector@@QAEJXZ
       1462  5B5 0000C780 ?GetControl@CInputDevice@@QAEJABVCTString@@@Z
       1463  5B6 0000B270 ?GetControlGID@@YAKJJ@Z
       1464  5B7 0000C4C0 ?GetControlGIDFromString@CInput@@QAEKABVCTString@@0@Z
       1465  5B8 0000B280 ?GetControlLID@@YAJK@Z
       1466  5B9 0000C530 ?GetControlName@CInput@@QAE?AVCTString@@K@Z
       1467  5BA 0000C580 ?GetControlTransName@CInput@@QAE?AVCTString@@K@Z
       1468  5BB 0000C500 ?GetControlValue@CInput@@QAEMK@Z
       1469  5BC 0000C7E0 ?GetControlValue@CInputDevice@@QAEMJ@Z
       1470  5BD 0000C770 ?GetControlsCount@CInputDevice@@QAEJXZ
       1471  5BE 000138F0 ?GetCurrentAPI@CGfxLibrary@@QAE?AW4GfxAPIType@@XZ
       1472  5BF 00013900 ?GetCurrentAdapter@CGfxLibrary@@QAEJXZ
       1473  5C0 000038C0 ?GetCurrentAnimLength@CAnimObject@@QBEMXZ
       1474  5C1 0013E0D0 ?GetCurrentColisionBox@CModelInstance@@QAEAAUColisionBox@@XZ
       1475  5C2 0013E050 ?GetCurrentColisionBox@CModelInstance@@QAEXAAV?$AABBox@M$02@@@Z
       1476  5C3 0013E650 ?GetCurrentColisionBoxIndex@CModelInstance@@QAEJXZ
       1477  5C4 00013910 ?GetCurrentDisplayMode@CGfxLibrary@@QAEXAAVCDisplayMode@@@Z
       1478  5C5 0009AA20 ?GetCurrentFrameBBox@CModelObject@@QAEXAAV?$AABBox@M$02@@@Z
       1479  5C6 000F79C0 ?GetCurrentMipBrushingFactor@CWorldRenderPrefs@@QAEMM@Z
       1480  5C7 00018BF0 ?GetCurrentWorld@CNetworkLibrary@@QAEAAVCTFileName@@XZ
       1481  5C8 0009AD40 ?GetData@CModelObject@@QAEPAVCModelData@@XZ
       1482  5C9 001075B0 ?GetDepthSortOffset@CEntity@@UAEMXZ
       1483  5CA 001355E0 ?GetDescription@CAnimSet@@UAE?AVCTString@@XZ
       1484  5CB 00107080 ?GetDescription@CEntity@@UBEABVCTString@@XZ
       1485  5CC 0013C4C0 ?GetDescription@CMesh@@UAE?AVCTString@@XZ
       1486  5CD 00098890 ?GetDescription@CModelData@@UAE?AVCTString@@XZ
       1487  5CE 00140720 ?GetDescription@CModelInstanceSerial@@UAE?AVCTString@@XZ
       1488  5CF 000E7CD0 ?GetDescription@CNetworkProvider@@QBEABVCTString@@XZ
       1489  5D0 000203C0 ?GetDescription@CSerial@@UAE?AVCTString@@XZ
       1490  5D1 00150D50 ?GetDescription@CSkeleton@@UAE?AVCTString@@XZ
       1491  5D2 0007E950 ?GetDescription@CSoundData@@UAE?AVCTString@@XZ
       1492  5D3 000017A0 ?GetDescription@CTStream@@QAEAAVCTString@@XZ
       1493  5D4 00078FE0 ?GetDescription@CTextureData@@UAE?AVCTString@@XZ
       1494  5D5 000AD140 ?GetDescription@CWorld@@QAEABVCTString@@XZ
       1495  5D6 00167310 ?GetDesiredRotation@CMovableEntity@@QBEABV?$Vector@M$02@@XZ
       1496  5D7 001673D0 ?GetDesiredTranslation@CMovableEntity@@QBEABV?$Vector@M$02@@XZ
       1497  5D8 0000AE00 ?GetDeviceType@CInputDevice@@QAE?AW4DeviceType@@XZ
       1498  5D9 000109A0 ?GetDirectionVector@CPlacement3D@@QAEXAAV?$Vector@M$02@@@Z
       1499  5DA 0002D100 ?GetDiskFreeSpaceA@@YA_JABVCTString@@@Z
       1500  5DB 0003E820 ?GetDistance@CIsometricProjection3D@@UBEMABV?$Vector@M$02@@@Z
       1501  5DC 0003FF10 ?GetDistance@CParallelProjection3D@@UBEMABV?$Vector@M$02@@@Z
       1502  5DD 00041C70 ?GetDistance@CPerspectiveProjection3D@@UBEMABV?$Vector@M$02@@@Z
       1503  5DE 000427C0 ?GetDistance@CSimpleProjection3D@@UBEMABV?$Vector@M$02@@@Z
       1504  5DF 0011D580 ?GetDistanceFromEdges@CBrushPolygon@@QAEMABV?$Vector@M$02@@@Z
       1505  5E0 00019DB0 ?GetDst@CRelationLnk@@QAEAAVCRelationDst@@XZ
       1506  5E1 000B5A70 ?GetEdgesFillType@CWorldRenderPrefs@@QAE?AW4FillType@1@XZ
       1507  5E2 000B5A90 ?GetEdgesInkColor@CWorldRenderPrefs@@QAEKXZ
       1508  5E3 00089370 ?GetElapsedTime@CSoundObject@@QAEMJ@Z
       1509  5E4 000B5B90 ?GetEmptyBrushModel@CWorldRenderPrefs@@QAEPAVCModelObject@@XZ
       1510  5E5 001066B0 ?GetEntity@CEntityID@@QAEPAVCEntity@@XZ
       1511  5E6 0010F0B0 ?GetEntityInfo@CEntity@@UAEPAXXZ
       1512  5E7 000DC7C0 ?GetEntityOfClass@CNetworkLibrary@@QAEPAVCEntity@@ABVCTString@@J@Z
       1513  5E8 0010E0F0 ?GetEntityPointFixed@CEntity@@QAEXABV?$Vector@M$02@@AAV2@@Z
       1514  5E9 0010DDF0 ?GetEntityPointRatio@CEntity@@QAEXABV?$Vector@M$02@@AAV2@H@Z
       1515  5EA 000DC560 ?GetEntityWithName@CNetworkLibrary@@QAEPAVCEntity@@ABVCTString@@J@Z
       1516  5EB 00015630 ?GetEnvironmentType@CBrushSector@@QAEJXZ
       1517  5EC 000915F0 ?GetExistingPatchesMask@CEditModel@@QAEKXZ
       1518  5ED 00022610 ?GetFLOAT@CShell@@QAEMABVCTString@@@Z
       1519  5EE 00031750 ?GetFPUPrecision@@YA?AW4FPUPrecisionType@@XZ
       1520  5EF 00107400 ?GetFieldSettings@CEntity@@UAEPAVCFieldSettings@@XZ
       1521  5F0 0002C3E0 ?GetFileCRC32_t@@YAKABVCTFileName@@@Z
       1522  5F1 0002C2B0 ?GetFileTimeStamp_t@@YAJABVCTFileName@@@Z
       1523  5F2 000910E0 ?GetFirstEmptyPatchIndex@CEditModel@@QAEHAAJ@Z
       1524  5F3 00116410 ?GetFirstMip@CBrush3D@@QAEPAVCBrushMip@@XZ
       1525  5F4 0013F450 ?GetFirstNonReferencedParent@CModelInstance@@QAEPAV1@PAV1@@Z
       1526  5F5 001091D0 ?GetFirstSector@CEntity@@QAEPAVCBrushSector@@XZ
       1527  5F6 001091F0 ?GetFirstSectorWithName@CEntity@@QAEPAVCBrushSector@@XZ
       1528  5F7 00091120 ?GetFirstValidPatchIndex@CEditModel@@QAEHAAJ@Z
       1529  5F8 00017640 ?GetFlags@CEntity@@QBEKXZ
       1530  5F9 00095C90 ?GetFlags@CModelData@@QAEKXZ
       1531  5FA 000675C0 ?GetFlags@CTerrain@@QAEKXZ
       1532  5FB 00014290 ?GetFlags@CTextureData@@QBEKXZ
       1533  5FC 000784D0 ?GetFlags@CTextureObject@@QBEKXZ
       1534  5FD 001072B0 ?GetFog@CEntity@@UAEHJAAVCFogParameters@@@Z
       1535  5FE 00107260 ?GetFogName@CEntity@@UAEABVCTString@@J@Z
       1536  5FF 000155D0 ?GetFogType@CBrushSector@@QAEJXZ
       1537  600 001071C0 ?GetForce@CEntity@@UAEXJABV?$Vector@M$02@@AAVCForceStrength@@1@Z
       1538  601 00107210 ?GetForceController@CEntity@@UAEPAV1@J@Z
       1539  602 00107170 ?GetForceName@CEntity@@UAEABVCTString@@J@Z
       1540  603 000155A0 ?GetForceType@CBrushSector@@QAEJXZ
       1541  604 00067550 ?GetFormat@CSoundLibrary@@QAE?AW4SoundFormat@1@XZ
       1542  605 00003500 ?GetFrame@CAnimData@@QAEJJJ@Z
       1543  606 00003EF0 ?GetFrame@CAnimObject@@QBEJXZ
       1544  607 00003F20 ?GetFrame@CAnimObject@@QBEXAAJ0AAM@Z
       1545  608 000994C0 ?GetFrameBBox@CModelObject@@QAE?AV?$AABBox@M$02@@J@Z
       1546  609 000138E0 ?GetFrameNumber@CGfxLibrary@@QAEJXZ
       1547  60A 00003F00 ?GetFramesInCurrentAnim@CAnimObject@@QBEJXZ
       1548  60B 0000DA80 ?GetGIDFromChar@@YAKD@Z
       1549  60C 0000DAB0 ?GetGIDFromVirtKey@@YAKJ@Z
       1550  60D 00171CA0 ?GetGameSpyPlayerInfo@CPlayerEntity@@UAEXJAAVCTString@@@Z
       1551  60E 000DC930 ?GetGameTime@CNetworkLibrary@@QAEMXZ
       1552  60F 0006EE20 ?GetGfxFileInfo_t@CImageInfo@@QAEJABVCTFileName@@@Z
       1553  610 001073D0 ?GetGradient@CEntity@@UAEHJAAVCGradientParameters@@@Z
       1554  611 00107380 ?GetGradientName@CEntity@@UAEABVCTString@@J@Z
       1555  612 00006680 ?GetHash@CTString@@QBEKXZ
       1556  613 00107310 ?GetHaze@CEntity@@UAEHJAAVCHazeParameters@@AAV?$Vector@M$02@@@Z
       1557  614 001072C0 ?GetHazeName@CEntity@@UAEABVCTString@@J@Z
       1558  615 00015600 ?GetHazeType@CBrushSector@@QAEJXZ
       1559  616 0000ED40 ?GetHead@CListNode@@QAEAAVCListHead@@XZ
       1560  617 00167C00 ?GetHeadingDirection@CMovableEntity@@QAEXMAAV?$Vector@M$02@@@Z
       1561  618 000178F0 ?GetHealth@CLiveEntity@@QBEMXZ
       1562  619 0000B2D0 ?GetHeight@CDrawPort@@QBEJXZ
       1563  61A 0008A070 ?GetHeight@CEditModel@@QAEJXZ
       1564  61B 00048FD0 ?GetHeight@CFontData@@QBEJXZ
       1565  61C 00099280 ?GetHeight@CModelObject@@QAEJXZ
       1566  61D 00014260 ?GetHeight@CTextureData@@QBEJXZ
       1567  61E 000784C0 ?GetHeight@CTextureObject@@QBEJXZ
       1568  61F 00002170 ?GetHighPrecisionTimer@CTimer@@QAE?AVCTimerValue@@XZ
       1569  620 000DE160 ?GetHostName@CCommunicationInterface@@QAEXAAVCTString@@0@Z
       1570  621 000DA1B0 ?GetHostName@CNetworkLibrary@@QAEXAAVCTString@@0@Z
       1571  622 00049B90 ?GetID@CDrawPort@@QAEKXZ
       1572  623 0013FDF0 ?GetID@CModelInstance@@QAEABJXZ
       1573  624 000294E0 ?GetID_t@CTStream@@QAE?AVCChunkID@@XZ
       1574  625 00022690 ?GetINDEX@CShell@@QAEJABVCTString@@@Z
       1575  626 00095420 ?GetInkColor@CModelRenderPrefs@@QAEKXZ
       1576  627 0000C310 ?GetInput@CInput@@QAEXH@Z
       1577  628 0000C460 ?GetInputDevice@CInput@@QAEPAVCInputDevice@@ABVCTString@@@Z
       1578  629 0000C440 ?GetInputDevice@CInput@@QAEPAVCInputDevice@@J@Z
       1579  62A 0000B290 ?GetInputDeviceID@@YAJK@Z
       1580  62B 0000C5D0 ?GetInputDeviceName@CInput@@QAE?AVCTString@@J@Z
       1581  62C 0000C600 ?GetInputDeviceShortName@CInput@@QAE?AVCTString@@J@Z
       1582  62D 0000B040 ?GetInputDevicesCount@CInput@@QAEJXZ
       1583  62E 00116420 ?GetLastMip@CBrush3D@@QAEPAVCBrushMip@@XZ
       1584  62F 0010DD00 ?GetLastPositions@CEntity@@QAEPAVCLastPositions@@J@Z
       1585  630 000B5B10 ?GetLensFlares@CWorldRenderPrefs@@QAE?AW4LensFlaresType@1@XZ
       1586  631 00002160 ?GetLerpFactor2@CTimer@@QBEMXZ
       1587  632 00002150 ?GetLerpFactor@CTimer@@QBEMXZ
       1588  633 00002140 ?GetLerpedCurrentTick@CTimer@@QBE?BMXZ
       1589  634 00166700 ?GetLerpedEntityTime@CMovableEntity@@QAEMXZ
       1590  635 00108580 ?GetLerpedPlacement@CEntity@@UBE?AVCPlacement3D@@XZ
       1591  636 00167180 ?GetLerpedPlacement@CMovableEntity@@UBE?AVCPlacement3D@@XZ
       1592  637 0012A7D0 ?GetLightAmbient@CLightSource@@QBEKXZ
       1593  638 0012A810 ?GetLightAmbient@CLightSource@@QBEXAAE00@Z
       1594  639 0012A6C0 ?GetLightColor@CLightSource@@QBEKXZ
       1595  63A 0012A700 ?GetLightColor@CLightSource@@QBEXAAE00@Z
       1596  63B 000ABD30 ?GetLightColorAndAmbient@CLightSource@@QBEXAAE00000@Z
       1597  63C 000ABD00 ?GetLightColorAndAmbient@CLightSource@@QBEXAAK0@Z
       1598  63D 00107140 ?GetLightSource@CEntity@@UAEPAVCLightSource@@XZ
       1599  63E 00122860 ?GetLightStrength@CBrushShadowLayer@@QAEMJJMM@Z
       1600  63F 00049020 ?GetLineSpacing@CFontData@@QBEJXZ
       1601  640 00029330 ?GetLine_t@CTStream@@QAEXAAVCTString@@D@Z
       1602  641 00029270 ?GetLine_t@CTStream@@QAEXPADJD@Z
       1603  642 000DE4C0 ?GetLocalAddress_t@CCommunicationInterface@@QAEXAAK0@Z
       1604  643 000DA1A0 ?GetLocalPause@CNetworkLibrary@@QAEHXZ
       1605  644 000DC360 ?GetLocalPlayerCount@CNetworkLibrary@@QAEJXZ
       1606  645 000DC380 ?GetLocalPlayerEntity@CNetworkLibrary@@QAEPAVCEntity@@PAVCPlayerSource@@@Z
       1607  646 00024F40 ?GetLogicalAddress@@YAHPAXPADKAAK2@Z
       1608  647 000B59E0 ?GetManualMipBrushingFactor@CWorldRenderPrefs@@QAEMXZ
       1609  648 00099520 ?GetManualMipLevel@CModelObject@@QAEJXZ
       1610  649 00109AA0 ?GetMaxFloorRadius@CCollisionInfo@@QAEMXZ
       1611  64A 00106CF0 ?GetMaxPlayers@CEntity@@SAJXZ
       1612  64B 001075D0 ?GetMaxTessellationLevel@CEntity@@UAEMXZ
       1613  64C 000B5B30 ?GetMinimumRenderRange@CWorldRenderPrefs@@QAEMXZ
       1614  64D 0008A050 ?GetMipCt@CEditModel@@QAEJXZ
       1615  64E 0011B570 ?GetMipDistance@CBrushMip@@QAEMXZ
       1616  64F 0011B580 ?GetMipIndex@CBrushMip@@QAEJXZ
       1617  650 00099470 ?GetMipModel@CModelObject@@QAEJM@Z
       1618  651 0006D1C0 ?GetMipmapOfSize@@YAJJAAPAKAAJ1@Z
       1619  652 0006D180 ?GetMipmapOffset@@YAJJJJ@Z
       1620  653 00107370 ?GetMirror@CEntity@@UAEHJAAVCMirrorParameters@@@Z
       1621  654 00107320 ?GetMirrorName@CEntity@@UAEABVCTString@@J@Z
       1622  655 0010C410 ?GetModel@CEntity@@QAEABVCTFileName@@XZ
       1623  656 0010C400 ?GetModelColor@CEntity@@QBEKXZ
       1624  657 0013FE30 ?GetModelColor@CModelInstance@@QAEKXZ
       1625  658 0010DC90 ?GetModelDataForComponent@CEntity@@QAEPAVCModelData@@J@Z
       1626  659 00107240 ?GetModelForRendering@CEntity@@UAEPAVCModelObject@@XZ
       1627  65A 00099290 ?GetModelInfo@CModelObject@@QAEXAAVCModelInfo@@@Z
       1628  65B 000176E0 ?GetModelInstance@CEntity@@QAEPAVCModelInstance@@XZ
       1629  65C 0010DCB0 ?GetModelInstanceForComponent@CEntity@@QAEPAVCModelInstance@@J@Z
       1630  65D 00107250 ?GetModelInstanceForRendering@CEntity@@UAEPAVCModelInstance@@XZ
       1631  65E 0010D3F0 ?GetModelMainTexture@CEntity@@QAEABVCTFileName@@XZ
       1632  65F 000176D0 ?GetModelObject@CEntity@@QAEPAVCModelObject@@XZ
       1633  660 0013FE00 ?GetModelVertices@CModelInstance@@QAEXAAV?$CStaticStackArray@V?$Vector@M$02@@@@AAV?$Matrix@M$02$02@@AAV?$Vector@M$02@@MM@Z
       1634  661 000A9EF0 ?GetModelVertices@CModelObject@@QAEXAAV?$CStaticStackArray@V?$Vector@M$02@@@@AAV?$Matrix@M$02$02@@AAV?$Vector@M$02@@MM@Z
       1635  662 0010D670 ?GetModelVerticesAbsolute@CEntity@@QAEXAAV?$CStaticStackArray@V?$Vector@M$02@@@@MM@Z
       1636  663 00171B20 ?GetMyPlayerIndex@CPlayerEntity@@QAEJXZ
       1637  664 00107030 ?GetName@CEntity@@UBEABVCTString@@XZ
       1638  665 0013FDA0 ?GetName@CModelInstance@@QAE?AVCTString@@XZ
       1639  666 0009AC10 ?GetName@CModelObject@@QAE?AVCTFileName@@XZ
       1640  667 00115BE0 ?GetName@CPlayerCharacter@@QBEABVCTString@@XZ
       1641  668 00171B10 ?GetName@CPlayerEntity@@UBEABVCTString@@XZ
       1642  669 00001330 ?GetName@CSerial@@QAEABVCTFileName@@XZ
       1643  66A 000012A0 ?GetName@CTFileName@@QAEABV1@XZ
       1644  66B 00078D50 ?GetName@CTextureObject@@QAEABVCTFileName@@XZ
       1645  66C 000AD180 ?GetName@CWorld@@QAEABVCTString@@XZ
       1646  66D 00115BF0 ?GetNameForPrinting@CPlayerCharacter@@QBE?BVCTString@@XZ
       1647  66E 001156B0 ?GetNearestPolygon@CEntity@@QAEPAVCBrushPolygon@@AAV?$Vector@M$02@@AAV?$Plane@M$02@@AAM@Z
       1648  66F 0011B5B0 ?GetNext@CBrushMip@@QAEPAV1@XZ
       1649  670 00091220 ?GetNextValidPatchIndex@CEditModel@@QAEXAAJ@Z
       1650  671 000142D0 ?GetNoOfFineMips@CTextureData@@QBEKXZ
       1651  672 000142A0 ?GetNoOfMips@CTextureData@@QBEKXZ
       1652  673 000DC730 ?GetNthPlayerEntity@CNetworkLibrary@@QAEPAVCPlayerEntity@@J@Z
       1653  674 000DC690 ?GetNthPlayerEntityWithName@CNetworkLibrary@@QAEPAVCPlayerEntity@@ABVCTString@@J@Z
       1654  675 000DC4E0 ?GetNumberOfEntitiesWithName@CNetworkLibrary@@QAEJABVCTString@@@Z
       1655  676 000DC600 ?GetNumberOfPlayerEntitiesWithName@CNetworkLibrary@@QAEJABVCTString@@@Z
       1656  677 000EC880 ?GetObserversCount@CServer@@QAEJXZ
       1657  678 0013EC10 ?GetOffsetPos@CModelInstance@@QAE?AV?$Vector@M$02@@XZ
       1658  679 0013EC40 ?GetOffsetRot@CModelInstance@@QAE?AV?$Vector@M$02@@XZ
       1659  67A 00017540 ?GetOpacity@CEntity@@UAEMXZ
       1660  67B 00111B70 ?GetOverridenState@CDLLEntityClass@@QAEJJ@Z
       1661  67C 00095440 ?GetPaperColor@CModelRenderPrefs@@QAEKXZ
       1662  67D 00017700 ?GetParent@CEntity@@QAEPAV1@XZ
       1663  67E 0013F390 ?GetParent@CModelInstance@@QAEPAV1@PAV1@@Z
       1664  67F 00003E00 ?GetPassedTime@CAnimObject@@QBEMXZ
       1665  680 000995D0 ?GetPatchesMask@CModelObject@@QAEKXZ
       1666  681 00017670 ?GetPhysicsFlags@CEntity@@QBEKXZ
       1667  682 00167D10 ?GetPitchDirection@CMovableEntity@@QAEXMAAV?$Vector@M$02@@@Z
       1668  683 00014280 ?GetPixHeight@CTextureData@@QBEJXZ
       1669  684 00014270 ?GetPixWidth@CTextureData@@QBEJXZ
       1670  685 000175B0 ?GetPlacement@CEntity@@QBEABVCPlacement3D@@XZ
       1671  686 00106D00 ?GetPlayerEntity@CEntity@@SAPAV1@J@Z
       1672  687 000DC410 ?GetPlayerEntityByName@CNetworkLibrary@@QAEPAVCEntity@@ABVCTString@@@Z
       1673  688 00171AE0 ?GetPlayerName@CPlayerEntity@@QAE?AVCTString@@XZ
       1674  689 000DC870 ?GetPlayerSource@CNetworkLibrary@@QAEPAVCPlayerSource@@PAVCEntity@@@Z
       1675  68A 000EC7A0 ?GetPlayersCount@CServer@@QAEJXZ
       1676  68B 000F5450 ?GetPlayersCount@CSessionState@@QAEJXZ
       1677  68C 000EC8C0 ?GetPlayersCountForClient@CServer@@QAEJJ@Z
       1678  68D 000B5AB0 ?GetPolygonsFillType@CWorldRenderPrefs@@QAE?AW4FillType@1@XZ
       1679  68E 000B5AD0 ?GetPolygonsInkColor@CWorldRenderPrefs@@QAEKXZ
       1680  68F 00029050 ?GetPos_t@CTStream@@QAEJXZ
       1681  690 00115120 ?GetPosition@CLastPositions@@QAEABV?$Vector@M$02@@J@Z
       1682  691 0011B5C0 ?GetPrev@CBrushMip@@QAEPAV1@XZ
       1683  692 00091160 ?GetPreviousValidPatchIndex@CEditModel@@QAEXAAJ@Z
       1684  693 000DA2C0 ?GetRealTimeFactor@CNetworkLibrary@@QAEMXZ
       1685  694 0002E390 ?GetRealTimeTick@CTimer@@QBEMXZ
       1686  695 00167A60 ?GetReferenceHeadingDirection@CMovableEntity@@QAEXABV?$Vector@M$02@@MAAV2@@Z
       1687  696 000139E0 ?GetRefreshHz@CGfxLibrary@@QAEJXZ
       1688  697 001679C0 ?GetRelativeHeading@CMovableEntity@@QAEMABV?$Vector@M$02@@@Z
       1689  698 00167A10 ?GetRelativePitch@CMovableEntity@@QAEMABV?$Vector@M$02@@@Z
       1690  699 000DE590 ?GetRemoteAddress_t@CCommunicationInterface@@QAEXAAK0@Z
       1691  69A 00017690 ?GetRenderType@CEntity@@QAE?AW4RenderType@1@XZ
       1692  69B 00095360 ?GetRenderType@CModelRenderPrefs@@QAEKXZ
       1693  69C 0007DEF0 ?GetRenderingTime@CTextureEffectGlobal@@QAENXZ
       1694  69D 000175C0 ?GetRotationMatrix@CEntity@@QBEABV?$Matrix@M$02$02@@XZ
       1695  69E 00078F90 ?GetRowPointer@CTextureData@@QAEPAKJ@Z
       1696  69F 0007E6D0 ?GetSecondsLength@CSoundData@@QAENXZ
       1697  6A0 0010E190 ?GetSectorFromPoint@CEntity@@QAEPAVCBrushSector@@ABV?$Vector@M$02@@@Z
       1698  6A1 000B5B50 ?GetSelectedEntityModel@CWorldRenderPrefs@@QAEPAVCModelObject@@XZ
       1699  6A2 000B5B70 ?GetSelectedPortalModel@CWorldRenderPrefs@@QAEPAVCModelObject@@XZ
       1700  6A3 000B5BB0 ?GetSelectionType@CWorldRenderPrefs@@QAE?AW4SelectionType@1@XZ
       1701  6A4 000DCA70 ?GetSessionProperties@CNetworkLibrary@@QAEPAXXZ
       1702  6A5 00014C40 ?GetShadowLayersCount@CBrushShadowMap@@QAEJXZ
       1703  6A6 000953A0 ?GetShadowQuality@CModelRenderPrefs@@QAEJXZ
       1704  6A7 00073D50 ?GetShadowSize@CShadowMap@@QAEKXZ
       1705  6A8 000B5AF0 ?GetShadowsType@CWorldRenderPrefs@@QAE?AW4ShadowsType@1@XZ
       1706  6A9 00106DA0 ?GetSize@CEntity@@QAEXAAV?$AABBox@M$02@@@Z
       1707  6AA 00015B50 ?GetSizeOf@CEntityEvent@@UAEJXZ
       1708  6AB 00164E00 ?GetSizeOf@EBegin@@UAEJXZ
       1709  6AC 001650E0 ?GetSizeOf@EBlock@@UAEJXZ
       1710  6AD 00165410 ?GetSizeOf@EDamage@@UAEJXZ
       1711  6AE 00165580 ?GetSizeOf@EDeath@@UAEJXZ
       1712  6AF 00165370 ?GetSizeOf@EFirstWorldBase@@UAEJXZ
       1713  6B0 00164CE0 ?GetSizeOf@EInternal@@UAEJXZ
       1714  6B1 00164FF0 ?GetSizeOf@EPass@@UAEJXZ
       1715  6B2 00165740 ?GetSizeOf@EPlayerInit@@UAEJXZ
       1716  6B3 00165300 ?GetSizeOf@EPostLevelChange@@UAEJXZ
       1717  6B4 00165290 ?GetSizeOf@EPreLevelChange@@UAEJXZ
       1718  6B5 00164DA0 ?GetSizeOf@EReturn@@UAEJXZ
       1719  6B6 001656C0 ?GetSizeOf@ETakingBreath@@UAEJXZ
       1720  6B7 00165230 ?GetSizeOf@ETeleport@@UAEJXZ
       1721  6B8 00164E60 ?GetSizeOf@ETimer@@UAEJXZ
       1722  6B9 00164EF0 ?GetSizeOf@ETouch@@UAEJXZ
       1723  6BA 00164D40 ?GetSizeOf@EVoid@@UAEJXZ
       1724  6BB 001651D0 ?GetSizeOf@EWouldFall@@UAEJXZ
       1725  6BC 00029720 ?GetSize_t@CTStream@@QAEJXZ
       1726  6BD 000DE3E0 ?GetSocketError@CCommunicationInterface@@QAE?AVCTString@@J@Z
       1727  6BE 0010E3A0 ?GetSoundLength@CEntity@@QAENJ@Z
       1728  6BF 00044810 ?GetSpaceCoordinates@CMappingDefinition@@QBEXABVCMappingVectors@@ABV?$Vector@J$01@@AAV?$Vector@M$02@@@Z
       1729  6C0 00017660 ?GetSpawnFlags@CEntity@@QBEKXZ
       1730  6C1 000AD1A0 ?GetSpawnFlags@CWorld@@QAEKXZ
       1731  6C2 00019DA0 ?GetSrc@CRelationLnk@@QAEAAVCRelationSrc@@XZ
       1732  6C3 0002BBD0 ?GetStreamCRC32_t@CTFileStream@@UAEKXZ
       1733  6C4 00029150 ?GetStreamCRC32_t@CTStream@@UAEKXZ
       1734  6C5 000290D0 ?GetStreamSize@CTStream@@QAEJXZ
       1735  6C6 00022710 ?GetString@CShell@@QAE?AVCTString@@ABV2@@Z
       1736  6C7 00099660 ?GetSurfaceColor@CModelObject@@QAEKJJ@Z
       1737  6C8 000910C0 ?GetSurfaceName@CEditModel@@QAEPBDJJ@Z
       1738  6C9 00099730 ?GetSurfaceRenderFlags@CModelObject@@QAEXJJAAW4SurfaceShadingType@@AAW4SurfaceTranslucencyType@@AAK@Z
       1739  6CA 00022530 ?GetSymbol@CShell@@QAEPAVCShellSymbol@@ABVCTString@@H@Z
       1740  6CB 001070D0 ?GetTarget@CEntity@@UBEPAV1@XZ
       1741  6CC 00115CF0 ?GetTeam@CPlayerCharacter@@QBEABVCTString@@XZ
       1742  6CD 00115D00 ?GetTeamForPrinting@CPlayerCharacter@@QBE?BVCTString@@XZ
       1743  6CE 000176F0 ?GetTerrain@CEntity@@QAEPAVCTerrain@@XZ
       1744  6CF 00078E90 ?GetTexel@CTextureData@@QAEKJJ@Z
       1745  6D0 0004BCB0 ?GetTextWidth@CDrawPort@@QBEKABVCTString@@@Z
       1746  6D1 00044760 ?GetTextureCoordinates@CMappingDefinition@@QBEXABVCMappingVectors@@ABV?$Vector@M$02@@AAV?$Vector@J$01@@@Z
       1747  6D2 0010DC70 ?GetTextureDataForComponent@CEntity@@QAEPAVCTextureData@@J@Z
       1748  6D3 00095AE0 ?GetTextureDimensions@CModelData@@QAEXAAJ0@Z
       1749  6D4 00017FE0 ?GetType@CNetworkMessage@@QBE?AW4NetworkMessageType@@XZ
       1750  6D5 00022940 ?GetType@CShell@@QAE?AW4ShellTypeType@@ABVCTString@@@Z
       1751  6D6 00020670 ?GetUsedCount@CSerial@@QAEJXZ
       1752  6D7 00135560 ?GetUsedMemory@CAnimSet@@UAEJXZ
       1753  6D8 00014920 ?GetUsedMemory@CBrushEdge@@QAEJXZ
       1754  6D9 000148B0 ?GetUsedMemory@CBrushPlane@@QAEJXZ
       1755  6DA 0011D920 ?GetUsedMemory@CBrushPolygon@@QAEJXZ
       1756  6DB 00014EA0 ?GetUsedMemory@CBrushPolygonTexture@@QAEJXZ
       1757  6DC 001221F0 ?GetUsedMemory@CBrushSector@@QAEJXZ
       1758  6DD 00123A10 ?GetUsedMemory@CBrushShadowMap@@QAEJXZ
       1759  6DE 00014860 ?GetUsedMemory@CBrushVertex@@QAEJXZ
       1760  6DF 0010F7E0 ?GetUsedMemory@CEntity@@UAEJXZ
       1761  6E0 001113E0 ?GetUsedMemory@CEntityClass@@UAEJXZ
       1762  6E1 00017900 ?GetUsedMemory@CLiveEntity@@UAEJXZ
       1763  6E2 0013C3E0 ?GetUsedMemory@CMesh@@UAEJXZ
       1764  6E3 000959F0 ?GetUsedMemory@CModelData@@UAEJXZ
       1765  6E4 00140480 ?GetUsedMemory@CModelInstance@@QAEJXZ
       1766  6E5 00140700 ?GetUsedMemory@CModelInstanceSerial@@UAEJXZ
       1767  6E6 0009B660 ?GetUsedMemory@CModelObject@@QAEJXZ
       1768  6E7 0016E7F0 ?GetUsedMemory@CMovableEntity@@UAEJXZ
       1769  6E8 0016F240 ?GetUsedMemory@CMovableModelEntity@@UAEJXZ
       1770  6E9 00017AF0 ?GetUsedMemory@CRationalEntity@@UAEJXZ
       1771  6EA 00001350 ?GetUsedMemory@CSerial@@UAEJXZ
       1772  6EB 00073420 ?GetUsedMemory@CShader@@UAEJXZ
       1773  6EC 00074BB0 ?GetUsedMemory@CShadowMap@@QAEHAAJ00AAM@Z
       1774  6ED 00150D20 ?GetUsedMemory@CSkeleton@@UAEJXZ
       1775  6EE 0007EA20 ?GetUsedMemory@CSoundData@@UAEJXZ
       1776  6EF 00078E20 ?GetUsedMemory@CTextureData@@UAEJXZ
       1777  6F0 000EC840 ?GetVIPClientsCount@CServer@@QAEJXZ
       1778  6F1 000EC7C0 ?GetVIPPlayersCount@CServer@@QAEJXZ
       1779  6F2 000227B0 ?GetValue@CShell@@QAE?AVCTString@@ABV2@@Z
       1780  6F3 000149A0 ?GetVertexCoordinatesAbsolute@CBrushPolygonEdge@@QAEXAAV?$Vector@M$02@@0@Z
       1781  6F4 00014B00 ?GetVertexCoordinatesPreciseAbsolute@CBrushPolygonEdge@@QAEXAAV?$Vector@N$02@@0@Z
       1782  6F5 00014AA0 ?GetVertexCoordinatesPreciseRelative@CBrushPolygonEdge@@QAEXAAV?$Vector@N$02@@0@Z
       1783  6F6 00014A20 ?GetVertexCoordinatesRelative@CBrushPolygonEdge@@QAEXAAV?$Vector@M$02@@0@Z
       1784  6F7 00014960 ?GetVertices@CBrushPolygonEdge@@QAEXAAPAVCBrushVertex@@0@Z
       1785  6F8 0003B740 ?GetVertices@CObjectPolygonEdge@@QAEXAAPAVCObjectVertex@@0@Z
       1786  6F9 000B5A30 ?GetVerticesFillType@CWorldRenderPrefs@@QAE?AW4FillType@1@XZ
       1787  6FA 000B5A50 ?GetVerticesInkColor@CWorldRenderPrefs@@QAEKXZ
       1788  6FB 001075C0 ?GetVisTweaks@CEntity@@UAEKXZ
       1789  6FC 0000B2C0 ?GetWidth@CDrawPort@@QBEJXZ
       1790  6FD 0008A060 ?GetWidth@CEditModel@@QAEJXZ
       1791  6FE 00048FC0 ?GetWidth@CFontData@@QBEJXZ
       1792  6FF 00099270 ?GetWidth@CModelObject@@QAEJXZ
       1793  700 00014250 ?GetWidth@CTextureData@@QBEJXZ
       1794  701 000784B0 ?GetWidth@CTextureObject@@QBEJXZ
       1795  702 000089B0 ?GetWindowsError@@YA?BVCTString@@K@Z
       1796  703 000176B0 ?GetWorld@CEntity@@QAEPAVCWorld@@XZ
       1797  704 0010E2A0 ?GetWorldPolygonIndex@CEntity@@QAEJPAVCBrushPolygon@@@Z
       1798  705 0010E270 ?GetWorldPolygonPointer@CEntity@@QAEPAVCBrushPolygon@@J@Z
       1799  706 001674B0 ?GiveImpulseTranslationAbsolute@CMovableEntity@@QAEXABV?$Vector@M$02@@@Z
       1800  707 001673E0 ?GiveImpulseTranslationRelative@CMovableEntity@@QAEXABV?$Vector@M$02@@@Z
       1801  708 0004B6D0 ?GrabScreen@CDrawPort@@QBEXAAVCImageInfo@@J@Z
       1802  709 0000EF40 ?GrowMemory@@YAXPAPAXJ@Z
       1803  70A 0016F300 ?H0x00020002_WaitUntilScheduledAnimStarts_01@CMovableModelEntity@@QAEHABVCEntityEvent@@@Z
       1804  70B 0016F380 ?H0x00020003_WaitUntilScheduledAnimStarts_02@CMovableModelEntity@@QAEHABVCEntityEvent@@@Z
       1805  70C 0016F3E0 ?H0x00020004_WaitUntilScheduledAnimStarts_03@CMovableModelEntity@@QAEHABVCEntityEvent@@@Z
       1806  70D 00047430 ?HSVToColor@@YAKEEE@Z
       1807  70E 000EDF10 ?Handle@CServer@@QAEXJAAVCNetworkMessage@@@Z
       1808  70F 0002BC70 ?HandleAccess@CTFileStream@@UAEXJH@Z
       1809  710 0002C0C0 ?HandleAccess@CTMemoryStream@@UAEXJH@Z
       1810  711 000EDB00 ?HandleAll@CServer@@QAEXXZ
       1811  712 000EDB30 ?HandleAllForAClient@CServer@@QAEXJ@Z
       1812  713 000EDD80 ?HandleClientDisconected@CServer@@QAEXJ@Z
       1813  714 0010AD70 ?HandleEvent@CEntity@@UAEHABVCEntityEvent@@@Z
       1814  715 00110170 ?HandleEvent@CRationalEntity@@UAEHABVCEntityEvent@@@Z
       1815  716 000F1F90 ?HandleMovers@CSessionState@@QAEXXZ
       1816  717 000F2240 ?HandleMovers_client@CSessionState@@QAEXXZ
       1817  718 0010B7A0 ?HandleSentEvents@CEntity@@SAXXZ
       1818  719 0002E320 ?HandleTimerHandlers@CTimer@@QAEXXZ
       1819  71A 000F2440 ?HandleTimers@CSessionState@@QAEXM@Z
       1820  71B 00111AD0 ?HandlerForStateAndEvent@CDLLEntityClass@@QAEP8CEntity@@AEHABVCEntityEvent@@@ZJJ@Z
       1821  71C 0010AD50 ?HandlerForStateAndEvent@CEntity@@UAEP81@AEHABVCEntityEvent@@@ZJJ@Z
       1822  71D 00111630 ?HandlerForStateAndEvent@CEntityClass@@QAEP8CEntity@@AEHABVCEntityEvent@@@ZJJ@Z
       1823  71E 00111B20 ?HandlerNameForState@CDLLEntityClass@@QAEPBDJ@Z
       1824  71F 00013960 ?HasAPI@CGfxLibrary@@QAEHW4GfxAPIType@@@Z
       1825  720 0013FE80 ?HasAlpha@CModelInstance@@QAEHXZ
       1826  721 0009AAD0 ?HasAlpha@CModelObject@@QAEHXZ
       1827  722 0006CB30 ?HasCompression@CGfxLibrary@@QAEHXZ
       1828  723 00123600 ?HasDynamicLayers@CBrushShadowMap@@UAEHXZ
       1829  724 00074680 ?HasDynamicLayers@CShadowMap@@UAEHXZ
       1830  725 0000C730 ?HasJoystickPOV@CInputDevice@@QAEHXZ
       1831  726 000139B0 ?HasOcclusionCulling@CGfxLibrary@@QAEHXZ
       1832  727 00006060 ?HasPrefix@CTString@@QBEHABV1@@Z
       1833  728 0013FF00 ?HasShadow@CModelInstance@@QAEHM@Z
       1834  729 0009ABB0 ?HasShadow@CModelObject@@QAEHJ@Z
       1835  72A 000015F0 ?Head@CListHead@@QBEAAVCListNode@@XZ
       1836  72B 00095400 ?HiddenLines@CModelRenderPrefs@@QAEHXZ
       1837  72C 0009AB80 ?HidePatch@CModelObject@@QAEXJ@Z
       1838  72D 000AD530 ?HideSelectedEntities@CWorld@@QAEXAAV?$CSelection@VCEntity@@$00@@@Z
       1839  72E 000AD5E0 ?HideSelectedSectors@CWorld@@QAEXAAV?$CSelection@VCBrushSector@@$00@@@Z
       1840  72F 000AD570 ?HideUnselectedEntities@CWorld@@QAEXXZ
       1841  730 000AD610 ?HideUnselectedSectors@CWorld@@QAEXXZ
       1842  731 0000ADE0 ?IFeel_ChangeGain@@YAXM@Z
       1843  732 0000AC00 ?IFeel_DeleteDevice@@YAXXZ
       1844  733 0000A5B0 ?IFeel_GetProductName@@YA?AVCTString@@XZ
       1845  734 0000A610 ?IFeel_GetProjectFileName@@YA?AVCTString@@XZ
       1846  735 0000A8F0 ?IFeel_InitDevice@@YAHAAPAUHINSTANCE__@@AAPAUHWND__@@@Z
       1847  736 0000AC60 ?IFeel_LoadFile@@YAHVCTFileName@@@Z
       1848  737 0000AD90 ?IFeel_PlayEffect@@YAXPAD@Z
       1849  738 0000ADC0 ?IFeel_StopEffect@@YAXPAD@Z
       1850  739 0010F780 ?IRnd@CEntity@@QAEKXZ
       1851  73A 00028C30 ?IgnoreApplicationPath@@YAXXZ
       1852  73B 000E8A10 ?IgnoreContents@CNetworkMessage@@QAEXXZ
       1853  73C 00095390 ?IncreaseShadowQuality@CModelRenderPrefs@@QAEXXZ
       1854  73D 00097330 ?IndicesToPtrs@CModelData@@QAEXXZ
       1855  73E 0010EB80 ?InflictBoxDamage@CEntity@@QAEXPAV1@W4DamageType@@MABV?$AABBox@M$02@@@Z
       1856  73F 0010E480 ?InflictDirectDamage@CEntity@@QAEXPAV1@0W4DamageType@@MABV?$Vector@M$02@@2@Z
       1857  740 0010E4C0 ?InflictRangeDamage@CEntity@@QAEXPAV1@W4DamageType@@MABV?$Vector@M$02@@MM@Z
       1858  741 00008780 ?InfoMessage@@YAXPBDZZ
       1859  742 000BDC80 ?Init@CCastRay@@QAEXPAVCEntity@@ABV?$Vector@M$02@@1@Z
       1860  743 000DDC50 ?Init@CCommunicationInterface@@QAEXXZ
       1861  744 00068290 ?Init@CGfxLibrary@@QAEXXZ
       1862  745 000E8010 ?Init@CMessageDispatcher@@QAEXABVCTString@@@Z
       1863  746 000D6930 ?Init@CNetworkLibrary@@QAEXABVCTString@@@Z
       1864  747 00081630 ?Init@CSoundLibrary@@QAEXXZ
       1865  748 00045030 ?InitAPIs@CGfxLibrary@@AAEXXZ
       1866  749 0010BC90 ?InitAsBrush@CEntity@@QAEXXZ
       1867  74A 0010BB50 ?InitAsEditorModel@CEntity@@QAEXXZ
       1868  74B 0010BE00 ?InitAsFieldBrush@CEntity@@QAEXXZ
       1869  74C 0010B840 ?InitAsModel@CEntity@@QAEXXZ
       1870  74D 0010BC20 ?InitAsSkaEditorModel@CEntity@@QAEXXZ
       1871  74E 0010B910 ?InitAsSkaModel@CEntity@@QAEXXZ
       1872  74F 0010B980 ?InitAsTerrain@CEntity@@QAEXXZ
       1873  750 0010B830 ?InitAsVoid@CEntity@@QAEXXZ
       1874  751 000DCF00 ?InitCRCGather@CNetworkLibrary@@QAEXXZ
       1875  752 000499B0 ?InitCloned@CDrawPort@@QAEXPAV1@NNNN@Z
       1876  753 000B4E90 ?InitCollisionGrid@CWorld@@QAEXXZ
       1877  754 00056C00 ?InitContext_D3D@CGfxLibrary@@AAEXXZ
       1878  755 0005A5C0 ?InitContext_OGL@CGfxLibrary@@AAEXXZ
       1879  756 0000C8C0 ?InitDevice@CInputDevice@@QAEHW4DeviceType@@@Z
       1880  757 00057530 ?InitDisplay_D3D@CGfxLibrary@@AAEHJJJW4DisplayDepth@@@Z
       1881  758 00056950 ?InitDriver_D3D@CGfxLibrary@@AAEHXZ
       1882  759 0005B080 ?InitDriver_OGL@CGfxLibrary@@AAEHH@Z
       1883  75A 000248C0 ?InitExceptionHandler@@YAXXZ
       1884  75B 000F0830 ?InitServerNetProcess@CServer@@QAEXXZ
       1885  75C 0004CED0 ?InitTexture@CDrawPort@@QBEXPAVCTextureObject@@HK@Z
       1886  75D 0002E690 ?InitTranslation@@YAXXZ
       1887  75E 000DDD50 ?InitWinsock@CCommunicationInterface@@QAEXXZ
       1888  75F 00107630 ?Initialize@CEntity@@QAEXABVCEntityEvent@@H@Z
       1889  760 0000B940 ?Initialize@CInput@@QAEXXZ
       1890  761 000E88F0 ?Initialize@CNetworkMessage@@QAEXABV1@@Z
       1891  762 000E8940 ?Initialize@CNetworkMessage@@QAEXW4NetworkMessageType@@@Z
       1892  763 000E88D0 ?Initialize@CNetworkMessage@@QAEXXZ
       1893  764 000742F0 ?Initialize@CShadowMap@@QAEXJJJJJ@Z
       1894  765 00021B20 ?Initialize@CShell@@QAEXXZ
       1895  766 00107720 ?InitializeFromNet@CEntity@@UAEXXZ
       1896  767 00171A10 ?InitializePlayer@CPlayerEntity@@QAEXKK@Z
       1897  768 00122550 ?InitializeShadowMap@CBrushPolygon@@QAEXXZ
       1898  769 00107730 ?Initialize_internal@CEntity@@QAEXABVCEntityEvent@@@Z
       1899  76A 00006C82 ?InsertChar@CTString@@QAEXJD@Z
       1900  76B 000E8B80 ?InsertSubMessage@CNetworkMessage@@QAEXABV1@@Z
       1901  76C 00006D42 ?InsertSubString@CTString@@QAEXJABV1@@Z
       1902  76D 00120440 ?InsertVertexIntoTriangle@CBrushSector@@QAEXAAV?$CSelection@VCBrushPolygon@@$0BAA@@@V?$Vector@M$02@@@Z
       1903  76E 000740F0 ?Invalidate@CShadowMap@@QAEXH@Z
       1904  76F 000316D0 ?Invalidate@CUpdateable@@QAEXXZ
       1905  770 00031720 ?Invalidate@CUpdateableRT@@QAEXXZ
       1906  771 000332E0 ?Inverse@CObject3D@@QAEXXZ
       1907  772 00166720 ?IsActionApplied@CMovableEntity@@UAEHXZ
       1908  773 000D4950 ?IsActive@CPlayerSource@@QAEHXZ
       1909  774 00067540 ?IsActive@CSoundLibrary@@QAEHXZ
       1910  775 00003E60 ?IsAnimFinished@CAnimObject@@QBEHXZ
       1911  776 0010CA00 ?IsAnimationPlaying@CEntity@@QAEHJJ@Z
       1912  777 0013FCA0 ?IsAnimationPlaying@CModelInstance@@QAEHJ@Z
       1913  778 001113F0 ?IsAutoFreed@CEntityClass@@UAEHXZ
       1914  779 00095A70 ?IsAutoFreed@CModelData@@UAEHXZ
       1915  77A 0001B610 ?IsAutoFreed@CModelInstanceSerial@@UAEHXZ
       1916  77B 00001340 ?IsAutoFreed@CSerial@@UAEHXZ
       1917  77C 0007EA10 ?IsAutoFreed@CSoundData@@UAEHXZ
       1918  77D 00078E10 ?IsAutoFreed@CTextureData@@UAEHXZ
       1919  77E 000B59B0 ?IsAutoMipBrushingOn@CWorldRenderPrefs@@QAEHXZ
       1920  77F 000994F0 ?IsAutoMipModeling@CModelObject@@QAEHXZ
       1921  780 000B58F0 ?IsBackgroundTextureOn@CWorldRenderPrefs@@QAEHXZ
       1922  781 00047700 ?IsBigger@@YAHKK@Z
       1923  782 000476A0 ?IsBlack@@YAHK@Z
       1924  783 000490A0 ?IsCharDefined@CFontData@@QBEHD@Z
       1925  784 00079520 ?IsCompressed@CTextureData@@QAEHXZ
       1926  785 000DA0D0 ?IsConnectionStable@CNetworkLibrary@@QAEHXZ
       1927  786 00013930 ?IsCurrentModeAccelerated@CGfxLibrary@@QAEHXZ
       1928  787 00013940 ?IsCurrentModeDH@CGfxLibrary@@QAEHXZ
       1929  788 00013950 ?IsCurrentModeTH@CGfxLibrary@@QAEHXZ
       1930  789 000D9E80 ?IsDemoPlayFinished@CNetworkLibrary@@QAEHXZ
       1931  78A 001069C0 ?IsDerivedFromClass@@YAHPAVCEntity@@PAVCDLLEntityClass@@@Z
       1932  78B 00106950 ?IsDerivedFromClass@@YAHPAVCEntity@@PBD@Z
       1933  78C 000DA160 ?IsDisconnected@CNetworkLibrary@@QAEHXZ
       1934  78D 000F1D40 ?IsDisconnected@CSessionState@@QAEHXZ
       1935  78E 00048EE0 ?IsDualHead@CDisplayMode@@QAEHXZ
       1936  78F 00049B20 ?IsDualHead@CDrawPort@@QAEHXZ
       1937  790 000B58B0 ?IsEditorModelsOn@CWorldRenderPrefs@@QAEHXZ
       1938  791 0000EB20 ?IsEmpty@CListHead@@QBEHXZ
       1939  792 00106CC0 ?IsEmptyBrush@CEntity@@QBEHXZ
       1940  793 000B58D0 ?IsFieldBrushesOn@CWorldRenderPrefs@@QAEHXZ
       1941  794 0002C470 ?IsFileReadOnly@@YAHABVCTFileName@@@Z
       1942  795 00015AB0 ?IsFirstMip@CBrushMip@@QAEHXZ
       1943  796 00049030 ?IsFixedWidth@CFontData@@QBEHXZ
       1944  797 00017620 ?IsFlagOff@CEntity@@QAEKK@Z
       1945  798 00017610 ?IsFlagOn@CEntity@@QAEKK@Z
       1946  799 00014610 ?IsFlat@CShadowMap@@QAEHXZ
       1947  79A 000B5950 ?IsFogOn@CWorldRenderPrefs@@QAEHXZ
       1948  79B 00048F40 ?IsFullScreen@CDisplayMode@@QAEHXZ
       1949  79C 000DA290 ?IsGameFinished@CNetworkLibrary@@QAEHXZ
       1950  79D 00047650 ?IsGray@@YAHK@Z
       1951  79E 000B5970 ?IsHazeOn@CWorldRenderPrefs@@QAEHXZ
       1952  79F 000015D0 ?IsHead@CListNode@@QBEHXZ
       1953  7A0 000015B0 ?IsHeadMarker@CListNode@@QBEHXZ
       1954  7A1 000B5850 ?IsHiddenLinesOn@CWorldRenderPrefs@@QAEHXZ
       1955  7A2 0001AB20 ?IsHooked@CSoundObject@@QBEHXZ
       1956  7A3 00107110 ?IsImportant@CEntity@@UBEHXZ
       1957  7A4 0000B030 ?IsInputEnabled@CInput@@QBEHXZ
       1958  7A5 0003D420 ?IsIntersecting@CIntersector@@QAEHXZ
       1959  7A6 00012A70 ?IsIsometric@CAnyProjection3D@@QAEHXZ
       1960  7A7 0000ECD0 ?IsLinked@CListNode@@QBEHXZ
       1961  7A8 0002DAD0 ?IsLocked@CTSingleLock@@QAEHXZ
       1962  7A9 00107100 ?IsMarker@CEntity@@UBEHXZ
       1963  7AA 000B5990 ?IsMirrorsOn@CWorldRenderPrefs@@QAEHXZ
       1964  7AB 0013FE90 ?IsModelVisible@CModelInstance@@QAEHM@Z
       1965  7AC 000993A0 ?IsModelVisible@CModelObject@@QAEHM@Z
       1966  7AD 00014350 ?IsModified@CTextureData@@QAEHXZ
       1967  7AE 000DE150 ?IsNetworkEnabled@CCommunicationInterface@@QAEHXZ
       1968  7AF 000DA080 ?IsNetworkEnabled@CNetworkLibrary@@QAEHXZ
       1969  7B0 0003EB70 ?IsObjectPlaneVisible@CIsometricProjection3D@@UBEHABV?$Plane@M$02@@@Z
       1970  7B1 00040190 ?IsObjectPlaneVisible@CParallelProjection3D@@UBEHABV?$Plane@M$02@@@Z
       1971  7B2 00042060 ?IsObjectPlaneVisible@CPerspectiveProjection3D@@UBEHABV?$Plane@M$02@@@Z
       1972  7B3 00042F30 ?IsObjectPlaneVisible@CSimpleProjection3D@@UBEHABV?$Plane@M$02@@@Z
       1973  7B4 000279C0 ?IsOfClass@@YAHPAVCEntity@@PAVCDLLEntityClass@@@Z
       1974  7B5 001068B0 ?IsOfClass@@YAHPAVCEntity@@PBD@Z
       1975  7B6 00106920 ?IsOfSameClass@@YAHPAVCEntity@@0@Z
       1976  7B7 0000B2B0 ?IsOverlappedRendering@CDrawPort@@QBEHXZ
       1977  7B8 00012AB0 ?IsParallel@CAnyProjection3D@@QAEHXZ
       1978  7B9 00003AE0 ?IsPaused@CAnimObject@@QAEHXZ
       1979  7BA 000DA0B0 ?IsPaused@CNetworkLibrary@@QAEHXZ
       1980  7BB 0001AB10 ?IsPaused@CSoundObject@@QBEHXZ
       1981  7BC 00012A90 ?IsPerspective@CAnyProjection3D@@QAEHXZ
       1982  7BD 00010E90 ?IsPerspective@CPerspectiveProjection3D@@UAEHXZ
       1983  7BE 000109C0 ?IsPerspective@CProjection3D@@UAEHXZ
       1984  7BF 00017710 ?IsPlayer@CEntity@@UAEHXZ
       1985  7C0 00171A80 ?IsPlayer@CPlayerEntity@@UAEHXZ
       1986  7C1 000DC850 ?IsPlayerLocal@CNetworkLibrary@@QAEHPAVCEntity@@@Z
       1987  7C2 0001AB00 ?IsPlaying@CSoundObject@@QBEHXZ
       1988  7C3 000D9EA0 ?IsPlayingDemo@CNetworkLibrary@@QAEHXZ
       1989  7C4 0004B9B0 ?IsPointVisible@CDrawPort@@QBEHJJMJJ@Z
       1990  7C5 00169100 ?IsPolygonBelowPoint@CMovableEntity@@QAEHPAVCBrushPolygon@@ABV?$Vector@M$02@@M@Z
       1991  7C6 001216C0 ?IsReTripleAvailable@CBrushSector@@QAEHAAV?$CSelection@VCBrushPolygon@@$0BAA@@@@Z
       1992  7C7 00001C10 ?IsReadable@CTFileStream@@UAEHXZ
       1993  7C8 0002C070 ?IsReadable@CTMemoryStream@@UAEHXZ
       1994  7C9 00166750 ?IsReapplyingActions@CMovableEntity@@UAEHXZ
       1995  7CA 000DA070 ?IsRecordingDemo@CNetworkLibrary@@QAEHXZ
       1996  7CB 00001C20 ?IsSeekable@CTFileStream@@UAEHXZ
       1997  7CC 0002C0B0 ?IsSeekable@CTMemoryStream@@UAEHXZ
       1998  7CD 00015150 ?IsSelected@CBrushPolygon@@QBEHK@Z
       1999  7CE 00015560 ?IsSelected@CBrushSector@@QBEHK@Z
       2000  7CF 00014850 ?IsSelected@CBrushVertex@@QBEHK@Z
       2001  7D0 000175A0 ?IsSelected@CEntity@@QBEHK@Z
       2002  7D1 001070F0 ?IsSentOverNet@CEntity@@UBEHXZ
       2003  7D2 00018BE0 ?IsServer@CNetworkLibrary@@QAEHXZ
       2004  7D3 00123630 ?IsShadowFlat@CBrushShadowMap@@UAEHAAK@Z
       2005  7D4 00014600 ?IsShadowFlat@CShadowMap@@UAEHAAK@Z
       2006  7D5 000B5890 ?IsShowEntityNamesOn@CWorldRenderPrefs@@QAEHXZ
       2007  7D6 000B5870 ?IsShowTargetsOn@CWorldRenderPrefs@@QAEHXZ
       2008  7D7 00012A60 ?IsSimple@CAnyProjection3D@@QAEHXZ
       2009  7D8 001693E0 ?IsSomeNearPolygonBelowPoint@CMovableEntity@@QAEHABV?$Vector@M$02@@M@Z
       2010  7D9 001693F0 ?IsSomeSectorPolygonBelowPoint@CMovableEntity@@QAEHPAVCBrushSector@@ABV?$Vector@M$02@@M@Z
       2011  7DA 00168EA0 ?IsStandingOnPolygon@CMovableEntity@@QAEHPAVCBrushPolygon@@@Z
       2012  7DB 000015E0 ?IsTail@CListNode@@QBEHXZ
       2013  7DC 000015C0 ?IsTailMarker@CListNode@@QBEHXZ
       2014  7DD 00107150 ?IsTargetValid@CEntity@@UAEHJPAV1@@Z
       2015  7DE 001070E0 ?IsTargetable@CEntity@@UBEHXZ
       2016  7DF 000B59F0 ?IsTextureLayerOn@CWorldRenderPrefs@@QAEHJ@Z
       2017  7E0 00048F00 ?IsTripleHead@CDisplayMode@@QAEHXZ
       2018  7E1 00049B40 ?IsTripleHead@CDrawPort@@QAEHXZ
       2019  7E2 00003AF0 ?IsUpToDate@CAnimObject@@QBEHABVCUpdateable@@@Z
       2020  7E3 00004790 ?IsUpToDate@CChangeable@@QBEHABVCUpdateable@@@Z
       2021  7E4 000047F0 ?IsUpToDate@CChangeableRT@@QBEHABVCUpdateableRT@@@Z
       2022  7E5 00020660 ?IsUsed@CSerial@@QAEHXZ
       2023  7E6 001066D0 ?IsValid@CEntityID@@QAEHXZ
       2024  7E7 0000EB10 ?IsValid@CListHead@@QBEHXZ
       2025  7E8 0000ECB0 ?IsValid@CListNode@@QBEHXZ
       2026  7E9 00031840 ?IsValidDouble@@YAHN@Z
       2027  7EA 00031810 ?IsValidFloat@@YAHM@Z
       2028  7EB 0003EBD0 ?IsViewerPlaneVisible@CIsometricProjection3D@@UBEHABV?$Plane@M$02@@@Z
       2029  7EC 00040250 ?IsViewerPlaneVisible@CParallelProjection3D@@UBEHABV?$Plane@M$02@@@Z
       2030  7ED 00042120 ?IsViewerPlaneVisible@CPerspectiveProjection3D@@UBEHABV?$Plane@M$02@@@Z
       2031  7EE 00042F40 ?IsViewerPlaneVisible@CSimpleProjection3D@@UBEHABV?$Plane@M$02@@@Z
       2032  7EF 000B5930 ?IsVisTweaksDisabled@CWorldRenderPrefs@@QAEHXZ
       2033  7F0 000B5910 ?IsVisTweaksOn@CWorldRenderPrefs@@QAEHXZ
       2034  7F1 000DA2D0 ?IsWaitingForPlayers@CNetworkLibrary@@QAEHXZ
       2035  7F2 000DA320 ?IsWaitingForServer@CNetworkLibrary@@QAEHXZ
       2036  7F3 000476D0 ?IsWhite@@YAHK@Z
       2037  7F4 00048F20 ?IsWideScreen@CDisplayMode@@QAEHXZ
       2038  7F5 00049B70 ?IsWideScreen@CDrawPort@@QAEHXZ
       2039  7F6 00001C00 ?IsWriteable@CTFileStream@@UAEHXZ
       2040  7F7 0002C090 ?IsWriteable@CTMemoryStream@@UAEHXZ
       2041  7F8 00001610 ?IterationHead@CListHead@@QBEAAVCListNode@@XZ
       2042  7F9 00001570 ?IterationInsertAfter@CListNode@@QAEXAAV1@@Z
       2043  7FA 00001590 ?IterationInsertBefore@CListNode@@QAEXAAV1@@Z
       2044  7FB 00001560 ?IterationPred@CListNode@@QBEAAV1@XZ
       2045  7FC 00001550 ?IterationSucc@CListNode@@QBEAAV1@XZ
       2046  7FD 00001620 ?IterationTail@CListHead@@QBEAAVCListNode@@XZ
       2047  7FE 000B74F0 ?JoinAllPossiblePolygons@CWorld@@QAEXAAV?$CSelection@VCBrushPolygon@@$0BAA@@@HJ@Z
       2048  7FF 00039AD0 ?JoinContinuingEdges@CObjectPolygon@@QAEXAAV?$CDynamicArray@VCObjectEdge@@@@@Z
       2049  800 000B71B0 ?JoinPolygons@CWorld@@QAEXAAV?$CSelection@VCBrushPolygon@@$0BAA@@@@Z
       2050  801 000B6D60 ?JoinSectors@CWorld@@QAEXAAV?$CSelection@VCBrushSector@@$00@@@Z
       2051  802 000D9900 ?JoinSession_t@CNetworkLibrary@@QAEXABVCNetworkSession@@J@Z
       2052  803 000B6A00 ?JoinTwoSectors@CWorld@@QAEPAVCBrushSector@@AAV2@0@Z
       2053  804 000174E0 ?Jump@CEntity@@QAEXJJHABVCEntityEvent@@@Z
       2054  805 0010FFF0 ?Jump@CRationalEntity@@QAEXJJHABVCEntityEvent@@@Z
       2055  806 00003A70 ?LastFrame@CAnimObject@@QAEXXZ
       2056  807 000316C0 ?LastUpdateTime@CUpdateable@@QBEMXZ
       2057  808 00031710 ?LastUpdateTime@CUpdateableRT@@QBEMXZ
       2058  809 00167590 ?LaunchAsFreeProjectile@CMovableEntity@@QAEXABV?$Vector@M$02@@PAV1@@Z
       2059  80A 001674F0 ?LaunchAsPropelledProjectile@CMovableEntity@@QAEXABV?$Vector@M$02@@PAV1@@Z
       2060  80B 00001010 ?Length@CTString@@QBEJXZ
       2061  80C 000074F0 ?Length@CTWString@@QBEJXZ
       2062  80D 000062E0 ?LengthNaked@CTString@@QBEJXZ
       2063  80E 0003CD40 ?Lerp@CPlacement3D@@QAEXABV1@0M@Z
       2064  80F 000E9720 ?Lerp@CPlayerAction@@QAEXABV1@0M@Z
       2065  810 00047C40 ?LerpColor@@YAKKKM@Z
       2066  811 00047B10 ?LerpColor@@YAXKKMAAE00@Z
       2067  812 000966F0 ?LinkDataForSurfaces@CModelData@@QAEXH@Z
       2068  813 000ADD70 ?LinkEntitiesToSectors@CWorld@@QAEXXZ
       2069  814 00116A50 ?LinkPortalsAndSectors@CBrushArchive@@QAEXXZ
       2070  815 000824D0 ?Listen@CSoundLibrary@@QAEXAAVCSoundListener@@@Z
       2071  816 00036AC0 ?LoadAny3DFormat_t@CObject3D@@QAEXABVCTFileName@@ABV?$Matrix@M$02$02@@W4LoadType@1@@Z
       2072  817 0006F5C0 ?LoadAnyGfxFormat_t@CImageInfo@@QAEXABVCTFileName@@@Z
       2073  818 000BAE00 ?LoadBrushes_t@CWorld@@QAEXABVCTFileName@@@Z
       2074  819 00002900 ?LoadFromScript_t@CAnimData@@QAEXPAVCTStream@@PAVCListHead@@@Z
       2075  81A 0008DE90 ?LoadFromScript_t@CEditModel@@QAEXAAVCTFileName@@@Z
       2076  81B 00007102 ?LoadIntVar@@YAXABVCTFileName@@AAJ@Z
       2077  81C 00006900 ?LoadKeepCRLF_t@CTString@@QAEXABVCTFileName@@@Z
       2078  81D 00091D70 ?LoadMapping_t@CEditModel@@QAEXVCTFileName@@J@Z
       2079  81E 0008AB50 ?LoadModelAnimationData_t@CEditModel@@AAEXPAVCTStream@@ABV?$Matrix@M$02$02@@@Z
       2080  81F 0006F350 ?LoadPCX_t@CImageInfo@@AAEXABVCTFileName@@@Z
       2081  820 000070C2 ?LoadStringVar@@YAXABVCTFileName@@AAVCTString@@@Z
       2082  821 0006EFB0 ?LoadTGA_t@CImageInfo@@AAEXABVCTFileName@@@Z
       2083  822 00006FA2 ?LoadVar@CTString@@QAEXABVCTFileName@@@Z
       2084  823 0007EA90 ?LoadWAV_t@CSoundData@@QAEXPAVCTStream@@J@Z
       2085  824 0008CA10 ?Load_t@CEditModel@@QAEXVCTFileName@@@Z
       2086  825 000D9590 ?Load_t@CNetworkLibrary@@QAEXABVCTFileName@@@Z
       2087  826 001159C0 ?Load_t@CPlayerCharacter@@QAEXABVCTFileName@@@Z
       2088  827 000203F0 ?Load_t@CSerial@@QAEXVCTFileName@@@Z
       2089  828 00006890 ?Load_t@CTString@@QAEXABVCTFileName@@@Z
       2090  829 000BAB20 ?Load_t@CWorld@@QAEXABVCTFileName@@@Z
       2091  82A 0000B380 ?Lock@CDrawPort@@QAEHXZ
       2092  82B 0002DA20 ?Lock@CTSingleLock@@QAEXXZ
       2093  82C 0011F670 ?LockAll@CBrushSector@@QAEXXZ
       2094  82D 000AD050 ?LockAll@CWorld@@QAEXXZ
       2095  82E 0002BFF0 ?LockBuffer@CTMemoryStream@@QAEXPAPAXPAJ@Z
       2096  82F 0006BF60 ?LockDrawPort@CGfxLibrary@@QAEHPAVCDrawPort@@@Z
       2097  830 0006CAD0 ?LockRaster@CGfxLibrary@@QAEHPAVCRaster@@@Z
       2098  831 0004A530 ?Lock_internal@CDrawPort@@QAEHXZ
       2099  832 0000EE10 ?MEM_CAlloc@@YAPAXII@Z
       2100  833 0000EDB0 ?MEM_Free@@YAXPAX@Z
       2101  834 0000EE70 ?MEM_GetFreeMemory@@YAIXZ
       2102  835 0000ED60 ?MEM_MAlloc@@YAPAXI@Z
       2103  836 0000EDD0 ?MEM_ReAlloc@@YAPAXPAXI@Z
       2104  837 0000EE50 ?MEM_Size@@YAIPAX@Z
       2105  838 000DB2B0 ?MainLoop@CNetworkLibrary@@QAEXXZ
       2106  839 001098D0 ?MakeBoxAtPlacement@CCollisionInfo@@QAEXABV?$Vector@M$02@@ABV?$Matrix@M$02$02@@AAV?$AABBox@M$02@@@Z
       2107  83A 00015B20 ?MakeCopy@CEntityEvent@@UAEPAV1@XZ
       2108  83B 00164DD0 ?MakeCopy@EBegin@@UAEPAVCEntityEvent@@XZ
       2109  83C 00165080 ?MakeCopy@EBlock@@UAEPAVCEntityEvent@@XZ
       2110  83D 001653A0 ?MakeCopy@EDamage@@UAEPAVCEntityEvent@@XZ
       2111  83E 001654F0 ?MakeCopy@EDeath@@UAEPAVCEntityEvent@@XZ
       2112  83F 00165340 ?MakeCopy@EFirstWorldBase@@UAEPAVCEntityEvent@@XZ
       2113  840 00164CB0 ?MakeCopy@EInternal@@UAEPAVCEntityEvent@@XZ
       2114  841 00164FB0 ?MakeCopy@EPass@@UAEPAVCEntityEvent@@XZ
       2115  842 00165700 ?MakeCopy@EPlayerInit@@UAEPAVCEntityEvent@@XZ
       2116  843 001652D0 ?MakeCopy@EPostLevelChange@@UAEPAVCEntityEvent@@XZ
       2117  844 00165260 ?MakeCopy@EPreLevelChange@@UAEPAVCEntityEvent@@XZ
       2118  845 00164D70 ?MakeCopy@EReturn@@UAEPAVCEntityEvent@@XZ
       2119  846 00165690 ?MakeCopy@ETakingBreath@@UAEPAVCEntityEvent@@XZ
       2120  847 00165200 ?MakeCopy@ETeleport@@UAEPAVCEntityEvent@@XZ
       2121  848 00164E30 ?MakeCopy@ETimer@@UAEPAVCEntityEvent@@XZ
       2122  849 00164E90 ?MakeCopy@ETouch@@UAEPAVCEntityEvent@@XZ
       2123  84A 00164D10 ?MakeCopy@EVoid@@UAEPAVCEntityEvent@@XZ
       2124  84B 001651A0 ?MakeCopy@EWouldFall@@UAEPAVCEntityEvent@@XZ
       2125  84C 00007E50 ?MakeDirList@@YAXAAV?$CDynamicStackArray@VCTFileName@@@@ABVCTFileName@@ABVCTString@@K@Z
       2126  84D 00116860 ?MakeIndices@CBrushArchive@@QAEXXZ
       2127  84E 00031B80 ?MakeInverseRotationMatrix@@YAXAAV?$Matrix@M$02$02@@ABV?$Vector@M$02@@@Z
       2128  84F 00031C50 ?MakeInverseRotationMatrixFast@@YAXAAV?$Matrix@M$02$02@@ABV?$Vector@M$02@@@Z
       2129  850 00043E20 ?MakeMappingVectors@CMappingDefinition@@QBEXABVCMappingVectors@@AAV2@@Z
       2130  851 0006D480 ?MakeMipmaps@@YAXPAKJJJ@Z
       2131  852 0003E9D0 ?MakeOoKGradient@CIsometricProjection3D@@UBEXABV?$Plane@M$02@@AAVCPlanarGradients@@@Z
       2132  853 000400C0 ?MakeOoKGradient@CParallelProjection3D@@UBEXABV?$Plane@M$02@@AAVCPlanarGradients@@@Z
       2133  854 00041E20 ?MakeOoKGradient@CPerspectiveProjection3D@@UBEXABV?$Plane@M$02@@AAVCPlanarGradients@@@Z
       2134  855 00042F00 ?MakeOoKGradient@CSimpleProjection3D@@UBEXABV?$Plane@M$02@@AAVCPlanarGradients@@@Z
       2135  856 0011F850 ?MakePlanesFromVertices@CBrushSector@@QAEXXZ
       2136  857 000319F0 ?MakeRotationMatrix@@YAXAAV?$Matrix@M$02$02@@ABV?$Vector@M$02@@@Z
       2137  858 00031AC0 ?MakeRotationMatrixFast@@YAXAAV?$Matrix@M$02$02@@ABV?$Vector@M$02@@@Z
       2138  859 00127A40 ?MakeShadowMap@CBrushPolygon@@QAEXPAVCWorld@@H@Z
       2139  85A 0006D5B0 ?MakeSubMipmap@@YAXPAK0J@Z
       2140  85B 00049FD0 ?MakeWideScreen@CDrawPort@@QAEXPAV1@@Z
       2141  85C 00055E30 ?Make_t@CFontData@@QAEXABVCTFileName@@JJAAV2@H@Z
       2142  85D 00004780 ?MarkChanged@CChangeable@@QAEXXZ
       2143  85E 000047D0 ?MarkChanged@CChangeableRT@@QAEXXZ
       2144  85F 00074110 ?MarkDrawn@CShadowMap@@QAEXXZ
       2145  860 000142E0 ?MarkDrawn@CTextureData@@QAEXXZ
       2146  861 00020650 ?MarkUnused@CSerial@@QAEXXZ
       2147  862 000316B0 ?MarkUpdated@CUpdateable@@QAEXXZ
       2148  863 000316F0 ?MarkUpdated@CUpdateableRT@@QAEXXZ
       2149  864 00020640 ?MarkUsed@CSerial@@QAEXXZ
       2150  865 000EC9B0 ?MaskOfPlayersOnClient@CServer@@QAEKJ@Z
       2151  866 00006E32 ?Matches@CTString@@QBEHABV1@@Z
       2152  867 00006E52 ?Matches@CTString@@QBEHPBD@Z
       2153  868 0014E1E0 ?Matrix12ToQVect@@YAXAAUQVect@@AAY0M@$$CBM@Z
       2154  869 0003EC00 ?MipFactor@CIsometricProjection3D@@UBEMM@Z
       2155  86A 0003EC30 ?MipFactor@CIsometricProjection3D@@UBEMXZ
       2156  86B 00040290 ?MipFactor@CParallelProjection3D@@UBEMM@Z
       2157  86C 000402C0 ?MipFactor@CParallelProjection3D@@UBEMXZ
       2158  86D 00042150 ?MipFactor@CPerspectiveProjection3D@@UBEMM@Z
       2159  86E 00042180 ?MipFactor@CPerspectiveProjection3D@@UBEMXZ
       2160  86F 00042F70 ?MipFactor@CSimpleProjection3D@@UBEMM@Z
       2161  870 00042F80 ?MipFactor@CSimpleProjection3D@@UBEMXZ
       2162  871 001075A0 ?MirrorAndStretch@CEntity@@UAEXMH@Z
       2163  872 001139B0 ?MirrorAndStretch@CWorld@@QAEXAAV1@MW4WorldMirrorType@@@Z
       2164  873 000128F0 ?MirrorPlaneL@CProjection3D@@QAEAAV?$Plane@M$02@@XZ
       2165  874 00012900 ?MirrorPlaneR@CProjection3D@@QBEABV?$Plane@M$02@@XZ
       2166  875 00167E20 ?MiscDamageInflictor@CMovableEntity@@QAEPAVCEntity@@XZ
       2167  876 001293E0 ?MixLayers@CBrushShadowMap@@UAEXJJH@Z
       2168  877 00074600 ?MixLayers@CShadowMap@@UAEXJJH@Z
       2169  878 000827F0 ?MixSounds@CSoundLibrary@@AAEXXZ
       2170  879 0010E210 ?ModelChangeNotify@CEntity@@QAEXXZ
       2171  87A 000B5190 ?MoveEntityInCollisionGrid@CWorld@@QAEXPAVCEntity@@ABV?$AABBox@M$02@@1@Z
       2172  87B 0000EBC0 ?MoveList@CListHead@@QAEXAAV1@@Z
       2173  87C 000912F0 ?MovePatchRelative@CEditModel@@QAEXJV?$Vector@J$01@@@Z
       2174  87D 0011CC20 ?MovePolygonEdges@CBrushPolygon@@QAEXAAV1@@Z
       2175  87E 000B5DA0 ?MoveTargetBrushPartToObject@CWorld@@QAEXAAVCEntity@@AAV?$AABBox@N$02@@AAVCObject3D@@@Z
       2176  87F 00107120 ?MovesByTargetedRoute@CEntity@@UBEHAAVCTString@@@Z
       2177  880 00047DC0 ?MulColors@@YAKKK@Z
       2178  881 00081C80 ?Mute@CSoundLibrary@@QAEXM@Z
       2179  882 00111690 ?NameForValue@CEntityPropertyEnumType@@QAEPBDJ@Z
       2180  883 00012830 ?NearClipDistanceL@CProjection3D@@QAEAAMXZ
       2181  884 00012840 ?NearClipDistanceR@CProjection3D@@QBEABMXZ
       2182  885 00110EB0 ?New@CEntityClass@@QAEPAVCEntity@@XZ
       2183  886 00116260 ?NewBrushMipAfter@CBrush3D@@QAEPAVCBrushMip@@PAV2@H@Z
       2184  887 001162F0 ?NewBrushMipBefore@CBrush3D@@QAEPAVCBrushMip@@PAV2@H@Z
       2185  888 0010C900 ?NewClearState@CEntity@@QAEXMJ@Z
       2186  889 0013FA60 ?NewClearState@CModelInstance@@QAEXM@Z
       2187  88A 0010C800 ?NewClonedState@CEntity@@QAEXMJ@Z
       2188  88B 0013F970 ?NewClonedState@CModelInstance@@QAEXM@Z
       2189  88C 0008F1A0 ?NewModel@CEditModel@@AAEXPAVCObject3D@@@Z
       2190  88D 000039F0 ?NextAnim@CAnimObject@@QAEXXZ
       2191  88E 00003AA0 ?NextFrame@CAnimObject@@QAEXXZ
       2192  88F 00099580 ?NextManualMipLevel@CModelObject@@QAEXXZ
       2193  890 00008D50 ?NoExt@CTFileName@@QBE?AV1@XZ
       2194  891 000E96F0 ?Normalize@CPlayerAction@@QAEXXZ
       2195  892 0010EF00 ?NotifyCollisionChanged@CEntity@@QAEXXZ
       2196  893 0010EDE0 ?NotifyGravityChanged@CEntity@@QAEXXZ
       2197  894 00012960 ?ObjectFaceForwardL@CProjection3D@@QAEAAHXZ
       2198  895 00012970 ?ObjectFaceForwardR@CProjection3D@@QBEABHXZ
       2199  896 00012980 ?ObjectHalfFaceForwardL@CProjection3D@@QAEAAHXZ
       2200  897 00012990 ?ObjectHalfFaceForwardR@CProjection3D@@QBEABHXZ
       2201  898 000127F0 ?ObjectHandleL@CProjection3D@@QAEAAV?$Vector@M$02@@XZ
       2202  899 00012800 ?ObjectHandleR@CProjection3D@@QBEABV?$Vector@M$02@@XZ
       2203  89A 000127D0 ?ObjectPlacementL@CProjection3D@@QAEAAVCPlacement3D@@XZ
       2204  89B 00032AE0 ?ObjectPlacementL@CSimpleProjection3D_DOUBLE@@QAEAAVCPlacement3D@@XZ
       2205  89C 000127E0 ?ObjectPlacementR@CProjection3D@@QBEABVCPlacement3D@@XZ
       2206  89D 00032AF0 ?ObjectPlacementR@CSimpleProjection3D_DOUBLE@@QBEABVCPlacement3D@@XZ
       2207  89E 000128B0 ?ObjectStretchL@CProjection3D@@QAEAAV?$Vector@M$02@@XZ
       2208  89F 00032B00 ?ObjectStretchL@CSimpleProjection3D_DOUBLE@@QAEAAV?$Vector@M$02@@XZ
       2209  8A0 000128C0 ?ObjectStretchR@CProjection3D@@QBEABV?$Vector@M$02@@XZ
       2210  8A1 00032B10 ?ObjectStretchR@CSimpleProjection3D_DOUBLE@@QBEABV?$Vector@M$02@@XZ
       2211  8A2 00110EE0 ?ObtainComponents_t@CEntityClass@@QAEXXZ
       2212  8A3 00140890 ?ObtainModelInstance_t@@YAPAVCModelInstance@@ABVCTString@@@Z
       2213  8A4 00140800 ?ObtainModelInstance_t@@YAXAAVCModelInstance@@ABVCTString@@@Z
       2214  8A5 001147B0 ?ObtainWithCheck@CEntityComponent@@QAEXXZ
       2215  8A6 00114660 ?Obtain_t@CEntityComponent@@QAEXXZ
       2216  8A7 000C91D0 ?Obtain_t@CStock_CAnimData@@QAEPAVCAnimData@@ABVCTFileName@@@Z
       2217  8A8 000CA130 ?Obtain_t@CStock_CAnimSet@@QAEPAVCAnimSet@@ABVCTFileName@@@Z
       2218  8A9 000CAF20 ?Obtain_t@CStock_CEntityClass@@QAEPAVCEntityClass@@ABVCTFileName@@@Z
       2219  8AA 000CBDA0 ?Obtain_t@CStock_CFontData@@QAEPAVCFontData@@ABVCTFileName@@@Z
       2220  8AB 000CCC20 ?Obtain_t@CStock_CMesh@@QAEPAVCMesh@@ABVCTFileName@@@Z
       2221  8AC 000CDA90 ?Obtain_t@CStock_CModelData@@QAEPAVCModelData@@ABVCTFileName@@@Z
       2222  8AD 000CE900 ?Obtain_t@CStock_CModelInstance@@QAEPAVCModelInstanceSerial@@ABVCTFileName@@@Z
       2223  8AE 000CF780 ?Obtain_t@CStock_CShader@@QAEPAVCShader@@ABVCTFileName@@@Z
       2224  8AF 000D0630 ?Obtain_t@CStock_CSkeleton@@QAEPAVCSkeleton@@ABVCTFileName@@@Z
       2225  8B0 000D14B0 ?Obtain_t@CStock_CSoundData@@QAEPAVCSoundData@@ABVCTFileName@@@Z
       2226  8B1 000D2320 ?Obtain_t@CStock_CTextureData@@QAEPAVCTextureData@@ABVCTFileName@@@Z
       2227  8B2 0010CC40 ?OffSetAnimationQueue@CEntity@@QAEXMJ@Z
       2228  8B3 0013FB00 ?OffSetAnimationQueue@CModelInstance@@QAEXM@Z
       2229  8B4 000039E0 ?OffsetPhase@CAnimObject@@QAEXM@Z
       2230  8B5 00107610 ?OnEnd@CEntity@@UAEXXZ
       2231  8B6 00166D40 ?OnEnd@CMovableEntity@@UAEXXZ
       2232  8B7 00110320 ?OnEnd@CRationalEntity@@UAEXXZ
       2233  8B8 001075E0 ?OnInitialize@CEntity@@UAEXABVCEntityEvent@@@Z
       2234  8B9 00166C50 ?OnInitialize@CMovableEntity@@UAEXABVCEntityEvent@@@Z
       2235  8BA 001101C0 ?OnInitialize@CRationalEntity@@UAEXABVCEntityEvent@@@Z
       2236  8BB 000065B0 ?OnlyFirstLine@CTString@@QAEXXZ
       2237  8BC 0007E1F0 ?OpenCanvas@CViewPort@@QAEXXZ
       2238  8BD 000DE490 ?OpenSocket_t@CCommunicationInterface@@QAEXKK@Z
       2239  8BE 0002B050 ?Open_t@CTFileStream@@QAEXABVCTFileName@@W4OpenMode@CTStream@@@Z
       2240  8BF 00133D80 ?Optimize@CAnimSet@@QAEXXZ
       2241  8C0 00137920 ?Optimize@CMesh@@QAEXXZ
       2242  8C1 00033270 ?Optimize@CObject3D@@QAEXXZ
       2243  8C2 00133DB0 ?OptimizeAnimation@CAnimSet@@QAEXAAUAnimation@@M@Z
       2244  8C3 00139270 ?OptimizeLod@CMesh@@QAEXAAUMeshLOD@@@Z
       2245  8C4 00116430 ?OptimizeObject3D@CBrush3D@@SAXAAVCObject3D@@@Z
       2246  8C5 000E8D70 ?Pack@CNetworkMessage@@QAEXAAV1@AAVCCompressor@@@Z
       2247  8C6 000E0B90 ?PackAngle@@YAKABV?$Vector@M$02@@@Z
       2248  8C7 000E8DF0 ?PackDefault@CNetworkMessage@@QAEXAAV1@@Z
       2249  8C8 000E0930 ?PackFloat@@YAKEEEM@Z
       2250  8C9 000E0900 ?PackFloatToWord@@YAFM@Z
       2251  8CA 000E0B20 ?PackFloatsToULONG@@YAKMMM@Z
       2252  8CB 000E0A60 ?PackVectorToULONG@@YAKAAV?$Vector@M$02@@@Z
       2253  8CC 00211418 ?PaletteColorValues@@3PAKA
       2254  8CD 001408D0 ?ParseSmcFile_t@@YAPAVCModelInstance@@ABVCTString@@@Z
       2255  8CE 00140970 ?ParseSmcFile_t@@YAXAAVCModelInstance@@ABVCTString@@@Z
       2256  8CF 0004E050 ?Particle_EndSystem@@YAXH@Z
       2257  8D0 000500A0 ?Particle_Flush@@YAXXZ
       2258  8D1 0004E0A0 ?Particle_GetDrawPortID@@YAJXZ
       2259  8D2 0004E070 ?Particle_GetMipFactor@@YAMXZ
       2260  8D3 0004E090 ?Particle_GetProjection@@YAPAVCProjection3D@@XZ
       2261  8D4 0004E080 ?Particle_GetViewer@@YAPAVCEntity@@XZ
       2262  8D5 000FD370 ?Particle_PrepareEntity@@YAXMHHHPAVCEntity@@@Z
       2263  8D6 0004DF90 ?Particle_PrepareSystem@@YAXPAVCDrawPort@@AAVCAnyProjection3D@@@Z
       2264  8D7 0004E0B0 ?Particle_PrepareTexture@@YAXPAVCTextureObject@@W4PredefinedBlendType@@@Z
       2265  8D8 0004EAC0 ?Particle_RenderLine@@YAXABV?$Vector@M$02@@0MK@Z
       2266  8D9 0004F3D0 ?Particle_RenderQuad3D@@YAXABV?$Vector@M$02@@000K@Z
       2267  8DA 0004E3A0 ?Particle_RenderSquare@@YAXABV?$Vector@M$02@@MMKM@Z
       2268  8DB 0004E250 ?Particle_SetTexturePart@@YAXJJJJ@Z
       2269  8DC 0004E310 ?Particle_SetTextureSection@@YAXJJJJ@Z
       2270  8DD 00050250 ?Particle_Sort@@YAXH@Z
       2271  8DE 00088AD0 ?Pause@CSoundObject@@QAEXXZ
       2272  8DF 00003950 ?PauseAnim@CAnimObject@@QAEXXZ
       2273  8E0 00029530 ?PeekID_t@CTStream@@QAE?AVCChunkID@@XZ
       2274  8E1 0009A700 ?PickPolyColor@CModelObject@@QAEXPAVCDrawPort@@PAVCProjection3D@@JJAAJH@Z
       2275  8E2 0009A7D0 ?PickPolySurface@CModelObject@@QAEJPAVCDrawPort@@PAVCProjection3D@@JJ@Z
       2276  8E3 0009A870 ?PickVertexIndex@CModelObject@@QAEJPAVCDrawPort@@PAVCProjection3D@@JJAAV?$Vector@M$02@@@Z
       2277  8E4 000872D0 ?Play@CSoundObject@@QAEXPAVCSoundData@@K@Z
       2278  8E5 00003C40 ?PlayAnim@CAnimObject@@QAEXJK@Z
       2279  8E6 000829F0 ?PlayBuffers@CSoundLibrary@@AAEXXZ
       2280  8E7 0010E3C0 ?PlaySoundA@CEntity@@QAEXAAVCSoundObject@@ABVCTFileName@@J@Z
       2281  8E8 0010E2C0 ?PlaySoundA@CEntity@@QAEXAAVCSoundObject@@JJH@Z
       2282  8E9 00088A90 ?Play_t@CSoundObject@@QAEXABVCTFileName@@K@Z
       2283  8EA 001297C0 ?PolygonHasLayer@CLightSource@@QAEHAAVCBrushPolygon@@@Z
       2284  8EB 0009A150 ?PolygonHit@CModelObject@@QAEPAUModelPolygon@@VCPlacement3D@@0JAAM@Z
       2285  8EC 0009A250 ?PolygonHitModelData@CModelObject@@QAEPAUModelPolygon@@PAVCModelData@@VCPlacement3D@@1JAAM@Z
       2286  8ED 0009AB20 ?PolygonsInSurfaceCt@CModelObject@@QAEJJJ@Z
       2287  8EE 0003E160 ?PostClip@CIsometricProjection3D@@UBEXABV?$Vector@M$02@@AAV2@@Z
       2288  8EF 0003E1A0 ?PostClip@CIsometricProjection3D@@UBEXABV?$Vector@M$02@@MAAV2@AAM@Z
       2289  8F0 0003F7F0 ?PostClip@CParallelProjection3D@@UBEXABV?$Vector@M$02@@AAV2@@Z
       2290  8F1 0003F840 ?PostClip@CParallelProjection3D@@UBEXABV?$Vector@M$02@@MAAV2@AAM@Z
       2291  8F2 00041570 ?PostClip@CPerspectiveProjection3D@@UBEXABV?$Vector@M$02@@AAV2@@Z
       2292  8F3 000415B0 ?PostClip@CPerspectiveProjection3D@@UBEXABV?$Vector@M$02@@MAAV2@AAM@Z
       2293  8F4 00042690 ?PostClip@CSimpleProjection3D@@UBEXABV?$Vector@M$02@@AAV2@@Z
       2294  8F5 000426B0 ?PostClip@CSimpleProjection3D@@UBEXABV?$Vector@M$02@@MAAV2@AAM@Z
       2295  8F6 0016E450 ?PostMoving@CMovableEntity@@UAEXXZ
       2296  8F7 0010FC00 ?PostMoving@CRationalEntity@@UAEXXZ
       2297  8F8 0003E0A0 ?PreClip@CIsometricProjection3D@@UBEXABV?$Vector@M$02@@AAV2@@Z
       2298  8F9 0003F730 ?PreClip@CParallelProjection3D@@UBEXABV?$Vector@M$02@@AAV2@@Z
       2299  8FA 000414B0 ?PreClip@CPerspectiveProjection3D@@UBEXABV?$Vector@M$02@@AAV2@@Z
       2300  8FB 000425D0 ?PreClip@CSimpleProjection3D@@UBEXABV?$Vector@M$02@@AAV2@@Z
       2301  8FC 0016B250 ?PreMoving@CMovableEntity@@UAEXXZ
       2302  8FD 0016F0B0 ?PreMoving@CMovableModelEntity@@UAEXXZ
       2303  8FE 0010FBE0 ?PreMoving@CRationalEntity@@UAEXXZ
       2304  8FF 0010DB00 ?Precache@CAutoPrecacheModel@@QAEXABVCTFileName@@@Z
       2305  900 0010D9A0 ?Precache@CAutoPrecacheSound@@QAEXABVCTFileName@@@Z
       2306  901 0010DBC0 ?Precache@CAutoPrecacheTexture@@QAEXABVCTFileName@@@Z
       2307  902 0010F770 ?Precache@CEntity@@UAEXXZ
       2308  903 001119F0 ?PrecacheClass@CDLLEntityClass@@QAEXJJ@Z
       2309  904 0010D930 ?PrecacheClass@CEntity@@QAEXJJ@Z
       2310  905 000ADB00 ?PrecacheEntities_t@CWorld@@QAEXXZ
       2311  906 001118D0 ?PrecacheModel@CDLLEntityClass@@QAEXJ@Z
       2312  907 0010D8D0 ?PrecacheModel@CEntity@@QAEXJ@Z
       2313  908 00111A70 ?PrecacheSkaModel@CDLLEntityClass@@QAEXJ@Z
       2314  909 0010D950 ?PrecacheSkaModel@CEntity@@QAEXJ@Z
       2315  90A 00111990 ?PrecacheSound@CDLLEntityClass@@QAEXJ@Z
       2316  90B 0010D910 ?PrecacheSound@CEntity@@QAEXJ@Z
       2317  90C 00111930 ?PrecacheTexture@CDLLEntityClass@@QAEXJ@Z
       2318  90D 0010D8F0 ?PrecacheTexture@CEntity@@QAEXJ@Z
       2319  90E 00001540 ?Pred@CListNode@@QBEAAV1@XZ
       2320  90F 0003D550 ?Prepare@CIsometricProjection3D@@UAEXXZ
       2321  910 0003EE60 ?Prepare@CParallelProjection3D@@UAEXXZ
       2322  911 00040370 ?Prepare@CPerspectiveProjection3D@@UAEXXZ
       2323  912 000746B0 ?Prepare@CShadowMap@@QAEXXZ
       2324  913 00042290 ?Prepare@CSimpleProjection3D@@UAEXXZ
       2325  914 00042FD0 ?Prepare@CSimpleProjection3D_DOUBLE@@QAEXXZ
       2326  915 000EF2B0 ?PrepareClientData@CServer@@QAEHJ@Z
       2327  916 000EFC60 ?PrepareDemoData@CServer@@QAEHM@Z
       2328  917 000DDDC0 ?PrepareForUse@CCommunicationInterface@@QAEHHH@Z
       2329  918 000ED3F0 ?PrepareGameStateData_t@CServer@@QAEXAAVCTMemoryStream@@AAJ1@Z
       2330  919 00116510 ?PrepareRelativeToAbsoluteProjection@CBrush3D@@QAEXAAVCSimpleProjection3D_DOUBLE@@@Z
       2331  91A 00082400 ?PrepareSoundBuffer_dsound@CSoundLibrary@@AAEJXZ
       2332  91B 00082460 ?PrepareSoundBuffer_waveout@CSoundLibrary@@AAEJXZ
       2333  91C 00003A10 ?PrevAnim@CAnimObject@@QAEXXZ
       2334  91D 00003AC0 ?PrevFrame@CAnimObject@@QAEXXZ
       2335  91E 000995B0 ?PrevManualMipLevel@CModelObject@@QAEXXZ
       2336  91F 000F1D60 ?PrintChatMessage@CSessionState@@QAEXKABVCTString@@0@Z
       2337  920 00006AB0 ?PrintF@CTString@@QAAJPBDZZ
       2338  921 00107620 ?PrintStackDebug@CEntity@@UAEPBDXZ
       2339  922 00110160 ?PrintStackDebug@CRationalEntity@@UAEPBDXZ
       2340  923 00090DA0 ?PrintSurfaceNumbers@CEditModel@@QAEXPAVCDrawPort@@PAVCFontData@@JMJJK@Z
       2341  924 000F2910 ?ProcessGameStream@CSessionState@@QAEXXZ
       2342  925 000F2B80 ?ProcessGameStreamBlock@CSessionState@@QAEXAAVCNetworkMessage@@@Z
       2343  926 000F2670 ?ProcessGameTick@CSessionState@@QAEXAAVCNetworkMessage@@M@Z
       2344  927 000784E0 ?ProcessScript_t@@YAXABVCTFileName@@@Z
       2345  928 0022EA74 ?ProgresRoutines@@3VCProgressRoutines@@A
       2346  929 0003E8F0 ?Project@CIsometricProjection3D@@UBEXABV?$Plane@M$02@@AAV2@@Z
       2347  92A 00032D60 ?Project@CObject3D@@QAEXAAVCSimpleProjection3D_DOUBLE@@@Z
       2348  92B 0003FFE0 ?Project@CParallelProjection3D@@UBEXABV?$Plane@M$02@@AAV2@@Z
       2349  92C 00041D40 ?Project@CPerspectiveProjection3D@@UBEXABV?$Plane@M$02@@AAV2@@Z
       2350  92D 00042E20 ?Project@CSimpleProjection3D@@UBEXABV?$Plane@M$02@@AAV2@@Z
       2351  92E 000438D0 ?Project@CSimpleProjection3D_DOUBLE@@QBEXABV?$Plane@N$02@@AAV2@@Z
       2352  92F 0003E8E0 ?ProjectAABBox@CIsometricProjection3D@@UBEXABV?$AABBox@M$02@@AAV2@@Z
       2353  930 0003FFD0 ?ProjectAABBox@CParallelProjection3D@@UBEXABV?$AABBox@M$02@@AAV2@@Z
       2354  931 00041D30 ?ProjectAABBox@CPerspectiveProjection3D@@UBEXABV?$AABBox@M$02@@AAV2@@Z
       2355  932 00042CE0 ?ProjectAABBox@CSimpleProjection3D@@UBEXABV?$AABBox@M$02@@AAV2@@Z
       2356  933 000437A0 ?ProjectAABBox@CSimpleProjection3D_DOUBLE@@QBEXABV?$AABBox@N$02@@AAV2@@Z
       2357  934 0003E730 ?ProjectCoordinate@CIsometricProjection3D@@UBEXABV?$Vector@M$02@@AAV2@@Z
       2358  935 0003FE10 ?ProjectCoordinate@CParallelProjection3D@@UBEXABV?$Vector@M$02@@AAV2@@Z
       2359  936 00041B80 ?ProjectCoordinate@CPerspectiveProjection3D@@UBEXABV?$Vector@M$02@@AAV2@@Z
       2360  937 00042700 ?ProjectCoordinate@CSimpleProjection3D@@UBEXABV?$Vector@M$02@@AAV2@@Z
       2361  938 00043350 ?ProjectCoordinate@CSimpleProjection3D_DOUBLE@@QBEXABV?$Vector@N$02@@AAV2@@Z
       2362  939 0003E850 ?ProjectDirection@CIsometricProjection3D@@UBEXABV?$Vector@M$02@@AAV2@@Z
       2363  93A 0003FF40 ?ProjectDirection@CParallelProjection3D@@UBEXABV?$Vector@M$02@@AAV2@@Z
       2364  93B 00041CA0 ?ProjectDirection@CPerspectiveProjection3D@@UBEXABV?$Vector@M$02@@AAV2@@Z
       2365  93C 000427F0 ?ProjectDirection@CSimpleProjection3D@@UBEXABV?$Vector@M$02@@AAV2@@Z
       2366  93D 000433F0 ?ProjectDirection@CSimpleProjection3D_DOUBLE@@QBEXABV?$Vector@N$02@@AAV2@@Z
       2367  93E 000997D0 ?ProjectFrameVertices@CModelObject@@QAEXPAVCProjection3D@@J@Z
       2368  93F 00044940 ?ProjectMapping@CMappingDefinition@@QAEXABV?$Plane@M$02@@ABV1@0@Z
       2369  940 00043650 ?ProjectMapping@CSimpleProjection3D_DOUBLE@@QBEXABVCMappingDefinition@@ABV?$Plane@N$02@@AAV2@@Z
       2370  941 00042880 ?ProjectPlacement@CSimpleProjection3D@@QBEXABVCPlacement3D@@AAV2@@Z
       2371  942 00043460 ?ProjectPlacement@CSimpleProjection3D_DOUBLE@@QBEXABVCPlacement3D@@AAV2@@Z
       2372  943 00042AB0 ?ProjectPlacementSmooth@CSimpleProjection3D@@QBEXABVCPlacement3D@@AAV2@@Z
       2373  944 001116D0 ?PropertyForName@CDLLEntityClass@@QAEPAVCEntityProperty@@ABVCTString@@@Z
       2374  945 0010F8C0 ?PropertyForName@CEntity@@QAEPAVCEntityProperty@@ABVCTString@@@Z
       2375  946 001115F0 ?PropertyForName@CEntityClass@@QAEPAVCEntityProperty@@ABVCTString@@@Z
       2376  947 00111740 ?PropertyForTypeAndID@CDLLEntityClass@@QAEPAVCEntityProperty@@W4PropertyType@2@K@Z
       2377  948 0010F880 ?PropertyForTypeAndID@CEntity@@QAEPAVCEntityProperty@@KK@Z
       2378  949 00111610 ?PropertyForTypeAndID@CEntityClass@@QAEPAVCEntityProperty@@KK@Z
       2379  94A 0002AEC0 ?ProtectPageFromWritting@CTStream@@QAEXJ@Z
       2380  94B 00097230 ?PtrsToIndices@CModelData@@QAEXXZ
       2381  94C 00029380 ?PutLine_t@CTStream@@QAEXPBD@Z
       2382  94D 000293F0 ?PutString_t@CTStream@@QAEXPBD@Z
       2383  94E 0004BF00 ?PutText@CDrawPort@@QBEXABVCTString@@JJK@Z
       2384  94F 0004C9F0 ?PutTextC@CDrawPort@@QBEXABVCTString@@JJK@Z
       2385  950 0004CA20 ?PutTextCXY@CDrawPort@@QBEXABVCTString@@JJK@Z
       2386  951 0004CA70 ?PutTextR@CDrawPort@@QBEXABVCTString@@JJK@Z
       2387  952 0004CAC0 ?PutTexture@CDrawPort@@QBEXPAVCTextureObject@@ABV?$AABBox@J$01@@1KK@Z
       2388  953 0004CB80 ?PutTexture@CDrawPort@@QBEXPAVCTextureObject@@ABV?$AABBox@J$01@@1KKKKK@Z
       2389  954 0004CAA0 ?PutTexture@CDrawPort@@QBEXPAVCTextureObject@@ABV?$AABBox@J$01@@KK@Z
       2390  955 0004CAF0 ?PutTexture@CDrawPort@@QBEXPAVCTextureObject@@ABV?$AABBox@J$01@@KKKKK@Z
       2391  956 00123240 ?QueueForCalculation@CBrushShadowMap@@QAEXXZ
       2392  957 00019A30 ?REG_GetLong@@YAHABVCTString@@AAK@Z
       2393  958 00019630 ?REG_GetString@@YAHABVCTString@@AAV1@@Z
       2394  959 00019B40 ?REG_SetString@@YAHABVCTString@@0@Z
       2395  95A 001452B0 ?RM_AddFlag@@YAXK@Z
       2396  95B 00143C80 ?RM_AddSimpleShadow_View@@YAXAAVCModelInstance@@MABV?$Plane@M$02@@@Z
       2397  95C 00145350 ?RM_AreHardwareShadersAvailable@@YAHXZ
       2398  95D 00145730 ?RM_BeginModelRenderingMask@@YAXAAVCAnyProjection3D@@PAEJJ@Z
       2399  95E 00145380 ?RM_BeginRenderingView@@YAXAAVCAnyProjection3D@@PAVCDrawPort@@@Z
       2400  95F 00145970 ?RM_EndModelRenderingMask@@YAXXZ
       2401  960 00145670 ?RM_EndRenderingView@@YAXH@Z
       2402  961 001452F0 ?RM_FindRenBone@@YAPAURenBone@@J@Z
       2403  962 00142CE0 ?RM_GetAdjustedMipDistance@@YAMMM@Z
       2404  963 00148F60 ?RM_GetBoneAbsPosition@@YAHAAVCModelInstance@@JAAV?$Vector@M$02@@1@Z
       2405  964 00148D40 ?RM_GetBoneRelPosition@@YAHAAVCModelInstance@@JAAV?$Vector@M$02@@1@Z
       2406  965 00148FD0 ?RM_GetBoneTransformations@@YAHAAVCModelInstance@@JPAY0M@M@Z
       2407  966 001452A0 ?RM_GetFlags@@YAKXZ
       2408  967 00142C80 ?RM_GetMipAdjustmentFactor@@YAMPBVCProjection3D@@@Z
       2409  968 00142CF0 ?RM_GetModelVertices@@YAXAAVCModelInstance@@AAV?$CStaticStackArray@V?$Vector@M$02@@@@AAV?$Matrix@M$02$02@@AAV?$Vector@M$02@@MM@Z
       2410  969 00148C60 ?RM_GetRenBoneAbs@@YAHAAVCModelInstance@@JAAURenBone@@@Z
       2411  96A 00145330 ?RM_GetRenBoneArray@@YAPAURenBone@@AAJ@Z
       2412  96B 00145280 ?RM_GetRenderFlags@@YAAAKXZ
       2413  96C 001418A0 ?RM_PreviewSKA@@YAXAAVCModelInstance@@PAVCDrawPort@@W4SkaPreviewFlags@@J@Z
       2414  96D 001452D0 ?RM_RemoveFlag@@YAXK@Z
       2415  96E 00145270 ?RM_RenderBone@@YAXAAVCModelInstance@@J@Z
       2416  96F 001448A0 ?RM_RenderColisionBox@@YAXAAVCModelInstance@@AAUColisionBox@@K@Z
       2417  970 00144FC0 ?RM_RenderCross@@YAXAAV?$Vector@M$02@@K@Z
       2418  971 00144690 ?RM_RenderGround@@YAXAAVCTextureObject@@@Z
       2419  972 0014C8B0 ?RM_RenderSKA@@YAXAAVCModelInstance@@@Z
       2420  973 00144650 ?RM_SetBoneAdjustCallback@@YAXP6AXPAX@Z0@Z
       2421  974 00142C70 ?RM_SetCurrentDistance@@YAXM@Z
       2422  975 00145290 ?RM_SetFlags@@YAXK@Z
       2423  976 00145980 ?RM_SetLightColor@@YAXKK@Z
       2424  977 001459A0 ?RM_SetLightDirection@@YAXAAV?$Vector@M$02@@@Z
       2425  978 00145F10 ?RM_SetMaxWeightsPerVertex@@YAXJ@Z
       2426  979 00145A40 ?RM_SetObjectMatrices@@YAXAAVCModelInstance@@@Z
       2427  97A 00145E90 ?RM_SetObjectPlacement@@YAXABV?$Matrix@M$02$02@@ABV?$Vector@M$02@@@Z
       2428  97B 00145E00 ?RM_SetObjectPlacement@@YAXABVCPlacement3D@@@Z
       2429  97C 00144670 ?RM_SetShaderParamsAdjustCallback@@YAXP6AXPAXJPAVCShader@@AAUShaderParams@@@Z0@Z
       2430  97D 00143180 ?RM_TestRayCastHit@@YAMAAVCModelInstance@@AAV?$Matrix@M$02$02@@AAV?$Vector@M$02@@ABV3@3MPAJ@Z
       2431  97E 0003EA30 ?RayThroughPoint@CIsometricProjection3D@@UBEXABV?$Vector@M$02@@AAVCPlacement3D@@@Z
       2432  97F 00040180 ?RayThroughPoint@CParallelProjection3D@@UBEXABV?$Vector@M$02@@AAVCPlacement3D@@@Z
       2433  980 00041F20 ?RayThroughPoint@CPerspectiveProjection3D@@UBEXABV?$Vector@M$02@@AAVCPlacement3D@@@Z
       2434  981 00042F20 ?RayThroughPoint@CSimpleProjection3D@@UBEXABV?$Vector@M$02@@AAVCPlacement3D@@@Z
       2435  982 001217C0 ?ReTriple@CBrushSector@@QAEXAAV?$CSelection@VCBrushPolygon@@$0BAA@@@@Z
       2436  983 000186C0 ?Read@CNetworkMessage@@QAEXPAXJ@Z
       2437  984 000E3B70 ?ReadAddPlayer@CEntityMessage@@QAEXAAKAAJAAVCPlayerCharacter@@001@Z
       2438  985 000E50D0 ?ReadAddSkaString@CEntityMessage@@QAEXAAJAAVCTString@@@Z
       2439  986 000E4ED0 ?ReadBasePosition@CEntityMessage@@QAEXAAV?$Vector@M$02@@@Z
       2440  987 000E8F90 ?ReadBits@CNetworkMessage@@QAEXPAXJ@Z
       2441  988 000BAED0 ?ReadBrushes_t@CWorld@@QAEXPAVCTStream@@@Z
       2442  989 000298D0 ?ReadChunkAlloc_t@CTStream@@QAEPAXJ@Z
       2443  98A 000297B0 ?ReadChunk_t@CTStream@@QAEXPAXJ@Z
       2444  98B 00029EA0 ?ReadDictionary_intenal_t@CTStream@@QAEXJ@Z
       2445  98C 000E3250 ?ReadEntityCopy@CEntityMessage@@QAEXAAK0AAVCPlacement3D@@E@Z
       2446  98D 000E2F50 ?ReadEntityCreate@CEntityMessage@@QAEXAAKAAVCPlacement3D@@AAG@Z
       2447  98E 000E3400 ?ReadEntityDestroy@CEntityMessage@@QAEXAAK@Z
       2448  98F 000E3520 ?ReadEntityEvent@CEntityMessage@@QAEXAAKAAJPAX1@Z
       2449  990 000E3720 ?ReadEntityInitialize@CEntityMessage@@QAEXAAKAAJPAX1@Z
       2450  991 00113C10 ?ReadEntityPointer_t@CEntity@@QAEXPAVCTStream@@AAVCEntityPointer@@@Z
       2451  992 001172C0 ?ReadEntitySectorLinks_t@CBrushArchive@@QAEXAAVCTStream@@@Z
       2452  993 00007462 ?ReadFromStreamShort@CTString@@QAEXPAVCTStream@@@Z
       2453  994 00009520 ?ReadFromText_t@CTFileName@@QAEXAAVCTStream@@ABVCTString@@@Z
       2454  995 00006750 ?ReadFromText_t@CTString@@QAEXAAVCTStream@@ABV1@@Z
       2455  996 00029860 ?ReadFullChunk_t@CTStream@@QAEXABVCChunkID@@PAXJ@Z
       2456  997 000BD8F0 ?ReadInfo_t@CWorld@@QAEXPAVCTStream@@H@Z
       2457  998 00122A60 ?ReadLayers_t@CBrushShadowMap@@UAEXPAVCTStream@@@Z
       2458  999 00074690 ?ReadLayers_t@CShadowMap@@UAEXPAVCTStream@@@Z
       2459  99A 00091A00 ?ReadMipSettings_t@CEditModel@@QAEXPAVCTStream@@J@Z
       2460  99B 0001D830 ?ReadModelInstance_t@@YAXAAVCTStream@@AAVCModelInstance@@H@Z
       2461  99C 00097550 ?ReadName_t@CModelCollisionBox@@QAEXPAVCTStream@@@Z
       2462  99D 000446F0 ?ReadOld_t@CMappingDefinition@@QAEXAAVCTStream@@@Z
       2463  99E 000E4500 ?ReadPause@CEntityMessage@@QAEXAAHAAVCTString@@@Z
       2464  99F 000E2C20 ?ReadPlacement@CEntityMessage@@QAEXAAKAAVCPlacement3D@@1@Z
       2465  9A0 000E4180 ?ReadPlacementNotify@CEntityMessage@@QAEXAAKAAE@Z
       2466  9A1 000E5230 ?ReadPlayerAction@CEntityMessage@@QAEXAAKAAVCPlayerAction@@@Z
       2467  9A2 000E40A0 ?ReadPlayerUpdate@CEntityMessage@@QAEXAAKAAVCNetworkMessage@@@Z
       2468  9A3 001171C0 ?ReadPortalSectorLinks_t@CBrushArchive@@QAEXAAVCTStream@@@Z
       2469  9A4 00113CB0 ?ReadProperties_t@CEntity@@QAEXAAVCTStream@@H@Z
       2470  9A5 00029760 ?ReadRawChunk_t@CTStream@@QAEXPAXJ@Z
       2471  9A6 000F3B90 ?ReadRememberedLevels_t@CSessionState@@QAEXPAVCTStream@@@Z
       2472  9A7 000E4650 ?ReadRemovePlayer@CEntityMessage@@QAEXAAJ@Z
       2473  9A8 0010CE10 ?ReadSKAQueue@CEntity@@QAEXAAVCNetworkMessage@@@Z
       2474  9A9 0010CCC0 ?ReadSKAQueue@CEntity@@QAEXPAVCTStream@@@Z
       2475  9AA 000963F0 ?ReadSettings_t@MappingSurface@@QAEXPAVCTStream@@@Z
       2476  9AB 000E42E0 ?ReadSka@CEntityMessage@@QAEXAAKAAEPAXAAJ@Z
       2477  9AC 000E4CB0 ?ReadSound@CEntityMessage@@QAEXAAKAAEPAXAAJ@Z
       2478  9AD 000E3F80 ?ReadStartAnim@CEntityMessage@@QAEXAAKAAJ0@Z
       2479  9AE 000BC600 ?ReadState_net_t@CWorld@@QAEXPAVCTStream@@@Z
       2480  9AF 000BBE20 ?ReadState_new_t@CWorld@@QAEXPAVCTStream@@@Z
       2481  9B0 000BB8D0 ?ReadState_old_t@CWorld@@QAEXPAVCTStream@@@Z
       2482  9B1 000F37C0 ?ReadState_t@CSessionState@@QAEXPAVCTStream@@@Z
       2483  9B2 000BB140 ?ReadState_t@CWorld@@QAEXPAVCTStream@@@Z
       2484  9B3 000BB2E0 ?ReadState_veryold_t@CWorld@@QAEXPAVCTStream@@@Z
       2485  9B4 00029990 ?ReadStream_t@CTStream@@QAEXAAV1@@Z
       2486  9B5 0002E7D0 ?ReadTranslationTable_t@@YAXAAV?$CDynamicArray@VCTranslationPair@@@@ABVCTFileName@@@Z
       2487  9B6 00006800 ?ReadUntilEOF_t@CTString@@QAEXAAVCTStream@@@Z
       2488  9B7 000F3870 ?ReadWorldAndState_t@CSessionState@@QAEXPAVCTStream@@@Z
       2489  9B8 00171AA0 ?Read_net@CPlayerEntity@@UAEXPAVCNetworkMessage@@M@Z
       2490  9B9 00171AC0 ?Read_net_brief@CPlayerEntity@@UAEXPAVCNetworkMessage@@M@Z
       2491  9BA 001190F0 ?Read_new_t@CBrush3D@@QAEXPAVCTStream@@@Z
       2492  9BB 00119310 ?Read_new_t@CBrushMip@@QAEXPAVCTStream@@@Z
       2493  9BC 00119030 ?Read_old_t@CBrush3D@@QAEXPAVCTStream@@@Z
       2494  9BD 00119250 ?Read_old_t@CBrushMip@@QAEXPAVCTStream@@@Z
       2495  9BE 00074340 ?Read_old_t@CShadowMap@@QAEXPAVCTStream@@@Z
       2496  9BF 00134C70 ?Read_t@CAnimSet@@UAEXPAVCTStream@@@Z
       2497  9C0 0008CE90 ?Read_t@CAttachedModel@@QAEXPAVCTStream@@@Z
       2498  9C1 00097650 ?Read_t@CAttachedModelPosition@@QAEXPAVCTStream@@@Z
       2499  9C2 0008D1C0 ?Read_t@CAttachedSound@@QAEXPAVCTStream@@@Z
       2500  9C3 00118F90 ?Read_t@CBrush3D@@QAEXPAVCTStream@@@Z
       2501  9C4 00117790 ?Read_t@CBrushArchive@@UAEXPAVCTStream@@@Z
       2502  9C5 00119470 ?Read_t@CBrushPolygonTexture@@QAEXAAVCTStream@@@Z
       2503  9C6 00119A60 ?Read_t@CBrushSector@@QAEXPAVCTStream@@@Z
       2504  9C7 0008D2D0 ?Read_t@CEditModel@@UAEXPAVCTStream@@@Z
       2505  9C8 0010F0D0 ?Read_t@CEntity@@UAEXPAVCTStream@@H@Z
       2506  9C9 00111100 ?Read_t@CEntityClass@@UAEXPAVCTStream@@@Z
       2507  9CA 00055970 ?Read_t@CFontCharData@@QAEXPAVCTStream@@@Z
       2508  9CB 00055BF0 ?Read_t@CFontData@@UAEXPAVCTStream@@@Z
       2509  9CC 0006EA50 ?Read_t@CImageInfo@@QAEXPAVCTStream@@@Z
       2510  9CD 00129500 ?Read_t@CLightSource@@QAEXPAVCTStream@@H@Z
       2511  9CE 0010F970 ?Read_t@CLiveEntity@@UAEXPAVCTStream@@H@Z
       2512  9CF 0013ACB0 ?Read_t@CMesh@@UAEXPAVCTStream@@@Z
       2513  9D0 000974A0 ?Read_t@CModelCollisionBox@@QAEXPAVCTStream@@@Z
       2514  9D1 00097BA0 ?Read_t@CModelData@@UAEXPAVCTStream@@@Z
       2515  9D2 00140590 ?Read_t@CModelInstanceSerial@@UAEXPAVCTStream@@@Z
       2516  9D3 00099180 ?Read_t@CModelObject@@QAEXPAVCTStream@@@Z
       2517  9D4 00095500 ?Read_t@CModelPatch@@QAEXPAVCTStream@@@Z
       2518  9D5 00095450 ?Read_t@CModelRenderPrefs@@QAEXPAVCTStream@@@Z
       2519  9D6 00165930 ?Read_t@CMovableBrushEntity@@UAEXPAVCTStream@@H@Z
       2520  9D7 00166F50 ?Read_t@CMovableEntity@@UAEXPAVCTStream@@H@Z
       2521  9D8 0016F200 ?Read_t@CMovableModelEntity@@UAEXPAVCTStream@@H@Z
       2522  9D9 00115AA0 ?Read_t@CPlayerCharacter@@QAEXPAVCTStream@@@Z
       2523  9DA 00171BD0 ?Read_t@CPlayerEntity@@UAEXPAVCTStream@@H@Z
       2524  9DB 0010FCE0 ?Read_t@CRationalEntity@@UAEXPAVCTStream@@H@Z
       2525  9DC 000F3610 ?Read_t@CSessionState@@QAEXPAVCTStream@@H@Z
       2526  9DD 00073440 ?Read_t@CShader@@UAEXPAVCTStream@@@Z
       2527  9DE 00074470 ?Read_t@CShadowMap@@QAEXPAVCTStream@@@Z
       2528  9DF 001508E0 ?Read_t@CSkeleton@@UAEXPAVCTStream@@@Z
       2529  9E0 0007E6F0 ?Read_t@CSoundData@@UAEXPAVCTStream@@@Z
       2530  9E1 00088B20 ?Read_t@CSoundObject@@QAEXPAVCTStream@@H@Z
       2531  9E2 000020D0 ?Read_t@CTStream@@QAEXPAXJ@Z
       2532  9E3 00151650 ?Read_t@CTerrain@@QAEXPAVCTStream@@@Z
       2533  9E4 00152430 ?Read_t@CTerrainArchive@@UAEXPAVCTStream@@@Z
       2534  9E5 00075F60 ?Read_t@CTextureData@@UAEXPAVCTStream@@@Z
       2535  9E6 00078490 ?Read_t@CTextureObject@@QAEXPAVCTStream@@@Z
       2536  9E7 0008A660 ?Read_t@CThumbnailSettings@@QAEXPAVCTStream@@@Z
       2537  9E8 000BAD20 ?Read_t@CWorld@@QAEXPAVCTStream@@@Z
       2538  9E9 000964B0 ?Read_t@MappingSurface@@QAEXPAVCTStream@@HH@Z
       2539  9EA 00096CC0 ?Read_t@ModelMipInfo@@QAEXPAVCTStream@@HHH@Z
       2540  9EB 00095F80 ?Read_t@ModelPolygon@@QAEXPAVCTStream@@@Z
       2541  9EC 00095EB0 ?Read_t@ModelPolygonVertex@@QAEXPAVCTStream@@@Z
       2542  9ED 000E4950 ?ReadcharacterChange@CEntityMessage@@QAEXAAKAAVCPlayerCharacter@@@Z
       2543  9EE 000ADED0 ?RebuildLinks@CWorld@@QAEXXZ
       2544  9EF 00033340 ?RecalculatePlanes@CObject3D@@QAEXXZ
       2545  9F0 000EEFF0 ?ReceiveAcknowledge@CServer@@QAEXJM@Z
       2546  9F1 000E86D0 ?ReceiveBroadcast@CMessageDispatcher@@QAEHAAVCNetworkMessage@@AAKAAG@Z
       2547  9F2 0010EFA0 ?ReceiveDamage@CEntity@@UAEXPAV1@W4DamageType@@MABV?$Vector@M$02@@2@Z
       2548  9F3 0010F9E0 ?ReceiveDamage@CLiveEntity@@UAEXPAVCEntity@@W4DamageType@@MABV?$Vector@M$02@@2@Z
       2549  9F4 000E8580 ?ReceiveFromClient@CMessageDispatcher@@QAEHJAAVCNetworkMessage@@@Z
       2550  9F5 000E8600 ?ReceiveFromClientReliable@CMessageDispatcher@@QAEHJAAVCNetworkMessage@@@Z
       2551  9F6 000E83C0 ?ReceiveFromServer@CMessageDispatcher@@QAEHAAVCNetworkMessage@@@Z
       2552  9F7 000E8470 ?ReceiveFromServerReliable@CMessageDispatcher@@QAEHAAVCNetworkMessage@@@Z
       2553  9F8 000E84F0 ?ReceiveFromServerReliable@CMessageDispatcher@@QAEHAAVCTMemoryStream@@@Z
       2554  9F9 0010F0A0 ?ReceiveItem@CEntity@@UAEHABVCEntityEvent@@@Z
       2555  9FA 000F5480 ?ReceiveMessage@CSessionState@@QAEHXZ
       2556  9FB 000F6C00 ?ReceiveTick@CSessionState@@QAEXMPAEJ@Z
       2557  9FC 00074C90 ?ReduceShadows@CGfxLibrary@@QAEXXZ
       2558  9FD 000E89B0 ?Reinit@CNetworkMessage@@QAEXXZ
       2559  9FE 001078F0 ?Reinitialize@CEntity@@QAEXXZ
       2560  9FF 000ADA80 ?ReinitializeEntities@CWorld@@QAEXXZ
       2561  A00 0003CAE0 ?RelativeToAbsolute@CPlacement3D@@QAEXABV1@@Z
       2562  A01 0003CBA0 ?RelativeToAbsoluteSmooth@CPlacement3D@@QAEXABV1@@Z
       2563  A02 0003CC60 ?RelativeToRelative@CPlacement3D@@QAEXABV1@0@Z
       2564  A03 0003CCD0 ?RelativeToRelativeSmooth@CPlacement3D@@QAEXABV1@0@Z
       2565  A04 00114850 ?Release@CEntityComponent@@QAEXXZ
       2566  A05 000C9380 ?Release@CStock_CAnimData@@QAEXPAVCAnimData@@@Z
       2567  A06 000CA2E0 ?Release@CStock_CAnimSet@@QAEXPAVCAnimSet@@@Z
       2568  A07 000CB0D0 ?Release@CStock_CEntityClass@@QAEXPAVCEntityClass@@@Z
       2569  A08 000CBF50 ?Release@CStock_CFontData@@QAEXPAVCFontData@@@Z
       2570  A09 000CCDD0 ?Release@CStock_CMesh@@QAEXPAVCMesh@@@Z
       2571  A0A 000CDC40 ?Release@CStock_CModelData@@QAEXPAVCModelData@@@Z
       2572  A0B 000CEAB0 ?Release@CStock_CModelInstance@@QAEXPAVCModelInstanceSerial@@@Z
       2573  A0C 000CF910 ?Release@CStock_CShader@@QAEXPAVCShader@@@Z
       2574  A0D 000D07E0 ?Release@CStock_CSkeleton@@QAEXPAVCSkeleton@@@Z
       2575  A0E 000D1660 ?Release@CStock_CSoundData@@QAEXPAVCSoundData@@@Z
       2576  A0F 000D24D0 ?Release@CStock_CTextureData@@QAEXPAVCTextureData@@@Z
       2577  A10 00110F80 ?ReleaseComponents@CEntityClass@@QAEXXZ
       2578  A11 00082740 ?ReleasePlayingBuffer@CSoundLibrary@@QAEXJH@Z
       2579  A12 000204A0 ?Reload@CSerial@@QAEXXZ
       2580  A13 0000EBA0 ?RemAll@CListHead@@QAEXXZ
       2581  A14 0010C600 ?RemAnimation@CEntity@@QAEXJJ@Z
       2582  A15 0013F610 ?RemAnimation@CModelInstance@@QAEXJ@Z
       2583  A16 0010C700 ?RemAnimsWithID@CEntity@@QAEXJJ@Z
       2584  A17 0013F6B0 ?RemAnimsWithID@CModelInstance@@QAEXJ@Z
       2585  A18 0002E2C0 ?RemHandler@CTimer@@QAEXPAVCTimerHandler@@@Z
       2586  A19 0000EB80 ?RemHead@CListHead@@QAEXXZ
       2587  A1A 000178D0 ?RemReference@CEntity@@QAEXXZ
       2588  A1B 00110E40 ?RemReference@CEntityClass@@QAEXXZ
       2589  A1C 0007EA70 ?RemReference@CSoundData@@QAEXXZ
       2590  A1D 00098870 ?RemReference_internal@CModelData@@UAEXXZ
       2591  A1E 00078CE0 ?RemReference_internal@CTextureData@@UAEXXZ
       2592  A1F 0000EB90 ?RemTail@CListHead@@QAEXXZ
       2593  A20 00137470 ?RemapMeshIndices@@YAXAAUMeshLOD@@PBJJ@Z
       2594  A21 001374D0 ?RemapMeshVertices@@YAXAAUMeshLOD@@PBJJ@Z
       2595  A22 000F3FF0 ?RememberCurrentLevel@CSessionState@@QAEXABVCTString@@@Z
       2596  A23 00133750 ?RememberUnCompresedRotatations@@YAXH@Z
       2597  A24 0000ECE0 ?Remove@CListNode@@QAEXXZ
       2598  A25 0009B570 ?RemoveAllAttachmentModels@CModelObject@@QAEXXZ
       2599  A26 0013E7F0 ?RemoveAllChildren@CModelInstance@@QAEXH@Z
       2600  A27 0006D280 ?RemoveAlphaChannel@@YAXPAKPAEJ@Z
       2601  A28 00134710 ?RemoveAnimation@CAnimSet@@QAEXPAUAnimation@@@Z
       2602  A29 00008E00 ?RemoveApplicationPath_t@CTFileName@@QAEXXZ
       2603  A2A 0010DCE0 ?RemoveAttachment@CEntity@@QAEXJ@Z
       2604  A2B 0009B530 ?RemoveAttachmentModel@CModelObject@@QAEXJ@Z
       2605  A2C 0013E7A0 ?RemoveChild@CModelInstance@@QAEXPAV1@@Z
       2606  A2D 0013E410 ?RemoveColisionBox@CModelInstance@@QAEXJ@Z
       2607  A2E 0000C430 ?RemoveDevice@CInput@@QAEHAAVCInputDevice@@@Z
       2608  A2F 0003A880 ?RemoveDummyEdgeReferences@CObjectPolygon@@QAEXXZ
       2609  A30 00116E20 ?RemoveDummyLayers@CBrushArchive@@QAEXXZ
       2610  A31 00123170 ?RemoveDummyLayers@CBrushShadowMap@@QAEXXZ
       2611  A32 0011B3E0 ?RemoveDummyPortals@CBrushMip@@QAEXH@Z
       2612  A33 00033110 ?RemoveEmptySectors@CObject3D@@QAEXXZ
       2613  A34 000B5060 ?RemoveEntityFromCollisionGrid@CWorld@@QAEXPAVCEntity@@ABV?$AABBox@M$02@@@Z
       2614  A35 00067590 ?RemoveFlag@CTerrain@@QAEXK@Z
       2615  A36 00082520 ?RemoveFromPendingList@CSoundLibrary@@QAEXAAVCSoundObject@@H@Z
       2616  A37 0003A6F0 ?RemoveMarkedEdges@CObjectPolygon@@QAEXJ@Z
       2617  A38 0013AA70 ?RemoveMeshLod@CMesh@@QAEXPAUMeshLOD@@@Z
       2618  A39 0013F750 ?RemovePassedAnimsFromQueue@CModelInstance@@QAEXXZ
       2619  A3A 00005F90 ?RemovePrefix@CTString@@QAEHABV1@@Z
       2620  A3B 0003A650 ?RemoveRedundantEdges@CObjectPolygon@@QAEXXZ
       2621  A3C 00150460 ?RemoveSkeletonLod@CSkeleton@@QAEXPAUSkeletonLOD@@@Z
       2622  A3D 00007272 ?RemoveSpecialCodes@@YA?AVCTString@@ABV1@@Z
       2623  A3E 0013EFD0 ?RemoveTexture@CModelInstance@@QAEXPAUTextureInstance@@PAUMeshInstance@@@Z
       2624  A3F 00107590 ?RenderGameView@CEntity@@UAEXPAVCDrawPort@@PAX@Z
       2625  A40 0004BA10 ?RenderLensFlare@CDrawPort@@QBEXPAVCTextureObject@@MMMMMK@Z
       2626  A41 000A1C30 ?RenderModel@CModelObject@@QAEXAAVCRenderModel@@@Z
       2627  A42 000A2680 ?RenderModel_Mask@CModelObject@@AAEXAAVCRenderModel@@@Z
       2628  A43 000A47C0 ?RenderModel_View@CModelObject@@AAEXAAVCRenderModel@@@Z
       2629  A44 00107410 ?RenderParticles@CEntity@@UAEXXZ
       2630  A45 000A8160 ?RenderPatches_View@CModelObject@@AAEXAAVCRenderModel@@@Z
       2631  A46 000A22C0 ?RenderShadow@CModelObject@@QAEXAAVCRenderModel@@ABVCPlacement3D@@MMMABV?$Plane@M$02@@@Z
       2632  A47 000A8340 ?RenderShadow_View@CModelObject@@AAEXAAVCRenderModel@@ABVCPlacement3D@@MMMABV?$Plane@M$02@@@Z
       2633  A48 00103220 ?RenderView@@YAXAAVCWorld@@AAVCEntity@@AAVCAnyProjection3D@@AAVCDrawPort@@@Z
       2634  A49 0011B2C0 ?Reoptimize@CBrushMip@@QAEXXZ
       2635  A4A 00006110 ?ReplaceSubstr@CTString@@QAEHABV1@0@Z
       2636  A4B 0000F980 ?Report@CProfileForm@@QAEXAAVCTString@@@Z
       2637  A4C 000EC5E0 ?ResendGameStreamBlocks@CServer@@QAEXJJJ@Z
       2638  A4D 0000F760 ?Reset@CProfileForm@@QAEXXZ
       2639  A4E 00003D30 ?ResetAnim@CAnimObject@@QAEXXZ
       2640  A4F 0009B4F0 ?ResetAttachmentModelPosition@CModelObject@@QAEXJ@Z
       2641  A50 0006BAF0 ?ResetDisplayMode@CGfxLibrary@@QAEHW4GfxAPIType@@@Z
       2642  A51 00073830 ?ResetHandles@CShader@@QAEXXZ
       2643  A52 000F0AE0 ?ResetRND@CSessionState@@QAEXXZ
       2644  A53 000892F0 ?ResetTimer@CSoundObject@@QAEXJ@Z
       2645  A54 0007E520 ?Resize@CViewPort@@QAEXXZ
       2646  A55 0000EF20 ?ResizeMemory@@YAXPAPAXJ@Z
       2647  A56 000F4150 ?RestoreOldLevel@CSessionState@@QAEXABVCTString@@@Z
       2648  A57 00088B10 ?Resume@CSoundObject@@QAEXXZ
       2649  A58 00017500 ?Return@CEntity@@QAEXJABVCEntityEvent@@@Z
       2650  A59 00110130 ?Return@CRationalEntity@@QAEXJABVCEntityEvent@@@Z
       2651  A5A 000E8D60 ?Rewind@CNetworkMessage@@QAEXXZ
       2652  A5B 000F0AD0 ?Rnd@CSessionState@@QAEKXZ
       2653  A5C 00044C70 ?Rotate@CMappingDefinition@@QAEXABVCMappingVectors@@ABV?$Vector@M$02@@M@Z
       2654  A5D 0003D0A0 ?Rotate_Airplane@CPlacement3D@@QAEXABV?$Vector@M$02@@@Z
       2655  A5E 0003D1D0 ?Rotate_HPB@CPlacement3D@@QAEXABV?$Vector@M$02@@@Z
       2656  A5F 0003CF70 ?Rotate_TrackBall@CPlacement3D@@QAEXABV?$Vector@M$02@@@Z
       2657  A60 000F4510 ?RunDemoTick@CSessionState@@QAEXXZ
       2658  A61 00163F60 ?SE_EndEngine@@YAXXZ
       2659  A62 00162900 ?SE_InitEngine@@YAXVCTString@@@Z
       2660  A63 00164290 ?SE_LoadDefaultFonts@@YAXXZ
       2661  A64 001643D0 ?SE_PretouchIfNeeded@@YAXXZ
       2662  A65 00164390 ?SE_UpdateWindowHandle@@YAXPAUHWND__@@@Z
       2663  A66 00025AD0 ?STAT_Report@@YAXAAVCTString@@@Z
       2664  A67 00025AC0 ?STAT_Reset@@YAXXZ
       2665  A68 0008BE60 ?SaveIncludeFile_t@CEditModel@@QAEXVCTFileName@@VCTString@@@Z
       2666  A69 000071F2 ?SaveIntVar@@YAXABVCTFileName@@AAJ@Z
       2667  A6A 00006A20 ?SaveKeepCRLF_t@CTString@@QAEXABVCTFileName@@@Z
       2668  A6B 00091B30 ?SaveMapping_t@CEditModel@@QAEXVCTFileName@@J@Z
       2669  A6C 000070E2 ?SaveStringVar@@YAXABVCTFileName@@AAVCTString@@@Z
       2670  A6D 0006F1F0 ?SaveTGA_t@CImageInfo@@QBEXABVCTFileName@@@Z
       2671  A6E 00007052 ?SaveVar@CTString@@QAEXABVCTFileName@@@Z
       2672  A6F 0008C680 ?Save_t@CEditModel@@QAEXVCTFileName@@@Z
       2673  A70 000D9450 ?Save_t@CNetworkLibrary@@QAEXABVCTFileName@@@Z
       2674  A71 00115A30 ?Save_t@CPlayerCharacter@@QAEXABVCTFileName@@@Z
       2675  A72 000205A0 ?Save_t@CSerial@@QAEXVCTFileName@@@Z
       2676  A73 000069B0 ?Save_t@CTString@@QAEXABVCTFileName@@@Z
       2677  A74 000BAAA0 ?Save_t@CWorld@@QAEXABVCTFileName@@@Z
       2678  A75 00006C00 ?ScanF@CTString@@QAAJPBDZZ
       2679  A76 00012870 ?ScreenBBoxL@CProjection3D@@QAEAAV?$AABBox@M$01@@XZ
       2680  A77 00012880 ?ScreenBBoxR@CProjection3D@@QBEABV?$AABBox@M$01@@XZ
       2681  A78 00028F10 ?Seek_t@CTStream@@QAEXJW4SeekDir@1@@Z
       2682  A79 00015110 ?Select@CBrushPolygon@@QAEXK@Z
       2683  A7A 00015520 ?Select@CBrushSector@@QAEXK@Z
       2684  A7B 00014810 ?Select@CBrushVertex@@QAEXK@Z
       2685  A7C 00017560 ?Select@CEntity@@QAEXK@Z
       2686  A7D 0011A940 ?SelectAllSectors@CBrushMip@@QAEXAAV?$CSelection@VCBrushSector@@$00@@@Z
       2687  A7E 0011A840 ?SelectAllSectors@CBrushMip@@QAEXAAV?$CSelection@VCBrushSector@@$03@@@Z
       2688  A7F 0011C520 ?SelectByColorInSector@CBrushPolygon@@QAEXAAV?$CSelection@VCBrushPolygon@@$0BAA@@@@Z
       2689  A80 0011C3D0 ?SelectByTextureInSector@CBrushPolygon@@QAEXAAV?$CSelection@VCBrushPolygon@@$0BAA@@@J@Z
       2690  A81 000AD6F0 ?SelectByTextureInSelectedSectors@CWorld@@QAEXVCTFileName@@AAV?$CSelection@VCBrushPolygon@@$0BAA@@@J@Z
       2691  A82 000AD8C0 ?SelectByTextureInWorld@CWorld@@QAEXVCTFileName@@AAV?$CSelection@VCBrushPolygon@@$0BAA@@@J@Z
       2692  A83 0011A730 ?SelectClosedSectors@CBrushMip@@QAEXAAV?$CSelection@VCBrushSector@@$03@@@Z
       2693  A84 00003A40 ?SelectFrameInTime@CAnimObject@@QAEXM@Z
       2694  A85 0011A620 ?SelectOpenSector@CBrushMip@@QAEXAAV?$CSelection@VCBrushSector@@$03@@@Z
       2695  A86 0011A4E0 ?SelectSectorsInRange@CBrushMip@@QAEXAAV?$CSelection@VCBrushSector@@$00@@V?$AABBox@M$02@@@Z
       2696  A87 0011A3A0 ?SelectSectorsInRange@CBrushMip@@QAEXAAV?$CSelection@VCBrushSector@@$03@@V?$AABBox@M$02@@@Z
       2697  A88 0011C1A0 ?SelectSimilarByColor@CBrushPolygon@@QAEXAAV?$CSelection@VCBrushPolygon@@$0BAA@@@@Z
       2698  A89 0011C2B0 ?SelectSimilarByTexture@CBrushPolygon@@QAEXAAV?$CSelection@VCBrushPolygon@@$0BAA@@@J@Z
       2699  A8A 000F6CC0 ?SendAcknowledge@CSessionState@@QAEXM@Z
       2700  A8B 000DC2C0 ?SendActionsToServer@CNetworkLibrary@@QAEXXZ
       2701  A8C 00168DA0 ?SendBlockEvent@CMovableEntity@@QAEXAAVCClipMove@@@Z
       2702  A8D 000E8680 ?SendBroadcast@CMessageDispatcher@@QAEXABVCNetworkMessage@@KG@Z
       2703  A8E 000DCA80 ?SendChat@CNetworkLibrary@@QAEXKKABVCTString@@@Z
       2704  A8F 000EF970 ?SendClientData@CServer@@QAEXJ@Z
       2705  A90 000EC030 ?SendDisconnectMessage@CServer@@QAEXJPBDH@Z
       2706  A91 0010AE10 ?SendEvent@CEntity@@QAEXABVCEntityEvent@@H@Z
       2707  A92 0010B6E0 ?SendEventInRange@CEntity@@QAEXABVCEntityEvent@@ABV?$AABBox@M$02@@@Z
       2708  A93 000ED560 ?SendGameStateData@CServer@@QAEXJ@Z
       2709  A94 000EC1F0 ?SendGameStreamBlocks@CServer@@QAEXJ@Z
       2710  A95 000F19C0 ?SendLevelChangeNotification@CSessionState@@QAEXAAVCEntityEvent@@@Z
       2711  A96 000EEE30 ?SendMessageA@CServer@@QAEXAAVCEntityMessage@@@Z
       2712  A97 000ED7B0 ?SendSessionStateData@CServer@@QAEXJ@Z
       2713  A98 000E8260 ?SendToClient@CMessageDispatcher@@QAEXJABVCNetworkMessage@@@Z
       2714  A99 000E82F0 ?SendToClientReliable@CMessageDispatcher@@QAEXJAAVCTMemoryStream@@@Z
       2715  A9A 000E82C0 ?SendToClientReliable@CMessageDispatcher@@QAEXJABVCNetworkMessage@@@Z
       2716  A9B 000E8360 ?SendToServer@CMessageDispatcher@@QAEXABVCNetworkMessage@@@Z
       2717  A9C 000E8390 ?SendToServerReliable@CMessageDispatcher@@QAEXABVCNetworkMessage@@@Z
       2718  A9D 00168C50 ?SendTouchEvent@CMovableEntity@@QAEXABVCClipMove@@@Z
       2719  A9E 000ECA00 ?ServerLoop@CServer@@QAEXXZ
       2720  A9F 000F0920 ?ServerNetProcess@CServer@@QAEXXZ
       2721  AA0 000DEA10 ?Server_ClearClient@CCommunicationInterface@@QAEXJ@Z
       2722  AA1 000DE990 ?Server_Close@CCommunicationInterface@@QAEXXZ
       2723  AA2 000DEAF0 ?Server_GetClientName@CCommunicationInterface@@QAE?AVCTString@@J@Z
       2724  AA3 000DEBF0 ?Server_GetClientPendingData@CCommunicationInterface@@QAEKJ@Z
       2725  AA4 000DEC60 ?Server_GetMaxPendingData@CCommunicationInterface@@QAEKXZ
       2726  AA5 000DECE0 ?Server_GetTotalPendingData@CCommunicationInterface@@QAEKXZ
       2727  AA6 000DE8D0 ?Server_Init_t@CCommunicationInterface@@QAEXXZ
       2728  AA7 000DEA80 ?Server_IsClientLocal@CCommunicationInterface@@QAEHJ@Z
       2729  AA8 000DEAB0 ?Server_IsClientUsed@CCommunicationInterface@@QAEHJ@Z
       2730  AA9 000DEDD0 ?Server_Receive_Reliable@CCommunicationInterface@@QAEHJPAXAAJ@Z
       2731  AAA 000DEED0 ?Server_Receive_Unreliable@CCommunicationInterface@@QAEHJPAXAAJ@Z
       2732  AAB 000DED50 ?Server_Send_Reliable@CCommunicationInterface@@QAEXJPBXJ@Z
       2733  AAC 000DEE50 ?Server_Send_Unreliable@CCommunicationInterface@@QAEXJPBXJ@Z
       2734  AAD 000DEF50 ?Server_Update@CCommunicationInterface@@QAEHXZ
       2735  AAE 000F47A0 ?SessionStateLoop@CSessionState@@QAEXXZ
       2736  AAF 0001AB40 ?Set3DParameters@CSoundObject@@QAEXMMMMH@Z
       2737  AB0 0011BB60 ?SetAbsolutePosition@CBrushVertex@@QAEXABV?$Vector@N$02@@@Z
       2738  AB1 000EAAE0 ?SetAction@CPlayerSource@@QAEXABVCPlayerAction@@@Z
       2739  AB2 00166730 ?SetActionApplied@CMovableEntity@@UAEXXZ
       2740  AB3 00003BD0 ?SetAnim@CAnimObject@@QAEXJ@Z
       2741  AB4 0004A570 ?SetAsCurrent@CDrawPort@@QAEXXZ
       2742  AB5 000748C0 ?SetAsCurrent@CShadowMap@@QAEXXZ
       2743  AB6 00077B60 ?SetAsCurrent@CTextureData@@QAEXJH@Z
       2744  AB7 000B59C0 ?SetAutoMipBrushingOn@CWorldRenderPrefs@@QAEXH@Z
       2745  AB8 000AD080 ?SetBackgroundColor@CWorld@@QAEXK@Z
       2746  AB9 000B5900 ?SetBackgroundTextureOn@CWorldRenderPrefs@@QAEXH@Z
       2747  ABA 000AD090 ?SetBackgroundViewer@CWorld@@QAEXPAVCEntity@@@Z
       2748  ABB 00049040 ?SetCharSpacing@CFontData@@QAEXJ@Z
       2749  ABC 00092690 ?SetCollisionBox@CEditModel@@QAEXV?$Vector@M$02@@0@Z
       2750  ABD 00092A70 ?SetCollisionBoxDimensionEquality@CEditModel@@QAEXJ@Z
       2751  ABE 00092810 ?SetCollisionBoxName@CEditModel@@QAEXVCTString@@@Z
       2752  ABF 00108620 ?SetCollisionFlags@CEntity@@QAEXK@Z
       2753  AC0 000995F0 ?SetColorName@CModelObject@@QAEXJAAVCTString@@@Z
       2754  AC1 00015580 ?SetContentType@CBrushSector@@QAEXJ@Z
       2755  AC2 0000CED0 ?SetControlNames@CInput@@QAEXXZ
       2756  AC3 0013E660 ?SetCurrentColisionBoxIndex@CModelInstance@@QAEXJ@Z
       2757  AC4 0002E3A0 ?SetCurrentTick@CTimer@@QAEXM@Z
       2758  AC5 0006BF20 ?SetCurrentViewport@CGfxLibrary@@QAEHPAVCViewPort@@@Z
       2759  AC6 00056A80 ?SetCurrentViewport_D3D@CGfxLibrary@@AAEHPAVCViewPort@@@Z
       2760  AC7 0005D400 ?SetCurrentViewport_OGL@CGfxLibrary@@AAEHPAVCViewPort@@@Z
       2761  AC8 00003B30 ?SetData@CAnimObject@@QAEXPAVCAnimData@@@Z
       2762  AC9 0009AD20 ?SetData@CModelObject@@QAEXPAVCModelData@@@Z
       2763  ACA 00003B70 ?SetData_t@CAnimObject@@QAEXABVCTFileName@@@Z
       2764  ACB 0009ACC0 ?SetData_t@CModelObject@@QAEXABVCTFileName@@@Z
       2765  ACC 00078CF0 ?SetData_t@CTextureObject@@QAEXABVCTFileName@@@Z
       2766  ACD 00113C00 ?SetDefaultProperties@CEntity@@UAEXXZ
       2767  ACE 00165910 ?SetDefaultProperties@CMovableBrushEntity@@UAEXXZ
       2768  ACF 00166390 ?SetDefaultProperties@CMovableEntity@@UAEXXZ
       2769  AD0 0016F090 ?SetDefaultProperties@CMovableModelEntity@@UAEXXZ
       2770  AD1 001719F0 ?SetDefaultProperties@CPlayerEntity@@UAEXXZ
       2771  AD2 000AD110 ?SetDescription@CWorld@@QAEXABVCTString@@@Z
       2772  AD3 00167260 ?SetDesiredRotation@CMovableEntity@@QAEXABV?$Vector@M$02@@@Z
       2773  AD4 00167320 ?SetDesiredTranslation@CMovableEntity@@QAEXABV?$Vector@M$02@@@Z
       2774  AD5 0006BA40 ?SetDisplayMode@CGfxLibrary@@QAEHW4GfxAPIType@@JJJW4DisplayDepth@@@Z
       2775  AD6 000B5A60 ?SetEdgesFillType@CWorldRenderPrefs@@QAEXW4FillType@1@@Z
       2776  AD7 000B5A80 ?SetEdgesInkColor@CWorldRenderPrefs@@QAEXK@Z
       2777  AD8 000B58C0 ?SetEditorModelsOn@CWorldRenderPrefs@@QAEXH@Z
       2778  AD9 000B5B80 ?SetEmptyBrushModel@CWorldRenderPrefs@@QAEXPAVCModelObject@@@Z
       2779  ADA 00081C20 ?SetEnvironment@CSoundLibrary@@QAEXW4SndEnvFX@@@Z
       2780  ADB 00015640 ?SetEnvironmentType@CBrushSector@@QAEXJ@Z
       2781  ADC 00008A60 ?SetErrorFatalErrorCallback@@YAXP6AXABVCTString@@@Z@Z
       2782  ADD 0000EF80 ?SetErrorInsufficientMemoryCallback@@YAXP6AXJ@Z@Z
       2783  ADE 0002D170 ?SetErrorReadingCallback@@YAXP6AXABVCTFileName@@@Z@Z
       2784  ADF 0002D180 ?SetErrorWritingCallback@@YAXP6AXABVCTFileName@@@Z@Z
       2785  AE0 00022650 ?SetFLOAT@CShell@@QAEXABVCTString@@M@Z
       2786  AE1 00031780 ?SetFPUPrecision@@YAXW4FPUPrecisionType@@@Z
       2787  AE2 000B58E0 ?SetFieldBrushesOn@CWorldRenderPrefs@@QAEXH@Z
       2788  AE3 0002B650 ?SetFileSize_t@CTFileStream@@QAEXJ@Z
       2789  AE4 00049060 ?SetFixedWidth@CFontData@@QAEXXZ
       2790  AE5 000175F0 ?SetFlagOff@CEntity@@QAEXK@Z
       2791  AE6 000175D0 ?SetFlagOn@CEntity@@QAEXK@Z
       2792  AE7 001085F0 ?SetFlags@CEntity@@QAEXK@Z
       2793  AE8 000675B0 ?SetFlags@CTerrain@@QAEXK@Z
       2794  AE9 000B5960 ?SetFogOn@CWorldRenderPrefs@@QAEXH@Z
       2795  AEA 000155E0 ?SetFogType@CBrushSector@@QAEXJ@Z
       2796  AEB 0004BC70 ?SetFont@CDrawPort@@QAEXPAVCFontData@@@Z
       2797  AEC 000155B0 ?SetForceType@CBrushSector@@QAEXJ@Z
       2798  AED 00081DD0 ?SetFormat@CSoundLibrary@@QAEXW4SoundFormat@1@H@Z
       2799  AEE 00081400 ?SetFormat_internal@CSoundLibrary@@AAEXW4SoundFormat@1@H@Z
       2800  AEF 00003520 ?SetFrame@CAnimData@@QAEXJJJ@Z
       2801  AF0 000026E0 ?SetFrames@CAnimData@@QAEXJJPAJ@Z
       2802  AF1 000DA1D0 ?SetGameFinished@CNetworkLibrary@@QAEXXZ
       2803  AF2 000B5980 ?SetHazeOn@CWorldRenderPrefs@@QAEXH@Z
       2804  AF3 00015610 ?SetHazeType@CBrushSector@@QAEXJ@Z
       2805  AF4 000178E0 ?SetHealth@CLiveEntity@@QAEXM@Z
       2806  AF5 00095330 ?SetHiddenLines@CModelRenderPrefs@@QAEXH@Z
       2807  AF6 000B5860 ?SetHiddenLinesOn@CWorldRenderPrefs@@QAEXH@Z
       2808  AF7 000226D0 ?SetINDEX@CShell@@QAEXABVCTString@@J@Z
       2809  AF8 00095410 ?SetInkColor@CModelRenderPrefs@@QAEXK@Z
       2810  AF9 0000B930 ?SetJoyPolling@CInput@@QAEXH@Z
       2811  AFA 001297F0 ?SetLayerParameters@CLightSource@@QAEXAAVCBrushShadowLayer@@AAVCBrushPolygon@@AAVCLightRectangle@@@Z
       2812  AFB 000B5B00 ?SetLensFlaresType@CWorldRenderPrefs@@QAEXW4LensFlaresType@1@@Z
       2813  AFC 0002E3D0 ?SetLerp2@CTimer@@QAEXM@Z
       2814  AFD 0002E3B0 ?SetLerp@CTimer@@QAEXM@Z
       2815  AFE 000F3470 ?SetLerpFactor@CSessionState@@QAEXVCTimerValue@@@Z
       2816  AFF 0012A610 ?SetLightSource@CLightSource@@QAEXABV1@@Z
       2817  B00 0012A5A0 ?SetLightSourceWithNoDiscarding@CLightSource@@QAEXABV1@@Z
       2818  B01 00049050 ?SetLineSpacing@CFontData@@QAEXJ@Z
       2819  B02 000DA190 ?SetLocalPause@CNetworkLibrary@@QAEXH@Z
       2820  B03 00049720 ?SetLogicalRectInLogical@CDrawPort@@QAEXABV?$AABBox@J$01@@@Z
       2821  B04 00049690 ?SetLogicalRectInPhysical@CDrawPort@@QAEXABV?$AABBox@J$01@@@Z
       2822  B05 000497B0 ?SetLogicalRectInRaster@CDrawPort@@QAEXABV?$AABBox@J$01@@@Z
       2823  B06 000B59D0 ?SetManualMipBrushingFactor@CWorldRenderPrefs@@QAEXM@Z
       2824  B07 00099530 ?SetManualMipLevel@CModelObject@@QAEXJ@Z
       2825  B08 000B5B20 ?SetMinimumRenderRange@CWorldRenderPrefs@@QAEXM@Z
       2826  B09 0011B550 ?SetMipDistance@CBrushMip@@QAEXM@Z
       2827  B0A 00099550 ?SetMipSwitchFactor@CModelObject@@QAEXJM@Z
       2828  B0B 000B59A0 ?SetMirrorsOn@CWorldRenderPrefs@@QAEXH@Z
       2829  B0C 0010BFD0 ?SetModel@CEntity@@QAEXABVCTFileName@@@Z
       2830  B0D 0010C0B0 ?SetModel@CEntity@@QAEXJ@Z
       2831  B0E 0010D5F0 ?SetModelAttachmentReflectionTexture@CEntity@@QAEXJJ@Z
       2832  B0F 0010D630 ?SetModelAttachmentSpecularTexture@CEntity@@QAEXJJ@Z
       2833  B10 0010C3E0 ?SetModelColor@CEntity@@QAEXK@Z
       2834  B11 0013FE40 ?SetModelColor@CModelInstance@@QAEXK@Z
       2835  B12 0010D300 ?SetModelMainTexture@CEntity@@QAEXABVCTFileName@@@Z
       2836  B13 0010D3C0 ?SetModelMainTexture@CEntity@@QAEXJ@Z
       2837  B14 0010D420 ?SetModelReflectionTexture@CEntity@@QAEXJ@Z
       2838  B15 0010D450 ?SetModelSpecularTexture@CEntity@@QAEXJ@Z
       2839  B16 000A0010 ?SetModelView@CRenderModel@@QAEXXZ
       2840  B17 0008D0C0 ?SetModel_t@CAttachedModel@@QAEXVCTFileName@@@Z
       2841  B18 000034B0 ?SetName@CAnimData@@QAEXJVCTString@@@Z
       2842  B19 0013FD40 ?SetName@CModelInstance@@QAEXABVCTString@@@Z
       2843  B1A 00115C90 ?SetName@CPlayerCharacter@@QAEXVCTString@@@Z
       2844  B1B 000AD150 ?SetName@CWorld@@QAEXABVCTString@@@Z
       2845  B1C 000DE300 ?SetNonBlocking_t@CCommunicationInterface@@QAEXXZ
       2846  B1D 0009FFE0 ?SetObjectPlacement@CRenderModel@@QAEXABV?$Vector@M$02@@ABV?$Matrix@M$02$02@@@Z
       2847  B1E 0009FFA0 ?SetObjectPlacement@CRenderModel@@QAEXABVCPlacement3D@@@Z
       2848  B1F 0013E8D0 ?SetOffset@CModelInstance@@QAEXQAM@Z
       2849  B20 0013EA80 ?SetOffsetPos@CModelInstance@@QAEXV?$Vector@M$02@@@Z
       2850  B21 0013EAA0 ?SetOffsetRot@CModelInstance@@QAEXV?$Vector@M$02@@@Z
       2851  B22 0004A0E0 ?SetOrtho@CDrawPort@@QBEXXZ
       2852  B23 0000B2A0 ?SetOverlappedRendering@CDrawPort@@QAEXH@Z
       2853  B24 0001AB30 ?SetOwner@CSoundObject@@QAEXPAVCEntity@@@Z
       2854  B25 00095430 ?SetPaperColor@CModelRenderPrefs@@QAEXK@Z
       2855  B26 00108640 ?SetParent@CEntity@@QAEXPAV1@@Z
       2856  B27 0013E8C0 ?SetParentBone@CModelInstance@@QAEXJ@Z
       2857  B28 000913B0 ?SetPatchStretch@CEditModel@@QAEXJM@Z
       2858  B29 000995E0 ?SetPatchesMask@CModelObject@@QAEXK@Z
       2859  B2A 00049580 ?SetPhysicalRectInLogical@CDrawPort@@QAEXABV?$AABBox@J$01@@@Z
       2860  B2B 000494F0 ?SetPhysicalRectInPhysical@CDrawPort@@QAEXABV?$AABBox@J$01@@@Z
       2861  B2C 00049610 ?SetPhysicalRectInRaster@CDrawPort@@QAEXABV?$AABBox@J$01@@@Z
       2862  B2D 00108600 ?SetPhysicsFlags@CEntity@@QAEXK@Z
       2863  B2E 000870F0 ?SetPitch@CSoundObject@@QAEXMH@Z
       2864  B2F 00107DE0 ?SetPlacement@CEntity@@QAEXABVCPlacement3D@@@Z
       2865  B30 001697C0 ?SetPlacementFromNextPosition@CMovableEntity@@QAEXXZ
       2866  B31 00108150 ?SetPlacement_special@CEntity@@UAEXABVCPlacement3D@@ABV?$Matrix@M$02$02@@K@Z
       2867  B32 000B5AA0 ?SetPolygonsFillType@CWorldRenderPrefs@@QAEXW4FillType@1@@Z
       2868  B33 000B5AC0 ?SetPolygonsInkColor@CWorldRenderPrefs@@QAEXK@Z
       2869  B34 00028FE0 ?SetPos_t@CTStream@@QAEXJ@Z
       2870  B35 00018E00 ?SetProgressDescription@@YAXABVCTString@@@Z
       2871  B36 00019100 ?SetProgressFile@@YAXABVCTFileName@@@Z
       2872  B37 00018DF0 ?SetProgressHook@@YAXP6AXPAVCProgressHookInfo@@@Z@Z
       2873  B38 0004A1F0 ?SetProjection@CDrawPort@@QBEXAAVCAnyProjection3D@@@Z
       2874  B39 00004FA0 ?SetPutTextCallback@@YAXP6AXVCTString@@@Z@Z
       2875  B3A 00087190 ?SetRange@CSoundObject@@QAEXMMH@Z
       2876  B3B 000DA2A0 ?SetRealTimeFactor@CNetworkLibrary@@QAEXM@Z
       2877  B3C 0002E380 ?SetRealTimeTick@CTimer@@QAEXM@Z
       2878  B3D 00166760 ?SetReapplyingActions@CMovableEntity@@UAEXXZ
       2879  B3E 000952B0 ?SetRenderType@CModelRenderPrefs@@QAEXK@Z
       2880  B3F 00096120 ?SetRenderingParameters@MappingSurface@@QAEXK@Z
       2881  B40 000B5B40 ?SetSelectedEntityModel@CWorldRenderPrefs@@QAEXPAVCModelObject@@@Z
       2882  B41 000B5B60 ?SetSelectedPortalModel@CWorldRenderPrefs@@QAEXPAVCModelObject@@@Z
       2883  B42 000B5BA0 ?SetSelectionType@CWorldRenderPrefs@@QAEXW4SelectionType@1@@Z
       2884  B43 000952E0 ?SetShadingType@CModelRenderPrefs@@QAEXK@Z
       2885  B44 00095370 ?SetShadowQuality@CModelRenderPrefs@@QAEXJ@Z
       2886  B45 000B5AE0 ?SetShadowsType@CWorldRenderPrefs@@QAEXW4ShadowsType@1@@Z
       2887  B46 000B58A0 ?SetShowEntityNamesOn@CWorldRenderPrefs@@QAEXH@Z
       2888  B47 000B5880 ?SetShowTargetsOn@CWorldRenderPrefs@@QAEXH@Z
       2889  B48 0010C0F0 ?SetSkaColisionInfo@CEntity@@QAEXXZ
       2890  B49 0010C280 ?SetSkaModel@CEntity@@QAEHABVCTString@@@Z
       2891  B4A 0010C370 ?SetSkaModel@CEntity@@QAEXJ@Z
       2892  B4B 0010C1E0 ?SetSkaModel_t@CEntity@@QAEXABVCTString@@@Z
       2893  B4C 00049080 ?SetSpaceWidth@CFontData@@QAEXM@Z
       2894  B4D 00017650 ?SetSpawnFlags@CEntity@@QAEXK@Z
       2895  B4E 000AD190 ?SetSpawnFlags@CWorld@@QAEXK@Z
       2896  B4F 000034E0 ?SetSpeed@CAnimData@@QAEXJM@Z
       2897  B50 00022770 ?SetString@CShell@@QAEXABVCTString@@0@Z
       2898  B51 000996C0 ?SetSurfaceColor@CModelObject@@QAEXJJK@Z
       2899  B52 00099780 ?SetSurfaceRenderFlags@CModelObject@@QAEXJJW4SurfaceShadingType@@W4SurfaceTranslucencyType@@K@Z
       2900  B53 00115DA0 ?SetTeam@CPlayerCharacter@@QAEXVCTString@@@Z
       2901  B54 0000B310 ?SetTextAspect@CDrawPort@@QAEXM@Z
       2902  B55 0000B330 ?SetTextBlendingType@CDrawPort@@QAEXK@Z
       2903  B56 0000B2E0 ?SetTextCharSpacing@CDrawPort@@QAEXJ@Z
       2904  B57 0000B340 ?SetTextFlags@CDrawPort@@QAEXK@Z
       2905  B58 0000B2F0 ?SetTextLineSpacing@CDrawPort@@QAEXJ@Z
       2906  B59 0000B350 ?SetTextMode@CDrawPort@@QAEXJ@Z
       2907  B5A 0000B300 ?SetTextScaling@CDrawPort@@QAEXM@Z
       2908  B5B 0000B320 ?SetTextShadow@CDrawPort@@QAEXM@Z
       2909  B5C 0009ABF0 ?SetTextureData@CModelObject@@QAEXPAVCTextureData@@@Z
       2910  B5D 000B5A00 ?SetTextureLayerOn@CWorldRenderPrefs@@QAEXHJ@Z
       2911  B5E 000952C0 ?SetTextureType@CModelRenderPrefs@@QAEXK@Z
       2912  B5F 00017520 ?SetTimerAfter@CEntity@@QAEXM@Z
       2913  B60 0010FF60 ?SetTimerAfter@CRationalEntity@@QAEXM@Z
       2914  B61 00017510 ?SetTimerAt@CEntity@@QAEXM@Z
       2915  B62 0010FEE0 ?SetTimerAt@CRationalEntity@@QAEXM@Z
       2916  B63 000228C0 ?SetValue@CShell@@QAEXABVCTString@@0@Z
       2917  B64 00049070 ?SetVariableWidth@CFontData@@QAEXXZ
       2918  B65 000B5A20 ?SetVerticesFillType@CWorldRenderPrefs@@QAEXW4FillType@1@@Z
       2919  B66 000B5A40 ?SetVerticesInkColor@CWorldRenderPrefs@@QAEXK@Z
       2920  B67 000B5920 ?SetVisTweaksOn@CWorldRenderPrefs@@QAEXH@Z
       2921  B68 00087020 ?SetVolume@CSoundObject@@QAEXMH@Z
       2922  B69 00171A70 ?SetWeaponAndAnimator@CPlayerEntity@@UAEXXZ
       2923  B6A 00095300 ?SetWire@CModelRenderPrefs@@QAEXH@Z
       2924  B6B 000A13A0 ?SetupModelRendering@CModelObject@@QAEXAAVCRenderModel@@@Z
       2925  B6C 00059D20 ?SetupPixelFormat_OGL@CGfxLibrary@@AAEHPAUHDC__@@H@Z
       2926  B6D 000AD5B0 ?ShowAllEntities@CWorld@@QAEXXZ
       2927  B6E 000AD680 ?ShowAllSectors@CWorld@@QAEXXZ
       2928  B6F 0009AB50 ?ShowPatch@CModelObject@@QAEXJ@Z
       2929  B70 000E8F80 ?Shrink@CNetworkMessage@@QAEXXZ
       2930  B71 0000EF60 ?ShrinkMemory@@YAXPAPAXJ@Z
       2931  B72 00080610 ?ShutDown_dsound@CSoundLibrary@@AAEXXZ
       2932  B73 000806E0 ?ShutDown_waveout@CSoundLibrary@@AAEXXZ
       2933  B74 000318F0 ?Sin@@YAMM@Z
       2934  B75 00002270 ?SinFast@@YAMM@Z
       2935  B76 0001EC10 ?SkipModelInstance_t@@YAXAAVCTStream@@@Z
       2936  B77 00031880 ?Snap@@YAXAAMM@Z
       2937  B78 000318B0 ?Snap@@YAXAANN@Z
       2938  B79 0000EC10 ?Sort@CListHead@@QAEXP6AHPBX0@ZH@Z
       2939  B7A 0014FEB0 ?SortSkeleton@CSkeleton@@QAEXXZ
       2940  B7B 0014FFB0 ?SortSkeletonRecursive@CSkeleton@@QAEXJJ@Z
       2941  B7C 00006C12 ?Split@CTString@@QAEXJAAV1@0@Z
       2942  B7D 000B6590 ?SplitOneSector@CWorld@@QAEXAAVCBrushSector@@AAVCObject3D@@@Z
       2943  B7E 000B6E60 ?SplitPolygons@CWorld@@QAEXAAVCEntity@@AAV?$CSelection@VCBrushPolygon@@$0BAA@@@AAV1@0ABVCPlacement3D@@@Z
       2944  B7F 000B6740 ?SplitSectors@CWorld@@QAEXAAVCEntity@@AAV?$CSelection@VCBrushSector@@$00@@AAV1@0ABVCPlacement3D@@@Z
       2945  B80 00137950 ?SplitSurfaces@CMesh@@QAEXAAUMeshLOD@@@Z
       2946  B81 0011B510 ?SpreadFurtherMips@CBrushMip@@QAEXXZ
       2947  B82 00095CA0 ?SpreadMipSwitchFactors@CModelData@@QAEXJM@Z
       2948  B83 00003C10 ?StartAnim@CAnimObject@@QAEXJ@Z
       2949  B84 000D9B70 ?StartDemoPlay_t@CNetworkLibrary@@QAEXABVCTFileName@@@Z
       2950  B85 000D9EB0 ?StartDemoRec_t@CNetworkLibrary@@QAEXABVCTFileName@@@Z
       2951  B86 0006BB60 ?StartDisplayMode@CGfxLibrary@@AAEHW4GfxAPIType@@JJJW4DisplayDepth@@@Z
       2952  B87 0010C420 ?StartModelAnim@CEntity@@QAEXJKH@Z
       2953  B88 0010D400 ?StartModelMainTextureAnim@CEntity@@QAEXJ@Z
       2954  B89 000EEE90 ?StartNewTick@CServer@@QAEXM@Z
       2955  B8A 000D8FE0 ?StartPeerToPeer_t@CNetworkLibrary@@QAEXABVCTString@@ABVCTFileName@@KJHPAX@Z
       2956  B8B 000192F0 ?StartProgress@@YAXXZ
       2957  B8C 000E81E0 ?StartProvider_t@CMessageDispatcher@@QAEXABVCNetworkProvider@@@Z
       2958  B8D 00080960 ?StartUp_dsound@CSoundLibrary@@AAEHH@Z
       2959  B8E 00080F10 ?StartUp_waveout@CSoundLibrary@@AAEHH@Z
       2960  B8F 000F12D0 ?Start_AtClient_t@CSessionState@@QAEXJ@Z
       2961  B90 000F1060 ?Start_AtServer_t@CSessionState@@QAEXXZ
       2962  B91 000EA660 ?Start_t@CPlayerSource@@QAEXAAVCPlayerCharacter@@@Z
       2963  B92 000EBF30 ?Start_t@CServer@@QAEXXZ
       2964  B93 000F0E40 ?Start_t@CSessionState@@QAEXJ@Z
       2965  B94 00075170 ?Stereo_AdjustProjection@@YAXAAVCProjection3D@@JM@Z
       2966  B95 000750E0 ?Stereo_IsEnabled@@YAHXZ
       2967  B96 000750F0 ?Stereo_SetBuffer@@YAXJ@Z
       2968  B97 000EA9E0 ?Stop@CPlayerSource@@QAEXXZ
       2969  B98 000EBD70 ?Stop@CServer@@QAEXXZ
       2970  B99 000F0CC0 ?Stop@CSessionState@@QAEXXZ
       2971  B9A 00087450 ?Stop@CSoundObject@@QAEXH@Z
       2972  B9B 0013FAC0 ?StopAllAnimations@CModelInstance@@QAEXM@Z
       2973  B9C 000D9FC0 ?StopDemoRec@CNetworkLibrary@@QAEXXZ
       2974  B9D 0006BD50 ?StopDisplayMode@CGfxLibrary@@AAEXXZ
       2975  B9E 000DA330 ?StopGame@CNetworkLibrary@@QAEXXZ
       2976  B9F 000F08F0 ?StopNetProcess@CServer@@QAEXXZ
       2977  BA0 000193C0 ?StopProgress@@YAXXZ
       2978  BA1 000E8250 ?StopProvider@CMessageDispatcher@@QAEXXZ
       2979  BA2 000874D0 ?Stop_internal@CSoundObject@@QAEXH@Z
       2980  BA3 00022A40 ?StorePersistentSymbols@CShell@@QAEXABVCTFileName@@@Z
       2981  BA4 0010CA80 ?StretchModel@CEntity@@QAEXAAV?$Vector@M$02@@J@Z
       2982  BA5 0013ED30 ?StretchModel@CModelInstance@@QAEXAAV?$Vector@M$02@@@Z
       2983  BA6 0009B5A0 ?StretchModel@CModelObject@@QAEXABV?$Vector@M$02@@@Z
       2984  BA7 0009B5E0 ?StretchModelRelative@CModelObject@@QAEXABV?$Vector@M$02@@@Z
       2985  BA8 0010CB60 ?StretchSingleModel@CEntity@@QAEXAAV?$Vector@M$02@@J@Z
       2986  BA9 0013ED50 ?StretchSingleModel@CModelInstance@@QAEXAAV?$Vector@M$02@@@Z
       2987  BAA 0009B640 ?StretchSingleModel@CModelObject@@QAEXABV?$Vector@M$02@@@Z
       2988  BAB 00005CD0 ?StringDuplicate@@YAPADPBD@Z
       2989  BAC 00005D10 ?StringDuplicate@@YAPADPBG@Z
       2990  BAD 00005C20 ?StringFree@@YAXPAD@Z
       2991  BAE 000DDB60 ?StringToAddress@@YAKABVCTString@@@Z
       2992  BAF 00120490 ?SubdivideTriangles@CBrushSector@@QAEXAAV?$CSelection@VCBrushPolygon@@$0BAA@@@@Z
       2993  BB0 00001530 ?Succ@CListNode@@QBEAAV1@XZ
       2994  BB1 0009AB00 ?SurfacesCt@CModelObject@@QAEJJ@Z
       2995  BB2 0006C260 ?SwapBuffers@CGfxLibrary@@QAEXPAVCViewPort@@H@Z
       2996  BB3 0007E5D0 ?SwapBuffers@CViewPort@@QAEXH@Z
       2997  BB4 00003D00 ?SwitchToAnim@CAnimObject@@QAEXJ@Z
       2998  BB5 0010BFA0 ?SwitchToEditorModel@CEntity@@QAEXXZ
       2999  BB6 0010BF70 ?SwitchToModel@CEntity@@QAEXXZ
       3000  BB7 001166D0 ?SwitchToNonZoning@CBrush3D@@QAEXXZ
       3001  BB8 00116760 ?SwitchToZoning@CBrush3D@@QAEXXZ
       3002  BB9 00003840 ?Synchronize@CAnimObject@@QAEXAAV1@@Z
       3003  BBA 001401B0 ?Synchronize@CModelInstance@@QAEXAAV1@@Z
       3004  BBB 00098F00 ?Synchronize@CModelObject@@QAEXAAV1@@Z
       3005  BBC 00154420 ?TRE_FreeBufferForEditing@@YAXPAG@Z
       3006  BBD 00153EF0 ?TRE_GetBufferForEditing@@YAPAGPAVCTerrain@@VCTRect@@W4BufferType@@J@Z
       3007  BBE 00154140 ?TRE_SetBufferForEditing@@YAXPAVCTerrain@@PAGVCTRect@@W4BufferType@@J@Z
       3008  BBF 00153E70 ?TRE_ShowSelection@@YAXPBVCTerrain@@AAVCTRect@@PAVCTextureData@@KMW4SelectionFill@@W4BufferType@@@Z
       3009  BC0 00158270 ?TRL_ApplyLayerMatrix@@YAXPAVCTerrain@@J@Z
       3010  BC1 00157C40 ?TRL_CreateLayer_t@@YAJPAVCTerrain@@ABVCTFileName@@@Z
       3011  BC2 00157DD0 ?TRL_DeleteLayer@@YAXPAVCTerrain@@JH@Z
       3012  BC3 00158680 ?TRL_ExportLayerMask_t@@YAXPAVCTerrain@@JABVCTFileName@@@Z
       3013  BC4 00158670 ?TRL_ExportLayerMask_t@@YAXPAVCTerrain@@PAVCTerrainLayer@@ABVCTFileName@@@Z
       3014  BC5 00158210 ?TRL_FillLayerData@@YAXPAVCTerrain@@JE@Z
       3015  BC6 00158170 ?TRL_GetLayerTexture_t@@YAPAVCTextureData@@PAVCTerrain@@J@Z
       3016  BC7 00158690 ?TRL_GetLayerThumbnail@@YAPAVCTextureData@@PAVCTerrain@@JJJ@Z
       3017  BC8 00158640 ?TRL_ImportLayerMask_t@@YAXPAVCTerrain@@JABVCTFileName@@@Z
       3018  BC9 00158520 ?TRL_ImportLayerMask_t@@YAXPAVCTerrain@@PAVCTerrainLayer@@ABVCTFileName@@@Z
       3019  BCA 00158720 ?TRL_ReadLayerData_t@@YAXPAVCTerrain@@JPAVCTStream@@@Z
       3020  BCB 00157F40 ?TRL_SetLayerIndex@@YAJPAVCTerrain@@JJ@Z
       3021  BCC 00158140 ?TRL_SetLayerTexture_t@@YAXPAVCTerrain@@JABVCTFileName@@@Z
       3022  BCD 001580F0 ?TRL_SetLayerTexture_t@@YAXPAVCTerrain@@PAVCTerrainLayer@@ABVCTFileName@@@Z
       3023  BCE 00158A90 ?TRL_WriteLayerData_t@@YAXPAVCTerrain@@JPAVCTStream@@@Z
       3024  BCF 001606A0 ?TRS_AddDirectionalLight@@YAXKKVCPlacement3D@@@Z
       3025  BD0 00160630 ?TRS_AddPointLight@@YAXMMKVCPlacement3D@@@Z
       3026  BD1 00162150 ?TRS_BeginShadowMapUpdate@@YAXPAVCTerrain@@@Z
       3027  BD2 00160700 ?TRS_ColectLightsFromWorld@@YAXPAVCTerrain@@@Z
       3028  BD3 00162160 ?TRS_EndShadowMapUpdate@@YAXPAVCTerrain@@@Z
       3029  BD4 001620D0 ?TRS_SetTerrainPlacement@@YAXAAY0M@$$CBM@Z
       3030  BD5 00162060 ?TRS_SetTerrainPlacement@@YAXABVCPlacement3D@@@Z
       3031  BD6 00160800 ?TRS_UpdateShadowMap@@YAXPAVCTerrain@@V?$AABBox@M$02@@@Z
       3032  BD7 0015BC80 ?TR_AddTerrainViewer@@YAXPBVCTerrain@@V?$Vector@M$02@@M@Z
       3033  BD8 0015B810 ?TR_AreHardwareShadersAvailable@@YAHXZ
       3034  BD9 0015B8C0 ?TR_BeginRenderingView@@YAXAAVCAnyProjection3D@@PAVCDrawPort@@@Z
       3035  BDA 00152DA0 ?TR_BindTerrainTextures@@YAXPAVCTerrain@@@Z
       3036  BDB 00159500 ?TR_CalcShadingTC@@YA?AV?$Vector@M$01@@PBVCTerrain@@ABV?$Vector@M$02@@AAY0M@$$CBM@Z
       3037  BDC 0015FAE0 ?TR_CleanRender@@YAXPAVCTerrain@@@Z
       3038  BDD 00156B20 ?TR_ClearTerrain@@YAXPAVCTerrain@@@Z
       3039  BDE 00152BE0 ?TR_CopyTerrain@@YAXPAVCTerrain@@PBV1@@Z
       3040  BDF 00152850 ?TR_DiscardShadingInfos@@YAXPAVCTerrain@@@Z
       3041  BE0 0015BB40 ?TR_EndRenderingView@@YAXXZ
       3042  BE1 00157050 ?TR_ExportEdgeMap_t@@YAXPAVCTerrain@@ABVCTFileName@@@Z
       3043  BE2 00156E70 ?TR_ExportHeightMap_t@@YAXPAVCTerrain@@ABVCTFileName@@H@Z
       3044  BE3 00158F80 ?TR_ExtractPoligonsInRect@@YAXPBVCTerrain@@ABVCTRect@@PAPAV?$Vector@M$02@@AAJPAPAG3@Z
       3045  BE4 00159330 ?TR_ExtractPolygonsInBox@@YAXPBVCTerrain@@ABV?$AABBox@M$02@@AAY0M@$$CBMPAPAV?$Vector@M$02@@AAJPAPAG4@Z
       3046  BE5 001528D0 ?TR_FillEdgeMap@@YAXPAVCTerrain@@E@Z
       3047  BE6 00152890 ?TR_FillHeightMap@@YAXPAVCTerrain@@G@Z
       3048  BE7 0015BD00 ?TR_ForceCustomTileLOD@@YAXJ@Z
       3049  BE8 00153610 ?TR_GetHeightMapHeight@@YAJPBVCTerrain@@@Z
       3050  BE9 00153600 ?TR_GetHeightMapWidth@@YAJPBVCTerrain@@@Z
       3051  BEA 00159960 ?TR_GetMatrixFromEntity@@YAXAAY0M@MPBVCTerrain@@@Z
       3052  BEB 00152FA0 ?TR_GetPlaneFromPoint@@YA?AV?$Plane@M$02@@PBVCTerrain@@AAY0M@$$CBMABV?$Vector@M$02@@@Z
       3053  BEC 00159610 ?TR_GetShadeColor@@YAKPBVCTerrain@@PAVCShadingInfo@@@Z
       3054  BED 00152ED0 ?TR_GetShadingMapAspect@@YAJPBVCTerrain@@@Z
       3055  BEE 00152EC0 ?TR_GetShadowMapAspect@@YAJPBVCTerrain@@@Z
       3056  BEF 00153680 ?TR_GetStretchedTerrainBBox@@YA?AV?$AABBox@M$02@@PBVCTerrain@@@Z
       3057  BF0 00153650 ?TR_GetTerrainBBox@@YA?AV?$AABBox@M$02@@PBVCTerrain@@@Z
       3058  BF1 001599C0 ?TR_GetTerrainInfo@@YA?AVCTString@@PBVCTerrain@@@Z
       3059  BF2 00152F70 ?TR_GetTerrainSize@@YA?AV?$Vector@M$02@@PBVCTerrain@@@Z
       3060  BF3 00153620 ?TR_GetTerrainStretch@@YA?AV?$Vector@M$02@@PBVCTerrain@@@Z
       3061  BF4 00156F80 ?TR_ImportEdgeMap_t@@YAXPAVCTerrain@@ABVCTFileName@@@Z
       3062  BF5 00156D10 ?TR_ImportHeightMap_t@@YAXPAVCTerrain@@ABVCTFileName@@H@Z
       3063  BF6 00153770 ?TR_IsTerrainBelowPoint@@YAHPBVCTerrain@@ABV?$Vector@M$02@@M1@Z
       3064  BF7 00156390 ?TR_RegenerateAll@@YAXPAVCTerrain@@@Z
       3065  BF8 00159400 ?TR_RelFromAbsPoint@@YA?AV?$Vector@J$01@@PBVCTerrain@@ABV?$Vector@M$02@@AAY0M@$$CBM@Z
       3066  BF9 0015BD10 ?TR_RenderTerrain@@YAXPAVCTerrain@@@Z
       3067  BFA 0015FA80 ?TR_RenderWireFrame@@YAXPAVCTerrain@@K@Z
       3068  BFB 0015BC70 ?TR_SetCurrentDistance@@YAXM@Z
       3069  BFC 00152EE0 ?TR_SetDistanceFactor@@YAXPAVCTerrain@@M@Z
       3070  BFD 00156BC0 ?TR_SetHeightMapSize@@YAXPAVCTerrain@@JJ@Z
       3071  BFE 00156C70 ?TR_SetShadowMapSize@@YAXPAVCTerrain@@JJ@Z
       3072  BFF 0015BBF0 ?TR_SetTerrainPlacement@@YAXABV?$Matrix@M$02$02@@ABV?$Vector@M$02@@@Z
       3073  C00 0015BB60 ?TR_SetTerrainPlacement@@YAXABVCPlacement3D@@@Z
       3074  C01 00152F00 ?TR_SetTerrainSize@@YAXPAVCTerrain@@V?$Vector@M$02@@@Z
       3075  C02 00159CB0 ?TR_TestRayCastHit@@YAMPAVCTerrain@@ABV?$Matrix@M$02$02@@ABV?$Vector@M$02@@V3@3MH@Z
       3076  C03 0015B0B0 ?TR_TestRayCastHit@@YAMPAVCTerrain@@ABV?$Matrix@M$02$02@@ABV?$Vector@M$02@@V3@3MHAAV?$Plane@M$02@@AAV3@@Z
       3077  C04 00152E00 ?TR_UnbindTerrainTextures@@YAXPAVCTerrain@@@Z
       3078  C05 001527F0 ?TR_UpdateShadowMap@@YAXPAVCTerrain@@AAY0M@$$CBMV?$AABBox@M$02@@H@Z
       3079  C06 00001600 ?Tail@CListHead@@QBEAAVCListNode@@XZ
       3080  C07 000319D0 ?Tan@@YAMM@Z
       3081  C08 000022B0 ?TanFast@@YAMM@Z
       3082  C09 00107910 ?Teleport@CEntity@@QAEXABVCPlacement3D@@H@Z
       3083  C0A 0010E250 ?TerrainChangeNotify@CEntity@@QAEXXZ
       3084  C0B 0003E360 ?TestBoxToFrustum@CIsometricProjection3D@@UBEJABV?$OBBox@M@@@Z
       3085  C0C 0003FA40 ?TestBoxToFrustum@CParallelProjection3D@@UBEJABV?$OBBox@M@@@Z
       3086  C0D 000417B0 ?TestBoxToFrustum@CPerspectiveProjection3D@@UBEJABV?$OBBox@M@@@Z
       3087  C0E 000426F0 ?TestBoxToFrustum@CSimpleProjection3D@@UBEJABV?$OBBox@M@@@Z
       3088  C0F 00168880 ?TestBreathing@CMovableEntity@@QAEXAAVCContentType@@@Z
       3089  C10 000BEF40 ?TestBrushSector@CCastRay@@QAEXPAVCBrushSector@@@Z
       3090  C11 001689D0 ?TestContentDamage@CMovableEntity@@QAEXAAVCContentType@@M@Z
       3091  C12 0005A4D0 ?TestExtension_OGL@CGfxLibrary@@AAEXKPBD@Z
       3092  C13 00167F40 ?TestFields@CMovableEntity@@QAEXAAJ0AAM@Z
       3093  C14 000BE860 ?TestModel@CCastRay@@QAEXPAVCEntity@@@Z
       3094  C15 000BE240 ?TestModelCollisionBox@CCastRay@@QAEXPAVCEntity@@@Z
       3095  C16 000BE590 ?TestModelFull@CCastRay@@QAEXPAVCEntity@@AAVCModelObject@@@Z
       3096  C17 000BDFA0 ?TestModelSimple@CCastRay@@QAEXPAVCEntity@@AAVCModelObject@@@Z
       3097  C18 000BE8D0 ?TestSkaModel@CCastRay@@QAEXPAVCEntity@@@Z
       3098  C19 000BEBD0 ?TestSkaModelFull@CCastRay@@QAEXPAVCEntity@@AAVCModelInstance@@@Z
       3099  C1A 000BE930 ?TestSkaModelSimple@CCastRay@@QAEXPAVCEntity@@AAVCModelInstance@@@Z
       3100  C1B 0003E1F0 ?TestSphereToFrustum@CIsometricProjection3D@@UBEJABV?$Vector@M$02@@M@Z
       3101  C1C 0003F8A0 ?TestSphereToFrustum@CParallelProjection3D@@UBEJABV?$Vector@M$02@@M@Z
       3102  C1D 00041610 ?TestSphereToFrustum@CPerspectiveProjection3D@@UBEJABV?$Vector@M$02@@M@Z
       3103  C1E 000426E0 ?TestSphereToFrustum@CSimpleProjection3D@@UBEJABV?$Vector@M$02@@M@Z
       3104  C1F 00168B60 ?TestSurfaceDamage@CMovableEntity@@QAEXAAVCSurfaceType@@@Z
       3105  C20 000BEE90 ?TestTerrain@CCastRay@@QAEXPAVCEntity@@@Z
       3106  C21 000BF8F0 ?TestThroughSectors@CCastRay@@QAEXXZ
       3107  C22 000BF730 ?TestWholeWorld@CCastRay@@QAEXPAVCWorld@@@Z
       3108  C23 000088D0 ?ThrowF_t@@YAXPADZZ
       3109  C24 00028EA0 ?Throw_t@CTStream@@QAAXPADZZ
       3110  C25 000066D0 ?Throw_t@CTString@@QAEXXZ
       3111  C26 001B8C48 ?TickQuantum@CTimer@@2MB
       3112  C27 0002E3F0 ?TimeToString@@YA?AVCTString@@M@Z
       3113  C28 00006630 ?ToLower@CTString@@QAEXXZ
       3114  C29 00044370 ?ToMappingVectors@CMappingDefinition@@QBEXABVCMappingVectors@@AAV2@@Z
       3115  C2A 00117F30 ?ToObject3D@CBrushMip@@QAEXAAVCObject3D@@AAV?$CSelection@VCBrushSector@@$00@@@Z
       3116  C2B 00118010 ?ToObject3D@CBrushMip@@QAEXAAVCObject3D@@AAV?$CSelection@VCBrushSector@@$03@@@Z
       3117  C2C 00118120 ?ToObjectSector@CBrushSector@@QAEXAAVCObjectSector@@@Z
       3118  C2D 00043BB0 ?ToPlane@CMappingVectors@@QBEXAAV?$Plane@M$02@@@Z
       3119  C2E 00043C70 ?ToUI@CMappingDefinition@@QBEXAAVCMappingDefinitionUI@@@Z
       3120  C2F 000065E0 ?ToUpper@CTString@@QAEXXZ
       3121  C30 000DA090 ?TogglePause@CNetworkLibrary@@QAEXXZ
       3122  C31 0011D090 ?TouchesInAnySector@CBrushEdge@@QAEHAAV1@@Z
       3123  C32 0011D480 ?TouchesInAnySector@CBrushPolygon@@QAEHAAV1@@Z
       3124  C33 0011CD20 ?TouchesInSameSector@CBrushEdge@@QAEHAAV1@@Z
       3125  C34 0011D500 ?TouchesInSameSector@CBrushPolygon@@QAEHAAV1@@Z
       3126  C35 00114960 ?TouchingEntity@CEntity@@QAEPAV1@P6AHPAV1@@Z0@Z
       3127  C36 00044E50 ?Transform@CMappingDefinition@@QAEXABV?$Plane@M$02@@ABVCPlacement3D@@1@Z
       3128  C37 000440C0 ?TransformMappingVectors@CMappingDefinition@@QBEXABVCMappingVectors@@AAV2@@Z
       3129  C38 0002ED30 ?Translate@@YAPADPADJ@Z
       3130  C39 00044B60 ?Translate@CMappingDefinition@@QAEXABVCMappingVectors@@ABV?$Vector@M$02@@@Z
       3131  C3A 0002ED50 ?TranslateConst@@YAPBDPBDJ@Z
       3132  C3B 0003D280 ?Translate_AbsoluteSystem@CPlacement3D@@QAEXABV?$Vector@M$02@@@Z
       3133  C3C 0003D200 ?Translate_OwnSystem@CPlacement3D@@QAEXABV?$Vector@M$02@@@Z
       3134  C3D 0011FBD0 ?TriangularizeForVertices@CBrushSector@@QAEXAAV?$CSelection@VCBrushVertex@@$01@@@Z
       3135  C3E 000AE0F0 ?TriangularizeForVertices@CWorld@@QAEXAAV?$CSelection@VCBrushVertex@@$01@@@Z
       3136  C3F 0011FC70 ?TriangularizeMarkedPolygons@CBrushSector@@QAEXXZ
       3137  C40 0011FB90 ?TriangularizePolygon@CBrushSector@@QAEXPAVCBrushPolygon@@@Z
       3138  C41 000AE290 ?TriangularizePolygons@CWorld@@QAEXAAV?$CDynamicContainer@VCBrushPolygon@@@@@Z
       3139  C42 00125000 ?Triangulate@CBrushPolygon@@QAEXXZ
       3140  C43 0011F770 ?Triangulate@CBrushSector@@QAEXXZ
       3141  C44 00006230 ?TrimLeft@CTString@@QAEJJ@Z
       3142  C45 00006290 ?TrimRight@CTString@@QAEJJ@Z
       3143  C46 00006510 ?TrimSpacesLeft@CTString@@QAEJXZ
       3144  C47 00006560 ?TrimSpacesRight@CTString@@QAEJXZ
       3145  C48 001698F0 ?TryToGoUpstairs@CMovableEntity@@QAEHABV?$Vector@M$02@@ABVCSurfaceType@@H@Z
       3146  C49 0002DA80 ?TryToLock@CTSingleLock@@QAEHXZ
       3147  C4A 0016A000 ?TryToMove@CMovableEntity@@QAEHPAV1@HH@Z
       3148  C4B 00012910 ?TurnOffMirrorPlane@CProjection3D@@QAEXXZ
       3149  C4C 00012950 ?TurnOffWarpPlane@CProjection3D@@QAEXXZ
       3150  C4D 000333A0 ?TurnPortalsToWalls@CObject3D@@QAEXXZ
       3151  C4E 0013C350 ?Unbind@CMesh@@QAEXXZ
       3152  C4F 00078320 ?Unbind@CTextureData@@QAEXXZ
       3153  C50 00074170 ?Uncache@CShadowMap@@QAEJXZ
       3154  C51 0011EFE0 ?UncacheLightMaps@CBrushSector@@QAEXXZ
       3155  C52 00129750 ?UncacheShadowMaps@CLightSource@@QAEXXZ
       3156  C53 0010AC70 ?UncacheShadowsForGradient@CEntity@@QAEXJ@Z
       3157  C54 00006320 ?Undecorated@CTString@@QBE?AV1@XZ
       3158  C55 0000B390 ?Unlock@CDrawPort@@QAEXXZ
       3159  C56 0002DAE0 ?Unlock@CTSingleLock@@QAEXXZ
       3160  C57 0011F680 ?UnlockAll@CBrushSector@@QAEXXZ
       3161  C58 000AD060 ?UnlockAll@CWorld@@QAEXXZ
       3162  C59 0002C040 ?UnlockBuffer@CTMemoryStream@@QAEXXZ
       3163  C5A 0006C080 ?UnlockDrawPort@CGfxLibrary@@QAEXPAVCDrawPort@@@Z
       3164  C5B 0006CB20 ?UnlockRaster@CGfxLibrary@@QAEXPAVCRaster@@@Z
       3165  C5C 0004A500 ?Unlock_internal@CDrawPort@@QAEXXZ
       3166  C5D 000E8DB0 ?Unpack@CNetworkMessage@@QAEXAAV1@AAVCCompressor@@@Z
       3167  C5E 000E0C70 ?UnpackAngle@@YAXKAAV?$Vector@M$02@@@Z
       3168  C5F 000E8E90 ?UnpackDefault@CNetworkMessage@@QAEXAAV1@@Z
       3169  C60 000E09B0 ?UnpackFloat@@YAMEEEK@Z
       3170  C61 000E0910 ?UnpackFloatFromWord@@YAMF@Z
       3171  C62 000E0B50 ?UnpackFloatsFromULONG@@YAXKAAM00@Z
       3172  C63 000E0AC0 ?UnpackVectorFromULONG@@YAXKAAV?$Vector@M$02@@@Z
       3173  C64 000A00F0 ?UnpackVertex@CModelObject@@QAEXAAVCRenderModel@@JAAV?$Vector@M$02@@@Z
       3174  C65 00099D70 ?UnpackVertex@CModelObject@@QAEXJJAAV?$Vector@M$02@@@Z
       3175  C66 000DE0F0 ?Unprepare@CCommunicationInterface@@QAEXXZ
       3176  C67 00017530 ?UnsetTimer@CEntity@@QAEXXZ
       3177  C68 0010FF80 ?UnsetTimer@CRationalEntity@@QAEXXZ
       3178  C69 000ACD40 ?UntargetEntity@CWorld@@QAEXPAVCEntity@@@Z
       3179  C6A 0010FFB0 ?UnwindStack@CRationalEntity@@QAEXJ@Z
       3180  C6B 00031F90 ?UpVectorToAngles@@YAXABV?$Vector@M$02@@AAV1@@Z
       3181  C6C 000875E0 ?Update@CSoundObject@@QAEXXZ
       3182  C6D 0008FDD0 ?UpdateAnimations_t@CEditModel@@QAEXAAVCTFileName@@@Z
       3183  C6E 0011AEE0 ?UpdateBoundingBox@CBrushMip@@QAEXXZ
       3184  C6F 00073FF0 ?UpdateDynamicLayers@CShadowMap@@QAEKXZ
       3185  C70 00129940 ?UpdateLayer@CLightSource@@QAEXAAVCBrushShadowLayer@@@Z
       3186  C71 000DFC90 ?UpdateMasterBuffers@CCommunicationInterface@@QAEXXZ
       3187  C72 00001770 ?UpdateMaxPos@CTStream@@QAEXPAE@Z
       3188  C73 00001790 ?UpdateMaxPos@CTStream@@QAEXXZ
       3189  C74 00090300 ?UpdateMipModels_t@CEditModel@@QAEXAAVCTFileName@@@Z
       3190  C75 00167E50 ?UpdateOneSectorForce@CMovableEntity@@QAEXAAVCBrushSector@@M@Z
       3191  C76 0011F7D0 ?UpdateSector@CBrushSector@@QAEXXZ
       3192  C77 000ADFF0 ?UpdateSectorsAfterVertexChange@CWorld@@QAEXAAV?$CSelection@VCBrushVertex@@$01@@@Z
       3193  C78 000ADEF0 ?UpdateSectorsDuringVertexChange@CWorld@@QAEXAAV?$CSelection@VCBrushVertex@@$01@@@Z
       3194  C79 00081F40 ?UpdateSounds@CSoundLibrary@@QAEXXZ
       3195  C7A 00109ED0 ?UpdateSpatialRange@CEntity@@QAEXXZ
       3196  C7B 0012A360 ?UpdateTerrains@CLightSource@@QAEXVCPlacement3D@@0@Z
       3197  C7C 0012A320 ?UpdateTerrains@CLightSource@@QAEXXZ
       3198  C7D 0011FB70 ?UpdateVertexChanges@CBrushSector@@QAEXXZ
       3199  C7E 00077A10 ?UploadCompressed@CTextureData@@QAEHXZ
       3200  C7F 00028BF0 ?UseApplicationPath@@YAXXZ
       3201  C80 00006AD0 ?VPrintF@CTString@@QAEJPBDPAD@Z
       3202  C81 000128D0 ?ViewStretchL@CProjection3D@@QAEAAMXZ
       3203  C82 000128E0 ?ViewStretchR@CProjection3D@@QBEABMXZ
       3204  C83 000127B0 ?ViewerPlacementL@CProjection3D@@QAEAAVCPlacement3D@@XZ
       3205  C84 00032AC0 ?ViewerPlacementL@CSimpleProjection3D_DOUBLE@@QAEAAVCPlacement3D@@XZ
       3206  C85 000127C0 ?ViewerPlacementR@CProjection3D@@QBEABVCPlacement3D@@XZ
       3207  C86 00032AD0 ?ViewerPlacementR@CSimpleProjection3D_DOUBLE@@QBEABVCPlacement3D@@XZ
       3208  C87 000F1A40 ?WaitStream_t@CSessionState@@QAEXAAVCTMemoryStream@@ABVCTString@@J@Z
       3209  C88 0016F260 ?WaitUntilScheduledAnimStarts@CMovableModelEntity@@QAEHABVCEntityEvent@@@Z
       3210  C89 000F2530 ?WarmUpWorld@CSessionState@@QAEXXZ
       3211  C8A 000086E0 ?WarningMessage@@YAXPBDZZ
       3212  C8B 00012920 ?WarpPlaneL@CProjection3D@@QAEAAV?$Plane@M$02@@XZ
       3213  C8C 00012940 ?WarpPlaneR@CProjection3D@@QBEABV?$Plane@M$02@@XZ
       3214  C8D 000DA180 ?WhyDisconnected@CNetworkLibrary@@QAEABVCTString@@XZ
       3215  C8E 000953F0 ?WireOn@CModelRenderPrefs@@QAEHXZ
       3216  C8F 00169480 ?WouldFallInNextPosition@CMovableEntity@@QAEHXZ
       3217  C90 00018740 ?Write@CNetworkMessage@@QAEXPBXJ@Z
       3218  C91 000EABA0 ?WriteActionPacket@CPlayerSource@@QAEXAAVCNetworkMessage@@@Z
       3219  C92 000E3820 ?WriteAddPlayer@CEntityMessage@@QAEXAAKAAJAAVCPlayerCharacter@@00J@Z
       3220  C93 000E4FC0 ?WriteAddSkaString@CEntityMessage@@QAEXJABVCTString@@@Z
       3221  C94 000E4DA0 ?WriteBasePosition@CEntityMessage@@QAEXAAV?$Vector@M$02@@@Z
       3222  C95 000E9020 ?WriteBits@CNetworkMessage@@QAEXPBXJ@Z
       3223  C96 000BB090 ?WriteBrushes_t@CWorld@@QAEXPAVCTStream@@@Z
       3224  C97 000E4670 ?WriteCharacterChange@CEntityMessage@@QAEXAAKAAVCPlayerCharacter@@@Z
       3225  C98 00029A90 ?WriteChunk_t@CTStream@@QAEXPAXJ@Z
       3226  C99 000F02A0 ?WriteDemoData@CServer@@QAEXM@Z
       3227  C9A 000E30B0 ?WriteEntityCopy@CEntityMessage@@QAEXAAK0ABVCPlacement3D@@E@Z
       3228  C9B 000E2DB0 ?WriteEntityCreate@CEntityMessage@@QAEXAAKABVCPlacement3D@@AAG@Z
       3229  C9C 000E33B0 ?WriteEntityDestroy@CEntityMessage@@QAEXAAK@Z
       3230  C9D 000E3420 ?WriteEntityEvent@CEntityMessage@@QAEXAAKAAJPAX1@Z
       3231  C9E 000E3620 ?WriteEntityInitialize@CEntityMessage@@QAEXAAKAAJPAX1@Z
       3232  C9F 00113C70 ?WriteEntityPointer_t@CEntity@@QAEXPAVCTStream@@VCEntityPointer@@@Z
       3233  CA0 001175B0 ?WriteEntitySectorLinks_t@CBrushArchive@@QAEXAAVCTStream@@@Z
       3234  CA1 00029B00 ?WriteFullChunk_t@CTStream@@QAEXABVCChunkID@@PAXJ@Z
       3235  CA2 000299C0 ?WriteID_t@CTStream@@QAEXABVCChunkID@@@Z
       3236  CA3 000BD9E0 ?WriteInfo_t@CWorld@@QAEXPAVCTStream@@@Z
       3237  CA4 00122F30 ?WriteLayers_t@CBrushShadowMap@@UAEXPAVCTStream@@@Z
       3238  CA5 000746A0 ?WriteLayers_t@CShadowMap@@UAEXPAVCTStream@@@Z
       3239  CA6 00091960 ?WriteMipSettings_t@CEditModel@@QAEXPAVCTStream@@J@Z
       3240  CA7 0001CF70 ?WriteModelInstance_t@@YAXAAVCTStream@@AAVCModelInstance@@H@Z
       3241  CA8 0002B710 ?WritePageToFile@CTFileStream@@QAEXJ@Z
       3242  CA9 000E43D0 ?WritePause@CEntityMessage@@QAEXAAHAAVCTString@@@Z
       3243  CAA 000E2A50 ?WritePlacement@CEntityMessage@@QAEXAAKABVCPlacement3D@@1@Z
       3244  CAB 000E40D0 ?WritePlacementNotify@CEntityMessage@@QAEXAAKE@Z
       3245  CAC 000E51D0 ?WritePlayerAction@CEntityMessage@@QAEXAAKAAVCPlayerAction@@@Z
       3246  CAD 000E4040 ?WritePlayerUpdate@CEntityMessage@@QAEXAAKAAVCNetworkMessage@@@Z
       3247  CAE 001173D0 ?WritePortalSectorLinks_t@CBrushArchive@@QAEXAAVCTStream@@@Z
       3248  CAF 00114250 ?WriteProperties_t@CEntity@@QAEXAAVCTStream@@H@Z
       3249  CB0 00029A40 ?WriteRawChunk_t@CTStream@@QAEXPAXJ@Z
       3250  CB1 000F3FE0 ?WriteRememberedLevels_t@CSessionState@@QAEXPAVCTStream@@@Z
       3251  CB2 000E4600 ?WriteRemovePlayer@CEntityMessage@@QAEXAAJ@Z
       3252  CB3 0010D100 ?WriteSKAQueue@CEntity@@QAEXAAVCNetworkMessage@@@Z
       3253  CB4 0010D010 ?WriteSKAQueue@CEntity@@QAEXPAVCTStream@@@Z
       3254  CB5 00096330 ?WriteSettings_t@MappingSurface@@QAEXPAVCTStream@@@Z
       3255  CB6 00029A00 ?WriteSize_t@CTStream@@QAEXJ@Z
       3256  CB7 000E41F0 ?WriteSka@CEntityMessage@@QAEXAAKEPAXAAJ@Z
       3257  CB8 000E4BC0 ?WriteSound@CEntityMessage@@QAEXAAKEPAXAAJ@Z
       3258  CB9 000E3E90 ?WriteStartAnim@CEntityMessage@@QAEXAAKAAJ0@Z
       3259  CBA 000BCFB0 ?WriteState_net_t@CWorld@@QAEXPAVCTStream@@@Z
       3260  CBB 000F3D90 ?WriteState_t@CSessionState@@QAEXPAVCTStream@@@Z
       3261  CBC 000BD400 ?WriteState_t@CWorld@@QAEXPAVCTStream@@H@Z
       3262  CBD 00029B70 ?WriteStream_t@CTStream@@QAEXAAV1@@Z
       3263  CBE 00007402 ?WriteToStreamShort@CTString@@QAEXPAVCTStream@@@Z
       3264  CBF 000DCB90 ?WriteVersion_t@CNetworkLibrary@@QAEXAAVCTStream@@@Z
       3265  CC0 000F3E50 ?WriteWorldAndState_t@CSessionState@@QAEXPAVCTStream@@@Z
       3266  CC1 00171AB0 ?Write_net@CPlayerEntity@@UAEXPAVCNetworkMessage@@@Z
       3267  CC2 00171AD0 ?Write_net_brief@CPlayerEntity@@UAEXPAVCNetworkMessage@@@Z
       3268  CC3 00134940 ?Write_t@CAnimSet@@UAEXPAVCTStream@@@Z
       3269  CC4 0008D010 ?Write_t@CAttachedModel@@QAEXPAVCTStream@@@Z
       3270  CC5 000976A0 ?Write_t@CAttachedModelPosition@@QAEXPAVCTStream@@@Z
       3271  CC6 0008D210 ?Write_t@CAttachedSound@@QAEXPAVCTStream@@@Z
       3272  CC7 00118F00 ?Write_t@CBrush3D@@QAEXPAVCTStream@@@Z
       3273  CC8 001178C0 ?Write_t@CBrushArchive@@UAEXPAVCTStream@@@Z
       3274  CC9 001191B0 ?Write_t@CBrushMip@@QAEXPAVCTStream@@@Z
       3275  CCA 00119560 ?Write_t@CBrushPolygonTexture@@QAEXAAVCTStream@@@Z
       3276  CCB 00119600 ?Write_t@CBrushSector@@QAEXPAVCTStream@@@Z
       3277  CCC 0008D890 ?Write_t@CEditModel@@UAEXPAVCTStream@@@Z
       3278  CCD 0010F580 ?Write_t@CEntity@@UAEXPAVCTStream@@H@Z
       3279  CCE 001113D0 ?Write_t@CEntityClass@@UAEXPAVCTStream@@@Z
       3280  CCF 000559D0 ?Write_t@CFontCharData@@QAEXPAVCTStream@@@Z
       3281  CD0 00055D80 ?Write_t@CFontData@@UAEXPAVCTStream@@@Z
       3282  CD1 0006EB20 ?Write_t@CImageInfo@@QBEXPAVCTStream@@@Z
       3283  CD2 00129610 ?Write_t@CLightSource@@QAEXPAVCTStream@@H@Z
       3284  CD3 0010F9A0 ?Write_t@CLiveEntity@@UAEXPAVCTStream@@H@Z
       3285  CD4 0013BB90 ?Write_t@CMesh@@UAEXPAVCTStream@@@Z
       3286  CD5 00097570 ?Write_t@CModelCollisionBox@@QAEXPAVCTStream@@@Z
       3287  CD6 000976F0 ?Write_t@CModelData@@UAEXPAVCTStream@@@Z
       3288  CD7 001406E0 ?Write_t@CModelInstanceSerial@@UAEXPAVCTStream@@@Z
       3289  CD8 000990E0 ?Write_t@CModelObject@@QAEXPAVCTStream@@@Z
       3290  CD9 000955C0 ?Write_t@CModelPatch@@QAEXPAVCTStream@@@Z
       3291  CDA 00095460 ?Write_t@CModelRenderPrefs@@QAEXPAVCTStream@@@Z
       3292  CDB 00165950 ?Write_t@CMovableBrushEntity@@UAEXPAVCTStream@@H@Z
       3293  CDC 001670C0 ?Write_t@CMovableEntity@@UAEXPAVCTStream@@H@Z
       3294  CDD 0016F220 ?Write_t@CMovableModelEntity@@UAEXPAVCTStream@@H@Z
       3295  CDE 00115B40 ?Write_t@CPlayerCharacter@@QAEXPAVCTStream@@@Z
       3296  CDF 00171C20 ?Write_t@CPlayerEntity@@UAEXPAVCTStream@@H@Z
       3297  CE0 0010FE40 ?Write_t@CRationalEntity@@UAEXPAVCTStream@@H@Z
       3298  CE1 000F3C50 ?Write_t@CSessionState@@QAEXPAVCTStream@@H@Z
       3299  CE2 00073430 ?Write_t@CShader@@UAEXPAVCTStream@@@Z
       3300  CE3 00074560 ?Write_t@CShadowMap@@QAEXPAVCTStream@@@Z
       3301  CE4 001506D0 ?Write_t@CSkeleton@@UAEXPAVCTStream@@@Z
       3302  CE5 0007E920 ?Write_t@CSoundData@@UAEXPAVCTStream@@@Z
       3303  CE6 00088EE0 ?Write_t@CSoundObject@@QAEXPAVCTStream@@H@Z
       3304  CE7 00002100 ?Write_t@CTStream@@QAEXPBXJ@Z
       3305  CE8 00152150 ?Write_t@CTerrain@@QAEXPAVCTStream@@@Z
       3306  CE9 00152540 ?Write_t@CTerrainArchive@@UAEXPAVCTStream@@@Z
       3307  CEA 000771B0 ?Write_t@CTextureData@@UAEXPAVCTStream@@@Z
       3308  CEB 000784A0 ?Write_t@CTextureObject@@QAEXPAVCTStream@@@Z
       3309  CEC 0008A760 ?Write_t@CThumbnailSettings@@QAEXPAVCTStream@@@Z
       3310  CED 000BAC70 ?Write_t@CWorld@@QAEXPAVCTStream@@@Z
       3311  CEE 00096190 ?Write_t@MappingSurface@@QAEXPAVCTStream@@@Z
       3312  CEF 00096B20 ?Write_t@ModelMipInfo@@QAEXPAVCTStream@@@Z
       3313  CF0 00095EE0 ?Write_t@ModelPolygon@@QAEXPAVCTStream@@@Z
       3314  CF1 00095E80 ?Write_t@ModelPolygonVertex@@QAEXPAVCTStream@@@Z
       3315  CF2 00008820 ?YesNoMessage@@YAHPBDZZ
       3316  CF3 00012A00 ?ZoomFactorL@CIsometricProjection3D@@QAEAAMXZ
       3317  CF4 00012A10 ?ZoomFactorR@CIsometricProjection3D@@QBEABMXZ
       3318  CF5 0022464C ?_CurrentTickTimer@@3MA
       3319  CF6 002248F8 ?_Particle_bSkipClipping@@3HA
       3320  CF7 0020F0E8 ?_ategtTextureEffectGlobalPresets@@3PAUTextureEffectGlobalType@@A
       3321  CF8 0027B3E4 ?_bDedicatedServer@@3HA
       3322  CF9 00274650 ?_bSelectAlternative@@3HA
       3323  CFA 0027B3E8 ?_bWorldEditorApp@@3HA
       3324  CFB 00230FF8 ?_cmiComm@@3VCCommunicationInterface@@A
       3325  CFC 00272660 ?_colViewerAmbient@@3KA
       3326  CFD 00272664 ?_colViewerLight@@3KA
       3327  CFE 0020F1C4 ?_ctTextureEffectGlobalPresets@@3JA
       3328  CFF 00274714 ?_eeVoid@@3ABVCEntityEvent@@B
       3329  D00 002245F8 ?_fnmApplicationExe@@3VCTFileName@@A
       3330  D01 00224600 ?_fnmApplicationPath@@3VCTFileName@@A
       3331  D02 002245DC ?_fnmCDPath@@3VCTFileName@@A
       3332  D03 002245F0 ?_fnmMod@@3VCTFileName@@A
       3333  D04 0027B440 ?_iStatsMode@@3JA
       3334  D05 00229D90 ?_iTexForcedQuality@@3JA
       3335  D06 0022EAA0 ?_mrpModelRenderPrefs@@3VCModelRenderPrefs@@A
       3336  D07 00230E94 ?_pAnimSetStock@@3PAVCStock_CAnimSet@@A
       3337  D08 00230E8C ?_pAnimStock@@3PAVCStock_CAnimData@@A
       3338  D09 0021ECE4 ?_pConsole@@3PAVCConsole@@A
       3339  D0A 00230E9C ?_pEntityClassStock@@3PAVCStock_CEntityClass@@A
       3340  D0B 00230EA4 ?_pFontStock@@3PAVCStock_CFontData@@A
       3341  D0C 00229D84 ?_pGfx@@3PAVCGfxLibrary@@A
       3342  D0D 0021FD34 ?_pInput@@3PAVCInput@@A
       3343  D0E 00230EAC ?_pMeshStock@@3PAVCStock_CMesh@@A
       3344  D0F 00230EBC ?_pModelInstanceStock@@3PAVCStock_CModelInstance@@A
       3345  D10 00230EB4 ?_pModelStock@@3PAVCStock_CModelData@@A
       3346  D11 00230F2C ?_pNetwork@@3PAVCNetworkLibrary@@A
       3347  D12 00230EC4 ?_pShaderStock@@3PAVCStock_CShader@@A
       3348  D13 00224264 ?_pShell@@3PAVCShell@@A
       3349  D14 00230ECC ?_pSkeletonStock@@3PAVCStock_CSkeleton@@A
       3350  D15 0022E9B4 ?_pSound@@3PAVCSoundLibrary@@A
       3351  D16 00230ED4 ?_pSoundStock@@3PAVCStock_CSoundData@@A
       3352  D17 00230EDC ?_pTextureStock@@3PAVCStock_CTextureData@@A
       3353  D18 00224650 ?_pTimer@@3PAVCTimer@@A
       3354  D19 00274648 ?_pavpixSelectLasso@@3PAV?$CStaticStackArray@V?$Vector@J$01@@@@A
       3355  D1A 0021B8A4 ?_pf1oCosTable@@3PBMB
       3356  D1B 0021B8A0 ?_pf1oSinTable@@3PBMB
       3357  D1C 0021B89C ?_pfCosTable@@3PBMB
       3358  D1D 002323D8 ?_pfNetworkProfile@@3AAVCProfileForm@@A
       3359  D1E 0021B898 ?_pfSinTable@@3PBMB
       3360  D1F 00230DD0 ?_pfWorldEditingProfile@@3AAVCProfileForm@@A
       3361  D20 00228B28 ?_pfdConsoleFont@@3PAVCFontData@@A
       3362  D21 00228B2C ?_pfdDisplayFont@@3PAVCFontData@@A
       3363  D22 0021B8AC ?_piACosTable@@3PBJB
       3364  D23 0021B8A8 ?_piASinTable@@3PBJB
       3365  D24 002180F0 ?_pixDeltaAroundVertex@@3JA
       3366  D25 00224748 ?_plOrigin@@3VCPlacement3D@@A
       3367  D26 00230FC8 ?_precache_bNowPrecaching@@3JA
       3368  D27 0027465C ?_pselbscVisTweaks@@3PAV?$CSelection@VCBrushSector@@$00@@A
       3369  D28 00274644 ?_pselbvxtSelectOnRender@@3PAV?$CSelection@VCBrushVertex@@$01@@A
       3370  D29 0027464C ?_pselenSelectOnRender@@3PAV?$CSelection@VCEntity@@$00@@A
       3371  D2A 0022A3B0 ?_ptdFlat@@3PAVCTextureData@@A
       3372  D2B 0021B8B0 ?_pubClipByte@@3PBEB
       3373  D2C 0022452C ?_sfStats@@3VCStatForm@@A
       3374  D2D 0027B3D8 ?_strEngineBuild@@3VCTString@@A
       3375  D2E 0027B3D4 ?_strLogFile@@3VCTString@@A
       3376  D2F 002245E4 ?_strModExt@@3VCTString@@A
       3377  D30 002245EC ?_strModName@@3VCTString@@A
       3378  D31 002245E8 ?_strModURL@@3VCTString@@A
       3379  D32 0022FD24 ?_toSimpleModelShadow@@3VCTextureObject@@A
       3380  D33 00229C48 ?_tpGlobal@@3PAVCTexParams@@A
       3381  D34 0021B888 ?_ulEngineBuildMajor@@3KA
       3382  D35 0021B88C ?_ulEngineBuildMinor@@3KA
       3383  D36 00272668 ?_vViewerLightDirection@@3V?$Vector@M$02@@A
       3384  D37 00272674 ?_vpixSelectNearPoint@@3V?$Vector@J$01@@A
       3385  D38 002724E8 ?_wrpWorldRenderPrefs@@3VCWorldRenderPrefs@@A
       3386  D39 00202820 ?crc_aulCRCTable@@3PAKA
       3387  D3A 0027B43C ?dbg_bAtHome@@3JA
       3388  D3B 00230EF4 ?gam_iPrecachePolicy@@3JA
       3389  D3C 0005FB90 ?gfxSetBlendType@@YAXW4PredefinedBlendType@@@Z
       3390  D3D 00212424 ?net_bLocalPrediction@@3JA
       3391  D3E 00070ED0 ?shaAttenuateAlphaForFogAndHaze@@YAXXZ
       3392  D3F 00070E20 ?shaAttenuateColorForFogAndHaze@@YAXXZ
       3393  D40 00072BC0 ?shaBlendFunc@@YAXW4GfxBlend@@0@Z
       3394  D41 00071090 ?shaCalculateLight@@YAXXZ
       3395  D42 00071440 ?shaCalculateLightForSpecular@@YAXXZ
       3396  D43 00071760 ?shaClean@@YAXXZ
       3397  D44 00072790 ?shaClearTextureMatrix@@YAXJ@Z
       3398  D45 00072BA0 ?shaCullFace@@YAXW4GfxFace@@@Z
       3399  D46 00072C60 ?shaDepthFunc@@YAXW4GfxComp@@@Z
       3400  D47 00072C10 ?shaDisableAlphaTest@@YAXXZ
       3401  D48 00072BF0 ?shaDisableBlend@@YAXXZ
       3402  D49 00072C30 ?shaDisableDepthTest@@YAXXZ
       3403  D4A 00072C50 ?shaDisableDepthWrite@@YAXXZ
       3404  D4B 00073350 ?shaDisableInverted@@YAXXZ
       3405  D4C 00072CD0 ?shaDisableOverBrightning@@YAXXZ
       3406  D4D 00072D40 ?shaDisablePixelProgram@@YAXXZ
       3407  D4E 00071CB0 ?shaDisableTexture@@YAXJ@Z
       3408  D4F 00072D20 ?shaDisableVertexBuffers@@YAXXZ
       3409  D50 00072D30 ?shaDisableVertexProgram@@YAXXZ
       3410  D51 00070F50 ?shaDoFogAndHazePass@@YAXXZ
       3411  D52 00072C00 ?shaEnableAlphaTest@@YAXXZ
       3412  D53 00072BE0 ?shaEnableBlend@@YAXXZ
       3413  D54 00072C20 ?shaEnableDepthTest@@YAXXZ
       3414  D55 00072C40 ?shaEnableDepthWrite@@YAXXZ
       3415  D56 00073340 ?shaEnableInverted@@YAXXZ
       3416  D57 00072CB0 ?shaEnableOverBrightning@@YAXXZ
       3417  D58 00072D10 ?shaEnablePixelProgram@@YAXXZ
       3418  D59 00072CF0 ?shaEnableVertexBuffers@@YAXXZ
       3419  D5A 00072D00 ?shaEnableVertexProgram@@YAXXZ
       3420  D5B 00071030 ?shaFillColorBuffer@@YAXK@Z
       3421  D5C 000728D0 ?shaGetAmbientColor@@YAKXZ
       3422  D5D 00072840 ?shaGetColor@@YAKJ@Z
       3423  D5E 00072960 ?shaGetColorArray@@YAPAUGFXColor@@XZ
       3424  D5F 000728F0 ?shaGetCurrentColor@@YAKXZ
       3425  D60 000727C0 ?shaGetFirstVertex@@YAJXZ
       3426  D61 00072860 ?shaGetFlags@@YAAAKXZ
       3427  D62 000727F0 ?shaGetFloat@@YAMJ@Z
       3428  D63 00072910 ?shaGetIndexArray@@YAPBGXZ
       3429  D64 000727E0 ?shaGetIndexCount@@YAJXZ
       3430  D65 000728B0 ?shaGetLightColor@@YAKXZ
       3431  D66 00072880 ?shaGetLightDirection@@YA?AV?$Vector@M$02@@XZ
       3432  D67 00072870 ?shaGetModelColor@@YAKXZ
       3433  D68 00072970 ?shaGetNewColorArray@@YAPAUGFXColor@@XZ
       3434  D69 000729B0 ?shaGetNewTexCoordArray@@YAPAUGFXTexCoord@@XZ
       3435  D6A 00072A70 ?shaGetNewVertexArray@@YAPAUGFXVertex@@XZ
       3436  D6B 00072920 ?shaGetNormalArray@@YAPAUGFXNormal@@XZ
       3437  D6C 00072B80 ?shaGetObjToAbsMatrix@@YAPAY0M@MXZ
       3438  D6D 00072B60 ?shaGetObjToViewMatrix@@YAPAY0M@MXZ
       3439  D6E 00072B70 ?shaGetObjToViewStrMatrix@@YAPAY0M@MXZ
       3440  D6F 00072B50 ?shaGetProjection@@YAPAVCAnyProjection3D@@XZ
       3441  D70 00072B90 ?shaGetRenFlags@@YAKXZ
       3442  D71 00072810 ?shaGetTexture@@YAPAVCTextureObject@@J@Z
       3443  D72 00072940 ?shaGetUVMap@@YAPAUGFXTexCoord@@J@Z
       3444  D73 00072900 ?shaGetVertexArray@@YAPAUGFXVertex@@XZ
       3445  D74 000727D0 ?shaGetVertexCount@@YAJXZ
       3446  D75 00072DA0 ?shaHasFog@@YAHAAV?$AABBox@M$02@@@Z
       3447  D76 00073080 ?shaHasHaze@@YAHAAV?$AABBox@M$02@@@Z
       3448  D77 00071BF0 ?shaLockArrays@@YAXXZ
       3449  D78 00073310 ?shaOverBrightningEnabled@@YAHXZ
       3450  D79 000706B0 ?shaPrepareFogAndHaze@@YAXH@Z
       3451  D7A 0006FFB0 ?shaRender@@YAXXZ
       3452  D7B 00071A40 ?shaSetBoneMatrix@@YAXPAY0M@$$CBMJ@Z
       3453  D7C 00071D20 ?shaSetColor@@YAXJ@Z
       3454  D7D 000726D0 ?shaSetColorArray@@YAXPAUGFXColor@@@Z
       3455  D7E 000726E0 ?shaSetConstantColor@@YAXK@Z
       3456  D7F 00070690 ?shaSetFogTextureUnit@@YAXJH@Z
       3457  D80 000732E0 ?shaSetFogUVMap@@YAXPAUGFXTexCoord@@@Z
       3458  D81 00073300 ?shaSetHazeColorArray@@YAXPAUGFXColor@@@Z
       3459  D82 000732F0 ?shaSetHazeUVMap@@YAXPAUGFXTexCoord@@@Z
       3460  D83 00071900 ?shaSetIndices@@YAXPBGJ@Z
       3461  D84 00071B70 ?shaSetLightColor@@YAXKK@Z
       3462  D85 00071AF0 ?shaSetLightDirection@@YAXABV?$Vector@M$02@@@Z
       3463  D86 00071AE0 ?shaSetModelColor@@YAXAAK@Z
       3464  D87 00071920 ?shaSetNormalArray@@YAXPAUGFXNormal@@@Z
       3465  D88 000719C0 ?shaSetNormalBufferID@@YAXJ@Z
       3466  D89 00071BD0 ?shaSetObjToAbsMatrix@@YAXAAY0M@M@Z
       3467  D8A 00071BB0 ?shaSetObjToViewMatrix@@YAXAAY0M@M@Z
       3468  D8B 00071BC0 ?shaSetObjToViewStrMatrix@@YAXAAY0M@M@Z
       3469  D8C 00072510 ?shaSetPixelProgram@@YAXJ@Z
       3470  D8D 0006FF90 ?shaSetPixelProgramConst@@YAXJPBUShaderRegister@@J@Z
       3471  D8E 00071BE0 ?shaSetRenFlags@@YAXK@Z
       3472  D8F 00071A90 ?shaSetSurfaceColors@@YAXPAKJ@Z
       3473  D90 00071AD0 ?shaSetSurfaceFlags@@YAXK@Z
       3474  D91 00071AB0 ?shaSetSurfaceFloats@@YAXPAMJ@Z
       3475  D92 00071A70 ?shaSetSurfaceTextures@@YAXPAPAVCTextureObject@@J@Z
       3476  D93 00071970 ?shaSetSurfaceUVMaps@@YAXPAPAUGFXTexCoord@@J@Z
       3477  D94 00071A20 ?shaSetSurfaceUVMapsIDs@@YAXPAJJ@Z
       3478  D95 000726A0 ?shaSetTexCoordArray@@YAXPAUGFXTexCoord@@J@Z
       3479  D96 00071A00 ?shaSetTexCoordBufferID@@YAXJJ@Z
       3480  D97 00071C10 ?shaSetTexture@@YAXJJ@Z
       3481  D98 00071C70 ?shaSetTexture@@YAXPAVCTextureData@@J@Z
       3482  D99 00072700 ?shaSetTextureMatrix@@YAXAAY0M@$$CBMJ@Z
       3483  D9A 00071D50 ?shaSetTextureUnit@@YAXJ@Z
       3484  D9B 00072C80 ?shaSetTextureWrapping@@YAXW4GfxWrap@@0J@Z
       3485  D9C 00071CD0 ?shaSetUVMap@@YAXJJ@Z
       3486  D9D 000718D0 ?shaSetVertexArray@@YAXPAUGFXVertex@@JJ@Z
       3487  D9E 00071990 ?shaSetVertexBufferID@@YAXJJJ@Z
       3488  D9F 00071D80 ?shaSetVertexProgram@@YAXJ@Z
       3489  DA0 0006FF70 ?shaSetVertexProgramConst@@YAXJPAY0BA@$$CBMJ@Z
       3490  DA1 0006FF50 ?shaSetVertexProgramConst@@YAXJPAY0M@$$CBMJ@Z
       3491  DA2 0006FF30 ?shaSetVertexProgramConst@@YAXJPBUShaderRegister@@J@Z
       3492  DA3 00071950 ?shaSetWeightArray@@YAXPAUGFXWeight@@@Z
       3493  DA4 000719E0 ?shaSetWeightBufferID@@YAXJ@Z
       3494  DA5 00071A60 ?shaSetWeightsPerVertex@@YAXJ@Z
       3495  DA6 00071C00 ?shaUnlockArrays@@YAXXZ
       3496  DA7 00072D50 ?shaUseHWShaders@@YAHXZ
       3497  DA8 00072D80 ?shaUsePixelProgram@@YAHXZ
       3498  DA9 00072D90 ?shaUseVertexBuffers@@YAHXZ
       3499  DAA 00072D70 ?shaUseVertexProgram@@YAHXZ
       3500  DAB 00151340 ?ska_FindID@@YAJABVCTString@@@Z
       3501  DAC 00151370 ?ska_IDToString@@YA?AVCTString@@J@Z
       3502  DAD 00151250 ?ska_StringToID@@YAJABVCTString@@@Z
       3503  DAE 0022A430 ?ska_fLODAdd@@3MA
       3504  DAF 0020AAFC ?ska_fLODMul@@3MA
       3505  DB0 0020F824 ?snd_iFormat@@3JA
       3506  DB1 00224270 ?tmp_af@@3PAMA
       3507  DB2 002242C0 ?tmp_ai@@3PAJA
       3508  DB3 002242E8 ?tmp_fAdd@@3JA
       3509  DB4 002242EC ?tmp_i@@3JA
       3510  DB5 00218B38 CEntity_DLLClass
       3511  DB6 00218B88 CLiveEntity_DLLClass
       3512  DB7 0021C338 CMovableBrushEntity_DLLClass
       3513  DB8 0021C3B0 CMovableEntity_DLLClass
       3514  DB9 0021C4B8 CMovableModelEntity_DLLClass
       3515  DBA 0021CCF8 CPlayerEntity_DLLClass
       3516  DBB 00218BD8 CRationalEntity_DLLClass
       3517  DBC 0015FD00 Shader_Desc_TRShader_1TRL
       3518  DBD 0015FDA0 Shader_Desc_TRShader_2TRL
       3519  DBE 0015FE40 Shader_Desc_TRShader_Base
       3520  DBF 0015FEE0 Shader_Desc_TRShader_Fog
       3521  DC0 0015FD60 Shader_PPCode_TRShader_1TRL
       3522  DC1 0015FE00 Shader_PPCode_TRShader_2TRL
       3523  DC2 0015FEA0 Shader_PPCode_TRShader_Base
       3524  DC3 0015FF40 Shader_PPCode_TRShader_Fog
       3525  DC4 0015FCF0 Shader_TRShader_1TRL
       3526  DC5 0015FD90 Shader_TRShader_2TRL
       3527  DC6 0015FE30 Shader_TRShader_Base
       3528  DC7 0015FED0 Shader_TRShader_Fog
       3529  DC8 0015FD30 Shader_VPCode_TRShader_1TRL
       3530  DC9 0015FDD0 Shader_VPCode_TRShader_2TRL
       3531  DCA 0015FE70 Shader_VPCode_TRShader_Base
       3532  DCB 0015FF10 Shader_VPCode_TRShader_Fog

  Summary

       86000 .data
       4A000 .rdata
       1A000 .reloc
      1B7000 .text
        1000 .tls
