LIBRARY ENTITIES 
EXPORTS 
??0CBullet@@QAE@ABV0@@Z 
??0CBullet@@QAE@XZ 
??0CComboManger@@QAE@ABV0@@Z 
??0CComboManger@@QAE@XZ 
??0CCompMessageID@@QAE@ABV0@@Z 
??0CCompMessageID@@QAE@XZ 
??0CEmiter@@QAE@XZ 
??0CEmittedParticle@@QAE@XZ 
??0CEnemyBase@@QAE@ABV0@@Z 
??0CEnemyBase@@QAE@XZ 
??0CEnemyDive@@QAE@ABV0@@Z 
??0CEnemyDive@@QAE@XZ 
??0CEnemyFly@@QAE@ABV0@@Z 
??0CEnemyFly@@QAE@XZ 
??0CEnemyHorse@@QAE@ABV0@@Z 
??0CEnemyHorse@@QAE@XZ 
??0CEnemyRunInto@@QAE@ABV0@@Z 
??0CEnemyRunInto@@QAE@XZ 
??0CMaria@@QAE@ABV0@@Z 
??0CMaria@@QAE@XZ 
??0CNavigationMarker@@QAE@ABV0@@Z 
??0CNavigationMarker@@QAE@XZ 
??0CPathNode@@QAE@ABV0@@Z 
??0CPathNode@@QAE@PAVCNavigationMarker@@@Z 
??0CPlayer@@QAE@AAV0@@Z 
??0CPlayer@@QAE@XZ 
??0CPlayerAnimator@@QAE@ABV0@@Z 
??0CPlayerAnimator@@QAE@XZ 
??0CPlayerView@@QAE@ABV0@@Z 
??0CPlayerView@@QAE@XZ 
??0CPlayerWeapons@@QAE@AAV0@@Z 
??0CPlayerWeapons@@QAE@XZ 
??0CPlayerWeapons_L@@QAE@AAV0@@Z 
??0CPlayerWeapons_L@@QAE@XZ 
??0CProjectile@@QAE@ABV0@@Z 
??0CProjectile@@QAE@XZ 
??0CReminder@@QAE@ABV0@@Z 
??0CReminder@@QAE@XZ 
??0CSkaItem@@QAE@ABV0@@Z 
??0CSkaItem@@QAE@XZ 
??0CWatcher@@QAE@ABV0@@Z 
??0CWatcher@@QAE@XZ 
??0EActivate@@QAE@ABV0@@Z 
??0EActivate@@QAE@XZ 
??0EActivateBlend@@QAE@ABV0@@Z 
??0EActivateBlend@@QAE@XZ 
??0EActiveMariaDie@@QAE@ABV0@@Z 
??0EActiveMariaDie@@QAE@XZ 
??0EAddBulletSpray@@QAE@ABV0@@Z 
??0EAddBulletSpray@@QAE@XZ 
??0EAddGoreSpray@@QAE@ABV0@@Z 
??0EAddGoreSpray@@QAE@XZ 
??0EAnimForDamage@@QAE@ABV0@@Z 
??0EAnimForDamage@@QAE@XZ 
??0EAnimatorInit@@QAE@ABV0@@Z 
??0EAnimatorInit@@QAE@XZ 
??0EArchitectureDeath@@QAE@ABV0@@Z 
??0EArchitectureDeath@@QAE@XZ 
??0EAttachChild@@QAE@ABV0@@Z 
??0EAttachChild@@QAE@XZ 
??0EAutoAction@@QAE@ABV0@@Z 
??0EAutoAction@@QAE@XZ 
??0EAutoQuickSave@@QAE@ABV0@@Z 
??0EAutoQuickSave@@QAE@XZ 
??0EAvoidProjectiles@@QAE@ABV0@@Z 
??0EAvoidProjectiles@@QAE@XZ 
??0EBFlame@@QAE@ABV0@@Z 
??0EBFlame@@QAE@XZ 
??0EBGravity@@QAE@ABV0@@Z 
??0EBGravity@@QAE@XZ 
??0EBackMaria@@QAE@ABV0@@Z 
??0EBackMaria@@QAE@XZ 
??0EBackMariaNPC@@QAE@ABV0@@Z 
??0EBackMariaNPC@@QAE@XZ 
??0EBackward@@QAE@ABV0@@Z 
??0EBackward@@QAE@XZ 
??0EBasket@@QAE@ABV0@@Z 
??0EBasket@@QAE@XZ 
??0EBbSetValue@@QAE@ABV0@@Z 
??0EBbSetValue@@QAE@XZ 
??0EBlowUp@@QAE@ABV0@@Z 
??0EBlowUp@@QAE@XZ 
??0EBonus@@QAE@ABV0@@Z 
??0EBonus@@QAE@XZ 
??0EBoosterEnd@@QAE@ABV0@@Z 
??0EBoosterEnd@@QAE@XZ 
??0EBoringWeapon@@QAE@ABV0@@Z 
??0EBoringWeapon@@QAE@XZ 
??0EBossWounded@@QAE@ABV0@@Z 
??0EBossWounded@@QAE@XZ 
??0EBruceDefenseFinished@@QAE@ABV0@@Z 
??0EBruceDefenseFinished@@QAE@XZ 
??0EBruceDefenseProjectiles@@QAE@ABV0@@Z 
??0EBruceDefenseProjectiles@@QAE@XZ 
??0EBruceTeleport@@QAE@ABV0@@Z 
??0EBruceTeleport@@QAE@XZ 
??0EBrushDeath@@QAE@ABV0@@Z 
??0EBrushDeath@@QAE@XZ 
??0EBrushDestroyed@@QAE@ABV0@@Z 
??0EBrushDestroyed@@QAE@XZ 
??0EBuffaloMoveThroughMarkers@@QAE@ABV0@@Z 
??0EBuffaloMoveThroughMarkers@@QAE@XZ 
??0EBulletInit@@QAE@ABV0@@Z 
??0EBulletInit@@QAE@XZ 
??0EBurning@@QAE@ABV0@@Z 
??0EBurning@@QAE@XZ 
??0ECameraStart@@QAE@ABV0@@Z 
??0ECameraStart@@QAE@XZ 
??0ECameraStop@@QAE@ABV0@@Z 
??0ECameraStop@@QAE@XZ 
??0ECannotLaunchMaria@@QAE@ABV0@@Z 
??0ECannotLaunchMaria@@QAE@XZ 
??0ECarSexDamage@@QAE@ABV0@@Z 
??0ECarSexDamage@@QAE@XZ 
??0ECenterMessage@@QAE@ABV0@@Z 
??0ECenterMessage@@QAE@XZ 
??0EChangeAnim@@QAE@ABV0@@Z 
??0EChangeAnim@@QAE@XZ 
??0EChangeDance@@QAE@ABV0@@Z 
??0EChangeDance@@QAE@XZ 
??0EChangeGravity@@QAE@ABV0@@Z 
??0EChangeGravity@@QAE@XZ 
??0EChangeGravityForce@@QAE@ABV0@@Z 
??0EChangeGravityForce@@QAE@XZ 
??0EChangeMusic@@QAE@ABV0@@Z 
??0EChangeMusic@@QAE@XZ 
??0ECloseRangeAttack@@QAE@ABV0@@Z 
??0ECloseRangeAttack@@QAE@XZ 
??0ECombo@@QAE@ABV0@@Z 
??0ECombo@@QAE@XZ 
??0EComputerMessage@@QAE@ABV0@@Z 
??0EComputerMessage@@QAE@XZ 
??0ECopierTrigger@@QAE@ABV0@@Z 
??0ECopierTrigger@@QAE@XZ 
??0ECoreDamage@@QAE@ABV0@@Z 
??0ECoreDamage@@QAE@XZ 
??0ECoreDie@@QAE@ABV0@@Z 
??0ECoreDie@@QAE@XZ 
??0ECoreFlame@@QAE@ABV0@@Z 
??0ECoreFlame@@QAE@XZ 
??0ECoreFlameandGrind@@QAE@ABV0@@Z 
??0ECoreFlameandGrind@@QAE@XZ 
??0ECoreGravity@@QAE@ABV0@@Z 
??0ECoreGravity@@QAE@XZ 
??0ECoreGrind@@QAE@ABV0@@Z 
??0ECoreGrind@@QAE@XZ 
??0ECorePriestDefault@@QAE@ABV0@@Z 
??0ECorePriestDefault@@QAE@XZ 
??0ECounterCount@@QAE@ABV0@@Z 
??0ECounterCount@@QAE@XZ 
??0ECrazyBegin@@QAE@ABV0@@Z 
??0ECrazyBegin@@QAE@XZ 
??0ECrazyEnd@@QAE@ABV0@@Z 
??0ECrazyEnd@@QAE@XZ 
??0ECredits@@QAE@ABV0@@Z 
??0ECredits@@QAE@XZ 
??0EDancerAcrobatRemoved@@QAE@ABV0@@Z 
??0EDancerAcrobatRemoved@@QAE@XZ 
??0EDancerNormalCreated@@QAE@ABV0@@Z 
??0EDancerNormalCreated@@QAE@XZ 
??0EDeactivate@@QAE@ABV0@@Z 
??0EDeactivate@@QAE@XZ 
??0EDeactivateBlend@@QAE@ABV0@@Z 
??0EDeactivateBlend@@QAE@XZ 
??0EDefenseBullet@@QAE@ABV0@@Z 
??0EDefenseBullet@@QAE@XZ 
??0EDetachChild@@QAE@ABV0@@Z 
??0EDetachChild@@QAE@XZ 
??0EDirectDancers@@QAE@ABV0@@Z 
??0EDirectDancers@@QAE@XZ 
??0EDisconnected@@QAE@ABV0@@Z 
??0EDisconnected@@QAE@XZ 
??0EDownMode@@QAE@ABV0@@Z 
??0EDownMode@@QAE@XZ 
??0EDrugmodeBegin@@QAE@ABV0@@Z 
??0EDrugmodeBegin@@QAE@XZ 
??0EDrugmodeEnd@@QAE@ABV0@@Z 
??0EDrugmodeEnd@@QAE@XZ 
??0EEnd@@QAE@ABV0@@Z 
??0EEnd@@QAE@XZ 
??0EEndActor@@QAE@ABV0@@Z 
??0EEndActor@@QAE@XZ 
??0EEnding@@QAE@ABV0@@Z 
??0EEnding@@QAE@XZ 
??0EEndingCameraStop@@QAE@ABV0@@Z 
??0EEndingCameraStop@@QAE@XZ 
??0EEnemyBaseDamage@@QAE@ABV0@@Z 
??0EEnemyBaseDamage@@QAE@XZ 
??0EEnemyBaseDeath@@QAE@ABV0@@Z 
??0EEnemyBaseDeath@@QAE@XZ 
??0EEntityVoice@@QAE@ABV0@@Z 
??0EEntityVoice@@QAE@XZ 
??0EEnvironmentStart@@QAE@ABV0@@Z 
??0EEnvironmentStart@@QAE@XZ 
??0EEnvironmentStop@@QAE@ABV0@@Z 
??0EEnvironmentStop@@QAE@XZ 
??0EExplode@@QAE@ABV0@@Z 
??0EExplode@@QAE@XZ 
??0EExtraTeleport@@QAE@ABV0@@Z 
??0EExtraTeleport@@QAE@XZ 
??0EFireBombs@@QAE@ABV0@@Z 
??0EFireBombs@@QAE@XZ 
??0EFireDagger@@QAE@ABV0@@Z 
??0EFireDagger@@QAE@XZ 
??0EFireRocket@@QAE@ABV0@@Z 
??0EFireRocket@@QAE@XZ 
??0EFireWeapon@@QAE@ABV0@@Z 
??0EFireWeapon@@QAE@XZ 
??0EFlame@@QAE@ABV0@@Z 
??0EFlame@@QAE@XZ 
??0EFlipTheSwitch@@QAE@ABV0@@Z 
??0EFlipTheSwitch@@QAE@XZ 
??0EForceWound@@QAE@ABV0@@Z 
??0EForceWound@@QAE@XZ 
??0EForward@@QAE@ABV0@@Z 
??0EForward@@QAE@XZ 
??0EGetAngry@@QAE@ABV0@@Z 
??0EGetAngry@@QAE@XZ 
??0EGetDamaged@@QAE@ABV0@@Z 
??0EGetDamaged@@QAE@XZ 
??0EGotFlower@@QAE@ABV0@@Z 
??0EGotFlower@@QAE@XZ 
??0EGrenadeExplodeNow@@QAE@ABV0@@Z 
??0EGrenadeExplodeNow@@QAE@XZ 
??0EGrindClose@@QAE@ABV0@@Z 
??0EGrindClose@@QAE@XZ 
??0EGrindInit@@QAE@ABV0@@Z 
??0EGrindInit@@QAE@XZ 
??0EGrindOff@@QAE@ABV0@@Z 
??0EGrindOff@@QAE@XZ 
??0EGrindOn@@QAE@ABV0@@Z 
??0EGrindOn@@QAE@XZ 
??0EGrindOpen@@QAE@ABV0@@Z 
??0EGrindOpen@@QAE@XZ 
??0EGuard@@QAE@ABV0@@Z 
??0EGuard@@QAE@XZ 
??0EGuardState@@QAE@ABV0@@Z 
??0EGuardState@@QAE@XZ 
??0EHit@@QAE@ABV0@@Z 
??0EHit@@QAE@XZ 
??0EHitBySpaceShipBeam@@QAE@ABV0@@Z 
??0EHitBySpaceShipBeam@@QAE@XZ 
??0EHudPicFX@@QAE@ABV0@@Z 
??0EHudPicFX@@QAE@XZ 
??0EInDrugModeItem@@QAE@ABV0@@Z 
??0EInDrugModeItem@@QAE@XZ 
??0EInRange@@QAE@ABV0@@Z 
??0EInRange@@QAE@XZ 
??0EInitMaria@@QAE@ABV0@@Z 
??0EInitMaria@@QAE@XZ 
??0EInitMariaNPC@@QAE@ABV0@@Z 
??0EInitMariaNPC@@QAE@XZ 
??0EKickBlob@@QAE@ABV0@@Z 
??0EKickBlob@@QAE@XZ 
??0EKilledEnemy@@QAE@ABV0@@Z 
??0EKilledEnemy@@QAE@XZ 
??0ELamonBikeFireRocket@@QAE@ABV0@@Z 
??0ELamonBikeFireRocket@@QAE@XZ 
??0ELamonBikeMoveThroughMarkers@@QAE@ABV0@@Z 
??0ELamonBikeMoveThroughMarkers@@QAE@XZ 
??0ELamonBikeSuicide@@QAE@ABV0@@Z 
??0ELamonBikeSuicide@@QAE@XZ 
??0ELandingActiveMaria@@QAE@ABV0@@Z 
??0ELandingActiveMaria@@QAE@XZ 
??0ELandingMaria@@QAE@ABV0@@Z 
??0ELandingMaria@@QAE@XZ 
??0ELaunch@@QAE@ABV0@@Z 
??0ELaunch@@QAE@XZ 
??0ELaunchActiveMaria@@QAE@ABV0@@Z 
??0ELaunchActiveMaria@@QAE@XZ 
??0ELaunchAx@@QAE@ABV0@@Z 
??0ELaunchAx@@QAE@XZ 
??0ELaunchMaria@@QAE@ABV0@@Z 
??0ELaunchMaria@@QAE@XZ 
??0ELaunchMariaNPC@@QAE@ABV0@@Z 
??0ELaunchMariaNPC@@QAE@XZ 
??0ELaunchProjectile@@QAE@ABV0@@Z 
??0ELaunchProjectile@@QAE@XZ 
??0ELeft@@QAE@ABV0@@Z 
??0ELeft@@QAE@XZ 
??0ELisa@@QAE@ABV0@@Z 
??0ELisa@@QAE@XZ 
??0EMarkPicked@@QAE@ABV0@@Z 
??0EMarkPicked@@QAE@XZ 
??0EMarkerPassed@@QAE@ABV0@@Z 
??0EMarkerPassed@@QAE@XZ 
??0EModel2Activate@@QAE@ABV0@@Z 
??0EModel2Activate@@QAE@XZ 
??0EModel2Deactivate@@QAE@ABV0@@Z 
??0EModel2Deactivate@@QAE@XZ 
??0EModel3Activate@@QAE@ABV0@@Z 
??0EModel3Activate@@QAE@XZ 
??0EModel3Deactivate@@QAE@ABV0@@Z 
??0EModel3Deactivate@@QAE@XZ 
??0EModelChange@@QAE@ABV0@@Z 
??0EModelChange@@QAE@XZ 
??0EModelDeath@@QAE@ABV0@@Z 
??0EModelDeath@@QAE@XZ 
??0EModelDeathSpawnAmmoItem@@QAE@ABV0@@Z 
??0EModelDeathSpawnAmmoItem@@QAE@XZ 
??0EModelDeathSpawnArmorItem@@QAE@ABV0@@Z 
??0EModelDeathSpawnArmorItem@@QAE@XZ 
??0EModelDeathSpawnHealthItem@@QAE@ABV0@@Z 
??0EModelDeathSpawnHealthItem@@QAE@XZ 
??0EModelDeathSpawnSpecialItem@@QAE@ABV0@@Z 
??0EModelDeathSpawnSpecialItem@@QAE@XZ 
??0EModelSelfDestruction@@QAE@ABV0@@Z 
??0EModelSelfDestruction@@QAE@XZ 
??0EMoveLeft@@QAE@ABV0@@Z 
??0EMoveLeft@@QAE@XZ 
??0EMoveRight@@QAE@ABV0@@Z 
??0EMoveRight@@QAE@XZ 
??0EMusicChangerTrigger@@QAE@ABV0@@Z 
??0EMusicChangerTrigger@@QAE@XZ 
??0ENetChangeMusic@@QAE@ABV0@@Z 
??0ENetChangeMusic@@QAE@XZ 
??0ENetFireWeapon@@QAE@ABV0@@Z 
??0ENetFireWeapon@@QAE@XZ 
??0ENetReleaseWeapon@@QAE@ABV0@@Z 
??0ENetReleaseWeapon@@QAE@XZ 
??0ENetReloadWeapon@@QAE@ABV0@@Z 
??0ENetReloadWeapon@@QAE@XZ 
??0ENetSelectWeapon@@QAE@ABV0@@Z 
??0ENetSelectWeapon@@QAE@XZ 
??0ENetSpawnEntity@@QAE@ABV0@@Z 
??0ENetSpawnEntity@@QAE@XZ 
??0ENetTrigger@@QAE@ABV0@@Z 
??0ENetTrigger@@QAE@XZ 
??0EOBJ_Add@@QAE@ABV0@@Z 
??0EOBJ_Add@@QAE@XZ 
??0EOBJ_Click@@QAE@ABV0@@Z 
??0EOBJ_Click@@QAE@XZ 
??0EOBJ_Finish@@QAE@ABV0@@Z 
??0EOBJ_Finish@@QAE@XZ 
??0EOBJ_Receive@@QAE@ABV0@@Z 
??0EOBJ_Receive@@QAE@XZ 
??0EOnMarker@@QAE@ABV0@@Z 
??0EOnMarker@@QAE@XZ 
??0EOnPeerDead@@QAE@ABV0@@Z 
??0EOnPeerDead@@QAE@XZ 
??0EOutDrugModeItem@@QAE@ABV0@@Z 
??0EOutDrugModeItem@@QAE@XZ 
??0EOutRange@@QAE@ABV0@@Z 
??0EOutRange@@QAE@XZ 
??0EParticlesActivate@@QAE@ABV0@@Z 
??0EParticlesActivate@@QAE@XZ 
??0EParticlesDeactivate@@QAE@ABV0@@Z 
??0EParticlesDeactivate@@QAE@XZ 
??0EPlayAnim@@QAE@ABV0@@Z 
??0EPlayAnim@@QAE@XZ 
??0EPlayEcstasy@@QAE@ABV0@@Z 
??0EPlayEcstasy@@QAE@XZ 
??0EPlaySoundOnce@@QAE@ABV0@@Z 
??0EPlaySoundOnce@@QAE@XZ 
??0EPlayerDamage@@QAE@ABV0@@Z 
??0EPlayerDamage@@QAE@XZ 
??0EPlayerDeath@@QAE@ABV0@@Z 
??0EPlayerDeath@@QAE@XZ 
??0EPlayerInCloseRange@@QAE@ABV0@@Z 
??0EPlayerInCloseRange@@QAE@XZ 
??0EPlayerKilledEnemy@@QAE@ABV0@@Z 
??0EPlayerKilledEnemy@@QAE@XZ 
??0EPlayerRebirth@@QAE@ABV0@@Z 
??0EPlayerRebirth@@QAE@XZ 
??0EPlayerStats@@QAE@ABV0@@Z 
??0EPlayerStats@@QAE@XZ 
??0EProjectileSpawnClient@@QAE@ABV0@@Z 
??0EProjectileSpawnClient@@QAE@XZ 
??0EProtectorFire@@QAE@ABV0@@Z 
??0EProtectorFire@@QAE@XZ 
??0EProtectorsCleared@@QAE@ABV0@@Z 
??0EProtectorsCleared@@QAE@XZ 
??0ERangeModelDestruction@@QAE@ABV0@@Z 
??0ERangeModelDestruction@@QAE@XZ 
??0ERebirth@@QAE@ABV0@@Z 
??0ERebirth@@QAE@XZ 
??0EReceiveScore@@QAE@ABV0@@Z 
??0EReceiveScore@@QAE@XZ 
??0EReceiveSkaItem@@QAE@ABV0@@Z 
??0EReceiveSkaItem@@QAE@XZ 
??0EReconsiderBehavior@@QAE@ABV0@@Z 
??0EReconsiderBehavior@@QAE@XZ 
??0EReleaseWeapon@@QAE@ABV0@@Z 
??0EReleaseWeapon@@QAE@XZ 
??0EReloadGetAmmo@@QAE@ABV0@@Z 
??0EReloadGetAmmo@@QAE@XZ 
??0EReloadWeapon@@QAE@ABV0@@Z 
??0EReloadWeapon@@QAE@XZ 
??0EReminder@@QAE@ABV0@@Z 
??0EReminder@@QAE@XZ 
??0EReminderInit@@QAE@ABV0@@Z 
??0EReminderInit@@QAE@XZ 
??0ERenderLightning@@QAE@ABV0@@Z 
??0ERenderLightning@@QAE@XZ 
??0ERestartAttack@@QAE@ABV0@@Z 
??0ERestartAttack@@QAE@XZ 
??0ERight@@QAE@ABV0@@Z 
??0ERight@@QAE@XZ 
??0ERightAttack@@QAE@ABV0@@Z 
??0ERightAttack@@QAE@XZ 
??0ERigidityWeapon@@QAE@ABV0@@Z 
??0ERigidityWeapon@@QAE@XZ 
??0ERotateLeft@@QAE@ABV0@@Z 
??0ERotateLeft@@QAE@XZ 
??0ERotateRight@@QAE@ABV0@@Z 
??0ERotateRight@@QAE@XZ 
??0EScroll@@QAE@ABV0@@Z 
??0EScroll@@QAE@XZ 
??0ESecretFound@@QAE@ABV0@@Z 
??0ESecretFound@@QAE@XZ 
??0ESelectOnly@@QAE@ABV0@@Z 
??0ESelectOnly@@QAE@XZ 
??0ESelectWeapon@@QAE@ABV0@@Z 
??0ESelectWeapon@@QAE@XZ 
??0ESetBossGauge@@QAE@ABV0@@Z 
??0ESetBossGauge@@QAE@XZ 
??0ESetPlayerWeapon@@QAE@ABV0@@Z 
??0ESetPlayerWeapon@@QAE@XZ 
??0ESetType@@QAE@ABV0@@Z 
??0ESetType@@QAE@XZ 
??0ESetViewer@@QAE@ABV0@@Z 
??0ESetViewer@@QAE@XZ 
??0EShowConsole@@QAE@ABV0@@Z 
??0EShowConsole@@QAE@XZ 
??0ESkaAmmoItem@@QAE@ABV0@@Z 
??0ESkaAmmoItem@@QAE@XZ 
??0ESkaArmor@@QAE@ABV0@@Z 
??0ESkaArmor@@QAE@XZ 
??0ESkaHealth@@QAE@ABV0@@Z 
??0ESkaHealth@@QAE@XZ 
??0ESkaModelDeath@@QAE@ABV0@@Z 
??0ESkaModelDeath@@QAE@XZ 
??0ESkaMovingModelDestruction@@QAE@ABV0@@Z 
??0ESkaMovingModelDestruction@@QAE@XZ 
??0ESkaSpecialItem@@QAE@ABV0@@Z 
??0ESkaSpecialItem@@QAE@XZ 
??0ESound@@QAE@ABV0@@Z 
??0ESound@@QAE@XZ 
??0ESpawnDebris@@QAE@ABV0@@Z 
??0ESpawnDebris@@QAE@XZ 
??0ESpawnDebrisSka@@QAE@ABV0@@Z 
??0ESpawnDebrisSka@@QAE@XZ 
??0ESpawnEffect@@QAE@ABV0@@Z 
??0ESpawnEffect@@QAE@XZ 
??0ESpawnEffector@@QAE@ABV0@@Z 
??0ESpawnEffector@@QAE@XZ 
??0ESpawnFXEmiter@@QAE@ABV0@@Z 
??0ESpawnFXEmiter@@QAE@XZ 
??0ESpawnFlame@@QAE@ABV0@@Z 
??0ESpawnFlame@@QAE@XZ 
??0ESpawnSpray@@QAE@ABV0@@Z 
??0ESpawnSpray@@QAE@XZ 
??0ESpawnerProjectile@@QAE@ABV0@@Z 
??0ESpawnerProjectile@@QAE@XZ 
??0EStart@@QAE@ABV0@@Z 
??0EStart@@QAE@XZ 
??0EStartAttack@@QAE@ABV0@@Z 
??0EStartAttack@@QAE@XZ 
??0EStartCounter@@QAE@ABV0@@Z 
??0EStartCounter@@QAE@XZ 
??0EStartDancers@@QAE@ABV0@@Z 
??0EStartDancers@@QAE@XZ 
??0EStartPulling@@QAE@ABV0@@Z 
??0EStartPulling@@QAE@XZ 
??0EStartSounds@@QAE@ABV0@@Z 
??0EStartSounds@@QAE@XZ 
??0EStealth@@QAE@ABV0@@Z 
??0EStealth@@QAE@XZ 
??0EStepBack@@QAE@ABV0@@Z 
??0EStepBack@@QAE@XZ 
??0EStop@@QAE@ABV0@@Z 
??0EStop@@QAE@XZ 
??0EStopAttack@@QAE@ABV0@@Z 
??0EStopAttack@@QAE@XZ 
??0EStopBlindness@@QAE@ABV0@@Z 
??0EStopBlindness@@QAE@XZ 
??0EStopCounter@@QAE@ABV0@@Z 
??0EStopCounter@@QAE@XZ 
??0EStopDanceMode@@QAE@ABV0@@Z 
??0EStopDanceMode@@QAE@XZ 
??0EStopDancers@@QAE@ABV0@@Z 
??0EStopDancers@@QAE@XZ 
??0EStopDeafness@@QAE@ABV0@@Z 
??0EStopDeafness@@QAE@XZ 
??0EStopFlaming@@QAE@ABV0@@Z 
??0EStopFlaming@@QAE@XZ 
??0EStopPulling@@QAE@ABV0@@Z 
??0EStopPulling@@QAE@XZ 
??0EStopSounds@@QAE@ABV0@@Z 
??0EStopSounds@@QAE@XZ 
??0ETeleportActivate@@QAE@ABV0@@Z 
??0ETeleportActivate@@QAE@XZ 
??0ETeleportDeactivate@@QAE@ABV0@@Z 
??0ETeleportDeactivate@@QAE@XZ 
??0ETeleportMovingBrush@@QAE@ABV0@@Z 
??0ETeleportMovingBrush@@QAE@XZ 
??0ETextFX@@QAE@ABV0@@Z 
??0ETextFX@@QAE@XZ 
??0EToasterTrigger@@QAE@ABV0@@Z 
??0EToasterTrigger@@QAE@XZ 
??0ETorpedoDamage@@QAE@ABV0@@Z 
??0ETorpedoDamage@@QAE@XZ 
??0ETorpedoExplode@@QAE@ABV0@@Z 
??0ETorpedoExplode@@QAE@XZ 
??0ETrigger@@QAE@ABV0@@Z 
??0ETrigger@@QAE@XZ 
??0ETriggerActionMarker@@QAE@ABV0@@Z 
??0ETriggerActionMarker@@QAE@XZ 
??0ETriggerEffector@@QAE@ABV0@@Z 
??0ETriggerEffector@@QAE@XZ 
??0EViewInit@@QAE@ABV0@@Z 
??0EViewInit@@QAE@XZ 
??0EVoiceMessage@@QAE@ABV0@@Z 
??0EVoiceMessage@@QAE@XZ 
??0EWait@@QAE@ABV0@@Z 
??0EWait@@QAE@XZ 
??0EWatch@@QAE@ABV0@@Z 
??0EWatch@@QAE@XZ 
??0EWatcherInit@@QAE@ABV0@@Z 
??0EWatcherInit@@QAE@XZ 
??0EWeaponChanged@@QAE@ABV0@@Z 
??0EWeaponChanged@@QAE@XZ 
??0EWeaponEffectInit@@QAE@ABV0@@Z 
??0EWeaponEffectInit@@QAE@XZ 
??0EWeaponsInit@@QAE@ABV0@@Z 
??0EWeaponsInit@@QAE@XZ 
??0EWeatherStart@@QAE@ABV0@@Z 
??0EWeatherStart@@QAE@XZ 
??0EWeatherStop@@QAE@ABV0@@Z 
??0EWeatherStop@@QAE@XZ 
??0EWhip@@QAE@ABV0@@Z 
??0EWhip@@QAE@XZ 
??0EbflameOff@@QAE@ABV0@@Z 
??0EbflameOff@@QAE@XZ 
??0EbflameOn@@QAE@ABV0@@Z 
??0EbflameOn@@QAE@XZ 
??0Ebflame_ing@@QAE@ABV0@@Z 
??0Ebflame_ing@@QAE@XZ 
??0PlayerStats@@QAE@XZ 
??1CBullet@@UAE@XZ 
??1CComboManger@@QAE@XZ 
??1CCompMessageID@@QAE@XZ 
??1CEmiter@@QAE@XZ 
??1CEnemyBase@@UAE@XZ 
??1CEnemyDive@@UAE@XZ 
??1CEnemyFly@@UAE@XZ 
??1CEnemyHorse@@UAE@XZ 
??1CEnemyRunInto@@UAE@XZ 
??1CMaria@@UAE@XZ 
??1CNavigationMarker@@UAE@XZ 
??1CPathNode@@QAE@XZ 
??1CPlayer@@UAE@XZ 
??1CPlayerAnimator@@UAE@XZ 
??1CPlayerView@@UAE@XZ 
??1CPlayerWeapons@@UAE@XZ 
??1CPlayerWeapons_L@@UAE@XZ 
??1CProjectile@@UAE@XZ 
??1CReminder@@UAE@XZ 
??1CSkaItem@@UAE@XZ 
??1CWatcher@@UAE@XZ 
??1EActivate@@UAE@XZ 
??1EActivateBlend@@UAE@XZ 
??1EActiveMariaDie@@UAE@XZ 
??1EAddBulletSpray@@UAE@XZ 
??1EAddGoreSpray@@UAE@XZ 
??1EAnimForDamage@@UAE@XZ 
??1EAnimatorInit@@UAE@XZ 
??1EArchitectureDeath@@UAE@XZ 
??1EAttachChild@@UAE@XZ 
??1EAutoAction@@UAE@XZ 
??1EAutoQuickSave@@UAE@XZ 
??1EAvoidProjectiles@@UAE@XZ 
??1EBFlame@@UAE@XZ 
??1EBGravity@@UAE@XZ 
??1EBackMaria@@UAE@XZ 
??1EBackMariaNPC@@UAE@XZ 
??1EBackward@@UAE@XZ 
??1EBasket@@UAE@XZ 
??1EBbSetValue@@UAE@XZ 
??1EBlowUp@@UAE@XZ 
??1EBonus@@UAE@XZ 
??1EBoosterEnd@@UAE@XZ 
??1EBoringWeapon@@UAE@XZ 
??1EBossWounded@@UAE@XZ 
??1EBruceDefenseFinished@@UAE@XZ 
??1EBruceDefenseProjectiles@@UAE@XZ 
??1EBruceTeleport@@UAE@XZ 
??1EBrushDeath@@UAE@XZ 
??1EBrushDestroyed@@UAE@XZ 
??1EBuffaloMoveThroughMarkers@@UAE@XZ 
??1EBulletInit@@UAE@XZ 
??1EBurning@@UAE@XZ 
??1ECameraStart@@UAE@XZ 
??1ECameraStop@@UAE@XZ 
??1ECannotLaunchMaria@@UAE@XZ 
??1ECarSexDamage@@UAE@XZ 
??1ECenterMessage@@UAE@XZ 
??1EChangeAnim@@UAE@XZ 
??1EChangeDance@@UAE@XZ 
??1EChangeGravity@@UAE@XZ 
??1EChangeGravityForce@@UAE@XZ 
??1EChangeMusic@@UAE@XZ 
??1ECloseRangeAttack@@UAE@XZ 
??1ECombo@@UAE@XZ 
??1EComputerMessage@@UAE@XZ 
??1ECopierTrigger@@UAE@XZ 
??1ECoreDamage@@UAE@XZ 
??1ECoreDie@@UAE@XZ 
??1ECoreFlame@@UAE@XZ 
??1ECoreFlameandGrind@@UAE@XZ 
??1ECoreGravity@@UAE@XZ 
??1ECoreGrind@@UAE@XZ 
??1ECorePriestDefault@@UAE@XZ 
??1ECounterCount@@UAE@XZ 
??1ECrazyBegin@@UAE@XZ 
??1ECrazyEnd@@UAE@XZ 
??1ECredits@@UAE@XZ 
??1EDancerAcrobatRemoved@@UAE@XZ 
??1EDancerNormalCreated@@UAE@XZ 
??1EDeactivate@@UAE@XZ 
??1EDeactivateBlend@@UAE@XZ 
??1EDefenseBullet@@UAE@XZ 
??1EDetachChild@@UAE@XZ 
??1EDirectDancers@@UAE@XZ 
??1EDisconnected@@UAE@XZ 
??1EDownMode@@UAE@XZ 
??1EDrugmodeBegin@@UAE@XZ 
??1EDrugmodeEnd@@UAE@XZ 
??1EEnd@@UAE@XZ 
??1EEndActor@@UAE@XZ 
??1EEnding@@UAE@XZ 
??1EEndingCameraStop@@UAE@XZ 
??1EEnemyBaseDamage@@UAE@XZ 
??1EEnemyBaseDeath@@UAE@XZ 
??1EEntityVoice@@UAE@XZ 
??1EEnvironmentStart@@UAE@XZ 
??1EEnvironmentStop@@UAE@XZ 
??1EExplode@@UAE@XZ 
??1EExtraTeleport@@UAE@XZ 
??1EFireBombs@@UAE@XZ 
??1EFireDagger@@UAE@XZ 
??1EFireRocket@@UAE@XZ 
??1EFireWeapon@@UAE@XZ 
??1EFlame@@UAE@XZ 
??1EFlipTheSwitch@@UAE@XZ 
??1EForceWound@@UAE@XZ 
??1EForward@@UAE@XZ 
??1EGetAngry@@UAE@XZ 
??1EGetDamaged@@UAE@XZ 
??1EGotFlower@@UAE@XZ 
??1EGrenadeExplodeNow@@UAE@XZ 
??1EGrindClose@@UAE@XZ 
??1EGrindInit@@UAE@XZ 
??1EGrindOff@@UAE@XZ 
??1EGrindOn@@UAE@XZ 
??1EGrindOpen@@UAE@XZ 
??1EGuard@@UAE@XZ 
??1EGuardState@@UAE@XZ 
??1EHit@@UAE@XZ 
??1EHitBySpaceShipBeam@@UAE@XZ 
??1EHudPicFX@@UAE@XZ 
??1EInDrugModeItem@@UAE@XZ 
??1EInRange@@UAE@XZ 
??1EInitMaria@@UAE@XZ 
??1EInitMariaNPC@@UAE@XZ 
??1EKickBlob@@UAE@XZ 
??1EKilledEnemy@@UAE@XZ 
??1ELamonBikeFireRocket@@UAE@XZ 
??1ELamonBikeMoveThroughMarkers@@UAE@XZ 
??1ELamonBikeSuicide@@UAE@XZ 
??1ELandingActiveMaria@@UAE@XZ 
??1ELandingMaria@@UAE@XZ 
??1ELaunch@@UAE@XZ 
??1ELaunchActiveMaria@@UAE@XZ 
??1ELaunchAx@@UAE@XZ 
??1ELaunchMaria@@UAE@XZ 
??1ELaunchMariaNPC@@UAE@XZ 
??1ELaunchProjectile@@UAE@XZ 
??1ELeft@@UAE@XZ 
??1ELisa@@UAE@XZ 
??1EMarkPicked@@UAE@XZ 
??1EMarkerPassed@@UAE@XZ 
??1EModel2Activate@@UAE@XZ 
??1EModel2Deactivate@@UAE@XZ 
??1EModel3Activate@@UAE@XZ 
??1EModel3Deactivate@@UAE@XZ 
??1EModelChange@@UAE@XZ 
??1EModelDeath@@UAE@XZ 
??1EModelDeathSpawnAmmoItem@@UAE@XZ 
??1EModelDeathSpawnArmorItem@@UAE@XZ 
??1EModelDeathSpawnHealthItem@@UAE@XZ 
??1EModelDeathSpawnSpecialItem@@UAE@XZ 
??1EModelSelfDestruction@@UAE@XZ 
??1EMoveLeft@@UAE@XZ 
??1EMoveRight@@UAE@XZ 
??1EMusicChangerTrigger@@UAE@XZ 
??1ENetChangeMusic@@UAE@XZ 
??1ENetFireWeapon@@UAE@XZ 
??1ENetReleaseWeapon@@UAE@XZ 
??1ENetReloadWeapon@@UAE@XZ 
??1ENetSelectWeapon@@UAE@XZ 
??1ENetSpawnEntity@@UAE@XZ 
??1ENetTrigger@@UAE@XZ 
??1EOBJ_Add@@UAE@XZ 
??1EOBJ_Click@@UAE@XZ 
??1EOBJ_Finish@@UAE@XZ 
??1EOBJ_Receive@@UAE@XZ 
??1EOnMarker@@UAE@XZ 
??1EOnPeerDead@@UAE@XZ 
??1EOutDrugModeItem@@UAE@XZ 
??1EOutRange@@UAE@XZ 
??1EParticlesActivate@@UAE@XZ 
??1EParticlesDeactivate@@UAE@XZ 
??1EPlayAnim@@UAE@XZ 
??1EPlayEcstasy@@UAE@XZ 
??1EPlaySoundOnce@@UAE@XZ 
??1EPlayerDamage@@UAE@XZ 
??1EPlayerDeath@@UAE@XZ 
??1EPlayerInCloseRange@@UAE@XZ 
??1EPlayerKilledEnemy@@UAE@XZ 
??1EPlayerRebirth@@UAE@XZ 
??1EPlayerStats@@UAE@XZ 
??1EProjectileSpawnClient@@UAE@XZ 
??1EProtectorFire@@UAE@XZ 
??1EProtectorsCleared@@UAE@XZ 
??1ERangeModelDestruction@@UAE@XZ 
??1ERebirth@@UAE@XZ 
??1EReceiveScore@@UAE@XZ 
??1EReceiveSkaItem@@UAE@XZ 
??1EReconsiderBehavior@@UAE@XZ 
??1EReleaseWeapon@@UAE@XZ 
??1EReloadGetAmmo@@UAE@XZ 
??1EReloadWeapon@@UAE@XZ 
??1EReminder@@UAE@XZ 
??1EReminderInit@@UAE@XZ 
??1ERenderLightning@@UAE@XZ 
??1ERestartAttack@@UAE@XZ 
??1ERight@@UAE@XZ 
??1ERightAttack@@UAE@XZ 
??1ERigidityWeapon@@UAE@XZ 
??1ERotateLeft@@UAE@XZ 
??1ERotateRight@@UAE@XZ 
??1EScroll@@UAE@XZ 
??1ESecretFound@@UAE@XZ 
??1ESelectOnly@@UAE@XZ 
??1ESelectWeapon@@UAE@XZ 
??1ESetBossGauge@@UAE@XZ 
??1ESetPlayerWeapon@@UAE@XZ 
??1ESetType@@UAE@XZ 
??1ESetViewer@@UAE@XZ 
??1EShowConsole@@UAE@XZ 
??1ESkaAmmoItem@@UAE@XZ 
??1ESkaArmor@@UAE@XZ 
??1ESkaHealth@@UAE@XZ 
??1ESkaModelDeath@@UAE@XZ 
??1ESkaMovingModelDestruction@@UAE@XZ 
??1ESkaSpecialItem@@UAE@XZ 
??1ESound@@UAE@XZ 
??1ESpawnDebris@@UAE@XZ 
??1ESpawnDebrisSka@@UAE@XZ 
??1ESpawnEffect@@UAE@XZ 
??1ESpawnEffector@@UAE@XZ 
??1ESpawnFXEmiter@@UAE@XZ 
??1ESpawnFlame@@UAE@XZ 
??1ESpawnSpray@@UAE@XZ 
??1ESpawnerProjectile@@UAE@XZ 
??1EStart@@UAE@XZ 
??1EStartAttack@@UAE@XZ 
??1EStartCounter@@UAE@XZ 
??1EStartDancers@@UAE@XZ 
??1EStartPulling@@UAE@XZ 
??1EStartSounds@@UAE@XZ 
??1EStealth@@UAE@XZ 
??1EStepBack@@UAE@XZ 
??1EStop@@UAE@XZ 
??1EStopAttack@@UAE@XZ 
??1EStopBlindness@@UAE@XZ 
??1EStopCounter@@UAE@XZ 
??1EStopDanceMode@@UAE@XZ 
??1EStopDancers@@UAE@XZ 
??1EStopDeafness@@UAE@XZ 
??1EStopFlaming@@UAE@XZ 
??1EStopPulling@@UAE@XZ 
??1EStopSounds@@UAE@XZ 
??1ETeleportActivate@@UAE@XZ 
??1ETeleportDeactivate@@UAE@XZ 
??1ETeleportMovingBrush@@UAE@XZ 
??1ETextFX@@UAE@XZ 
??1EToasterTrigger@@UAE@XZ 
??1ETorpedoDamage@@UAE@XZ 
??1ETorpedoExplode@@UAE@XZ 
??1ETrigger@@UAE@XZ 
??1ETriggerActionMarker@@UAE@XZ 
??1ETriggerEffector@@UAE@XZ 
??1EViewInit@@UAE@XZ 
??1EVoiceMessage@@UAE@XZ 
??1EWait@@UAE@XZ 
??1EWatch@@UAE@XZ 
??1EWatcherInit@@UAE@XZ 
??1EWeaponChanged@@UAE@XZ 
??1EWeaponEffectInit@@UAE@XZ 
??1EWeaponsInit@@UAE@XZ 
??1EWeatherStart@@UAE@XZ 
??1EWeatherStop@@UAE@XZ 
??1EWhip@@UAE@XZ 
??1EbflameOff@@UAE@XZ 
??1EbflameOn@@UAE@XZ 
??1Ebflame_ing@@UAE@XZ 
??4CBullet@@QAEAAV0@AAV0@@Z 
??4CComboManger@@QAEAAV0@ABV0@@Z 
??4CCompMessageID@@QAEAAV0@ABV0@@Z 
??4CEmiter@@QAEAAV0@ABV0@@Z 
??4CEmittedParticle@@QAEAAV0@ABV0@@Z 
??4CEnemyBase@@QAEAAV0@AAV0@@Z 
??4CEnemyDive@@QAEAAV0@AAV0@@Z 
??4CEnemyFly@@QAEAAV0@AAV0@@Z 
??4CEnemyHorse@@QAEAAV0@AAV0@@Z 
??4CEnemyRunInto@@QAEAAV0@AAV0@@Z 
??4CMaria@@QAEAAV0@AAV0@@Z 
??4CNavigationMarker@@QAEAAV0@AAV0@@Z 
??4CPathNode@@QAEAAV0@ABV0@@Z 
??4CPlayer@@QAEAAV0@AAV0@@Z 
??4CPlayerAnimator@@QAEAAV0@AAV0@@Z 
??4CPlayerView@@QAEAAV0@AAV0@@Z 
??4CPlayerWeapons@@QAEAAV0@AAV0@@Z 
??4CPlayerWeapons_L@@QAEAAV0@AAV0@@Z 
??4CProjectile@@QAEAAV0@AAV0@@Z 
??4CReminder@@QAEAAV0@AAV0@@Z 
??4CSkaItem@@QAEAAV0@AAV0@@Z 
??4CWatcher@@QAEAAV0@AAV0@@Z 
??4EActivate@@QAEAAV0@ABV0@@Z 
??4EActivateBlend@@QAEAAV0@ABV0@@Z 
??4EActiveMariaDie@@QAEAAV0@ABV0@@Z 
??4EAddBulletSpray@@QAEAAV0@ABV0@@Z 
??4EAddGoreSpray@@QAEAAV0@ABV0@@Z 
??4EAnimForDamage@@QAEAAV0@ABV0@@Z 
??4EAnimatorInit@@QAEAAV0@AAV0@@Z 
??4EArchitectureDeath@@QAEAAV0@ABV0@@Z 
??4EAttachChild@@QAEAAV0@ABV0@@Z 
??4EAutoAction@@QAEAAV0@AAV0@@Z 
??4EAutoQuickSave@@QAEAAV0@ABV0@@Z 
??4EAvoidProjectiles@@QAEAAV0@ABV0@@Z 
??4EBFlame@@QAEAAV0@ABV0@@Z 
??4EBGravity@@QAEAAV0@ABV0@@Z 
??4EBackMaria@@QAEAAV0@ABV0@@Z 
??4EBackMariaNPC@@QAEAAV0@ABV0@@Z 
??4EBackward@@QAEAAV0@ABV0@@Z 
??4EBasket@@QAEAAV0@ABV0@@Z 
??4EBbSetValue@@QAEAAV0@ABV0@@Z 
??4EBlowUp@@QAEAAV0@ABV0@@Z 
??4EBonus@@QAEAAV0@ABV0@@Z 
??4EBoosterEnd@@QAEAAV0@ABV0@@Z 
??4EBoringWeapon@@QAEAAV0@ABV0@@Z 
??4EBossWounded@@QAEAAV0@ABV0@@Z 
??4EBruceDefenseFinished@@QAEAAV0@ABV0@@Z 
??4EBruceDefenseProjectiles@@QAEAAV0@ABV0@@Z 
??4EBruceTeleport@@QAEAAV0@ABV0@@Z 
??4EBrushDeath@@QAEAAV0@AAV0@@Z 
??4EBrushDestroyed@@QAEAAV0@ABV0@@Z 
??4EBuffaloMoveThroughMarkers@@QAEAAV0@ABV0@@Z 
??4EBulletInit@@QAEAAV0@AAV0@@Z 
??4EBurning@@QAEAAV0@ABV0@@Z 
??4ECameraStart@@QAEAAV0@ABV0@@Z 
??4ECameraStop@@QAEAAV0@ABV0@@Z 
??4ECannotLaunchMaria@@QAEAAV0@ABV0@@Z 
??4ECarSexDamage@@QAEAAV0@ABV0@@Z 
??4ECenterMessage@@QAEAAV0@ABV0@@Z 
??4EChangeAnim@@QAEAAV0@ABV0@@Z 
??4EChangeDance@@QAEAAV0@ABV0@@Z 
??4EChangeGravity@@QAEAAV0@ABV0@@Z 
??4EChangeGravityForce@@QAEAAV0@ABV0@@Z 
??4EChangeMusic@@QAEAAV0@ABV0@@Z 
??4ECloseRangeAttack@@QAEAAV0@ABV0@@Z 
??4ECombo@@QAEAAV0@ABV0@@Z 
??4EComputerMessage@@QAEAAV0@ABV0@@Z 
??4ECopierTrigger@@QAEAAV0@ABV0@@Z 
??4ECoreDamage@@QAEAAV0@ABV0@@Z 
??4ECoreDie@@QAEAAV0@ABV0@@Z 
??4ECoreFlame@@QAEAAV0@ABV0@@Z 
??4ECoreFlameandGrind@@QAEAAV0@ABV0@@Z 
??4ECoreGravity@@QAEAAV0@ABV0@@Z 
??4ECoreGrind@@QAEAAV0@ABV0@@Z 
??4ECorePriestDefault@@QAEAAV0@ABV0@@Z 
??4ECounterCount@@QAEAAV0@ABV0@@Z 
??4ECrazyBegin@@QAEAAV0@ABV0@@Z 
??4ECrazyEnd@@QAEAAV0@ABV0@@Z 
??4ECredits@@QAEAAV0@ABV0@@Z 
??4EDancerAcrobatRemoved@@QAEAAV0@ABV0@@Z 
??4EDancerNormalCreated@@QAEAAV0@ABV0@@Z 
??4EDeactivate@@QAEAAV0@ABV0@@Z 
??4EDeactivateBlend@@QAEAAV0@ABV0@@Z 
??4EDefenseBullet@@QAEAAV0@ABV0@@Z 
??4EDetachChild@@QAEAAV0@ABV0@@Z 
??4EDirectDancers@@QAEAAV0@ABV0@@Z 
??4EDisconnected@@QAEAAV0@ABV0@@Z 
??4EDownMode@@QAEAAV0@ABV0@@Z 
??4EDrugmodeBegin@@QAEAAV0@ABV0@@Z 
??4EDrugmodeEnd@@QAEAAV0@ABV0@@Z 
??4EEnd@@QAEAAV0@ABV0@@Z 
??4EEndActor@@QAEAAV0@ABV0@@Z 
??4EEnding@@QAEAAV0@ABV0@@Z 
??4EEndingCameraStop@@QAEAAV0@ABV0@@Z 
??4EEnemyBaseDamage@@QAEAAV0@AAV0@@Z 
??4EEnemyBaseDeath@@QAEAAV0@AAV0@@Z 
??4EEntityVoice@@QAEAAV0@ABV0@@Z 
??4EEnvironmentStart@@QAEAAV0@ABV0@@Z 
??4EEnvironmentStop@@QAEAAV0@ABV0@@Z 
??4EExplode@@QAEAAV0@ABV0@@Z 
??4EExtraTeleport@@QAEAAV0@ABV0@@Z 
??4EFireBombs@@QAEAAV0@ABV0@@Z 
??4EFireDagger@@QAEAAV0@ABV0@@Z 
??4EFireRocket@@QAEAAV0@ABV0@@Z 
??4EFireWeapon@@QAEAAV0@ABV0@@Z 
??4EFlame@@QAEAAV0@AAV0@@Z 
??4EFlipTheSwitch@@QAEAAV0@ABV0@@Z 
??4EForceWound@@QAEAAV0@ABV0@@Z 
??4EForward@@QAEAAV0@ABV0@@Z 
??4EGetAngry@@QAEAAV0@ABV0@@Z 
??4EGetDamaged@@QAEAAV0@ABV0@@Z 
??4EGotFlower@@QAEAAV0@ABV0@@Z 
??4EGrenadeExplodeNow@@QAEAAV0@ABV0@@Z 
??4EGrindClose@@QAEAAV0@ABV0@@Z 
??4EGrindInit@@QAEAAV0@ABV0@@Z 
??4EGrindOff@@QAEAAV0@ABV0@@Z 
??4EGrindOn@@QAEAAV0@ABV0@@Z 
??4EGrindOpen@@QAEAAV0@ABV0@@Z 
??4EGuard@@QAEAAV0@ABV0@@Z 
??4EGuardState@@QAEAAV0@ABV0@@Z 
??4EHit@@QAEAAV0@ABV0@@Z 
??4EHitBySpaceShipBeam@@QAEAAV0@ABV0@@Z 
??4EHudPicFX@@QAEAAV0@ABV0@@Z 
??4EInDrugModeItem@@QAEAAV0@ABV0@@Z 
??4EInRange@@QAEAAV0@ABV0@@Z 
??4EInitMaria@@QAEAAV0@ABV0@@Z 
??4EInitMariaNPC@@QAEAAV0@ABV0@@Z 
??4EKickBlob@@QAEAAV0@ABV0@@Z 
??4EKilledEnemy@@QAEAAV0@ABV0@@Z 
??4ELamonBikeFireRocket@@QAEAAV0@ABV0@@Z 
??4ELamonBikeMoveThroughMarkers@@QAEAAV0@ABV0@@Z 
??4ELamonBikeSuicide@@QAEAAV0@ABV0@@Z 
??4ELandingActiveMaria@@QAEAAV0@ABV0@@Z 
??4ELandingMaria@@QAEAAV0@ABV0@@Z 
??4ELaunch@@QAEAAV0@ABV0@@Z 
??4ELaunchActiveMaria@@QAEAAV0@ABV0@@Z 
??4ELaunchAx@@QAEAAV0@ABV0@@Z 
??4ELaunchMaria@@QAEAAV0@ABV0@@Z 
??4ELaunchMariaNPC@@QAEAAV0@ABV0@@Z 
??4ELaunchProjectile@@QAEAAV0@AAV0@@Z 
??4ELeft@@QAEAAV0@ABV0@@Z 
??4ELisa@@QAEAAV0@ABV0@@Z 
??4EMarkPicked@@QAEAAV0@AAV0@@Z 
??4EMarkerPassed@@QAEAAV0@ABV0@@Z 
??4EModel2Activate@@QAEAAV0@ABV0@@Z 
??4EModel2Deactivate@@QAEAAV0@ABV0@@Z 
??4EModel3Activate@@QAEAAV0@ABV0@@Z 
??4EModel3Deactivate@@QAEAAV0@ABV0@@Z 
??4EModelChange@@QAEAAV0@ABV0@@Z 
??4EModelDeath@@QAEAAV0@ABV0@@Z 
??4EModelDeathSpawnAmmoItem@@QAEAAV0@ABV0@@Z 
??4EModelDeathSpawnArmorItem@@QAEAAV0@ABV0@@Z 
??4EModelDeathSpawnHealthItem@@QAEAAV0@ABV0@@Z 
??4EModelDeathSpawnSpecialItem@@QAEAAV0@ABV0@@Z 
??4EModelSelfDestruction@@QAEAAV0@ABV0@@Z 
??4EMoveLeft@@QAEAAV0@ABV0@@Z 
??4EMoveRight@@QAEAAV0@ABV0@@Z 
??4EMusicChangerTrigger@@QAEAAV0@ABV0@@Z 
??4ENetChangeMusic@@QAEAAV0@ABV0@@Z 
??4ENetFireWeapon@@QAEAAV0@ABV0@@Z 
??4ENetReleaseWeapon@@QAEAAV0@ABV0@@Z 
??4ENetReloadWeapon@@QAEAAV0@ABV0@@Z 
??4ENetSelectWeapon@@QAEAAV0@ABV0@@Z 
??4ENetSpawnEntity@@QAEAAV0@ABV0@@Z 
??4ENetTrigger@@QAEAAV0@ABV0@@Z 
??4EOBJ_Add@@QAEAAV0@ABV0@@Z 
??4EOBJ_Click@@QAEAAV0@ABV0@@Z 
??4EOBJ_Finish@@QAEAAV0@ABV0@@Z 
??4EOBJ_Receive@@QAEAAV0@ABV0@@Z 
??4EOnMarker@@QAEAAV0@ABV0@@Z 
??4EOnPeerDead@@QAEAAV0@ABV0@@Z 
??4EOutDrugModeItem@@QAEAAV0@ABV0@@Z 
??4EOutRange@@QAEAAV0@ABV0@@Z 
??4EParticlesActivate@@QAEAAV0@ABV0@@Z 
??4EParticlesDeactivate@@QAEAAV0@ABV0@@Z 
??4EPlayAnim@@QAEAAV0@ABV0@@Z 
??4EPlayEcstasy@@QAEAAV0@ABV0@@Z 
??4EPlaySoundOnce@@QAEAAV0@ABV0@@Z 
??4EPlayerDamage@@QAEAAV0@ABV0@@Z 
??4EPlayerDeath@@QAEAAV0@AAV0@@Z 
??4EPlayerInCloseRange@@QAEAAV0@ABV0@@Z 
??4EPlayerKilledEnemy@@QAEAAV0@AAV0@@Z 
??4EPlayerRebirth@@QAEAAV0@ABV0@@Z 
??4EPlayerStats@@QAEAAV0@ABV0@@Z 
??4EProjectileSpawnClient@@QAEAAV0@ABV0@@Z 
??4EProtectorFire@@QAEAAV0@ABV0@@Z 
??4EProtectorsCleared@@QAEAAV0@ABV0@@Z 
??4ERangeModelDestruction@@QAEAAV0@ABV0@@Z 
??4ERebirth@@QAEAAV0@ABV0@@Z 
??4EReceiveScore@@QAEAAV0@ABV0@@Z 
??4EReceiveSkaItem@@QAEAAV0@ABV0@@Z 
??4EReconsiderBehavior@@QAEAAV0@ABV0@@Z 
??4EReleaseWeapon@@QAEAAV0@ABV0@@Z 
??4EReloadGetAmmo@@QAEAAV0@ABV0@@Z 
??4EReloadWeapon@@QAEAAV0@ABV0@@Z 
??4EReminder@@QAEAAV0@ABV0@@Z 
??4EReminderInit@@QAEAAV0@AAV0@@Z 
??4ERenderLightning@@QAEAAV0@ABV0@@Z 
??4ERestartAttack@@QAEAAV0@ABV0@@Z 
??4ERight@@QAEAAV0@ABV0@@Z 
??4ERightAttack@@QAEAAV0@ABV0@@Z 
??4ERigidityWeapon@@QAEAAV0@ABV0@@Z 
??4ERotateLeft@@QAEAAV0@ABV0@@Z 
??4ERotateRight@@QAEAAV0@ABV0@@Z 
??4EScroll@@QAEAAV0@ABV0@@Z 
??4ESecretFound@@QAEAAV0@ABV0@@Z 
??4ESelectOnly@@QAEAAV0@ABV0@@Z 
??4ESelectWeapon@@QAEAAV0@ABV0@@Z 
??4ESetBossGauge@@QAEAAV0@ABV0@@Z 
??4ESetPlayerWeapon@@QAEAAV0@ABV0@@Z 
??4ESetType@@QAEAAV0@ABV0@@Z 
??4ESetViewer@@QAEAAV0@ABV0@@Z 
??4EShowConsole@@QAEAAV0@ABV0@@Z 
??4ESkaAmmoItem@@QAEAAV0@ABV0@@Z 
??4ESkaArmor@@QAEAAV0@ABV0@@Z 
??4ESkaHealth@@QAEAAV0@ABV0@@Z 
??4ESkaModelDeath@@QAEAAV0@AAV0@@Z 
??4ESkaMovingModelDestruction@@QAEAAV0@ABV0@@Z 
??4ESkaSpecialItem@@QAEAAV0@ABV0@@Z 
??4ESound@@QAEAAV0@ABV0@@Z 
??4ESpawnDebris@@QAEAAV0@ABV0@@Z 
??4ESpawnDebrisSka@@QAEAAV0@ABV0@@Z 
??4ESpawnEffect@@QAEAAV0@ABV0@@Z 
??4ESpawnEffector@@QAEAAV0@AAV0@@Z 
??4ESpawnFXEmiter@@QAEAAV0@ABV0@@Z 
??4ESpawnFlame@@QAEAAV0@AAV0@@Z 
??4ESpawnSpray@@QAEAAV0@AAV0@@Z 
??4ESpawnerProjectile@@QAEAAV0@AAV0@@Z 
??4EStart@@QAEAAV0@ABV0@@Z 
??4EStartAttack@@QAEAAV0@ABV0@@Z 
??4EStartCounter@@QAEAAV0@ABV0@@Z 
??4EStartDancers@@QAEAAV0@ABV0@@Z 
??4EStartPulling@@QAEAAV0@ABV0@@Z 
??4EStartSounds@@QAEAAV0@ABV0@@Z 
??4EStealth@@QAEAAV0@ABV0@@Z 
??4EStepBack@@QAEAAV0@ABV0@@Z 
??4EStop@@QAEAAV0@ABV0@@Z 
??4EStopAttack@@QAEAAV0@ABV0@@Z 
??4EStopBlindness@@QAEAAV0@ABV0@@Z 
??4EStopCounter@@QAEAAV0@ABV0@@Z 
??4EStopDanceMode@@QAEAAV0@ABV0@@Z 
??4EStopDancers@@QAEAAV0@ABV0@@Z 
??4EStopDeafness@@QAEAAV0@ABV0@@Z 
??4EStopFlaming@@QAEAAV0@ABV0@@Z 
??4EStopPulling@@QAEAAV0@ABV0@@Z 
??4EStopSounds@@QAEAAV0@ABV0@@Z 
??4ETeleportActivate@@QAEAAV0@ABV0@@Z 
??4ETeleportDeactivate@@QAEAAV0@ABV0@@Z 
??4ETeleportMovingBrush@@QAEAAV0@ABV0@@Z 
??4ETextFX@@QAEAAV0@ABV0@@Z 
??4EToasterTrigger@@QAEAAV0@ABV0@@Z 
??4ETorpedoDamage@@QAEAAV0@ABV0@@Z 
??4ETorpedoExplode@@QAEAAV0@ABV0@@Z 
??4ETrigger@@QAEAAV0@ABV0@@Z 
??4ETriggerActionMarker@@QAEAAV0@ABV0@@Z 
??4ETriggerEffector@@QAEAAV0@ABV0@@Z 
??4EViewInit@@QAEAAV0@AAV0@@Z 
??4EVoiceMessage@@QAEAAV0@ABV0@@Z 
??4EWait@@QAEAAV0@ABV0@@Z 
??4EWatch@@QAEAAV0@AAV0@@Z 
??4EWatcherInit@@QAEAAV0@AAV0@@Z 
??4EWeaponChanged@@QAEAAV0@ABV0@@Z 
??4EWeaponEffectInit@@QAEAAV0@ABV0@@Z 
??4EWeaponsInit@@QAEAAV0@AAV0@@Z 
??4EWeatherStart@@QAEAAV0@ABV0@@Z 
??4EWeatherStop@@QAEAAV0@ABV0@@Z 
??4EWhip@@QAEAAV0@ABV0@@Z 
??4EbflameOff@@QAEAAV0@ABV0@@Z 
??4EbflameOn@@QAEAAV0@ABV0@@Z 
??4Ebflame_ing@@QAEAAV0@ABV0@@Z 
??4PlayerStats@@QAEAAU0@ABU0@@Z 
??_7CBullet@@6B@ 
??_7CEnemyBase@@6B@ 
??_7CEnemyDive@@6B@ 
??_7CEnemyFly@@6B@ 
??_7CEnemyHorse@@6B@ 
??_7CEnemyRunInto@@6B@ 
??_7CMaria@@6B@ 
??_7CNavigationMarker@@6B@ 
??_7CPlayer@@6B@ 
??_7CPlayerAnimator@@6B@ 
??_7CPlayerView@@6B@ 
??_7CPlayerWeapons@@6B@ 
??_7CPlayerWeapons_L@@6B@ 
??_7CProjectile@@6B@ 
??_7CReminder@@6B@ 
??_7CSkaItem@@6B@ 
??_7CWatcher@@6B@ 
??_7EActivate@@6B@ 
??_7EActivateBlend@@6B@ 
??_7EActiveMariaDie@@6B@ 
??_7EAddBulletSpray@@6B@ 
??_7EAddGoreSpray@@6B@ 
??_7EAnimForDamage@@6B@ 
??_7EAnimatorInit@@6B@ 
??_7EArchitectureDeath@@6B@ 
??_7EAttachChild@@6B@ 
??_7EAutoAction@@6B@ 
??_7EAutoQuickSave@@6B@ 
??_7EAvoidProjectiles@@6B@ 
??_7EBFlame@@6B@ 
??_7EBGravity@@6B@ 
??_7EBackMaria@@6B@ 
??_7EBackMariaNPC@@6B@ 
??_7EBackward@@6B@ 
??_7EBasket@@6B@ 
??_7EBbSetValue@@6B@ 
??_7EBlowUp@@6B@ 
??_7EBonus@@6B@ 
??_7EBoosterEnd@@6B@ 
??_7EBoringWeapon@@6B@ 
??_7EBossWounded@@6B@ 
??_7EBruceDefenseFinished@@6B@ 
??_7EBruceDefenseProjectiles@@6B@ 
??_7EBruceTeleport@@6B@ 
??_7EBrushDeath@@6B@ 
??_7EBrushDestroyed@@6B@ 
??_7EBuffaloMoveThroughMarkers@@6B@ 
??_7EBulletInit@@6B@ 
??_7EBurning@@6B@ 
??_7ECameraStart@@6B@ 
??_7ECameraStop@@6B@ 
??_7ECannotLaunchMaria@@6B@ 
??_7ECarSexDamage@@6B@ 
??_7ECenterMessage@@6B@ 
??_7EChangeAnim@@6B@ 
??_7EChangeDance@@6B@ 
??_7EChangeGravity@@6B@ 
??_7EChangeGravityForce@@6B@ 
??_7EChangeMusic@@6B@ 
??_7ECloseRangeAttack@@6B@ 
??_7ECombo@@6B@ 
??_7EComputerMessage@@6B@ 
??_7ECopierTrigger@@6B@ 
??_7ECoreDamage@@6B@ 
??_7ECoreDie@@6B@ 
??_7ECoreFlame@@6B@ 
??_7ECoreFlameandGrind@@6B@ 
??_7ECoreGravity@@6B@ 
??_7ECoreGrind@@6B@ 
??_7ECorePriestDefault@@6B@ 
??_7ECounterCount@@6B@ 
??_7ECrazyBegin@@6B@ 
??_7ECrazyEnd@@6B@ 
??_7ECredits@@6B@ 
??_7EDancerAcrobatRemoved@@6B@ 
??_7EDancerNormalCreated@@6B@ 
??_7EDeactivate@@6B@ 
??_7EDeactivateBlend@@6B@ 
??_7EDefenseBullet@@6B@ 
??_7EDetachChild@@6B@ 
??_7EDirectDancers@@6B@ 
??_7EDisconnected@@6B@ 
??_7EDownMode@@6B@ 
??_7EDrugmodeBegin@@6B@ 
??_7EDrugmodeEnd@@6B@ 
??_7EEnd@@6B@ 
??_7EEndActor@@6B@ 
??_7EEnding@@6B@ 
??_7EEndingCameraStop@@6B@ 
??_7EEnemyBaseDamage@@6B@ 
??_7EEnemyBaseDeath@@6B@ 
??_7EEntityVoice@@6B@ 
??_7EEnvironmentStart@@6B@ 
??_7EEnvironmentStop@@6B@ 
??_7EExplode@@6B@ 
??_7EExtraTeleport@@6B@ 
??_7EFireBombs@@6B@ 
??_7EFireDagger@@6B@ 
??_7EFireRocket@@6B@ 
??_7EFireWeapon@@6B@ 
??_7EFlame@@6B@ 
??_7EFlipTheSwitch@@6B@ 
??_7EForceWound@@6B@ 
??_7EForward@@6B@ 
??_7EGetAngry@@6B@ 
??_7EGetDamaged@@6B@ 
??_7EGotFlower@@6B@ 
??_7EGrenadeExplodeNow@@6B@ 
??_7EGrindClose@@6B@ 
??_7EGrindInit@@6B@ 
??_7EGrindOff@@6B@ 
??_7EGrindOn@@6B@ 
??_7EGrindOpen@@6B@ 
??_7EGuard@@6B@ 
??_7EGuardState@@6B@ 
??_7EHit@@6B@ 
??_7EHitBySpaceShipBeam@@6B@ 
??_7EHudPicFX@@6B@ 
??_7EInDrugModeItem@@6B@ 
??_7EInRange@@6B@ 
??_7EInitMaria@@6B@ 
??_7EInitMariaNPC@@6B@ 
??_7EKickBlob@@6B@ 
??_7EKilledEnemy@@6B@ 
??_7ELamonBikeFireRocket@@6B@ 
??_7ELamonBikeMoveThroughMarkers@@6B@ 
??_7ELamonBikeSuicide@@6B@ 
??_7ELandingActiveMaria@@6B@ 
??_7ELandingMaria@@6B@ 
??_7ELaunch@@6B@ 
??_7ELaunchActiveMaria@@6B@ 
??_7ELaunchAx@@6B@ 
??_7ELaunchMaria@@6B@ 
??_7ELaunchMariaNPC@@6B@ 
??_7ELaunchProjectile@@6B@ 
??_7ELeft@@6B@ 
??_7ELisa@@6B@ 
??_7EMarkPicked@@6B@ 
??_7EMarkerPassed@@6B@ 
??_7EModel2Activate@@6B@ 
??_7EModel2Deactivate@@6B@ 
??_7EModel3Activate@@6B@ 
??_7EModel3Deactivate@@6B@ 
??_7EModelChange@@6B@ 
??_7EModelDeath@@6B@ 
??_7EModelDeathSpawnAmmoItem@@6B@ 
??_7EModelDeathSpawnArmorItem@@6B@ 
??_7EModelDeathSpawnHealthItem@@6B@ 
??_7EModelDeathSpawnSpecialItem@@6B@ 
??_7EModelSelfDestruction@@6B@ 
??_7EMoveLeft@@6B@ 
??_7EMoveRight@@6B@ 
??_7EMusicChangerTrigger@@6B@ 
??_7ENetChangeMusic@@6B@ 
??_7ENetFireWeapon@@6B@ 
??_7ENetReleaseWeapon@@6B@ 
??_7ENetReloadWeapon@@6B@ 
??_7ENetSelectWeapon@@6B@ 
??_7ENetSpawnEntity@@6B@ 
??_7ENetTrigger@@6B@ 
??_7EOBJ_Add@@6B@ 
??_7EOBJ_Click@@6B@ 
??_7EOBJ_Finish@@6B@ 
??_7EOBJ_Receive@@6B@ 
??_7EOnMarker@@6B@ 
??_7EOnPeerDead@@6B@ 
??_7EOutDrugModeItem@@6B@ 
??_7EOutRange@@6B@ 
??_7EParticlesActivate@@6B@ 
??_7EParticlesDeactivate@@6B@ 
??_7EPlayAnim@@6B@ 
??_7EPlayEcstasy@@6B@ 
??_7EPlaySoundOnce@@6B@ 
??_7EPlayerDamage@@6B@ 
??_7EPlayerDeath@@6B@ 
??_7EPlayerInCloseRange@@6B@ 
??_7EPlayerKilledEnemy@@6B@ 
??_7EPlayerRebirth@@6B@ 
??_7EPlayerStats@@6B@ 
??_7EProjectileSpawnClient@@6B@ 
??_7EProtectorFire@@6B@ 
??_7EProtectorsCleared@@6B@ 
??_7ERangeModelDestruction@@6B@ 
??_7ERebirth@@6B@ 
??_7EReceiveScore@@6B@ 
??_7EReceiveSkaItem@@6B@ 
??_7EReconsiderBehavior@@6B@ 
??_7EReleaseWeapon@@6B@ 
??_7EReloadGetAmmo@@6B@ 
??_7EReloadWeapon@@6B@ 
??_7EReminder@@6B@ 
??_7EReminderInit@@6B@ 
??_7ERenderLightning@@6B@ 
??_7ERestartAttack@@6B@ 
??_7ERight@@6B@ 
??_7ERightAttack@@6B@ 
??_7ERigidityWeapon@@6B@ 
??_7ERotateLeft@@6B@ 
??_7ERotateRight@@6B@ 
??_7EScroll@@6B@ 
??_7ESecretFound@@6B@ 
??_7ESelectOnly@@6B@ 
??_7ESelectWeapon@@6B@ 
??_7ESetBossGauge@@6B@ 
??_7ESetPlayerWeapon@@6B@ 
??_7ESetType@@6B@ 
??_7ESetViewer@@6B@ 
??_7EShowConsole@@6B@ 
??_7ESkaAmmoItem@@6B@ 
??_7ESkaArmor@@6B@ 
??_7ESkaHealth@@6B@ 
??_7ESkaModelDeath@@6B@ 
??_7ESkaMovingModelDestruction@@6B@ 
??_7ESkaSpecialItem@@6B@ 
??_7ESound@@6B@ 
??_7ESpawnDebris@@6B@ 
??_7ESpawnDebrisSka@@6B@ 
??_7ESpawnEffect@@6B@ 
??_7ESpawnEffector@@6B@ 
??_7ESpawnFXEmiter@@6B@ 
??_7ESpawnFlame@@6B@ 
??_7ESpawnSpray@@6B@ 
??_7ESpawnerProjectile@@6B@ 
??_7EStart@@6B@ 
??_7EStartAttack@@6B@ 
??_7EStartCounter@@6B@ 
??_7EStartDancers@@6B@ 
??_7EStartPulling@@6B@ 
??_7EStartSounds@@6B@ 
??_7EStealth@@6B@ 
??_7EStepBack@@6B@ 
??_7EStop@@6B@ 
??_7EStopAttack@@6B@ 
??_7EStopBlindness@@6B@ 
??_7EStopCounter@@6B@ 
??_7EStopDanceMode@@6B@ 
??_7EStopDancers@@6B@ 
??_7EStopDeafness@@6B@ 
??_7EStopFlaming@@6B@ 
??_7EStopPulling@@6B@ 
??_7EStopSounds@@6B@ 
??_7ETeleportActivate@@6B@ 
??_7ETeleportDeactivate@@6B@ 
??_7ETeleportMovingBrush@@6B@ 
??_7ETextFX@@6B@ 
??_7EToasterTrigger@@6B@ 
??_7ETorpedoDamage@@6B@ 
??_7ETorpedoExplode@@6B@ 
??_7ETrigger@@6B@ 
??_7ETriggerActionMarker@@6B@ 
??_7ETriggerEffector@@6B@ 
??_7EViewInit@@6B@ 
??_7EVoiceMessage@@6B@ 
??_7EWait@@6B@ 
??_7EWatch@@6B@ 
??_7EWatcherInit@@6B@ 
??_7EWeaponChanged@@6B@ 
??_7EWeaponEffectInit@@6B@ 
??_7EWeaponsInit@@6B@ 
??_7EWeatherStart@@6B@ 
??_7EWeatherStop@@6B@ 
??_7EWhip@@6B@ 
??_7EbflameOff@@6B@ 
??_7EbflameOn@@6B@ 
??_7Ebflame_ing@@6B@ 
?Active@CEnemyBase@@QAEHABVCEntityEvent@@@Z 
?Active@CWatcher@@QAEHABVCEntityEvent@@@Z 
?ActiveActions@CPlayer@@QAEXABVCPlayerAction@@@Z 
?AddAttachmentToModel@@YAXPAVCEntity@@AAVCModelObject@@JKKKKK@Z 
?AddBlur@CPlayer@@QAEXPAVCDrawPort@@AAVCEntity@@AAVCAnyProjection3D@@AAVCPlacement3D@@@Z 
?AddBouble@CPlayer@@QAEXV?$Vector@M$02@@0@Z 
?AddBulletSpray@CPlayer@@QAEXV?$Vector@M$02@@W4EffectParticlesType@@0@Z 
?AddComboCount@CComboManger@@QAEXKHPAVCEnemyBase@@@Z 
?AddDefaultAmmoForWeapon@CPlayerWeapons@@QAEXJM@Z 
?AddDrugModeItem@CEnemyBase@@QAEXVCEntityPointer@@@Z 
?AddFlare@CSkaItem@@QAEXJV?$Vector@M$02@@0@Z 
?AddGlow@CPlayer@@QAEXPAVCDrawPort@@KAAVCEntity@@AAVCAnyProjection3D@@@Z 
?AddGoreSpray@CPlayer@@QAEXV?$Vector@M$02@@0W4SprayParticlesType@@0V?$AABBox@M$02@@MK@Z 
?AddManaToPlayer@CPlayerWeapons@@QAEXJ@Z 
?AddOldMovieFX@CPlayer@@QAEXPAVCDrawPort@@@Z 
?AddParticle@CEmiter@@QAEXV?$Vector@M$02@@0MMMMMK@Z 
?AddShine@CPlayer@@QAEXPAVCDrawPort@@AAVCEntity@@AAVCAnyProjection3D@@H0AAVCPerspectiveProjection3D@@V?$Vector@M$02@@KK@Z 
?AddToFuss@CEnemyBase@@QAEXXZ 
?Addlist@CComboManger@@QAEXKJ@Z 
?AdjustBones@CPlayer@@UAEXXZ 
?AdjustBones@CPlayerAnimator@@UAEXXZ 
?AdjustDamages@CEnemyBase@@UAEHXZ 
?AdjustDifficulty@CEnemyBase@@UAEXXZ 
?AdjustEnemyHealth@CEnemyBase@@QAEXXZ 
?AdjustMipFactor@CSkaItem@@UAEXAAM@Z 
?AdjustShaderParams@CEnemyBase@@UAEXJPAVCShader@@AAUShaderParams@@@Z 
?AdjustShadingParameters@CEnemyBase@@UAEHAAV?$Vector@M$02@@AAK1@Z 
?AdjustShadingParameters@CPlayer@@UAEHAAV?$Vector@M$02@@AAK1@Z 
?AdjustShadingParameters@CProjectile@@UAEHAAV?$Vector@M$02@@AAK1@Z 
?AdjustShadingParameters@CSkaItem@@UAEHAAV?$Vector@M$02@@AAK1@Z 
?AdjustWeaponBones@CPlayerWeapons@@QAEXXZ 
?AdjustWeaponBones@CPlayerWeapons_L@@QAEXXZ 
?AirToGround@CEnemyFly@@QAEHABVCEntityEvent@@@Z 
?AirToGroundAnim@CEnemyFly@@UAEMXZ 
?AirToGroundByDamage@CEnemyFly@@QAEHABVCEntityEvent@@@Z 
?AirToGroundByDamageAnim@CEnemyFly@@UAEMXZ 
?AliveActions@CPlayer@@QAEXABVCPlayerAction@@@Z 
?AngleBetweenNormVectors@@YAMV?$Vector@M$02@@0@Z 
?AngleBetweenNormVectors@@YAMV?$Vector@M$02@@0JJJ@Z 
?AngleBetweenVectors@@YAMV?$Vector@M$02@@0@Z 
?AngleBetweenVectors@@YAMV?$Vector@M$02@@0JJJ@Z 
?AnimAfterImpactDamage@CEnemyBase@@UAEJXZ 
?AnimComEnd@CEnemyBase@@UAEJXZ 
?AnimComboStart@CEnemyBase@@UAEJXZ 
?AnimForBloodFountainDeath@CEnemyBase@@UAEJXZ 
?AnimForDamage@CEnemyBase@@UAEJXZ 
?AnimForDeath@CEnemyBase@@UAEJXZ 
?AnimForImpactDamage@CEnemyBase@@UAEJXZ 
?AnimForSitDown@CEnemyBase@@UAEJXZ 
?AnimForStandUp@CEnemyBase@@UAEJXZ 
?AnimIDFromString@CEnemyBase@@QAEXAAJVCTString@@@Z 
?AnimIDFromString@CPlayerWeapons@@QAEXAAJVCTString@@@Z 
?AnimIDFromString@CPlayerWeapons_L@@QAEXAAJVCTString@@@Z 
?AnimateBanking@CPlayerAnimator@@QAEXXZ 
?AnimateParticles@CEmiter@@QAEXXZ 
?AnimatePlayer@CPlayerAnimator@@QAEXXZ 
?AnimateSoftEyes@CPlayerAnimator@@QAEXXZ 
?AntiAir@CProjectile@@QAEXXZ 
?AntiAirExplosion@CProjectile@@QAEXXZ 
?ApplyAction@CPlayer@@UAEXABVCPlayerAction@@M@Z 
?ApplyShaking@CPlayer@@QAEXAAVCPlacement3D@@@Z 
?ApplyTactics@CEnemyBase@@UAEXAAV?$Vector@M$02@@@Z 
?AssignWatcher@CEnemyBase@@QAEXPAVCEntity@@@Z 
?AttackEnemy@CEnemyBase@@QAEHABVCEntityEvent@@@Z 
?AttackEnemy@CEnemyFly@@QAEHABVCEntityEvent@@@Z 
?AutoActions@CPlayer@@QAEXABVCPlayerAction@@@Z 
?AutoAimCoordsAdjustForSize@CEnemyBase@@QAEXPAV?$Vector@M$02@@PAM@Z 
?AutoAimCoordsFromBone@CEnemyBase@@QAEXPAV?$Vector@M$02@@PAMJV2@M@Z 
?AutoAimCoordsFromBox@CEnemyBase@@QAEXPAM@Z 
?AutoAimCoordsFromBox@CEnemyBase@@QAEXPAV?$Vector@M$02@@PAM@Z 
?AutoFullAmmo@CPlayerWeapons@@QAEXXZ 
?AutoFullAmmo@CPlayerWeapons_L@@QAEXXZ 
?AutoGoToMarker@CPlayer@@QAEHABVCEntityEvent@@@Z 
?AutoMovementAnimation@CEnemyBase@@QAEXK@Z 
?AutoSetDesiredMovement@CEnemyBase@@QAEKXZ 
?AutoTeleport@CEnemyBase@@QAEHABVCEntityEvent@@@Z 
?AutoTeleport@CPlayer@@QAEHABVCEntityEvent@@@Z 
?AxAttackType_enum@@3VCEntityPropertyEnumType@@A 
?AxAttackType_values@@3PAVCEntityPropertyEnumValue@@A 
?BackDetach@CEnemyBase@@QAEHABVCEntityEvent@@@Z 
?BallSizeType_enum@@3VCEntityPropertyEnumType@@A 
?BallSizeType_values@@3PAVCEntityPropertyEnumValue@@A 
?BasicEffectType_enum@@3VCEntityPropertyEnumType@@A 
?BasicEffectType_values@@3PAVCEntityPropertyEnumValue@@A 
?BattleshipCannonball@CProjectile@@QAEXXZ 
?BattleshipCannonballExplosion@CProjectile@@QAEXXZ 
?BeIdle@CEnemyBase@@QAEHABVCEntityEvent@@@Z 
?BeWounded@CEnemyBase@@QAEHABVCEntityEvent@@@Z 
?BeWounded@CEnemyFly@@QAEHABVCEntityEvent@@@Z 
?BeWounded@CEnemyHorse@@QAEHABVCEntityEvent@@@Z 
?BeastBigDebris@CProjectile@@QAEXXZ 
?BeastBigDebrisExplosion@CProjectile@@QAEXXZ 
?BeastBigProjectile@CProjectile@@QAEXXZ 
?BeastBigProjectileExplosion@CProjectile@@QAEXXZ 
?BeastDebris@CProjectile@@QAEXXZ 
?BeastDebrisExplosion@CProjectile@@QAEXXZ 
?BeastProjectile@CProjectile@@QAEXXZ 
?BeastProjectileExplosion@CProjectile@@QAEXXZ 
?BeginCrazy@CPlayer@@QAEXXZ 
?BeginDrugmode@CPlayer@@QAEHABVCEntityEvent@@@Z 
?BeginMariaActiveDie@CPlayer@@QAEXXZ 
?BigBallActionType_enum@@3VCEntityPropertyEnumType@@A 
?BigBallActionType_values@@3PAVCEntityPropertyEnumValue@@A 
?BigBallFireType_enum@@3VCEntityPropertyEnumType@@A 
?BigBallFireType_values@@3PAVCEntityPropertyEnumValue@@A 
?BigBallState_enum@@3VCEntityPropertyEnumType@@A 
?BigBallState_values@@3PAVCEntityPropertyEnumValue@@A 
?BigBallStoneProjectile@CProjectile@@QAEXXZ 
?BigBallStoneProjectileExplosion@CProjectile@@QAEXXZ 
?BigBallType_enum@@3VCEntityPropertyEnumType@@A 
?BigBallType_values@@3PAVCEntityPropertyEnumValue@@A 
?BikeGuided@CProjectile@@QAEXXZ 
?BikeGuidedExplosion@CProjectile@@QAEXXZ 
?BikeRiderType_enum@@3VCEntityPropertyEnumType@@A 
?BikeRiderType_values@@3PAVCEntityPropertyEnumValue@@A 
?BikeSkinType_enum@@3VCEntityPropertyEnumType@@A 
?BikeSkinType_values@@3PAVCEntityPropertyEnumValue@@A 
?BladeAttackType_enum@@3VCEntityPropertyEnumType@@A 
?BladeAttackType_values@@3PAVCEntityPropertyEnumValue@@A 
?BlendControllerType_enum@@3VCEntityPropertyEnumType@@A 
?BlendControllerType_values@@3PAVCEntityPropertyEnumValue@@A 
?BlockAction_enum@@3VCEntityPropertyEnumType@@A 
?BlockAction_values@@3PAVCEntityPropertyEnumValue@@A 
?BlowUp@CEnemyBase@@UAEXXZ 
?BlowUp@CEnemyFly@@UAEXXZ 
?BlowUp@CEnemyHorse@@UAEXXZ 
?BlowUp@CEnemyRunInto@@UAEXXZ 
?BlowUp@CPlayer@@QAEXXZ 
?BlowUpBase@CEnemyBase@@QAEXXZ 
?BlowUpNotify@CEnemyBase@@UAEXXZ 
?BodyAnimationTemplate@CPlayerAnimator@@QAEXW4BodyTemplate@@KMMH@Z 
?BodyGuardState_enum@@3VCEntityPropertyEnumType@@A 
?BodyGuardState_values@@3PAVCEntityPropertyEnumValue@@A 
?BodyGuardType_enum@@3VCEntityPropertyEnumType@@A 
?BodyGuardType_values@@3PAVCEntityPropertyEnumValue@@A 
?BodyPullAnimation@CPlayerAnimator@@QAEXH@Z 
?BodyPushAnimation@CPlayerAnimator@@QAEXH@Z 
?BodyStillAnimation@CPlayerAnimator@@QAEXXZ 
?BodyTemplate_enum@@3VCEntityPropertyEnumType@@A 
?BodyTemplate_values@@3PAVCEntityPropertyEnumValue@@A 
?BoolEType_enum@@3VCEntityPropertyEnumType@@A 
?BoolEType_values@@3PAVCEntityPropertyEnumValue@@A 
?BossHeliMovementType_enum@@3VCEntityPropertyEnumType@@A 
?BossHeliMovementType_values@@3PAVCEntityPropertyEnumValue@@A 
?BounceSound@CProjectile@@QAEXXZ 
?BruceAttackPattern_enum@@3VCEntityPropertyEnumType@@A 
?BruceAttackPattern_values@@3PAVCEntityPropertyEnumValue@@A 
?BuffaloActionList_enum@@3VCEntityPropertyEnumType@@A 
?BuffaloActionList_values@@3PAVCEntityPropertyEnumValue@@A 
?BuffaloEnemyType_enum@@3VCEntityPropertyEnumType@@A 
?BuffaloEnemyType_values@@3PAVCEntityPropertyEnumValue@@A 
?BulletHitType_enum@@3VCEntityPropertyEnumType@@A 
?BulletHitType_values@@3PAVCEntityPropertyEnumValue@@A 
?BulletProjectile@CProjectile@@QAEXXZ 
?ButtonsActions@CPlayer@@QAEXAAVCPlayerAction@@@Z 
?CalcComboCount@CComboManger@@QAEXXZ 
?CalcDelta@CEnemyBase@@QAE?AV?$Vector@M$02@@PAVCEntity@@@Z 
?CalcDelta@CProjectile@@QAE?AV?$Vector@M$02@@PAVCEntity@@0@Z 
?CalcDeltaXZ@CEnemyBase@@QAE?AV?$Vector@M$02@@PAVCEntity@@@Z 
?CalcDist@CEnemyBase@@QAEMPAVCEntity@@@Z 
?CalcDist@CProjectile@@QAEMPAVCEntity@@0@Z 
?CalcDistXZ@CEnemyBase@@QAEMPAVCEntity@@@Z 
?CalcDistanceInPlaneToDestination@CEnemyBase@@QAEMXZ 
?CalcJitterTarget@CBullet@@QAEXM@Z 
?CalcJitterTargetFixed@CBullet@@QAEXMMM@Z 
?CalcLerpedWeaponPosition@CPlayerWeapons@@QAEXV?$Vector@M$02@@AAVCPlacement3D@@H@Z 
?CalcLerpedWeaponPosition@CPlayerWeapons_L@@QAEXV?$Vector@M$02@@AAVCPlacement3D@@H@Z 
?CalcPlaneDelta@CEnemyBase@@QAE?AV?$Vector@M$02@@PAVCEntity@@@Z 
?CalcPlaneDist@CEnemyBase@@QAEMPAVCEntity@@@Z 
?CalcTarget@CBullet@@QAEXM@Z 
?CalcTarget@CBullet@@QAEXPAVCEntity@@M@Z 
?CalcTarget@CBullet@@QAEXPAVCEntity@@MV?$Vector@M$02@@@Z 
?CalcTarget@CBullet@@QAEXV?$Vector@M$02@@M@Z 
?CalcTarget_Sniper@CBullet@@QAEXMVCPlacement3D@@@Z 
?CalcTarget_Sniper@CBullet@@QAEXV?$Vector@M$02@@MVCPlacement3D@@@Z 
?CalcWeaponPosition3rdPersonView@CPlayerWeapons@@QAEXV?$Vector@M$02@@AAVCPlacement3D@@H@Z 
?CalcWeaponPosition@CPlayerWeapons@@QAEXV?$Vector@M$02@@AAVCPlacement3D@@H@Z 
?CalcWeaponPosition@CPlayerWeapons_L@@QAEXV?$Vector@M$02@@AAVCPlacement3D@@H@Z 
?CalcWeaponPositionForShell@CPlayerWeapons@@QAEXV?$Vector@M$02@@AAVCPlacement3D@@H@Z 
?CalcWeaponPositionForShell@CPlayerWeapons_L@@QAEXV?$Vector@M$02@@AAVCPlacement3D@@H@Z 
?CalcWeaponPositionImprecise@CPlayerWeapons@@QAEXV?$Vector@M$02@@AAVCPlacement3D@@HM@Z 
?CalcWeaponPositionImpreciseSniper@CPlayerWeapons@@QAEXV?$Vector@M$02@@AAVCPlacement3D@@HM@Z 
?CalculateAngularLaunchParams@CEnemyBase@@QAEXV?$Vector@M$02@@M00MAAM1@Z 
?CalculatePredictedPosition@CEnemyBase@@QAE?AV?$Vector@M$02@@V2@0M0M@Z 
?CalculateViewRotationDamping@CPlayer@@QAEMXZ 
?CanAttackEnemy@CEnemyBase@@QAEHPAVCEntity@@M@Z 
?CanAttackEnemyNew@CEnemyBase@@QAEHPAVCEntity@@M@Z 
?CanHitEnemy@CEnemyBase@@UAEHPAVCEntity@@M@Z 
?CanHitEnemy@CEnemyDive@@UAEHPAVCEntity@@M@Z 
?CanHitEnemy@CEnemyFly@@UAEHPAVCEntity@@M@Z 
?CastRayGround@CEnemyBase@@QAE_NXZ 
?CastRayHead@CPlayer@@QAEHXZ 
?CauseOfDeath_enum@@3VCEntityPropertyEnumType@@A 
?CauseOfDeath_values@@3PAVCEntityPropertyEnumValue@@A 
?ChangeBodyAnim@CPlayer@@QAEXJKMMM@Z 
?ChangeCollisionToAir@CEnemyFly@@UAEXXZ 
?ChangeCollisionToGround@CEnemyDive@@UAEXXZ 
?ChangeCollisionToGround@CEnemyFly@@UAEXXZ 
?ChangeCollisionToLiquid@CEnemyDive@@UAEXXZ 
?ChangeDrugMode@CPlayer@@QAEXXZ 
?ChangeLegsAnim@CPlayer@@QAEXJKMMM@Z 
?ChangeOriginMode@CPlayer@@QAEXXZ 
?ChangePlayerView@CPlayer@@QAEXXZ 
?ChangeView@CPlayerAnimator@@QAEXAAVCPlacement3D@@@Z 
?ChangeWeapon@CPlayerWeapons@@QAEHABVCEntityEvent@@@Z 
?ChangeWeapon@CPlayerWeapons_L@@QAEHABVCEntityEvent@@@Z 
?ChangeWholeAnim@CPlayer@@QAEXJKMMM@Z 
?CharacterChanged@CPlayer@@UAEXABVCPlayerCharacter@@@Z 
?ChargeAnim@CEnemyBase@@UAEXXZ 
?ChargeAnim@CEnemyHorse@@UAEXXZ 
?ChargeAnim@CEnemyRunInto@@UAEXXZ 
?ChargeHitEnemy@CEnemyBase@@QAEHABVCEntityEvent@@@Z 
?CheatGiveAll@CPlayerWeapons@@QAEXXZ 
?Cheats@CPlayer@@QAEXXZ 
?CheatsEnabled@CPlayer@@QAEHXZ 
?CheckAnotherPlayer@CWatcher@@QAEPAVCEntity@@PAV2@@Z 
?CheckCloserPlayer@CWatcher@@QAEPAVCEntity@@PAV2@M@Z 
?CheckDeathForRespawnInPlace@CPlayer@@QAEXVEPlayerDeath@@@Z 
?CheckDrugModeItem@CEnemyBase@@QAEXXZ 
?CheckFallForPathFinding@CEnemyBase@@QAEHABVEWouldFall@@@Z 
?CheckGameEnd@CPlayer@@QAEXXZ 
?CheckHighScore@CPlayer@@QAEXXZ 
?CheckIDs@EActivate@@UAEHXZ 
?CheckIDs@EActivateBlend@@UAEHXZ 
?CheckIDs@EActiveMariaDie@@UAEHXZ 
?CheckIDs@EAddBulletSpray@@UAEHXZ 
?CheckIDs@EAddGoreSpray@@UAEHXZ 
?CheckIDs@EAnimForDamage@@UAEHXZ 
?CheckIDs@EAnimatorInit@@UAEHXZ 
?CheckIDs@EArchitectureDeath@@UAEHXZ 
?CheckIDs@EAttachChild@@UAEHXZ 
?CheckIDs@EAutoAction@@UAEHXZ 
?CheckIDs@EAutoQuickSave@@UAEHXZ 
?CheckIDs@EAvoidProjectiles@@UAEHXZ 
?CheckIDs@EBFlame@@UAEHXZ 
?CheckIDs@EBGravity@@UAEHXZ 
?CheckIDs@EBackMaria@@UAEHXZ 
?CheckIDs@EBackMariaNPC@@UAEHXZ 
?CheckIDs@EBackward@@UAEHXZ 
?CheckIDs@EBasket@@UAEHXZ 
?CheckIDs@EBbSetValue@@UAEHXZ 
?CheckIDs@EBlowUp@@UAEHXZ 
?CheckIDs@EBonus@@UAEHXZ 
?CheckIDs@EBoosterEnd@@UAEHXZ 
?CheckIDs@EBoringWeapon@@UAEHXZ 
?CheckIDs@EBossWounded@@UAEHXZ 
?CheckIDs@EBruceDefenseFinished@@UAEHXZ 
?CheckIDs@EBruceDefenseProjectiles@@UAEHXZ 
?CheckIDs@EBruceTeleport@@UAEHXZ 
?CheckIDs@EBrushDeath@@UAEHXZ 
?CheckIDs@EBrushDestroyed@@UAEHXZ 
?CheckIDs@EBuffaloMoveThroughMarkers@@UAEHXZ 
?CheckIDs@EBulletInit@@UAEHXZ 
?CheckIDs@EBurning@@UAEHXZ 
?CheckIDs@ECameraStart@@UAEHXZ 
?CheckIDs@ECameraStop@@UAEHXZ 
?CheckIDs@ECannotLaunchMaria@@UAEHXZ 
?CheckIDs@ECarSexDamage@@UAEHXZ 
?CheckIDs@ECenterMessage@@UAEHXZ 
?CheckIDs@EChangeAnim@@UAEHXZ 
?CheckIDs@EChangeDance@@UAEHXZ 
?CheckIDs@EChangeGravity@@UAEHXZ 
?CheckIDs@EChangeGravityForce@@UAEHXZ 
?CheckIDs@EChangeMusic@@UAEHXZ 
?CheckIDs@ECloseRangeAttack@@UAEHXZ 
?CheckIDs@ECombo@@UAEHXZ 
?CheckIDs@EComputerMessage@@UAEHXZ 
?CheckIDs@ECopierTrigger@@UAEHXZ 
?CheckIDs@ECoreDamage@@UAEHXZ 
?CheckIDs@ECoreDie@@UAEHXZ 
?CheckIDs@ECoreFlame@@UAEHXZ 
?CheckIDs@ECoreFlameandGrind@@UAEHXZ 
?CheckIDs@ECoreGravity@@UAEHXZ 
?CheckIDs@ECoreGrind@@UAEHXZ 
?CheckIDs@ECorePriestDefault@@UAEHXZ 
?CheckIDs@ECounterCount@@UAEHXZ 
?CheckIDs@ECrazyBegin@@UAEHXZ 
?CheckIDs@ECrazyEnd@@UAEHXZ 
?CheckIDs@ECredits@@UAEHXZ 
?CheckIDs@EDancerAcrobatRemoved@@UAEHXZ 
?CheckIDs@EDancerNormalCreated@@UAEHXZ 
?CheckIDs@EDeactivate@@UAEHXZ 
?CheckIDs@EDeactivateBlend@@UAEHXZ 
?CheckIDs@EDefenseBullet@@UAEHXZ 
?CheckIDs@EDetachChild@@UAEHXZ 
?CheckIDs@EDirectDancers@@UAEHXZ 
?CheckIDs@EDisconnected@@UAEHXZ 
?CheckIDs@EDownMode@@UAEHXZ 
?CheckIDs@EDrugmodeBegin@@UAEHXZ 
?CheckIDs@EDrugmodeEnd@@UAEHXZ 
?CheckIDs@EEnd@@UAEHXZ 
?CheckIDs@EEndActor@@UAEHXZ 
?CheckIDs@EEnding@@UAEHXZ 
?CheckIDs@EEndingCameraStop@@UAEHXZ 
?CheckIDs@EEnemyBaseDamage@@UAEHXZ 
?CheckIDs@EEnemyBaseDeath@@UAEHXZ 
?CheckIDs@EEntityVoice@@UAEHXZ 
?CheckIDs@EEnvironmentStart@@UAEHXZ 
?CheckIDs@EEnvironmentStop@@UAEHXZ 
?CheckIDs@EExplode@@UAEHXZ 
?CheckIDs@EExtraTeleport@@UAEHXZ 
?CheckIDs@EFireBombs@@UAEHXZ 
?CheckIDs@EFireDagger@@UAEHXZ 
?CheckIDs@EFireRocket@@UAEHXZ 
?CheckIDs@EFireWeapon@@UAEHXZ 
?CheckIDs@EFlame@@UAEHXZ 
?CheckIDs@EFlipTheSwitch@@UAEHXZ 
?CheckIDs@EForceWound@@UAEHXZ 
?CheckIDs@EForward@@UAEHXZ 
?CheckIDs@EGetAngry@@UAEHXZ 
?CheckIDs@EGetDamaged@@UAEHXZ 
?CheckIDs@EGotFlower@@UAEHXZ 
?CheckIDs@EGrenadeExplodeNow@@UAEHXZ 
?CheckIDs@EGrindClose@@UAEHXZ 
?CheckIDs@EGrindInit@@UAEHXZ 
?CheckIDs@EGrindOff@@UAEHXZ 
?CheckIDs@EGrindOn@@UAEHXZ 
?CheckIDs@EGrindOpen@@UAEHXZ 
?CheckIDs@EGuard@@UAEHXZ 
?CheckIDs@EGuardState@@UAEHXZ 
?CheckIDs@EHit@@UAEHXZ 
?CheckIDs@EHitBySpaceShipBeam@@UAEHXZ 
?CheckIDs@EHudPicFX@@UAEHXZ 
?CheckIDs@EInDrugModeItem@@UAEHXZ 
?CheckIDs@EInRange@@UAEHXZ 
?CheckIDs@EInitMaria@@UAEHXZ 
?CheckIDs@EInitMariaNPC@@UAEHXZ 
?CheckIDs@EKickBlob@@UAEHXZ 
?CheckIDs@EKilledEnemy@@UAEHXZ 
?CheckIDs@ELamonBikeFireRocket@@UAEHXZ 
?CheckIDs@ELamonBikeMoveThroughMarkers@@UAEHXZ 
?CheckIDs@ELamonBikeSuicide@@UAEHXZ 
?CheckIDs@ELandingActiveMaria@@UAEHXZ 
?CheckIDs@ELandingMaria@@UAEHXZ 
?CheckIDs@ELaunch@@UAEHXZ 
?CheckIDs@ELaunchActiveMaria@@UAEHXZ 
?CheckIDs@ELaunchAx@@UAEHXZ 
?CheckIDs@ELaunchMaria@@UAEHXZ 
?CheckIDs@ELaunchMariaNPC@@UAEHXZ 
?CheckIDs@ELaunchProjectile@@UAEHXZ 
?CheckIDs@ELeft@@UAEHXZ 
?CheckIDs@ELisa@@UAEHXZ 
?CheckIDs@EMarkPicked@@UAEHXZ 
?CheckIDs@EMarkerPassed@@UAEHXZ 
?CheckIDs@EModel2Activate@@UAEHXZ 
?CheckIDs@EModel2Deactivate@@UAEHXZ 
?CheckIDs@EModel3Activate@@UAEHXZ 
?CheckIDs@EModel3Deactivate@@UAEHXZ 
?CheckIDs@EModelChange@@UAEHXZ 
?CheckIDs@EModelDeath@@UAEHXZ 
?CheckIDs@EModelDeathSpawnAmmoItem@@UAEHXZ 
?CheckIDs@EModelDeathSpawnArmorItem@@UAEHXZ 
?CheckIDs@EModelDeathSpawnHealthItem@@UAEHXZ 
?CheckIDs@EModelDeathSpawnSpecialItem@@UAEHXZ 
?CheckIDs@EModelSelfDestruction@@UAEHXZ 
?CheckIDs@EMoveLeft@@UAEHXZ 
?CheckIDs@EMoveRight@@UAEHXZ 
?CheckIDs@EMusicChangerTrigger@@UAEHXZ 
?CheckIDs@ENetChangeMusic@@UAEHXZ 
?CheckIDs@ENetFireWeapon@@UAEHXZ 
?CheckIDs@ENetReleaseWeapon@@UAEHXZ 
?CheckIDs@ENetReloadWeapon@@UAEHXZ 
?CheckIDs@ENetSelectWeapon@@UAEHXZ 
?CheckIDs@ENetSpawnEntity@@UAEHXZ 
?CheckIDs@ENetTrigger@@UAEHXZ 
?CheckIDs@EOBJ_Add@@UAEHXZ 
?CheckIDs@EOBJ_Click@@UAEHXZ 
?CheckIDs@EOBJ_Finish@@UAEHXZ 
?CheckIDs@EOBJ_Receive@@UAEHXZ 
?CheckIDs@EOnMarker@@UAEHXZ 
?CheckIDs@EOnPeerDead@@UAEHXZ 
?CheckIDs@EOutDrugModeItem@@UAEHXZ 
?CheckIDs@EOutRange@@UAEHXZ 
?CheckIDs@EParticlesActivate@@UAEHXZ 
?CheckIDs@EParticlesDeactivate@@UAEHXZ 
?CheckIDs@EPlayAnim@@UAEHXZ 
?CheckIDs@EPlayEcstasy@@UAEHXZ 
?CheckIDs@EPlaySoundOnce@@UAEHXZ 
?CheckIDs@EPlayerDamage@@UAEHXZ 
?CheckIDs@EPlayerDeath@@UAEHXZ 
?CheckIDs@EPlayerInCloseRange@@UAEHXZ 
?CheckIDs@EPlayerKilledEnemy@@UAEHXZ 
?CheckIDs@EPlayerRebirth@@UAEHXZ 
?CheckIDs@EPlayerStats@@UAEHXZ 
?CheckIDs@EProjectileSpawnClient@@UAEHXZ 
?CheckIDs@EProtectorFire@@UAEHXZ 
?CheckIDs@EProtectorsCleared@@UAEHXZ 
?CheckIDs@ERangeModelDestruction@@UAEHXZ 
?CheckIDs@ERebirth@@UAEHXZ 
?CheckIDs@EReceiveScore@@UAEHXZ 
?CheckIDs@EReceiveSkaItem@@UAEHXZ 
?CheckIDs@EReconsiderBehavior@@UAEHXZ 
?CheckIDs@EReleaseWeapon@@UAEHXZ 
?CheckIDs@EReloadGetAmmo@@UAEHXZ 
?CheckIDs@EReloadWeapon@@UAEHXZ 
?CheckIDs@EReminder@@UAEHXZ 
?CheckIDs@EReminderInit@@UAEHXZ 
?CheckIDs@ERenderLightning@@UAEHXZ 
?CheckIDs@ERestartAttack@@UAEHXZ 
?CheckIDs@ERight@@UAEHXZ 
?CheckIDs@ERightAttack@@UAEHXZ 
?CheckIDs@ERigidityWeapon@@UAEHXZ 
?CheckIDs@ERotateLeft@@UAEHXZ 
?CheckIDs@ERotateRight@@UAEHXZ 
?CheckIDs@EScroll@@UAEHXZ 
?CheckIDs@ESecretFound@@UAEHXZ 
?CheckIDs@ESelectOnly@@UAEHXZ 
?CheckIDs@ESelectWeapon@@UAEHXZ 
?CheckIDs@ESetBossGauge@@UAEHXZ 
?CheckIDs@ESetPlayerWeapon@@UAEHXZ 
?CheckIDs@ESetType@@UAEHXZ 
?CheckIDs@ESetViewer@@UAEHXZ 
?CheckIDs@EShowConsole@@UAEHXZ 
?CheckIDs@ESkaAmmoItem@@UAEHXZ 
?CheckIDs@ESkaArmor@@UAEHXZ 
?CheckIDs@ESkaHealth@@UAEHXZ 
?CheckIDs@ESkaModelDeath@@UAEHXZ 
?CheckIDs@ESkaMovingModelDestruction@@UAEHXZ 
?CheckIDs@ESkaSpecialItem@@UAEHXZ 
?CheckIDs@ESound@@UAEHXZ 
?CheckIDs@ESpawnDebris@@UAEHXZ 
?CheckIDs@ESpawnDebrisSka@@UAEHXZ 
?CheckIDs@ESpawnEffect@@UAEHXZ 
?CheckIDs@ESpawnEffector@@UAEHXZ 
?CheckIDs@ESpawnFXEmiter@@UAEHXZ 
?CheckIDs@ESpawnFlame@@UAEHXZ 
?CheckIDs@ESpawnSpray@@UAEHXZ 
?CheckIDs@ESpawnerProjectile@@UAEHXZ 
?CheckIDs@EStart@@UAEHXZ 
?CheckIDs@EStartAttack@@UAEHXZ 
?CheckIDs@EStartCounter@@UAEHXZ 
?CheckIDs@EStartDancers@@UAEHXZ 
?CheckIDs@EStartPulling@@UAEHXZ 
?CheckIDs@EStartSounds@@UAEHXZ 
?CheckIDs@EStealth@@UAEHXZ 
?CheckIDs@EStepBack@@UAEHXZ 
?CheckIDs@EStop@@UAEHXZ 
?CheckIDs@EStopAttack@@UAEHXZ 
?CheckIDs@EStopBlindness@@UAEHXZ 
?CheckIDs@EStopCounter@@UAEHXZ 
?CheckIDs@EStopDanceMode@@UAEHXZ 
?CheckIDs@EStopDancers@@UAEHXZ 
?CheckIDs@EStopDeafness@@UAEHXZ 
?CheckIDs@EStopFlaming@@UAEHXZ 
?CheckIDs@EStopPulling@@UAEHXZ 
?CheckIDs@EStopSounds@@UAEHXZ 
?CheckIDs@ETeleportActivate@@UAEHXZ 
?CheckIDs@ETeleportDeactivate@@UAEHXZ 
?CheckIDs@ETeleportMovingBrush@@UAEHXZ 
?CheckIDs@ETextFX@@UAEHXZ 
?CheckIDs@EToasterTrigger@@UAEHXZ 
?CheckIDs@ETorpedoDamage@@UAEHXZ 
?CheckIDs@ETorpedoExplode@@UAEHXZ 
?CheckIDs@ETrigger@@UAEHXZ 
?CheckIDs@ETriggerActionMarker@@UAEHXZ 
?CheckIDs@ETriggerEffector@@UAEHXZ 
?CheckIDs@EViewInit@@UAEHXZ 
?CheckIDs@EVoiceMessage@@UAEHXZ 
?CheckIDs@EWait@@UAEHXZ 
?CheckIDs@EWatch@@UAEHXZ 
?CheckIDs@EWatcherInit@@UAEHXZ 
?CheckIDs@EWeaponChanged@@UAEHXZ 
?CheckIDs@EWeaponEffectInit@@UAEHXZ 
?CheckIDs@EWeaponsInit@@UAEHXZ 
?CheckIDs@EWeatherStart@@UAEHXZ 
?CheckIDs@EWeatherStop@@UAEHXZ 
?CheckIDs@EWhip@@UAEHXZ 
?CheckIDs@EbflameOff@@UAEHXZ 
?CheckIDs@EbflameOn@@UAEHXZ 
?CheckIDs@Ebflame_ing@@UAEHXZ 
?CheckIfPlayerVisible@CWatcher@@QAEXXZ 
?CheckMaria_CanbeLaunched@CPlayer@@QAEHXZ 
?CheckPlayDefaultAnimForCrazy@CPlayerWeapons@@QAEXXZ 
?CheckPlayDefaultAnimForCrazy@CPlayerWeapons_L@@QAEXXZ 
?CheckTouchForPathFinding@CEnemyBase@@QAEHABVETouch@@@Z 
?Check_FindWeapon_Wheel@CPlayer@@QAE?AW4WeaponType@@J@Z 
?ChickenAttackType_enum@@3VCEntityPropertyEnumType@@A 
?ChickenAttackType_values@@3PAVCEntityPropertyEnumValue@@A 
?ChickenMovementType_enum@@3VCEntityPropertyEnumType@@A 
?ChickenMovementType_values@@3PAVCEntityPropertyEnumValue@@A 
?ChickenStickyMovementType_enum@@3VCEntityPropertyEnumType@@A 
?ChickenStickyMovementType_values@@3PAVCEntityPropertyEnumValue@@A 
?ClampAllAmmo@CPlayerWeapons@@QAEXXZ 
?ClasificationBits_enum@@3VCEntityPropertyEnumType@@A 
?ClasificationBits_values@@3PAVCEntityPropertyEnumValue@@A 
?Clear@CCompMessageID@@QAEXXZ 
?ClearActionApplied@CPlayer@@UAEXXZ 
?ClearBulletSprayLaunchData@CPlayer@@QAEXXZ 
?ClearComboCount@CComboManger@@QAEXXZ 
?ClearComboCount@CEnemyBase@@QAEXXZ 
?ClearETC@CPlayer@@QAEX_N@Z 
?ClearEndingFlags@CPlayer@@QAEXXZ 
?ClearGoreSprayLaunchData@CPlayer@@QAEXXZ 
?ClearHUDAnimData@CPlayer@@QAEXXZ 
?ClearReapplyingActions@CPlayer@@UAEXXZ 
?ClearShellLaunchData@CPlayer@@QAEXXZ 
?ClearToDefault@@YAXAAVEActivate@@@Z 
?ClearToDefault@@YAXAAVEActivateBlend@@@Z 
?ClearToDefault@@YAXAAVEActiveMariaDie@@@Z 
?ClearToDefault@@YAXAAVEAddBulletSpray@@@Z 
?ClearToDefault@@YAXAAVEAddGoreSpray@@@Z 
?ClearToDefault@@YAXAAVEAnimForDamage@@@Z 
?ClearToDefault@@YAXAAVEAnimatorInit@@@Z 
?ClearToDefault@@YAXAAVEArchitectureDeath@@@Z 
?ClearToDefault@@YAXAAVEAttachChild@@@Z 
?ClearToDefault@@YAXAAVEAutoAction@@@Z 
?ClearToDefault@@YAXAAVEAutoQuickSave@@@Z 
?ClearToDefault@@YAXAAVEAvoidProjectiles@@@Z 
?ClearToDefault@@YAXAAVEBFlame@@@Z 
?ClearToDefault@@YAXAAVEBGravity@@@Z 
?ClearToDefault@@YAXAAVEBackMaria@@@Z 
?ClearToDefault@@YAXAAVEBackMariaNPC@@@Z 
?ClearToDefault@@YAXAAVEBackward@@@Z 
?ClearToDefault@@YAXAAVEBasket@@@Z 
?ClearToDefault@@YAXAAVEBbSetValue@@@Z 
?ClearToDefault@@YAXAAVEBlowUp@@@Z 
?ClearToDefault@@YAXAAVEBonus@@@Z 
?ClearToDefault@@YAXAAVEBoosterEnd@@@Z 
?ClearToDefault@@YAXAAVEBoringWeapon@@@Z 
?ClearToDefault@@YAXAAVEBossWounded@@@Z 
?ClearToDefault@@YAXAAVEBruceDefenseFinished@@@Z 
?ClearToDefault@@YAXAAVEBruceDefenseProjectiles@@@Z 
?ClearToDefault@@YAXAAVEBruceTeleport@@@Z 
?ClearToDefault@@YAXAAVEBrushDeath@@@Z 
?ClearToDefault@@YAXAAVEBrushDestroyed@@@Z 
?ClearToDefault@@YAXAAVEBuffaloMoveThroughMarkers@@@Z 
?ClearToDefault@@YAXAAVEBulletInit@@@Z 
?ClearToDefault@@YAXAAVEBurning@@@Z 
?ClearToDefault@@YAXAAVECameraStart@@@Z 
?ClearToDefault@@YAXAAVECameraStop@@@Z 
?ClearToDefault@@YAXAAVECannotLaunchMaria@@@Z 
?ClearToDefault@@YAXAAVECarSexDamage@@@Z 
?ClearToDefault@@YAXAAVECenterMessage@@@Z 
?ClearToDefault@@YAXAAVEChangeAnim@@@Z 
?ClearToDefault@@YAXAAVEChangeDance@@@Z 
?ClearToDefault@@YAXAAVEChangeGravity@@@Z 
?ClearToDefault@@YAXAAVEChangeGravityForce@@@Z 
?ClearToDefault@@YAXAAVEChangeMusic@@@Z 
?ClearToDefault@@YAXAAVECloseRangeAttack@@@Z 
?ClearToDefault@@YAXAAVECombo@@@Z 
?ClearToDefault@@YAXAAVEComputerMessage@@@Z 
?ClearToDefault@@YAXAAVECopierTrigger@@@Z 
?ClearToDefault@@YAXAAVECoreDamage@@@Z 
?ClearToDefault@@YAXAAVECoreDie@@@Z 
?ClearToDefault@@YAXAAVECoreFlame@@@Z 
?ClearToDefault@@YAXAAVECoreFlameandGrind@@@Z 
?ClearToDefault@@YAXAAVECoreGravity@@@Z 
?ClearToDefault@@YAXAAVECoreGrind@@@Z 
?ClearToDefault@@YAXAAVECorePriestDefault@@@Z 
?ClearToDefault@@YAXAAVECounterCount@@@Z 
?ClearToDefault@@YAXAAVECrazyBegin@@@Z 
?ClearToDefault@@YAXAAVECrazyEnd@@@Z 
?ClearToDefault@@YAXAAVECredits@@@Z 
?ClearToDefault@@YAXAAVEDancerAcrobatRemoved@@@Z 
?ClearToDefault@@YAXAAVEDancerNormalCreated@@@Z 
?ClearToDefault@@YAXAAVEDeactivate@@@Z 
?ClearToDefault@@YAXAAVEDeactivateBlend@@@Z 
?ClearToDefault@@YAXAAVEDefenseBullet@@@Z 
?ClearToDefault@@YAXAAVEDetachChild@@@Z 
?ClearToDefault@@YAXAAVEDirectDancers@@@Z 
?ClearToDefault@@YAXAAVEDisconnected@@@Z 
?ClearToDefault@@YAXAAVEDownMode@@@Z 
?ClearToDefault@@YAXAAVEDrugmodeBegin@@@Z 
?ClearToDefault@@YAXAAVEDrugmodeEnd@@@Z 
?ClearToDefault@@YAXAAVEEnd@@@Z 
?ClearToDefault@@YAXAAVEEndActor@@@Z 
?ClearToDefault@@YAXAAVEEnding@@@Z 
?ClearToDefault@@YAXAAVEEndingCameraStop@@@Z 
?ClearToDefault@@YAXAAVEEnemyBaseDamage@@@Z 
?ClearToDefault@@YAXAAVEEnemyBaseDeath@@@Z 
?ClearToDefault@@YAXAAVEEntityVoice@@@Z 
?ClearToDefault@@YAXAAVEEnvironmentStart@@@Z 
?ClearToDefault@@YAXAAVEEnvironmentStop@@@Z 
?ClearToDefault@@YAXAAVEExplode@@@Z 
?ClearToDefault@@YAXAAVEExtraTeleport@@@Z 
?ClearToDefault@@YAXAAVEFireBombs@@@Z 
?ClearToDefault@@YAXAAVEFireDagger@@@Z 
?ClearToDefault@@YAXAAVEFireRocket@@@Z 
?ClearToDefault@@YAXAAVEFireWeapon@@@Z 
?ClearToDefault@@YAXAAVEFlame@@@Z 
?ClearToDefault@@YAXAAVEFlipTheSwitch@@@Z 
?ClearToDefault@@YAXAAVEForceWound@@@Z 
?ClearToDefault@@YAXAAVEForward@@@Z 
?ClearToDefault@@YAXAAVEGetAngry@@@Z 
?ClearToDefault@@YAXAAVEGetDamaged@@@Z 
?ClearToDefault@@YAXAAVEGotFlower@@@Z 
?ClearToDefault@@YAXAAVEGrenadeExplodeNow@@@Z 
?ClearToDefault@@YAXAAVEGrindClose@@@Z 
?ClearToDefault@@YAXAAVEGrindInit@@@Z 
?ClearToDefault@@YAXAAVEGrindOff@@@Z 
?ClearToDefault@@YAXAAVEGrindOn@@@Z 
?ClearToDefault@@YAXAAVEGrindOpen@@@Z 
?ClearToDefault@@YAXAAVEGuard@@@Z 
?ClearToDefault@@YAXAAVEGuardState@@@Z 
?ClearToDefault@@YAXAAVEHit@@@Z 
?ClearToDefault@@YAXAAVEHitBySpaceShipBeam@@@Z 
?ClearToDefault@@YAXAAVEHudPicFX@@@Z 
?ClearToDefault@@YAXAAVEInDrugModeItem@@@Z 
?ClearToDefault@@YAXAAVEInRange@@@Z 
?ClearToDefault@@YAXAAVEInitMaria@@@Z 
?ClearToDefault@@YAXAAVEInitMariaNPC@@@Z 
?ClearToDefault@@YAXAAVEKickBlob@@@Z 
?ClearToDefault@@YAXAAVEKilledEnemy@@@Z 
?ClearToDefault@@YAXAAVELamonBikeFireRocket@@@Z 
?ClearToDefault@@YAXAAVELamonBikeMoveThroughMarkers@@@Z 
?ClearToDefault@@YAXAAVELamonBikeSuicide@@@Z 
?ClearToDefault@@YAXAAVELandingActiveMaria@@@Z 
?ClearToDefault@@YAXAAVELandingMaria@@@Z 
?ClearToDefault@@YAXAAVELaunch@@@Z 
?ClearToDefault@@YAXAAVELaunchActiveMaria@@@Z 
?ClearToDefault@@YAXAAVELaunchAx@@@Z 
?ClearToDefault@@YAXAAVELaunchMaria@@@Z 
?ClearToDefault@@YAXAAVELaunchMariaNPC@@@Z 
?ClearToDefault@@YAXAAVELaunchProjectile@@@Z 
?ClearToDefault@@YAXAAVELeft@@@Z 
?ClearToDefault@@YAXAAVELisa@@@Z 
?ClearToDefault@@YAXAAVEMarkPicked@@@Z 
?ClearToDefault@@YAXAAVEMarkerPassed@@@Z 
?ClearToDefault@@YAXAAVEModel2Activate@@@Z 
?ClearToDefault@@YAXAAVEModel2Deactivate@@@Z 
?ClearToDefault@@YAXAAVEModel3Activate@@@Z 
?ClearToDefault@@YAXAAVEModel3Deactivate@@@Z 
?ClearToDefault@@YAXAAVEModelChange@@@Z 
?ClearToDefault@@YAXAAVEModelDeath@@@Z 
?ClearToDefault@@YAXAAVEModelDeathSpawnAmmoItem@@@Z 
?ClearToDefault@@YAXAAVEModelDeathSpawnArmorItem@@@Z 
?ClearToDefault@@YAXAAVEModelDeathSpawnHealthItem@@@Z 
?ClearToDefault@@YAXAAVEModelDeathSpawnSpecialItem@@@Z 
?ClearToDefault@@YAXAAVEModelSelfDestruction@@@Z 
?ClearToDefault@@YAXAAVEMoveLeft@@@Z 
?ClearToDefault@@YAXAAVEMoveRight@@@Z 
?ClearToDefault@@YAXAAVEMusicChangerTrigger@@@Z 
?ClearToDefault@@YAXAAVENetChangeMusic@@@Z 
?ClearToDefault@@YAXAAVENetFireWeapon@@@Z 
?ClearToDefault@@YAXAAVENetReleaseWeapon@@@Z 
?ClearToDefault@@YAXAAVENetReloadWeapon@@@Z 
?ClearToDefault@@YAXAAVENetSelectWeapon@@@Z 
?ClearToDefault@@YAXAAVENetSpawnEntity@@@Z 
?ClearToDefault@@YAXAAVENetTrigger@@@Z 
?ClearToDefault@@YAXAAVEOBJ_Add@@@Z 
?ClearToDefault@@YAXAAVEOBJ_Click@@@Z 
?ClearToDefault@@YAXAAVEOBJ_Finish@@@Z 
?ClearToDefault@@YAXAAVEOBJ_Receive@@@Z 
?ClearToDefault@@YAXAAVEOnMarker@@@Z 
?ClearToDefault@@YAXAAVEOnPeerDead@@@Z 
?ClearToDefault@@YAXAAVEOutDrugModeItem@@@Z 
?ClearToDefault@@YAXAAVEOutRange@@@Z 
?ClearToDefault@@YAXAAVEParticlesActivate@@@Z 
?ClearToDefault@@YAXAAVEParticlesDeactivate@@@Z 
?ClearToDefault@@YAXAAVEPlayAnim@@@Z 
?ClearToDefault@@YAXAAVEPlayEcstasy@@@Z 
?ClearToDefault@@YAXAAVEPlaySoundOnce@@@Z 
?ClearToDefault@@YAXAAVEPlayerDamage@@@Z 
?ClearToDefault@@YAXAAVEPlayerDeath@@@Z 
?ClearToDefault@@YAXAAVEPlayerInCloseRange@@@Z 
?ClearToDefault@@YAXAAVEPlayerKilledEnemy@@@Z 
?ClearToDefault@@YAXAAVEPlayerRebirth@@@Z 
?ClearToDefault@@YAXAAVEPlayerStats@@@Z 
?ClearToDefault@@YAXAAVEProjectileSpawnClient@@@Z 
?ClearToDefault@@YAXAAVEProtectorFire@@@Z 
?ClearToDefault@@YAXAAVEProtectorsCleared@@@Z 
?ClearToDefault@@YAXAAVERangeModelDestruction@@@Z 
?ClearToDefault@@YAXAAVERebirth@@@Z 
?ClearToDefault@@YAXAAVEReceiveScore@@@Z 
?ClearToDefault@@YAXAAVEReceiveSkaItem@@@Z 
?ClearToDefault@@YAXAAVEReconsiderBehavior@@@Z 
?ClearToDefault@@YAXAAVEReleaseWeapon@@@Z 
?ClearToDefault@@YAXAAVEReloadGetAmmo@@@Z 
?ClearToDefault@@YAXAAVEReloadWeapon@@@Z 
?ClearToDefault@@YAXAAVEReminder@@@Z 
?ClearToDefault@@YAXAAVEReminderInit@@@Z 
?ClearToDefault@@YAXAAVERenderLightning@@@Z 
?ClearToDefault@@YAXAAVERestartAttack@@@Z 
?ClearToDefault@@YAXAAVERight@@@Z 
?ClearToDefault@@YAXAAVERightAttack@@@Z 
?ClearToDefault@@YAXAAVERigidityWeapon@@@Z 
?ClearToDefault@@YAXAAVERotateLeft@@@Z 
?ClearToDefault@@YAXAAVERotateRight@@@Z 
?ClearToDefault@@YAXAAVEScroll@@@Z 
?ClearToDefault@@YAXAAVESecretFound@@@Z 
?ClearToDefault@@YAXAAVESelectOnly@@@Z 
?ClearToDefault@@YAXAAVESelectWeapon@@@Z 
?ClearToDefault@@YAXAAVESetBossGauge@@@Z 
?ClearToDefault@@YAXAAVESetPlayerWeapon@@@Z 
?ClearToDefault@@YAXAAVESetType@@@Z 
?ClearToDefault@@YAXAAVESetViewer@@@Z 
?ClearToDefault@@YAXAAVEShowConsole@@@Z 
?ClearToDefault@@YAXAAVESkaAmmoItem@@@Z 
?ClearToDefault@@YAXAAVESkaArmor@@@Z 
?ClearToDefault@@YAXAAVESkaHealth@@@Z 
?ClearToDefault@@YAXAAVESkaModelDeath@@@Z 
?ClearToDefault@@YAXAAVESkaMovingModelDestruction@@@Z 
?ClearToDefault@@YAXAAVESkaSpecialItem@@@Z 
?ClearToDefault@@YAXAAVESound@@@Z 
?ClearToDefault@@YAXAAVESpawnDebris@@@Z 
?ClearToDefault@@YAXAAVESpawnDebrisSka@@@Z 
?ClearToDefault@@YAXAAVESpawnEffect@@@Z 
?ClearToDefault@@YAXAAVESpawnEffector@@@Z 
?ClearToDefault@@YAXAAVESpawnFXEmiter@@@Z 
?ClearToDefault@@YAXAAVESpawnFlame@@@Z 
?ClearToDefault@@YAXAAVESpawnSpray@@@Z 
?ClearToDefault@@YAXAAVESpawnerProjectile@@@Z 
?ClearToDefault@@YAXAAVEStart@@@Z 
?ClearToDefault@@YAXAAVEStartAttack@@@Z 
?ClearToDefault@@YAXAAVEStartCounter@@@Z 
?ClearToDefault@@YAXAAVEStartDancers@@@Z 
?ClearToDefault@@YAXAAVEStartPulling@@@Z 
?ClearToDefault@@YAXAAVEStartSounds@@@Z 
?ClearToDefault@@YAXAAVEStealth@@@Z 
?ClearToDefault@@YAXAAVEStepBack@@@Z 
?ClearToDefault@@YAXAAVEStop@@@Z 
?ClearToDefault@@YAXAAVEStopAttack@@@Z 
?ClearToDefault@@YAXAAVEStopBlindness@@@Z 
?ClearToDefault@@YAXAAVEStopCounter@@@Z 
?ClearToDefault@@YAXAAVEStopDanceMode@@@Z 
?ClearToDefault@@YAXAAVEStopDancers@@@Z 
?ClearToDefault@@YAXAAVEStopDeafness@@@Z 
?ClearToDefault@@YAXAAVEStopFlaming@@@Z 
?ClearToDefault@@YAXAAVEStopPulling@@@Z 
?ClearToDefault@@YAXAAVEStopSounds@@@Z 
?ClearToDefault@@YAXAAVETeleportActivate@@@Z 
?ClearToDefault@@YAXAAVETeleportDeactivate@@@Z 
?ClearToDefault@@YAXAAVETeleportMovingBrush@@@Z 
?ClearToDefault@@YAXAAVETextFX@@@Z 
?ClearToDefault@@YAXAAVEToasterTrigger@@@Z 
?ClearToDefault@@YAXAAVETorpedoDamage@@@Z 
?ClearToDefault@@YAXAAVETorpedoExplode@@@Z 
?ClearToDefault@@YAXAAVETrigger@@@Z 
?ClearToDefault@@YAXAAVETriggerActionMarker@@@Z 
?ClearToDefault@@YAXAAVETriggerEffector@@@Z 
?ClearToDefault@@YAXAAVEViewInit@@@Z 
?ClearToDefault@@YAXAAVEVoiceMessage@@@Z 
?ClearToDefault@@YAXAAVEWait@@@Z 
?ClearToDefault@@YAXAAVEWatch@@@Z 
?ClearToDefault@@YAXAAVEWatcherInit@@@Z 
?ClearToDefault@@YAXAAVEWeaponChanged@@@Z 
?ClearToDefault@@YAXAAVEWeaponEffectInit@@@Z 
?ClearToDefault@@YAXAAVEWeaponsInit@@@Z 
?ClearToDefault@@YAXAAVEWeatherStart@@@Z 
?ClearToDefault@@YAXAAVEWeatherStop@@@Z 
?ClearToDefault@@YAXAAVEWhip@@@Z 
?ClearToDefault@@YAXAAVEbflameOff@@@Z 
?ClearToDefault@@YAXAAVEbflameOn@@@Z 
?ClearToDefault@@YAXAAVEbflame_ing@@@Z 
?ClearToDefault@@YAXAAW4AxAttackType@@@Z 
?ClearToDefault@@YAXAAW4BallSizeType@@@Z 
?ClearToDefault@@YAXAAW4BasicEffectType@@@Z 
?ClearToDefault@@YAXAAW4BigBallActionType@@@Z 
?ClearToDefault@@YAXAAW4BigBallFireType@@@Z 
?ClearToDefault@@YAXAAW4BigBallState@@@Z 
?ClearToDefault@@YAXAAW4BigBallType@@@Z 
?ClearToDefault@@YAXAAW4BikeRiderType@@@Z 
?ClearToDefault@@YAXAAW4BikeSkinType@@@Z 
?ClearToDefault@@YAXAAW4BladeAttackType@@@Z 
?ClearToDefault@@YAXAAW4BlendControllerType@@@Z 
?ClearToDefault@@YAXAAW4BlockAction@@@Z 
?ClearToDefault@@YAXAAW4BodyGuardState@@@Z 
?ClearToDefault@@YAXAAW4BodyGuardType@@@Z 
?ClearToDefault@@YAXAAW4BodyTemplate@@@Z 
?ClearToDefault@@YAXAAW4BoolEType@@@Z 
?ClearToDefault@@YAXAAW4BossHeliMovementType@@@Z 
?ClearToDefault@@YAXAAW4BruceAttackPattern@@@Z 
?ClearToDefault@@YAXAAW4BuffaloActionList@@@Z 
?ClearToDefault@@YAXAAW4BuffaloEnemyType@@@Z 
?ClearToDefault@@YAXAAW4BulletHitType@@@Z 
?ClearToDefault@@YAXAAW4CauseOfDeath@@@Z 
?ClearToDefault@@YAXAAW4ChickenAttackType@@@Z 
?ClearToDefault@@YAXAAW4ChickenMovementType@@@Z 
?ClearToDefault@@YAXAAW4ChickenStickyMovementType@@@Z 
?ClearToDefault@@YAXAAW4ClasificationBits@@@Z 
?ClearToDefault@@YAXAAW4ConanType@@@Z 
?ClearToDefault@@YAXAAW4ControlType@@@Z 
?ClearToDefault@@YAXAAW4CustomShadingType@@@Z 
?ClearToDefault@@YAXAAW4DebrisParticlesType@@@Z 
?ClearToDefault@@YAXAAW4DebugTargetType@@@Z 
?ClearToDefault@@YAXAAW4DestinationType@@@Z 
?ClearToDefault@@YAXAAW4DestructionDebrisType@@@Z 
?ClearToDefault@@YAXAAW4DoorType@@@Z 
?ClearToDefault@@YAXAAW4EffectMarkerType@@@Z 
?ClearToDefault@@YAXAAW4EffectParticlesType@@@Z 
?ClearToDefault@@YAXAAW4EffectorEffectType@@@Z 
?ClearToDefault@@YAXAAW4EndingType@@@Z 
?ClearToDefault@@YAXAAW4EnemyActionList@@@Z 
?ClearToDefault@@YAXAAW4EnemyAutoAction@@@Z 
?ClearToDefault@@YAXAAW4EnemyDiveType@@@Z 
?ClearToDefault@@YAXAAW4EnemyFlyType@@@Z 
?ClearToDefault@@YAXAAW4EnemySpawnerType@@@Z 
?ClearToDefault@@YAXAAW4EntityInfoBodyType@@@Z 
?ClearToDefault@@YAXAAW4EnvironmentParticlesHolderType@@@Z 
?ClearToDefault@@YAXAAW4EventEType@@@Z 
?ClearToDefault@@YAXAAW4ExplosionType@@@Z 
?ClearToDefault@@YAXAAW4FXAngleMode@@@Z 
?ClearToDefault@@YAXAAW4FXBlendType@@@Z 
?ClearToDefault@@YAXAAW4FixedWeaponType@@@Z 
?ClearToDefault@@YAXAAW4FlyingMechanicDirectionType@@@Z 
?ClearToDefault@@YAXAAW4FlyingMechanicRotateType@@@Z 
?ClearToDefault@@YAXAAW4FlyingMechanicStatementType@@@Z 
?ClearToDefault@@YAXAAW4FlyingMechanicType@@@Z 
?ClearToDefault@@YAXAAW4FogAttenuationType@@@Z 
?ClearToDefault@@YAXAAW4FogGraduationType2@@@Z 
?ClearToDefault@@YAXAAW4GRINDTYPE@@@Z 
?ClearToDefault@@YAXAAW4GravityType@@@Z 
?ClearToDefault@@YAXAAW4HawkMovementType@@@Z 
?ClearToDefault@@YAXAAW4HorseHwangboType@@@Z 
?ClearToDefault@@YAXAAW4HwangboFlameType@@@Z 
?ClearToDefault@@YAXAAW4HwangboRifleType@@@Z 
?ClearToDefault@@YAXAAW4KillType@@@Z 
?ClearToDefault@@YAXAAW4LensFlareType@@@Z 
?ClearToDefault@@YAXAAW4LightType@@@Z 
?ClearToDefault@@YAXAAW4MMH3ModelType@@@Z 
?ClearToDefault@@YAXAAW4MessageSound@@@Z 
?ClearToDefault@@YAXAAW4ModelDeathSpawnAmmoItemType@@@Z 
?ClearToDefault@@YAXAAW4ModelDeathSpawnArmorItemType@@@Z 
?ClearToDefault@@YAXAAW4ModelDeathSpawnHealthItemType@@@Z 
?ClearToDefault@@YAXAAW4ModelDeathSpawnItemType@@@Z 
?ClearToDefault@@YAXAAW4ModelDeathSpawnSpecialItemType@@@Z 
?ClearToDefault@@YAXAAW4ModelDestructionType@@@Z 
?ClearToDefault@@YAXAAW4MountHwangboType@@@Z 
?ClearToDefault@@YAXAAW4MusicType@@@Z 
?ClearToDefault@@YAXAAW4PFTrialType@@@Z 
?ClearToDefault@@YAXAAW4ParticleTexture@@@Z 
?ClearToDefault@@YAXAAW4ParticlesHolderType@@@Z 
?ClearToDefault@@YAXAAW4PedroSkinType@@@Z 
?ClearToDefault@@YAXAAW4PiapongState@@@Z 
?ClearToDefault@@YAXAAW4PigSkinType@@@Z 
?ClearToDefault@@YAXAAW4PigType@@@Z 
?ClearToDefault@@YAXAAW4PlayerAutoAction@@@Z 
?ClearToDefault@@YAXAAW4PlayerState@@@Z 
?ClearToDefault@@YAXAAW4PlayerTeleportCause@@@Z 
?ClearToDefault@@YAXAAW4PlayerViewType@@@Z 
?ClearToDefault@@YAXAAW4PlayerWeaponType@@@Z 
?ClearToDefault@@YAXAAW4PriestSpawnerType@@@Z 
?ClearToDefault@@YAXAAW4ProjectileMovingType@@@Z 
?ClearToDefault@@YAXAAW4ProjectileType@@@Z 
?ClearToDefault@@YAXAAW4ProtectorMGType@@@Z 
?ClearToDefault@@YAXAAW4ProtectorSGType@@@Z 
?ClearToDefault@@YAXAAW4ProtectorType@@@Z 
?ClearToDefault@@YAXAAW4RiderType@@@Z 
?ClearToDefault@@YAXAAW4RobertType@@@Z 
?ClearToDefault@@YAXAAW4ShadowType@@@Z 
?ClearToDefault@@YAXAAW4SkaAmmoItemType@@@Z 
?ClearToDefault@@YAXAAW4SkaArmorItemType@@@Z 
?ClearToDefault@@YAXAAW4SkaHealthItemType@@@Z 
?ClearToDefault@@YAXAAW4SkaSpecialItemType@@@Z 
?ClearToDefault@@YAXAAW4SnakeSkinType@@@Z 
?ClearToDefault@@YAXAAW4SndType@@@Z 
?ClearToDefault@@YAXAAW4SoundType@@@Z 
?ClearToDefault@@YAXAAW4SprayParticlesType@@@Z 
?ClearToDefault@@YAXAAW4StationaryWeaponType@@@Z 
?ClearToDefault@@YAXAAW4StreaksBlendType@@@Z 
?ClearToDefault@@YAXAAW4SwitchType@@@Z 
?ClearToDefault@@YAXAAW4TacticType@@@Z 
?ClearToDefault@@YAXAAW4TaoSkinType@@@Z 
?ClearToDefault@@YAXAAW4TargetType@@@Z 
?ClearToDefault@@YAXAAW4TouchOrDamageEvent@@@Z 
?ClearToDefault@@YAXAAW4TruckSkinType@@@Z 
?ClearToDefault@@YAXAAW4TurretType@@@Z 
?ClearToDefault@@YAXAAW4VehicleType@@@Z 
?ClearToDefault@@YAXAAW4ViewType@@@Z 
?ClearToDefault@@YAXAAW4VisibilityBits@@@Z 
?ClearToDefault@@YAXAAW4WarpRotation@@@Z 
?ClearToDefault@@YAXAAW4WeaponEffectType@@@Z 
?ClearToDefault@@YAXAAW4WeaponType@@@Z 
?ClearToDefault@@YAXAAW4WorldLinkType@@@Z 
?ClearWeapons@CPlayerWeapons@@QAEXXZ 
?CloseParticles@@YAXXZ 
?ComboCount@CEnemyBase@@QAEXXZ 
?ComboFall@CEnemyBase@@QAEHABVCEntityEvent@@@Z 
?ComboOFF@CComboManger@@QAEXXZ 
?ComboON@CComboManger@@QAEXXZ 
?ComboOff@CEnemyBase@@QAEXXZ 
?ComboOn@CEnemyBase@@QAEXXZ 
?Combotest@CEnemyBase@@QAEXXZ 
?ComputeOverKillDamage@CEnemyBase@@UAEXPAVCEntity@@M@Z 
?ComputeWhipPlacement@CPlayer@@QAEXAAVCPlacement3D@@PAVCEnemyBase@@@Z 
?ComputerPressed@CPlayer@@QAEXXZ 
?ConanMechanicRocket@CProjectile@@QAEXXZ 
?ConanMechanicRocketExplosion@CProjectile@@QAEXXZ 
?ConanType_enum@@3VCEntityPropertyEnumType@@A 
?ConanType_values@@3PAVCEntityPropertyEnumValue@@A 
?ControlFlareAttachment@CPlayerAnimator@@QAEXXZ 
?ControlFlareAttachment@CPlayerWeapons@@QAEXXZ 
?ControlFlareAttachment@CPlayerWeapons_L@@QAEXXZ 
?ControlType_enum@@3VCEntityPropertyEnumType@@A 
?ControlType_values@@3PAVCEntityPropertyEnumValue@@A 
?Copy@CEnemyBase@@UAEXAAVCEntity@@K@Z 
?Copy@CPlayer@@UAEXAAVCEntity@@K@Z 
?Copy@CProjectile@@UAEXAAVCEntity@@K@Z 
?CountAsKill@CEnemyBase@@UAEHXZ 
?CreateAnimAndBoneIDs@CPlayer@@QAEXXZ 
?CreateAnimAndBoneIDs@CPlayerWeapons@@QAEXXZ 
?CreateAnimAndBoneIDs@CPlayerWeapons_L@@QAEXXZ 
?CreateAnimAndBoneIDs@CProjectile@@QAEXXZ 
?CreateAnimAndBoneIDs@CSkaItem@@QAEXXZ 
?Crouch@CPlayerAnimator@@QAEXXZ 
?CustomShadingType_enum@@3VCEntityPropertyEnumType@@A 
?CustomShadingType_values@@3PAVCEntityPropertyEnumValue@@A 
?CutRunAnim@CEnemyBase@@UAEXXZ 
?CutTempAnim@CEnemyBase@@UAEXXZ 
?CutWalkAnim@CEnemyBase@@UAEXXZ 
?DamageImpact@CPlayer@@QAEXPAVCEntity@@W4DamageType@@MABV?$Vector@M$02@@2@Z 
?DamageStrength@@YAMW4EntityInfoBodyType@@W4DamageType@@@Z 
?DancerDagger@CProjectile@@QAEXXZ 
?DeSelect@CPlayerWeapons@@QAEHABVCEntityEvent@@@Z 
?DeSelect@CPlayerWeapons_L@@QAEHABVCEntityEvent@@@Z 
?Death@CEnemyBase@@QAEHABVCEntityEvent@@@Z 
?Death@CEnemyFly@@QAEHABVCEntityEvent@@@Z 
?Death@CPlayer@@QAEHABVCEntityEvent@@@Z 
?DeathActions@CPlayer@@QAEXABVCPlayerAction@@@Z 
?DeathNotify@CEnemyBase@@UAEXXZ 
?DeathSequence@CEnemyBase@@QAEHABVCEntityEvent@@@Z 
?DeathSound@CEnemyBase@@UAEXXZ 
?DebrisParticlesType_enum@@3VCEntityPropertyEnumType@@A 
?DebrisParticlesType_values@@3PAVCEntityPropertyEnumValue@@A 
?DebrisSka_Spawn@@YA?AVCEntityPointer@@PAVCEntity@@JMABV?$Vector@M$02@@@Z 
?DebrisSka_Spawn_Independent@@YA?AVCEntityPointer@@PAVCEntity@@JMVCPlacement3D@@V?$Vector@M$02@@2@Z 
?Debris_Begin@@YAXW4EntityInfoBodyType@@W4DebrisParticlesType@@W4BasicEffectType@@MABV?$Vector@M$02@@3MMK@Z 
?Debris_BeginCar@@YAXW4EntityInfoBodyType@@W4DebrisParticlesType@@W4BasicEffectType@@MABV?$Vector@M$02@@3MMK@Z 
?Debris_BeginNew@@YAXW4EntityInfoBodyType@@W4DebrisParticlesType@@W4BasicEffectType@@MABV?$Vector@M$02@@3MMW4DamageType@@K@Z 
?Debris_Spawn@@YA?AVCEntityPointer@@PAVCEntity@@0JJJJJJMABV?$Vector@M$02@@@Z 
?Debris_SpawnCar@@YA?AVCEntityPointer@@PAVCEntity@@0JJJJJJMABV?$Vector@M$02@@@Z 
?Debris_Spawn_Independent@@YA?AVCEntityPointer@@PAVCEntity@@0JJJJJJMVCPlacement3D@@V?$Vector@M$02@@2@Z 
?Debris_Spawn_MH2Template_FromMH2@@YA?AVCEntityPointer@@W4EntityInfoBodyType@@W4DebrisParticlesType@@W4BasicEffectType@@PAVCModelHolder2@@PAVCEntity@@3V?$Vector@M$02@@MVCPlacement3D@@55HMK@Z 
?Debris_Spawn_MH2Template_FromMH3@@YA?AVCEntityPointer@@W4EntityInfoBodyType@@W4DebrisParticlesType@@W4BasicEffectType@@PAVCModelHolder3@@PAVCEntity@@PAVCModelHolder2@@V?$Vector@M$02@@MVCPlacement3D@@66HMK@Z 
?Debris_Spawn_MH3Template_ForBrush@@YA?AVCEntityPointer@@W4EntityInfoBodyType@@W4DebrisParticlesType@@W4BasicEffectType@@PAVCEntity@@3PAVCModelHolder3@@V?$Vector@M$02@@MVCPlacement3D@@55HMKHH@Z 
?Debris_Spawn_MH3Template_FromMH2@@YA?AVCEntityPointer@@W4EntityInfoBodyType@@W4DebrisParticlesType@@W4BasicEffectType@@PAVCModelHolder2@@PAVCEntity@@PAVCModelHolder3@@V?$Vector@M$02@@MVCPlacement3D@@66HMK@Z 
?Debris_Spawn_MH3Template_FromMH3@@YA?AVCEntityPointer@@W4EntityInfoBodyType@@W4DebrisParticlesType@@W4BasicEffectType@@PAVCModelHolder3@@PAVCEntity@@3V?$Vector@M$02@@MVCPlacement3D@@55HMKHHM@Z 
?Debris_Spawn_Template@@YA?AVCEntityPointer@@W4EntityInfoBodyType@@W4DebrisParticlesType@@W4BasicEffectType@@PAVCModelHolder2@@PAVCEntity@@3V?$Vector@M$02@@MVCPlacement3D@@55HMK@Z 
?Debris_Spawn_Template_SkaMovingModel@@YA?AVCEntityPointer@@W4EntityInfoBodyType@@W4DebrisParticlesType@@W4BasicEffectType@@PAVCSkaMovingModelHolder@@PAVCEntity@@3V?$Vector@M$02@@MVCPlacement3D@@55HMK@Z 
?DebugTargetType_enum@@3VCEntityPropertyEnumType@@A 
?DebugTargetType_values@@3PAVCEntityPropertyEnumValue@@A 
?DelDrugModeItem@CEnemyBase@@QAEXXZ 
?Dellist@CComboManger@@QAEXK@Z 
?DemonFireball@CProjectile@@QAEXXZ 
?DemonFireballExplosion@CProjectile@@QAEXXZ 
?DestinationType_enum@@3VCEntityPropertyEnumType@@A 
?DestinationType_values@@3PAVCEntityPropertyEnumValue@@A 
?DestroyBullet@CBullet@@QAEXXZ 
?DestructionDebrisType_enum@@3VCEntityPropertyEnumType@@A 
?DestructionDebrisType_values@@3PAVCEntityPropertyEnumValue@@A 
?Die@CEnemyBase@@QAEHABVCEntityEvent@@@Z 
?Disconnect@CPlayer@@UAEXXZ 
?DistanceTo@@YAMPAVCEntity@@0@Z 
?DistanceToPointFromEntity@@YAMPAVCEntity@@V?$Vector@M$02@@@Z 
?DiveFire@CEnemyDive@@QAEHABVCEntityEvent@@@Z 
?DiveHit@CEnemyDive@@QAEHABVCEntityEvent@@@Z 
?DoAutoActions@CPlayer@@QAEHABVCEntityEvent@@@Z 
?DoBleeding@CEnemyBase@@UAEXV?$Vector@M$02@@0W4DamageType@@M@Z 
?DoMoving@CPlayer@@UAEXXZ 
?DoMoving@CPlayerView@@UAEXXZ 
?DoPatrolling@CEnemyBase@@QAEHABVCEntityEvent@@@Z 
?DoorType_enum@@3VCEntityPropertyEnumType@@A 
?DoorType_values@@3PAVCEntityPropertyEnumValue@@A 
?DropWeapon@CPlayerWeapons@@QAEXXZ 
?DropsMarker@CEnemyBase@@UBEHAAVCTFileName@@AAVCTString@@@Z 
?DropsMarker@CNavigationMarker@@UBEHAAVCTFileName@@AAVCTString@@@Z 
?DrugModeHeart@CProjectile@@QAEXXZ 
?Dummy@CWatcher@@QAEHABVCEntityEvent@@@Z 
?DumpToConsole@CPlayer@@UAEXXZ 
?EffectMarkerType_enum@@3VCEntityPropertyEnumType@@A 
?EffectMarkerType_values@@3PAVCEntityPropertyEnumValue@@A 
?EffectParticlesType_enum@@3VCEntityPropertyEnumType@@A 
?EffectParticlesType_values@@3PAVCEntityPropertyEnumValue@@A 
?EffectorEffectType_enum@@3VCEntityPropertyEnumType@@A 
?EffectorEffectType_values@@3PAVCEntityPropertyEnumValue@@A 
?EndBomb@CMaria@@QAEXXZ 
?EndBooster@CPlayer@@QAEXXZ 
?EndCrazy@CPlayer@@QAEXXZ 
?EndDruggy@CPlayer@@QAEXXZ 
?EndDrugmode@CPlayer@@QAEHABVCEntityEvent@@@Z 
?EndMariaActiveDie@CPlayer@@QAEXXZ 
?EndScoreGuage@CPlayer@@QAEXXZ 
?EndingType_enum@@3VCEntityPropertyEnumType@@A 
?EndingType_values@@3PAVCEntityPropertyEnumValue@@A 
?EnemyActionList_enum@@3VCEntityPropertyEnumType@@A 
?EnemyActionList_values@@3PAVCEntityPropertyEnumValue@@A 
?EnemyAutoAction_enum@@3VCEntityPropertyEnumType@@A 
?EnemyAutoAction_values@@3PAVCEntityPropertyEnumValue@@A 
?EnemyDiveType_enum@@3VCEntityPropertyEnumType@@A 
?EnemyDiveType_values@@3PAVCEntityPropertyEnumValue@@A 
?EnemyFlame@CProjectile@@QAEXXZ 
?EnemyFlyType_enum@@3VCEntityPropertyEnumType@@A 
?EnemyFlyType_values@@3PAVCEntityPropertyEnumValue@@A 
?EnemyPostInit@CEnemyBase@@UAEXXZ 
?EnemyRocket@CProjectile@@QAEXXZ 
?EnemyRocketExplosion@CProjectile@@QAEXXZ 
?EnemySpawnerType_enum@@3VCEntityPropertyEnumType@@A 
?EnemySpawnerType_values@@3PAVCEntityPropertyEnumValue@@A 
?EntityInfoBodyType_enum@@3VCEntityPropertyEnumType@@A 
?EntityInfoBodyType_values@@3PAVCEntityPropertyEnumValue@@A 
?EntityTouched@CEnemyHorse@@UAEXVETouch@@@Z 
?EntityTouched@CEnemyRunInto@@UAEXVETouch@@@Z 
?EnvironmentParticlesHolderType_enum@@3VCEntityPropertyEnumType@@A 
?EnvironmentParticlesHolderType_values@@3PAVCEntityPropertyEnumValue@@A 
?EventEType_enum@@3VCEntityPropertyEnumType@@A 
?EventEType_values@@3PAVCEntityPropertyEnumValue@@A 
?ExplosionType_enum@@3VCEntityPropertyEnumType@@A 
?ExplosionType_values@@3PAVCEntityPropertyEnumValue@@A 
?FXAngleMode_enum@@3VCEntityPropertyEnumType@@A 
?FXAngleMode_values@@3PAVCEntityPropertyEnumValue@@A 
?FXBlendType_enum@@3VCEntityPropertyEnumType@@A 
?FXBlendType_values@@3PAVCEntityPropertyEnumValue@@A 
?Fall@CPlayerAnimator@@QAEXXZ 
?FernandesLaser@CProjectile@@QAEXXZ 
?FillAutoAimCoords@CEnemyBase@@UAEXPAV?$Vector@M$02@@PAM@Z 
?FillAutoAimCoords@CPlayer@@QAEXPAV?$Vector@M$02@@PAM@Z 
?FillAutoAimCoords@CProjectile@@QAEXPAV?$Vector@M$02@@PAM@Z 
?FillAutoAimList@CPlayerWeapons@@QAEXKPAVCPlacement3D@@PAXJ@Z 
?FillEntityStatistics@CEnemyBase@@UAEHPAUEntityStats@@@Z 
?FindClosestMarkerNew@@YAXPAVCEntity@@ABV?$Vector@M$02@@AAPAV1@AAV2@@Z 
?FindClosestPlayer@CWatcher@@QAEPAVCEntity@@XZ 
?FindMusicHolder@CPlayer@@QAEXXZ 
?FindNextPathMarker@CEnemyBase@@UAEXXZ 
?FindPath@CEnemyBase@@UAEXXZ 
?FindWeapon_Direct@CPlayerWeapons@@QAE?AW4WeaponType@@J@Z 
?FindWeapon_Direct@CPlayerWeapons_L@@QAE?AW4WeaponType@@J@Z 
?FindWeapon_QE@CPlayerWeapons@@QAE?AW4WeaponType@@J@Z 
?FindWeapon_QE@CPlayerWeapons_L@@QAE?AW4WeaponType@@J@Z 
?FindWeapon_Wheel@CPlayerWeapons@@QAE?AW4WeaponType@@J@Z 
?FindWeapon_Wheel@CPlayerWeapons_L@@QAE?AW4WeaponType@@J@Z 
?Findlist@CComboManger@@QAEPAVCcomboitem@@K@Z 
?Fire@CEnemyBase@@QAEHABVCEntityEvent@@@Z 
?Fire@CEnemyDive@@QAEHABVCEntityEvent@@@Z 
?Fire@CEnemyFly@@QAEHABVCEntityEvent@@@Z 
?Fire@CEnemyRunInto@@QAEHABVCEntityEvent@@@Z 
?Fire@CMaria@@QAEHABVCEntityEvent@@@Z 
?Fire@CPlayerWeapons@@QAEHABVCEntityEvent@@@Z 
?Fire@CPlayerWeapons_L@@QAEHABVCEntityEvent@@@Z 
?FireAnimation@CPlayerAnimator@@QAEXJK@Z 
?FireAnimationOff@CPlayerAnimator@@QAEXXZ 
?FireFixedLaser@CPlayerWeapons_L@@QAEHABVCEntityEvent@@@Z 
?FireFixedLaserRay@CPlayerWeapons_L@@QAEXXZ 
?FireFixedMachineBullet@CPlayerWeapons_L@@QAEXMMMMMMH@Z 
?FireFixedRocket@CPlayerWeapons@@QAEXAAV?$Vector@M$02@@0@Z 
?FireFixedRocketLauncher@CPlayerWeapons@@QAEHABVCEntityEvent@@@Z 
?FireFlower@CPlayerWeapons@@QAEHABVCEntityEvent@@@Z 
?FireGrenade@CPlayerWeapons@@QAEXJ@Z 
?FireGrenadeLauncher@CPlayerWeapons@@QAEHABVCEntityEvent@@@Z 
?FireMachineBullet@CPlayerWeapons@@QAEXMMMMMMH@Z 
?FireMachineBullet@CPlayerWeapons_L@@QAEXMMMMMMH@Z 
?FireMachineGun@CPlayerWeapons@@QAEHABVCEntityEvent@@@Z 
?FireMachineGun@CPlayerWeapons_L@@QAEHABVCEntityEvent@@@Z 
?FireNitro@CPlayerWeapons@@QAEXXZ 
?FireNitroGuide@CPlayerWeapons@@QAEXXZ 
?FireNitroLauncher@CPlayerWeapons@@QAEHABVCEntityEvent@@@Z 
?FireOrHit@CEnemyBase@@QAEHABVCEntityEvent@@@Z 
?FireOrHit@CEnemyFly@@QAEHABVCEntityEvent@@@Z 
?FirePushGun@CPlayerWeapons@@QAEHABVCEntityEvent@@@Z 
?FirePushNarrow@CPlayerWeapons@@QAEXXZ 
?FirePushWide@CPlayerWeapons@@QAEXXZ 
?FireRocket@CPlayerWeapons@@QAEXMM@Z 
?FireRocket@CPlayerWeapons_L@@QAEXMM@Z 
?FireRocketLauncher@CPlayerWeapons@@QAEHABVCEntityEvent@@@Z 
?FireRocketLauncher@CPlayerWeapons_L@@QAEHABVCEntityEvent@@@Z 
?FireShotgun@CPlayerWeapons@@QAEHABVCEntityEvent@@@Z 
?FireShotgun@CPlayerWeapons_L@@QAEHABVCEntityEvent@@@Z 
?FireShotgunBullets@CPlayerWeapons@@QAEXMMMMJPAMMM@Z 
?FireShotgunBullets@CPlayerWeapons_L@@QAEXMMMMJPAMMM@Z 
?FireSniper@CPlayerWeapons@@QAEXMMM@Z 
?FireSniperGun@CPlayerWeapons@@QAEHABVCEntityEvent@@@Z 
?FireballProjectile@CProjectile@@QAEXXZ 
?FireballProjectileExplosion@CProjectile@@QAEXXZ 
?FirstInit@CPlayer@@QAEHABVCEntityEvent@@@Z 
?FixAutoActionTrash@CPlayer@@QAEXXZ 
?FixedWeaponType_enum@@3VCEntityPropertyEnumType@@A 
?FixedWeaponType_values@@3PAVCEntityPropertyEnumValue@@A 
?FixupCausedToPlayer@@YAPAVCEntity@@PAV1@0H@Z 
?FlameTest@CProjectile@@QAEXXZ 
?FlameTest_RenderParticles@CProjectile@@QAEXXZ 
?FlameTest_bossroom@CProjectile@@QAEXXZ 
?FlareBulletProjectile@CProjectile@@QAEXXZ 
?FlyFire@CEnemyFly@@QAEHABVCEntityEvent@@@Z 
?FlyHit@CEnemyFly@@QAEHABVCEntityEvent@@@Z 
?FlyUp@CMaria@@QAEHABVCEntityEvent@@@Z 
?FlyingMechanicDirectionType_enum@@3VCEntityPropertyEnumType@@A 
?FlyingMechanicDirectionType_values@@3PAVCEntityPropertyEnumValue@@A 
?FlyingMechanicGuidedRocket@CProjectile@@QAEXXZ 
?FlyingMechanicGuidedRocketExplosion@CProjectile@@QAEXXZ 
?FlyingMechanicLaser@CProjectile@@QAEXXZ 
?FlyingMechanicLaserWave@CProjectile@@QAEXXZ 
?FlyingMechanicRotateType_enum@@3VCEntityPropertyEnumType@@A 
?FlyingMechanicRotateType_values@@3PAVCEntityPropertyEnumValue@@A 
?FlyingMechanicStatementType_enum@@3VCEntityPropertyEnumType@@A 
?FlyingMechanicStatementType_values@@3PAVCEntityPropertyEnumValue@@A 
?FlyingMechanicType_enum@@3VCEntityPropertyEnumType@@A 
?FlyingMechanicType_values@@3PAVCEntityPropertyEnumValue@@A 
?FogAttenuationType_enum@@3VCEntityPropertyEnumType@@A 
?FogAttenuationType_values@@3PAVCEntityPropertyEnumValue@@A 
?FogGraduationType2_enum@@3VCEntityPropertyEnumType@@A 
?FogGraduationType2_values@@3PAVCEntityPropertyEnumValue@@A 
?ForcesCannonballToExplode@CEnemyBase@@UAEHXZ 
?FrontDetach@CEnemyBase@@QAEHABVCEntityEvent@@@Z 
?FullMachinegun@CPlayerWeapons@@QAEXXZ 
?FullMachinegun@CPlayerWeapons_L@@QAEXXZ 
?FullRocket@CPlayerWeapons@@QAEXXZ 
?FullRocket@CPlayerWeapons_L@@QAEXXZ 
?FullShotgun@CPlayerWeapons@@QAEXXZ 
?FullShotgun@CPlayerWeapons_L@@QAEXXZ 
?GRINDTYPE_enum@@3VCEntityPropertyEnumType@@A 
?GRINDTYPE_values@@3PAVCEntityPropertyEnumValue@@A 
?GenderSound@CPlayer@@QAEJJ@Z 
?GenerateBikini@CPlayer@@QAEPAVCEnemyBase@@AAV2@@Z 
?GenerateOrigin@CPlayer@@QAEPAVCEnemyBase@@AAV2@@Z 
?GetActionMarker@CEnemyBase@@QAEPAVCEnemyActionMarker@@XZ 
?GetActionMarker@CPlayer@@QAEPAVCPlayerActionMarker@@XZ 
?GetAmmo@CPlayerWeapons@@QAEJXZ 
?GetAnimLength@CEnemyBase@@QAEMH@Z 
?GetAnimator@CPlayerWeapons@@QAEPAVCPlayerAnimator@@XZ 
?GetAnimator@CPlayerWeapons_L@@QAEPAVCPlayerAnimator@@XZ 
?GetAttachedKey@CPlayerAnimator@@QAEPAVCModelInstance@@XZ 
?GetAttackMoveFrequency@CEnemyBase@@UAEMM@Z 
?GetBloodColor@CEnemyBase@@QAEKXZ 
?GetComboCount@CComboManger@@QAEIXZ 
?GetComboEnemyCount@CComboManger@@QAEJXZ 
?GetComputerMessageName@CEnemyBase@@UBEABVCTFileName@@XZ 
?GetCrushHealth@CEnemyBase@@UAEMXZ 
?GetCurrentAnimLength@CEnemyBase@@QAEMXZ 
?GetDeathmatchStartMarker@CPlayer@@QAEPAVCEntity@@XZ 
?GetDescription@CEnemyBase@@UBEABVCTString@@XZ 
?GetDescription@CNavigationMarker@@UBEABVCTString@@XZ 
?GetDescription@CSkaItem@@UBEABVCTString@@XZ 
?GetDetailStatsCoop@CPlayer@@QAEXAAVCTString@@@Z 
?GetDetailStatsDM@CPlayer@@QAEXAAVCTString@@@Z 
?GetDetailStatsSP@CPlayer@@QAEXAAVCTString@@J@Z 
?GetDrugModeStats@CEnemyBase@@UAEHXZ 
?GetEntityInfo@CNavigationMarker@@UAEPAXXZ 
?GetEntityInfo@CPlayer@@UAEPAXXZ 
?GetEntityInfo@CProjectile@@UAEPAXXZ 
?GetEntityInfoPosition@@YAXPAVCEntity@@PAMAAV?$Vector@M$02@@@Z 
?GetFOV@CPlayer@@QAEMXZ 
?GetFlamerSourcePlacement@CPlayerWeapons@@QAEXAAVCPlacement3D@@0@Z 
?GetFrustumAngle@CEnemyBase@@QAEMABV?$Vector@M$02@@@Z 
?GetGameDamageMultiplier@@YAMXZ 
?GetGameSpyPlayerInfo@CPlayer@@UAEXJAAVCTString@@@Z 
?GetGravity@CEmiter@@QAE?AV?$Vector@M$02@@PAVCEntity@@@Z 
?GetGravity@CPlayer@@QAE?AV?$Vector@M$02@@XZ 
?GetHeadingDirection@CModelHolder3@@QAEXMAAV?$Vector@M$02@@@Z 
?GetLastEnemy@CComboManger@@QAEPAVCEnemyBase@@XZ 
?GetLerpedAbsoluteViewPlacement@CPlayer@@QAEXAAVCPlacement3D@@@Z 
?GetLerpedPlacement@CPlayerView@@UBE?AVCPlacement3D@@XZ 
?GetLerpedWeaponPosition@CPlayer@@QAEXV?$Vector@M$02@@AAVCPlacement3D@@@Z 
?GetLightSource@CPlayer@@UAEPAVCLightSource@@XZ 
?GetLightSource@CProjectile@@UAEPAVCLightSource@@XZ 
?GetLink@CNavigationMarker@@QAEPAV1@J@Z 
?GetLink@CPathNode@@QAEPAV1@J@Z 
?GetLockRotationSpeed@CEnemyBase@@UAEMXZ 
?GetMaxAmmo@CPlayerWeapons@@QAEJXZ 
?GetModelInstanceForRendering@CPlayer@@UAEPAVCModelInstance@@XZ 
?GetModelStretch@CEnemyBase@@QAEAAV?$Vector@M$02@@XZ 
?GetName@CEnemyBase@@UBEABVCTString@@XZ 
?GetName@CNavigationMarker@@UBEABVCTString@@XZ 
?GetName@CPathNode@@QAEABVCTString@@XZ 
?GetName@CSkaItem@@UBEABVCTString@@XZ 
?GetNowComboStates@CEnemyBase@@UAEHXZ 
?GetOriginName@CEnemyBase@@QAEXAAVCTString@@@Z 
?GetOwner@CWatcher@@QAEPAVCEnemyBase@@XZ 
?GetPassedTime@CEnemyBase@@QAEMXZ 
?GetPathNode@CNavigationMarker@@QAEPAVCPathNode@@XZ 
?GetPitchDirection@CModelHolder3@@QAEXMAAV?$Vector@M$02@@@Z 
?GetPlaneFrustumAngle@CEnemyBase@@QAEMABV?$Vector@M$02@@@Z 
?GetPlayer@CPlayerAnimator@@QAEPAVCPlayer@@XZ 
?GetPlayer@CPlayerWeapons@@QAEPAVCPlayer@@XZ 
?GetPlayer@CPlayerWeapons_L@@QAEPAVCPlayer@@XZ 
?GetPlayerAnimator@CPlayer@@QAEPAVCPlayerAnimator@@XZ 
?GetPlayerKillDescription@CEnemyBase@@UAE?AVCTString@@ABV2@ABVEDeath@@@Z 
?GetPlayerSelectWeaponType@CPlayer@@QAEJXZ 
?GetPlayerWeapons@CPlayer@@QAEPAVCPlayerWeapons@@XZ 
?GetPlayerWeapons_L@CPlayer@@QAEPAVCPlayerWeapons_L@@XZ 
?GetPositionCastRay@@YAXPAVCEntity@@0AAV?$Vector@M$02@@1@Z 
?GetPredictionPair@CPlayerAnimator@@UAEPAVCEntity@@XZ 
?GetPredictionPair@CPlayerView@@UAEPAVCEntity@@XZ 
?GetPredictionPair@CProjectile@@UAEPAVCEntity@@XZ 
?GetPredictionPair@CWatcher@@UAEPAVCEntity@@XZ 
?GetPropA@CEnemyBase@@UAEAAMAAM@Z 
?GetPropA@CEnemyDive@@UAEAAMAAM@Z 
?GetPropA@CEnemyFly@@UAEAAMAAM@Z 
?GetRandomPlayer@CWatcher@@QAEJXZ 
?GetRotation@CPlayer@@QAEMJ@Z 
?GetRotationDiff@CPlayer@@QAEMJM@Z 
?GetRotationSpeed@CProjectile@@QAEMMMM@Z 
?GetSP@@YAPBVCSessionProperties@@XZ 
?GetSeriousDamageMultiplier@@YAMPAVCEntity@@@Z 
?GetSettings@CPlayer@@QAEPAVCPlayerSettings@@XZ 
?GetShortStats@CPlayer@@QAEXAAVCTString@@@Z 
?GetSizeOf@EActivate@@UAEJXZ 
?GetSizeOf@EActivateBlend@@UAEJXZ 
?GetSizeOf@EActiveMariaDie@@UAEJXZ 
?GetSizeOf@EAddBulletSpray@@UAEJXZ 
?GetSizeOf@EAddGoreSpray@@UAEJXZ 
?GetSizeOf@EAnimForDamage@@UAEJXZ 
?GetSizeOf@EAnimatorInit@@UAEJXZ 
?GetSizeOf@EArchitectureDeath@@UAEJXZ 
?GetSizeOf@EAttachChild@@UAEJXZ 
?GetSizeOf@EAutoAction@@UAEJXZ 
?GetSizeOf@EAutoQuickSave@@UAEJXZ 
?GetSizeOf@EAvoidProjectiles@@UAEJXZ 
?GetSizeOf@EBFlame@@UAEJXZ 
?GetSizeOf@EBGravity@@UAEJXZ 
?GetSizeOf@EBackMaria@@UAEJXZ 
?GetSizeOf@EBackMariaNPC@@UAEJXZ 
?GetSizeOf@EBackward@@UAEJXZ 
?GetSizeOf@EBasket@@UAEJXZ 
?GetSizeOf@EBbSetValue@@UAEJXZ 
?GetSizeOf@EBlowUp@@UAEJXZ 
?GetSizeOf@EBonus@@UAEJXZ 
?GetSizeOf@EBoosterEnd@@UAEJXZ 
?GetSizeOf@EBoringWeapon@@UAEJXZ 
?GetSizeOf@EBossWounded@@UAEJXZ 
?GetSizeOf@EBruceDefenseFinished@@UAEJXZ 
?GetSizeOf@EBruceDefenseProjectiles@@UAEJXZ 
?GetSizeOf@EBruceTeleport@@UAEJXZ 
?GetSizeOf@EBrushDeath@@UAEJXZ 
?GetSizeOf@EBrushDestroyed@@UAEJXZ 
?GetSizeOf@EBuffaloMoveThroughMarkers@@UAEJXZ 
?GetSizeOf@EBulletInit@@UAEJXZ 
?GetSizeOf@EBurning@@UAEJXZ 
?GetSizeOf@ECameraStart@@UAEJXZ 
?GetSizeOf@ECameraStop@@UAEJXZ 
?GetSizeOf@ECannotLaunchMaria@@UAEJXZ 
?GetSizeOf@ECarSexDamage@@UAEJXZ 
?GetSizeOf@ECenterMessage@@UAEJXZ 
?GetSizeOf@EChangeAnim@@UAEJXZ 
?GetSizeOf@EChangeDance@@UAEJXZ 
?GetSizeOf@EChangeGravity@@UAEJXZ 
?GetSizeOf@EChangeGravityForce@@UAEJXZ 
?GetSizeOf@EChangeMusic@@UAEJXZ 
?GetSizeOf@ECloseRangeAttack@@UAEJXZ 
?GetSizeOf@ECombo@@UAEJXZ 
?GetSizeOf@EComputerMessage@@UAEJXZ 
?GetSizeOf@ECopierTrigger@@UAEJXZ 
?GetSizeOf@ECoreDamage@@UAEJXZ 
?GetSizeOf@ECoreDie@@UAEJXZ 
?GetSizeOf@ECoreFlame@@UAEJXZ 
?GetSizeOf@ECoreFlameandGrind@@UAEJXZ 
?GetSizeOf@ECoreGravity@@UAEJXZ 
?GetSizeOf@ECoreGrind@@UAEJXZ 
?GetSizeOf@ECorePriestDefault@@UAEJXZ 
?GetSizeOf@ECounterCount@@UAEJXZ 
?GetSizeOf@ECrazyBegin@@UAEJXZ 
?GetSizeOf@ECrazyEnd@@UAEJXZ 
?GetSizeOf@ECredits@@UAEJXZ 
?GetSizeOf@EDancerAcrobatRemoved@@UAEJXZ 
?GetSizeOf@EDancerNormalCreated@@UAEJXZ 
?GetSizeOf@EDeactivate@@UAEJXZ 
?GetSizeOf@EDeactivateBlend@@UAEJXZ 
?GetSizeOf@EDefenseBullet@@UAEJXZ 
?GetSizeOf@EDetachChild@@UAEJXZ 
?GetSizeOf@EDirectDancers@@UAEJXZ 
?GetSizeOf@EDisconnected@@UAEJXZ 
?GetSizeOf@EDownMode@@UAEJXZ 
?GetSizeOf@EDrugmodeBegin@@UAEJXZ 
?GetSizeOf@EDrugmodeEnd@@UAEJXZ 
?GetSizeOf@EEnd@@UAEJXZ 
?GetSizeOf@EEndActor@@UAEJXZ 
?GetSizeOf@EEnding@@UAEJXZ 
?GetSizeOf@EEndingCameraStop@@UAEJXZ 
?GetSizeOf@EEnemyBaseDamage@@UAEJXZ 
?GetSizeOf@EEnemyBaseDeath@@UAEJXZ 
?GetSizeOf@EEntityVoice@@UAEJXZ 
?GetSizeOf@EEnvironmentStart@@UAEJXZ 
?GetSizeOf@EEnvironmentStop@@UAEJXZ 
?GetSizeOf@EExplode@@UAEJXZ 
?GetSizeOf@EExtraTeleport@@UAEJXZ 
?GetSizeOf@EFireBombs@@UAEJXZ 
?GetSizeOf@EFireDagger@@UAEJXZ 
?GetSizeOf@EFireRocket@@UAEJXZ 
?GetSizeOf@EFireWeapon@@UAEJXZ 
?GetSizeOf@EFlame@@UAEJXZ 
?GetSizeOf@EFlipTheSwitch@@UAEJXZ 
?GetSizeOf@EForceWound@@UAEJXZ 
?GetSizeOf@EForward@@UAEJXZ 
?GetSizeOf@EGetAngry@@UAEJXZ 
?GetSizeOf@EGetDamaged@@UAEJXZ 
?GetSizeOf@EGotFlower@@UAEJXZ 
?GetSizeOf@EGrenadeExplodeNow@@UAEJXZ 
?GetSizeOf@EGrindClose@@UAEJXZ 
?GetSizeOf@EGrindInit@@UAEJXZ 
?GetSizeOf@EGrindOff@@UAEJXZ 
?GetSizeOf@EGrindOn@@UAEJXZ 
?GetSizeOf@EGrindOpen@@UAEJXZ 
?GetSizeOf@EGuard@@UAEJXZ 
?GetSizeOf@EGuardState@@UAEJXZ 
?GetSizeOf@EHit@@UAEJXZ 
?GetSizeOf@EHitBySpaceShipBeam@@UAEJXZ 
?GetSizeOf@EHudPicFX@@UAEJXZ 
?GetSizeOf@EInDrugModeItem@@UAEJXZ 
?GetSizeOf@EInRange@@UAEJXZ 
?GetSizeOf@EInitMaria@@UAEJXZ 
?GetSizeOf@EInitMariaNPC@@UAEJXZ 
?GetSizeOf@EKickBlob@@UAEJXZ 
?GetSizeOf@EKilledEnemy@@UAEJXZ 
?GetSizeOf@ELamonBikeFireRocket@@UAEJXZ 
?GetSizeOf@ELamonBikeMoveThroughMarkers@@UAEJXZ 
?GetSizeOf@ELamonBikeSuicide@@UAEJXZ 
?GetSizeOf@ELandingActiveMaria@@UAEJXZ 
?GetSizeOf@ELandingMaria@@UAEJXZ 
?GetSizeOf@ELaunch@@UAEJXZ 
?GetSizeOf@ELaunchActiveMaria@@UAEJXZ 
?GetSizeOf@ELaunchAx@@UAEJXZ 
?GetSizeOf@ELaunchMaria@@UAEJXZ 
?GetSizeOf@ELaunchMariaNPC@@UAEJXZ 
?GetSizeOf@ELaunchProjectile@@UAEJXZ 
?GetSizeOf@ELeft@@UAEJXZ 
?GetSizeOf@ELisa@@UAEJXZ 
?GetSizeOf@EMarkPicked@@UAEJXZ 
?GetSizeOf@EMarkerPassed@@UAEJXZ 
?GetSizeOf@EModel2Activate@@UAEJXZ 
?GetSizeOf@EModel2Deactivate@@UAEJXZ 
?GetSizeOf@EModel3Activate@@UAEJXZ 
?GetSizeOf@EModel3Deactivate@@UAEJXZ 
?GetSizeOf@EModelChange@@UAEJXZ 
?GetSizeOf@EModelDeath@@UAEJXZ 
?GetSizeOf@EModelDeathSpawnAmmoItem@@UAEJXZ 
?GetSizeOf@EModelDeathSpawnArmorItem@@UAEJXZ 
?GetSizeOf@EModelDeathSpawnHealthItem@@UAEJXZ 
?GetSizeOf@EModelDeathSpawnSpecialItem@@UAEJXZ 
?GetSizeOf@EModelSelfDestruction@@UAEJXZ 
?GetSizeOf@EMoveLeft@@UAEJXZ 
?GetSizeOf@EMoveRight@@UAEJXZ 
?GetSizeOf@EMusicChangerTrigger@@UAEJXZ 
?GetSizeOf@ENetChangeMusic@@UAEJXZ 
?GetSizeOf@ENetFireWeapon@@UAEJXZ 
?GetSizeOf@ENetReleaseWeapon@@UAEJXZ 
?GetSizeOf@ENetReloadWeapon@@UAEJXZ 
?GetSizeOf@ENetSelectWeapon@@UAEJXZ 
?GetSizeOf@ENetSpawnEntity@@UAEJXZ 
?GetSizeOf@ENetTrigger@@UAEJXZ 
?GetSizeOf@EOBJ_Add@@UAEJXZ 
?GetSizeOf@EOBJ_Click@@UAEJXZ 
?GetSizeOf@EOBJ_Finish@@UAEJXZ 
?GetSizeOf@EOBJ_Receive@@UAEJXZ 
?GetSizeOf@EOnMarker@@UAEJXZ 
?GetSizeOf@EOnPeerDead@@UAEJXZ 
?GetSizeOf@EOutDrugModeItem@@UAEJXZ 
?GetSizeOf@EOutRange@@UAEJXZ 
?GetSizeOf@EParticlesActivate@@UAEJXZ 
?GetSizeOf@EParticlesDeactivate@@UAEJXZ 
?GetSizeOf@EPlayAnim@@UAEJXZ 
?GetSizeOf@EPlayEcstasy@@UAEJXZ 
?GetSizeOf@EPlaySoundOnce@@UAEJXZ 
?GetSizeOf@EPlayerDamage@@UAEJXZ 
?GetSizeOf@EPlayerDeath@@UAEJXZ 
?GetSizeOf@EPlayerInCloseRange@@UAEJXZ 
?GetSizeOf@EPlayerKilledEnemy@@UAEJXZ 
?GetSizeOf@EPlayerRebirth@@UAEJXZ 
?GetSizeOf@EPlayerStats@@UAEJXZ 
?GetSizeOf@EProjectileSpawnClient@@UAEJXZ 
?GetSizeOf@EProtectorFire@@UAEJXZ 
?GetSizeOf@EProtectorsCleared@@UAEJXZ 
?GetSizeOf@ERangeModelDestruction@@UAEJXZ 
?GetSizeOf@ERebirth@@UAEJXZ 
?GetSizeOf@EReceiveScore@@UAEJXZ 
?GetSizeOf@EReceiveSkaItem@@UAEJXZ 
?GetSizeOf@EReconsiderBehavior@@UAEJXZ 
?GetSizeOf@EReleaseWeapon@@UAEJXZ 
?GetSizeOf@EReloadGetAmmo@@UAEJXZ 
?GetSizeOf@EReloadWeapon@@UAEJXZ 
?GetSizeOf@EReminder@@UAEJXZ 
?GetSizeOf@EReminderInit@@UAEJXZ 
?GetSizeOf@ERenderLightning@@UAEJXZ 
?GetSizeOf@ERestartAttack@@UAEJXZ 
?GetSizeOf@ERight@@UAEJXZ 
?GetSizeOf@ERightAttack@@UAEJXZ 
?GetSizeOf@ERigidityWeapon@@UAEJXZ 
?GetSizeOf@ERotateLeft@@UAEJXZ 
?GetSizeOf@ERotateRight@@UAEJXZ 
?GetSizeOf@EScroll@@UAEJXZ 
?GetSizeOf@ESecretFound@@UAEJXZ 
?GetSizeOf@ESelectOnly@@UAEJXZ 
?GetSizeOf@ESelectWeapon@@UAEJXZ 
?GetSizeOf@ESetBossGauge@@UAEJXZ 
?GetSizeOf@ESetPlayerWeapon@@UAEJXZ 
?GetSizeOf@ESetType@@UAEJXZ 
?GetSizeOf@ESetViewer@@UAEJXZ 
?GetSizeOf@EShowConsole@@UAEJXZ 
?GetSizeOf@ESkaAmmoItem@@UAEJXZ 
?GetSizeOf@ESkaArmor@@UAEJXZ 
?GetSizeOf@ESkaHealth@@UAEJXZ 
?GetSizeOf@ESkaModelDeath@@UAEJXZ 
?GetSizeOf@ESkaMovingModelDestruction@@UAEJXZ 
?GetSizeOf@ESkaSpecialItem@@UAEJXZ 
?GetSizeOf@ESound@@UAEJXZ 
?GetSizeOf@ESpawnDebris@@UAEJXZ 
?GetSizeOf@ESpawnDebrisSka@@UAEJXZ 
?GetSizeOf@ESpawnEffect@@UAEJXZ 
?GetSizeOf@ESpawnEffector@@UAEJXZ 
?GetSizeOf@ESpawnFXEmiter@@UAEJXZ 
?GetSizeOf@ESpawnFlame@@UAEJXZ 
?GetSizeOf@ESpawnSpray@@UAEJXZ 
?GetSizeOf@ESpawnerProjectile@@UAEJXZ 
?GetSizeOf@EStart@@UAEJXZ 
?GetSizeOf@EStartAttack@@UAEJXZ 
?GetSizeOf@EStartCounter@@UAEJXZ 
?GetSizeOf@EStartDancers@@UAEJXZ 
?GetSizeOf@EStartPulling@@UAEJXZ 
?GetSizeOf@EStartSounds@@UAEJXZ 
?GetSizeOf@EStealth@@UAEJXZ 
?GetSizeOf@EStepBack@@UAEJXZ 
?GetSizeOf@EStop@@UAEJXZ 
?GetSizeOf@EStopAttack@@UAEJXZ 
?GetSizeOf@EStopBlindness@@UAEJXZ 
?GetSizeOf@EStopCounter@@UAEJXZ 
?GetSizeOf@EStopDanceMode@@UAEJXZ 
?GetSizeOf@EStopDancers@@UAEJXZ 
?GetSizeOf@EStopDeafness@@UAEJXZ 
?GetSizeOf@EStopFlaming@@UAEJXZ 
?GetSizeOf@EStopPulling@@UAEJXZ 
?GetSizeOf@EStopSounds@@UAEJXZ 
?GetSizeOf@ETeleportActivate@@UAEJXZ 
?GetSizeOf@ETeleportDeactivate@@UAEJXZ 
?GetSizeOf@ETeleportMovingBrush@@UAEJXZ 
?GetSizeOf@ETextFX@@UAEJXZ 
?GetSizeOf@EToasterTrigger@@UAEJXZ 
?GetSizeOf@ETorpedoDamage@@UAEJXZ 
?GetSizeOf@ETorpedoExplode@@UAEJXZ 
?GetSizeOf@ETrigger@@UAEJXZ 
?GetSizeOf@ETriggerActionMarker@@UAEJXZ 
?GetSizeOf@ETriggerEffector@@UAEJXZ 
?GetSizeOf@EViewInit@@UAEJXZ 
?GetSizeOf@EVoiceMessage@@UAEJXZ 
?GetSizeOf@EWait@@UAEJXZ 
?GetSizeOf@EWatch@@UAEJXZ 
?GetSizeOf@EWatcherInit@@UAEJXZ 
?GetSizeOf@EWeaponChanged@@UAEJXZ 
?GetSizeOf@EWeaponEffectInit@@UAEJXZ 
?GetSizeOf@EWeaponsInit@@UAEJXZ 
?GetSizeOf@EWeatherStart@@UAEJXZ 
?GetSizeOf@EWeatherStop@@UAEJXZ 
?GetSizeOf@EWhip@@UAEJXZ 
?GetSizeOf@EbflameOff@@UAEJXZ 
?GetSizeOf@EbflameOn@@UAEJXZ 
?GetSizeOf@Ebflame_ing@@UAEJXZ 
?GetStats@CPlayer@@QAEXAAVCTString@@W4CompStatType@@J@Z 
?GetStatsInGameTimeGame@CPlayer@@QAEMXZ 
?GetStatsInGameTimeLevel@CPlayer@@QAEMXZ 
?GetStatsRealWorldStarted@CPlayer@@QAE?AVCTString@@XZ 
?GetStatsRealWorldTime@CPlayer@@QAEMXZ 
?GetStdEntityInfo@@YAPAUEntityInfo@@W4EntityInfoBodyType@@@Z 
?GetTarget@CNavigationMarker@@UBEPAVCEntity@@XZ 
?GetTeleportingOffset@CPlayer@@QAE?AV?$Vector@M$02@@XZ 
?GetThreatDistance@CEnemyBase@@UAEMXZ 
?GetUsedMemory@CEnemyBase@@UAEJXZ 
?GetUsedMemory@CPlayerWeapons@@UAEJXZ 
?GetUsedMemory@CPlayerWeapons_L@@UAEJXZ 
?GetUsedMemory@CSkaItem@@UAEJXZ 
?GetUsedMemory@CWatcher@@UAEJXZ 
?GetViewEntity@CPlayer@@QAEPAVCEntity@@XZ 
?GetWSC@@YAPAVCWorldSettingsController@@PAVCEntity@@@Z 
?GetWatcher@CEnemyBase@@QAEPAVCWatcher@@XZ 
?GetWeaponAmmo@CPlayerWeapons@@QAEGJ@Z 
?GetWeaponAmmo@CPlayerWeapons_L@@QAEGJ@Z 
?GetWeaponName@CPlayerWeapons@@QAEXAAVCTString@@@Z 
?GetWeaponName@CPlayerWeapons_L@@QAEXAAVCTString@@@Z 
?GetWeaponType@CPlayerWeapons@@QAEHXZ 
?GetWhipTarget@CPlayer@@QAEPAVCEnemyBase@@XZ 
?GetWorldGlaring@CPlayer@@QAEKXZ 
?GraciaAxGuidedProjectile@CProjectile@@QAEXW4ProjectileMovingType@@@Z 
?GraciaAxProjectile@CProjectile@@QAEXXZ 
?GraciaAxTrajectoryProjectile@CProjectile@@QAEXXZ 
?GraciaLaserBlueRay@CProjectile@@QAEXXZ 
?GraciaLaserBlueWave@CProjectile@@QAEXXZ 
?GraciaLaserGreenRay@CProjectile@@QAEXXZ 
?GraciaLaserGreenWave@CProjectile@@QAEXXZ 
?GravityType_enum@@3VCEntityPropertyEnumType@@A 
?GravityType_values@@3PAVCEntityPropertyEnumValue@@A 
?GrenadeLauncherSmoke@CPlayerWeapons@@QAEXJ@Z 
?GrenadeSummonExtra@CProjectile@@QAEXXZ 
?GroundFire@CEnemyDive@@QAEHABVCEntityEvent@@@Z 
?GroundFire@CEnemyFly@@QAEHABVCEntityEvent@@@Z 
?GroundHit@CEnemyDive@@QAEHABVCEntityEvent@@@Z 
?GroundHit@CEnemyFly@@QAEHABVCEntityEvent@@@Z 
?GroundToAir@CEnemyFly@@QAEHABVCEntityEvent@@@Z 
?GroundToAirAnim@CEnemyFly@@UAEMXZ 
?GuidedFlyBack@CMaria@@QAEHABVCEntityEvent@@@Z 
?GuiduAnimation@CPlayer@@QAEXJKMMM@Z 
?H0x0136000f_MoveToDestination_01@CEnemyBase@@QAEHABVCEntityEvent@@@Z 
?H0x01360010_MoveToDestination_02@CEnemyBase@@QAEHABVCEntityEvent@@@Z 
?H0x01360011_MoveToDestination_03@CEnemyBase@@QAEHABVCEntityEvent@@@Z 
?H0x01360012_MoveToDestination_04@CEnemyBase@@QAEHABVCEntityEvent@@@Z 
?H0x01360014_MoveToRandomPatrolPosition_01@CEnemyBase@@QAEHABVCEntityEvent@@@Z 
?H0x01360015_MoveToRandomPatrolPosition_02@CEnemyBase@@QAEHABVCEntityEvent@@@Z 
?H0x01360017_DoPatrolling_01@CEnemyBase@@QAEHABVCEntityEvent@@@Z 
?H0x01360018_DoPatrolling_02@CEnemyBase@@QAEHABVCEntityEvent@@@Z 
?H0x01360019_DoPatrolling_03@CEnemyBase@@QAEHABVCEntityEvent@@@Z 
?H0x0136001a_DoPatrolling_04@CEnemyBase@@QAEHABVCEntityEvent@@@Z 
?H0x0136001b_DoPatrolling_05@CEnemyBase@@QAEHABVCEntityEvent@@@Z 
?H0x0136001c_DoPatrolling_06@CEnemyBase@@QAEHABVCEntityEvent@@@Z 
?H0x0136001e_BeIdle_01@CEnemyBase@@QAEHABVCEntityEvent@@@Z 
?H0x0136001f_BeIdle_02@CEnemyBase@@QAEHABVCEntityEvent@@@Z 
?H0x01360020_BeIdle_03@CEnemyBase@@QAEHABVCEntityEvent@@@Z 
?H0x01360021_BeIdle_04@CEnemyBase@@QAEHABVCEntityEvent@@@Z 
?H0x01360022_BeIdle_05@CEnemyBase@@QAEHABVCEntityEvent@@@Z 
?H0x01360023_BeIdle_06@CEnemyBase@@QAEHABVCEntityEvent@@@Z 
?H0x01360024_BeIdle_07@CEnemyBase@@QAEHABVCEntityEvent@@@Z 
?H0x01360025_BeIdle_08@CEnemyBase@@QAEHABVCEntityEvent@@@Z 
?H0x01360026_BeIdle_09@CEnemyBase@@QAEHABVCEntityEvent@@@Z 
?H0x0136002a_MoveThroughMarkers_01@CEnemyBase@@QAEHABVCEntityEvent@@@Z 
?H0x0136002b_MoveThroughMarkers_02@CEnemyBase@@QAEHABVCEntityEvent@@@Z 
?H0x0136002c_MoveThroughMarkers_03@CEnemyBase@@QAEHABVCEntityEvent@@@Z 
?H0x0136002d_MoveThroughMarkers_04@CEnemyBase@@QAEHABVCEntityEvent@@@Z 
?H0x0136002e_MoveThroughMarkers_05@CEnemyBase@@QAEHABVCEntityEvent@@@Z 
?H0x0136002f_MoveThroughMarkers_06@CEnemyBase@@QAEHABVCEntityEvent@@@Z 
?H0x01360030_MoveThroughMarkers_07@CEnemyBase@@QAEHABVCEntityEvent@@@Z 
?H0x01360031_MoveThroughMarkers_08@CEnemyBase@@QAEHABVCEntityEvent@@@Z 
?H0x01360032_MoveThroughMarkers_09@CEnemyBase@@QAEHABVCEntityEvent@@@Z 
?H0x01360033_MoveThroughMarkers_10@CEnemyBase@@QAEHABVCEntityEvent@@@Z 
?H0x01360034_MoveThroughMarkers_11@CEnemyBase@@QAEHABVCEntityEvent@@@Z 
?H0x01360035_MoveThroughMarkers_12@CEnemyBase@@QAEHABVCEntityEvent@@@Z 
?H0x01360036_MoveThroughMarkers_13@CEnemyBase@@QAEHABVCEntityEvent@@@Z 
?H0x01360037_MoveThroughMarkers_14@CEnemyBase@@QAEHABVCEntityEvent@@@Z 
?H0x01360038_MoveThroughMarkers_15@CEnemyBase@@QAEHABVCEntityEvent@@@Z 
?H0x01360039_MoveThroughMarkers_16@CEnemyBase@@QAEHABVCEntityEvent@@@Z 
?H0x0136003a_MoveThroughMarkers_17@CEnemyBase@@QAEHABVCEntityEvent@@@Z 
?H0x0136003b_MoveThroughMarkers_18@CEnemyBase@@QAEHABVCEntityEvent@@@Z 
?H0x0136003c_MoveThroughMarkers_19@CEnemyBase@@QAEHABVCEntityEvent@@@Z 
?H0x0136003d_MoveThroughMarkers_20@CEnemyBase@@QAEHABVCEntityEvent@@@Z 
?H0x0136003e_MoveThroughMarkers_21@CEnemyBase@@QAEHABVCEntityEvent@@@Z 
?H0x0136003f_MoveThroughMarkers_22@CEnemyBase@@QAEHABVCEntityEvent@@@Z 
?H0x01360040_MoveThroughMarkers_23@CEnemyBase@@QAEHABVCEntityEvent@@@Z 
?H0x01360041_MoveThroughMarkers_24@CEnemyBase@@QAEHABVCEntityEvent@@@Z 
?H0x01360042_MoveThroughMarkers_25@CEnemyBase@@QAEHABVCEntityEvent@@@Z 
?H0x01360043_MoveThroughMarkers_26@CEnemyBase@@QAEHABVCEntityEvent@@@Z 
?H0x01360044_MoveThroughMarkers_27@CEnemyBase@@QAEHABVCEntityEvent@@@Z 
?H0x01360045_MoveThroughMarkers_28@CEnemyBase@@QAEHABVCEntityEvent@@@Z 
?H0x01360046_MoveThroughMarkers_29@CEnemyBase@@QAEHABVCEntityEvent@@@Z 
?H0x01360047_MoveThroughMarkers_30@CEnemyBase@@QAEHABVCEntityEvent@@@Z 
?H0x01360048_MoveThroughMarkers_31@CEnemyBase@@QAEHABVCEntityEvent@@@Z 
?H0x01360049_MoveThroughMarkers_32@CEnemyBase@@QAEHABVCEntityEvent@@@Z 
?H0x0136004b_NewEnemySpotted_01@CEnemyBase@@QAEHABVCEntityEvent@@@Z 
?H0x0136004c_NewEnemySpotted_02@CEnemyBase@@QAEHABVCEntityEvent@@@Z 
?H0x0136004d_NewEnemySpotted_03@CEnemyBase@@QAEHABVCEntityEvent@@@Z 
?H0x01360051_AttackEnemy_01@CEnemyBase@@QAEHABVCEntityEvent@@@Z 
?H0x01360052_AttackEnemy_02@CEnemyBase@@QAEHABVCEntityEvent@@@Z 
?H0x01360053_AttackEnemy_03@CEnemyBase@@QAEHABVCEntityEvent@@@Z 
?H0x01360054_AttackEnemy_04@CEnemyBase@@QAEHABVCEntityEvent@@@Z 
?H0x01360055_AttackEnemy_05@CEnemyBase@@QAEHABVCEntityEvent@@@Z 
?H0x01360056_AttackEnemy_06@CEnemyBase@@QAEHABVCEntityEvent@@@Z 
?H0x01360057_AttackEnemy_07@CEnemyBase@@QAEHABVCEntityEvent@@@Z 
?H0x01360058_AttackEnemy_08@CEnemyBase@@QAEHABVCEntityEvent@@@Z 
?H0x0136005a_PerformAttack_01@CEnemyBase@@QAEHABVCEntityEvent@@@Z 
?H0x0136005b_PerformAttack_02@CEnemyBase@@QAEHABVCEntityEvent@@@Z 
?H0x0136005c_PerformAttack_03@CEnemyBase@@QAEHABVCEntityEvent@@@Z 
?H0x0136005d_PerformAttack_04@CEnemyBase@@QAEHABVCEntityEvent@@@Z 
?H0x0136005f_FireOrHit_01@CEnemyBase@@QAEHABVCEntityEvent@@@Z 
?H0x01360060_FireOrHit_02@CEnemyBase@@QAEHABVCEntityEvent@@@Z 
?H0x01360061_FireOrHit_03@CEnemyBase@@QAEHABVCEntityEvent@@@Z 
?H0x01360062_FireOrHit_04@CEnemyBase@@QAEHABVCEntityEvent@@@Z 
?H0x01360063_FireOrHit_05@CEnemyBase@@QAEHABVCEntityEvent@@@Z 
?H0x01360064_FireOrHit_06@CEnemyBase@@QAEHABVCEntityEvent@@@Z 
?H0x01360065_FireOrHit_07@CEnemyBase@@QAEHABVCEntityEvent@@@Z 
?H0x01360066_FireOrHit_08@CEnemyBase@@QAEHABVCEntityEvent@@@Z 
?H0x0136006a_LockOnEnemy_01@CEnemyBase@@QAEHABVCEntityEvent@@@Z 
?H0x0136006b_LockOnEnemy_02@CEnemyBase@@QAEHABVCEntityEvent@@@Z 
?H0x0136006c_LockOnEnemy_03@CEnemyBase@@QAEHABVCEntityEvent@@@Z 
?H0x0136006d_LockOnEnemy_04@CEnemyBase@@QAEHABVCEntityEvent@@@Z 
?H0x0136006f_ChargeHitEnemy_01@CEnemyBase@@QAEHABVCEntityEvent@@@Z 
?H0x01360070_ChargeHitEnemy_02@CEnemyBase@@QAEHABVCEntityEvent@@@Z 
?H0x01360071_ChargeHitEnemy_03@CEnemyBase@@QAEHABVCEntityEvent@@@Z 
?H0x01360072_ChargeHitEnemy_04@CEnemyBase@@QAEHABVCEntityEvent@@@Z 
?H0x01360073_ChargeHitEnemy_05@CEnemyBase@@QAEHABVCEntityEvent@@@Z 
?H0x01360075_BeWounded_01@CEnemyBase@@QAEHABVCEntityEvent@@@Z 
?H0x01360076_BeWounded_02@CEnemyBase@@QAEHABVCEntityEvent@@@Z 
?H0x01360077_BeWounded_03@CEnemyBase@@QAEHABVCEntityEvent@@@Z 
?H0x01360078_BeWounded_04@CEnemyBase@@QAEHABVCEntityEvent@@@Z 
?H0x01360079_BeWounded_05@CEnemyBase@@QAEHABVCEntityEvent@@@Z 
?H0x0136007a_BeWounded_06@CEnemyBase@@QAEHABVCEntityEvent@@@Z 
?H0x0136007b_BeWounded_07@CEnemyBase@@QAEHABVCEntityEvent@@@Z 
?H0x0136007c_BeWounded_08@CEnemyBase@@QAEHABVCEntityEvent@@@Z 
?H0x0136007d_BeWounded_09@CEnemyBase@@QAEHABVCEntityEvent@@@Z 
?H0x0136007e_BeWounded_10@CEnemyBase@@QAEHABVCEntityEvent@@@Z 
?H0x0136007f_BeWounded_11@CEnemyBase@@QAEHABVCEntityEvent@@@Z 
?H0x01360080_BeWounded_12@CEnemyBase@@QAEHABVCEntityEvent@@@Z 
?H0x01360081_BeWounded_13@CEnemyBase@@QAEHABVCEntityEvent@@@Z 
?H0x01360082_BeWounded_14@CEnemyBase@@QAEHABVCEntityEvent@@@Z 
?H0x01360083_BeWounded_15@CEnemyBase@@QAEHABVCEntityEvent@@@Z 
?H0x01360084_BeWounded_16@CEnemyBase@@QAEHABVCEntityEvent@@@Z 
?H0x01360085_BeWounded_17@CEnemyBase@@QAEHABVCEntityEvent@@@Z 
?H0x01360086_BeWounded_18@CEnemyBase@@QAEHABVCEntityEvent@@@Z 
?H0x01360087_BeWounded_19@CEnemyBase@@QAEHABVCEntityEvent@@@Z 
?H0x01360088_BeWounded_20@CEnemyBase@@QAEHABVCEntityEvent@@@Z 
?H0x01360089_BeWounded_21@CEnemyBase@@QAEHABVCEntityEvent@@@Z 
?H0x0136008a_BeWounded_22@CEnemyBase@@QAEHABVCEntityEvent@@@Z 
?H0x0136008b_BeWounded_23@CEnemyBase@@QAEHABVCEntityEvent@@@Z 
?H0x0136008d_ComboFall_01@CEnemyBase@@QAEHABVCEntityEvent@@@Z 
?H0x0136008e_ComboFall_02@CEnemyBase@@QAEHABVCEntityEvent@@@Z 
?H0x01360090_Die_01@CEnemyBase@@QAEHABVCEntityEvent@@@Z 
?H0x01360091_Die_02@CEnemyBase@@QAEHABVCEntityEvent@@@Z 
?H0x01360093_Death_01@CEnemyBase@@QAEHABVCEntityEvent@@@Z 
?H0x01360094_Death_02@CEnemyBase@@QAEHABVCEntityEvent@@@Z 
?H0x01360096_DeathSequence_01@CEnemyBase@@QAEHABVCEntityEvent@@@Z 
?H0x01360097_DeathSequence_02@CEnemyBase@@QAEHABVCEntityEvent@@@Z 
?H0x01360098_DeathSequence_03@CEnemyBase@@QAEHABVCEntityEvent@@@Z 
?H0x01360099_DeathSequence_04@CEnemyBase@@QAEHABVCEntityEvent@@@Z 
?H0x0136009a_DeathSequence_05@CEnemyBase@@QAEHABVCEntityEvent@@@Z 
?H0x0136009b_DeathSequence_06@CEnemyBase@@QAEHABVCEntityEvent@@@Z 
?H0x0136009c_DeathSequence_07@CEnemyBase@@QAEHABVCEntityEvent@@@Z 
?H0x0136009d_DeathSequence_08@CEnemyBase@@QAEHABVCEntityEvent@@@Z 
?H0x0136009f_Active_01@CEnemyBase@@QAEHABVCEntityEvent@@@Z 
?H0x013600a0_Active_02@CEnemyBase@@QAEHABVCEntityEvent@@@Z 
?H0x013600a2_Inactive_01@CEnemyBase@@QAEHABVCEntityEvent@@@Z 
?H0x013600a3_Inactive_02@CEnemyBase@@QAEHABVCEntityEvent@@@Z 
?H0x013600a6_MainLoop_internal_01@CEnemyBase@@QAEHABVCEntityEvent@@@Z 
?H0x013600a7_MainLoop_internal_02@CEnemyBase@@QAEHABVCEntityEvent@@@Z 
?H0x013600a8_MainLoop_internal_03@CEnemyBase@@QAEHABVCEntityEvent@@@Z 
?H0x013600a9_MainLoop_internal_04@CEnemyBase@@QAEHABVCEntityEvent@@@Z 
?H0x013600ab_MainLoop_01@CEnemyBase@@QAEHABVCEntityEvent@@@Z 
?H0x013600ac_MainLoop_02@CEnemyBase@@QAEHABVCEntityEvent@@@Z 
?H0x013600ad_MainLoop_03@CEnemyBase@@QAEHABVCEntityEvent@@@Z 
?H0x013600ae_MainLoop_04@CEnemyBase@@QAEHABVCEntityEvent@@@Z 
?H0x013600af_MainLoop_05@CEnemyBase@@QAEHABVCEntityEvent@@@Z 
?H0x013600b1_StandardBehavior_01@CEnemyBase@@QAEHABVCEntityEvent@@@Z 
?H0x013600b2_StandardBehavior_02@CEnemyBase@@QAEHABVCEntityEvent@@@Z 
?H0x01370003_BeWounded_01@CEnemyFly@@QAEHABVCEntityEvent@@@Z 
?H0x01370004_BeWounded_02@CEnemyFly@@QAEHABVCEntityEvent@@@Z 
?H0x01370005_BeWounded_03@CEnemyFly@@QAEHABVCEntityEvent@@@Z 
?H0x01370006_BeWounded_04@CEnemyFly@@QAEHABVCEntityEvent@@@Z 
?H0x01370007_BeWounded_05@CEnemyFly@@QAEHABVCEntityEvent@@@Z 
?H0x01370009_AirToGroundByDamage_01@CEnemyFly@@QAEHABVCEntityEvent@@@Z 
?H0x0137000a_AirToGroundByDamage_02@CEnemyFly@@QAEHABVCEntityEvent@@@Z 
?H0x0137000c_AirToGround_01@CEnemyFly@@QAEHABVCEntityEvent@@@Z 
?H0x0137000d_AirToGround_02@CEnemyFly@@QAEHABVCEntityEvent@@@Z 
?H0x0137000e_AirToGround_03@CEnemyFly@@QAEHABVCEntityEvent@@@Z 
?H0x0137000f_AirToGround_04@CEnemyFly@@QAEHABVCEntityEvent@@@Z 
?H0x01370011_GroundToAir_01@CEnemyFly@@QAEHABVCEntityEvent@@@Z 
?H0x01370012_GroundToAir_02@CEnemyFly@@QAEHABVCEntityEvent@@@Z 
?H0x01370013_GroundToAir_03@CEnemyFly@@QAEHABVCEntityEvent@@@Z 
?H0x01370014_GroundToAir_04@CEnemyFly@@QAEHABVCEntityEvent@@@Z 
?H0x01370016_AttackEnemy_01@CEnemyFly@@QAEHABVCEntityEvent@@@Z 
?H0x01370017_AttackEnemy_02@CEnemyFly@@QAEHABVCEntityEvent@@@Z 
?H0x01370018_AttackEnemy_03@CEnemyFly@@QAEHABVCEntityEvent@@@Z 
?H0x01370019_AttackEnemy_04@CEnemyFly@@QAEHABVCEntityEvent@@@Z 
?H0x0137001a_AttackEnemy_05@CEnemyFly@@QAEHABVCEntityEvent@@@Z 
?H0x0137001b_AttackEnemy_06@CEnemyFly@@QAEHABVCEntityEvent@@@Z 
?H0x0137001c_AttackEnemy_07@CEnemyFly@@QAEHABVCEntityEvent@@@Z 
?H0x0137001d_AttackEnemy_08@CEnemyFly@@QAEHABVCEntityEvent@@@Z 
?H0x0137001e_AttackEnemy_09@CEnemyFly@@QAEHABVCEntityEvent@@@Z 
?H0x01370020_FireOrHit_01@CEnemyFly@@QAEHABVCEntityEvent@@@Z 
?H0x01370021_FireOrHit_02@CEnemyFly@@QAEHABVCEntityEvent@@@Z 
?H0x01370022_FireOrHit_03@CEnemyFly@@QAEHABVCEntityEvent@@@Z 
?H0x01370023_FireOrHit_04@CEnemyFly@@QAEHABVCEntityEvent@@@Z 
?H0x01370024_FireOrHit_05@CEnemyFly@@QAEHABVCEntityEvent@@@Z 
?H0x01370025_FireOrHit_06@CEnemyFly@@QAEHABVCEntityEvent@@@Z 
?H0x01370026_FireOrHit_07@CEnemyFly@@QAEHABVCEntityEvent@@@Z 
?H0x01370027_FireOrHit_08@CEnemyFly@@QAEHABVCEntityEvent@@@Z 
?H0x01380002_RotateToEnemy_01@CEnemyRunInto@@QAEHABVCEntityEvent@@@Z 
?H0x01380003_RotateToEnemy_02@CEnemyRunInto@@QAEHABVCEntityEvent@@@Z 
?H0x01380004_RotateToEnemy_03@CEnemyRunInto@@QAEHABVCEntityEvent@@@Z 
?H0x01380005_RotateToEnemy_04@CEnemyRunInto@@QAEHABVCEntityEvent@@@Z 
?H0x01380007_RunIntoEnemy_01@CEnemyRunInto@@QAEHABVCEntityEvent@@@Z 
?H0x01380008_RunIntoEnemy_02@CEnemyRunInto@@QAEHABVCEntityEvent@@@Z 
?H0x01380009_RunIntoEnemy_03@CEnemyRunInto@@QAEHABVCEntityEvent@@@Z 
?H0x0138000a_RunIntoEnemy_04@CEnemyRunInto@@QAEHABVCEntityEvent@@@Z 
?H0x0138000c_RunAwayFromEnemy_01@CEnemyRunInto@@QAEHABVCEntityEvent@@@Z 
?H0x0138000d_RunAwayFromEnemy_02@CEnemyRunInto@@QAEHABVCEntityEvent@@@Z 
?H0x0138000e_RunAwayFromEnemy_03@CEnemyRunInto@@QAEHABVCEntityEvent@@@Z 
?H0x0138000f_RunAwayFromEnemy_04@CEnemyRunInto@@QAEHABVCEntityEvent@@@Z 
?H0x01910032_WorldChangeDead_01@CPlayer@@QAEHABVCEntityEvent@@@Z 
?H0x01910033_WorldChangeDead_02@CPlayer@@QAEHABVCEntityEvent@@@Z 
?H0x01910035_Death_01@CPlayer@@QAEHABVCEntityEvent@@@Z 
?H0x01910036_Death_02@CPlayer@@QAEHABVCEntityEvent@@@Z 
?H0x01910037_Death_03@CPlayer@@QAEHABVCEntityEvent@@@Z 
?H0x01910039_TheEnd_01@CPlayer@@QAEHABVCEntityEvent@@@Z 
?H0x0191003a_TheEnd_02@CPlayer@@QAEHABVCEntityEvent@@@Z 
?H0x0191003e_AutoGoToMarker_01@CPlayer@@QAEHABVCEntityEvent@@@Z 
?H0x0191003f_AutoGoToMarker_02@CPlayer@@QAEHABVCEntityEvent@@@Z 
?H0x01910040_AutoGoToMarker_03@CPlayer@@QAEHABVCEntityEvent@@@Z 
?H0x01910041_AutoGoToMarker_04@CPlayer@@QAEHABVCEntityEvent@@@Z 
?H0x01910044_DoAutoActions_01@CPlayer@@QAEHABVCEntityEvent@@@Z 
?H0x01910045_DoAutoActions_02@CPlayer@@QAEHABVCEntityEvent@@@Z 
?H0x01910046_DoAutoActions_03@CPlayer@@QAEHABVCEntityEvent@@@Z 
?H0x01910047_DoAutoActions_04@CPlayer@@QAEHABVCEntityEvent@@@Z 
?H0x01910048_DoAutoActions_05@CPlayer@@QAEHABVCEntityEvent@@@Z 
?H0x01910049_DoAutoActions_06@CPlayer@@QAEHABVCEntityEvent@@@Z 
?H0x0191004a_DoAutoActions_07@CPlayer@@QAEHABVCEntityEvent@@@Z 
?H0x0191004b_DoAutoActions_08@CPlayer@@QAEHABVCEntityEvent@@@Z 
?H0x0191004c_DoAutoActions_09@CPlayer@@QAEHABVCEntityEvent@@@Z 
?H0x0191004d_DoAutoActions_10@CPlayer@@QAEHABVCEntityEvent@@@Z 
?H0x0191004e_DoAutoActions_11@CPlayer@@QAEHABVCEntityEvent@@@Z 
?H0x0191004f_DoAutoActions_12@CPlayer@@QAEHABVCEntityEvent@@@Z 
?H0x01910050_DoAutoActions_13@CPlayer@@QAEHABVCEntityEvent@@@Z 
?H0x01910051_DoAutoActions_14@CPlayer@@QAEHABVCEntityEvent@@@Z 
?H0x01910052_DoAutoActions_15@CPlayer@@QAEHABVCEntityEvent@@@Z 
?H0x01910053_DoAutoActions_16@CPlayer@@QAEHABVCEntityEvent@@@Z 
?H0x01910054_DoAutoActions_17@CPlayer@@QAEHABVCEntityEvent@@@Z 
?H0x01910055_DoAutoActions_18@CPlayer@@QAEHABVCEntityEvent@@@Z 
?H0x01910056_DoAutoActions_19@CPlayer@@QAEHABVCEntityEvent@@@Z 
?H0x01910057_DoAutoActions_20@CPlayer@@QAEHABVCEntityEvent@@@Z 
?H0x01910058_DoAutoActions_21@CPlayer@@QAEHABVCEntityEvent@@@Z 
?H0x01910059_DoAutoActions_22@CPlayer@@QAEHABVCEntityEvent@@@Z 
?H0x0191005a_DoAutoActions_23@CPlayer@@QAEHABVCEntityEvent@@@Z 
?H0x0191005b_DoAutoActions_24@CPlayer@@QAEHABVCEntityEvent@@@Z 
?H0x0191005c_DoAutoActions_25@CPlayer@@QAEHABVCEntityEvent@@@Z 
?H0x0191005d_DoAutoActions_26@CPlayer@@QAEHABVCEntityEvent@@@Z 
?H0x0191005e_DoAutoActions_27@CPlayer@@QAEHABVCEntityEvent@@@Z 
?H0x0191005f_DoAutoActions_28@CPlayer@@QAEHABVCEntityEvent@@@Z 
?H0x01910060_DoAutoActions_29@CPlayer@@QAEHABVCEntityEvent@@@Z 
?H0x01910061_DoAutoActions_30@CPlayer@@QAEHABVCEntityEvent@@@Z 
?H0x01910062_DoAutoActions_31@CPlayer@@QAEHABVCEntityEvent@@@Z 
?H0x01910063_DoAutoActions_32@CPlayer@@QAEHABVCEntityEvent@@@Z 
?H0x01910064_DoAutoActions_33@CPlayer@@QAEHABVCEntityEvent@@@Z 
?H0x01910066_StepBack_01@CPlayer@@QAEHABVCEntityEvent@@@Z 
?H0x01910067_StepBack_02@CPlayer@@QAEHABVCEntityEvent@@@Z 
?H0x01910069_BeginDrugmode_01@CPlayer@@QAEHABVCEntityEvent@@@Z 
?H0x0191006a_BeginDrugmode_02@CPlayer@@QAEHABVCEntityEvent@@@Z 
?H0x0191006b_BeginDrugmode_03@CPlayer@@QAEHABVCEntityEvent@@@Z 
?H0x0191006d_EndDrugmode_01@CPlayer@@QAEHABVCEntityEvent@@@Z 
?H0x0191006e_EndDrugmode_02@CPlayer@@QAEHABVCEntityEvent@@@Z 
?H0x0191006f_EndDrugmode_03@CPlayer@@QAEHABVCEntityEvent@@@Z 
?H0x01910071_OnEnding_01@CPlayer@@QAEHABVCEntityEvent@@@Z 
?H0x01910072_OnEnding_02@CPlayer@@QAEHABVCEntityEvent@@@Z 
?H0x01910073_OnEnding_03@CPlayer@@QAEHABVCEntityEvent@@@Z 
?H0x01910074_OnEnding_04@CPlayer@@QAEHABVCEntityEvent@@@Z 
?H0x01910075_OnEnding_05@CPlayer@@QAEHABVCEntityEvent@@@Z 
?H0x01910077_OnEndingDeath_01@CPlayer@@QAEHABVCEntityEvent@@@Z 
?H0x01910078_OnEndingDeath_02@CPlayer@@QAEHABVCEntityEvent@@@Z 
?H0x01910079_OnEndingDeath_03@CPlayer@@QAEHABVCEntityEvent@@@Z 
?H0x0191007a_OnEndingDeath_04@CPlayer@@QAEHABVCEntityEvent@@@Z 
?H0x0191007b_Main_01@CPlayer@@QAEHABVCEntityEvent@@@Z 
?H0x0191007c_Main_02@CPlayer@@QAEHABVCEntityEvent@@@Z 
?H0x0191007d_Main_03@CPlayer@@QAEHABVCEntityEvent@@@Z 
?H0x0191007e_Main_04@CPlayer@@QAEHABVCEntityEvent@@@Z 
?H0x0191007f_Main_05@CPlayer@@QAEHABVCEntityEvent@@@Z 
?H0x01920001_ChangeWeapon_01@CPlayerWeapons@@QAEHABVCEntityEvent@@@Z 
?H0x01920002_ChangeWeapon_02@CPlayerWeapons@@QAEHABVCEntityEvent@@@Z 
?H0x01920003_ChangeWeapon_03@CPlayerWeapons@@QAEHABVCEntityEvent@@@Z 
?H0x01920004_ChangeWeapon_04@CPlayerWeapons@@QAEHABVCEntityEvent@@@Z 
?H0x01920005_ChangeWeapon_05@CPlayerWeapons@@QAEHABVCEntityEvent@@@Z 
?H0x01920007_DeSelect_01@CPlayerWeapons@@QAEHABVCEntityEvent@@@Z 
?H0x01920008_DeSelect_02@CPlayerWeapons@@QAEHABVCEntityEvent@@@Z 
?H0x01920009_DeSelect_03@CPlayerWeapons@@QAEHABVCEntityEvent@@@Z 
?H0x0192000b_Select_01@CPlayerWeapons@@QAEHABVCEntityEvent@@@Z 
?H0x0192000c_Select_02@CPlayerWeapons@@QAEHABVCEntityEvent@@@Z 
?H0x0192000d_Select_03@CPlayerWeapons@@QAEHABVCEntityEvent@@@Z 
?H0x0192000f_Fire_01@CPlayerWeapons@@QAEHABVCEntityEvent@@@Z 
?H0x01920010_Fire_02@CPlayerWeapons@@QAEHABVCEntityEvent@@@Z 
?H0x01920011_Fire_03@CPlayerWeapons@@QAEHABVCEntityEvent@@@Z 
?H0x01920012_Fire_04@CPlayerWeapons@@QAEHABVCEntityEvent@@@Z 
?H0x01920014_FireShotgun_01@CPlayerWeapons@@QAEHABVCEntityEvent@@@Z 
?H0x01920015_FireShotgun_02@CPlayerWeapons@@QAEHABVCEntityEvent@@@Z 
?H0x01920016_FireShotgun_03@CPlayerWeapons@@QAEHABVCEntityEvent@@@Z 
?H0x01920017_FireShotgun_04@CPlayerWeapons@@QAEHABVCEntityEvent@@@Z 
?H0x01920018_FireShotgun_05@CPlayerWeapons@@QAEHABVCEntityEvent@@@Z 
?H0x01920019_FireShotgun_06@CPlayerWeapons@@QAEHABVCEntityEvent@@@Z 
?H0x0192001a_FireShotgun_07@CPlayerWeapons@@QAEHABVCEntityEvent@@@Z 
?H0x0192001b_FireShotgun_08@CPlayerWeapons@@QAEHABVCEntityEvent@@@Z 
?H0x0192001c_FireShotgun_09@CPlayerWeapons@@QAEHABVCEntityEvent@@@Z 
?H0x0192001d_FireShotgun_10@CPlayerWeapons@@QAEHABVCEntityEvent@@@Z 
?H0x0192001f_StopShotgun_01@CPlayerWeapons@@QAEHABVCEntityEvent@@@Z 
?H0x01920020_StopShotgun_02@CPlayerWeapons@@QAEHABVCEntityEvent@@@Z 
?H0x01920021_StopShotgun_03@CPlayerWeapons@@QAEHABVCEntityEvent@@@Z 
?H0x01920022_StopShotgun_04@CPlayerWeapons@@QAEHABVCEntityEvent@@@Z 
?H0x01920024_ReloadShotgun_01@CPlayerWeapons@@QAEHABVCEntityEvent@@@Z 
?H0x01920025_ReloadShotgun_02@CPlayerWeapons@@QAEHABVCEntityEvent@@@Z 
?H0x01920027_FireMachineGun_01@CPlayerWeapons@@QAEHABVCEntityEvent@@@Z 
?H0x01920028_FireMachineGun_02@CPlayerWeapons@@QAEHABVCEntityEvent@@@Z 
?H0x01920029_FireMachineGun_03@CPlayerWeapons@@QAEHABVCEntityEvent@@@Z 
?H0x0192002a_FireMachineGun_04@CPlayerWeapons@@QAEHABVCEntityEvent@@@Z 
?H0x0192002b_FireMachineGun_05@CPlayerWeapons@@QAEHABVCEntityEvent@@@Z 
?H0x0192002c_FireMachineGun_06@CPlayerWeapons@@QAEHABVCEntityEvent@@@Z 
?H0x0192002d_FireMachineGun_07@CPlayerWeapons@@QAEHABVCEntityEvent@@@Z 
?H0x0192002e_FireMachineGun_08@CPlayerWeapons@@QAEHABVCEntityEvent@@@Z 
?H0x0192002f_FireMachineGun_09@CPlayerWeapons@@QAEHABVCEntityEvent@@@Z 
?H0x01920030_FireMachineGun_10@CPlayerWeapons@@QAEHABVCEntityEvent@@@Z 
?H0x01920032_StopMachineGun_01@CPlayerWeapons@@QAEHABVCEntityEvent@@@Z 
?H0x01920033_StopMachineGun_02@CPlayerWeapons@@QAEHABVCEntityEvent@@@Z 
?H0x01920034_StopMachineGun_03@CPlayerWeapons@@QAEHABVCEntityEvent@@@Z 
?H0x01920035_StopMachineGun_04@CPlayerWeapons@@QAEHABVCEntityEvent@@@Z 
?H0x01920036_StopMachineGun_05@CPlayerWeapons@@QAEHABVCEntityEvent@@@Z 
?H0x01920038_ReloadMachinegun_01@CPlayerWeapons@@QAEHABVCEntityEvent@@@Z 
?H0x01920039_ReloadMachinegun_02@CPlayerWeapons@@QAEHABVCEntityEvent@@@Z 
?H0x0192003b_FireRocketLauncher_01@CPlayerWeapons@@QAEHABVCEntityEvent@@@Z 
?H0x0192003c_FireRocketLauncher_02@CPlayerWeapons@@QAEHABVCEntityEvent@@@Z 
?H0x0192003d_FireRocketLauncher_03@CPlayerWeapons@@QAEHABVCEntityEvent@@@Z 
?H0x0192003e_FireRocketLauncher_04@CPlayerWeapons@@QAEHABVCEntityEvent@@@Z 
?H0x0192003f_FireRocketLauncher_05@CPlayerWeapons@@QAEHABVCEntityEvent@@@Z 
?H0x01920040_FireRocketLauncher_06@CPlayerWeapons@@QAEHABVCEntityEvent@@@Z 
?H0x01920041_FireRocketLauncher_07@CPlayerWeapons@@QAEHABVCEntityEvent@@@Z 
?H0x01920042_FireRocketLauncher_08@CPlayerWeapons@@QAEHABVCEntityEvent@@@Z 
?H0x01920043_FireRocketLauncher_09@CPlayerWeapons@@QAEHABVCEntityEvent@@@Z 
?H0x01920044_FireRocketLauncher_10@CPlayerWeapons@@QAEHABVCEntityEvent@@@Z 
?H0x01920045_FireRocketLauncher_11@CPlayerWeapons@@QAEHABVCEntityEvent@@@Z 
?H0x01920046_FireRocketLauncher_12@CPlayerWeapons@@QAEHABVCEntityEvent@@@Z 
?H0x01920049_ReloadRocket_01@CPlayerWeapons@@QAEHABVCEntityEvent@@@Z 
?H0x0192004a_ReloadRocket_02@CPlayerWeapons@@QAEHABVCEntityEvent@@@Z 
?H0x0192004b_ReloadRocket_03@CPlayerWeapons@@QAEHABVCEntityEvent@@@Z 
?H0x0192004c_ReloadRocket_04@CPlayerWeapons@@QAEHABVCEntityEvent@@@Z 
?H0x0192004d_ReloadRocket_05@CPlayerWeapons@@QAEHABVCEntityEvent@@@Z 
?H0x0192004e_ReloadRocket_06@CPlayerWeapons@@QAEHABVCEntityEvent@@@Z 
?H0x01920050_FireGrenadeLauncher_01@CPlayerWeapons@@QAEHABVCEntityEvent@@@Z 
?H0x01920051_FireGrenadeLauncher_02@CPlayerWeapons@@QAEHABVCEntityEvent@@@Z 
?H0x01920052_FireGrenadeLauncher_03@CPlayerWeapons@@QAEHABVCEntityEvent@@@Z 
?H0x01920053_FireGrenadeLauncher_04@CPlayerWeapons@@QAEHABVCEntityEvent@@@Z 
?H0x01920054_FireGrenadeLauncher_05@CPlayerWeapons@@QAEHABVCEntityEvent@@@Z 
?H0x01920055_FireGrenadeLauncher_06@CPlayerWeapons@@QAEHABVCEntityEvent@@@Z 
?H0x01920056_FireGrenadeLauncher_07@CPlayerWeapons@@QAEHABVCEntityEvent@@@Z 
?H0x01920057_FireGrenadeLauncher_08@CPlayerWeapons@@QAEHABVCEntityEvent@@@Z 
?H0x01920058_FireGrenadeLauncher_09@CPlayerWeapons@@QAEHABVCEntityEvent@@@Z 
?H0x01920059_FireGrenadeLauncher_10@CPlayerWeapons@@QAEHABVCEntityEvent@@@Z 
?H0x0192005a_FireGrenadeLauncher_11@CPlayerWeapons@@QAEHABVCEntityEvent@@@Z 
?H0x0192005b_FireGrenadeLauncher_12@CPlayerWeapons@@QAEHABVCEntityEvent@@@Z 
?H0x0192005c_FireGrenadeLauncher_13@CPlayerWeapons@@QAEHABVCEntityEvent@@@Z 
?H0x0192005d_FireGrenadeLauncher_14@CPlayerWeapons@@QAEHABVCEntityEvent@@@Z 
?H0x0192005f_FirePushGun_01@CPlayerWeapons@@QAEHABVCEntityEvent@@@Z 
?H0x01920060_FirePushGun_02@CPlayerWeapons@@QAEHABVCEntityEvent@@@Z 
?H0x01920061_FirePushGun_03@CPlayerWeapons@@QAEHABVCEntityEvent@@@Z 
?H0x01920062_FirePushGun_04@CPlayerWeapons@@QAEHABVCEntityEvent@@@Z 
?H0x01920063_FirePushGun_05@CPlayerWeapons@@QAEHABVCEntityEvent@@@Z 
?H0x01920064_FirePushGun_06@CPlayerWeapons@@QAEHABVCEntityEvent@@@Z 
?H0x01920066_FireSniperGun_01@CPlayerWeapons@@QAEHABVCEntityEvent@@@Z 
?H0x01920067_FireSniperGun_02@CPlayerWeapons@@QAEHABVCEntityEvent@@@Z 
?H0x01920068_FireSniperGun_03@CPlayerWeapons@@QAEHABVCEntityEvent@@@Z 
?H0x01920069_FireSniperGun_04@CPlayerWeapons@@QAEHABVCEntityEvent@@@Z 
?H0x0192006c_FireNitroLauncher_01@CPlayerWeapons@@QAEHABVCEntityEvent@@@Z 
?H0x0192006d_FireNitroLauncher_02@CPlayerWeapons@@QAEHABVCEntityEvent@@@Z 
?H0x0192006e_FireNitroLauncher_03@CPlayerWeapons@@QAEHABVCEntityEvent@@@Z 
?H0x0192006f_FireNitroLauncher_04@CPlayerWeapons@@QAEHABVCEntityEvent@@@Z 
?H0x01920070_FireNitroLauncher_05@CPlayerWeapons@@QAEHABVCEntityEvent@@@Z 
?H0x01920071_FireNitroLauncher_06@CPlayerWeapons@@QAEHABVCEntityEvent@@@Z 
?H0x01920072_FireNitroLauncher_07@CPlayerWeapons@@QAEHABVCEntityEvent@@@Z 
?H0x01920073_FireNitroLauncher_08@CPlayerWeapons@@QAEHABVCEntityEvent@@@Z 
?H0x01920075_ReloadNitro_01@CPlayerWeapons@@QAEHABVCEntityEvent@@@Z 
?H0x01920076_ReloadNitro_02@CPlayerWeapons@@QAEHABVCEntityEvent@@@Z 
?H0x01920077_ReloadNitro_03@CPlayerWeapons@@QAEHABVCEntityEvent@@@Z 
?H0x01920078_ReloadNitro_04@CPlayerWeapons@@QAEHABVCEntityEvent@@@Z 
?H0x0192007a_FireFlower_01@CPlayerWeapons@@QAEHABVCEntityEvent@@@Z 
?H0x0192007b_FireFlower_02@CPlayerWeapons@@QAEHABVCEntityEvent@@@Z 
?H0x0192007c_FireFlower_03@CPlayerWeapons@@QAEHABVCEntityEvent@@@Z 
?H0x0192007d_FireFlower_04@CPlayerWeapons@@QAEHABVCEntityEvent@@@Z 
?H0x0192007f_FireFixedRocketLauncher_01@CPlayerWeapons@@QAEHABVCEntityEvent@@@Z 
?H0x01920080_FireFixedRocketLauncher_02@CPlayerWeapons@@QAEHABVCEntityEvent@@@Z 
?H0x01920081_FireFixedRocketLauncher_03@CPlayerWeapons@@QAEHABVCEntityEvent@@@Z 
?H0x01920082_FireFixedRocketLauncher_04@CPlayerWeapons@@QAEHABVCEntityEvent@@@Z 
?H0x01920084_ReloadGetAmmo_01@CPlayerWeapons@@QAEHABVCEntityEvent@@@Z 
?H0x01920085_ReloadGetAmmo_02@CPlayerWeapons@@QAEHABVCEntityEvent@@@Z 
?H0x01920086_ReloadGetAmmo_03@CPlayerWeapons@@QAEHABVCEntityEvent@@@Z 
?H0x01920087_ReloadGetAmmo_04@CPlayerWeapons@@QAEHABVCEntityEvent@@@Z 
?H0x01920088_ReloadGetAmmo_05@CPlayerWeapons@@QAEHABVCEntityEvent@@@Z 
?H0x01920089_ReloadGetAmmo_06@CPlayerWeapons@@QAEHABVCEntityEvent@@@Z 
?H0x0192008a_ReloadGetAmmo_07@CPlayerWeapons@@QAEHABVCEntityEvent@@@Z 
?H0x0192008b_ReloadGetAmmo_08@CPlayerWeapons@@QAEHABVCEntityEvent@@@Z 
?H0x0192008c_ReloadGetAmmo_09@CPlayerWeapons@@QAEHABVCEntityEvent@@@Z 
?H0x0192008e_Reload_01@CPlayerWeapons@@QAEHABVCEntityEvent@@@Z 
?H0x0192008f_Reload_02@CPlayerWeapons@@QAEHABVCEntityEvent@@@Z 
?H0x01920090_Reload_03@CPlayerWeapons@@QAEHABVCEntityEvent@@@Z 
?H0x01920091_Reload_04@CPlayerWeapons@@QAEHABVCEntityEvent@@@Z 
?H0x01920092_Reload_05@CPlayerWeapons@@QAEHABVCEntityEvent@@@Z 
?H0x01920093_Reload_06@CPlayerWeapons@@QAEHABVCEntityEvent@@@Z 
?H0x01920094_Reload_07@CPlayerWeapons@@QAEHABVCEntityEvent@@@Z 
?H0x01920095_Reload_08@CPlayerWeapons@@QAEHABVCEntityEvent@@@Z 
?H0x01920096_Reload_09@CPlayerWeapons@@QAEHABVCEntityEvent@@@Z 
?H0x01920097_Reload_10@CPlayerWeapons@@QAEHABVCEntityEvent@@@Z 
?H0x01920098_Reload_11@CPlayerWeapons@@QAEHABVCEntityEvent@@@Z 
?H0x0192009a_Idle_01@CPlayerWeapons@@QAEHABVCEntityEvent@@@Z 
?H0x0192009b_Idle_02@CPlayerWeapons@@QAEHABVCEntityEvent@@@Z 
?H0x0192009d_Stopped_01@CPlayerWeapons@@QAEHABVCEntityEvent@@@Z 
?H0x0192009e_Stopped_02@CPlayerWeapons@@QAEHABVCEntityEvent@@@Z 
?H0x0192009f_Main_01@CPlayerWeapons@@QAEHABVCEntityEvent@@@Z 
?H0x019200a0_Main_02@CPlayerWeapons@@QAEHABVCEntityEvent@@@Z 
?H0x01930001_Main_01@CPlayerView@@QAEHABVCEntityEvent@@@Z 
?H0x01930002_Main_02@CPlayerView@@QAEHABVCEntityEvent@@@Z 
?H0x01960002_Main_01@CPlayerAnimator@@QAEHABVCEntityEvent@@@Z 
?H0x01960003_Main_02@CPlayerAnimator@@QAEHABVCEntityEvent@@@Z 
?H0x01f50005_ProjectileFly_01@CProjectile@@QAEHABVCEntityEvent@@@Z 
?H0x01f50006_ProjectileFly_02@CProjectile@@QAEHABVCEntityEvent@@@Z 
?H0x01f50007_ProjectileFly_03@CProjectile@@QAEHABVCEntityEvent@@@Z 
?H0x01f50008_ProjectileFly_04@CProjectile@@QAEHABVCEntityEvent@@@Z 
?H0x01f5000a_ProjectileGuidedFly_01@CProjectile@@QAEHABVCEntityEvent@@@Z 
?H0x01f5000b_ProjectileGuidedFly_02@CProjectile@@QAEHABVCEntityEvent@@@Z 
?H0x01f5000c_ProjectileGuidedFly_03@CProjectile@@QAEHABVCEntityEvent@@@Z 
?H0x01f5000d_ProjectileGuidedFly_04@CProjectile@@QAEHABVCEntityEvent@@@Z 
?H0x01f5000f_ProjectileGuidedFastFly_01@CProjectile@@QAEHABVCEntityEvent@@@Z 
?H0x01f50010_ProjectileGuidedFastFly_02@CProjectile@@QAEHABVCEntityEvent@@@Z 
?H0x01f50011_ProjectileGuidedFastFly_03@CProjectile@@QAEHABVCEntityEvent@@@Z 
?H0x01f50012_ProjectileGuidedFastFly_04@CProjectile@@QAEHABVCEntityEvent@@@Z 
?H0x01f50014_ProjectileGuidedSlide_01@CProjectile@@QAEHABVCEntityEvent@@@Z 
?H0x01f50015_ProjectileGuidedSlide_02@CProjectile@@QAEHABVCEntityEvent@@@Z 
?H0x01f50016_ProjectileGuidedSlide_03@CProjectile@@QAEHABVCEntityEvent@@@Z 
?H0x01f50017_ProjectileGuidedSlide_04@CProjectile@@QAEHABVCEntityEvent@@@Z 
?H0x01f50019_ProjectileGuidedFlyForFixedRocket_01@CProjectile@@QAEHABVCEntityEvent@@@Z 
?H0x01f5001a_ProjectileGuidedFlyForFixedRocket_02@CProjectile@@QAEHABVCEntityEvent@@@Z 
?H0x01f5001b_ProjectileGuidedFlyForFixedRocket_03@CProjectile@@QAEHABVCEntityEvent@@@Z 
?H0x01f5001c_ProjectileGuidedFlyForFixedRocket_04@CProjectile@@QAEHABVCEntityEvent@@@Z 
?H0x01f5001e_ProjectileGuidedFlyForNitro_01@CProjectile@@QAEHABVCEntityEvent@@@Z 
?H0x01f5001f_ProjectileGuidedFlyForNitro_02@CProjectile@@QAEHABVCEntityEvent@@@Z 
?H0x01f50020_ProjectileGuidedFlyForNitro_03@CProjectile@@QAEHABVCEntityEvent@@@Z 
?H0x01f50021_ProjectileGuidedFlyForNitro_04@CProjectile@@QAEHABVCEntityEvent@@@Z 
?H0x01f50023_ProjectileSlide_01@CProjectile@@QAEHABVCEntityEvent@@@Z 
?H0x01f50024_ProjectileSlide_02@CProjectile@@QAEHABVCEntityEvent@@@Z 
?H0x01f50025_ProjectileSlide_03@CProjectile@@QAEHABVCEntityEvent@@@Z 
?H0x01f50026_ProjectileSlide_04@CProjectile@@QAEHABVCEntityEvent@@@Z 
?H0x01f50028_ProjectileEnemyFlameSlide_01@CProjectile@@QAEHABVCEntityEvent@@@Z 
?H0x01f50029_ProjectileEnemyFlameSlide_02@CProjectile@@QAEHABVCEntityEvent@@@Z 
?H0x01f5002b_ProjectileNorudomBombSlide_01@CProjectile@@QAEHABVCEntityEvent@@@Z 
?H0x01f5002c_ProjectileNorudomBombSlide_02@CProjectile@@QAEHABVCEntityEvent@@@Z 
?H0x01f5002d_ProjectileNorudomBombSlide_03@CProjectile@@QAEHABVCEntityEvent@@@Z 
?H0x01f5002e_ProjectileNorudomBombSlide_04@CProjectile@@QAEHABVCEntityEvent@@@Z 
?H0x01f50030_ProjectileFlyRebounding_01@CProjectile@@QAEHABVCEntityEvent@@@Z 
?H0x01f50031_ProjectileFlyRebounding_02@CProjectile@@QAEHABVCEntityEvent@@@Z 
?H0x01f50033_ProjectilePushGun_01@CProjectile@@QAEHABVCEntityEvent@@@Z 
?H0x01f50034_ProjectilePushGun_02@CProjectile@@QAEHABVCEntityEvent@@@Z 
?H0x01f50035_ProjectilePushGun_03@CProjectile@@QAEHABVCEntityEvent@@@Z 
?H0x01f50036_ProjectilePushGun_04@CProjectile@@QAEHABVCEntityEvent@@@Z 
?H0x01f50038_ProjectileMajangRocket_01@CProjectile@@QAEHABVCEntityEvent@@@Z 
?H0x01f50039_ProjectileMajangRocket_02@CProjectile@@QAEHABVCEntityEvent@@@Z 
?H0x01f5003a_Main_01@CProjectile@@QAEHABVCEntityEvent@@@Z 
?H0x01f5003b_Main_02@CProjectile@@QAEHABVCEntityEvent@@@Z 
?H0x01f5003c_Main_03@CProjectile@@QAEHABVCEntityEvent@@@Z 
?H0x01f5003d_Main_04@CProjectile@@QAEHABVCEntityEvent@@@Z 
?H0x01f5003e_Main_05@CProjectile@@QAEHABVCEntityEvent@@@Z 
?H0x024f0006_FlyUp_01@CMaria@@QAEHABVCEntityEvent@@@Z 
?H0x024f0007_FlyUp_02@CMaria@@QAEHABVCEntityEvent@@@Z 
?H0x024f0008_FlyUp_03@CMaria@@QAEHABVCEntityEvent@@@Z 
?H0x024f0009_FlyUp_04@CMaria@@QAEHABVCEntityEvent@@@Z 
?H0x024f000b_Fire_01@CMaria@@QAEHABVCEntityEvent@@@Z 
?H0x024f000c_Fire_02@CMaria@@QAEHABVCEntityEvent@@@Z 
?H0x024f000d_Fire_03@CMaria@@QAEHABVCEntityEvent@@@Z 
?H0x024f000e_Fire_04@CMaria@@QAEHABVCEntityEvent@@@Z 
?H0x024f000f_Fire_05@CMaria@@QAEHABVCEntityEvent@@@Z 
?H0x024f0010_Fire_06@CMaria@@QAEHABVCEntityEvent@@@Z 
?H0x024f0012_GuidedFlyBack_01@CMaria@@QAEHABVCEntityEvent@@@Z 
?H0x024f0013_GuidedFlyBack_02@CMaria@@QAEHABVCEntityEvent@@@Z 
?H0x024f0014_GuidedFlyBack_03@CMaria@@QAEHABVCEntityEvent@@@Z 
?H0x024f0015_GuidedFlyBack_04@CMaria@@QAEHABVCEntityEvent@@@Z 
?H0x024f0016_GuidedFlyBack_05@CMaria@@QAEHABVCEntityEvent@@@Z 
?H0x024f0017_GuidedFlyBack_06@CMaria@@QAEHABVCEntityEvent@@@Z 
?H0x024f0018_Main_01@CMaria@@QAEHABVCEntityEvent@@@Z 
?H0x024f0019_Main_02@CMaria@@QAEHABVCEntityEvent@@@Z 
?H0x02bc0003_Active_01@CWatcher@@QAEHABVCEntityEvent@@@Z 
?H0x02bc0004_Active_02@CWatcher@@QAEHABVCEntityEvent@@@Z 
?H0x02bc0005_Active_03@CWatcher@@QAEHABVCEntityEvent@@@Z 
?H0x02bc0006_Active_04@CWatcher@@QAEHABVCEntityEvent@@@Z 
?H0x02bc0008_Inactive_01@CWatcher@@QAEHABVCEntityEvent@@@Z 
?H0x02bc0009_Inactive_02@CWatcher@@QAEHABVCEntityEvent@@@Z 
?H0x02bc000b_Dummy_01@CWatcher@@QAEHABVCEntityEvent@@@Z 
?H0x02bc000c_Dummy_02@CWatcher@@QAEHABVCEntityEvent@@@Z 
?H0x02bc000d_Main_01@CWatcher@@QAEHABVCEntityEvent@@@Z 
?H0x02bc000e_Main_02@CWatcher@@QAEHABVCEntityEvent@@@Z 
?H0x02bf0001_Main_01@CReminder@@QAEHABVCEntityEvent@@@Z 
?H0x02bf0002_Main_02@CReminder@@QAEHABVCEntityEvent@@@Z 
?H0x02bf0003_Main_03@CReminder@@QAEHABVCEntityEvent@@@Z 
?H0x05140001_BeWounded_01@CEnemyHorse@@QAEHABVCEntityEvent@@@Z 
?H0x05140002_BeWounded_02@CEnemyHorse@@QAEHABVCEntityEvent@@@Z 
?H0x05140003_BeWounded_03@CEnemyHorse@@QAEHABVCEntityEvent@@@Z 
?H0x051b0005_ItemLoop_01@CSkaItem@@QAEHABVCEntityEvent@@@Z 
?H0x051b0006_ItemLoop_02@CSkaItem@@QAEHABVCEntityEvent@@@Z 
?H0x051b0007_ItemLoop_03@CSkaItem@@QAEHABVCEntityEvent@@@Z 
?H0x051b0008_ItemLoop_04@CSkaItem@@QAEHABVCEntityEvent@@@Z 
?H0x051b0009_ItemLoop_05@CSkaItem@@QAEHABVCEntityEvent@@@Z 
?H0x051b000a_ItemLoop_06@CSkaItem@@QAEHABVCEntityEvent@@@Z 
?H0x051b000c_ItemReceived_01@CSkaItem@@QAEHABVCEntityEvent@@@Z 
?H0x051b000d_ItemReceived_02@CSkaItem@@QAEHABVCEntityEvent@@@Z 
?H0x051b000e_ItemReceived_03@CSkaItem@@QAEHABVCEntityEvent@@@Z 
?H0x051b000f_ItemReceived_04@CSkaItem@@QAEHABVCEntityEvent@@@Z 
?H0x057a0001_ChangeWeapon_01@CPlayerWeapons_L@@QAEHABVCEntityEvent@@@Z 
?H0x057a0002_ChangeWeapon_02@CPlayerWeapons_L@@QAEHABVCEntityEvent@@@Z 
?H0x057a0003_ChangeWeapon_03@CPlayerWeapons_L@@QAEHABVCEntityEvent@@@Z 
?H0x057a0004_ChangeWeapon_04@CPlayerWeapons_L@@QAEHABVCEntityEvent@@@Z 
?H0x057a0005_ChangeWeapon_05@CPlayerWeapons_L@@QAEHABVCEntityEvent@@@Z 
?H0x057a0007_DeSelect_01@CPlayerWeapons_L@@QAEHABVCEntityEvent@@@Z 
?H0x057a0008_DeSelect_02@CPlayerWeapons_L@@QAEHABVCEntityEvent@@@Z 
?H0x057a0009_DeSelect_03@CPlayerWeapons_L@@QAEHABVCEntityEvent@@@Z 
?H0x057a000b_Select_01@CPlayerWeapons_L@@QAEHABVCEntityEvent@@@Z 
?H0x057a000c_Select_02@CPlayerWeapons_L@@QAEHABVCEntityEvent@@@Z 
?H0x057a000d_Select_03@CPlayerWeapons_L@@QAEHABVCEntityEvent@@@Z 
?H0x057a000f_Fire_01@CPlayerWeapons_L@@QAEHABVCEntityEvent@@@Z 
?H0x057a0010_Fire_02@CPlayerWeapons_L@@QAEHABVCEntityEvent@@@Z 
?H0x057a0011_Fire_03@CPlayerWeapons_L@@QAEHABVCEntityEvent@@@Z 
?H0x057a0012_Fire_04@CPlayerWeapons_L@@QAEHABVCEntityEvent@@@Z 
?H0x057a0014_FireShotgun_01@CPlayerWeapons_L@@QAEHABVCEntityEvent@@@Z 
?H0x057a0015_FireShotgun_02@CPlayerWeapons_L@@QAEHABVCEntityEvent@@@Z 
?H0x057a0016_FireShotgun_03@CPlayerWeapons_L@@QAEHABVCEntityEvent@@@Z 
?H0x057a0017_FireShotgun_04@CPlayerWeapons_L@@QAEHABVCEntityEvent@@@Z 
?H0x057a0018_FireShotgun_05@CPlayerWeapons_L@@QAEHABVCEntityEvent@@@Z 
?H0x057a0019_FireShotgun_06@CPlayerWeapons_L@@QAEHABVCEntityEvent@@@Z 
?H0x057a001a_FireShotgun_07@CPlayerWeapons_L@@QAEHABVCEntityEvent@@@Z 
?H0x057a001b_FireShotgun_08@CPlayerWeapons_L@@QAEHABVCEntityEvent@@@Z 
?H0x057a001c_FireShotgun_09@CPlayerWeapons_L@@QAEHABVCEntityEvent@@@Z 
?H0x057a001d_FireShotgun_10@CPlayerWeapons_L@@QAEHABVCEntityEvent@@@Z 
?H0x057a001f_StopShotgun_01@CPlayerWeapons_L@@QAEHABVCEntityEvent@@@Z 
?H0x057a0020_StopShotgun_02@CPlayerWeapons_L@@QAEHABVCEntityEvent@@@Z 
?H0x057a0021_StopShotgun_03@CPlayerWeapons_L@@QAEHABVCEntityEvent@@@Z 
?H0x057a0022_StopShotgun_04@CPlayerWeapons_L@@QAEHABVCEntityEvent@@@Z 
?H0x057a0024_ReloadShotgun_01@CPlayerWeapons_L@@QAEHABVCEntityEvent@@@Z 
?H0x057a0025_ReloadShotgun_02@CPlayerWeapons_L@@QAEHABVCEntityEvent@@@Z 
?H0x057a0027_FireMachineGun_01@CPlayerWeapons_L@@QAEHABVCEntityEvent@@@Z 
?H0x057a0028_FireMachineGun_02@CPlayerWeapons_L@@QAEHABVCEntityEvent@@@Z 
?H0x057a0029_FireMachineGun_03@CPlayerWeapons_L@@QAEHABVCEntityEvent@@@Z 
?H0x057a002a_FireMachineGun_04@CPlayerWeapons_L@@QAEHABVCEntityEvent@@@Z 
?H0x057a002b_FireMachineGun_05@CPlayerWeapons_L@@QAEHABVCEntityEvent@@@Z 
?H0x057a002c_FireMachineGun_06@CPlayerWeapons_L@@QAEHABVCEntityEvent@@@Z 
?H0x057a002d_FireMachineGun_07@CPlayerWeapons_L@@QAEHABVCEntityEvent@@@Z 
?H0x057a002e_FireMachineGun_08@CPlayerWeapons_L@@QAEHABVCEntityEvent@@@Z 
?H0x057a002f_FireMachineGun_09@CPlayerWeapons_L@@QAEHABVCEntityEvent@@@Z 
?H0x057a0030_FireMachineGun_10@CPlayerWeapons_L@@QAEHABVCEntityEvent@@@Z 
?H0x057a0032_StopMachineGun_01@CPlayerWeapons_L@@QAEHABVCEntityEvent@@@Z 
?H0x057a0033_StopMachineGun_02@CPlayerWeapons_L@@QAEHABVCEntityEvent@@@Z 
?H0x057a0034_StopMachineGun_03@CPlayerWeapons_L@@QAEHABVCEntityEvent@@@Z 
?H0x057a0035_StopMachineGun_04@CPlayerWeapons_L@@QAEHABVCEntityEvent@@@Z 
?H0x057a0036_StopMachineGun_05@CPlayerWeapons_L@@QAEHABVCEntityEvent@@@Z 
?H0x057a0038_ReloadMachinegun_01@CPlayerWeapons_L@@QAEHABVCEntityEvent@@@Z 
?H0x057a0039_ReloadMachinegun_02@CPlayerWeapons_L@@QAEHABVCEntityEvent@@@Z 
?H0x057a003b_FireRocketLauncher_01@CPlayerWeapons_L@@QAEHABVCEntityEvent@@@Z 
?H0x057a003c_FireRocketLauncher_02@CPlayerWeapons_L@@QAEHABVCEntityEvent@@@Z 
?H0x057a003d_FireRocketLauncher_03@CPlayerWeapons_L@@QAEHABVCEntityEvent@@@Z 
?H0x057a003e_FireRocketLauncher_04@CPlayerWeapons_L@@QAEHABVCEntityEvent@@@Z 
?H0x057a003f_FireRocketLauncher_05@CPlayerWeapons_L@@QAEHABVCEntityEvent@@@Z 
?H0x057a0040_FireRocketLauncher_06@CPlayerWeapons_L@@QAEHABVCEntityEvent@@@Z 
?H0x057a0041_FireRocketLauncher_07@CPlayerWeapons_L@@QAEHABVCEntityEvent@@@Z 
?H0x057a0042_FireRocketLauncher_08@CPlayerWeapons_L@@QAEHABVCEntityEvent@@@Z 
?H0x057a0043_FireRocketLauncher_09@CPlayerWeapons_L@@QAEHABVCEntityEvent@@@Z 
?H0x057a0044_FireRocketLauncher_10@CPlayerWeapons_L@@QAEHABVCEntityEvent@@@Z 
?H0x057a0045_FireRocketLauncher_11@CPlayerWeapons_L@@QAEHABVCEntityEvent@@@Z 
?H0x057a0046_FireRocketLauncher_12@CPlayerWeapons_L@@QAEHABVCEntityEvent@@@Z 
?H0x057a0049_ReloadRocket_01@CPlayerWeapons_L@@QAEHABVCEntityEvent@@@Z 
?H0x057a004a_ReloadRocket_02@CPlayerWeapons_L@@QAEHABVCEntityEvent@@@Z 
?H0x057a004b_ReloadRocket_03@CPlayerWeapons_L@@QAEHABVCEntityEvent@@@Z 
?H0x057a004c_ReloadRocket_04@CPlayerWeapons_L@@QAEHABVCEntityEvent@@@Z 
?H0x057a004d_ReloadRocket_05@CPlayerWeapons_L@@QAEHABVCEntityEvent@@@Z 
?H0x057a004e_ReloadRocket_06@CPlayerWeapons_L@@QAEHABVCEntityEvent@@@Z 
?H0x057a0050_FireFixedLaser_01@CPlayerWeapons_L@@QAEHABVCEntityEvent@@@Z 
?H0x057a0051_FireFixedLaser_02@CPlayerWeapons_L@@QAEHABVCEntityEvent@@@Z 
?H0x057a0052_FireFixedLaser_03@CPlayerWeapons_L@@QAEHABVCEntityEvent@@@Z 
?H0x057a0053_FireFixedLaser_04@CPlayerWeapons_L@@QAEHABVCEntityEvent@@@Z 
?H0x057a0055_ReloadGetAmmo_01@CPlayerWeapons_L@@QAEHABVCEntityEvent@@@Z 
?H0x057a0056_ReloadGetAmmo_02@CPlayerWeapons_L@@QAEHABVCEntityEvent@@@Z 
?H0x057a0057_ReloadGetAmmo_03@CPlayerWeapons_L@@QAEHABVCEntityEvent@@@Z 
?H0x057a0058_ReloadGetAmmo_04@CPlayerWeapons_L@@QAEHABVCEntityEvent@@@Z 
?H0x057a0059_ReloadGetAmmo_05@CPlayerWeapons_L@@QAEHABVCEntityEvent@@@Z 
?H0x057a005a_ReloadGetAmmo_06@CPlayerWeapons_L@@QAEHABVCEntityEvent@@@Z 
?H0x057a005b_ReloadGetAmmo_07@CPlayerWeapons_L@@QAEHABVCEntityEvent@@@Z 
?H0x057a005c_ReloadGetAmmo_08@CPlayerWeapons_L@@QAEHABVCEntityEvent@@@Z 
?H0x057a005d_ReloadGetAmmo_09@CPlayerWeapons_L@@QAEHABVCEntityEvent@@@Z 
?H0x057a005f_Reload_01@CPlayerWeapons_L@@QAEHABVCEntityEvent@@@Z 
?H0x057a0060_Reload_02@CPlayerWeapons_L@@QAEHABVCEntityEvent@@@Z 
?H0x057a0061_Reload_03@CPlayerWeapons_L@@QAEHABVCEntityEvent@@@Z 
?H0x057a0062_Reload_04@CPlayerWeapons_L@@QAEHABVCEntityEvent@@@Z 
?H0x057a0063_Reload_05@CPlayerWeapons_L@@QAEHABVCEntityEvent@@@Z 
?H0x057a0064_Reload_06@CPlayerWeapons_L@@QAEHABVCEntityEvent@@@Z 
?H0x057a0065_Reload_07@CPlayerWeapons_L@@QAEHABVCEntityEvent@@@Z 
?H0x057a0066_Reload_08@CPlayerWeapons_L@@QAEHABVCEntityEvent@@@Z 
?H0x057a0067_Reload_09@CPlayerWeapons_L@@QAEHABVCEntityEvent@@@Z 
?H0x057a0068_Reload_10@CPlayerWeapons_L@@QAEHABVCEntityEvent@@@Z 
?H0x057a0069_Reload_11@CPlayerWeapons_L@@QAEHABVCEntityEvent@@@Z 
?H0x057a006b_Idle_01@CPlayerWeapons_L@@QAEHABVCEntityEvent@@@Z 
?H0x057a006c_Idle_02@CPlayerWeapons_L@@QAEHABVCEntityEvent@@@Z 
?H0x057a006e_Stopped_01@CPlayerWeapons_L@@QAEHABVCEntityEvent@@@Z 
?H0x057a006f_Stopped_02@CPlayerWeapons_L@@QAEHABVCEntityEvent@@@Z 
?H0x057a0070_Main_01@CPlayerWeapons_L@@QAEHABVCEntityEvent@@@Z 
?H0x057a0071_Main_02@CPlayerWeapons_L@@QAEHABVCEntityEvent@@@Z 
?HUD_NewGame@@YAXXZ 
?HandleEvent@CEnemyBase@@UAEHABVCEntityEvent@@@Z 
?HandleEvent@CPlayer@@UAEHABVCEntityEvent@@@Z 
?HasMessage@CPlayer@@QAEHABVCTFileName@@@Z 
?HawkMovementType_enum@@3VCEntityPropertyEnumType@@A 
?HawkMovementType_values@@3PAVCEntityPropertyEnumValue@@A 
?HawkRocket@CProjectile@@QAEXXZ 
?HawkRocketExplosion@CProjectile@@QAEXXZ 
?HeliGuidedRocket@CProjectile@@QAEXXZ 
?HeliGuidedRocketExplosion@CProjectile@@QAEXXZ 
?HideFlare@CPlayerAnimator@@QAEXH@Z 
?HideFlare@CPlayerWeapons@@QAEXAAVCModelInstance@@@Z 
?HideFlare@CPlayerWeapons_L@@QAEXAAVCModelInstance@@@Z 
?HideRocket@CPlayerWeapons@@QAEHABVCEntityEvent@@@Z 
?HideRocket@CPlayerWeapons_L@@QAEHABVCEntityEvent@@@Z 
?HigherMass@CEnemyHorse@@UAEHXZ 
?HigherMass@CEnemyRunInto@@UAEHXZ 
?Hit@CEnemyBase@@QAEHABVCEntityEvent@@@Z 
?Hit@CEnemyDive@@QAEHABVCEntityEvent@@@Z 
?Hit@CEnemyFly@@QAEHABVCEntityEvent@@@Z 
?HoldingFire@CPlayerWeapons@@QAEHXZ 
?HoldingFire@CPlayerWeapons_L@@QAEHXZ 
?HorseHwangboType_enum@@3VCEntityPropertyEnumType@@A 
?HorseHwangboType_values@@3PAVCEntityPropertyEnumValue@@A 
?HwangboFlameLongDistance@CProjectile@@QAEXXZ 
?HwangboFlameLongDistanceExplosion@CProjectile@@QAEXXZ 
?HwangboFlameShortDistance@CProjectile@@QAEXXZ 
?HwangboFlameType_enum@@3VCEntityPropertyEnumType@@A 
?HwangboFlameType_values@@3PAVCEntityPropertyEnumValue@@A 
?HwangboRifle@CProjectile@@QAEXXZ 
?HwangboRifleType_enum@@3VCEntityPropertyEnumType@@A 
?HwangboRifleType_values@@3PAVCEntityPropertyEnumValue@@A 
?Idle@CPlayerWeapons@@QAEHABVCEntityEvent@@@Z 
?Idle@CPlayerWeapons_L@@QAEHABVCEntityEvent@@@Z 
?IdleSound@CEnemyBase@@UAEXXZ 
?IfTargetCrushed@CEnemyBase@@QAEHPAVCEntity@@ABV?$Vector@M$02@@@Z 
?Inactive@CEnemyBase@@QAEHABVCEntityEvent@@@Z 
?Inactive@CWatcher@@QAEHABVCEntityEvent@@@Z 
?IncreaseKickedMass@CEnemyHorse@@QAEXPAVCEntity@@@Z 
?IncreaseKickedMass@CEnemyRunInto@@QAEXPAVCEntity@@@Z 
?InitParticles@@YAXXZ 
?Init_Objective@CPlayer@@QAEXXZ 
?Initialize@CEmiter@@QAEXPAVCEntity@@@Z 
?InitializeAttack@CEnemyBase@@QAEHABVCEntityEvent@@@Z 
?InitializeFromNet@CMaria@@UAEXXZ 
?InitializeFromNet@CPlayer@@UAEXXZ 
?InitializeFromNet@CPlayerAnimator@@UAEXXZ 
?InitializeFromNet@CPlayerWeapons@@UAEXXZ 
?InitializeFromNet@CPlayerWeapons_L@@UAEXXZ 
?InitializeFromNet@CProjectile@@UAEXXZ 
?InitializeFromNet@CReminder@@UAEXXZ 
?InitializeItem@CSkaItem@@QAEXXZ 
?InitializePlayer@CPlayer@@QAEXH@Z 
?InitializeProperties@CPlayerAnimator@@QAEXXZ 
?InitializeTactics@CEnemyBase@@QAEXXZ 
?InitializeWeapons@CPlayerWeapons@@QAEXJJJM@Z 
?InitializeWeapons@CPlayerWeapons_L@@QAEXJJJM@Z 
?IsAccessible@CEnemyBase@@QAEHPAVCEntity@@@Z 
?IsAccessibleToPoint@CEnemyBase@@QAEHV?$Vector@M$02@@@Z 
?IsActionApplied@CPlayer@@UAEHXZ 
?IsAnimFinished@CEnemyBase@@QAEHXZ 
?IsBoosterJumping@CPlayer@@UAEHXZ 
?IsCROUCH@CPlayer@@QAEHXZ 
?IsConnected@CPlayer@@QBEHXZ 
?IsFuss@CPlayer@@QAEHXZ 
?IsGameEditorModelsOn@CPlayer@@QAEXH@Z 
?IsInFrustum@CEnemyBase@@QAEHPAVCEntity@@M@Z 
?IsInFrustumXZPlane@CEnemyBase@@QAEHPAVCEntity@@M@Z 
?IsInPlaneFrustum@CEnemyBase@@QAEHPAVCEntity@@M@Z 
?IsMarker@CNavigationMarker@@UBEHXZ 
?IsReapplyingActions@CPlayer@@UAEHXZ 
?IsSentOverNet@CPlayerView@@UBEHXZ 
?IsSentOverNet@CWatcher@@UBEHXZ 
?IsTargetable@CEnemyBase@@UBEHXZ 
?IsTargetable@CNavigationMarker@@UBEHXZ 
?IsTargetable@CSkaItem@@UBEHXZ 
?IsValidForEnemy@CEnemyBase@@QAEHPAVCEntity@@@Z 
?IsVisible@CEnemyBase@@QAEHPAVCEntity@@@Z 
?IsVisible@CPlayerWeapons@@QAEHPAVCEntity@@@Z 
?IsVisible@CPlayerWeapons_L@@QAEHPAVCEntity@@@Z 
?IsVisibleCheckAll@CEnemyBase@@QAEHPAVCEntity@@@Z 
?IsVisibleCheckAll@CPlayerWeapons@@QAEHPAVCEntity@@@Z 
?IsVisibleCheckAll@CPlayerWeapons_L@@QAEHPAVCEntity@@@Z 
?IsVisibleCheckAllNew@CEnemyBase@@QAEHPAVCEntity@@@Z 
?ItemCollected@CSkaItem@@QAEHABVCEntityEvent@@@Z 
?ItemLoop@CSkaItem@@QAEHABVCEntityEvent@@@Z 
?ItemPicked@CPlayer@@QAEXABVCTString@@M@Z 
?ItemReceived@CSkaItem@@QAEHABVCEntityEvent@@@Z 
?JumpFromBouncer@@YAXPAVCEntity@@0@Z 
?KickEnemyAndComboOn@@YAXPAVCEntity@@V?$Vector@M$02@@0@Z 
?KickEntity_@@YAXPAVCEntity@@V?$Vector@M$02@@@Z 
?KickPlayer@@YAXPAVCEntity@@V?$Vector@M$02@@@Z 
?Kicked@CEnemyBase@@QAEHABVCEntityEvent@@@Z 
?KillAllEnemies@CEnemyBase@@QAEXPAVCEntity@@@Z 
?KillSwitchPointer@CSkaItem@@QAEXXZ 
?KillType_enum@@3VCEntityPropertyEnumType@@A 
?KillType_values@@3PAVCEntityPropertyEnumValue@@A 
?LamonRocket@CProjectile@@QAEXXZ 
?LamonRocketExplosion@CProjectile@@QAEXXZ 
?Landing@CEnemyBase@@UAEXXZ 
?LaunchBullet@CBullet@@QAEXHHH@Z 
?LaunchFixedMachineBullet@CBullet@@QAEXHHH@Z 
?LaunchFlareBullet@CBullet@@QAEXHHH@Z 
?LaunchFlareTrail@CBullet@@QAEXXZ 
?LaunchShotGunBullet@CBullet@@QAEXHHHJ@Z 
?LaunchSniperBullet@CBullet@@QAEXHHH@Z 
?LaunchTrail@CBullet@@QAEXXZ 
?LeaveStain@CPlayer@@UAEXH@Z 
?LeaveStainNew@CEnemyBase@@UAEXHKH@Z 
?LegsGroundStillAnimation@CPlayerAnimator@@QAEXXZ 
?LensFlareType_enum@@3VCEntityPropertyEnumType@@A 
?LensFlareType_values@@3PAVCEntityPropertyEnumValue@@A 
?LerpPlacementsPrecise@@YA?AVCPlacement3D@@ABV1@0M@Z 
?LevelChangePlayerClear@CPlayer@@QAEXXZ 
?LightType_enum@@3VCEntityPropertyEnumType@@A 
?LightType_values@@3PAVCEntityPropertyEnumValue@@A 
?ListenFromEntity@CPlayer@@QAEXPAVCEntity@@ABVCPlacement3D@@@Z 
?LiveEntityTouched@CEnemyHorse@@UAEXVETouch@@@Z 
?LiveEntityTouched@CEnemyRunInto@@UAEXVETouch@@@Z 
?LoadCrazyWarpINI@CPlayer@@QAEXXZ 
?LoadSkaModel@@YAXAAVCModelInstance@@PAVCEntity@@J@Z 
?LockOnClear@CPlayerWeapons@@QAEXXZ 
?LockOnClear@CPlayerWeapons_L@@QAEXXZ 
?LockOnEnemy@CEnemyBase@@QAEHABVCEntityEvent@@@Z 
?LouisDevilFireball@CProjectile@@QAEXXZ 
?LouisDevilFireballExplosion@CProjectile@@QAEXXZ 
?MMH3ModelType_enum@@3VCEntityPropertyEnumType@@A 
?MMH3ModelType_values@@3PAVCEntityPropertyEnumValue@@A 
?Main@CBullet@@QAEHABVCEntityEvent@@@Z 
?Main@CEnemyBase@@QAEHABVCEntityEvent@@@Z 
?Main@CEnemyDive@@QAEHABVCEntityEvent@@@Z 
?Main@CEnemyFly@@QAEHABVCEntityEvent@@@Z 
?Main@CEnemyHorse@@QAEHABVCEntityEvent@@@Z 
?Main@CEnemyRunInto@@QAEHABVCEntityEvent@@@Z 
?Main@CMaria@@QAEHABVCEntityEvent@@@Z 
?Main@CNavigationMarker@@QAEHABVCEntityEvent@@@Z 
?Main@CPlayer@@QAEHABVCEntityEvent@@@Z 
?Main@CPlayerAnimator@@QAEHABVCEntityEvent@@@Z 
?Main@CPlayerView@@QAEHABVCEntityEvent@@@Z 
?Main@CPlayerWeapons@@QAEHABVCEntityEvent@@@Z 
?Main@CPlayerWeapons_L@@QAEHABVCEntityEvent@@@Z 
?Main@CProjectile@@QAEHABVCEntityEvent@@@Z 
?Main@CReminder@@QAEHABVCEntityEvent@@@Z 
?Main@CWatcher@@QAEHABVCEntityEvent@@@Z 
?MainLoop@CEnemyBase@@QAEHABVCEntityEvent@@@Z 
?MainLoop@CEnemyDive@@QAEHABVCEntityEvent@@@Z 
?MainLoop@CEnemyFly@@QAEHABVCEntityEvent@@@Z 
?MainLoop@CEnemyHorse@@QAEHABVCEntityEvent@@@Z 
?MainLoop@CEnemyRunInto@@QAEHABVCEntityEvent@@@Z 
?MainLoop_internal@CEnemyBase@@QAEHABVCEntityEvent@@@Z 
?MajangRocket@CProjectile@@QAEXXZ 
?MajangRocketExplosion@CProjectile@@QAEXXZ 
?MajangSecondRocket@CProjectile@@QAEXXZ 
?MajangSecondRocketExplosion@CProjectile@@QAEXXZ 
?MakeCopy@EActivate@@UAEPAVCEntityEvent@@XZ 
?MakeCopy@EActivateBlend@@UAEPAVCEntityEvent@@XZ 
?MakeCopy@EActiveMariaDie@@UAEPAVCEntityEvent@@XZ 
?MakeCopy@EAddBulletSpray@@UAEPAVCEntityEvent@@XZ 
?MakeCopy@EAddGoreSpray@@UAEPAVCEntityEvent@@XZ 
?MakeCopy@EAnimForDamage@@UAEPAVCEntityEvent@@XZ 
?MakeCopy@EAnimatorInit@@UAEPAVCEntityEvent@@XZ 
?MakeCopy@EArchitectureDeath@@UAEPAVCEntityEvent@@XZ 
?MakeCopy@EAttachChild@@UAEPAVCEntityEvent@@XZ 
?MakeCopy@EAutoAction@@UAEPAVCEntityEvent@@XZ 
?MakeCopy@EAutoQuickSave@@UAEPAVCEntityEvent@@XZ 
?MakeCopy@EAvoidProjectiles@@UAEPAVCEntityEvent@@XZ 
?MakeCopy@EBFlame@@UAEPAVCEntityEvent@@XZ 
?MakeCopy@EBGravity@@UAEPAVCEntityEvent@@XZ 
?MakeCopy@EBackMaria@@UAEPAVCEntityEvent@@XZ 
?MakeCopy@EBackMariaNPC@@UAEPAVCEntityEvent@@XZ 
?MakeCopy@EBackward@@UAEPAVCEntityEvent@@XZ 
?MakeCopy@EBasket@@UAEPAVCEntityEvent@@XZ 
?MakeCopy@EBbSetValue@@UAEPAVCEntityEvent@@XZ 
?MakeCopy@EBlowUp@@UAEPAVCEntityEvent@@XZ 
?MakeCopy@EBonus@@UAEPAVCEntityEvent@@XZ 
?MakeCopy@EBoosterEnd@@UAEPAVCEntityEvent@@XZ 
?MakeCopy@EBoringWeapon@@UAEPAVCEntityEvent@@XZ 
?MakeCopy@EBossWounded@@UAEPAVCEntityEvent@@XZ 
?MakeCopy@EBruceDefenseFinished@@UAEPAVCEntityEvent@@XZ 
?MakeCopy@EBruceDefenseProjectiles@@UAEPAVCEntityEvent@@XZ 
?MakeCopy@EBruceTeleport@@UAEPAVCEntityEvent@@XZ 
?MakeCopy@EBrushDeath@@UAEPAVCEntityEvent@@XZ 
?MakeCopy@EBrushDestroyed@@UAEPAVCEntityEvent@@XZ 
?MakeCopy@EBuffaloMoveThroughMarkers@@UAEPAVCEntityEvent@@XZ 
?MakeCopy@EBulletInit@@UAEPAVCEntityEvent@@XZ 
?MakeCopy@EBurning@@UAEPAVCEntityEvent@@XZ 
?MakeCopy@ECameraStart@@UAEPAVCEntityEvent@@XZ 
?MakeCopy@ECameraStop@@UAEPAVCEntityEvent@@XZ 
?MakeCopy@ECannotLaunchMaria@@UAEPAVCEntityEvent@@XZ 
?MakeCopy@ECarSexDamage@@UAEPAVCEntityEvent@@XZ 
?MakeCopy@ECenterMessage@@UAEPAVCEntityEvent@@XZ 
?MakeCopy@EChangeAnim@@UAEPAVCEntityEvent@@XZ 
?MakeCopy@EChangeDance@@UAEPAVCEntityEvent@@XZ 
?MakeCopy@EChangeGravity@@UAEPAVCEntityEvent@@XZ 
?MakeCopy@EChangeGravityForce@@UAEPAVCEntityEvent@@XZ 
?MakeCopy@EChangeMusic@@UAEPAVCEntityEvent@@XZ 
?MakeCopy@ECloseRangeAttack@@UAEPAVCEntityEvent@@XZ 
?MakeCopy@ECombo@@UAEPAVCEntityEvent@@XZ 
?MakeCopy@EComputerMessage@@UAEPAVCEntityEvent@@XZ 
?MakeCopy@ECopierTrigger@@UAEPAVCEntityEvent@@XZ 
?MakeCopy@ECoreDamage@@UAEPAVCEntityEvent@@XZ 
?MakeCopy@ECoreDie@@UAEPAVCEntityEvent@@XZ 
?MakeCopy@ECoreFlame@@UAEPAVCEntityEvent@@XZ 
?MakeCopy@ECoreFlameandGrind@@UAEPAVCEntityEvent@@XZ 
?MakeCopy@ECoreGravity@@UAEPAVCEntityEvent@@XZ 
?MakeCopy@ECoreGrind@@UAEPAVCEntityEvent@@XZ 
?MakeCopy@ECorePriestDefault@@UAEPAVCEntityEvent@@XZ 
?MakeCopy@ECounterCount@@UAEPAVCEntityEvent@@XZ 
?MakeCopy@ECrazyBegin@@UAEPAVCEntityEvent@@XZ 
?MakeCopy@ECrazyEnd@@UAEPAVCEntityEvent@@XZ 
?MakeCopy@ECredits@@UAEPAVCEntityEvent@@XZ 
?MakeCopy@EDancerAcrobatRemoved@@UAEPAVCEntityEvent@@XZ 
?MakeCopy@EDancerNormalCreated@@UAEPAVCEntityEvent@@XZ 
?MakeCopy@EDeactivate@@UAEPAVCEntityEvent@@XZ 
?MakeCopy@EDeactivateBlend@@UAEPAVCEntityEvent@@XZ 
?MakeCopy@EDefenseBullet@@UAEPAVCEntityEvent@@XZ 
?MakeCopy@EDetachChild@@UAEPAVCEntityEvent@@XZ 
?MakeCopy@EDirectDancers@@UAEPAVCEntityEvent@@XZ 
?MakeCopy@EDisconnected@@UAEPAVCEntityEvent@@XZ 
?MakeCopy@EDownMode@@UAEPAVCEntityEvent@@XZ 
?MakeCopy@EDrugmodeBegin@@UAEPAVCEntityEvent@@XZ 
?MakeCopy@EDrugmodeEnd@@UAEPAVCEntityEvent@@XZ 
?MakeCopy@EEnd@@UAEPAVCEntityEvent@@XZ 
?MakeCopy@EEndActor@@UAEPAVCEntityEvent@@XZ 
?MakeCopy@EEnding@@UAEPAVCEntityEvent@@XZ 
?MakeCopy@EEndingCameraStop@@UAEPAVCEntityEvent@@XZ 
?MakeCopy@EEnemyBaseDamage@@UAEPAVCEntityEvent@@XZ 
?MakeCopy@EEnemyBaseDeath@@UAEPAVCEntityEvent@@XZ 
?MakeCopy@EEntityVoice@@UAEPAVCEntityEvent@@XZ 
?MakeCopy@EEnvironmentStart@@UAEPAVCEntityEvent@@XZ 
?MakeCopy@EEnvironmentStop@@UAEPAVCEntityEvent@@XZ 
?MakeCopy@EExplode@@UAEPAVCEntityEvent@@XZ 
?MakeCopy@EExtraTeleport@@UAEPAVCEntityEvent@@XZ 
?MakeCopy@EFireBombs@@UAEPAVCEntityEvent@@XZ 
?MakeCopy@EFireDagger@@UAEPAVCEntityEvent@@XZ 
?MakeCopy@EFireRocket@@UAEPAVCEntityEvent@@XZ 
?MakeCopy@EFireWeapon@@UAEPAVCEntityEvent@@XZ 
?MakeCopy@EFlame@@UAEPAVCEntityEvent@@XZ 
?MakeCopy@EFlipTheSwitch@@UAEPAVCEntityEvent@@XZ 
?MakeCopy@EForceWound@@UAEPAVCEntityEvent@@XZ 
?MakeCopy@EForward@@UAEPAVCEntityEvent@@XZ 
?MakeCopy@EGetAngry@@UAEPAVCEntityEvent@@XZ 
?MakeCopy@EGetDamaged@@UAEPAVCEntityEvent@@XZ 
?MakeCopy@EGotFlower@@UAEPAVCEntityEvent@@XZ 
?MakeCopy@EGrenadeExplodeNow@@UAEPAVCEntityEvent@@XZ 
?MakeCopy@EGrindClose@@UAEPAVCEntityEvent@@XZ 
?MakeCopy@EGrindInit@@UAEPAVCEntityEvent@@XZ 
?MakeCopy@EGrindOff@@UAEPAVCEntityEvent@@XZ 
?MakeCopy@EGrindOn@@UAEPAVCEntityEvent@@XZ 
?MakeCopy@EGrindOpen@@UAEPAVCEntityEvent@@XZ 
?MakeCopy@EGuard@@UAEPAVCEntityEvent@@XZ 
?MakeCopy@EGuardState@@UAEPAVCEntityEvent@@XZ 
?MakeCopy@EHit@@UAEPAVCEntityEvent@@XZ 
?MakeCopy@EHitBySpaceShipBeam@@UAEPAVCEntityEvent@@XZ 
?MakeCopy@EHudPicFX@@UAEPAVCEntityEvent@@XZ 
?MakeCopy@EInDrugModeItem@@UAEPAVCEntityEvent@@XZ 
?MakeCopy@EInRange@@UAEPAVCEntityEvent@@XZ 
?MakeCopy@EInitMaria@@UAEPAVCEntityEvent@@XZ 
?MakeCopy@EInitMariaNPC@@UAEPAVCEntityEvent@@XZ 
?MakeCopy@EKickBlob@@UAEPAVCEntityEvent@@XZ 
?MakeCopy@EKilledEnemy@@UAEPAVCEntityEvent@@XZ 
?MakeCopy@ELamonBikeFireRocket@@UAEPAVCEntityEvent@@XZ 
?MakeCopy@ELamonBikeMoveThroughMarkers@@UAEPAVCEntityEvent@@XZ 
?MakeCopy@ELamonBikeSuicide@@UAEPAVCEntityEvent@@XZ 
?MakeCopy@ELandingActiveMaria@@UAEPAVCEntityEvent@@XZ 
?MakeCopy@ELandingMaria@@UAEPAVCEntityEvent@@XZ 
?MakeCopy@ELaunch@@UAEPAVCEntityEvent@@XZ 
?MakeCopy@ELaunchActiveMaria@@UAEPAVCEntityEvent@@XZ 
?MakeCopy@ELaunchAx@@UAEPAVCEntityEvent@@XZ 
?MakeCopy@ELaunchMaria@@UAEPAVCEntityEvent@@XZ 
?MakeCopy@ELaunchMariaNPC@@UAEPAVCEntityEvent@@XZ 
?MakeCopy@ELaunchProjectile@@UAEPAVCEntityEvent@@XZ 
?MakeCopy@ELeft@@UAEPAVCEntityEvent@@XZ 
?MakeCopy@ELisa@@UAEPAVCEntityEvent@@XZ 
?MakeCopy@EMarkPicked@@UAEPAVCEntityEvent@@XZ 
?MakeCopy@EMarkerPassed@@UAEPAVCEntityEvent@@XZ 
?MakeCopy@EModel2Activate@@UAEPAVCEntityEvent@@XZ 
?MakeCopy@EModel2Deactivate@@UAEPAVCEntityEvent@@XZ 
?MakeCopy@EModel3Activate@@UAEPAVCEntityEvent@@XZ 
?MakeCopy@EModel3Deactivate@@UAEPAVCEntityEvent@@XZ 
?MakeCopy@EModelChange@@UAEPAVCEntityEvent@@XZ 
?MakeCopy@EModelDeath@@UAEPAVCEntityEvent@@XZ 
?MakeCopy@EModelDeathSpawnAmmoItem@@UAEPAVCEntityEvent@@XZ 
?MakeCopy@EModelDeathSpawnArmorItem@@UAEPAVCEntityEvent@@XZ 
?MakeCopy@EModelDeathSpawnHealthItem@@UAEPAVCEntityEvent@@XZ 
?MakeCopy@EModelDeathSpawnSpecialItem@@UAEPAVCEntityEvent@@XZ 
?MakeCopy@EModelSelfDestruction@@UAEPAVCEntityEvent@@XZ 
?MakeCopy@EMoveLeft@@UAEPAVCEntityEvent@@XZ 
?MakeCopy@EMoveRight@@UAEPAVCEntityEvent@@XZ 
?MakeCopy@EMusicChangerTrigger@@UAEPAVCEntityEvent@@XZ 
?MakeCopy@ENetChangeMusic@@UAEPAVCEntityEvent@@XZ 
?MakeCopy@ENetFireWeapon@@UAEPAVCEntityEvent@@XZ 
?MakeCopy@ENetReleaseWeapon@@UAEPAVCEntityEvent@@XZ 
?MakeCopy@ENetReloadWeapon@@UAEPAVCEntityEvent@@XZ 
?MakeCopy@ENetSelectWeapon@@UAEPAVCEntityEvent@@XZ 
?MakeCopy@ENetSpawnEntity@@UAEPAVCEntityEvent@@XZ 
?MakeCopy@ENetTrigger@@UAEPAVCEntityEvent@@XZ 
?MakeCopy@EOBJ_Add@@UAEPAVCEntityEvent@@XZ 
?MakeCopy@EOBJ_Click@@UAEPAVCEntityEvent@@XZ 
?MakeCopy@EOBJ_Finish@@UAEPAVCEntityEvent@@XZ 
?MakeCopy@EOBJ_Receive@@UAEPAVCEntityEvent@@XZ 
?MakeCopy@EOnMarker@@UAEPAVCEntityEvent@@XZ 
?MakeCopy@EOnPeerDead@@UAEPAVCEntityEvent@@XZ 
?MakeCopy@EOutDrugModeItem@@UAEPAVCEntityEvent@@XZ 
?MakeCopy@EOutRange@@UAEPAVCEntityEvent@@XZ 
?MakeCopy@EParticlesActivate@@UAEPAVCEntityEvent@@XZ 
?MakeCopy@EParticlesDeactivate@@UAEPAVCEntityEvent@@XZ 
?MakeCopy@EPlayAnim@@UAEPAVCEntityEvent@@XZ 
?MakeCopy@EPlayEcstasy@@UAEPAVCEntityEvent@@XZ 
?MakeCopy@EPlaySoundOnce@@UAEPAVCEntityEvent@@XZ 
?MakeCopy@EPlayerDamage@@UAEPAVCEntityEvent@@XZ 
?MakeCopy@EPlayerDeath@@UAEPAVCEntityEvent@@XZ 
?MakeCopy@EPlayerInCloseRange@@UAEPAVCEntityEvent@@XZ 
?MakeCopy@EPlayerKilledEnemy@@UAEPAVCEntityEvent@@XZ 
?MakeCopy@EPlayerRebirth@@UAEPAVCEntityEvent@@XZ 
?MakeCopy@EPlayerStats@@UAEPAVCEntityEvent@@XZ 
?MakeCopy@EProjectileSpawnClient@@UAEPAVCEntityEvent@@XZ 
?MakeCopy@EProtectorFire@@UAEPAVCEntityEvent@@XZ 
?MakeCopy@EProtectorsCleared@@UAEPAVCEntityEvent@@XZ 
?MakeCopy@ERangeModelDestruction@@UAEPAVCEntityEvent@@XZ 
?MakeCopy@ERebirth@@UAEPAVCEntityEvent@@XZ 
?MakeCopy@EReceiveScore@@UAEPAVCEntityEvent@@XZ 
?MakeCopy@EReceiveSkaItem@@UAEPAVCEntityEvent@@XZ 
?MakeCopy@EReconsiderBehavior@@UAEPAVCEntityEvent@@XZ 
?MakeCopy@EReleaseWeapon@@UAEPAVCEntityEvent@@XZ 
?MakeCopy@EReloadGetAmmo@@UAEPAVCEntityEvent@@XZ 
?MakeCopy@EReloadWeapon@@UAEPAVCEntityEvent@@XZ 
?MakeCopy@EReminder@@UAEPAVCEntityEvent@@XZ 
?MakeCopy@EReminderInit@@UAEPAVCEntityEvent@@XZ 
?MakeCopy@ERenderLightning@@UAEPAVCEntityEvent@@XZ 
?MakeCopy@ERestartAttack@@UAEPAVCEntityEvent@@XZ 
?MakeCopy@ERight@@UAEPAVCEntityEvent@@XZ 
?MakeCopy@ERightAttack@@UAEPAVCEntityEvent@@XZ 
?MakeCopy@ERigidityWeapon@@UAEPAVCEntityEvent@@XZ 
?MakeCopy@ERotateLeft@@UAEPAVCEntityEvent@@XZ 
?MakeCopy@ERotateRight@@UAEPAVCEntityEvent@@XZ 
?MakeCopy@EScroll@@UAEPAVCEntityEvent@@XZ 
?MakeCopy@ESecretFound@@UAEPAVCEntityEvent@@XZ 
?MakeCopy@ESelectOnly@@UAEPAVCEntityEvent@@XZ 
?MakeCopy@ESelectWeapon@@UAEPAVCEntityEvent@@XZ 
?MakeCopy@ESetBossGauge@@UAEPAVCEntityEvent@@XZ 
?MakeCopy@ESetPlayerWeapon@@UAEPAVCEntityEvent@@XZ 
?MakeCopy@ESetType@@UAEPAVCEntityEvent@@XZ 
?MakeCopy@ESetViewer@@UAEPAVCEntityEvent@@XZ 
?MakeCopy@EShowConsole@@UAEPAVCEntityEvent@@XZ 
?MakeCopy@ESkaAmmoItem@@UAEPAVCEntityEvent@@XZ 
?MakeCopy@ESkaArmor@@UAEPAVCEntityEvent@@XZ 
?MakeCopy@ESkaHealth@@UAEPAVCEntityEvent@@XZ 
?MakeCopy@ESkaModelDeath@@UAEPAVCEntityEvent@@XZ 
?MakeCopy@ESkaMovingModelDestruction@@UAEPAVCEntityEvent@@XZ 
?MakeCopy@ESkaSpecialItem@@UAEPAVCEntityEvent@@XZ 
?MakeCopy@ESound@@UAEPAVCEntityEvent@@XZ 
?MakeCopy@ESpawnDebris@@UAEPAVCEntityEvent@@XZ 
?MakeCopy@ESpawnDebrisSka@@UAEPAVCEntityEvent@@XZ 
?MakeCopy@ESpawnEffect@@UAEPAVCEntityEvent@@XZ 
?MakeCopy@ESpawnEffector@@UAEPAVCEntityEvent@@XZ 
?MakeCopy@ESpawnFXEmiter@@UAEPAVCEntityEvent@@XZ 
?MakeCopy@ESpawnFlame@@UAEPAVCEntityEvent@@XZ 
?MakeCopy@ESpawnSpray@@UAEPAVCEntityEvent@@XZ 
?MakeCopy@ESpawnerProjectile@@UAEPAVCEntityEvent@@XZ 
?MakeCopy@EStart@@UAEPAVCEntityEvent@@XZ 
?MakeCopy@EStartAttack@@UAEPAVCEntityEvent@@XZ 
?MakeCopy@EStartCounter@@UAEPAVCEntityEvent@@XZ 
?MakeCopy@EStartDancers@@UAEPAVCEntityEvent@@XZ 
?MakeCopy@EStartPulling@@UAEPAVCEntityEvent@@XZ 
?MakeCopy@EStartSounds@@UAEPAVCEntityEvent@@XZ 
?MakeCopy@EStealth@@UAEPAVCEntityEvent@@XZ 
?MakeCopy@EStepBack@@UAEPAVCEntityEvent@@XZ 
?MakeCopy@EStop@@UAEPAVCEntityEvent@@XZ 
?MakeCopy@EStopAttack@@UAEPAVCEntityEvent@@XZ 
?MakeCopy@EStopBlindness@@UAEPAVCEntityEvent@@XZ 
?MakeCopy@EStopCounter@@UAEPAVCEntityEvent@@XZ 
?MakeCopy@EStopDanceMode@@UAEPAVCEntityEvent@@XZ 
?MakeCopy@EStopDancers@@UAEPAVCEntityEvent@@XZ 
?MakeCopy@EStopDeafness@@UAEPAVCEntityEvent@@XZ 
?MakeCopy@EStopFlaming@@UAEPAVCEntityEvent@@XZ 
?MakeCopy@EStopPulling@@UAEPAVCEntityEvent@@XZ 
?MakeCopy@EStopSounds@@UAEPAVCEntityEvent@@XZ 
?MakeCopy@ETeleportActivate@@UAEPAVCEntityEvent@@XZ 
?MakeCopy@ETeleportDeactivate@@UAEPAVCEntityEvent@@XZ 
?MakeCopy@ETeleportMovingBrush@@UAEPAVCEntityEvent@@XZ 
?MakeCopy@ETextFX@@UAEPAVCEntityEvent@@XZ 
?MakeCopy@EToasterTrigger@@UAEPAVCEntityEvent@@XZ 
?MakeCopy@ETorpedoDamage@@UAEPAVCEntityEvent@@XZ 
?MakeCopy@ETorpedoExplode@@UAEPAVCEntityEvent@@XZ 
?MakeCopy@ETrigger@@UAEPAVCEntityEvent@@XZ 
?MakeCopy@ETriggerActionMarker@@UAEPAVCEntityEvent@@XZ 
?MakeCopy@ETriggerEffector@@UAEPAVCEntityEvent@@XZ 
?MakeCopy@EViewInit@@UAEPAVCEntityEvent@@XZ 
?MakeCopy@EVoiceMessage@@UAEPAVCEntityEvent@@XZ 
?MakeCopy@EWait@@UAEPAVCEntityEvent@@XZ 
?MakeCopy@EWatch@@UAEPAVCEntityEvent@@XZ 
?MakeCopy@EWatcherInit@@UAEPAVCEntityEvent@@XZ 
?MakeCopy@EWeaponChanged@@UAEPAVCEntityEvent@@XZ 
?MakeCopy@EWeaponEffectInit@@UAEPAVCEntityEvent@@XZ 
?MakeCopy@EWeaponsInit@@UAEPAVCEntityEvent@@XZ 
?MakeCopy@EWeatherStart@@UAEPAVCEntityEvent@@XZ 
?MakeCopy@EWeatherStop@@UAEPAVCEntityEvent@@XZ 
?MakeCopy@EWhip@@UAEPAVCEntityEvent@@XZ 
?MakeCopy@EbflameOff@@UAEPAVCEntityEvent@@XZ 
?MakeCopy@EbflameOn@@UAEPAVCEntityEvent@@XZ 
?MakeCopy@Ebflame_ing@@UAEPAVCEntityEvent@@XZ 
?MariaActiveAnimationLanding@CPlayer@@QAEXXZ 
?MariaActiveAnimationLaunch@CPlayer@@QAEXXZ 
?MariaAnimation@CPlayer@@QAEXJKMMM@Z 
?MarkPickedBy@CSkaItem@@QAEHPAVCEntity@@@Z 
?MarkRecentlyPickedBy@CSkaItem@@QAEHPAVCEntity@@@Z 
?MayMoveToAttack@CEnemyBase@@UAEHXZ 
?MayMoveToAttack@CEnemyDive@@UAEHXZ 
?MaybeSwitchToAnotherPlayer@CEnemyBase@@QAEXXZ 
?MessageSound_enum@@3VCEntityPropertyEnumType@@A 
?MessageSound_values@@3PAVCEntityPropertyEnumValue@@A 
?ModelDeathSpawnAmmoItemType_enum@@3VCEntityPropertyEnumType@@A 
?ModelDeathSpawnAmmoItemType_values@@3PAVCEntityPropertyEnumValue@@A 
?ModelDeathSpawnArmorItemType_enum@@3VCEntityPropertyEnumType@@A 
?ModelDeathSpawnArmorItemType_values@@3PAVCEntityPropertyEnumValue@@A 
?ModelDeathSpawnHealthItemType_enum@@3VCEntityPropertyEnumType@@A 
?ModelDeathSpawnHealthItemType_values@@3PAVCEntityPropertyEnumValue@@A 
?ModelDeathSpawnItemType_enum@@3VCEntityPropertyEnumType@@A 
?ModelDeathSpawnItemType_values@@3PAVCEntityPropertyEnumValue@@A 
?ModelDeathSpawnSpecialItemType_enum@@3VCEntityPropertyEnumType@@A 
?ModelDeathSpawnSpecialItemType_values@@3PAVCEntityPropertyEnumValue@@A 
?ModelDestructionType_enum@@3VCEntityPropertyEnumType@@A 
?ModelDestructionType_values@@3PAVCEntityPropertyEnumValue@@A 
?MountHwangboType_enum@@3VCEntityPropertyEnumType@@A 
?MountHwangboType_values@@3PAVCEntityPropertyEnumValue@@A 
?MoveThroughMarkers@CEnemyBase@@QAEHABVCEntityEvent@@@Z 
?MoveToDestination@CEnemyBase@@QAEHABVCEntityEvent@@@Z 
?MoveToRandomPatrolPosition@CEnemyBase@@QAEHABVCEntityEvent@@@Z 
?MovementAnimation@CEnemyBase@@UAEXK@Z 
?MovesByTargetedRoute@CEnemyBase@@UBEHAAVCTString@@@Z 
?MovesByTargetedRoute@CNavigationMarker@@UBEHAAVCTString@@@Z 
?MusicType_enum@@3VCEntityPropertyEnumType@@A 
?MusicType_values@@3PAVCEntityPropertyEnumValue@@A 
?NewEnemySpotted@CEnemyBase@@QAEHABVCEntityEvent@@@Z 
?NewMessage@CCompMessageID@@QAEXABVCTFileName@@@Z 
?NorudomBomb@CProjectile@@QAEXXZ 
?NorudomBombExplosion@CProjectile@@QAEXXZ 
?OnEnd@CEnemyBase@@UAEXXZ 
?OnEnd@CPlayer@@UAEXXZ 
?OnEnd@CProjectile@@UAEXXZ 
?OnEnding@CPlayer@@QAEHABVCEntityEvent@@@Z 
?OnEndingDeath@CPlayer@@QAEHABVCEntityEvent@@@Z 
?OnInitialize@CEnemyBase@@UAEXABVCEntityEvent@@@Z 
?OnInitialize@CPlayerWeapons@@UAEXABVCEntityEvent@@@Z 
?OnInitialize@CPlayerWeapons_L@@UAEXABVCEntityEvent@@@Z 
?OnInitialize@CProjectile@@UAEXABVCEntityEvent@@@Z 
?OnPreRender@CPlayerAnimator@@QAEXXZ 
?OtherWeaponisRock@CPlayerWeapons@@QAEHXZ 
?OtherWeaponisRock@CPlayerWeapons_L@@QAEHXZ 
?PATH_FindFirstMarker@@YAXPAVCEntity@@ABV?$Vector@M$02@@1AAPAV1@AAV2@@Z 
?PATH_FindNextMarker@@YAXPAVCEntity@@ABV?$Vector@M$02@@1AAPAV1@AAV2@@Z 
?PATH_FindNextShortestMarker@@YAXPAVCEntity@@ABV?$Vector@M$02@@1AAPAV1@VCEntityPointer@@AAV2@@Z 
?PFTrialType_enum@@3VCEntityPropertyEnumType@@A 
?PFTrialType_values@@3PAVCEntityPropertyEnumValue@@A 
?ParseGender@CPlayer@@QAEXAAVCTString@@@Z 
?ParticleTexture_enum@@3VCEntityPropertyEnumType@@A 
?ParticleTexture_values@@3PAVCEntityPropertyEnumValue@@A 
?ParticlesHolderType_enum@@3VCEntityPropertyEnumType@@A 
?ParticlesHolderType_values@@3PAVCEntityPropertyEnumValue@@A 
?Particles_AfterBurner@@YAXPAVCEntity@@MMJ@Z 
?Particles_AfterBurner_Prepare@@YAXPAVCEntity@@@Z 
?Particles_Appearing@@YAXPAVCEntity@@M@Z 
?Particles_Atomic@@YAXPAVCEntity@@MMW4ParticleTexture@@J@Z 
?Particles_AutoAiming@@YAXPAVCEntity@@0@Z 
?Particles_AxeTrail@@YAXPAVCEntity@@M@Z 
?Particles_BeastBigProjectileTrail@@YAXPAVCEntity@@MMMJ@Z 
?Particles_BeastBigProjectileTrail_Prepare@@YAXPAVCEntity@@@Z 
?Particles_BeastProjectileDebrisTrail@@YAXPAVCEntity@@M@Z 
?Particles_BeastProjectileDebrisTrail_Prepare@@YAXPAVCEntity@@@Z 
?Particles_BeastProjectileTrail@@YAXPAVCEntity@@MMJ@Z 
?Particles_BeastProjectileTrail_Prepare@@YAXPAVCEntity@@@Z 
?Particles_BloodFountain@@YAXPAVCEntity@@V?$Vector@M$02@@MM1MJK@Z 
?Particles_BloodSpray@@YAXW4SprayParticlesType@@V?$Vector@M$02@@1MV?$AABBox@M$02@@1MMK@Z 
?Particles_BloodTrail@@YAXPAVCEntity@@@Z 
?Particles_BloodTrailNew@@YAXPAVCEntity@@K@Z 
?Particles_BombTrail@@YAXPAVCEntity@@@Z 
?Particles_BombTrail_Prepare@@YAXPAVCEntity@@@Z 
?Particles_BridgeSpray@@YAXPAVCEntity@@V?$AABBox@M$02@@V?$Vector@M$02@@MM2MMKM@Z 
?Particles_BrushBurning@@YAXPAVCEntity@@QAV?$Vector@M$02@@JV2@MM@Z 
?Particles_BuffaloRunningDust@@YAXPAVCEntity@@@Z 
?Particles_BuffaloRunningDust_Prepare@@YAXPAVCEntity@@@Z 
?Particles_BulletFlare@@YAXPAVCEntity@@V?$Vector@M$02@@M@Z 
?Particles_BulletMetalSpray@@YAXJV?$Vector@M$02@@0W4EffectParticlesType@@M0M@Z 
?Particles_BulletSpray@@YAXJV?$Vector@M$02@@0W4EffectParticlesType@@M0M@Z 
?Particles_BulletTrail@@YAXPAVCEntity@@M@Z 
?Particles_BulletTrail_Prepare@@YAXPAVCEntity@@@Z 
?Particles_Burning@@YAXPAVCEntity@@MM@Z 
?Particles_Burning_Comp@@YAXPAVCModelObject@@MVCPlacement3D@@@Z 
?Particles_Burning_Ska@@YAXPAVCModelInstance@@MVCPlacement3D@@@Z 
?Particles_CannonBall@@YAXPAVCEntity@@M@Z 
?Particles_CannonBall_Prepare@@YAXPAVCEntity@@@Z 
?Particles_ChimneySmoke@@YAXPAVCEntity@@JMM@Z 
?Particles_CollectEnergy@@YAXPAVCEntity@@MMH@Z 
?Particles_ColoredStarsTrail@@YAXPAVCEntity@@@Z 
?Particles_DamageSmoke@@YAXPAVCEntity@@MV?$AABBox@M$02@@M@Z 
?Particles_DancerDaggerTrail@@YAXPAVCEntity@@M@Z 
?Particles_DancerDaggerTrail_Prepare@@YAXPAVCEntity@@@Z 
?Particles_Death@@YAXPAVCEntity@@M@Z 
?Particles_DestroyingObelisk@@YAXPAVCEntity@@M@Z 
?Particles_DestroyingPylon@@YAXPAVCEntity@@V?$Vector@M$02@@M@Z 
?Particles_DisappearDust@@YAXPAVCEntity@@MM@Z 
?Particles_DustFall@@YAXPAVCEntity@@MV?$Vector@M$02@@@Z 
?Particles_ElectricitySparks@@YAXPAVCEntity@@MMMJ@Z 
?Particles_Emanate@@YAXPAVCEntity@@MMW4ParticleTexture@@JM@Z 
?Particles_EmanatePlane@@YAXPAVCEntity@@MMMMMMW4ParticleTexture@@JM@Z 
?Particles_EmptyShells@@YAXPAVCEntity@@PAUShellLaunchData@@@Z 
?Particles_ExplosionDebris1@@YAXPAVCEntity@@MV?$Vector@M$02@@K@Z 
?Particles_ExplosionDebris1New@@YAXPAVCEntity@@MV?$Vector@M$02@@MK@Z 
?Particles_ExplosionDebris2@@YAXPAVCEntity@@MV?$Vector@M$02@@K@Z 
?Particles_ExplosionDebris2New@@YAXPAVCEntity@@MV?$Vector@M$02@@JK@Z 
?Particles_ExplosionDebris3@@YAXPAVCEntity@@MV?$Vector@M$02@@K@Z 
?Particles_ExplosionDebris3New@@YAXPAVCEntity@@MV?$Vector@M$02@@MK@Z 
?Particles_ExplosionDebris4@@YAXPAVCEntity@@MV?$Vector@M$02@@K@Z 
?Particles_ExplosionSmoke@@YAXPAVCEntity@@MV?$Vector@M$02@@K@Z 
?Particles_FireBreath@@YAJPAVCEntity@@V?$Vector@M$02@@1MM@Z 
?Particles_Fireball01Trail@@YAXPAVCEntity@@@Z 
?Particles_Fireball01Trail_Prepare@@YAXPAVCEntity@@@Z 
?Particles_FirecrackerTrail_Prepare@@YAXPAVCEntity@@@Z 
?Particles_FlameThrower@@YAXABVCPlacement3D@@0V?$Vector@M$02@@1MMJH@Z 
?Particles_FlameThrowerStart@@YAXABVCPlacement3D@@MM@Z 
?Particles_FloatingScore@@YAXPAVCEntity@@MJM@Z 
?Particles_Fountain@@YAXPAVCEntity@@MMW4ParticleTexture@@J@Z 
?Particles_Ghostbuster@@YAXABV?$Vector@M$02@@0JMMM@Z 
?Particles_GrenadeTrail@@YAXPAVCEntity@@@Z 
?Particles_GrenadeTrail_Prepare@@YAXPAVCEntity@@@Z 
?Particles_Growth@@YAXPAVCEntity@@PAVCTextureData@@AAV?$AABBox@M$02@@0J@Z 
?Particles_HitGround@@YAXPAVCEntity@@MM@Z 
?Particles_HwangboFlame@@YAXABVCPlacement3D@@0MM@Z 
?Particles_LarvaEnergy@@YAXPAVCEntity@@V?$Vector@M$02@@@Z 
?Particles_LavaErupting@@YAXPAVCEntity@@MMMMMM@Z 
?Particles_LavaFlow@@YAXPAVCEntity@@MMMMMJ@Z 
?Particles_Leaves@@YAXPAVCEntity@@V?$AABBox@M$02@@V?$Vector@M$02@@MM2MMKH@Z 
?Particles_Lightning@@YAXV?$Vector@M$02@@0M@Z 
?Particles_MariaTrail@@YAXPAVCEntity@@M@Z 
?Particles_MetalParts@@YAXPAVCEntity@@MV?$AABBox@M$02@@M@Z 
?Particles_MeteorTrail@@YAXPAVCEntity@@MMV?$Vector@M$02@@@Z 
?Particles_ModelGlow2@@YAXPAVCModelObject@@VCPlacement3D@@MW4ParticleTexture@@MMMK@Z 
?Particles_ModelGlow@@YAXPAVCEntity@@MW4ParticleTexture@@MMMK@Z 
?Particles_Nitro_RocketTrail@@YAXPAVCEntity@@M@Z 
?Particles_NorudomBomb@@YAXPAVCEntity@@MMM@Z 
?Particles_NorudomBombTrail@@YAXPAVCEntity@@@Z 
?Particles_NorudomBombTrail_Prepare@@YAXPAVCEntity@@@Z 
?Particles_ObjectBurning@@YAXPAVCEntity@@MV?$Vector@M$02@@MMM@Z 
?Particles_PowerUpIndicator@@YAXPAVCEntity@@W4ParticleTexture@@MMMJJ@Z 
?Particles_Powerup@@YAXPAVCEntity@@MMK@Z 
?Particles_Rain@@YAXPAVCEntity@@MJMPAVCTextureData@@AAV?$AABBox@M$02@@@Z 
?Particles_Regeneration@@YAJPAVCEntity@@MMMH@Z 
?Particles_RenderLines@@YAXABV?$Vector@M$02@@0M@Z 
?Particles_Rising@@YAXPAVCEntity@@MMMMMMMW4ParticleTexture@@J@Z 
?Particles_RocketMotorBurning@@YAXPAVCEntity@@MV?$Vector@M$02@@MM@Z 
?Particles_RocketTrail@@YAXPAVCEntity@@M@Z 
?Particles_RocketTrailNew@@YAXPAVCEntity@@MKK@Z 
?Particles_RocketTrail_Prepare@@YAXPAVCEntity@@@Z 
?Particles_RunAfterBurner@@YAXPAVCEntity@@MMJ@Z 
?Particles_RunningDust@@YAXPAVCEntity@@@Z 
?Particles_RunningDust_Prepare@@YAXPAVCEntity@@@Z 
?Particles_SandFlow@@YAXPAVCEntity@@MMMMMJ@Z 
?Particles_Smoke@@YAXPAVCEntity@@V?$Vector@M$02@@JMMMM@Z 
?Particles_SniperResidue@@YAXPAVCEntity@@V?$Vector@M$02@@1@Z 
?Particles_Snow@@YAXPAVCEntity@@MJMPAVCTextureData@@AAV?$AABBox@M$02@@M@Z 
?Particles_Spiral@@YAXPAVCEntity@@MMW4ParticleTexture@@J@Z 
?Particles_SpiralTrail@@YAXPAVCEntity@@@Z 
?Particles_Stardust@@YAXPAVCEntity@@MMW4ParticleTexture@@JM@Z 
?Particles_SummonerExplode@@YAXPAVCEntity@@V?$Vector@M$02@@MMMM@Z 
?Particles_SummonerProjectileExplode@@YAXPAVCEntity@@MMMM@Z 
?Particles_ViewerLocal@@YAXPAVCEntity@@@Z 
?Particles_WaterFlow@@YAXPAVCEntity@@MMMMMJ@Z 
?Particles_Waterfall@@YAXPAVCEntity@@JMMMMMMM@Z 
?Particles_WaterfallFoam@@YAXPAVCEntity@@MMMMMMMJ@Z 
?Particles_WhiteLineTrail@@YAXPAVCEntity@@@Z 
?PedroFixedRocket@CProjectile@@QAEXXZ 
?PedroGrenade@CProjectile@@QAEXXZ 
?PedroGrenadeExplosion@CProjectile@@QAEXXZ 
?PedroSkinType_enum@@3VCEntityPropertyEnumType@@A 
?PedroSkinType_values@@3PAVCEntityPropertyEnumValue@@A 
?PerformAttack@CEnemyBase@@QAEHABVCEntityEvent@@@Z 
?PerformAttack@CEnemyFly@@QAEHABVCEntityEvent@@@Z 
?PiapongBladeProjectile@CProjectile@@QAEXXZ 
?PiapongBladeTrajectoryProjectile@CProjectile@@QAEXXZ 
?PiapongCannon@CProjectile@@QAEXXZ 
?PiapongCannonExplosion@CProjectile@@QAEXXZ 
?PiapongLaserBlueRay@CProjectile@@QAEXXZ 
?PiapongLaserBlueWave@CProjectile@@QAEXXZ 
?PiapongState_enum@@3VCEntityPropertyEnumType@@A 
?PiapongState_values@@3PAVCEntityPropertyEnumValue@@A 
?PigSkinType_enum@@3VCEntityPropertyEnumType@@A 
?PigSkinType_values@@3PAVCEntityPropertyEnumValue@@A 
?PigType_enum@@3VCEntityPropertyEnumType@@A 
?PigType_values@@3PAVCEntityPropertyEnumValue@@A 
?PlayDefaultAnim@CPlayerWeapons@@QAEXM@Z 
?PlayDefaultAnim@CPlayerWeapons_L@@QAEXM@Z 
?PlayLightAnim@CPlayer@@QAEXJK@Z 
?PlayLightAnim@CPlayerWeapons@@QAEXJK@Z 
?PlayLightAnim@CPlayerWeapons_L@@QAEXJK@Z 
?PlayPowerUpSound@CPlayer@@QAEXXZ 
?PlaySoundA@CPlayer@@QAEXAAVCSoundObject@@ABVCTFileName@@J@Z 
?PlaySoundA@CPlayer@@QAEXAAVCSoundObject@@JJ@Z 
?PlaySoundA@CPlayerWeapons@@QAEXAAVCSoundObject@@ABVCTFileName@@J@Z 
?PlaySoundA@CPlayerWeapons@@QAEXAAVCSoundObject@@JJ@Z 
?PlaySoundA@CPlayerWeapons_L@@QAEXAAVCSoundObject@@ABVCTFileName@@J@Z 
?PlaySoundA@CPlayerWeapons_L@@QAEXAAVCSoundObject@@JJ@Z 
?PlaySoundForGoggle@CPlayer@@QAEXXZ 
?PlayWeponChangeforUpgrade@CPlayerWeapons@@QAEXW4WeaponType@@@Z 
?PlayerAutoAction_enum@@3VCEntityPropertyEnumType@@A 
?PlayerAutoAction_values@@3PAVCEntityPropertyEnumValue@@A 
?PlayerDestinationPos@CEnemyBase@@UAE?AV?$Vector@M$02@@XZ 
?PlayerDestinationPos@CEnemyFly@@UAE?AV?$Vector@M$02@@XZ 
?PlayerFixedLaser@CProjectile@@QAEXXZ 
?PlayerFixedLaserExplosion@CProjectile@@QAEXXZ 
?PlayerFixedRocket@CProjectile@@QAEXXZ 
?PlayerFlame@CProjectile@@QAEXXZ 
?PlayerGrenade@CProjectile@@QAEXXZ 
?PlayerGrenadeExplosion@CProjectile@@QAEXXZ 
?PlayerLaserRay@CProjectile@@QAEXXZ 
?PlayerLaserWave@CProjectile@@QAEXXZ 
?PlayerNitro@CProjectile@@QAEXXZ 
?PlayerNitroExplosion@CProjectile@@QAEXXZ 
?PlayerNitroGuide@CProjectile@@QAEXXZ 
?PlayerNitroGuideExplosion@CProjectile@@QAEXXZ 
?PlayerPush@CProjectile@@QAEXXZ 
?PlayerPushExplosion@CProjectile@@QAEXXZ 
?PlayerRocket@CProjectile@@QAEXXZ 
?PlayerRocketExplosion@CProjectile@@QAEXXZ 
?PlayerState_enum@@3VCEntityPropertyEnumType@@A 
?PlayerState_values@@3PAVCEntityPropertyEnumValue@@A 
?PlayerTeleportCause_enum@@3VCEntityPropertyEnumType@@A 
?PlayerTeleportCause_values@@3PAVCEntityPropertyEnumValue@@A 
?PlayerViewType_enum@@3VCEntityPropertyEnumType@@A 
?PlayerViewType_values@@3PAVCEntityPropertyEnumValue@@A 
?PlayerWeaponType_enum@@3VCEntityPropertyEnumType@@A 
?PlayerWeaponType_values@@3PAVCEntityPropertyEnumValue@@A 
?PointsForExtraLife@CPlayer@@QAEJXZ 
?PokExplosion@CProjectile@@QAEXXZ 
?PokFlying@CProjectile@@QAEXXZ 
?PostEnemyMoving@CEnemyBase@@UAEXXZ 
?PostMoving@CEnemyDive@@UAEXXZ 
?PostMoving@CPlayer@@UAEXXZ 
?PostMoving@CPlayerView@@UAEXXZ 
?PostMoving@CProjectile@@UAEXXZ 
?PostRunAwayFromEnemy@CEnemyRunInto@@QAEHABVCEntityEvent@@@Z 
?PreMainLoop@CEnemyBase@@QAEHABVCEntityEvent@@@Z 
?PreMoving@CEnemyBase@@UAEXXZ 
?PreMoving@CPlayer@@UAEXXZ 
?PreMoving@CPlayerView@@UAEXXZ 
?PreMoving@CProjectile@@UAEXXZ 
?Precache@CEnemyBase@@UAEXXZ 
?Precache@CEnemyFly@@UAEXXZ 
?Precache@CPlayerAnimator@@UAEXXZ 
?Precache@CPlayerWeapons@@UAEXXZ 
?Precache@CPlayerWeapons_L@@UAEXXZ 
?Precache@CSkaItem@@UAEXXZ 
?PrepareBullet@CPlayerWeapons@@QAEXMMM@Z 
?PrepareBullet@CPlayerWeapons_L@@QAEXMMM@Z 
?PrepareFreeFlyingProjectile@CEnemyBase@@QAEXAAVCPlacement3D@@V?$Vector@M$02@@AAV3@2@Z 
?PreparePropelledProjectile@CBullet@@QAEXAAVCPlacement3D@@V?$Vector@M$02@@AAV3@2@Z 
?PreparePropelledProjectile@CEnemyBase@@QAEXAAVCPlacement3D@@V?$Vector@M$02@@AAV3@2@Z 
?PreparePropelledProjectile@CPlayerWeapons@@QAEXAAVCPlacement3D@@V?$Vector@M$02@@AAV3@2@Z 
?PreparePropelledProjectile@CPlayerWeapons_L@@QAEXAAVCPlacement3D@@V?$Vector@M$02@@AAV3@2@Z 
?PrepareRocket@CMaria@@QAEXAAVCPlacement3D@@V?$Vector@M$02@@AAV3@2@Z 
?PriestRocket@CProjectile@@QAEXXZ 
?PriestRocketExplosion@CProjectile@@QAEXXZ 
?PriestSpawnerType_enum@@3VCEntityPropertyEnumType@@A 
?PriestSpawnerType_values@@3PAVCEntityPropertyEnumValue@@A 
?PrintCenterMessage@@YAXPAVCEntity@@0ABVCTString@@MW4MessageSound@@@Z 
?PrintConsole@@YAPBDXZ 
?PrintStack@@YAPBDPAVCEntity@@@Z 
?Process@CComboManger@@QAEXXZ 
?ProcessAutoAim@CPlayerWeapons@@QAEHPAVCEntity@@@Z 
?ProcessAutoAim@CPlayerWeapons_L@@QAEHPAVCEntity@@@Z 
?ProjectileEnemyFlameSlide@CProjectile@@QAEHABVCEntityEvent@@@Z 
?ProjectileFly@CProjectile@@QAEHABVCEntityEvent@@@Z 
?ProjectileFlyRebounding@CProjectile@@QAEHABVCEntityEvent@@@Z 
?ProjectileGuidedFastFly@CProjectile@@QAEHABVCEntityEvent@@@Z 
?ProjectileGuidedFly@CProjectile@@QAEHABVCEntityEvent@@@Z 
?ProjectileGuidedFlyForFixedRocket@CProjectile@@QAEHABVCEntityEvent@@@Z 
?ProjectileGuidedFlyForNitro@CProjectile@@QAEHABVCEntityEvent@@@Z 
?ProjectileGuidedSlide@CProjectile@@QAEHABVCEntityEvent@@@Z 
?ProjectileHit@CProjectile@@QAEXXZ 
?ProjectileMajangRocket@CProjectile@@QAEHABVCEntityEvent@@@Z 
?ProjectileMovingType_enum@@3VCEntityPropertyEnumType@@A 
?ProjectileMovingType_values@@3PAVCEntityPropertyEnumValue@@A 
?ProjectileNorudomBombSlide@CProjectile@@QAEHABVCEntityEvent@@@Z 
?ProjectilePushGun@CProjectile@@QAEHABVCEntityEvent@@@Z 
?ProjectileSlide@CProjectile@@QAEHABVCEntityEvent@@@Z 
?ProjectileTouch@CProjectile@@QAEXVCEntityPointer@@@Z 
?ProjectileTouchPushGun@CProjectile@@QAEXVCEntityPointer@@@Z 
?ProjectileType_enum@@3VCEntityPropertyEnumType@@A 
?ProjectileType_values@@3PAVCEntityPropertyEnumValue@@A 
?ProtectorMGType_enum@@3VCEntityPropertyEnumType@@A 
?ProtectorMGType_values@@3PAVCEntityPropertyEnumValue@@A 
?ProtectorRocket@CProjectile@@QAEXXZ 
?ProtectorRocketExplosion@CProjectile@@QAEXXZ 
?ProtectorSGType_enum@@3VCEntityPropertyEnumType@@A 
?ProtectorSGType_values@@3PAVCEntityPropertyEnumValue@@A 
?ProtectorType_enum@@3VCEntityPropertyEnumType@@A 
?ProtectorType_values@@3PAVCEntityPropertyEnumValue@@A 
?PullEntity@@YAXPAVCEntity@@V?$Vector@M$02@@@Z 
?PushGunFXBegin@CPlayer@@QAEXPAVCDrawPort@@@Z 
?PushGunFXEnd@CPlayer@@QAEXPAVCDrawPort@@@Z 
?Read_net@CPlayer@@UAEXPAVCNetworkMessage@@M@Z 
?Read_net_brief@CPlayer@@UAEXPAVCNetworkMessage@@M@Z 
?Read_t@CCompMessageID@@QAEXAAVCTStream@@@Z 
?Read_t@CEmiter@@QAEXAAVCTStream@@H@Z 
?Read_t@CEmittedParticle@@QAEXAAVCTStream@@H@Z 
?Read_t@CEnemyBase@@UAEXPAVCTStream@@H@Z 
?Read_t@CNavigationMarker@@UAEXPAVCTStream@@H@Z 
?Read_t@CPlayer@@UAEXPAVCTStream@@H@Z 
?Read_t@CPlayerAnimator@@UAEXPAVCTStream@@H@Z 
?Read_t@CPlayerWeapons@@UAEXPAVCTStream@@H@Z 
?Read_t@CPlayerWeapons_L@@UAEXPAVCTStream@@H@Z 
?Read_t@CProjectile@@UAEXPAVCTStream@@H@Z 
?Read_t@CSkaItem@@UAEXPAVCTStream@@H@Z 
?Rebirth@CPlayer@@QAEHABVCEntityEvent@@@Z 
?ReceiveAmmo@CPlayerWeapons@@QAEJABVCEntityEvent@@@Z 
?ReceiveComputerMessage@CPlayer@@QAEXABVCTFileName@@K@Z 
?ReceiveDamage@CEnemyBase@@UAEXPAVCEntity@@W4DamageType@@MABV?$Vector@M$02@@2@Z 
?ReceiveDamage@CEnemyFly@@UAEXPAVCEntity@@W4DamageType@@MABV?$Vector@M$02@@2@Z 
?ReceiveDamage@CPlayer@@UAEXPAVCEntity@@W4DamageType@@MABV?$Vector@M$02@@2@Z 
?ReceiveDamage@CProjectile@@UAEXPAVCEntity@@W4DamageType@@MABV?$Vector@M$02@@2@Z 
?ReceiveItem@CPlayer@@UAEHABVCEntityEvent@@@Z 
?RecordEndOfLevelData@CPlayer@@QAEXXZ 
?Reload@CPlayerWeapons@@QAEHABVCEntityEvent@@@Z 
?Reload@CPlayerWeapons_L@@QAEHABVCEntityEvent@@@Z 
?ReloadGetAmmo@CPlayerWeapons@@QAEHABVCEntityEvent@@@Z 
?ReloadGetAmmo@CPlayerWeapons_L@@QAEHABVCEntityEvent@@@Z 
?ReloadMachinegun@CPlayerWeapons@@QAEHABVCEntityEvent@@@Z 
?ReloadMachinegun@CPlayerWeapons_L@@QAEHABVCEntityEvent@@@Z 
?ReloadNitro@CPlayerWeapons@@QAEHABVCEntityEvent@@@Z 
?ReloadRocket@CPlayerWeapons@@QAEHABVCEntityEvent@@@Z 
?ReloadRocket@CPlayerWeapons_L@@QAEHABVCEntityEvent@@@Z 
?ReloadShotgun@CPlayerWeapons@@QAEHABVCEntityEvent@@@Z 
?ReloadShotgun@CPlayerWeapons_L@@QAEHABVCEntityEvent@@@Z 
?RemapLevelNames@CPlayer@@QAEXAAJ@Z 
?ReminderAction@CPlayerAnimator@@QAEHABVCEntityEvent@@@Z 
?RemoveAttachmentFromModel@@YAXAAVCModelObject@@J@Z 
?RemoveComputerMessages@CPlayer@@QAEXXZ 
?RemoveFromFuss@CEnemyBase@@QAEXXZ 
?RemoveWeapon@CPlayerAnimator@@QAEXXZ 
?RenderCameraView@CPlayer@@QAEXPAVCDrawPort@@HHH@Z 
?RenderCameraViewForFadeOut@CPlayer@@QAEXPAVCDrawPort@@HHH@Z 
?RenderChainsawParticles@CPlayer@@QAEXH@Z 
?RenderCredits@CPlayer@@QAEXPAVCDrawPort@@@Z 
?RenderCrosshair@CPlayerWeapons@@QAEXAAVCProjection3D@@PAVCDrawPort@@AAVCPlacement3D@@@Z 
?RenderCrosshair@CPlayerWeapons_L@@QAEXAAVCProjection3D@@PAVCDrawPort@@AAVCPlacement3D@@@Z 
?RenderDummyView@CPlayer@@QAEXPAVCDrawPort@@@Z 
?RenderEntityVoiceText@CPlayer@@QAEXPAVCDrawPort@@@Z 
?RenderGameView@CPlayer@@UAEXPAVCDrawPort@@PAXH@Z 
?RenderHUD@CPlayer@@QAEXAAVCPerspectiveProjection3D@@PAVCDrawPort@@V?$Vector@M$02@@KKHJ@Z 
?RenderHUDForEnding@CPlayer@@QAEXAAVCPerspectiveProjection3D@@PAVCDrawPort@@V?$Vector@M$02@@KKHJ@Z 
?RenderHudPicFX@CPlayer@@QAEXPAVCDrawPort@@@Z 
?RenderParticles@CEmiter@@QAEXXZ 
?RenderParticles@CEnemyBase@@UAEXXZ 
?RenderParticles@CPlayer@@UAEXXZ 
?RenderParticles@CPlayerView@@UAEXXZ 
?RenderParticles@CProjectile@@UAEXXZ 
?RenderPlayerView@CPlayer@@QAEXPAVCDrawPort@@H@Z 
?RenderScroll@CPlayer@@QAEXPAVCDrawPort@@@Z 
?RenderTextFX@CPlayer@@QAEXPAVCDrawPort@@@Z 
?RenderViewForFadeOut@CPlayer@@QAEXPAVCDrawPort@@H@Z 
?RenderWeaponModel@CPlayerWeapons@@QAEXAAVCPerspectiveProjection3D@@PAVCDrawPort@@V?$Vector@M$02@@KKHHM@Z 
?RenderWeaponModel@CPlayerWeapons_L@@QAEXAAVCPerspectiveProjection3D@@PAVCDrawPort@@V?$Vector@M$02@@KKHHM@Z 
?RenderWhip@CPlayer@@QAEXVCPlacement3D@@AAVCPerspectiveProjection3D@@PAVCDrawPort@@@Z 
?ResetWeaponMovingOffset@CPlayerWeapons@@QAEXXZ 
?Respawn@CPlayer@@QAEXXZ 
?RestingAnim@CEnemyBase@@UAEXXZ 
?ReturnToStartPosition@CEnemyBase@@QAEHABVCEntityEvent@@@Z 
?ReturnToStartPosition@CEnemyFly@@QAEHABVCEntityEvent@@@Z 
?RiderType_enum@@3VCEntityPropertyEnumType@@A 
?RiderType_values@@3PAVCEntityPropertyEnumValue@@A 
?Rise@CPlayerAnimator@@QAEXXZ 
?RobertType_enum@@3VCEntityPropertyEnumType@@A 
?RobertType_values@@3PAVCEntityPropertyEnumValue@@A 
?RobertVomitExplosion@CProjectile@@QAEXXZ 
?RobertVomitFire@CProjectile@@QAEXXZ 
?RotateToEnemy@CEnemyRunInto@@QAEHABVCEntityEvent@@@Z 
?RotatingAnim@CEnemyBase@@UAEXXZ 
?RoundViewAngle@CPlayer@@QAEXAAMM@Z 
?RunAwayFromEnemy@CEnemyRunInto@@QAEHABVCEntityEvent@@@Z 
?RunIntoEnemy@CEnemyRunInto@@QAEHABVCEntityEvent@@@Z 
?RunningAnim@CEnemyBase@@UAEXXZ 
?SayVoiceMessage@CPlayer@@QAEXABVCTFileName@@@Z 
?SeeEntity@CEnemyBase@@QAEHPAVCEntity@@M@Z 
?SeeEntityInPlane@CEnemyBase@@QAEHPAVCEntity@@M@Z 
?SeeNotify@CEnemyBase@@QAEXXZ 
?Select@CPlayerWeapons@@QAEHABVCEntityEvent@@@Z 
?Select@CPlayerWeapons_L@@QAEHABVCEntityEvent@@@Z 
?SelectWeaponChange@CPlayerWeapons@@QAEXJ@Z 
?SelectWeaponChange@CPlayerWeapons_L@@QAEXJ@Z 
?SendComboEvent@CEnemyBase@@QAEXPAVCEntity@@@Z 
?SendInRange@@YAXPAVCEntity@@W4EventEType@@ABV?$AABBox@M$02@@@Z 
?SendToTarget@@YAXPAVCEntity@@W4EventEType@@0@Z 
?SendWatchEvent@CWatcher@@QAEXPAVCEntity@@@Z 
?SetActionApplied@CPlayer@@UAEXXZ 
?SetBodyAnimation@CPlayerAnimator@@QAEXJKMM@Z 
?SetBoolFromBoolEType@@YAXAAHW4BoolEType@@@Z 
?SetCameraPosition@CPlayerView@@QAEXXZ 
?SetComboCount@CComboManger@@QAEXI@Z 
?SetComponents@@YAXPAVCEntity@@AAVCModelObject@@KKKKK@Z 
?SetConnected@CPlayer@@QAEXXZ 
?SetCrazyModeOff@CPlayer@@QAEXXZ 
?SetCrazyModeOn@CPlayer@@QAEXXZ 
?SetCurrentWeaponModel@CPlayerWeapons@@QAEXXZ 
?SetCurrentWeaponModel@CPlayerWeapons_L@@QAEXXZ 
?SetDamage@CBullet@@QAEXM@Z 
?SetDefaultMouthPitch@CPlayer@@QAEXXZ 
?SetDefaultProperties@CAnimationChanger@@UAEXXZ 
?SetDefaultProperties@CAnimationHub@@UAEXXZ 
?SetDefaultProperties@CAreaMarker@@UAEXXZ 
?SetDefaultProperties@CAutoMobile@@UAEXXZ 
?SetDefaultProperties@CAutoQuickSaveHolder@@UAEXXZ 
?SetDefaultProperties@CBackgroundViewer@@UAEXXZ 
?SetDefaultProperties@CBasicEffect@@UAEXXZ 
?SetDefaultProperties@CBasketBoard@@UAEXXZ 
?SetDefaultProperties@CBigBall@@UAEXXZ 
?SetDefaultProperties@CBigBallMarker@@UAEXXZ 
?SetDefaultProperties@CBike@@UAEXXZ 
?SetDefaultProperties@CBikini2@@UAEXXZ 
?SetDefaultProperties@CBikini3@@UAEXXZ 
?SetDefaultProperties@CBikini@@UAEXXZ 
?SetDefaultProperties@CBlendController@@UAEXXZ 
?SetDefaultProperties@CBloodSpray@@UAEXXZ 
?SetDefaultProperties@CBossCore@@UAEXXZ 
?SetDefaultProperties@CBossCoreLight@@UAEXXZ 
?SetDefaultProperties@CBossFlame@@UAEXXZ 
?SetDefaultProperties@CBossGravity@@UAEXXZ 
?SetDefaultProperties@CBossGrind@@UAEXXZ 
?SetDefaultProperties@CBossHeli@@UAEXXZ 
?SetDefaultProperties@CBossProjectionTV@@UAEXXZ 
?SetDefaultProperties@CBouncer@@UAEXXZ 
?SetDefaultProperties@CBruce@@UAEXXZ 
?SetDefaultProperties@CBuffalo@@UAEXXZ 
?SetDefaultProperties@CBullet@@UAEXXZ 
?SetDefaultProperties@CCamera@@UAEXXZ 
?SetDefaultProperties@CCameraMarker@@UAEXXZ 
?SetDefaultProperties@CChiangExtra@@UAEXXZ 
?SetDefaultProperties@CChiangField@@UAEXXZ 
?SetDefaultProperties@CChiangWater@@UAEXXZ 
?SetDefaultProperties@CChicken@@UAEXXZ 
?SetDefaultProperties@CChickenSticky@@UAEXXZ 
?SetDefaultProperties@CChopskiActor@@UAEXXZ 
?SetDefaultProperties@CConanMechanic@@UAEXXZ 
?SetDefaultProperties@CCopier@@UAEXXZ 
?SetDefaultProperties@CCounter@@UAEXXZ 
?SetDefaultProperties@CCreditsHolder@@UAEXXZ 
?SetDefaultProperties@CDamager@@UAEXXZ 
?SetDefaultProperties@CDancerCanCan@@UAEXXZ 
?SetDefaultProperties@CDancerManager@@UAEXXZ 
?SetDefaultProperties@CDancerNormal@@UAEXXZ 
?SetDefaultProperties@CDancerTrapeze@@UAEXXZ 
?SetDefaultProperties@CDebris@@UAEXXZ 
?SetDefaultProperties@CDebrisSka@@UAEXXZ 
?SetDefaultProperties@CDestroyableArchitecture@@UAEXXZ 
?SetDefaultProperties@CDevilBigBall@@UAEXXZ 
?SetDefaultProperties@CDoorController@@UAEXXZ 
?SetDefaultProperties@CEffectMarker@@UAEXXZ 
?SetDefaultProperties@CEffector@@UAEXXZ 
?SetDefaultProperties@CEndingMaria@@UAEXXZ 
?SetDefaultProperties@CEnemyActionMarker@@UAEXXZ 
?SetDefaultProperties@CEnemyBase@@UAEXXZ 
?SetDefaultProperties@CEnemyCounter@@UAEXXZ 
?SetDefaultProperties@CEnemyDive@@UAEXXZ 
?SetDefaultProperties@CEnemyFly@@UAEXXZ 
?SetDefaultProperties@CEnemyHorse@@UAEXXZ 
?SetDefaultProperties@CEnemyMarker@@UAEXXZ 
?SetDefaultProperties@CEnemyRunInto@@UAEXXZ 
?SetDefaultProperties@CEnemySpawner@@UAEXXZ 
?SetDefaultProperties@CEntityStateDisplay@@UAEXXZ 
?SetDefaultProperties@CEntityVoiceHolder@@UAEXXZ 
?SetDefaultProperties@CEnvironmentBase@@UAEXXZ 
?SetDefaultProperties@CEnvironmentMarker@@UAEXXZ 
?SetDefaultProperties@CEnvironmentParticlesHolder@@UAEXXZ 
?SetDefaultProperties@CEruptor@@UAEXXZ 
?SetDefaultProperties@CFXEmiter@@UAEXXZ 
?SetDefaultProperties@CFernandes@@UAEXXZ 
?SetDefaultProperties@CFernandesScythe@@UAEXXZ 
?SetDefaultProperties@CFireworks@@UAEXXZ 
?SetDefaultProperties@CFlame@@UAEXXZ 
?SetDefaultProperties@CFlyingMechanic@@UAEXXZ 
?SetDefaultProperties@CFogMarker@@UAEXXZ 
?SetDefaultProperties@CGlobal@@UAEXXZ 
?SetDefaultProperties@CGracia@@UAEXXZ 
?SetDefaultProperties@CGraciaAxe2@@UAEXXZ 
?SetDefaultProperties@CGraciaAxe@@UAEXXZ 
?SetDefaultProperties@CGraciaFixed@@UAEXXZ 
?SetDefaultProperties@CGraciaLaser2@@UAEXXZ 
?SetDefaultProperties@CGraciaLaser3@@UAEXXZ 
?SetDefaultProperties@CGradientMarker@@UAEXXZ 
?SetDefaultProperties@CGravityMarker@@UAEXXZ 
?SetDefaultProperties@CGravityRouter@@UAEXXZ 
?SetDefaultProperties@CHawk@@UAEXXZ 
?SetDefaultProperties@CHazeMarker@@UAEXXZ 
?SetDefaultProperties@CHorseHwangbo@@UAEXXZ 
?SetDefaultProperties@CHorseMajang@@UAEXXZ 
?SetDefaultProperties@CHorseMaok@@UAEXXZ 
?SetDefaultProperties@CHudPicHolder@@UAEXXZ 
?SetDefaultProperties@CHwangboCity@@UAEXXZ 
?SetDefaultProperties@CHwangboCityRifle@@UAEXXZ 
?SetDefaultProperties@CHwangboFlame@@UAEXXZ 
?SetDefaultProperties@CHwangboRifle@@UAEXXZ 
?SetDefaultProperties@CJava@@UAEXXZ 
?SetDefaultProperties@CJavaPot@@UAEXXZ 
?SetDefaultProperties@CLamon2@@UAEXXZ 
?SetDefaultProperties@CLamon@@UAEXXZ 
?SetDefaultProperties@CLamonBike@@UAEXXZ 
?SetDefaultProperties@CLight@@UAEXXZ 
?SetDefaultProperties@CLightControl@@UAEXXZ 
?SetDefaultProperties@CLisa@@UAEXXZ 
?SetDefaultProperties@CLouisBodyGuard@@UAEXXZ 
?SetDefaultProperties@CLouisDevil@@UAEXXZ 
?SetDefaultProperties@CLouisNormal1@@UAEXXZ 
?SetDefaultProperties@CLouisNormal2@@UAEXXZ 
?SetDefaultProperties@CMajang@@UAEXXZ 
?SetDefaultProperties@CMaok@@UAEXXZ 
?SetDefaultProperties@CMaokCity@@UAEXXZ 
?SetDefaultProperties@CMaria@@UAEXXZ 
?SetDefaultProperties@CMariaActor@@UAEXXZ 
?SetDefaultProperties@CMariaEventTimer@@UAEXXZ 
?SetDefaultProperties@CMariaNPC@@UAEXXZ 
?SetDefaultProperties@CMarker@@UAEXXZ 
?SetDefaultProperties@CMaxim@@UAEXXZ 
?SetDefaultProperties@CMessageHolder@@UAEXXZ 
?SetDefaultProperties@CMirrorMarker@@UAEXXZ 
?SetDefaultProperties@CModelDestruction@@UAEXXZ 
?SetDefaultProperties@CModelHolder2@@UAEXXZ 
?SetDefaultProperties@CModelHolder3@@UAEXXZ 
?SetDefaultProperties@CModelHolder@@UAEXXZ 
?SetDefaultProperties@CMovingBrush@@UAEXXZ 
?SetDefaultProperties@CMovingBrushMarker@@UAEXXZ 
?SetDefaultProperties@CMusicChanger@@UAEXXZ 
?SetDefaultProperties@CMusicHolder@@UAEXXZ 
?SetDefaultProperties@CNavigationMarker@@UAEXXZ 
?SetDefaultProperties@CNof@@UAEXXZ 
?SetDefaultProperties@CNorudom@@UAEXXZ 
?SetDefaultProperties@CObjectiveCompletedHolder@@UAEXXZ 
?SetDefaultProperties@COlga@@UAEXXZ 
?SetDefaultProperties@CParticleCloudsHolder@@UAEXXZ 
?SetDefaultProperties@CParticleCloudsMarker@@UAEXXZ 
?SetDefaultProperties@CParticlesHolder@@UAEXXZ 
?SetDefaultProperties@CPedro@@UAEXXZ 
?SetDefaultProperties@CPiapongBlade@@UAEXXZ 
?SetDefaultProperties@CPiapongCannon@@UAEXXZ 
?SetDefaultProperties@CPiapongExtra@@UAEXXZ 
?SetDefaultProperties@CPiapongFixed@@UAEXXZ 
?SetDefaultProperties@CPiapongLaser@@UAEXXZ 
?SetDefaultProperties@CPig@@UAEXXZ 
?SetDefaultProperties@CPlayer@@UAEXXZ 
?SetDefaultProperties@CPlayerActionMarker@@UAEXXZ 
?SetDefaultProperties@CPlayerAnimator@@UAEXXZ 
?SetDefaultProperties@CPlayerMarker@@UAEXXZ 
?SetDefaultProperties@CPlayerView@@UAEXXZ 
?SetDefaultProperties@CPlayerWeapons@@UAEXXZ 
?SetDefaultProperties@CPlayerWeaponsEffects@@UAEXXZ 
?SetDefaultProperties@CPlayerWeapons_L@@UAEXXZ 
?SetDefaultProperties@CPok@@UAEXXZ 
?SetDefaultProperties@CPriest@@UAEXXZ 
?SetDefaultProperties@CPriestSpawner@@UAEXXZ 
?SetDefaultProperties@CProjectile@@UAEXXZ 
?SetDefaultProperties@CProtector@@UAEXXZ 
?SetDefaultProperties@CProtectorMG@@UAEXXZ 
?SetDefaultProperties@CProtectorSG@@UAEXXZ 
?SetDefaultProperties@CReminder@@UAEXXZ 
?SetDefaultProperties@CRobert@@UAEXXZ 
?SetDefaultProperties@CRollingStone@@UAEXXZ 
?SetDefaultProperties@CRosemari@@UAEXXZ 
?SetDefaultProperties@CRosemariTights@@UAEXXZ 
?SetDefaultProperties@CScrollHolder@@UAEXXZ 
?SetDefaultProperties@CSkaAmmoItem@@UAEXXZ 
?SetDefaultProperties@CSkaAmmoItemAlone@@UAEXXZ 
?SetDefaultProperties@CSkaArmorItem@@UAEXXZ 
?SetDefaultProperties@CSkaArmorItemAlone@@UAEXXZ 
?SetDefaultProperties@CSkaHealthItem@@UAEXXZ 
?SetDefaultProperties@CSkaHealthItemAlone@@UAEXXZ 
?SetDefaultProperties@CSkaItem@@UAEXXZ 
?SetDefaultProperties@CSkaMovingModelHolder@@UAEXXZ 
?SetDefaultProperties@CSkaSpecialItem@@UAEXXZ 
?SetDefaultProperties@CSkaSpecialItemAlone@@UAEXXZ 
?SetDefaultProperties@CSkiEngineer@@UAEXXZ 
?SetDefaultProperties@CSkiSeaman@@UAEXXZ 
?SetDefaultProperties@CSnake@@UAEXXZ 
?SetDefaultProperties@CSolidBox@@UAEXXZ 
?SetDefaultProperties@CSolidProne@@UAEXXZ 
?SetDefaultProperties@CSoundHolder@@UAEXXZ 
?SetDefaultProperties@CSpawnerProjectile@@UAEXXZ 
?SetDefaultProperties@CStationaryWeapon@@UAEXXZ 
?SetDefaultProperties@CSwitch@@UAEXXZ 
?SetDefaultProperties@CTacticsChanger@@UAEXXZ 
?SetDefaultProperties@CTacticsHolder@@UAEXXZ 
?SetDefaultProperties@CTao@@UAEXXZ 
?SetDefaultProperties@CTeleport@@UAEXXZ 
?SetDefaultProperties@CTerrainEntity@@UAEXXZ 
?SetDefaultProperties@CTextFXHolder@@UAEXXZ 
?SetDefaultProperties@CTimeController@@UAEXXZ 
?SetDefaultProperties@CToaster@@UAEXXZ 
?SetDefaultProperties@CTorpedo@@UAEXXZ 
?SetDefaultProperties@CTouchField@@UAEXXZ 
?SetDefaultProperties@CTrigger@@UAEXXZ 
?SetDefaultProperties@CTriggerActionMarker@@UAEXXZ 
?SetDefaultProperties@CTruck@@UAEXXZ 
?SetDefaultProperties@CTurret@@UAEXXZ 
?SetDefaultProperties@CVehicle@@UAEXXZ 
?SetDefaultProperties@CVideoHolder@@UAEXXZ 
?SetDefaultProperties@CVoiceHolder@@UAEXXZ 
?SetDefaultProperties@CWatchPlayers@@UAEXXZ 
?SetDefaultProperties@CWatcher@@UAEXXZ 
?SetDefaultProperties@CWindmill@@UAEXXZ 
?SetDefaultProperties@CWonHawk@@UAEXXZ 
?SetDefaultProperties@CWonSniper@@UAEXXZ 
?SetDefaultProperties@CWorldBase@@UAEXXZ 
?SetDefaultProperties@CWorldLink@@UAEXXZ 
?SetDefaultProperties@CWorldSettingsController@@UAEXXZ 
?SetDesiredMovement@CEnemyBase@@UAEKXZ 
?SetDesiredMovement@CEnemyDive@@UAEKXZ 
?SetDesiredMovement@CEnemyFly@@UAEKXZ 
?SetDestinationType@CEnemyBase@@QAEXW4DestinationType@@@Z 
?SetEntityPosition@CEnemyDive@@QAEXXZ 
?SetEntityPosition@CEnemyFly@@UAEXXZ 
?SetFlare@CPlayerWeapons@@QAEXJ@Z 
?SetFlare@CPlayerWeapons_L@@QAEXJ@Z 
?SetGameEnd@CPlayer@@QAEXXZ 
?SetItemType@CSkaItem@@UAEXJ@Z 
?SetLisaPlayerWeapon@CPlayer@@QAEXJJJJ@Z 
?SetOriginNameForBikini@CEnemyBase@@QAEXAAVCTString@@@Z 
?SetPlayerAppearance@@YAHPAVCModelInstance@@PAVCPlayerCharacter@@AAVCTString@@H@Z 
?SetPlayerSelectWeaponType@CPlayer@@QAEXJ@Z 
?SetPlayerWeapon@CPlayer@@UAEXXZ 
?SetPredictionPair@CPlayerAnimator@@UAEXPAVCEntity@@@Z 
?SetPredictionPair@CPlayerView@@UAEXPAVCEntity@@@Z 
?SetPredictionPair@CProjectile@@UAEXPAVCEntity@@@Z 
?SetPredictionPair@CWatcher@@UAEXPAVCEntity@@@Z 
?SetRandomMouthPitch@CPlayer@@QAEXMM@Z 
?SetReapplyingActions@CPlayer@@UAEXXZ 
?SetRotation@CPlayer@@QAEXAAJM@Z 
?SetSpeakMouthPitch@CPlayer@@QAEXXZ 
?SetSpeedsToDesiredPosition@CEnemyBase@@UAEXABV?$Vector@M$02@@MH@Z 
?SetTargetHard@CEnemyBase@@QAEHPAVCEntity@@@Z 
?SetTargetHardForce@CEnemyBase@@QAEHPAVCEntity@@@Z 
?SetTargetNone@CEnemyBase@@QAEXXZ 
?SetTargetSoft@CEnemyBase@@QAEHPAVCEntity@@@Z 
?SetUnconnected@CPlayer@@QAEXXZ 
?SetWatchDelays@CWatcher@@QAEXXZ 
?SetWeapon@CPlayerAnimator@@QAEXXZ 
?SetWeaponAmmo@CPlayerWeapons@@QAEXG@Z 
?SetWeaponAmmo@CPlayerWeapons_L@@QAEXG@Z 
?SetWeaponAndAnimator@CPlayer@@UAEXXZ 
?SetWeaponLeft@CPlayerAnimator@@QAEXJ@Z 
?SetWholeAnimation@CPlayerAnimator@@QAEXJKMM@Z 
?Setup3DSoundParameters@CPlayerWeapons@@QAEXXZ 
?Setup3DSoundParameters@CPlayerWeapons_L@@QAEXXZ 
?SetupLightSource@CPlayer@@QAEXXZ 
?SetupLightSource@CProjectile@@QAEXH@Z 
?SetupView@CPlayer@@QAEXPAVCDrawPort@@AAVCAnyProjection3D@@AAPAVCEntity@@AAVCPlacement3D@@AAKH@Z 
?SetupViewForFadeOut@CPlayer@@QAEXPAVCDrawPort@@AAVCAnyProjection3D@@AAPAVCEntity@@AAVCPlacement3D@@AAKH@Z 
?ShadowType_enum@@3VCEntityPropertyEnumType@@A 
?ShadowType_values@@3PAVCEntityPropertyEnumValue@@A 
?ShootPredictedProjectile@CEnemyBase@@QAEXW4ProjectileType@@V?$Vector@M$02@@AAV3@2@Z 
?ShootProjectile@CEnemyBase@@QAEXW4ProjectileType@@AAV?$Vector@M$02@@1@Z 
?ShootProjectileAt@CEnemyBase@@QAEXV?$Vector@M$02@@W4ProjectileType@@AAV2@2@Z 
?ShootProjectileExtended@CEnemyBase@@QAEXW4ProjectileType@@AAV?$Vector@M$02@@1MM@Z 
?ShootProjectileExtendedAt@CEnemyBase@@QAEXV?$Vector@M$02@@W4ProjectileType@@AAV2@2MM@Z 
?ShootProjectileExtendedWantedStretch@CEnemyBase@@QAEXW4ProjectileType@@AAV?$Vector@M$02@@1MMM@Z 
?ShootProjectileExtendedWantedStretchAt@CEnemyBase@@QAEXV?$Vector@M$02@@W4ProjectileType@@AAV2@2MMM@Z 
?ShootRocketAt@CMaria@@QAEPAVCEntity@@V?$Vector@M$02@@W4ProjectileType@@AAV3@2@Z 
?ShouldBlowUp@CEnemyBase@@UAEHXZ 
?ShouldBlowUp@CPlayer@@QAEHXZ 
?ShouldCeaseAttack@CEnemyBase@@QAEHXZ 
?ShowFlare@CPlayerAnimator@@QAEXH@Z 
?ShowFlare@CPlayerWeapons@@QAEXAAVCModelInstance@@M@Z 
?ShowFlare@CPlayerWeapons_L@@QAEXAAVCModelInstance@@M@Z 
?ShowItemParticles@CSkaItem@@QAEHXZ 
?Show_ShockHole@CProjectile@@QAEXM@Z 
?SightSound@CEnemyBase@@UAEXXZ 
?SizeModel@CEnemyBase@@UAEXXZ 
?SkaAmmoItemType_enum@@3VCEntityPropertyEnumType@@A 
?SkaAmmoItemType_values@@3PAVCEntityPropertyEnumValue@@A 
?SkaArmorItemType_enum@@3VCEntityPropertyEnumType@@A 
?SkaArmorItemType_values@@3PAVCEntityPropertyEnumValue@@A 
?SkaComponentIDFromWeaponName@CPlayerAnimator@@QAEJABVCTString@@@Z 
?SkaHealthItemType_enum@@3VCEntityPropertyEnumType@@A 
?SkaHealthItemType_values@@3PAVCEntityPropertyEnumValue@@A 
?SkaSpecialItemType_enum@@3VCEntityPropertyEnumType@@A 
?SkaSpecialItemType_values@@3PAVCEntityPropertyEnumValue@@A 
?SkiGuidedSpanner@CProjectile@@QAEXXZ 
?SnakeSkinType_enum@@3VCEntityPropertyEnumType@@A 
?SnakeSkinType_values@@3PAVCEntityPropertyEnumValue@@A 
?SndType_enum@@3VCEntityPropertyEnumType@@A 
?SndType_values@@3PAVCEntityPropertyEnumValue@@A 
?SoundType_enum@@3VCEntityPropertyEnumType@@A 
?SoundType_values@@3PAVCEntityPropertyEnumValue@@A 
?SpawnBlood_client@CEnemyBase@@QAEXVEEnemyBaseDamage@@@Z 
?SpawnBubbles@CPlayer@@QAEXJ@Z 
?SpawnEffect@CProjectile@@QAEXABVCPlacement3D@@ABVESpawnEffect@@@Z 
?SpawnEffectForShockHole@CProjectile@@QAEXABVCPlacement3D@@ABVESpawnEffect@@@Z 
?SpawnExplosion@CProjectile@@QAEXXZ 
?SpawnFixedMachineRail@CBullet@@QAEXXZ 
?SpawnFlame@@YA?AVCEntityPointer@@PAVCEntity@@0ABV?$Vector@M$02@@@Z 
?SpawnRangeSound@@YAXPAVCEntity@@0W4SoundType@@M@Z 
?SpawnRangeSound@CPlayerWeapons@@QAEXM@Z 
?SpawnRangeSound@CPlayerWeapons_L@@QAEXM@Z 
?SpawnReminder@@YA?AVCEntityPointer@@PAVCEntity@@MJ@Z 
?SpawnSniperRail@CBullet@@QAEXXZ 
?SpawnTeleport@CPlayer@@QAEXXZ 
?SpawnTrail@CBullet@@QAEXXZ 
?SpawnWaterJet@CProjectile@@QAEXXZ 
?SpawnWaves@CProjectile@@QAEXXZ 
?SprayParticlesType_enum@@3VCEntityPropertyEnumType@@A 
?SprayParticlesType_values@@3PAVCEntityPropertyEnumValue@@A 
?Stand@CPlayerAnimator@@QAEXXZ 
?StandardBehavior@CEnemyBase@@QAEHABVCEntityEvent@@@Z 
?StandingAnim@CEnemyBase@@UAEXXZ 
?StandingAnimFight@CEnemyBase@@UAEXXZ 
?StartBomb@CMaria@@QAEXXZ 
?StartDebugTrigger@@YAXPAVCEntity@@@Z 
?StartPathFinding@CEnemyBase@@UAEXXZ 
?StartPathFinding@CEnemyDive@@UAEXXZ 
?StartPathFinding@CEnemyFly@@UAEXXZ 
?StartSkaAnim@@YAXPAVCEntity@@JKJM@Z 
?StartSkaAnimStr@@YAXPAVCModelInstance@@VCTString@@KJM@Z 
?StartTacticsNow@CEnemyBase@@QAEXXZ 
?StationaryLaser@CProjectile@@QAEXXZ 
?StationaryLaserWave@CProjectile@@QAEXXZ 
?StationaryRocket@CProjectile@@QAEXXZ 
?StationaryRocketExplosion@CProjectile@@QAEXXZ 
?StationaryWeaponType_enum@@3VCEntityPropertyEnumType@@A 
?StationaryWeaponType_values@@3PAVCEntityPropertyEnumValue@@A 
?StepBack@CPlayer@@QAEHABVCEntityEvent@@@Z 
?StopAttack@CEnemyBase@@QAEHABVCEntityEvent@@@Z 
?StopMachineGun@CPlayerWeapons@@QAEHABVCEntityEvent@@@Z 
?StopMachineGun@CPlayerWeapons_L@@QAEHABVCEntityEvent@@@Z 
?StopMoving@CEnemyBase@@QAEXXZ 
?StopRotating@CEnemyBase@@QAEXXZ 
?StopShotgun@CPlayerWeapons@@QAEHABVCEntityEvent@@@Z 
?StopShotgun@CPlayerWeapons_L@@QAEHABVCEntityEvent@@@Z 
?StopSniperGun@CPlayerWeapons@@QAEHABVCEntityEvent@@@Z 
?StopTranslating@CEnemyBase@@QAEXXZ 
?Stopped@CPlayerWeapons@@QAEHABVCEntityEvent@@@Z 
?Stopped@CPlayerWeapons_L@@QAEHABVCEntityEvent@@@Z 
?StoreLast@CPlayerAnimator@@QAEXXZ 
?StreaksBlendType_enum@@3VCEntityPropertyEnumType@@A 
?StreaksBlendType_values@@3PAVCEntityPropertyEnumValue@@A 
?StretchChildren@CSkaItem@@QAEXV?$Vector@M$02@@@Z 
?StretchModel@CEnemyBase@@QAEXV?$Vector@M$02@@@Z 
?StretchSingleModel@CEnemyBase@@QAEXV?$Vector@M$02@@@Z 
?SubComboCount@CComboManger@@QAEXKH@Z 
?SubComboCountAll@CComboManger@@QAEXK@Z 
?Swim@CPlayerAnimator@@QAEXXZ 
?SwitchType_enum@@3VCEntityPropertyEnumType@@A 
?SwitchType_values@@3PAVCEntityPropertyEnumValue@@A 
?SyncMaria@CPlayerAnimator@@QAEXXZ 
?SyncWeapon@CPlayerAnimator@@QAEXXZ 
?TacticType_enum@@3VCEntityPropertyEnumType@@A 
?TacticType_values@@3PAVCEntityPropertyEnumValue@@A 
?TaoSkinType_enum@@3VCEntityPropertyEnumType@@A 
?TaoSkinType_values@@3PAVCEntityPropertyEnumValue@@A 
?Target@CNavigationMarker@@QAEAAV1@J@Z 
?TargetPointer@CNavigationMarker@@QAEAAVCEntityPointer@@J@Z 
?TargetType_enum@@3VCEntityPropertyEnumType@@A 
?TargetType_values@@3PAVCEntityPropertyEnumValue@@A 
?TeleportPlayer@CPlayer@@QAEXW4WorldLinkType@@W4PlayerTeleportCause@@@Z 
?TeleportToAutoMarker@CEnemyBase@@QAEXPAVCEnemyActionMarker@@@Z 
?TeleportToAutoMarker@CPlayer@@QAEXPAVCPlayerActionMarker@@@Z 
?TestCollisionSphere@CPlayerWeapons@@QAEHV?$Vector@M$02@@MPAVCPlacement3D@@@Z 
?TestCollisionSphere@CPlayerWeapons_L@@QAEHV?$Vector@M$02@@MPAVCPlacement3D@@@Z 
?TheEnd@CPlayer@@QAEHABVCEntityEvent@@@Z 
?TotallyDead@CPlayer@@QAEHXZ 
?TouchOrDamageEvent_enum@@3VCEntityPropertyEnumType@@A 
?TouchOrDamageEvent_values@@3PAVCEntityPropertyEnumValue@@A 
?TransformFXByBone@CEnemyBase@@QAEXVCEntityPointer@@ABVCTString@@@Z 
?TruckSkinType_enum@@3VCEntityPropertyEnumType@@A 
?TruckSkinType_values@@3PAVCEntityPropertyEnumValue@@A 
?TurretType_enum@@3VCEntityPropertyEnumType@@A 
?TurretType_values@@3PAVCEntityPropertyEnumValue@@A 
?UpdateLatency@CPlayer@@QAEXM@Z 
?UpdateLevelStats@CPlayer@@QAEXXZ 
?UpdateTargetingInfo@CPlayerWeapons@@QAEXXZ 
?UpdateTargetingInfo@CPlayerWeapons_L@@QAEXXZ 
?UsePressed@CPlayer@@QAEXH@Z 
?ValidateCharacter@CPlayer@@QAEXXZ 
?VehicleType_enum@@3VCEntityPropertyEnumType@@A 
?VehicleType_values@@3PAVCEntityPropertyEnumValue@@A 
?ViewType_enum@@3VCEntityPropertyEnumType@@A 
?ViewType_values@@3PAVCEntityPropertyEnumValue@@A 
?VisibilityBits_enum@@3VCEntityPropertyEnumType@@A 
?VisibilityBits_values@@3PAVCEntityPropertyEnumValue@@A 
?VomitStain@CProjectile@@QAEXKH@Z 
?WalkingAnim@CEnemyBase@@UAEXXZ 
?WarpRotation_enum@@3VCEntityPropertyEnumType@@A 
?WarpRotation_values@@3PAVCEntityPropertyEnumValue@@A 
?WasPickedBy@CSkaItem@@QAEHPAVCEntity@@@Z 
?WasRecentlyPickedBy@CSkaItem@@QAEHPAVCEntity@@@Z 
?Watch@CWatcher@@QAEXXZ 
?WeaponEffectType_enum@@3VCEntityPropertyEnumType@@A 
?WeaponEffectType_values@@3PAVCEntityPropertyEnumValue@@A 
?WeaponMovingOffset@CPlayerWeapons@@QAEXAAV?$Vector@M$02@@@Z 
?WeaponMovingOffset@CPlayerWeapons_L@@QAEXAAV?$Vector@M$02@@@Z 
?WeaponType_enum@@3VCEntityPropertyEnumType@@A 
?WeaponType_values@@3PAVCEntityPropertyEnumValue@@A 
?WorldChange@CPlayer@@QAEHABVCEntityEvent@@@Z 
?WorldChangeDead@CPlayer@@QAEHABVCEntityEvent@@@Z 
?WorldLinkType_enum@@3VCEntityPropertyEnumType@@A 
?WorldLinkType_values@@3PAVCEntityPropertyEnumValue@@A 
?WouldNotLeaveAttackRadius@CEnemyBase@@QAEHXZ 
?WoundSound@CEnemyBase@@UAEXXZ 
?Wounded@CPlayer@@QAEHABVCEntityEvent@@@Z 
?WoundedNotify@CEnemyBase@@QAEXABVEEnemyBaseDamage@@@Z 
?Write_net@CPlayer@@UAEXPAVCNetworkMessage@@@Z 
?Write_net_brief@CPlayer@@UAEXPAVCNetworkMessage@@@Z 
?Write_t@CCompMessageID@@QAEXAAVCTStream@@@Z 
?Write_t@CEmiter@@QAEXAAVCTStream@@H@Z 
?Write_t@CEmittedParticle@@QAEXAAVCTStream@@H@Z 
?Write_t@CPlayer@@UAEXPAVCTStream@@H@Z 
?Write_t@CPlayerWeapons@@UAEXPAVCTStream@@H@Z 
?Write_t@CPlayerWeapons_L@@UAEXPAVCTStream@@H@Z 
?ZoomInOut@CPlayer@@QAEXXZ 
?addSilhouettes@CPlayer@@QAEXPAVCDrawPort@@@Z 
?cmp_bInitialStart@@3HA 
?cmp_bLevelStart@@3HA 
?cmp_bUpdateInBackground@@3HA 
?cmp_ppenDHPlayer@@3PAVCPlayer@@A 
?cmp_ppenPlayer@@3PAVCPlayer@@A 
?cmp_strVideo1@@3VCTString@@A 
?cmp_strVideo2@@3VCTString@@A 
?cmp_strVideoInGame@@3VCTString@@A 
?ctl_ComposeActionPacket@@YAXABVCPlayerCharacter@@AAVCPlayerAction@@H@Z 
?ctl_pvPlayerControls@@3PAXA 
?ctl_slPlayerControlsSize@@3JB 
?currentTimeFactor@@YAMXZ 
?getNormZBuffer@CPlayer@@QAEXPAVCDrawPort@@AAVCEntity@@AAVCAnyProjection3D@@@Z 
?isAvailableNormalWeapon@CPlayer@@QAEHJ@Z 
?isAvailableWeapon@CPlayerWeapons@@QAEHJ@Z 
?isCrazy@CPlayer@@QAEHXZ 
?plr_iHiScore@@3JA 
CAnimationChanger_DLLClass 
CAnimationHub_DLLClass 
CAreaMarker_DLLClass 
CAutoMobile_DLLClass 
CAutoQuickSaveHolder_DLLClass 
CBackgroundViewer_DLLClass 
CBasicEffect_DLLClass 
CBasketBoard_DLLClass 
CBigBallMarker_DLLClass 
CBigBall_DLLClass 
CBike_DLLClass 
CBikini2_DLLClass 
CBikini3_DLLClass 
CBikini_DLLClass 
CBlendController_DLLClass 
CBloodSpray_DLLClass 
CBossCoreLight_DLLClass 
CBossCore_DLLClass 
CBossFlame_DLLClass 
CBossGravity_DLLClass 
CBossGrind_DLLClass 
CBossHeli_DLLClass 
CBossProjectionTV_DLLClass 
CBouncer_DLLClass 
CBruce_DLLClass 
CBuffalo_DLLClass 
CBullet_DLLClass 
CCameraMarker_DLLClass 
CCamera_DLLClass 
CChiangExtra_DLLClass 
CChiangField_DLLClass 
CChiangWater_DLLClass 
CChickenSticky_DLLClass 
CChicken_DLLClass 
CChopskiActor_DLLClass 
CConanMechanic_DLLClass 
CCopier_DLLClass 
CCounter_DLLClass 
CCreditsHolder_DLLClass 
CDamager_DLLClass 
CDancerCanCan_DLLClass 
CDancerManager_DLLClass 
CDancerNormal_DLLClass 
CDancerTrapeze_DLLClass 
CDebrisSka_DLLClass 
CDebris_DLLClass 
CDestroyableArchitecture_DLLClass 
CDevilBigBall_DLLClass 
CDoorController_DLLClass 
CEffectMarker_DLLClass 
CEffector_DLLClass 
CEndingMaria_DLLClass 
CEnemyActionMarker_DLLClass 
CEnemyBase_DLLClass 
CEnemyCounter_DLLClass 
CEnemyDive_DLLClass 
CEnemyFly_DLLClass 
CEnemyHorse_DLLClass 
CEnemyMarker_DLLClass 
CEnemyRunInto_DLLClass 
CEnemySpawner_DLLClass 
CEntityStateDisplay_DLLClass 
CEntityVoiceHolder_DLLClass 
CEnvironmentBase_DLLClass 
CEnvironmentMarker_DLLClass 
CEnvironmentParticlesHolder_DLLClass 
CEruptor_DLLClass 
CFXEmiter_DLLClass 
CFernandesScythe_DLLClass 
CFernandes_DLLClass 
CFireworks_DLLClass 
CFlame_DLLClass 
CFlyingMechanic_DLLClass 
CFogMarker_DLLClass 
CGlobal_DLLClass 
CGraciaAxe2_DLLClass 
CGraciaAxe_DLLClass 
CGraciaFixed_DLLClass 
CGraciaLaser2_DLLClass 
CGraciaLaser3_DLLClass 
CGracia_DLLClass 
CGradientMarker_DLLClass 
CGravityMarker_DLLClass 
CGravityRouter_DLLClass 
CHawk_DLLClass 
CHazeMarker_DLLClass 
CHorseHwangbo_DLLClass 
CHorseMajang_DLLClass 
CHorseMaok_DLLClass 
CHudPicHolder_DLLClass 
CHwangboCityRifle_DLLClass 
CHwangboCity_DLLClass 
CHwangboFlame_DLLClass 
CHwangboRifle_DLLClass 
CJavaPot_DLLClass 
CJava_DLLClass 
CLamon2_DLLClass 
CLamonBike_DLLClass 
CLamon_DLLClass 
CLightControl_DLLClass 
CLight_DLLClass 
CLisa_DLLClass 
CLouisBodyGuard_DLLClass 
CLouisDevil_DLLClass 
CLouisNormal1_DLLClass 
CLouisNormal2_DLLClass 
CMajang_DLLClass 
CMaokCity_DLLClass 
CMaok_DLLClass 
CMariaActor_DLLClass 
CMariaEventTimer_DLLClass 
CMariaNPC_DLLClass 
CMaria_DLLClass 
CMarker_DLLClass 
CMaxim_DLLClass 
CMessageHolder_DLLClass 
CMirrorMarker_DLLClass 
CModelDestruction_DLLClass 
CModelHolder2_DLLClass 
CModelHolder3_DLLClass 
CModelHolder_DLLClass 
CMovingBrushMarker_DLLClass 
CMovingBrush_DLLClass 
CMusicChanger_DLLClass 
CMusicHolder_DLLClass 
CNavigationMarker_DLLClass 
CNof_DLLClass 
CNorudom_DLLClass 
CObjectiveCompletedHolder_DLLClass 
COlga_DLLClass 
CParticleCloudsHolder_DLLClass 
CParticleCloudsMarker_DLLClass 
CParticlesHolder_DLLClass 
CPedro_DLLClass 
CPiapongBlade_DLLClass 
CPiapongCannon_DLLClass 
CPiapongExtra_DLLClass 
CPiapongFixed_DLLClass 
CPiapongLaser_DLLClass 
CPig_DLLClass 
CPlayerActionMarker_DLLClass 
CPlayerAnimator_DLLClass 
CPlayerMarker_DLLClass 
CPlayerView_DLLClass 
CPlayerWeaponsEffects_DLLClass 
CPlayerWeapons_DLLClass 
CPlayerWeapons_L_DLLClass 
CPlayer_DLLClass 
CPok_DLLClass 
CPriestSpawner_DLLClass 
CPriest_DLLClass 
CProjectile_DLLClass 
CProtectorMG_DLLClass 
CProtectorSG_DLLClass 
CProtector_DLLClass 
CReminder_DLLClass 
CRobert_DLLClass 
CRollingStone_DLLClass 
CRosemariTights_DLLClass 
CRosemari_DLLClass 
CScrollHolder_DLLClass 
CSkaAmmoItemAlone_DLLClass 
CSkaAmmoItem_DLLClass 
CSkaArmorItemAlone_DLLClass 
CSkaArmorItem_DLLClass 
CSkaHealthItemAlone_DLLClass 
CSkaHealthItem_DLLClass 
CSkaItem_DLLClass 
CSkaMovingModelHolder_DLLClass 
CSkaSpecialItemAlone_DLLClass 
CSkaSpecialItem_DLLClass 
CSkiEngineer_DLLClass 
CSkiSeaman_DLLClass 
CSnake_DLLClass 
CSolidBox_DLLClass 
CSolidProne_DLLClass 
CSoundHolder_DLLClass 
CSpawnerProjectile_DLLClass 
CStationaryWeapon_DLLClass 
CSwitch_DLLClass 
CTacticsChanger_DLLClass 
CTacticsHolder_DLLClass 
CTao_DLLClass 
CTeleport_DLLClass 
CTerrainEntity_DLLClass 
CTextFXHolder_DLLClass 
CTimeController_DLLClass 
CToaster_DLLClass 
CTorpedo_DLLClass 
CTouchField_DLLClass 
CTriggerActionMarker_DLLClass 
CTrigger_DLLClass 
CTruck_DLLClass 
CTurret_DLLClass 
CVehicle_DLLClass 
CVideoHolder_DLLClass 
CVoiceHolder_DLLClass 
CWatchPlayers_DLLClass 
CWatcher_DLLClass 
CWindmill_DLLClass 
CWonHawk_DLLClass 
CWonSniper_DLLClass 
CWorldBase_DLLClass 
CWorldLink_DLLClass 
CWorldSettingsController_DLLClass 
