Microsoft (R) COFF/PE Dumper Version 10.00.30319.01
Copyright (C) Microsoft Corporation.  All rights reserved.


Dump of file Engine.dll

File Type: DLL

  Section contains the following exports for Engine.dll

    00000000 characteristics
    3D91F7CA time date stamp Wed Sep 25 20:52:10 2002
        0.00 version
           1 ordinal base
        3457 number of functions
        3457 number of names

    ordinal hint RVA      name

          1    0 00002A30 ??0CAnimData@@QAE@XZ
          2    1 00004230 ??0CAnimObject@@QAE@XZ
          3    2 00019FF0 ??0CAnimSet@@QAE@ABV0@@Z
          4    3 0014B0A0 ??0CAnimSet@@QAE@XZ
          5    4 00015620 ??0CAnyProjection3D@@QAE@ABV0@@Z
          6    5 000155D0 ??0CAnyProjection3D@@QAE@XZ
          7    6 00163F50 ??0CArrayHolder@@QAE@XZ
          8    7 0008FA80 ??0CAttachedModel@@QAE@ABV0@@Z
          9    8 00092E70 ??0CAttachedModel@@QAE@XZ
         10    9 0009E7B0 ??0CAttachedModelPosition@@QAE@XZ
         11    A 0008FCA0 ??0CAttachedSound@@QAE@ABV0@@Z
         12    B 00093280 ??0CAttachedSound@@QAE@XZ
         13    C 00021120 ??0CAttachmentModelObject@@QAE@ABV0@@Z
         14    D 000210D0 ??0CAttachmentModelObject@@QAE@XZ
         15    E 0011DCD0 ??0CAutoPrecacheModel@@QAE@XZ
         16    F 0011DBD0 ??0CAutoPrecacheSound@@QAE@XZ
         17   10 0011DD90 ??0CAutoPrecacheTexture@@QAE@XZ
         18   11 00019A60 ??0CBoolDefaultFalse@@QAE@XZ
         19   12 00018AF0 ??0CBrush3D@@QAE@ABV0@@Z
         20   13 00129430 ??0CBrush3D@@QAE@XZ
         21   14 000B59C0 ??0CBrushArchive@@QAE@AAV0@@Z
         22   15 000B5950 ??0CBrushArchive@@QAE@XZ
         23   16 00017980 ??0CBrushBase@@QAE@ABV0@@Z
         24   17 00017970 ??0CBrushBase@@QAE@XZ
         25   18 00017A90 ??0CBrushEdge@@QAE@PAVCBrushVertex@@0@Z
         26   19 00017A80 ??0CBrushEdge@@QAE@XZ
         27   1A 00018800 ??0CBrushMip@@QAE@AAV0@@Z
         28   1B 0012E1C0 ??0CBrushMip@@QAE@XZ
         29   1C 00017A30 ??0CBrushPlane@@QAE@XZ
         30   1D 00018310 ??0CBrushPolygon@@QAE@ABV0@@Z
         31   1E 000180E0 ??0CBrushPolygon@@QAE@XZ
         32   1F 00018040 ??0CBrushPolygonTexture@@QAE@ABV0@@Z
         33   20 00017F80 ??0CBrushPolygonTexture@@QAE@XZ
         34   21 00132110 ??0CBrushSector@@QAE@ABV0@@Z
         35   22 00132230 ??0CBrushSector@@QAE@XZ
         36   23 00017D20 ??0CBrushShadowLayer@@QAE@ABV0@@Z
         37   24 00136500 ??0CBrushShadowLayer@@QAE@XZ
         38   25 00017DF0 ??0CBrushShadowMap@@QAE@ABV0@@Z
         39   26 00137250 ??0CBrushShadowMap@@QAE@XZ
         40   27 000179A0 ??0CBrushVertex@@QAE@XZ
         41   28 000CEB60 ??0CCastRay@@QAE@PAVCEntity@@ABV?$Vector@M$02@@1@Z
         42   29 000CEA00 ??0CCastRay@@QAE@PAVCEntity@@ABVCPlacement3D@@@Z
         43   2A 000CEAB0 ??0CCastRay@@QAE@PAVCEntity@@ABVCPlacement3D@@M@Z
         44   2B 00077BE0 ??0CCastRay@@QAE@XZ
         45   2C 00006290 ??0CChangeable@@QAE@XZ
         46   2D 000062F0 ??0CChangeableRT@@QAE@XZ
         47   2E 00001CA0 ??0CChunkID@@QAE@PBD@Z
         48   2F 00119E00 ??0CCollisionInfo@@QAE@ABV0@@Z
         49   30 0008D0C0 ??0CCollisionInfo@@QAE@XZ
         50   31 0001DDE0 ??0CCommunicationInterface@@QAE@ABV0@@Z
         51   32 000E6B80 ??0CCommunicationInterface@@QAE@XZ
         52   33 000B5510 ??0CContentType@@QAE@ABV0@@Z
         53   34 000B54C0 ??0CContentType@@QAE@XZ
         54   35 00007930 ??0CCrypt@@QAE@PADJ0@Z
         55   36 000078E0 ??0CCrypt@@QAE@XZ
         56   37 00051540 ??0CDisplayMode@@QAE@XZ
         57   38 0000F550 ??0CDrawPort@@QAE@ABV0@@Z
         58   39 00051BF0 ??0CDrawPort@@QAE@PAV0@ABV?$AABBox@J$01@@@Z
         59   3A 00052030 ??0CDrawPort@@QAE@PAV0@H@Z
         60   3B 00051BA0 ??0CDrawPort@@QAE@PAV0@NNNN@Z
         61   3C 00051B30 ??0CDrawPort@@QAE@PAVCRaster@@@Z
         62   3D 0008FF00 ??0CEditModel@@QAE@AAV0@@Z
         63   3E 000906F0 ??0CEditModel@@QAE@XZ
         64   3F 0001C0F0 ??0CEntity@@QAE@ABV0@@Z
         65   40 00117170 ??0CEntity@@QAE@XZ
         66   41 000B5740 ??0CEntityClass@@QAE@ABV0@@Z
         67   42 00122540 ??0CEntityClass@@QAE@PAVCDLLEntityClass@@@Z
         68   43 001224C0 ??0CEntityClass@@QAE@XZ
         69   44 0008A530 ??0CEntityComponent@@QAE@ABV0@@Z
         70   45 0008A4C0 ??0CEntityComponent@@QAE@W4EntityComponentType@@KPAD@Z
         71   46 0008A500 ??0CEntityComponent@@QAE@XZ
         72   47 00019AE0 ??0CEntityEvent@@QAE@ABV0@@Z
         73   48 00019A80 ??0CEntityEvent@@QAE@J@Z
         74   49 0008A450 ??0CEntityProperty@@QAE@W4PropertyType@0@PAVCEntityPropertyEnumType@@KJPADDKK@Z
         75   4A 0008A490 ??0CEntityProperty@@QAE@XZ
         76   4B 000B5640 ??0CEnvironmentType@@QAE@ABV0@@Z
         77   4C 000B5610 ??0CEnvironmentType@@QAE@XZ
         78   4D 00104600 ??0CFieldSettings@@QAE@ABV0@@Z
         79   4E 001045F0 ??0CFieldSettings@@QAE@XZ
         80   4F 00001840 ??0CFileNameNode@@QAE@ABV0@@Z
         81   50 000029C0 ??0CFileNameNode@@QAE@PBDPAVCListHead@@@Z
         82   51 0005EA20 ??0CFontCharData@@QAE@XZ
         83   52 00051770 ??0CFontData@@QAE@ABV0@@Z
         84   53 0005EAD0 ??0CFontData@@QAE@XZ
         85   54 00016BA0 ??0CGfxLibrary@@QAE@ABV0@@Z
         86   55 0006E560 ??0CGfxLibrary@@QAE@XZ
         87   56 000B56E0 ??0CIlluminationType@@QAE@ABV0@@Z
         88   57 000B56C0 ??0CIlluminationType@@QAE@XZ
         89   58 000768F0 ??0CImageInfo@@QAE@XZ
         90   59 00001990 ??0CInfoFile@@QAE@AAV0@@Z
         91   5A 0000D540 ??0CInfoFile@@QAE@ABVCTFileName@@@Z
         92   5B 0000D400 ??0CInfoFile@@QAE@XZ
         93   5C 0000F130 ??0CInput@@QAE@ABV0@@Z
         94   5D 0000FD20 ??0CInput@@QAE@XZ
         95   5E 00043500 ??0CIntersector@@QAE@MM@Z
         96   5F 000146B0 ??0CIsometricProjection3D@@QAE@ABV0@@Z
         97   60 00014690 ??0CIsometricProjection3D@@QAE@XZ
         98   61 00126CF0 ??0CLastPositions@@QAE@ABV0@@Z
         99   62 000EC8A0 ??0CLastPositions@@QAE@XZ
        100   63 001046F0 ??0CLensFlareType@@QAE@XZ
        101   64 00077C70 ??0CLightSource@@QAE@ABV0@@Z
        102   65 0013E3F0 ??0CLightSource@@QAE@XZ
        103   66 000016B0 ??0CListHead@@QAE@ABV0@@Z
        104   67 000016A0 ??0CListHead@@QAE@XZ
        105   68 000016E0 ??0CListNode@@QAE@ABV0@@Z
        106   69 000016D0 ??0CListNode@@QAE@XZ
        107   6A 0001C2F0 ??0CLiveEntity@@QAE@ABV0@@Z
        108   6B 00120BA0 ??0CLiveEntity@@QAE@XZ
        109   6C 00013B00 ??0CMappingDefinition@@QAE@XZ
        110   6D 0008F960 ??0CMappingUndo@@QAE@ABV0@@Z
        111   6E 0008F950 ??0CMappingUndo@@QAE@XZ
        112   6F 00013AD0 ??0CMappingVectors@@QAE@XZ
        113   70 000220B0 ??0CMesh@@QAE@ABV0@@Z
        114   71 0014DEC0 ??0CMesh@@QAE@XZ
        115   72 0001D6A0 ??0CMessageDispatcher@@QAE@ABV0@@Z
        116   73 000EBA60 ??0CMessageDispatcher@@QAE@XZ
        117   74 00020C90 ??0CModelCollisionBox@@QAE@ABV0@@Z
        118   75 0009E570 ??0CModelCollisionBox@@QAE@XZ
        119   76 0009BF60 ??0CModelData@@QAE@ABV0@@Z
        120   77 0009C630 ??0CModelData@@QAE@XZ
        121   78 00020DD0 ??0CModelInfo@@QAE@ABV0@@Z
        122   79 00020DA0 ??0CModelInfo@@QAE@XZ
        123   7A 00152120 ??0CModelInstance@@QAE@AAV0@@Z
        124   7B 00151CE0 ??0CModelInstance@@QAE@XZ
        125   7C 00020F90 ??0CModelObject@@QAE@ABV0@@Z
        126   7D 000A0320 ??0CModelObject@@QAE@XZ
        127   7E 0002DA10 ??0CModelPatch@@QAE@ABV0@@Z
        128   7F 0009C480 ??0CModelPatch@@QAE@XZ
        129   80 0009C2C0 ??0CModelRenderPrefs@@QAE@XZ
        130   81 0008BFD0 ??0CMovableBrushEntity@@QAE@ABV0@@Z
        131   82 0017D3A0 ??0CMovableBrushEntity@@QAE@XZ
        132   83 0008AD10 ??0CMovableEntity@@QAE@ABV0@@Z
        133   84 0017E180 ??0CMovableEntity@@QAE@XZ
        134   85 0008B680 ??0CMovableModelEntity@@QAE@ABV0@@Z
        135   86 00188B00 ??0CMovableModelEntity@@QAE@XZ
        136   87 0008D090 ??0CMovingBox@@QAE@XZ
        137   88 0008D050 ??0CMovingSphere@@QAE@XZ
        138   89 000ECE30 ??0CNetworkLibrary@@QAE@XZ
        139   8A 000F6BF0 ??0CNetworkMessage@@QAE@ABV0@@Z
        140   8B 000F6B80 ??0CNetworkMessage@@QAE@W4NetworkMessageType@@@Z
        141   8C 000F6AF0 ??0CNetworkMessage@@QAE@XZ
        142   8D 0001D560 ??0CNetworkProvider@@QAE@ABV0@@Z
        143   8E 000EB800 ??0CNetworkProvider@@QAE@XZ
        144   8F 0001D8D0 ??0CNetworkSession@@QAE@ABV0@@Z
        145   90 000EB8E0 ??0CNetworkSession@@QAE@ABVCTString@@@Z
        146   91 000EB830 ??0CNetworkSession@@QAE@XZ
        147   92 0001D710 ??0CNetworkTimerHandler@@QAE@ABV0@@Z
        148   93 0001D6F0 ??0CNetworkTimerHandler@@QAE@XZ
        149   94 00037710 ??0CObject3D@@QAE@AAV0@@Z
        150   95 00037860 ??0CObject3D@@QAE@XZ
        151   96 000373C0 ??0CObjectPolygon@@QAE@AAV0@@Z
        152   97 00037300 ??0CObjectPolygon@@QAE@XZ
        153   98 00037290 ??0CObjectPolygonEdge@@QAE@PAVCObjectEdge@@@Z
        154   99 000372B0 ??0CObjectPolygonEdge@@QAE@PAVCObjectEdge@@H@Z
        155   9A 00037280 ??0CObjectPolygonEdge@@QAE@XZ
        156   9B 0003D880 ??0CObjectSector@@QAE@XZ
        157   9C 00104650 ??0COneLensFlare@@QAE@ABV0@@Z
        158   9D 00104640 ??0COneLensFlare@@QAE@XZ
        159   9E 00014BA0 ??0CParallelProjection3D@@QAE@ABV0@@Z
        160   9F 00014B80 ??0CParallelProjection3D@@QAE@XZ
        161   A0 00014110 ??0CPerspectiveProjection3D@@QAE@ABV0@@Z
        162   A1 00046580 ??0CPerspectiveProjection3D@@QAE@XZ
        163   A2 00013B70 ??0CPlacement3D@@QAE@ABV?$Vector@M$02@@0@Z
        164   A3 00013B60 ??0CPlacement3D@@QAE@XZ
        165   A4 000F7F60 ??0CPlayerAction@@QAE@XZ
        166   A5 000EC700 ??0CPlayerBuffer@@QAE@ABV0@@Z
        167   A6 000F9860 ??0CPlayerBuffer@@QAE@XZ
        168   A7 0008A800 ??0CPlayerCharacter@@QAE@ABV0@@Z
        169   A8 00127BD0 ??0CPlayerCharacter@@QAE@ABVCTString@@@Z
        170   A9 00127840 ??0CPlayerCharacter@@QAE@XZ
        171   AA 0008C8E0 ??0CPlayerEntity@@QAE@ABV0@@Z
        172   AB 0018B920 ??0CPlayerEntity@@QAE@XZ
        173   AC 000EC5F0 ??0CPlayerSource@@QAE@ABV0@@Z
        174   AD 000F9CA0 ??0CPlayerSource@@QAE@XZ
        175   AE 00090A10 ??0CProgressRoutines@@QAE@XZ
        176   AF 00013C40 ??0CProjection3D@@QAE@ABV0@@Z
        177   B0 000433C0 ??0CProjection3D@@QAE@XZ
        178   B1 0001C500 ??0CRationalEntity@@QAE@ABV0@@Z
        179   B2 00120FA0 ??0CRationalEntity@@QAE@XZ
        180   B3 000204E0 ??0CRelationDst@@QAE@XZ
        181   B4 00020470 ??0CRelationSrc@@QAE@XZ
        182   B5 000A8270 ??0CRenderModel@@QAE@XZ
        183   B6 00001520 ??0CSerial@@QAE@ABV0@@Z
        184   B7 00027060 ??0CSerial@@QAE@XZ
        185   B8 000B6570 ??0CSessionState@@QAE@AAV0@@Z
        186   B9 000FF0E0 ??0CSessionState@@QAE@XZ
        187   BA 000361F0 ??0CSetFPUPrecision@@QAE@W4FPUPrecisionType@@@Z
        188   BB 0001A2A0 ??0CShader@@QAE@ABV0@@Z
        189   BC 00079290 ??0CShader@@QAE@XZ
        190   BD 000EC7C0 ??0CShadingInfo@@QAE@ABV0@@Z
        191   BE 000EC7B0 ??0CShadingInfo@@QAE@XZ
        192   BF 00017800 ??0CShadowMap@@QAE@ABV0@@Z
        193   C0 00079630 ??0CShadowMap@@QAE@XZ
        194   C1 0000C6B0 ??0CShell@@QAE@AAV0@@Z
        195   C2 000277F0 ??0CShell@@QAE@XZ
        196   C3 00015110 ??0CSimpleProjection3D@@QAE@ABV0@@Z
        197   C4 000150F0 ??0CSimpleProjection3D@@QAE@XZ
        198   C5 00049450 ??0CSimpleProjection3D_DOUBLE@@QAE@XZ
        199   C6 00019D70 ??0CSkeleton@@QAE@ABV0@@Z
        200   C7 00162690 ??0CSkeleton@@QAE@XZ
        201   C8 00084AF0 ??0CSoundData@@QAE@ABV0@@Z
        202   C9 00084D70 ??0CSoundData@@QAE@XZ
        203   CA 00086110 ??0CSoundLibrary@@QAE@XZ
        204   CB 00021400 ??0CSoundObject@@QAE@ABV0@@Z
        205   CC 0008D280 ??0CSoundObject@@QAE@XZ
        206   CD 0006DDC0 ??0CSoundTimerHandler@@QAE@ABV0@@Z
        207   CE 0006DDA0 ??0CSoundTimerHandler@@QAE@XZ
        208   CF 0001C800 ??0CSunstormWorldVariables@@QAE@AAV0@@Z
        209   D0 0001CD20 ??0CSunstormWorldVariables@@QAE@XZ
        210   D1 000B5400 ??0CSurfaceType@@QAE@ABV0@@Z
        211   D2 000B53B0 ??0CSurfaceType@@QAE@XZ
        212   D3 00032D30 ??0CTCriticalSection@@QAE@XZ
        213   D4 000013A0 ??0CTFileName@@AAE@PBD@Z
        214   D5 00001480 ??0CTFileName@@QAE@ABV0@@Z
        215   D6 000013E0 ??0CTFileName@@QAE@ABVCTString@@@Z
        216   D7 00001410 ??0CTFileName@@QAE@PBDH@Z
        217   D8 000013C0 ??0CTFileName@@QAE@XZ
        218   D9 000021F0 ??0CTFileStream@@QAE@AAV0@@Z
        219   DA 00030400 ??0CTFileStream@@QAE@XZ
        220   DB 00002410 ??0CTMemoryStream@@QAE@AAV0@@Z
        221   DC 000311B0 ??0CTMemoryStream@@QAE@PAXJW4OpenMode@CTStream@@@Z
        222   DD 000310C0 ??0CTMemoryStream@@QAE@XZ
        223   DE 00032E70 ??0CTSingleLock@@QAE@PAVCTCriticalSection@@H@Z
        224   DF 00001FA0 ??0CTStream@@QAE@AAV0@@Z
        225   E0 00030010 ??0CTStream@@QAE@XZ
        226   E1 000012D0 ??0CTString@@QAA@JPBDZZ
        227   E2 00001290 ??0CTString@@QAE@ABV0@@Z
        228   E3 000012B0 ??0CTString@@QAE@PBD@Z
        229   E4 00001270 ??0CTString@@QAE@XZ
        230   E5 000192D0 ??0CTerrain@@QAE@AAV0@@Z
        231   E6 00164DB0 ??0CTerrain@@QAE@XZ
        232   E7 000B5E90 ??0CTerrainArchive@@QAE@AAV0@@Z
        233   E8 000B5E30 ??0CTerrainArchive@@QAE@XZ
        234   E9 00018E20 ??0CTerrainLayer@@QAE@ABV0@@Z
        235   EA 0016B8A0 ??0CTerrainLayer@@QAE@XZ
        236   EB 00175E50 ??0CTerrainTile@@QAE@XZ
        237   EC 000B5330 ??0CTextureBlending@@QAE@ABV0@@Z
        238   ED 000B6A30 ??0CTextureBlending@@QAE@XZ
        239   EE 000174D0 ??0CTextureData@@QAE@ABV0@@Z
        240   EF 0007AE20 ??0CTextureData@@QAE@XZ
        241   F0 0008F840 ??0CTextureDataInfo@@QAE@ABV0@@Z
        242   F1 0008F7E0 ??0CTextureDataInfo@@QAE@XZ
        243   F2 000177C0 ??0CTextureObject@@QAE@ABV0@@Z
        244   F3 0007D6B0 ??0CTextureObject@@QAE@XZ
        245   F4 000B52B0 ??0CTextureTransformation@@QAE@ABV0@@Z
        246   F5 000B69B0 ??0CTextureTransformation@@QAE@XZ
        247   F6 0008FD40 ??0CThumbnailSettings@@QAE@ABV0@@Z
        248   F7 00090480 ??0CThumbnailSettings@@QAE@XZ
        249   F8 000026E0 ??0CTimer@@QAE@ABV0@@Z
        250   F9 000332C0 ??0CTimer@@QAE@H@Z
        251   FA 000360B0 ??0CUpdateable@@QAE@XZ
        252   FB 00036100 ??0CUpdateableRT@@QAE@XZ
        253   FC 0000F740 ??0CViewPort@@QAE@ABV0@@Z
        254   FD 000844A0 ??0CViewPort@@QAE@JJPAUHWND__@@@Z
        255   FE 000B6AA0 ??0CWorld@@QAE@XZ
        256   FF 001050A0 ??0CWorldRenderPrefs@@QAE@XZ
        257  100 0000F010 ??0ControlAxisInfo@@QAE@ABU0@@Z
        258  101 0000EFF0 ??0ControlAxisInfo@@QAE@XZ
        259  102 0001A6E0 ??0EBegin@@QAE@ABV0@@Z
        260  103 0017C900 ??0EBegin@@QAE@XZ
        261  104 0001AD00 ??0EBlock@@QAE@ABV0@@Z
        262  105 0017CB70 ??0EBlock@@QAE@XZ
        263  106 0001B5C0 ??0EDamage@@QAE@ABV0@@Z
        264  107 0017CE90 ??0EDamage@@QAE@XZ
        265  108 0001B910 ??0EDeath@@QAE@ABV0@@Z
        266  109 0017D020 ??0EDeath@@QAE@XZ
        267  10A 0001B310 ??0EFirstWorldBase@@QAE@ABV0@@Z
        268  10B 0017CD70 ??0EFirstWorldBase@@QAE@XZ
        269  10C 0001A440 ??0EInternal@@QAE@ABV0@@Z
        270  10D 0017C840 ??0EInternal@@QAE@XZ
        271  10E 0001AAF0 ??0EPass@@QAE@ABV0@@Z
        272  10F 0017CAA0 ??0EPass@@QAE@XZ
        273  110 0001B210 ??0EPostLevelChange@@QAE@ABV0@@Z
        274  111 0017CD20 ??0EPostLevelChange@@QAE@XZ
        275  112 0001B110 ??0EPreLevelChange@@QAE@ABV0@@Z
        276  113 0017CCD0 ??0EPreLevelChange@@QAE@XZ
        277  114 0001A600 ??0EReturn@@QAE@ABV0@@Z
        278  115 0017C8C0 ??0EReturn@@QAE@XZ
        279  116 0001BD80 ??0ERoundEvent@@QAE@ABV0@@Z
        280  117 0017D1F0 ??0ERoundEvent@@QAE@XZ
        281  118 0001B4D0 ??0EStreamInit@@QAE@ABV0@@Z
        282  119 0017CDF0 ??0EStreamInit@@QAE@XZ
        283  11A 0001BC80 ??0ETakingBreath@@QAE@ABV0@@Z
        284  11B 0017D1A0 ??0ETakingBreath@@QAE@XZ
        285  11C 0001B030 ??0ETeleport@@QAE@ABV0@@Z
        286  11D 0017CC90 ??0ETeleport@@QAE@XZ
        287  11E 0001A7C0 ??0ETimer@@QAE@ABV0@@Z
        288  11F 0017C940 ??0ETimer@@QAE@XZ
        289  120 0001A8A0 ??0ETouch@@QAE@ABV0@@Z
        290  121 0017C9B0 ??0ETouch@@QAE@XZ
        291  122 0001A520 ??0EVoid@@QAE@ABV0@@Z
        292  123 0017C880 ??0EVoid@@QAE@XZ
        293  124 0001B3F0 ??0EWaterTooDeep@@QAE@ABV0@@Z
        294  125 0017CDB0 ??0EWaterTooDeep@@QAE@XZ
        295  126 0001AF50 ??0EWouldFall@@QAE@ABV0@@Z
        296  127 0017CC50 ??0EWouldFall@@QAE@XZ
        297  128 00020890 ??0MappingSurface@@QAE@ABU0@@Z
        298  129 000A02D0 ??0MappingSurface@@QAE@XZ
        299  12A 00021700 ??0MeshLOD@@QAE@ABU0@@Z
        300  12B 00021540 ??0MeshLOD@@QAE@XZ
        301  12C 00021FD0 ??0MeshMorphMap@@QAE@XZ
        302  12D 00021AF0 ??0MeshSurface@@QAE@XZ
        303  12E 00021A10 ??0MeshUVMap@@QAE@XZ
        304  12F 00021EF0 ??0MeshWeightMap@@QAE@XZ
        305  130 00020780 ??0ModelFrameInfo@@QAE@XZ
        306  131 00020750 ??0ModelFrameVertex16@@QAE@XZ
        307  132 00020720 ??0ModelFrameVertex16_old@@QAE@XZ
        308  133 00020700 ??0ModelFrameVertex8@@QAE@XZ
        309  134 0009DBC0 ??0ModelMipInfo@@QAE@XZ
        310  135 000A0000 ??0ModelPolygon@@QAE@XZ
        311  136 0009CED0 ??0ModelTextureVertex@@QAE@XZ
        312  137 00020B80 ??0PolygonsPerPatch@@QAE@XZ
        313  138 00019D40 ??0SkeletonBone@@QAE@XZ
        314  139 00019BE0 ??0SkeletonLOD@@QAE@ABU0@@Z
        315  13A 00019B90 ??0SkeletonLOD@@QAE@XZ
        316  13B 00020C50 ??0TransformedVertexData@@QAE@XZ
        317  13C 00002A70 ??1CAnimData@@UAE@XZ
        318  13D 00004260 ??1CAnimObject@@QAE@XZ
        319  13E 0014B0C0 ??1CAnimSet@@UAE@XZ
        320  13F 00163F80 ??1CArrayHolder@@QAE@XZ
        321  140 00092F00 ??1CAttachedModel@@QAE@XZ
        322  141 0008FD30 ??1CAttachedSound@@QAE@XZ
        323  142 000212B0 ??1CAttachmentModelObject@@QAE@XZ
        324  143 0011DCE0 ??1CAutoPrecacheModel@@QAE@XZ
        325  144 0011DBE0 ??1CAutoPrecacheSound@@QAE@XZ
        326  145 0011DDA0 ??1CAutoPrecacheTexture@@QAE@XZ
        327  146 001294F0 ??1CBrush3D@@QAE@XZ
        328  147 000B5C90 ??1CBrushArchive@@UAE@XZ
        329  148 000189F0 ??1CBrushMip@@QAE@XZ
        330  149 000181E0 ??1CBrushPolygon@@QAE@XZ
        331  14A 000180D0 ??1CBrushPolygonTexture@@QAE@XZ
        332  14B 00132350 ??1CBrushSector@@QAE@XZ
        333  14C 00136530 ??1CBrushShadowLayer@@QAE@XZ
        334  14D 00137380 ??1CBrushShadowMap@@QAE@XZ
        335  14E 000CEBE0 ??1CCastRay@@QAE@XZ
        336  14F 0008D250 ??1CCollisionInfo@@QAE@XZ
        337  150 0001DD80 ??1CCommunicationInterface@@QAE@XZ
        338  151 000B5600 ??1CContentType@@QAE@XZ
        339  152 0000F710 ??1CDrawPort@@QAE@XZ
        340  153 00090810 ??1CEditModel@@UAE@XZ
        341  154 00117270 ??1CEntity@@UAE@XZ
        342  155 001225C0 ??1CEntityClass@@UAE@XZ
        343  156 0008A5E0 ??1CEntityComponent@@QAE@XZ
        344  157 00019AA0 ??1CEntityEvent@@UAE@XZ
        345  158 000B56B0 ??1CEnvironmentType@@QAE@XZ
        346  159 00104630 ??1CFieldSettings@@QAE@XZ
        347  15A 000018A0 ??1CFileNameNode@@QAE@XZ
        348  15B 0005EB90 ??1CFontData@@UAE@XZ
        349  15C 0006E910 ??1CGfxLibrary@@QAE@XZ
        350  15D 000B5730 ??1CIlluminationType@@QAE@XZ
        351  15E 00076900 ??1CImageInfo@@QAE@XZ
        352  15F 0000D6E0 ??1CInfoFile@@QAE@XZ
        353  160 0000FE30 ??1CInput@@QAE@XZ
        354  161 000EC930 ??1CLastPositions@@QAE@XZ
        355  162 001047C0 ??1CLensFlareType@@QAE@XZ
        356  163 0013E430 ??1CLightSource@@QAE@XZ
        357  164 00001700 ??1CListNode@@QAE@XZ
        358  165 0001C420 ??1CLiveEntity@@UAE@XZ
        359  166 0008FA60 ??1CMappingUndo@@QAE@XZ
        360  167 0014DEE0 ??1CMesh@@UAE@XZ
        361  168 000EBAD0 ??1CMessageDispatcher@@QAE@XZ
        362  169 00020D40 ??1CModelCollisionBox@@QAE@XZ
        363  16A 0009CD50 ??1CModelData@@UAE@XZ
        364  16B 00020F70 ??1CModelInfo@@QAE@XZ
        365  16C 00151F80 ??1CModelInstance@@QAE@XZ
        366  16D 000A0400 ??1CModelObject@@QAE@XZ
        367  16E 0002DAC0 ??1CModelPatch@@QAE@XZ
        368  16F 0008C850 ??1CMovableBrushEntity@@UAE@XZ
        369  170 0017E290 ??1CMovableEntity@@UAE@XZ
        370  171 0008BF40 ??1CMovableModelEntity@@UAE@XZ
        371  172 000ED150 ??1CNetworkLibrary@@QAE@XZ
        372  173 000F6CC0 ??1CNetworkMessage@@QAE@XZ
        373  174 0001D5C0 ??1CNetworkProvider@@QAE@XZ
        374  175 0001DA70 ??1CNetworkSession@@QAE@XZ
        375  176 0001D740 ??1CNetworkTimerHandler@@UAE@XZ
        376  177 00037880 ??1CObject3D@@QAE@XZ
        377  178 000376A0 ??1CObjectPolygon@@QAE@XZ
        378  179 0003D950 ??1CObjectSector@@QAE@XZ
        379  17A 001046E0 ??1COneLensFlare@@QAE@XZ
        380  17B 000F98E0 ??1CPlayerBuffer@@QAE@XZ
        381  17C 0008AB90 ??1CPlayerCharacter@@QAE@XZ
        382  17D 0008CE30 ??1CPlayerEntity@@UAE@XZ
        383  17E 000F9D40 ??1CPlayerSource@@QAE@XZ
        384  17F 0001C6F0 ??1CRationalEntity@@UAE@XZ
        385  180 000204F0 ??1CRelationDst@@QAE@XZ
        386  181 00020480 ??1CRelationSrc@@QAE@XZ
        387  182 000A82A0 ??1CRenderModel@@QAE@XZ
        388  183 000270D0 ??1CSerial@@UAE@XZ
        389  184 000FF310 ??1CSessionState@@QAE@XZ
        390  185 00036280 ??1CSetFPUPrecision@@QAE@XZ
        391  186 000792B0 ??1CShader@@UAE@XZ
        392  187 000EC880 ??1CShadingInfo@@QAE@XZ
        393  188 000796D0 ??1CShadowMap@@QAE@XZ
        394  189 000278C0 ??1CShell@@QAE@XZ
        395  18A 001626B0 ??1CSkeleton@@UAE@XZ
        396  18B 00084DD0 ??1CSoundData@@UAE@XZ
        397  18C 00086220 ??1CSoundLibrary@@QAE@XZ
        398  18D 0008D2F0 ??1CSoundObject@@QAE@XZ
        399  18E 0006DDF0 ??1CSoundTimerHandler@@UAE@XZ
        400  18F 0001C9C0 ??1CSunstormWorldVariables@@QAE@XZ
        401  190 000B54B0 ??1CSurfaceType@@QAE@XZ
        402  191 00032D70 ??1CTCriticalSection@@QAE@XZ
        403  192 000014E0 ??1CTFileName@@QAE@XZ
        404  193 00030430 ??1CTFileStream@@UAE@XZ
        405  194 000312D0 ??1CTMemoryStream@@UAE@XZ
        406  195 00032F10 ??1CTSingleLock@@QAE@XZ
        407  196 00030130 ??1CTStream@@UAE@XZ
        408  197 00001300 ??1CTString@@QAE@XZ
        409  198 00169C10 ??1CTerrain@@QAE@XZ
        410  199 000B6180 ??1CTerrainArchive@@UAE@XZ
        411  19A 0016B910 ??1CTerrainLayer@@QAE@XZ
        412  19B 00175E80 ??1CTerrainTile@@QAE@XZ
        413  19C 000B53A0 ??1CTextureBlending@@QAE@XZ
        414  19D 0007AED0 ??1CTextureData@@UAE@XZ
        415  19E 0008F8F0 ??1CTextureDataInfo@@QAE@XZ
        416  19F 000177E0 ??1CTextureObject@@QAE@XZ
        417  1A0 000B5320 ??1CTextureTransformation@@QAE@XZ
        418  1A1 0008FEB0 ??1CThumbnailSettings@@QAE@XZ
        419  1A2 000336E0 ??1CTimer@@QAE@XZ
        420  1A3 00084520 ??1CViewPort@@QAE@XZ
        421  1A4 000B71E0 ??1CWorld@@QAE@XZ
        422  1A5 0000F090 ??1ControlAxisInfo@@QAE@XZ
        423  1A6 0001A710 ??1EBegin@@UAE@XZ
        424  1A7 0001ADB0 ??1EBlock@@UAE@XZ
        425  1A8 0001B6F0 ??1EDamage@@UAE@XZ
        426  1A9 0001BA50 ??1EDeath@@UAE@XZ
        427  1AA 0001B340 ??1EFirstWorldBase@@UAE@XZ
        428  1AB 0001A470 ??1EInternal@@UAE@XZ
        429  1AC 0001AB80 ??1EPass@@UAE@XZ
        430  1AD 0001B260 ??1EPostLevelChange@@UAE@XZ
        431  1AE 0001B160 ??1EPreLevelChange@@UAE@XZ
        432  1AF 0001A630 ??1EReturn@@UAE@XZ
        433  1B0 0001BDD0 ??1ERoundEvent@@UAE@XZ
        434  1B1 0001B500 ??1EStreamInit@@UAE@XZ
        435  1B2 0001BCD0 ??1ETakingBreath@@UAE@XZ
        436  1B3 0001B060 ??1ETeleport@@UAE@XZ
        437  1B4 0001A7F0 ??1ETimer@@UAE@XZ
        438  1B5 0001A950 ??1ETouch@@UAE@XZ
        439  1B6 0001A550 ??1EVoid@@UAE@XZ
        440  1B7 0001B420 ??1EWaterTooDeep@@UAE@XZ
        441  1B8 0001AF80 ??1EWouldFall@@UAE@XZ
        442  1B9 000A0240 ??1MappingSurface@@QAE@XZ
        443  1BA 000215C0 ??1MeshLOD@@QAE@XZ
        444  1BB 00022060 ??1MeshMorphMap@@QAE@XZ
        445  1BC 00021C80 ??1MeshSurface@@QAE@XZ
        446  1BD 00021AA0 ??1MeshUVMap@@QAE@XZ
        447  1BE 00021F80 ??1MeshWeightMap@@QAE@XZ
        448  1BF 000A0090 ??1ModelMipInfo@@QAE@XZ
        449  1C0 000A0010 ??1ModelPolygon@@QAE@XZ
        450  1C1 00020AC0 ??1PolygonsPerPatch@@QAE@XZ
        451  1C2 00019CD0 ??1SkeletonLOD@@QAE@XZ
        452  1C3 0001A090 ??4CAnimSet@@QAEAAV0@ABV0@@Z
        453  1C4 00015D30 ??4CAnyProjection3D@@QAEXABV0@@Z
        454  1C5 00016320 ??4CAnyProjection3D@@QAEXABVCIsometricProjection3D@@@Z
        455  1C6 00016850 ??4CAnyProjection3D@@QAEXABVCParallelProjection3D@@@Z
        456  1C7 00016590 ??4CAnyProjection3D@@QAEXABVCPerspectiveProjection3D@@@Z
        457  1C8 000160C0 ??4CAnyProjection3D@@QAEXABVCSimpleProjection3D@@@Z
        458  1C9 00164020 ??4CArrayHolder@@QAEXABV0@@Z
        459  1CA 0008FB80 ??4CAttachedModel@@QAEAAV0@ABV0@@Z
        460  1CB 00020D60 ??4CAttachedModelPosition@@QAEAAV0@ABV0@@Z
        461  1CC 0008FCE0 ??4CAttachedSound@@QAEAAV0@ABV0@@Z
        462  1CD 00021220 ??4CAttachmentModelObject@@QAEAAV0@ABV0@@Z
        463  1CE 000B5930 ??4CAutoPrecacheModel@@QAEAAV0@ABV0@@Z
        464  1CF 000B5920 ??4CAutoPrecacheSound@@QAEAAV0@ABV0@@Z
        465  1D0 000B5940 ??4CAutoPrecacheTexture@@QAEAAV0@ABV0@@Z
        466  1D1 00019A70 ??4CBoolDefaultFalse@@QAEAAV0@ABV0@@Z
        467  1D2 00018C90 ??4CBrush3D@@QAEAAV0@ABV0@@Z
        468  1D3 000B5B10 ??4CBrushArchive@@QAEAAV0@AAV0@@Z
        469  1D4 00017990 ??4CBrushBase@@QAEAAV0@ABV0@@Z
        470  1D5 00017AD0 ??4CBrushEdge@@QAEAAV0@ABV0@@Z
        471  1D6 000188D0 ??4CBrushMip@@QAEAAV0@AAV0@@Z
        472  1D7 00017A60 ??4CBrushPlane@@QAEAAV0@ABV0@@Z
        473  1D8 000184D0 ??4CBrushPolygon@@QAEAAV0@ABV0@@Z
        474  1D9 00017D00 ??4CBrushPolygonEdge@@QAEAAV0@ABV0@@Z
        475  1DA 00018080 ??4CBrushPolygonTexture@@QAEAAV0@ABV0@@Z
        476  1DB 00132220 ??4CBrushSector@@QAEAAV0@ABV0@@Z
        477  1DC 00017D80 ??4CBrushShadowLayer@@QAEAAV0@ABV0@@Z
        478  1DD 00017EC0 ??4CBrushShadowMap@@QAEAAV0@ABV0@@Z
        479  1DE 00017A10 ??4CBrushVertex@@QAEAAV0@ABV0@@Z
        480  1DF 00077BF0 ??4CCastRay@@QAEAAV0@ABV0@@Z
        481  1E0 00001000 ??4CChangeable@@QAEAAV0@ABV0@@Z
        482  1E1 00006260 ??4CChangeableRT@@QAEAAV0@ABV0@@Z
        483  1E2 00001C60 ??4CChunkID@@QAEAAV0@ABV0@@Z
        484  1E3 0008D1C0 ??4CCollisionInfo@@QAEAAV0@ABV0@@Z
        485  1E4 0001DE80 ??4CCommunicationInterface@@QAEAAV0@ABV0@@Z
        486  1E5 000B5580 ??4CContentType@@QAEAAV0@ABV0@@Z
        487  1E6 00007900 ??4CCrypt@@QAEAAV0@ABV0@@Z
        488  1E7 0008A5F0 ??4CDLLEntityClass@@QAEAAV0@ABV0@@Z
        489  1E8 0000AD80 ??4CDisplayMode@@QAEAAV0@ABV0@@Z
        490  1E9 0000F630 ??4CDrawPort@@QAEAAV0@ABV0@@Z
        491  1EA 00090160 ??4CEditModel@@QAEAAV0@AAV0@@Z
        492  1EB 0001BE80 ??4CEntity@@UAEAAV0@AAV0@@Z
        493  1EC 000B5800 ??4CEntityClass@@QAEAAV0@ABV0@@Z
        494  1ED 0008A580 ??4CEntityComponent@@QAEAAV0@ABV0@@Z
        495  1EE 00019B00 ??4CEntityEvent@@QAEAAV0@ABV0@@Z
        496  1EF 0008A4A0 ??4CEntityProperty@@QAEAAV0@ABV0@@Z
        497  1F0 000B5670 ??4CEnvironmentType@@QAEAAV0@ABV0@@Z
        498  1F1 00104620 ??4CFieldSettings@@QAEAAV0@ABV0@@Z
        499  1F2 00001870 ??4CFileNameNode@@QAEAAV0@ABV0@@Z
        500  1F3 00051690 ??4CFontCharData@@QAEAAV0@ABV0@@Z
        501  1F4 00051860 ??4CFontData@@QAEAAV0@ABV0@@Z
        502  1F5 00016F60 ??4CGfxLibrary@@QAEAAV0@ABV0@@Z
        503  1F6 000B5700 ??4CIlluminationType@@QAEAAV0@ABV0@@Z
        504  1F7 00051660 ??4CImageInfo@@QAEAAV0@ABV0@@Z
        505  1F8 00001A90 ??4CInfoFile@@QAEAAV0@AAV0@@Z
        506  1F9 0000F300 ??4CInput@@QAEAAV0@ABV0@@Z
        507  1FA 00043550 ??4CIntersector@@QAEAAV0@ABV0@@Z
        508  1FB 00014920 ??4CIsometricProjection3D@@QAEAAV0@ABV0@@Z
        509  1FC 000EC8B0 ??4CLastPositions@@QAEAAV0@ABV0@@Z
        510  1FD 00104700 ??4CLensFlareType@@QAEAAV0@ABV0@@Z
        511  1FE 00077CD0 ??4CLightSource@@QAEAAV0@ABV0@@Z
        512  1FF 000016C0 ??4CListHead@@QAEXABV0@@Z
        513  200 00001720 ??4CListNode@@QAEAAV0@ABV0@@Z
        514  201 0001C400 ??4CLiveEntity@@QAEAAV0@AAV0@@Z
        515  202 00013B20 ??4CMappingDefinition@@QAEAAV0@ABV0@@Z
        516  203 00013AB0 ??4CMappingDefinitionUI@@QAEAAV0@ABV0@@Z
        517  204 0008F9E0 ??4CMappingUndo@@QAEAAV0@ABV0@@Z
        518  205 00013AE0 ??4CMappingVectors@@QAEAAV0@ABV0@@Z
        519  206 00022150 ??4CMesh@@QAEAAV0@ABV0@@Z
        520  207 0001D6C0 ??4CMessageDispatcher@@QAEAAV0@ABV0@@Z
        521  208 00020D80 ??4CMipInfo@@QAEAAV0@ABV0@@Z
        522  209 00020CE0 ??4CModelCollisionBox@@QAEAAV0@ABV0@@Z
        523  20A 0009C0E0 ??4CModelData@@QAEAAV0@ABV0@@Z
        524  20B 00020E80 ??4CModelInfo@@QAEAAV0@ABV0@@Z
        525  20C 00152210 ??4CModelInstance@@QAEXAAV0@@Z
        526  20D 00021060 ??4CModelObject@@QAEAAV0@ABV0@@Z
        527  20E 0002DA80 ??4CModelPatch@@QAEAAV0@ABV0@@Z
        528  20F 0008F780 ??4CModelRenderPrefs@@QAEAAV0@ABV0@@Z
        529  210 0008C410 ??4CMovableBrushEntity@@QAEAAV0@AAV0@@Z
        530  211 0008B150 ??4CMovableEntity@@QAEAAV0@AAV0@@Z
        531  212 0008BAE0 ??4CMovableModelEntity@@QAEAAV0@AAV0@@Z
        532  213 0008D0A0 ??4CMovingBox@@QAEAAV0@ABV0@@Z
        533  214 0008D070 ??4CMovingSphere@@QAEAAV0@ABV0@@Z
        534  215 000F6C50 ??4CNetworkMessage@@QAEXABV0@@Z
        535  216 0001D590 ??4CNetworkProvider@@QAEAAV0@ABV0@@Z
        536  217 0001D9A0 ??4CNetworkSession@@QAEAAV0@ABV0@@Z
        537  218 0001D730 ??4CNetworkTimerHandler@@QAEAAV0@ABV0@@Z
        538  219 00037D50 ??4CObject3D@@QAEAAV0@AAV0@@Z
        539  21A 00037500 ??4CObjectPolygon@@QAEAAV0@AAV0@@Z
        540  21B 000372E0 ??4CObjectPolygonEdge@@QAEAAV0@ABV0@@Z
        541  21C 00041040 ??4CObjectSector@@QAEAAV0@AAV0@@Z
        542  21D 001046A0 ??4COneLensFlare@@QAEAAV0@ABV0@@Z
        543  21E 00014E50 ??4CParallelProjection3D@@QAEAAV0@ABV0@@Z
        544  21F 000143E0 ??4CPerspectiveProjection3D@@QAEAAV0@ABV0@@Z
        545  220 00013B40 ??4CPlacement3D@@QAEAAV0@ABV0@@Z
        546  221 000B6510 ??4CPlayerAction@@QAEAAV0@ABV0@@Z
        547  222 000EC770 ??4CPlayerBuffer@@QAEAAV0@ABV0@@Z
        548  223 00128C90 ??4CPlayerCharacter@@QAEAAV0@ABV0@@Z
        549  224 0008C9A0 ??4CPlayerEntity@@QAEAAV0@AAV0@@Z
        550  225 000EC660 ??4CPlayerSource@@QAEAAV0@ABV0@@Z
        551  226 0008F7C0 ??4CProgressRoutines@@QAEAAV0@ABV0@@Z
        552  227 00013EA0 ??4CProjection3D@@QAEAAV0@ABV0@@Z
        553  228 0001C640 ??4CRationalEntity@@QAEAAV0@AAV0@@Z
        554  229 0008F7A0 ??4CRenderModel@@QAEAAV0@ABV0@@Z
        555  22A 000015B0 ??4CSerial@@QAEAAV0@ABV0@@Z
        556  22B 00036150 ??4CSetFPUPrecision@@QAEAAV0@ABV0@@Z
        557  22C 0001A340 ??4CShader@@QAEAAV0@ABV0@@Z
        558  22D 000EC820 ??4CShadingInfo@@QAEAAV0@ABV0@@Z
        559  22E 000178B0 ??4CShadowMap@@QAEAAV0@ABV0@@Z
        560  22F 0000C7F0 ??4CShell@@QAEAAV0@AAV0@@Z
        561  230 00015370 ??4CSimpleProjection3D@@QAEAAV0@ABV0@@Z
        562  231 00037840 ??4CSimpleProjection3D_DOUBLE@@QAEAAV0@ABV0@@Z
        563  232 00019E10 ??4CSkeleton@@QAEAAV0@ABV0@@Z
        564  233 00084BD0 ??4CSoundData@@QAEAAV0@ABV0@@Z
        565  234 000214A0 ??4CSoundObject@@QAEAAV0@ABV0@@Z
        566  235 0006DDE0 ??4CSoundTimerHandler@@QAEAAV0@ABV0@@Z
        567  236 0001D350 ??4CSunstormWorldVariables@@QAEAAV0@ABV0@@Z
        568  237 000B5450 ??4CSurfaceType@@QAEAAV0@ABV0@@Z
        569  238 000014B0 ??4CTFileName@@QAEAAV0@ABV0@@Z
        570  239 0000B380 ??4CTFileName@@QAEAAV0@PBD@Z
        571  23A 00001440 ??4CTFileName@@QAEXABVCTString@@@Z
        572  23B 00001370 ??4CTString@@QAEAAV0@ABV0@@Z
        573  23C 00001340 ??4CTString@@QAEAAV0@PBD@Z
        574  23D 00019680 ??4CTerrain@@QAEAAV0@AAV0@@Z
        575  23E 000B6010 ??4CTerrainArchive@@QAEAAV0@AAV0@@Z
        576  23F 0016BFF0 ??4CTerrainLayer@@QAEXABV0@@Z
        577  240 00019220 ??4CTerrainTile@@QAEAAV0@ABV0@@Z
        578  241 000B5360 ??4CTextureBlending@@QAEAAV0@ABV0@@Z
        579  242 00017620 ??4CTextureData@@QAEAAV0@ABV0@@Z
        580  243 0008F8A0 ??4CTextureDataInfo@@QAEAAV0@ABV0@@Z
        581  244 000177D0 ??4CTextureObject@@QAEAAV0@ABV0@@Z
        582  245 000B52E0 ??4CTextureTransformation@@QAEAAV0@ABV0@@Z
        583  246 0008FDF0 ??4CThumbnailSettings@@QAEAAV0@ABV0@@Z
        584  247 00002740 ??4CTimer@@QAEAAV0@ABV0@@Z
        585  248 00006270 ??4CUpdateable@@QAEAAV0@ABV0@@Z
        586  249 00006280 ??4CUpdateableRT@@QAEAAV0@ABV0@@Z
        587  24A 0000F8B0 ??4CViewPort@@QAEAAV0@ABV0@@Z
        588  24B 000C6D20 ??4CWorldRenderPrefs@@QAEAAV0@ABV0@@Z
        589  24C 0000F050 ??4ControlAxisInfo@@QAEAAU0@ABU0@@Z
        590  24D 0001A700 ??4EBegin@@QAEAAV0@ABV0@@Z
        591  24E 0001AD50 ??4EBlock@@QAEAAV0@ABV0@@Z
        592  24F 0001B640 ??4EDamage@@QAEAAV0@ABV0@@Z
        593  250 0001B9A0 ??4EDeath@@QAEAAV0@ABV0@@Z
        594  251 0001B330 ??4EFirstWorldBase@@QAEAAV0@ABV0@@Z
        595  252 0001A460 ??4EInternal@@QAEAAV0@ABV0@@Z
        596  253 0001AB30 ??4EPass@@QAEAAV0@ABV0@@Z
        597  254 0001B240 ??4EPostLevelChange@@QAEAAV0@ABV0@@Z
        598  255 0001B140 ??4EPreLevelChange@@QAEAAV0@ABV0@@Z
        599  256 0001A620 ??4EReturn@@QAEAAV0@ABV0@@Z
        600  257 0001BDB0 ??4ERoundEvent@@QAEAAV0@ABV0@@Z
        601  258 0001B4F0 ??4EStreamInit@@QAEAAV0@ABV0@@Z
        602  259 0001BCB0 ??4ETakingBreath@@QAEAAV0@ABV0@@Z
        603  25A 0001B050 ??4ETeleport@@QAEAAV0@ABV0@@Z
        604  25B 0001A7E0 ??4ETimer@@QAEAAV0@ABV0@@Z
        605  25C 0001A8F0 ??4ETouch@@QAEAAV0@ABV0@@Z
        606  25D 0001A540 ??4EVoid@@QAEAAV0@ABV0@@Z
        607  25E 0001B410 ??4EWaterTooDeep@@QAEAAV0@ABV0@@Z
        608  25F 0001AF70 ??4EWouldFall@@QAEAAV0@ABV0@@Z
        609  260 00020960 ??4MappingSurface@@QAEAAU0@ABU0@@Z
        610  261 000217B0 ??4MeshLOD@@QAEAAU0@ABU0@@Z
        611  262 00021FE0 ??4MeshMorphMap@@QAEAAU0@ABU0@@Z
        612  263 000219E0 ??4MeshNormal@@QAEAAU0@ABU0@@Z
        613  264 00021B20 ??4MeshSurface@@QAEAAU0@ABU0@@Z
        614  265 00021AD0 ??4MeshTexCoord@@QAEAAU0@ABU0@@Z
        615  266 00021ED0 ??4MeshTriangle@@QAEAAU0@ABU0@@Z
        616  267 00021A20 ??4MeshUVMap@@QAEAAU0@ABU0@@Z
        617  268 000219B0 ??4MeshVertex@@QAEAAU0@ABU0@@Z
        618  269 00022090 ??4MeshVertexMorph@@QAEAAU0@ABU0@@Z
        619  26A 00021FB0 ??4MeshVertexWeight@@QAEAAU0@ABU0@@Z
        620  26B 00021F00 ??4MeshWeightMap@@QAEAAU0@ABU0@@Z
        621  26C 000207A0 ??4ModelFrameInfo@@QAEAAU0@ABU0@@Z
        622  26D 00020760 ??4ModelFrameVertex16@@QAEAAU0@ABU0@@Z
        623  26E 00020730 ??4ModelFrameVertex16_old@@QAEAAU0@ABU0@@Z
        624  26F 00020710 ??4ModelFrameVertex8@@QAEAAU0@ABU0@@Z
        625  270 0002DB10 ??4ModelMipInfo@@QAEAAU0@ABU0@@Z
        626  271 00020800 ??4ModelPolygon@@QAEAAU0@ABU0@@Z
        627  272 000207E0 ??4ModelPolygonVertex@@QAEAAU0@ABU0@@Z
        628  273 000207C0 ??4ModelTextureVertex@@QAEAAU0@ABU0@@Z
        629  274 00020B90 ??4PolygonsPerPatch@@QAEAAU0@ABU0@@Z
        630  275 00019D50 ??4SkeletonBone@@QAEAAU0@ABU0@@Z
        631  276 00019C40 ??4SkeletonLOD@@QAEAAU0@ABU0@@Z
        632  277 00020C60 ??4TransformedVertexData@@QAEAAU0@ABU0@@Z
        633  278 0004C0B0 ??5@YAAAVCTStream@@AAV0@AAVCMappingDefinition@@@Z
        634  279 00042A30 ??5@YAAAVCTStream@@AAV0@AAVCPlacement3D@@@Z
        635  27A 00128FF0 ??5@YAAAVCTStream@@AAV0@AAVCPlayerCharacter@@@Z
        636  27B 0000B600 ??5@YAAAVCTStream@@AAV0@AAVCTFileName@@@Z
        637  27C 00009230 ??5@YAAAVCTStream@@AAV0@AAVCTString@@@Z
        638  27D 000B63B0 ??5CNetworkMessage@@QAEAAV0@AAC@Z
        639  27E 000B6350 ??5CNetworkMessage@@QAEAAV0@AAE@Z
        640  27F 000B6390 ??5CNetworkMessage@@QAEAAV0@AAF@Z
        641  280 000B6330 ??5CNetworkMessage@@QAEAAV0@AAG@Z
        642  281 000B6370 ??5CNetworkMessage@@QAEAAV0@AAJ@Z
        643  282 000B6310 ??5CNetworkMessage@@QAEAAV0@AAK@Z
        644  283 000B62F0 ??5CNetworkMessage@@QAEAAV0@AAM@Z
        645  284 000F6DD0 ??5CNetworkMessage@@QAEAAV0@AAVCTString@@@Z
        646  285 000B63D0 ??5CNetworkMessage@@QAEAAV0@AAW4NetworkMessageType@@@Z
        647  286 00001E30 ??5CTStream@@QAEAAV0@AAC@Z
        648  287 00001DD0 ??5CTStream@@QAEAAV0@AAE@Z
        649  288 00001E10 ??5CTStream@@QAEAAV0@AAF@Z
        650  289 00001DB0 ??5CTStream@@QAEAAV0@AAG@Z
        651  28A 00001E50 ??5CTStream@@QAEAAV0@AAH@Z
        652  28B 00001DF0 ??5CTStream@@QAEAAV0@AAJ@Z
        653  28C 00001D90 ??5CTStream@@QAEAAV0@AAK@Z
        654  28D 00001D40 ??5CTStream@@QAEAAV0@AAM@Z
        655  28E 00001D60 ??5CTStream@@QAEAAV0@AAN@Z
        656  28F 00128FD0 ??6@YAAAVCTStream@@AAV0@AAVCPlayerCharacter@@@Z
        657  290 0004C0D0 ??6@YAAAVCTStream@@AAV0@ABVCMappingDefinition@@@Z
        658  291 00042A50 ??6@YAAAVCTStream@@AAV0@ABVCPlacement3D@@@Z
        659  292 0000B6B0 ??6@YAAAVCTStream@@AAV0@ABVCTFileName@@@Z
        660  293 000092F0 ??6@YAAAVCTStream@@AAV0@ABVCTString@@@Z
        661  294 000B64D0 ??6CNetworkMessage@@QAEAAV0@ABC@Z
        662  295 000B6470 ??6CNetworkMessage@@QAEAAV0@ABE@Z
        663  296 000B64B0 ??6CNetworkMessage@@QAEAAV0@ABF@Z
        664  297 000B6450 ??6CNetworkMessage@@QAEAAV0@ABG@Z
        665  298 000B6490 ??6CNetworkMessage@@QAEAAV0@ABJ@Z
        666  299 000B6430 ??6CNetworkMessage@@QAEAAV0@ABK@Z
        667  29A 000B63F0 ??6CNetworkMessage@@QAEAAV0@ABM@Z
        668  29B 000B6410 ??6CNetworkMessage@@QAEAAV0@ABN@Z
        669  29C 000F6E90 ??6CNetworkMessage@@QAEAAV0@ABVCTString@@@Z
        670  29D 000B64F0 ??6CNetworkMessage@@QAEAAV0@ABW4NetworkMessageType@@@Z
        671  29E 00001F60 ??6CTStream@@QAEAAV0@ABC@Z
        672  29F 00001F00 ??6CTStream@@QAEAAV0@ABE@Z
        673  2A0 00001F40 ??6CTStream@@QAEAAV0@ABF@Z
        674  2A1 00001EE0 ??6CTStream@@QAEAAV0@ABG@Z
        675  2A2 00001F80 ??6CTStream@@QAEAAV0@ABH@Z
        676  2A3 00001F20 ??6CTStream@@QAEAAV0@ABJ@Z
        677  2A4 00001EC0 ??6CTStream@@QAEAAV0@ABK@Z
        678  2A5 00001E70 ??6CTStream@@QAEAAV0@ABM@Z
        679  2A6 00001E90 ??6CTStream@@QAEAAV0@ABN@Z
        680  2A7 000084E0 ??8@YAHPBDABVCTString@@@Z
        681  2A8 00001CC0 ??8CChunkID@@QBEHABV0@@Z
        682  2A9 00013BB0 ??8CPlacement3D@@QBEHABV0@@Z
        683  2AA 00128FA0 ??8CPlayerCharacter@@QBEHABV0@@Z
        684  2AB 000084A0 ??8CTString@@QBEHABV0@@Z
        685  2AC 000084C0 ??8CTString@@QBEHPBD@Z
        686  2AD 0009D1D0 ??8MappingSurface@@QBEHABU0@@Z
        687  2AE 00008540 ??9@YAHPBDABVCTString@@@Z
        688  2AF 00036F90 ??9@YAXAAV?$Matrix@N$02$02@@ABV?$Vector@M$02@@@Z
        689  2B0 00001CE0 ??9CChunkID@@QBEHABV0@@Z
        690  2B1 00008500 ??9CTString@@QBEHABV0@@Z
        691  2B2 00008520 ??9CTString@@QBEHPBD@Z
        692  2B3 00015D20 ??BCAnyProjection3D@@QAEPAVCProjection3D@@XZ
        693  2B4 00001C50 ??BCChunkID@@QAEPADXZ
        694  2B5 00001C40 ??BCChunkID@@QBEPBDXZ
        695  2B6 00001330 ??BCTString@@QBEPBDXZ
        696  2B7 00015D10 ??CCAnyProjection3D@@QAEPAVCProjection3D@@XZ
        697  2B8 00008630 ??H@YA?AVCTString@@PBDABV0@@Z
        698  2B9 00008560 ??HCTString@@QBE?AV0@ABV0@@Z
        699  2BA 00008700 ??YCTString@@QAEAAV0@ABV0@@Z
        700  2BB 00036DC0 ??_6@YAXAAV?$Matrix@N$02$02@@ABV?$Vector@M$02@@@Z
        701  2BC 00037160 ??_6@YAXAAV?$Vector@M$02@@ABV?$Matrix@N$02$02@@@Z
        702  2BD 001D7758 ??_7CAnimSet@@6B@
        703  2BE 001D7728 ??_7CBrush3D@@6B@
        704  2BF 001D8A68 ??_7CBrushArchive@@6B@
        705  2C0 001D770C ??_7CBrushBase@@6B@
        706  2C1 001D7710 ??_7CBrushShadowMap@@6B@
        707  2C2 001D8994 ??_7CEditModel@@6B@
        708  2C3 001D7830 ??_7CEntity@@6B@
        709  2C4 001D8A48 ??_7CEntityClass@@6B@
        710  2C5 001D7730 ??_7CEntityEvent@@6B@
        711  2C6 001D7DD8 ??_7CFontData@@6B@
        712  2C7 001D75EC ??_7CIsometricProjection3D@@6B@
        713  2C8 001D7960 ??_7CLiveEntity@@6B@
        714  2C9 001D7C10 ??_7CMesh@@6B@
        715  2CA 001D89D0 ??_7CModelData@@6B@
        716  2CB 001D86E4 ??_7CMovableBrushEntity@@6B@
        717  2CC 001D844C ??_7CMovableEntity@@6B@
        718  2CD 001D8598 ??_7CMovableModelEntity@@6B@
        719  2CE 001D7BE4 ??_7CNetworkTimerHandler@@6B@
        720  2CF 001D7638 ??_7CParallelProjection3D@@6B@
        721  2D0 001D75A0 ??_7CPerspectiveProjection3D@@6B@
        722  2D1 001D8830 ??_7CPlayerEntity@@6B@
        723  2D2 001D7554 ??_7CProjection3D@@6B@
        724  2D3 001D7A90 ??_7CRationalEntity@@6B@
        725  2D4 001D7480 ??_7CSerial@@6B@
        726  2D5 001D7778 ??_7CShader@@6B@
        727  2D6 001D76F4 ??_7CShadowMap@@6B@
        728  2D7 001D7684 ??_7CSimpleProjection3D@@6B@
        729  2D8 001D7738 ??_7CSkeleton@@6B@
        730  2D9 001D7FB0 ??_7CSoundData@@6B@
        731  2DA 001D7EA0 ??_7CSoundTimerHandler@@6B@
        732  2DB 001D7BD8 ??_7CSunstormWorldVariables@@6B@
        733  2DC 001D74B8 ??_7CTFileStream@@6B@
        734  2DD 001D74D0 ??_7CTMemoryStream@@6B@
        735  2DE 001D74A0 ??_7CTStream@@6B@
        736  2DF 001D772C ??_7CTerrain@@6B@
        737  2E0 001D8A88 ??_7CTerrainArchive@@6B@
        738  2E1 001D76D0 ??_7CTextureData@@6B@
        739  2E2 001D77B0 ??_7EBegin@@6B@
        740  2E3 001D77D0 ??_7EBlock@@6B@
        741  2E4 001D7810 ??_7EDamage@@6B@
        742  2E5 001D7818 ??_7EDeath@@6B@
        743  2E6 001D77F8 ??_7EFirstWorldBase@@6B@
        744  2E7 001D7798 ??_7EInternal@@6B@
        745  2E8 001D77C8 ??_7EPass@@6B@
        746  2E9 001D77F0 ??_7EPostLevelChange@@6B@
        747  2EA 001D77E8 ??_7EPreLevelChange@@6B@
        748  2EB 001D77A8 ??_7EReturn@@6B@
        749  2EC 001D7828 ??_7ERoundEvent@@6B@
        750  2ED 001D7808 ??_7EStreamInit@@6B@
        751  2EE 001D7820 ??_7ETakingBreath@@6B@
        752  2EF 001D77E0 ??_7ETeleport@@6B@
        753  2F0 001D77B8 ??_7ETimer@@6B@
        754  2F1 001D77C0 ??_7ETouch@@6B@
        755  2F2 001D77A0 ??_7EVoid@@6B@
        756  2F3 001D7800 ??_7EWaterTooDeep@@6B@
        757  2F4 001D77D8 ??_7EWouldFall@@6B@
        758  2F5 0023D1C0 ??_C@_00A@?$AA@
        759  2F6 0022618C ??_C@_04GCEF@SV05?$AA@
        760  2F7 00224500 ??_C@_04GPCF@?5?5?5?5?$AA@
        761  2F8 00226178 ??_C@_0BE@BLJF@Bogus?5Test?5Map?5Name?$AA@
        762  2F9 0022615C ??_C@_0BL@OMNH@Bogus?5Test?5Map?5Description?$AA@
        763  2FA 00001C80 ??_FCChunkID@@QAEXXZ
        764  2FB 0000F730 ??_FCDrawPort@@QAEXXZ
        765  2FC 00043570 ??_FCIntersector@@QAEXXZ
        766  2FD 000027A0 ??_FCTimer@@QAEXXZ
        767  2FE 00042A70 ?AbsoluteToRelative@CPlacement3D@@QAEXABV1@@Z
        768  2FF 00042B20 ?AbsoluteToRelativeSmooth@CPlacement3D@@QAEXABV1@@Z
        769  300 000F9A80 ?Activate@CPlayerBuffer@@QAEXJ@Z
        770  301 000991F0 ?ActivateNextCollisionBox@CEditModel@@QAEXXZ
        771  302 000991E0 ?ActivatePreviousCollisionBox@CEditModel@@QAEXXZ
        772  303 00012040 ?AddAfter@CListNode@@QAEXAAV1@@Z
        773  304 000D04A0 ?AddAllSectorsOfBrush@CCastRay@@QAEXPAVCBrush3D@@@Z
        774  305 00166C10 ?AddAllTilesToRegenQueue@CTerrain@@QAEXXZ
        775  306 00153070 ?AddAnimSet_t@CModelInstance@@QAEXVCTFileName@@@Z
        776  307 00003C60 ?AddAnimation@CAnimData@@QAEXXZ
        777  308 0014C1A0 ?AddAnimation@CAnimSet@@QAEXPAUAnimation@@@Z
        778  309 00153930 ?AddAnimation@CModelInstance@@QAEXJKMJM@Z
        779  30A 0011D770 ?AddAttachment@CEntity@@QAEXJKK@Z
        780  30B 0011D7C0 ?AddAttachment@CEntity@@QAEXJVCTFileName@@0@Z
        781  30C 000A2E70 ?AddAttachmentModel@CModelObject@@QAEPAVCAttachmentModelObject@@J@Z
        782  30D 00012060 ?AddBefore@CListNode@@QAEXAAV1@@Z
        783  30E 001528C0 ?AddChild@CModelInstance@@QAEXPAV1@J@Z
        784  30F 00152490 ?AddColisionBox@CModelInstance@@QAEXVCTString@@V?$Vector@M$02@@1@Z
        785  310 000990E0 ?AddCollisionBox@CEditModel@@QAEXXZ
        786  311 00050820 ?AddColors@@YAKKK@Z
        787  312 001686F0 ?AddDefaultLayer_t@CTerrain@@QAEXXZ
        788  313 00117E30 ?AddDependentsToPrediction@CEntity@@UAEXXZ
        789  314 00043580 ?AddEdge@CIntersector@@QAEXMMMM@Z
        790  315 00083880 ?AddEffectSource@CTextureEffectGlobal@@QAEXKJJJJ@Z
        791  316 000C5B90 ?AddEntityToCollisionGrid@CWorld@@QAEXPAVCEntity@@ABV?$AABBox@M$02@@@Z
        792  317 0000EED0 ?AddEntry@CInfoFile@@QAEXABVCTString@@0@Z
        793  318 001293D0 ?AddEquipment@CPlayerCharacter@@QAEHE@Z
        794  319 00062A40 ?AddExtension_OGL@CGfxLibrary@@AAEXKPBD@Z
        795  31A 00019260 ?AddFlag@CTerrain@@QAEXK@Z
        796  31B 000191F0 ?AddFlag@CTerrainTile@@QAEXK@Z
        797  31C 001542B0 ?AddFlagsToPlayingAnim@CModelInstance@@QAEHJK@Z
        798  31D 0007AF80 ?AddFrame_t@CTextureData@@QAEXPBVCImageInfo@@@Z
        799  31E 0012BC00 ?AddFromObject3D_t@CBrushMip@@QAEPAVCBrushSector@@AAVCObject3D@@@Z
        800  31F 00033710 ?AddHandler@CTimer@@QAEXPAVCTimerHandler@@@Z
        801  320 00011E00 ?AddHead@CListHead@@QAEXAAVCListNode@@@Z
        802  321 000103C0 ?AddJoystickAbbilities@CInput@@QAEXJ@Z
        803  322 0013E830 ?AddLayer@CLightSource@@QAEXAAVCBrushPolygon@@@Z
        804  323 00166450 ?AddLayer_t@CTerrain@@QAEAAVCTerrainLayer@@VCTFileName@@W4LayerType@@H@Z
        805  324 000F1F30 ?AddManagers@CNetworkLibrary@@QAEHK@Z
        806  325 0001CF20 ?AddMapAnimal@CSunstormWorldVariables@@QAEXABVCMapAnimal@@@Z
        807  326 0001CFE0 ?AddMapAnimal@CSunstormWorldVariables@@QAEXXZ
        808  327 0014F950 ?AddMeshLod@CMesh@@QAEXAAUMeshLOD@@@Z
        809  328 00152EA0 ?AddMesh_t@CModelInstance@@QAEXVCTFileName@@@Z
        810  329 0012BB00 ?AddMipBrushFromObject3D_t@CBrush3D@@QAEXAAVCObject3D@@M@Z
        811  32A 000957A0 ?AddMipModel@CEditModel@@AAEXPAVCObject3D@@@Z
        812  32B 000F6070 ?AddNetGraphValue@CNetworkLibrary@@QAEXW4NetGraphEntryType@@M@Z
        813  32C 00084D50 ?AddObjectLink@CSoundData@@QAEXAAVCSoundObject@@@Z
        814  32D 000C7140 ?AddObjectToBrush@CWorld@@QAEXAAVCObject3D@@AAVCEntity@@@Z
        815  32E 000F5D20 ?AddPlayer_t@CNetworkLibrary@@QAEPAVCPlayerSource@@AAVCPlayerCharacter@@@Z
        816  32F 00126DA0 ?AddPosition@CLastPositions@@QAEXABV?$Vector@M$02@@@Z
        817  330 0001C290 ?AddReference@CEntity@@QAEXXZ
        818  331 00122680 ?AddReference@CEntityClass@@QAEXXZ
        819  332 00085320 ?AddReference@CSoundData@@QAEXXZ
        820  333 00020610 ?AddRelationPair@@YAXAAVCRelationSrc@@AAVCRelationDst@@@Z
        821  334 000206B0 ?AddRelationPairHeadHead@@YAXAAVCRelationSrc@@AAVCRelationDst@@@Z
        822  335 00020660 ?AddRelationPairTailTail@@YAXAAVCRelationSrc@@AAVCRelationDst@@@Z
        823  336 0010F270 ?AddSKAModelInstance@@YAHPAVCModelInstance@@ABV?$Vector@M$02@@ABV?$Matrix@M$02$02@@1MEHH@Z
        824  337 0010F490 ?AddSKAModelInstance@@YAHPAVCModelInstance@@ABV?$Vector@M$02@@ABV?$Matrix@M$02$02@@ABMMEH@Z
        825  338 000D03C0 ?AddSector@CCastRay@@QAEXPAVCBrushSector@@@Z
        826  339 000D0600 ?AddSectorsAroundEntity@CCastRay@@QAEXPAVCEntity@@@Z
        827  33A 00154460 ?AddSimpleShadow@CModelInstance@@QAEXMABV?$Plane@M$02@@@Z
        828  33B 000AA5F0 ?AddSimpleShadow@CModelObject@@QAEXAAVCRenderModel@@MABV?$Plane@M$02@@@Z
        829  33C 000B1B50 ?AddSimpleShadow_View@CModelObject@@AAEXAAVCRenderModel@@MABV?$Plane@M$02@@@Z
        830  33D 00153010 ?AddSkeleton_t@CModelInstance@@QAEXVCTFileName@@@Z
        831  33E 00162AF0 ?AddSkletonLod@CSkeleton@@QAEXAAUSkeletonLOD@@@Z
        832  33F 00088D30 ?AddSoundAware@CSoundLibrary@@QAEXAAVCSoundData@@@Z
        833  340 00011E20 ?AddTail@CListHead@@QAEXAAVCListNode@@@Z
        834  341 00055530 ?AddTexture@CDrawPort@@QBEXMMMMK@Z
        835  342 00055D60 ?AddTexture@CDrawPort@@QBEXMMMMKMMMMKMMMMKMMMMK@Z
        836  343 00055800 ?AddTexture@CDrawPort@@QBEXMMMMMMMMK@Z
        837  344 00092D40 ?AddTexture_t@CEditModel@@QAEPAVCTextureDataInfo@@ABVCTFileName@@JJ@Z
        838  345 00153150 ?AddTexture_t@CModelInstance@@QAEXVCTFileName@@VCTString@@PAUMeshInstance@@@Z
        839  346 00166B40 ?AddTileToRegenQueue@CTerrain@@QAEXJ@Z
        840  347 000B7F30 ?AddTimer@CWorld@@QAEXPAVCRationalEntity@@@Z
        841  348 000F2410 ?AddTimerHandler@CNetworkLibrary@@QAEXXZ
        842  349 00122CA0 ?AddToCRCTable@CEntityClass@@UAEXXZ
        843  34A 00126460 ?AddToCRCTable@CEntityComponent@@QAEXXZ
        844  34B 000274A0 ?AddToCRCTable@CSerial@@UAEXXZ
        845  34C 0017F400 ?AddToMovers@CMovableEntity@@QAEXXZ
        846  34D 0017F430 ?AddToMoversDuringMoving@CMovableEntity@@QAEXXZ
        847  34E 000B9260 ?AddToPrediction@CEntity@@QAEXXZ
        848  34F 000340A0 ?AddTranslationTable_t@@YAXABVCTFileName@@@Z
        849  350 000340C0 ?AddTranslationTablesDir_t@@YAXABVCTFileName@@0@Z
        850  351 00055AE0 ?AddTriangle@CDrawPort@@QBEXMMMMMMK@Z
        851  352 00176160 ?AddTriangle@CTerrainTile@@QAEXJJJ@Z
        852  353 00176520 ?AddVertex@CTerrainTile@@QAEXJJ@Z
        853  354 000E6AC0 ?AddressToString@@YA?AVCTString@@K@Z
        854  355 0011DB30 ?AdjustBones@CEntity@@UAEXXZ
        855  356 00050120 ?AdjustColor@@YAKKJJ@Z
        856  357 00050240 ?AdjustGamma@@YAKKM@Z
        857  358 000B7F90 ?AdjustLateTimers@CWorld@@QAEXM@Z
        858  359 00117A40 ?AdjustMipFactor@CEntity@@UAEXAAM@Z
        859  35A 00154E70 ?AdjustMipFactor@CModelInstance@@QAEHAAMAAKMM@Z
        860  35B 0011DB40 ?AdjustShaderParams@CEntity@@UAEXJPAVCShader@@AAUShaderParams@@JPAVCModelInstance@@@Z
        861  35C 00117A30 ?AdjustShadingParameters@CEntity@@UAEHAAV?$Vector@M$02@@AAK1@Z
        862  35D 000F9C50 ?AdvanceActionBuffer@CPlayerBuffer@@QAEXXZ
        863  35E 00012100 ?AllocMemory@@YAPAXJ@Z
        864  35F 00012130 ?AllocMemoryAligned@@YAPAXJJ@Z
        865  360 00165C70 ?AllocateHeightMap@CTerrain@@QAEXJJ@Z
        866  361 00030270 ?AllocateVirtualMemory@CTStream@@QAEXK@Z
        867  362 00181BB0 ?AllowForGroundPolygon@CMovableEntity@@UAEHPAVCBrushPolygon@@@Z
        868  363 00036A20 ?AnglesToDirectionVector@@YAXABV?$Vector@M$02@@AAV1@@Z
        869  364 0018BB10 ?ApplyAction@CPlayerEntity@@UAEXABVCPlayerAction@@M@Z
        870  365 000A1E70 ?ApplySurfaceToPolygon@CModelObject@@QAEXPAVCDrawPort@@PAVCProjection3D@@JJJK@Z
        871  366 000A1280 ?ApplySurfaceToPolygonsInRegion@CModelObject@@QAEXPAVCDrawPort@@PAVCProjection3D@@V?$AABBox@J$01@@JK@Z
        872  367 0001D8B0 ?ArcheryFlags@CNetworkSession@@QAEAAJXZ
        873  368 00037AA0 ?ArePolygonsPlanar@CObject3D@@QAEHXZ
        874  369 00015AD0 ?AspectRatioL@CProjection3D@@QAEAAMXZ
        875  36A 00015AE0 ?AspectRatioR@CProjection3D@@QBEABMXZ
        876  36B 0002ED80 ?AtEOF@CTStream@@QAEHXZ
        877  36C 00076AE0 ?Attach@CImageInfo@@QAEXPAEJJJ@Z
        878  36D 000A0C00 ?AutoMipModelingOff@CModelObject@@QAEXXZ
        879  36E 000A0BF0 ?AutoMipModelingOn@CModelObject@@QAEXXZ
        880  36F 000A2A90 ?AutoSetAttachments@CModelObject@@QAEXXZ
        881  370 000A2740 ?AutoSetTextures@CModelObject@@QAEXXZ
        882  371 0009C3F0 ?BBoxAllShow@CModelRenderPrefs@@QAEXH@Z
        883  372 0009C3E0 ?BBoxAllVisible@CModelRenderPrefs@@QAEHXZ
        884  373 0009C3D0 ?BBoxFrameShow@CModelRenderPrefs@@QAEXH@Z
        885  374 0009C3C0 ?BBoxFrameVisible@CModelRenderPrefs@@QAEHXZ
        886  375 0003BEC0 ?BatchLoading_t@CObject3D@@SAXH@Z
        887  376 00015C70 ?BeIsometric@CAnyProjection3D@@QAEXXZ
        888  377 00015C90 ?BeParallel@CAnyProjection3D@@QAEXXZ
        889  378 00015C80 ?BePerspective@CAnyProjection3D@@QAEXXZ
        890  379 00015C60 ?BeSimple@CAnyProjection3D@@QAEXXZ
        891  37A 000A7E50 ?BeginModelRenderingMask@@YAXAAVCAnyProjection3D@@PAEJJ@Z
        892  37B 000A7B80 ?BeginModelRenderingView@@YAXAAVCAnyProjection3D@@PAVCDrawPort@@@Z
        893  37C 0004CB80 ?Benchmark@CGfxLibrary@@QAEXPAVCViewPort@@PAVCDrawPort@@@Z
        894  37D 0004E6C0 ?Benchmark_Info@CGfxLibrary@@QAEXPAVCViewPort@@PAVCDrawPort@@AAVBenchmarkInfo@@@Z
        895  37E 000E7440 ?Bind_t@CCommunicationInterface@@QAEXKK@Z
        896  37F 000560E0 ?BlendScreen@CDrawPort@@QAEXXZ
        897  380 000E78B0 ?Broadcast_Receive@CCommunicationInterface@@QAEHPAXAAJAAVCAddress@@@Z
        898  381 000E7820 ?Broadcast_Send@CCommunicationInterface@@QAEXPBXJAAVCAddress@@@Z
        899  382 000E7930 ?Broadcast_Update_t@CCommunicationInterface@@QAEXXZ
        900  383 00168770 ?BuildQuadTree@CTerrain@@QAEXXZ
        901  384 00168570 ?BuildTerrainData@CTerrain@@QAEXXZ
        902  385 00006AD0 ?CON_DiscardLastLineTimes@@YAXXZ
        903  386 00006B00 ?CON_GetBuffer@@YAPBDXZ
        904  387 00006B30 ?CON_GetBufferSize@@YAJXZ
        905  388 00006A90 ?CON_GetLastLine@@YA?AVCTString@@J@Z
        906  389 00006A30 ?CON_NumberOfLinesAfter@@YAJM@Z
        907  38A 00006980 ?CPrintF@@YAXPBDZZ
        908  38B 00006A10 ?CPutString@@YAXPBD@Z
        909  38C 000C75F0 ?CSGAdd@CWorld@@QAEXAAVCEntity@@AAV1@0ABVCPlacement3D@@@Z
        910  38D 0003A670 ?CSGAddMaterial@CObject3D@@QAEXAAV1@0@Z
        911  38E 0003A810 ?CSGAddMaterialReverse@CObject3D@@QAEXAAV1@0@Z
        912  38F 000C7660 ?CSGAddReverse@CWorld@@QAEXAAVCEntity@@AAV1@0ABVCPlacement3D@@@Z
        913  390 0003A460 ?CSGAddRooms@CObject3D@@QAEXAAV1@0@Z
        914  391 0003AD00 ?CSGJoinSectors@CObject3D@@QAEXAAV1@0@Z
        915  392 000C76D0 ?CSGRemove@CWorld@@QAEXAAVCEntity@@AAV1@0ABVCPlacement3D@@@Z
        916  393 0003A9B0 ?CSGRemoveMaterial@CObject3D@@QAEXAAV1@0@Z
        917  394 0003AEA0 ?CSGSplitPolygons@CObject3D@@QAEXAAV1@0@Z
        918  395 0003AB60 ?CSGSplitSectors@CObject3D@@QAEXAAV1@0@Z
        919  396 000797A0 ?Cache@CShadowMap@@QAEXJ@Z
        920  397 0012A440 ?CacheAllShadowmaps@CBrushArchive@@QAEXXZ
        921  398 00188400 ?CacheNearPolygons@CMovableEntity@@QAEXXZ
        922  399 0016FC70 ?Calculate2dHitPoint@@YA?AUPoint@@PAVCTerrain@@AAV?$Vector@M$02@@@Z
        923  39A 00162A50 ?CalculateAbsoluteTransformations@CSkeleton@@QAEXJ@Z
        924  39B 00130410 ?CalculateArea@CBrushPolygon@@QAENXZ
        925  39C 0012F440 ?CalculateBoundingBox@CBrushPolygon@@QAEXXZ
        926  39D 00129960 ?CalculateBoundingBoxes@CBrush3D@@QAEXXZ
        927  39E 00129CB0 ?CalculateBoundingBoxes@CBrushArchive@@QAEXXZ
        928  39F 0012E770 ?CalculateBoundingBoxes@CBrushMip@@QAEXAAVCSimpleProjection3D_DOUBLE@@@Z
        929  3A0 001324D0 ?CalculateBoundingBoxes@CBrushSector@@QAEXAAVCSimpleProjection3D_DOUBLE@@@Z
        930  3A1 00129970 ?CalculateBoundingBoxesForOneMip@CBrush3D@@QAEXPAVCBrushMip@@@Z
        931  3A2 000B8140 ?CalculateDirectionalShadows@CWorld@@QAEXXZ
        932  3A3 00151A80 ?CalculateFadeFactor@@YAMAAUAnimList@@@Z
        933  3A4 001775B0 ?CalculateLOD@CTerrainTile@@QAEJXZ
        934  3A5 000961A0 ?CalculateMappingForMips@CEditModel@@QAEXXZ
        935  3A6 000B81E0 ?CalculateNonDirectionalShadows@CWorld@@QAEXXZ
        936  3A7 00097EE0 ?CalculatePatchesPerPolygon@CEditModel@@QAEXXZ
        937  3A8 0016FD60 ?CalculateShadingTexCoords@@YA?AV?$Vector@M$01@@PAVCTerrain@@AAV?$Vector@M$02@@@Z
        938  3A9 00095EB0 ?CalculateUnwrappedMapping@CEditModel@@QAEXAAVCObject3D@@00@Z
        939  3AA 00133210 ?CalculateVolume@CBrushSector@@QAENXZ
        940  3AB 0001BEB0 ?Call@CEntity@@QAEXJJHABVCEntityEvent@@@Z
        941  3AC 001216E0 ?Call@CRationalEntity@@QAEXJJHABVCEntityEvent@@@Z
        942  3AD 0001DFF0 ?CallProgressHook_t@@YAXM@Z
        943  3AE 000C8BF0 ?CanCopySectors@CWorld@@QAEHAAV?$CSelection@VCBrushSector@@$00@@@Z
        944  3AF 000C8870 ?CanJoinAllPossiblePolygons@CWorld@@QAEHAAV?$CSelection@VCBrushPolygon@@$0BAA@@@@Z
        945  3B0 000C8510 ?CanJoinPolygons@CWorld@@QAEHAAV?$CSelection@VCBrushPolygon@@$0BAA@@@@Z
        946  3B1 000C80A0 ?CanJoinSectors@CWorld@@QAEHAAV?$CSelection@VCBrushSector@@$00@@@Z
        947  3B2 000D0BB0 ?Cast@CCastRay@@QAEXPAVCWorld@@@Z
        948  3B3 000D0F10 ?CastRay@CWorld@@QAEXAAVCCastRay@@@Z
        949  3B4 0004BE60 ?Center@CMappingDefinition@@QAEXABVCMappingVectors@@ABV?$Vector@M$02@@@Z
        950  3B5 000FA1A0 ?ChangeCharacter@CPlayerSource@@QAEXAAVCPlayerCharacter@@@Z
        951  3B6 00188DA0 ?ChangeCollisionBoxIndexNow@CMovableModelEntity@@QAEHJ@Z
        952  3B7 00188D40 ?ChangeCollisionBoxIndexNow@CMovableModelEntity@@QAEHJPAPAVCEntity@@@Z
        953  3B8 00188E30 ?ChangeCollisionBoxIndexWhenPossible@CMovableModelEntity@@QAEXJ@Z
        954  3B9 000F3D00 ?ChangeLevel@CNetworkLibrary@@QAEXABVCTFileName@@HJ@Z
        955  3BA 000F3DB0 ?ChangeLevel_internal@CNetworkLibrary@@QAEXXZ
        956  3BB 001536A0 ?ChangeParent@CModelInstance@@QAEXPAV1@0@Z
        957  3BC 000174A0 ?ChangeSize@CTextureData@@QAEXJ@Z
        958  3BD 0014DF70 ?ChangeSurfaceShader_t@@YAXAAUMeshSurface@@VCTString@@@Z
        959  3BE 00175F60 ?ChangeTileArrays@CTerrainTile@@QAEJJ@Z
        960  3BF 000EC6F0 ?Character@CPlayerBuffer@@QAEAAVCPlayerCharacter@@XZ
        961  3C0 0018BB30 ?CharacterChanged@CPlayerEntity@@UAEXABVCPlayerCharacter@@@Z
        962  3C1 00122720 ?CheckClassProperties@CEntityClass@@QAEXXZ
        963  3C2 00118060 ?CheckEventPrediction@CEntity@@QAEHKK@Z
        964  3C3 001042E0 ?CheckEventPrediction@CSessionState@@QAEHPAVCEntity@@KK@Z
        965  3C4 00188D20 ?CheckForCollisionNow@CMovableModelEntity@@QAEHJPAPAVCEntity@@@Z
        966  3C5 00010180 ?CheckJoystick@CInput@@QAEHJ@Z
        967  3C6 00137830 ?CheckLayersUpToDate@CBrushShadowMap@@UAEXXZ
        968  3C7 00079F70 ?CheckLayersUpToDate@CShadowMap@@UAEXXZ
        969  3C8 000F5FA0 ?CheckVersion_t@CNetworkLibrary@@QAEXAAVCTStream@@HAAH@Z
        970  3C9 001200F0 ?ChecksumForSync@CEntity@@UAEXAAKJ@Z
        971  3CA 0017EA80 ?ChecksumForSync@CMovableEntity@@UAEXAAKJ@Z
        972  3CB 00188B50 ?ChecksumForSync@CMovableModelEntity@@UAEXAAKJ@Z
        973  3CC 000F80F0 ?ChecksumForSync@CPlayerAction@@QAEXAAK@Z
        974  3CD 0018BB60 ?ChecksumForSync@CPlayerEntity@@UAEXAAKJ@Z
        975  3CE 00121080 ?ChecksumForSync@CRationalEntity@@UAEXAAKJ@Z
        976  3CF 00100AF0 ?ChecksumForSync@CSessionState@@QAEXAAKJ@Z
        977  3D0 0007AF20 ?ClampMipLevel@CTextureData@@QBEJM@Z
        978  3D1 0016A0D0 ?Clean@CTerrain@@QAEXH@Z
        979  3D2 000ED5D0 ?CleanText@CNetworkLibrary@@QAE?AVCTString@@V2@@Z
        980  3D3 00002B00 ?Clear@CAnimData@@UAEXXZ
        981  3D4 0014D190 ?Clear@CAnimSet@@UAEXXZ
        982  3D5 00164520 ?Clear@CArrayHolder@@QAEXXZ
        983  3D6 00092F90 ?Clear@CAttachedModel@@QAEXXZ
        984  3D7 00020D50 ?Clear@CAttachedModelPosition@@QAEXXZ
        985  3D8 0008FC20 ?Clear@CAttachedSound@@QAEXXZ
        986  3D9 00129730 ?Clear@CBrush3D@@QAEXXZ
        987  3DA 00017AB0 ?Clear@CBrushEdge@@QAEXXZ
        988  3DB 0012E520 ?Clear@CBrushMip@@QAEXXZ
        989  3DC 00017A40 ?Clear@CBrushPlane@@QAEXXZ
        990  3DD 0012FF20 ?Clear@CBrushPolygon@@QAEXXZ
        991  3DE 00017AF0 ?Clear@CBrushPolygonEdge@@QAEXXZ
        992  3DF 00018020 ?Clear@CBrushPolygonTexture@@QAEXXZ
        993  3E0 001330F0 ?Clear@CBrushSector@@QAEXXZ
        994  3E1 000179B0 ?Clear@CBrushVertex@@QAEXXZ
        995  3E2 0008D0F0 ?Clear@CCollisionInfo@@QAEXXZ
        996  3E3 0001BF10 ?Clear@CEntity@@QAEXXZ
        997  3E4 001226B0 ?Clear@CEntityClass@@UAEXXZ
        998  3E5 0005EC60 ?Clear@CFontData@@UAEXXZ
        999  3E6 00076B10 ?Clear@CImageInfo@@QAEXXZ
       1000  3E7 00043520 ?Clear@CIntersector@@QAEXXZ
       1001  3E8 00011DC0 ?Clear@CListHead@@QAEXXZ
       1002  3E9 00151150 ?Clear@CMesh@@UAEXXZ
       1003  3EA 00020C80 ?Clear@CModelCollisionBox@@QAEXXZ
       1004  3EB 0009C7B0 ?Clear@CModelData@@UAEXXZ
       1005  3EC 00154930 ?Clear@CModelInstance@@QAEXXZ
       1006  3ED 000379F0 ?Clear@CObject3D@@QAEXXZ
       1007  3EE 00037360 ?Clear@CObjectPolygon@@QAEXXZ
       1008  3EF 000372D0 ?Clear@CObjectPolygonEdge@@QAEXXZ
       1009  3F0 000F8010 ?Clear@CPlayerAction@@QAEXXZ
       1010  3F1 00027130 ?Clear@CSerial@@UAEXXZ
       1011  3F2 000792E0 ?Clear@CShader@@UAEXXZ
       1012  3F3 00079B50 ?Clear@CShadowMap@@QAEXXZ
       1013  3F4 001632D0 ?Clear@CSkeleton@@UAEXXZ
       1014  3F5 00085260 ?Clear@CSoundData@@UAEXXZ
       1015  3F6 00086A00 ?Clear@CSoundLibrary@@QAEXXZ
       1016  3F7 00001310 ?Clear@CTString@@QAEXXZ
       1017  3F8 0016A270 ?Clear@CTerrain@@QAEXXZ
       1018  3F9 0016CDD0 ?Clear@CTerrainLayer@@QAEXXZ
       1019  3FA 00175E90 ?Clear@CTerrainTile@@QAEXXZ
       1020  3FB 0007D4F0 ?Clear@CTextureData@@UAEXXZ
       1021  3FC 000B7750 ?Clear@CWorld@@QAEXXZ
       1022  3FD 0009FF40 ?Clear@ModelMipInfo@@QAEXXZ
       1023  3FE 00020B50 ?Clear@PolygonsPerPatch@@QAEXXZ
       1024  3FF 0009CAE0 ?ClearAnimations@CModelData@@QAEXXZ
       1025  400 0016A000 ?ClearArrays@CTerrain@@QAEXXZ
       1026  401 00084EA0 ?ClearBuffer@CSoundData@@QAEXXZ
       1027  402 000C5AD0 ?ClearCollisionGrid@CWorld@@QAEXXZ
       1028  403 00169EB0 ?ClearEdgeMap@CTerrain@@QAEXXZ
       1029  404 00169E40 ?ClearHeightMap@CTerrain@@QAEXXZ
       1030  405 00011B60 ?ClearInput@CInput@@QAEXXZ
       1031  406 0000FAB0 ?ClearKeyPressed@CInput@@QAEXJ@Z
       1032  407 0016A080 ?ClearLayers@CTerrain@@QAEXXZ
       1033  408 00086AC0 ?ClearLibrary@CSoundLibrary@@QAEXXZ
       1034  409 000B9B50 ?ClearMarkedForUseFlag@CWorld@@QAEXXZ
       1035  40A 00184440 ?ClearMovingTemp@CMovableEntity@@UAEXXZ
       1036  40B 00121040 ?ClearMovingTemp@CRationalEntity@@UAEXXZ
       1037  40C 00181F60 ?ClearNextPosition@CMovableEntity@@QAEXXZ
       1038  40D 0016A040 ?ClearQuadTree@CTerrain@@QAEXXZ
       1039  40E 00166CD0 ?ClearRegenList@CTerrain@@QAEXXZ
       1040  40F 000CEC30 ?ClearSectorList@CCastRay@@QAEXXZ
       1041  410 00169E70 ?ClearShadowMap@CTerrain@@QAEXXZ
       1042  411 0017E970 ?ClearTemporaryData@CMovableEntity@@QAEXXZ
       1043  412 00169F90 ?ClearTiles@CTerrain@@QAEXXZ
       1044  413 0008A630 ?ClearToDefault@@YAXAAH@Z
       1045  414 0008A620 ?ClearToDefault@@YAXAAJ@Z
       1046  415 0008A730 ?ClearToDefault@@YAXAAK@Z
       1047  416 0008A610 ?ClearToDefault@@YAXAAM@Z
       1048  417 0008A740 ?ClearToDefault@@YAXAAPAVCModelData@@@Z
       1049  418 0008A750 ?ClearToDefault@@YAXAAPAVCTextureData@@@Z
       1050  419 0008A760 ?ClearToDefault@@YAXAAV?$AABBox@M$02@@@Z
       1051  41A 0008A6A0 ?ClearToDefault@@YAXAAV?$Plane@M$02@@@Z
       1052  41B 0008A6F0 ?ClearToDefault@@YAXAAV?$Vector@M$02@@@Z
       1053  41C 0008A640 ?ClearToDefault@@YAXAAVCEntityPointer@@@Z
       1054  41D 0008A670 ?ClearToDefault@@YAXAAVCTString@@@Z
       1055  41E 0001A7A0 ?ClearToDefault@@YAXAAVEBegin@@@Z
       1056  41F 0001AE90 ?ClearToDefault@@YAXAAVEBlock@@@Z
       1057  420 0001B7E0 ?ClearToDefault@@YAXAAVEDamage@@@Z
       1058  421 0001BB60 ?ClearToDefault@@YAXAAVEDeath@@@Z
       1059  422 0001B3D0 ?ClearToDefault@@YAXAAVEFirstWorldBase@@@Z
       1060  423 0001A500 ?ClearToDefault@@YAXAAVEInternal@@@Z
       1061  424 0001AC60 ?ClearToDefault@@YAXAAVEPass@@@Z
       1062  425 0001B2F0 ?ClearToDefault@@YAXAAVEPostLevelChange@@@Z
       1063  426 0001B1F0 ?ClearToDefault@@YAXAAVEPreLevelChange@@@Z
       1064  427 0001A6C0 ?ClearToDefault@@YAXAAVEReturn@@@Z
       1065  428 0001BE60 ?ClearToDefault@@YAXAAVERoundEvent@@@Z
       1066  429 0001B590 ?ClearToDefault@@YAXAAVEStreamInit@@@Z
       1067  42A 0001BD60 ?ClearToDefault@@YAXAAVETakingBreath@@@Z
       1068  42B 0001B0F0 ?ClearToDefault@@YAXAAVETeleport@@@Z
       1069  42C 0001A880 ?ClearToDefault@@YAXAAVETimer@@@Z
       1070  42D 0001AA30 ?ClearToDefault@@YAXAAVETouch@@@Z
       1071  42E 0001A5E0 ?ClearToDefault@@YAXAAVEVoid@@@Z
       1072  42F 0001B4B0 ?ClearToDefault@@YAXAAVEWaterTooDeep@@@Z
       1073  430 0001B010 ?ClearToDefault@@YAXAAVEWouldFall@@@Z
       1074  431 0001B5B0 ?ClearToDefault@@YAXAAW4DamageType@@@Z
       1075  432 00169EE0 ?ClearTopMaps@CTerrain@@QAEXXZ
       1076  433 000E88D0 ?Client_Clear@CCommunicationInterface@@QAEXXZ
       1077  434 000E8520 ?Client_Close@CCommunicationInterface@@QAEXXZ
       1078  435 000E8430 ?Client_Init_t@CCommunicationInterface@@QAEXK@Z
       1079  436 000E82C0 ?Client_Init_t@CCommunicationInterface@@QAEXPAD@Z
       1080  437 000E8930 ?Client_IsConnected@CCommunicationInterface@@QAEHXZ
       1081  438 000E85E0 ?Client_OpenLocal@CCommunicationInterface@@QAEXXZ
       1082  439 000E8670 ?Client_OpenNet_t@CCommunicationInterface@@QAEXK@Z
       1083  43A 000E8AB0 ?Client_PeekSize_Reliable@CCommunicationInterface@@QAEXAAJ0@Z
       1084  43B 000E8A40 ?Client_Receive_Reliable@CCommunicationInterface@@QAEHAAVCTStream@@@Z
       1085  43C 000E89D0 ?Client_Receive_Reliable@CCommunicationInterface@@QAEHPAXAAJ@Z
       1086  43D 000E8B50 ?Client_Receive_Unreliable@CCommunicationInterface@@QAEHPAXAAJ@Z
       1087  43E 000E8960 ?Client_Send_Reliable@CCommunicationInterface@@QAEXPBXJ@Z
       1088  43F 000E8AE0 ?Client_Send_Unreliable@CCommunicationInterface@@QAEXPBXJ@Z
       1089  440 000E8BC0 ?Client_Update@CCommunicationInterface@@QAEHXZ
       1090  441 00044BE0 ?ClipLine@CIsometricProjection3D@@UBEKAAV?$Vector@M$02@@0@Z
       1091  442 00046380 ?ClipLine@CParallelProjection3D@@UBEKAAV?$Vector@M$02@@0@Z
       1092  443 000481D0 ?ClipLine@CPerspectiveProjection3D@@UBEKAAV?$Vector@M$02@@0@Z
       1093  444 000493D0 ?ClipLine@CSimpleProjection3D@@UBEKAAV?$Vector@M$02@@0@Z
       1094  445 000C4930 ?ClipMove@CWorld@@QAEXAAVCClipMove@@@Z
       1095  446 000E6CA0 ?Close@CCommunicationInterface@@QAEXXZ
       1096  447 00030970 ?Close@CTFileStream@@QAEXXZ
       1097  448 00084850 ?CloseCanvas@CViewPort@@QAEXH@Z
       1098  449 0004FC90 ?ColorToHSV@@YAXKAAE00@Z
       1099  44A 000A1D90 ?ColorizePolygon@CModelObject@@QAEXPAVCDrawPort@@PAVCProjection3D@@JJJH@Z
       1100  44B 000A1080 ?ColorizeRegion@CModelObject@@QAEXPAVCDrawPort@@PAVCProjection3D@@V?$AABBox@J$01@@JH@Z
       1101  44C 000302B0 ?CommitPage@CTStream@@QAEXJ@Z
       1102  44D 00001010 ?Compare@CTString@@QAEHPBD@Z
       1103  44E 00001070 ?Compare@CTString@@QAEHPBV1@@Z
       1104  44F 0004FEE0 ?CompareChroma@@YAHKK@Z
       1105  450 00001050 ?CompareNoCase@CTString@@QAEHPBD@Z
       1106  451 000010B0 ?CompareNoCase@CTString@@QAEHPBV1@@Z
       1107  452 00122FD0 ?ComponentForPointer@CDLLEntityClass@@QAEPAVCEntityComponent@@PAX@Z
       1108  453 00122E20 ?ComponentForPointer@CEntityClass@@QAEPAVCEntityComponent@@PAX@Z
       1109  454 00122F70 ?ComponentForTypeAndID@CDLLEntityClass@@QAEPAVCEntityComponent@@W4EntityComponentType@@J@Z
       1110  455 00120B40 ?ComponentForTypeAndID@CEntity@@QAEPAVCEntityComponent@@KK@Z
       1111  456 00122E00 ?ComponentForTypeAndID@CEntityClass@@QAEPAVCEntityComponent@@W4EntityComponentType@@J@Z
       1112  457 000045A0 ?ContinueAnim@CAnimObject@@QAEXXZ
       1113  458 000D0E50 ?ContinueCast@CCastRay@@QAEXPAVCWorld@@@Z
       1114  459 000D0F20 ?ContinueCast@CWorld@@QAEXAAVCCastRay@@@Z
       1115  45A 0003CE10 ?ConvertArraysToO3D@CObject3D@@QAEXXZ
       1116  45B 00004270 ?Copy@CAnimObject@@QAEXAAV1@@Z
       1117  45C 00129770 ?Copy@CBrush3D@@QAEXAAV1@MH@Z
       1118  45D 0012E220 ?Copy@CBrushMip@@QAEXAAV1@MH@Z
       1119  45E 0008D120 ?Copy@CCollisionInfo@@QAEXAAV1@@Z
       1120  45F 00124110 ?Copy@CEntity@@UAEXAAV1@K@Z
       1121  460 00120BC0 ?Copy@CLiveEntity@@UAEXAAVCEntity@@K@Z
       1122  461 001545E0 ?Copy@CModelInstance@@QAEXAAV1@@Z
       1123  462 000A0510 ?Copy@CModelObject@@QAEXAAV1@@Z
       1124  463 0017E6A0 ?Copy@CMovableEntity@@UAEXAAVCEntity@@K@Z
       1125  464 000EB9A0 ?Copy@CNetworkSession@@QAEXABV1@@Z
       1126  465 0018BA20 ?Copy@CPlayerEntity@@UAEXAAVCEntity@@K@Z
       1127  466 00121220 ?Copy@CRationalEntity@@UAEXAAVCEntity@@K@Z
       1128  467 0008D390 ?Copy@CSoundObject@@QAEXAAV1@@Z
       1129  468 00169C00 ?Copy@CTerrain@@QAEXAAV1@@Z
       1130  469 0016C000 ?Copy@CTerrainLayer@@QAEXABV1@@Z
       1131  46A 0007D6C0 ?Copy@CTextureObject@@QAEXAAV1@@Z
       1132  46B 001250A0 ?CopyAllEntitiesExceptOne@CWorld@@QAEXAAV1@AAVCEntity@@ABVCPlacement3D@@@Z
       1133  46C 0011AE20 ?CopyCollisionInfo@CEntity@@QAEXAAV1@@Z
       1134  46D 0002F950 ?CopyDictionary@CTStream@@QAEXAAV1@@Z
       1135  46E 00124960 ?CopyEntities@CWorld@@QAEXAAV1@AAV?$CDynamicContainer@VCEntity@@@@AAV?$CSelection@VCEntity@@$00@@ABVCPlacement3D@@@Z
       1136  46F 001255A0 ?CopyEntitiesToPredictors@CWorld@@QAEXAAV?$CDynamicContainer@VCEntity@@@@@Z
       1137  470 00125250 ?CopyEntityInWorld@CWorld@@QAEPAVCEntity@@AAV2@ABVCPlacement3D@@H@Z
       1138  471 00124910 ?CopyEntityProperties@CEntity@@QAEXAAV1@K@Z
       1139  472 00117E70 ?CopyForPrediction@CEntity@@UAEXAAV1@@Z
       1140  473 0012FFE0 ?CopyFromSameSector@CBrushPolygon@@QAEXAAV1@@Z
       1141  474 001544A0 ?CopyMeshInstance@CModelInstance@@QAEXAAV1@@Z
       1142  475 00124EE0 ?CopyOneEntity@CWorld@@QAEPAVCEntity@@AAV2@ABVCPlacement3D@@@Z
       1143  476 00124590 ?CopyOneProperty@CEntity@@QAEXAAVCEntityProperty@@0AAV1@K@Z
       1144  477 001311F0 ?CopyPolygon@CBrushPolygon@@QAEAAV1@AAV1@@Z
       1145  478 000C92A0 ?CopyPolygonInWorld@CWorld@@QAEXAAVCBrushPolygon@@AAVCBrushSector@@JAAJ2@Z
       1146  479 000C9790 ?CopyPolygonsToBrush@CWorld@@QAEXAAV?$CSelection@VCBrushPolygon@@$0BAA@@@PAVCEntity@@@Z
       1147  47A 00130170 ?CopyProperties@CBrushPolygon@@QAEAAV1@AAV1@H@Z
       1148  47B 001302C0 ?CopyPropertiesWithoutTexture@CBrushPolygon@@QAEAAV1@AAV1@@Z
       1149  47C 000C8C30 ?CopySectors@CWorld@@QAEXAAV?$CSelection@VCBrushSector@@$00@@PAVCEntity@@H@Z
       1150  47D 000C6D80 ?CopySourceBrushSectorsToObject@CWorld@@QAEXAAVCEntity@@AAV?$CSelection@VCBrushSector@@$03@@ABVCPlacement3D@@AAVCObject3D@@2AAV?$AABBox@N$02@@@Z
       1151  47E 00017FC0 ?CopyTextureProperties@CBrushPolygonTexture@@QAEAAV1@AAV1@H@Z
       1152  47F 00130320 ?CopyTextures@CBrushPolygon@@QAEAAV1@AAV1@@Z
       1153  480 00099420 ?CorrectCollisionBoxSize@CEditModel@@QAEXXZ
       1154  481 00036420 ?Cos@@YAMM@Z
       1155  482 000027D0 ?CosFast@@YAMM@Z
       1156  483 00011EF0 ?Count@CListHead@@QBEJXZ
       1157  484 00097E60 ?CountPatches@CEditModel@@QAEJXZ
       1158  485 000F9B90 ?CreateActionPacket@CPlayerBuffer@@QAEXPAVCNetworkMessage@@J@Z
       1159  486 00002C20 ?CreateAnimations@CAnimData@@QAEXJVCTString@@JM@Z
       1160  487 000A86F0 ?CreateAttachment@CModelObject@@QAEHAAVCRenderModel@@AAVCAttachmentModelObject@@@Z
       1161  488 0012F5B0 ?CreateBSPPolygon@CBrushPolygon@@QAEXAAV?$BSPPolygon@N$02@@@Z
       1162  489 0012F6D0 ?CreateBSPPolygonNonPrecise@CBrushPolygon@@QAEXAAV?$BSPPolygon@N$02@@@Z
       1163  48A 00062BC0 ?CreateContext_OGL@CGfxLibrary@@AAEHPAUHDC__@@@Z
       1164  48B 0007B1C0 ?CreateEffectTexture@CTextureData@@QAEXJJJPAV1@K@Z
       1165  48C 000933D0 ?CreateEmptyAttachingSounds@CEditModel@@QAEXXZ
       1166  48D 001651D0 ?CreateEmptyTerrain_t@CTerrain@@QAEXJJ@Z
       1167  48E 00120B70 ?CreateEntity@CEntity@@QAEPAV1@ABVCPlacement3D@@J@Z
       1168  48F 000B7960 ?CreateEntity@CWorld@@QAEPAVCEntity@@ABVCPlacement3D@@PAVCEntityClass@@@Z
       1169  490 000B7BF0 ?CreateEntity_t@CWorld@@QAEPAVCEntity@@ABVCPlacement3D@@ABVCTFileName@@@Z
       1170  491 000CDF50 ?CreateGPSMap@CWorld@@QAEXABVCTFileName@@@Z
       1171  492 000F1910 ?CreateMachineGUID@CNetworkLibrary@@QAEXXZ
       1172  493 000968D0 ?CreateMipModels_t@CEditModel@@QAEXAAVCObject3D@@0JJ@Z
       1173  494 00151AE0 ?CreateModelInstance@@YAPAVCModelInstance@@VCTString@@@Z
       1174  495 0003E320 ?CreatePolygon@CObjectSector@@QAEPAVCObjectPolygon@@JQAJAAVCObjectMaterial@@KH@Z
       1175  496 0003DD30 ?CreatePolygon@CObjectSector@@QAEPAVCObjectPolygon@@JQAV?$Vector@N$02@@AAVCObjectMaterial@@KH@Z
       1176  497 000C9C40 ?CreatePolygon@CWorld@@QAEXAAV?$CSelection@VCBrushVertex@@$01@@@Z
       1177  498 000B96F0 ?CreatePredictors@CWorld@@QAEXXZ
       1178  499 00093E00 ?CreateScriptFile_t@CEditModel@@QAEXAAVCTFileName@@@Z
       1179  49A 00037E60 ?CreateSectorBSPs@CObject3D@@QAEXXZ
       1180  49B 00037A80 ?CreateSectorIndices@CObject3D@@QAEXXZ
       1181  49C 000E73B0 ?CreateSocket_t@CCommunicationInterface@@QAEXXZ
       1182  49D 000CB910 ?CreateStringTableDefaults@CWorld@@QAEXXZ
       1183  49E 0007DCC0 ?CreateTexture_t@@YAXABVCTFileName@@0JJH@Z
       1184  49F 0007DE70 ?CreateTexture_t@@YAXABVCTFileName@@JJH@Z
       1185  4A0 000733E0 ?CreateWindowCanvas@CGfxLibrary@@QAEXPAXPAPAVCViewPort@@PAPAVCDrawPort@@@Z
       1186  4A1 000734B0 ?CreateWorkCanvas@CGfxLibrary@@QAEXJJPAPAVCDrawPort@@@Z
       1187  4A2 000307A0 ?Create_t@CTFileStream@@QAEXABVCTFileName@@W4CreateMode@CTStream@@@Z
       1188  4A3 0007B0A0 ?Create_t@CTextureData@@QAEXPBVCImageInfo@@JJH@Z
       1189  4A4 000081C0 ?Crypt@CCrypt@@QAEHPADJ0@Z
       1190  4A5 00033880 ?CurrentTick@CTimer@@QBE?BMXZ
       1191  4A6 00238AD8 ?DamageType_enum@@3VCEntityPropertyEnumType@@A
       1192  4A7 00238A38 ?DamageType_values@@3PAVCEntityPropertyEnumValue@@A
       1193  4A8 000F9AB0 ?Deactivate@CPlayerBuffer@@QAEXXZ
       1194  4A9 000382F0 ?DebugDump@CObject3D@@QAEXXZ
       1195  4AA 000F3020 ?DebugSave@CNetworkLibrary@@QAEXXZ
       1196  4AB 00028E00 ?DeclareSymbol@CShell@@QAEXABVCTString@@PAX@Z
       1197  4AC 00030340 ?DecommitPage@CTStream@@QAEXJ@Z
       1198  4AD 000369E0 ?DecomposeRotationMatrix@@YAXAAV?$Vector@M$02@@ABV?$Matrix@M$02$02@@@Z
       1199  4AE 000368F0 ?DecomposeRotationMatrixNoSnap@@YAXAAV?$Vector@M$02@@ABV?$Matrix@M$02$02@@@Z
       1200  4AF 00007D80 ?DecryptFileA@CCrypt@@QAEHPAD0W4eCryptOwner@1@@Z
       1201  4B0 00002DB0 ?DefaultAnimation@CAnimData@@QAEXXZ
       1202  4B1 00003F20 ?DeleteAnimation@CAnimData@@QAEXJ@Z
       1203  4B2 00129510 ?DeleteBrushMip@CBrush3D@@QAEXPAVCBrushMip@@@Z
       1204  4B3 000098D0 ?DeleteChar@CTString@@QAEXJ@Z
       1205  4B4 00099150 ?DeleteCurrentCollisionBox@CEditModel@@QAEXXZ
       1206  4B5 00151B70 ?DeleteModelInstance@@YAXPAVCModelInstance@@@Z
       1207  4B6 000C9A20 ?DeletePolygons@CWorld@@QAEXAAV?$CDynamicContainer@VCBrushPolygon@@@@@Z
       1208  4B7 000B9830 ?DeletePredictors@CWorld@@QAEXXZ
       1209  4B8 000C9160 ?DeleteSectors@CWorld@@QAEXAAV?$CSelection@VCBrushSector@@$00@@H@Z
       1210  4B9 0012E0D0 ?DeleteSelectedSectors@CBrushMip@@QAEXAAV?$CSelection@VCBrushSector@@$03@@@Z
       1211  4BA 0001DB90 ?DemoTimer@CNetworkLibrary@@QAEMXZ
       1212  4BB 0001DB70 ?DemoVersionMinor@CNetworkLibrary@@QAEJXZ
       1213  4BC 00015C00 ?DepthBufferFarL@CProjection3D@@QAEAAMXZ
       1214  4BD 00015C10 ?DepthBufferFarR@CProjection3D@@QBEABMXZ
       1215  4BE 00015BE0 ?DepthBufferNearL@CProjection3D@@QAEAAMXZ
       1216  4BF 00015BF0 ?DepthBufferNearR@CProjection3D@@QBEABMXZ
       1217  4C0 00051550 ?DepthString@CDisplayMode@@QBE?AVCTString@@XZ
       1218  4C1 000500D0 ?DesaturateColor@@YAKK@Z
       1219  4C2 000182E0 ?Deselect@CBrushPolygon@@QAEXK@Z
       1220  4C3 000186E0 ?Deselect@CBrushSector@@QAEXK@Z
       1221  4C4 000179D0 ?Deselect@CBrushVertex@@QAEXK@Z
       1222  4C5 0001BF30 ?Deselect@CEntity@@QAEXK@Z
       1223  4C6 0009C390 ?DesreaseShadowQuality@CModelRenderPrefs@@QAEXXZ
       1224  4C7 00119470 ?Destroy@CEntity@@UAEXXZ
       1225  4C8 000C5AA0 ?DestroyCollisionGrid@CWorld@@QAEXXZ
       1226  4C9 000B7C80 ?DestroyEntities@CWorld@@QAEXAAV?$CSelection@VCEntity@@$00@@@Z
       1227  4CA 000B7C50 ?DestroyOneEntity@CWorld@@QAEXPAVCEntity@@@Z
       1228  4CB 00073490 ?DestroyWindowCanvas@CGfxLibrary@@QAEXPAVCViewPort@@@Z
       1229  4CC 00073560 ?DestroyWorkCanvas@CGfxLibrary@@QAEXPAVCDrawPort@@@Z
       1230  4CD 00076B00 ?Detach@CImageInfo@@QAEXXZ
       1231  4CE 0002FD90 ?DictionaryPreload_t@CTStream@@QAEXXZ
       1232  4CF 0002FA10 ?DictionaryReadBegin_t@CTStream@@QAEJXZ
       1233  4D0 0002FCC0 ?DictionaryReadEnd_t@CTStream@@QAEXXZ
       1234  4D1 0002F4C0 ?DictionaryWriteBegin_t@CTStream@@QAEXABVCTFileName@@J@Z
       1235  4D2 0002F670 ?DictionaryWriteEnd_t@CTStream@@QAEXXZ
       1236  4D3 00036B30 ?DirectionVectorToAngles@@YAXABV?$Vector@M$02@@AAV1@@Z
       1237  4D4 00036A80 ?DirectionVectorToAnglesNoSnap@@YAXABV?$Vector@M$02@@AAV1@@Z
       1238  4D5 00011320 ?DisableInput@CInput@@QAEXXZ
       1239  4D6 000338E0 ?DisableLerp@CTimer@@QAEXXZ
       1240  4D7 0002EB40 ?DisableStreamHandling@CTStream@@SAXXZ
       1241  4D8 000C69F0 ?DisableVisTweaks@CWorldRenderPrefs@@QAEXH@Z
       1242  4D9 001372C0 ?DiscardAllLayers@CBrushShadowMap@@QAEXXZ
       1243  4DA 000B8320 ?DiscardAllShadows@CWorld@@QAEXXZ
       1244  4DB 0011ADA0 ?DiscardCollisionInfo@CEntity@@QAEXXZ
       1245  4DC 0012FFA0 ?DiscardShadingInfos@CBrushPolygon@@QAEXXZ
       1246  4DD 00169E00 ?DiscardShadingInfos@CTerrain@@QAEXXZ
       1247  4DE 0013E750 ?DiscardShadowLayers@CLightSource@@QAEXXZ
       1248  4DF 00136600 ?DiscardShadows@CBrushPolygon@@QAEXXZ
       1249  4E0 001365D0 ?DiscardShadows@CBrushShadowLayer@@QAEXXZ
       1250  4E1 00137300 ?DiscardShadows@CBrushShadowMap@@QAEXXZ
       1251  4E2 0018BB20 ?Disconnect@CPlayerEntity@@UAEXXZ
       1252  4E3 000C71E0 ?DoCSGOperation@CWorld@@QAEXAAVCEntity@@AAV1@0ABVCPlacement3D@@P8CObject3D@@AEXAAV4@3@Z4@Z
       1253  4E4 0017D390 ?DoMoving@CMovableBrushEntity@@UAEXXZ
       1254  4E5 00187390 ?DoMoving@CMovableEntity@@UAEXXZ
       1255  4E6 00188D00 ?DoMoving@CMovableModelEntity@@UAEXXZ
       1256  4E7 0018BA10 ?DoMoving@CPlayerEntity@@UAEXXZ
       1257  4E8 00121060 ?DoMoving@CRationalEntity@@UAEXXZ
       1258  4E9 00052C80 ?DrawBorder@CDrawPort@@QBEXJJJJKK@Z
       1259  4EA 000973B0 ?DrawFilledSurface@CEditModel@@QAEXPAVCDrawPort@@JJMJJKK@Z
       1260  4EB 00052B50 ?DrawLine3D@CDrawPort@@QBEXV?$Vector@M$02@@0K@Z
       1261  4EC 00052940 ?DrawLine@CDrawPort@@QBEXJJJJKK@Z
       1262  4ED 00052800 ?DrawPoint3D@CDrawPort@@QBEXV?$Vector@M$02@@KM@Z
       1263  4EE 000526A0 ?DrawPoint@CDrawPort@@QBEXJJKJ@Z
       1264  4EF 00097160 ?DrawWireSurface@CEditModel@@QAEXPAVCDrawPort@@JJMJJKK@Z
       1265  4F0 00117940 ?DropsMarker@CEntity@@UBEHAAVCTFileName@@AAVCTString@@@Z
       1266  4F1 0017D410 ?Dummy@CMovableBrushEntity@@QAEHABVCEntityEvent@@@Z
       1267  4F2 00188450 ?Dummy@CMovableEntity@@QAEHABVCEntityEvent@@@Z
       1268  4F3 00188E70 ?Dummy@CMovableModelEntity@@QAEHABVCEntityEvent@@@Z
       1269  4F4 0018BC80 ?Dummy@CPlayerEntity@@QAEHABVCEntityEvent@@@Z
       1270  4F5 000F7280 ?Dump@CNetworkMessage@@QAEXXZ
       1271  4F6 000B76C0 ?DumpCachedModels@CWorld@@QAEXXZ
       1272  4F7 000CBEA0 ?DumpEntities@CWorld@@QAEXVCTFileName@@@Z
       1273  4F8 00103990 ?DumpSyncToFile_t@CSessionState@@QAEXAAVCTStream@@J@Z
       1274  4F9 001206D0 ?DumpSync_t@CEntity@@UAEXAAVCTStream@@J@Z
       1275  4FA 0017ED20 ?DumpSync_t@CMovableEntity@@UAEXAAVCTStream@@J@Z
       1276  4FB 00188C60 ?DumpSync_t@CMovableModelEntity@@UAEXAAVCTStream@@J@Z
       1277  4FC 000F8130 ?DumpSync_t@CPlayerAction@@QAEXAAVCTStream@@@Z
       1278  4FD 0018BBD0 ?DumpSync_t@CPlayerEntity@@UAEXAAVCTStream@@J@Z
       1279  4FE 001211A0 ?DumpSync_t@CRationalEntity@@UAEXAAVCTStream@@J@Z
       1280  4FF 00100F00 ?DumpSync_t@CSessionState@@QAEXAAVCTStream@@J@Z
       1281  500 00097CE0 ?EditAddPatch@CEditModel@@QAEHVCTFileName@@V?$Vector@J$01@@AAJ@Z
       1282  501 00097E30 ?EditRemoveAllPatches@CEditModel@@QAEXXZ
       1283  502 00097E00 ?EditRemovePatch@CEditModel@@QAEXJ@Z
       1284  503 001644D0 ?EmptyArrays@CArrayHolder@@QAEXJ@Z
       1285  504 00176140 ?EmptyTileArrays@CTerrainTile@@QAEXXZ
       1286  505 00011000 ?EnableInput@CInput@@QAEXPAUHWND__@@@Z
       1287  506 00010FF0 ?EnableInput@CInput@@QAEXPAVCViewPort@@@Z
       1288  507 00154B80 ?EnableSrcRememberFN@CModelInstance@@SAXH@Z
       1289  508 0002EAC0 ?EnableStreamHandling@CTStream@@SAXXZ
       1290  509 000079B0 ?EncryptFileA@CCrypt@@QAEHPAD0W4eCryptOwner@1@@Z
       1291  50A 001181F0 ?End@CEntity@@QAEXXZ
       1292  50B 0005F8E0 ?EndDriver_D3D@CGfxLibrary@@AAEXXZ
       1293  50C 00065790 ?EndDriver_OGL@CGfxLibrary@@AAEXXZ
       1294  50D 000A8260 ?EndModelRenderingMask@@YAXXZ
       1295  50E 000A7DE0 ?EndModelRenderingView@@YAXH@Z
       1296  50F 000F6CE0 ?EndOfMessage@CNetworkMessage@@QAEHXZ
       1297  510 000E6D50 ?EndWinsock@CCommunicationInterface@@QAEXXZ
       1298  511 00118250 ?End_internal@CEntity@@QAEXXZ
       1299  512 0011DA00 ?EntityAdjustBonesCallback@@YAXPAX@Z
       1300  513 0011DA10 ?EntityAdjustShaderParamsCallback@@YAXPAXJPAVCShader@@AAUShaderParams@@JPAVCModelInstance@@@Z
       1301  514 000B99D0 ?EntityFromID@CWorld@@QAEPAVCEntity@@K@Z
       1302  515 00074480 ?EnumDisplayModes@CGfxLibrary@@QAEPAVCDisplayMode@@AAJW4GfxAPIType@@J@Z
       1303  516 000EBD20 ?EnumNetworkProviders@CMessageDispatcher@@QAEXAAVCListHead@@@Z
       1304  517 000EBBC0 ?EnumNetworkProviders_startup@CMessageDispatcher@@QAEXAAVCListHead@@@Z
       1305  518 000F30C0 ?EnumSessions@CNetworkLibrary@@QAEXH@Z
       1306  519 0001DD60 ?EnumerationChanged@CNetworkLibrary@@QAEHXZ
       1307  51A 0001DD40 ?EnumerationStatus@CNetworkLibrary@@QAEAAVCTString@@XZ
       1308  51B 0000B0E0 ?ErrorDescription@@YAPBDPBUErrorTable@@J@Z
       1309  51C 000293D0 ?ErrorF@CShell@@QAAXPBDZZ
       1310  51D 0000B0A0 ?ErrorName@@YAPBDPBUErrorTable@@J@Z
       1311  51E 0002EC10 ?ExceptionFatalError@CTStream@@SAXXZ
       1312  51F 0002EB80 ?ExceptionFilter@CTStream@@SAHKPAU_EXCEPTION_POINTERS@@@Z
       1313  520 00028EC0 ?Execute@CShell@@QAEXABVCTString@@@Z
       1314  521 00076B40 ?ExpandEdges@CImageInfo@@QAEXJ@Z
       1315  522 00031C10 ?ExpandFilePath@@YAJKABVCTFileName@@AAV1@@Z
       1316  523 0002F130 ?ExpectID_t@CTStream@@QAEXABVCChunkID@@@Z
       1317  524 0002F180 ?ExpectKeyword_t@CTStream@@QAEXABVCTString@@@Z
       1318  525 001656F0 ?ExportHeightMap_t@CTerrain@@QAEXVCTFileName@@H@Z
       1319  526 0016BD70 ?ExportLayerMask_t@CTerrainLayer@@QAEXVCTFileName@@@Z
       1320  527 00097840 ?ExportSurfaceNumbersAndNames@CEditModel@@QAEXVCTFileName@@@Z
       1321  528 0007CAE0 ?Export_t@CTextureData@@QAEXAAVCImageInfo@@J@Z
       1322  529 000F6FB0 ?ExtractSubMessage@CNetworkMessage@@QAEXAAV1@@Z
       1323  52A 00015C20 ?FOVL@CPerspectiveProjection3D@@QAEAAMXZ
       1324  52B 00015C30 ?FOVR@CPerspectiveProjection3D@@QBEABMXZ
       1325  52C 0002F040 ?FPrintF_t@CTStream@@QAAXPBDZZ
       1326  52D 00120A30 ?FRnd@CEntity@@QAEMXZ
       1327  52E 0017FA80 ?FakeJump@CMovableEntity@@QAEXABV?$Vector@M$02@@0MMMMM@Z
       1328  52F 00118AF0 ?FallDownToFloor@CEntity@@QAEXXZ
       1329  530 00015A90 ?FarClipDistanceL@CProjection3D@@QAEAAMXZ
       1330  531 00015AA0 ?FarClipDistanceR@CProjection3D@@QBEABMXZ
       1331  532 0000ADA0 ?FatalError@@YAXPBDZZ
       1332  533 0007E200 ?FetchRow@CTextureData@@QAEXJPAXJH@Z
       1333  534 00030BB0 ?FileCommitPage@CTFileStream@@QAEXJ@Z
       1334  535 00030CF0 ?FileDecommitPage@CTFileStream@@QAEXJ@Z
       1335  536 0000B2D0 ?FileDir@CTFileName@@QBE?AV1@XZ
       1336  537 00031490 ?FileExists@@YAHABVCTFileName@@@Z
       1337  538 000315E0 ?FileExistsForWriting@@YAHABVCTFileName@@@Z
       1338  539 0000B460 ?FileExt@CTFileName@@QBE?AV1@XZ
       1339  53A 0000B390 ?FileName@CTFileName@@QBE?AV1@XZ
       1340  53B 0011DE50 ?FileNameForComponent@CEntity@@QAEABVCTFileName@@JJ@Z
       1341  53C 00053020 ?Fill@CDrawPort@@QBEXJJJJK@Z
       1342  53D 00053340 ?Fill@CDrawPort@@QBEXJJJJKKKK@Z
       1343  53E 00053720 ?Fill@CDrawPort@@QBEXK@Z
       1344  53F 0011F660 ?FillEntityStatistics@CEntity@@UAEHPAUEntityStats@@@Z
       1345  540 00053810 ?FillZBuffer@CDrawPort@@QBEXJJJJM@Z
       1346  541 000539A0 ?FillZBuffer@CDrawPort@@QBEXM@Z
       1347  542 000B8B40 ?FilterEntitiesBySpawnFlags@CWorld@@QAEXK@Z
       1348  543 00154190 ?FindAnimationByID@CModelInstance@@QAEHHPAJ0@Z
       1349  544 00162740 ?FindBoneInLOD@CSkeleton@@QAEJJJ@Z
       1350  545 0011AB30 ?FindCollisionInfo@CEntity@@QAEXXZ
       1351  546 00001920 ?FindDataToName@CInfoFile@@SA?AVCTString@@U_finddata_t@@@Z
       1352  547 0011C1C0 ?FindEntitiesInRange@CEntity@@QAEXABV?$AABBox@M$02@@AAV?$CDynamicContainer@VCEntity@@@@H@Z
       1353  548 00132B50 ?FindEntitiesInSector@CBrushSector@@QAEXXZ
       1354  549 000C62D0 ?FindEntitiesNearBox@CWorld@@QAEXABV?$AABBox@M$02@@AAV?$CStaticStackArray@PAVCEntity@@@@@Z
       1355  54A 000B7E90 ?FindEntityWithCharacter@CWorld@@QAEPAVCPlayerEntity@@AAVCPlayerCharacter@@@Z
       1356  54B 001541F0 ?FindFirstAnimationID@CModelInstance@@QAEJXZ
       1357  54C 001374E0 ?FindLightRectangle@CBrushShadowMap@@QAEXAAVCLightSource@@AAVCLightRectangle@@@Z
       1358  54D 000F2370 ?FindManager@CNetworkLibrary@@QAEPAVCEntity@@J@Z
       1359  54E 00008850 ?FindOneOf@CTString@@QBEHPBD@Z
       1360  54F 00008880 ?FindOneOf@CTString@@QBEHPBV1@@Z
       1361  550 001240C0 ?FindRemappedEntityPointer@CEntity@@SAPAV1@PAV1@@Z
       1362  551 00103730 ?FindRememberedLevel@CSessionState@@QAEPAVCRememberedLevel@@ABVCTString@@@Z
       1363  552 0011B3E0 ?FindSectorsAroundEntity@CEntity@@QAEXXZ
       1364  553 0011BA10 ?FindSectorsAroundEntityNear@CEntity@@QAEXXZ
       1365  554 00119570 ?FindShadingInfo@CEntity@@QAEXXZ
       1366  555 0013F400 ?FindShadowLayers@CLightSource@@QAEXH@Z
       1367  556 000B8210 ?FindShadowLayers@CWorld@@QAEXABV?$AABBox@M$02@@HH@Z
       1368  557 0013EA10 ?FindShadowLayersDirectional@CLightSource@@QAEXH@Z
       1369  558 0013ED00 ?FindShadowLayersPoint@CLightSource@@QAEXH@Z
       1370  559 000088B0 ?FindSubstr@CTString@@QAEJABV1@@Z
       1371  55A 00153630 ?FindTexureInstance@CModelInstance@@QAEPAUTextureInstance@@J@Z
       1372  55B 00153670 ?FindTexureInstance@CModelInstance@@QAEPAUTextureInstance@@JAAUMeshInstance@@@Z
       1373  55C 000122A0 ?FindZero@@YAJPAEJ@Z
       1374  55D 000F66C0 ?FinishCRCGather@CNetworkLibrary@@QAEXXZ
       1375  55E 00034060 ?FinishTranslationTable@@YAXXZ
       1376  55F 00004690 ?FirstFrame@CAnimObject@@QAEXXZ
       1377  560 000CA550 ?FlipPolygon@CWorld@@QAEXAAVCBrushPolygon@@@Z
       1378  561 00102000 ?FlushProcessedPredictions@CSessionState@@QAEXXZ
       1379  562 000560C0 ?FlushRenderingQueue@CDrawPort@@QBEXXZ
       1380  563 0007CBD0 ?Force@CTextureData@@QAEXK@Z
       1381  564 00188E00 ?ForceCollisionBoxIndexChange@CMovableModelEntity@@QAEXJ@Z
       1382  565 0017F950 ?ForceFullStop@CMovableEntity@@QAEXXZ
       1383  566 0017F8B0 ?ForceStopRotation@CMovableEntity@@QAEXXZ
       1384  567 0017F810 ?ForceStopTranslation@CMovableEntity@@QAEXXZ
       1385  568 00103960 ?ForgetOldLevels@CSessionState@@QAEXXZ
       1386  569 00164420 ?FreeArrays@CArrayHolder@@QAEXH@Z
       1387  56A 000300F0 ?FreeBuffer@CTStream@@QAEXXZ
       1388  56B 00012180 ?FreeMemory@@YAXPAX@Z
       1389  56C 00012170 ?FreeMemoryAligned@@YAXPAX@Z
       1390  56D 000DB160 ?FreeSwapped@CStock_CAnimData@@QAEXXZ
       1391  56E 000DC4B0 ?FreeSwapped@CStock_CAnimSet@@QAEXXZ
       1392  56F 000DD770 ?FreeSwapped@CStock_CEntityClass@@QAEXXZ
       1393  570 000DEAC0 ?FreeSwapped@CStock_CMesh@@QAEXXZ
       1394  571 000DFE20 ?FreeSwapped@CStock_CModelData@@QAEXXZ
       1395  572 000E1160 ?FreeSwapped@CStock_CShader@@QAEXXZ
       1396  573 000E24B0 ?FreeSwapped@CStock_CSkeleton@@QAEXXZ
       1397  574 000E3800 ?FreeSwapped@CStock_CSoundData@@QAEXXZ
       1398  575 000E4B60 ?FreeSwapped@CStock_CTextureData@@QAEXXZ
       1399  576 000DAFD0 ?FreeUnused@CStock_CAnimData@@QAEXXZ
       1400  577 000DC320 ?FreeUnused@CStock_CAnimSet@@QAEXXZ
       1401  578 000DD5E0 ?FreeUnused@CStock_CEntityClass@@QAEXXZ
       1402  579 000DE930 ?FreeUnused@CStock_CMesh@@QAEXXZ
       1403  57A 000DFC90 ?FreeUnused@CStock_CModelData@@QAEXXZ
       1404  57B 000E0FD0 ?FreeUnused@CStock_CShader@@QAEXXZ
       1405  57C 000E2320 ?FreeUnused@CStock_CSkeleton@@QAEXXZ
       1406  57D 000E3670 ?FreeUnused@CStock_CSoundData@@QAEXXZ
       1407  57E 000E49D0 ?FreeUnused@CStock_CTextureData@@QAEXXZ
       1408  57F 0011A620 ?FromBrush@CCollisionInfo@@QAEXPAVCBrush3D@@@Z
       1409  580 0004B170 ?FromMappingVectors@CMappingDefinition@@QAEXABVCMappingVectors@@0@Z
       1410  581 00119F20 ?FromModel@CCollisionInfo@@QAEXPAVCEntity@@J@Z
       1411  582 0011A2A0 ?FromModelInstance@CCollisionInfo@@QAEXAAV?$AABBox@M$02@@AAJ@Z
       1412  583 0012BB80 ?FromObject3D_t@CBrush3D@@QAEXAAVCObject3D@@@Z
       1413  584 0012BD20 ?FromObjectSector_t@CBrushSector@@QAEXAAVCObjectSector@@@Z
       1414  585 0004A2F0 ?FromPlane@CMappingVectors@@QAEXABV?$Plane@M$02@@@Z
       1415  586 0004A460 ?FromPlane_DOUBLE@CMappingVectors@@QAEXABV?$Plane@N$02@@@Z
       1416  587 0011A610 ?FromSkaModel@CCollisionInfo@@QAEXPAVCEntity@@J@Z
       1417  588 0004A7F0 ?FromUI@CMappingDefinition@@QAEXABVCMappingDefinitionUI@@@Z
       1418  589 00015A50 ?FrontClipDistanceL@CProjection3D@@QAEAAMXZ
       1419  58A 00015A60 ?FrontClipDistanceR@CProjection3D@@QBEABMXZ
       1420  58B 0001D620 ?GameID@CMessageDispatcher@@QAE?AVCTString@@XZ
       1421  58C 000F65F0 ?GameInactive@CNetworkLibrary@@QAEXXZ
       1422  58D 0001D820 ?GameType@CNetworkSession@@QAEAAVCTString@@XZ
       1423  58E 001686C0 ?GenerateTerrainTopMap@CTerrain@@QAEXXZ
       1424  58F 0008FEF0 ?GetActiveCollisionBoxIndex@CEditModel@@QAEJXZ
       1425  590 0009CB60 ?GetAllFramesBBox@CModelData@@QAEXAAV?$AABBox@M$02@@@Z
       1426  591 00152220 ?GetAllFramesBBox@CModelInstance@@QAEXAAV?$AABBox@M$02@@@Z
       1427  592 000A22D0 ?GetAllFramesBBox@CModelObject@@QAEXAAV?$AABBox@M$02@@@Z
       1428  593 00167420 ?GetAllTerrainBBox@CTerrain@@QAEXAAV?$AABBox@M$02@@@Z
       1429  594 00004ED0 ?GetAnim@CAnimObject@@QBEJXZ
       1430  595 00117970 ?GetAnimData@CEntity@@UAEPAVCAnimData@@J@Z
       1431  596 00003C00 ?GetAnimInfo@CAnimData@@QBEXJAAVCAnimInfo@@@Z
       1432  597 00004B40 ?GetAnimInfo@CAnimObject@@QBEXJAAVCAnimInfo@@@Z
       1433  598 00004340 ?GetAnimLength@CAnimObject@@QBEMJ@Z
       1434  599 00154220 ?GetAnimLength@CModelInstance@@QAEMJ@Z
       1435  59A 00003F10 ?GetAnimsCt@CAnimData@@QBEJXZ
       1436  59B 00004EB0 ?GetAnimsCt@CAnimObject@@QBEJXZ
       1437  59C 000B3800 ?GetAttachmentMatrices@CModelObject@@QAEXPAVCAttachmentModelObject@@AAV?$Matrix@M$02$02@@AAV?$Vector@M$02@@@Z
       1438  59D 000A2F40 ?GetAttachmentModel@CModelObject@@QAEPAVCAttachmentModelObject@@J@Z
       1439  59E 000A2F60 ?GetAttachmentModelList@CModelObject@@QAAPAVCAttachmentModelObject@@JZZ
       1440  59F 000A1580 ?GetAttachmentPlacement@CModelObject@@QAE?AVCPlacement3D@@AAVCAttachmentModelObject@@@Z
       1441  5A0 000B3EF0 ?GetAttachmentTransformations@CModelObject@@QAEXJAAV?$Matrix@M$02$02@@AAV?$Vector@M$02@@H@Z
       1442  5A1 0000F0B0 ?GetAvailableAxisCount@CInput@@QBE?BJXZ
       1443  5A2 0000F0C0 ?GetAvailableButtonsCount@CInput@@QBE?BJXZ
       1444  5A3 0000F0D0 ?GetAxisName@CInput@@QBEABVCTString@@J@Z
       1445  5A4 00011B90 ?GetAxisTransName@CInput@@QBEABVCTString@@J@Z
       1446  5A5 0000F0E0 ?GetAxisValue@CInput@@QBEMJ@Z
       1447  5A6 000C6CF0 ?GetBBoxType@CWorldRenderPrefs@@QAE?AW4BBoxType@1@XZ
       1448  5A7 000C6D10 ?GetBSphereType@CWorldRenderPrefs@@QAE?AW4BSphereType@1@XZ
       1449  5A8 000B8000 ?GetBackgroundColor@CWorld@@QAEKXZ
       1450  5A9 000B8060 ?GetBackgroundViewer@CWorld@@QAEPAVCEntity@@XZ
       1451  5AA 0011DAE0 ?GetBoneAbsPosition@CEntity@@QAEHJAAV?$Vector@M$02@@0@Z
       1452  5AB 0011DA40 ?GetBoneRelPosition@CEntity@@QAEHJAAV?$Vector@M$02@@0@Z
       1453  5AC 0000EE20 ?GetBoolValue@CInfoFile@@QAEHABVCTString@@@Z
       1454  5AD 00117540 ?GetBoundingBox@CEntity@@QAEXAAV?$AABBox@M$02@@@Z
       1455  5AE 000381B0 ?GetBoundingBox@CObject3D@@QAEXAAV?$AABBox@N$02@@@Z
       1456  5AF 000C6C10 ?GetBoundingBoxModel@CWorldRenderPrefs@@QAEPAVCModelObject@@XZ
       1457  5B0 000C6C50 ?GetBoundingSphereModel@CWorldRenderPrefs@@QAEPAVCModelObject@@XZ
       1458  5B1 0001C030 ?GetBrush@CEntity@@QAEPAVCBrush3D@@XZ
       1459  5B2 000C6D60 ?GetBrushMip@CWorld@@QAEPAVCBrushMip@@AAVCEntity@@@Z
       1460  5B3 00129690 ?GetBrushMipByDistance@CBrush3D@@QAEPAVCBrushMip@@M@Z
       1461  5B4 001296C0 ?GetBrushMipByIndex@CBrush3D@@QAEPAVCBrushMip@@J@Z
       1462  5B5 000186C0 ?GetBrushPolygon@CBrushShadowMap@@QAEPAVCBrushPolygon@@XZ
       1463  5B6 00018AE0 ?GetBrushType@CBrush3D@@UAEJXZ
       1464  5B7 00017960 ?GetBrushType@CBrushBase@@UAEJXZ
       1465  5B8 000192A0 ?GetBrushType@CTerrain@@UAEJXZ
       1466  5B9 000065A0 ?GetBuffer@CConsole@@QAEPBDXZ
       1467  5BA 0016B220 ?GetBufferForEditing@@YAPAGPAVCTerrain@@AAURect@@W4BufferType@@J@Z
       1468  5BB 000065C0 ?GetBufferSize@CConsole@@QAEJXZ
       1469  5BC 0000F0F0 ?GetButtonName@CInput@@QBEABVCTString@@J@Z
       1470  5BD 0000F110 ?GetButtonState@CInput@@QBEHJ@Z
       1471  5BE 0000F100 ?GetButtonTransName@CInput@@QBEABVCTString@@J@Z
       1472  5BF 000516E0 ?GetCharSpacing@CFontData@@QBEJXZ
       1473  5C0 000FA2D0 ?GetChatMask@CPlayerSource@@QAEKXZ
       1474  5C1 00153800 ?GetChild@CModelInstance@@QAEPAV1@JH@Z
       1475  5C2 001193F0 ?GetChildOfClass@CEntity@@QAEPAV1@PBD@Z
       1476  5C3 0001C010 ?GetClass@CEntity@@QAEPAVCEntityClass@@XZ
       1477  5C4 00117BF0 ?GetClassificationBoxStretch@CEntity@@UAE?AV?$Vector@M$02@@XZ
       1478  5C5 00152380 ?GetColisionBox@CModelInstance@@QAEAAUColisionBox@@J@Z
       1479  5C6 00152350 ?GetColisionBoxIndex@CModelInstance@@QAEJJ@Z
       1480  5C7 000995F0 ?GetCollisionBoxDimensionEquality@CEditModel@@QAEJXZ
       1481  5C8 0009CC90 ?GetCollisionBoxDimensionEquality@CModelData@@QAEJJ@Z
       1482  5C9 00152410 ?GetCollisionBoxDimensionEquality@CModelInstance@@QAEJJ@Z
       1483  5CA 000A2410 ?GetCollisionBoxDimensionEquality@CModelObject@@QAEJJ@Z
       1484  5CB 00117C40 ?GetCollisionBoxIndex@CEntity@@UAEJXZ
       1485  5CC 00188D10 ?GetCollisionBoxIndex@CMovableModelEntity@@UAEJXZ
       1486  5CD 000995E0 ?GetCollisionBoxMax@CEditModel@@QAEAAV?$Vector@M$02@@XZ
       1487  5CE 0009CC40 ?GetCollisionBoxMax@CModelData@@QAE?AV?$Vector@M$02@@J@Z
       1488  5CF 001523D0 ?GetCollisionBoxMax@CModelInstance@@QAE?AV?$Vector@M$02@@J@Z
       1489  5D0 000A23C0 ?GetCollisionBoxMax@CModelObject@@QAE?AV?$Vector@M$02@@J@Z
       1490  5D1 000995D0 ?GetCollisionBoxMin@CEditModel@@QAEAAV?$Vector@M$02@@XZ
       1491  5D2 0009CC00 ?GetCollisionBoxMin@CModelData@@QAE?AV?$Vector@M$02@@J@Z
       1492  5D3 00152390 ?GetCollisionBoxMin@CModelInstance@@QAE?AV?$Vector@M$02@@J@Z
       1493  5D4 000A2370 ?GetCollisionBoxMin@CModelObject@@QAE?AV?$Vector@M$02@@J@Z
       1494  5D5 00099260 ?GetCollisionBoxName@CEditModel@@QAE?AVCTString@@J@Z
       1495  5D6 00099310 ?GetCollisionBoxName@CEditModel@@QAE?AVCTString@@XZ
       1496  5D7 00117C50 ?GetCollisionBoxParameters@CEntity@@UAEXJAAV?$AABBox@M$02@@AAJ@Z
       1497  5D8 0001BFC0 ?GetCollisionFlags@CEntity@@QBEKXZ
       1498  5D9 000A0CE0 ?GetColorName@CModelObject@@QAE?AVCTString@@J@Z
       1499  5DA 000276E0 ?GetCompletionString@CShellSymbol@@QBE?AVCTString@@XZ
       1500  5DB 00018710 ?GetContentType@CBrushSector@@QAEJXZ
       1501  5DC 0000EB70 ?GetCount@CInfoFile@@QAEJXZ
       1502  5DD 00016B00 ?GetCurrentAPI@CGfxLibrary@@QAE?AW4GfxAPIType@@XZ
       1503  5DE 00016B10 ?GetCurrentAdapter@CGfxLibrary@@QAEJXZ
       1504  5DF 00004380 ?GetCurrentAnimLength@CAnimObject@@QBEMXZ
       1505  5E0 00152320 ?GetCurrentColisionBox@CModelInstance@@QAEAAUColisionBox@@XZ
       1506  5E1 001522A0 ?GetCurrentColisionBox@CModelInstance@@QAEXAAV?$AABBox@M$02@@@Z
       1507  5E2 00152330 ?GetCurrentColisionBoxIndex@CModelInstance@@QAEJXZ
       1508  5E3 00016B20 ?GetCurrentDisplayMode@CGfxLibrary@@QAEXAAVCDisplayMode@@@Z
       1509  5E4 000A22A0 ?GetCurrentFrameBBox@CModelObject@@QAEXAAV?$AABBox@M$02@@@Z
       1510  5E5 00105130 ?GetCurrentMipBrushingFactor@CWorldRenderPrefs@@QAEMM@Z
       1511  5E6 0001DB20 ?GetCurrentWorld@CNetworkLibrary@@QAEAAVCTFileName@@XZ
       1512  5E7 000A2730 ?GetData@CModelObject@@QAEPAVCModelData@@XZ
       1513  5E8 000F48E0 ?GetDemoFileNameSlot@CNetworkLibrary@@QAE?AVCTString@@XZ
       1514  5E9 00117DE0 ?GetDepthSortOffset@CEntity@@UAEMXZ
       1515  5EA 001178A0 ?GetDescription@CEntity@@UBEABVCTString@@XZ
       1516  5EB 0009FE90 ?GetDescription@CModelData@@UAE?AVCTString@@XZ
       1517  5EC 000EB820 ?GetDescription@CNetworkProvider@@QBEABVCTString@@XZ
       1518  5ED 00027160 ?GetDescription@CSerial@@UAE?AVCTString@@XZ
       1519  5EE 000851A0 ?GetDescription@CSoundData@@UAE?AVCTString@@XZ
       1520  5EF 00001D30 ?GetDescription@CTStream@@QAEAAVCTString@@XZ
       1521  5F0 0007E320 ?GetDescription@CTextureData@@UAE?AVCTString@@XZ
       1522  5F1 000B80D0 ?GetDescription@CWorld@@QAEABVCTString@@XZ
       1523  5F2 0017F4C0 ?GetDesiredRotation@CMovableEntity@@QBEABV?$Vector@M$02@@XZ
       1524  5F3 0017F520 ?GetDesiredTranslation@CMovableEntity@@QBEABV?$Vector@M$02@@XZ
       1525  5F4 001797B0 ?GetDetailTC@CTerrainTile@@QAEAAV?$CStaticStackArray@UGFXTexCoord@@@@XZ
       1526  5F5 00013C10 ?GetDirectionVector@CPlacement3D@@QAEXAAV?$Vector@M$02@@@Z
       1527  5F6 00044A10 ?GetDistance@CIsometricProjection3D@@UBEMABV?$Vector@M$02@@@Z
       1528  5F7 00046140 ?GetDistance@CParallelProjection3D@@UBEMABV?$Vector@M$02@@@Z
       1529  5F8 00047F90 ?GetDistance@CPerspectiveProjection3D@@UBEMABV?$Vector@M$02@@@Z
       1530  5F9 00048BE0 ?GetDistance@CSimpleProjection3D@@UBEMABV?$Vector@M$02@@@Z
       1531  5FA 00130F50 ?GetDistanceFromEdges@CBrushPolygon@@QAEMABV?$Vector@M$02@@@Z
       1532  5FB 00009F50 ?GetDoubleSlash@CTString@@QAE?AV1@XZ
       1533  5FC 00020600 ?GetDst@CRelationLnk@@QAEAAVCRelationDst@@XZ
       1534  5FD 000C6B10 ?GetEdgesFillType@CWorldRenderPrefs@@QAE?AW4FillType@1@XZ
       1535  5FE 000C6B30 ?GetEdgesInkColor@CWorldRenderPrefs@@QAEKXZ
       1536  5FF 000C6CB0 ?GetEmptyBrushModel@CWorldRenderPrefs@@QAEPAVCModelObject@@XZ
       1537  600 0011F650 ?GetEntityInfo@CEntity@@UAEPAXXZ
       1538  601 0011E3F0 ?GetEntityPointFixed@CEntity@@QAEXABV?$Vector@M$02@@AAV2@@Z
       1539  602 0011DFD0 ?GetEntityPointRatio@CEntity@@QAEXABV?$Vector@M$02@@AAV2@H@Z
       1540  603 000F5AE0 ?GetEntityWithName@CNetworkLibrary@@QAEPAVCEntity@@ABVCTString@@J@Z
       1541  604 000187D0 ?GetEnvironmentType@CBrushSector@@QAEJXZ
       1542  605 00097EA0 ?GetExistingPatchesMask@CEditModel@@QAEKXZ
       1543  606 00029090 ?GetFLOAT@CShell@@QAEMABVCTString@@@Z
       1544  607 00036170 ?GetFPUPrecision@@YA?AW4FPUPrecisionType@@XZ
       1545  608 00117C10 ?GetFieldSettings@CEntity@@UAEPAVCFieldSettings@@XZ
       1546  609 000317E0 ?GetFileCRC32_t@@YAKABVCTFileName@@@Z
       1547  60A 000083A0 ?GetFileOwner@CCrypt@@QAE?AW4eCryptOwner@1@PAD@Z
       1548  60B 000316B0 ?GetFileTimeStamp_t@@YAJABVCTFileName@@@Z
       1549  60C 00097980 ?GetFirstEmptyPatchIndex@CEditModel@@QAEHAAJ@Z
       1550  60D 000F5B90 ?GetFirstLocalPlayerSource@CNetworkLibrary@@QAEPAVCPlayerSource@@XZ
       1551  60E 001296F0 ?GetFirstMip@CBrush3D@@QAEPAVCBrushMip@@XZ
       1552  60F 00153850 ?GetFirstNonReferencedParent@CModelInstance@@QAEPAV1@PAV1@@Z
       1553  610 00119D90 ?GetFirstSector@CEntity@@QAEPAVCBrushSector@@XZ
       1554  611 00119DB0 ?GetFirstSectorWithName@CEntity@@QAEPAVCBrushSector@@XZ
       1555  612 000979B0 ?GetFirstValidPatchIndex@CEditModel@@QAEHAAJ@Z
       1556  613 0001BF80 ?GetFlags@CEntity@@QBEKXZ
       1557  614 0009CCD0 ?GetFlags@CModelData@@QAEKXZ
       1558  615 00019240 ?GetFlags@CTerrain@@QAEAAKXZ
       1559  616 000191D0 ?GetFlags@CTerrainTile@@QAEAAKXZ
       1560  617 00017430 ?GetFlags@CTextureData@@QBEKXZ
       1561  618 0007D710 ?GetFlags@CTextureObject@@QBEKXZ
       1562  619 0000ECC0 ?GetFloatValue@CInfoFile@@QAEMABVCTString@@@Z
       1563  61A 00117AC0 ?GetFog@CEntity@@UAEHJAAVCFogParameters@@@Z
       1564  61B 0001CB90 ?GetFogColorSpringFall@CSunstormWorldVariables@@QBEKXZ
       1565  61C 0001CBA0 ?GetFogColorWinter@CSunstormWorldVariables@@QBEKXZ
       1566  61D 0001CBD0 ?GetFogFar@CSunstormWorldVariables@@QBEMH@Z
       1567  61E 00117A70 ?GetFogName@CEntity@@UAEABVCTString@@J@Z
       1568  61F 0001CC30 ?GetFogNear@CSunstormWorldVariables@@QBEMH@Z
       1569  620 00018770 ?GetFogType@CBrushSector@@QAEJXZ
       1570  621 001179D0 ?GetForce@CEntity@@UAEXJABV?$Vector@M$02@@AAVCForceStrength@@1@Z
       1571  622 00117A20 ?GetForceController@CEntity@@UAEPAV1@J@Z
       1572  623 00117980 ?GetForceName@CEntity@@UAEABVCTString@@J@Z
       1573  624 00018740 ?GetForceType@CBrushSector@@QAEJXZ
       1574  625 0006DEA0 ?GetFormat@CSoundLibrary@@QAE?AW4SoundFormat@1@XZ
       1575  626 00003ED0 ?GetFrame@CAnimData@@QAEJJJ@Z
       1576  627 00004EE0 ?GetFrame@CAnimObject@@QBEJXZ
       1577  628 000050D0 ?GetFrame@CAnimObject@@QBEXAAJ0AAM@Z
       1578  629 000A0BB0 ?GetFrameBBox@CModelObject@@QAE?AV?$AABBox@M$02@@J@Z
       1579  62A 00016AF0 ?GetFrameNumber@CGfxLibrary@@QAEJXZ
       1580  62B 000050B0 ?GetFramesInCurrentAnim@CAnimObject@@QBEJXZ
       1581  62C 0018BB50 ?GetGameSpyPlayerInfo@CPlayerEntity@@UAEXJAAVCTString@@@Z
       1582  62D 000F5D10 ?GetGameTime@CNetworkLibrary@@QAEMXZ
       1583  62E 00076D50 ?GetGfxFileInfo_t@CImageInfo@@QAEJABVCTFileName@@@Z
       1584  62F 00117BE0 ?GetGradient@CEntity@@UAEHJAAVCGradientParameters@@@Z
       1585  630 00117B90 ?GetGradientName@CEntity@@UAEABVCTString@@J@Z
       1586  631 000091B0 ?GetHash@CTString@@QBEKXZ
       1587  632 00117B20 ?GetHaze@CEntity@@UAEHJAAVCHazeParameters@@AAV?$Vector@M$02@@@Z
       1588  633 00117AD0 ?GetHazeName@CEntity@@UAEABVCTString@@J@Z
       1589  634 000187A0 ?GetHazeType@CBrushSector@@QAEJXZ
       1590  635 00012080 ?GetHead@CListNode@@QAEAAVCListHead@@XZ
       1591  636 00180040 ?GetHeadingDirection@CMovableEntity@@QAEXMAAV?$Vector@M$02@@@Z
       1592  637 0001C2D0 ?GetHealth@CLiveEntity@@QBEMXZ
       1593  638 0000F4F0 ?GetHeight@CDrawPort@@QBEJXZ
       1594  639 0008FEE0 ?GetHeight@CEditModel@@QAEJXZ
       1595  63A 000516D0 ?GetHeight@CFontData@@QBEJXZ
       1596  63B 000A09A0 ?GetHeight@CModelObject@@QAEJXZ
       1597  63C 00167860 ?GetHeight@CTerrain@@QAEMAAV?$Vector@M$02@@@Z
       1598  63D 00017400 ?GetHeight@CTextureData@@QBEJXZ
       1599  63E 0007D700 ?GetHeight@CTextureObject@@QBEJXZ
       1600  63F 000026B0 ?GetHighPrecisionTimer@CTimer@@QAE?AVCTimerValue@@XZ
       1601  640 000E72B0 ?GetHostName@CCommunicationInterface@@QAEXAAVCTString@@0@Z
       1602  641 000F3900 ?GetHostName@CNetworkLibrary@@QAEXAAVCTString@@0@Z
       1603  642 00051DC0 ?GetID@CDrawPort@@QAEKXZ
       1604  643 001543A0 ?GetID@CModelInstance@@QAEABJXZ
       1605  644 0002F0C0 ?GetID_t@CTStream@@QAE?AVCChunkID@@XZ
       1606  645 00029110 ?GetINDEX@CShell@@QAEJABVCTString@@@Z
       1607  646 001797E0 ?GetIndices@CTerrainTile@@QAEAAV?$CStaticStackArray@J@@XZ
       1608  647 0009C430 ?GetInkColor@CModelRenderPrefs@@QAEKXZ
       1609  648 00011410 ?GetInput@CInput@@QAEXH@Z
       1610  649 0000ED60 ?GetIntValue@CInfoFile@@QAEJABVCTString@@@Z
       1611  64A 00129700 ?GetLastMip@CBrush3D@@QAEPAVCBrushMip@@XZ
       1612  64B 0011DEC0 ?GetLastPositions@CEntity@@QAEPAVCLastPositions@@J@Z
       1613  64C 00166430 ?GetLayer@CTerrain@@QAEAAVCTerrainLayer@@J@Z
       1614  64D 000C6BB0 ?GetLensFlares@CWorldRenderPrefs@@QAE?AW4LensFlaresType@1@XZ
       1615  64E 000026A0 ?GetLerpFactor2@CTimer@@QBEMXZ
       1616  64F 00002690 ?GetLerpFactor@CTimer@@QBEMXZ
       1617  650 000338A0 ?GetLerpedCurrentTick@CTimer@@QBE?BMXZ
       1618  651 001192C0 ?GetLerpedPlacement@CEntity@@UBE?AVCPlacement3D@@XZ
       1619  652 0017F270 ?GetLerpedPlacement@CMovableEntity@@UBE?AVCPlacement3D@@XZ
       1620  653 0013FC30 ?GetLightAmbient@CLightSource@@QBEKXZ
       1621  654 0013FC80 ?GetLightAmbient@CLightSource@@QBEXAAE00@Z
       1622  655 0013FAF0 ?GetLightColor@CLightSource@@QBEKXZ
       1623  656 0013FB40 ?GetLightColor@CLightSource@@QBEXAAE00@Z
       1624  657 00077C30 ?GetLightColorAndAmbient@CLightSource@@QBEXAAE00000@Z
       1625  658 00077C10 ?GetLightColorAndAmbient@CLightSource@@QBEXAAK0@Z
       1626  659 00117950 ?GetLightSource@CEntity@@UAEPAVCLightSource@@XZ
       1627  65A 00136950 ?GetLightStrength@CBrushShadowLayer@@QAEMJJMM@Z
       1628  65B 000516F0 ?GetLineSpacing@CFontData@@QBEJXZ
       1629  65C 0002EF50 ?GetLine_t@CTStream@@QAEXAAVCTString@@D@Z
       1630  65D 0002EEC0 ?GetLine_t@CTStream@@QAEXPADJD@Z
       1631  65E 000E7680 ?GetLocalAddress_t@CCommunicationInterface@@QAEXAAK0@Z
       1632  65F 000F38E0 ?GetLocalPause@CNetworkLibrary@@QAEHXZ
       1633  660 000F58E0 ?GetLocalPlayerEntity@CNetworkLibrary@@QAEPAVCEntity@@PAVCPlayerSource@@@Z
       1634  661 000C6A90 ?GetManualMipBrushingFactor@CWorldRenderPrefs@@QAEMXZ
       1635  662 000A0C10 ?GetManualMipLevel@CModelObject@@QAEJXZ
       1636  663 0001CF00 ?GetMapAnimal@CSunstormWorldVariables@@QAEAAVCMapAnimal@@J@Z
       1637  664 0001CF10 ?GetMapAnimal@CSunstormWorldVariables@@QBEABVCMapAnimal@@J@Z
       1638  665 0001D220 ?GetMapAnimals@CSunstormWorldVariables@@QAEAAV?$CDynamicStackArray@VCMapAnimal@@@@XZ
       1639  666 0001D230 ?GetMapAnimals@CSunstormWorldVariables@@QBEABV?$CDynamicStackArray@VCMapAnimal@@@@XZ
       1640  667 0001CB70 ?GetMapDescription@CSunstormWorldVariables@@QBE?AVCTString@@XZ
       1641  668 0001CB20 ?GetMapName@CSunstormWorldVariables@@QBE?AVCTString@@XZ
       1642  669 0001CCC0 ?GetMapSeasonFlags@CSunstormWorldVariables@@QBEKXZ
       1643  66A 0001CCD0 ?GetMapTempFlags@CSunstormWorldVariables@@QBEKXZ
       1644  66B 0011AAA0 ?GetMaxFloorRadius@CCollisionInfo@@QAEMXZ
       1645  66C 00117500 ?GetMaxPlayers@CEntity@@SAJXZ
       1646  66D 00117E00 ?GetMaxTessellationLevel@CEntity@@UAEMXZ
       1647  66E 000C6BD0 ?GetMinimumRenderRange@CWorldRenderPrefs@@QAEMXZ
       1648  66F 0008FEC0 ?GetMipCt@CEditModel@@QAEJXZ
       1649  670 0012ECD0 ?GetMipDistance@CBrushMip@@QAEMXZ
       1650  671 0012ECE0 ?GetMipIndex@CBrushMip@@QAEJXZ
       1651  672 000A0B70 ?GetMipModel@CModelObject@@QAEJM@Z
       1652  673 00117B80 ?GetMirror@CEntity@@UAEHJAAVCMirrorParameters@@@Z
       1653  674 00117B30 ?GetMirrorName@CEntity@@UAEABVCTString@@J@Z
       1654  675 0011D5C0 ?GetModel@CEntity@@QAEABVCTFileName@@XZ
       1655  676 0011D5B0 ?GetModelColor@CEntity@@QBEKXZ
       1656  677 001543F0 ?GetModelColor@CModelInstance@@QAEAAKXZ
       1657  678 0011DE90 ?GetModelDataForComponent@CEntity@@QAEPAVCModelData@@J@Z
       1658  679 00117A50 ?GetModelForRendering@CEntity@@UAEPAVCModelObject@@XZ
       1659  67A 000A09B0 ?GetModelInfo@CModelObject@@QAEXAAVCModelInfo@@@Z
       1660  67B 0001C050 ?GetModelInstance@CEntity@@QAEPAVCModelInstance@@XZ
       1661  67C 000B7520 ?GetModelInstance@CWorld@@QAEPAVCModelInstance@@VCTFileName@@@Z
       1662  67D 00117A60 ?GetModelInstanceForRendering@CEntity@@UAEPAVCModelInstance@@XZ
       1663  67E 0011D6E0 ?GetModelMainTexture@CEntity@@QAEABVCTFileName@@XZ
       1664  67F 0001C040 ?GetModelObject@CEntity@@QAEPAVCModelObject@@XZ
       1665  680 001543B0 ?GetModelVertices@CModelInstance@@QAEXAAV?$CStaticStackArray@V?$Vector@M$02@@@@AAV?$Matrix@M$02$02@@AAV?$Vector@M$02@@MM@Z
       1666  681 000B2F80 ?GetModelVertices@CModelObject@@QAEXAAV?$CStaticStackArray@V?$Vector@M$02@@@@AAV?$Matrix@M$02$02@@AAV?$Vector@M$02@@MM@Z
       1667  682 0011D970 ?GetModelVerticesAbsolute@CEntity@@QAEXAAV?$CStaticStackArray@V?$Vector@M$02@@@@MM@Z
       1668  683 0000FAC0 ?GetMouseLookMode@CInput@@QBEHXZ
       1669  684 0018B9C0 ?GetMyPlayerIndex@CPlayerEntity@@QAEJXZ
       1670  685 00117850 ?GetName@CEntity@@UBEABVCTString@@XZ
       1671  686 00154390 ?GetName@CModelInstance@@QAEABVCTString@@XZ
       1672  687 000A2570 ?GetName@CModelObject@@QAE?AVCTFileName@@XZ
       1673  688 00128A50 ?GetName@CPlayerCharacter@@QBEABVCTString@@XZ
       1674  689 0018B9B0 ?GetName@CPlayerEntity@@UBEABVCTString@@XZ
       1675  68A 000014F0 ?GetName@CSerial@@QAEABVCTFileName@@XZ
       1676  68B 00001470 ?GetName@CTFileName@@QAEABV1@XZ
       1677  68C 0007E000 ?GetName@CTextureObject@@QAEABVCTFileName@@XZ
       1678  68D 000B8110 ?GetName@CWorld@@QAEABVCTString@@XZ
       1679  68E 00128A60 ?GetNameForPrinting@CPlayerCharacter@@QBE?BVCTString@@XZ
       1680  68F 00127350 ?GetNearestPolygon@CEntity@@QAEPAVCBrushPolygon@@AAV?$Vector@M$02@@AAV?$Plane@M$02@@AAM@Z
       1681  690 00164030 ?GetNewArrays@CArrayHolder@@QAEJXZ
       1682  691 0012ED10 ?GetNext@CBrushMip@@QAEPAV1@XZ
       1683  692 00097AA0 ?GetNextValidPatchIndex@CEditModel@@QAEXAAJ@Z
       1684  693 0000D860 ?GetNextWord@CInfoFile@@QAE?AVCTString@@AAV2@@Z
       1685  694 00017470 ?GetNoOfFineMips@CTextureData@@QBEKXZ
       1686  695 00017440 ?GetNoOfMips@CTextureData@@QBEKXZ
       1687  696 00152340 ?GetNumColisionBoxes@CModelInstance@@QAEJXZ
       1688  697 0001CE90 ?GetNumMapAnimals@CSunstormWorldVariables@@QBEJXZ
       1689  698 000F5A50 ?GetNumberOfEntitiesWithName@CNetworkLibrary@@QAEJABVCTString@@@Z
       1690  699 00152CE0 ?GetOffsetPos@CModelInstance@@QAE?AV?$Vector@M$02@@XZ
       1691  69A 00152D00 ?GetOffsetRot@CModelInstance@@QAE?AV?$Vector@M$02@@XZ
       1692  69B 0001BF00 ?GetOpacity@CEntity@@UAEMXZ
       1693  69C 00123250 ?GetOverridenState@CDLLEntityClass@@QAEJJ@Z
       1694  69D 00001980 ?GetOwner@CInfoFile@@QAEHXZ
       1695  69E 0001D530 ?GetOwner@CSunstormWorldVariables@@QBEJXZ
       1696  69F 0009C450 ?GetPaperColor@CModelRenderPrefs@@QAEKXZ
       1697  6A0 0001C070 ?GetParent@CEntity@@QAEPAV1@XZ
       1698  6A1 001537A0 ?GetParent@CModelInstance@@QAEPAV1@PAV1@@Z
       1699  6A2 00004C10 ?GetPassedTime@CAnimObject@@QBEMXZ
       1700  6A3 000A0C90 ?GetPatchesMask@CModelObject@@QAEKXZ
       1701  6A4 00001940 ?GetPathName@CInfoFile@@QAEAAVCTString@@XZ
       1702  6A5 0001BFB0 ?GetPhysicsFlags@CEntity@@QBEKXZ
       1703  6A6 00180190 ?GetPitchDirection@CMovableEntity@@QAEXMAAV?$Vector@M$02@@@Z
       1704  6A7 00017420 ?GetPixHeight@CTextureData@@QBEJXZ
       1705  6A8 00017410 ?GetPixWidth@CTextureData@@QBEJXZ
       1706  6A9 0001BF60 ?GetPlacement@CEntity@@QBEABVCPlacement3D@@XZ
       1707  6AA 001678E0 ?GetPlaneFromPoint@CTerrain@@QAE?AV?$Plane@M$02@@AAV?$Vector@M$02@@@Z
       1708  6AB 00117510 ?GetPlayerEntity@CEntity@@SAPAV1@J@Z
       1709  6AC 000F5980 ?GetPlayerEntityByName@CNetworkLibrary@@QAEPAVCEntity@@ABVCTString@@@Z
       1710  6AD 0018B980 ?GetPlayerName@CPlayerEntity@@QAE?AVCTString@@XZ
       1711  6AE 001042B0 ?GetPlayerPredictorPosition@CSessionState@@QAEABV?$Vector@M$02@@J@Z
       1712  6AF 000F5C40 ?GetPlayerSource@CNetworkLibrary@@QAEPAVCPlayerSource@@PAVCEntity@@@Z
       1713  6B0 001041F0 ?GetPlayersCount@CSessionState@@QAEJXZ
       1714  6B1 0001CD00 ?GetPointLimits@CSunstormWorldVariables@@QBEJW4ePointLimitType@@@Z
       1715  6B2 000C6B50 ?GetPolygonsFillType@CWorldRenderPrefs@@QAE?AW4FillType@1@XZ
       1716  6B3 000C6B70 ?GetPolygonsInkColor@CWorldRenderPrefs@@QAEKXZ
       1717  6B4 0002ED70 ?GetPos_t@CTStream@@QAEJXZ
       1718  6B5 00126E00 ?GetPosition@CLastPositions@@QAEABV?$Vector@M$02@@J@Z
       1719  6B6 00117E90 ?GetPredicted@CEntity@@QAEPAV1@XZ
       1720  6B7 00117E10 ?GetPredictionPair@CEntity@@UAEPAV1@XZ
       1721  6B8 00117E60 ?GetPredictionRange@CEntity@@UAEMXZ
       1722  6B9 00102070 ?GetPredictionStepsCount@CSessionState@@QAEJXZ
       1723  6BA 00118010 ?GetPredictionTail@CEntity@@QAEPAV1@XZ
       1724  6BB 0008D4B0 ?GetPredictionTail@CSoundObject@@QAEPAV1@KK@Z
       1725  6BC 00117E50 ?GetPredictionTime@CEntity@@UAEMXZ
       1726  6BD 00117E80 ?GetPredictor@CEntity@@QAEPAV1@XZ
       1727  6BE 0012ED20 ?GetPrev@CBrushMip@@QAEPAV1@XZ
       1728  6BF 000979E0 ?GetPreviousValidPatchIndex@CEditModel@@QAEXAAJ@Z
       1729  6C0 000192B0 ?GetQuadsPerTileRow@CTerrain@@QAEJXZ
       1730  6C1 000F3980 ?GetRealTimeFactor@CNetworkLibrary@@QAEMXZ
       1731  6C2 00033850 ?GetRealTimeTick@CTimer@@QBEMXZ
       1732  6C3 0017FE50 ?GetReferenceHeadingDirection@CMovableEntity@@QAEXABV?$Vector@M$02@@MAAV2@@Z
       1733  6C4 0017FDB0 ?GetRelativeHeading@CMovableEntity@@QAEMABV?$Vector@M$02@@@Z
       1734  6C5 0017FE00 ?GetRelativePitch@CMovableEntity@@QAEMABV?$Vector@M$02@@@Z
       1735  6C6 000E7750 ?GetRemoteAddress_t@CCommunicationInterface@@QAEXAAK0@Z
       1736  6C7 0001C000 ?GetRenderType@CEntity@@QAE?AW4RenderType@1@XZ
       1737  6C8 0009C370 ?GetRenderType@CModelRenderPrefs@@QAEKXZ
       1738  6C9 00113E40 ?GetRenderer@@YAPAVCRenderer@@XZ
       1739  6CA 000843D0 ?GetRenderingTime@CTextureEffectGlobal@@QAENXZ
       1740  6CB 0001BF70 ?GetRotationMatrix@CEntity@@QBEABV?$Matrix@M$02$02@@XZ
       1741  6CC 0007E2C0 ?GetRowPointer@CTextureData@@QAEPAKJ@Z
       1742  6CD 00084EC0 ?GetSecondsLength@CSoundData@@QAENXZ
       1743  6CE 0011E4A0 ?GetSectorFromPoint@CEntity@@QAEPAVCBrushSector@@ABV?$Vector@M$02@@@Z
       1744  6CF 000C6BF0 ?GetSelectedEntityModel@CWorldRenderPrefs@@QAEPAVCModelObject@@XZ
       1745  6D0 000C6C90 ?GetSelectedPortalModel@CWorldRenderPrefs@@QAEPAVCModelObject@@XZ
       1746  6D1 000C6CD0 ?GetSelectionType@CWorldRenderPrefs@@QAE?AW4SelectionType@1@XZ
       1747  6D2 000F5E30 ?GetSessionProperties@CNetworkLibrary@@QAEPAXXZ
       1748  6D3 00167450 ?GetShadeColor@CTerrain@@QAEKPAVCShadingInfo@@@Z
       1749  6D4 00166400 ?GetShadingMapHeight@CTerrain@@QAEJXZ
       1750  6D5 001663D0 ?GetShadingMapWidth@CTerrain@@QAEJXZ
       1751  6D6 00017DE0 ?GetShadowLayersCount@CBrushShadowMap@@QAEJXZ
       1752  6D7 001663B0 ?GetShadowMapHeight@CTerrain@@QAEJXZ
       1753  6D8 00179780 ?GetShadowMapTC@CTerrainTile@@QAEAAV?$CStaticStackArray@UGFXTexCoord@@@@XZ
       1754  6D9 00166390 ?GetShadowMapWidth@CTerrain@@QAEJXZ
       1755  6DA 0009C3B0 ?GetShadowQuality@CModelRenderPrefs@@QAEJXZ
       1756  6DB 00079760 ?GetShadowSize@CShadowMap@@QAEKXZ
       1757  6DC 000C6B90 ?GetShadowsType@CWorldRenderPrefs@@QAE?AW4ShadowsType@1@XZ
       1758  6DD 001175B0 ?GetSize@CEntity@@QAEXAAV?$AABBox@M$02@@@Z
       1759  6DE 0002F1E0 ?GetSize_t@CTStream@@QAEJXZ
       1760  6DF 000E75A0 ?GetSocketError@CCommunicationInterface@@QAE?AVCTString@@J@Z
       1761  6E0 0011E5F0 ?GetSoundLength@CEntity@@QAENJ@Z
       1762  6E1 0001C080 ?GetSoundPosition@CEntity@@UAE?AV?$Vector@M$02@@XZ
       1763  6E2 0004B3E0 ?GetSpaceCoordinates@CMappingDefinition@@QBEXABVCMappingVectors@@ABV?$Vector@J$01@@AAV?$Vector@M$02@@@Z
       1764  6E3 0001BFA0 ?GetSpawnFlags@CEntity@@QBEKXZ
       1765  6E4 000B8130 ?GetSpawnFlags@CWorld@@QAEKXZ
       1766  6E5 000205F0 ?GetSrc@CRelationLnk@@QAEAAVCRelationSrc@@XZ
       1767  6E6 00030D80 ?GetStreamCRC32_t@CTFileStream@@UAEKXZ
       1768  6E7 0002EDC0 ?GetStreamCRC32_t@CTStream@@UAEKXZ
       1769  6E8 0002ED90 ?GetStreamSize@CTStream@@QAEJXZ
       1770  6E9 00029190 ?GetString@CShell@@QAE?AVCTString@@ABV2@@Z
       1771  6EA 0000EE00 ?GetStringValue@CInfoFile@@QAE?AVCTString@@ABV2@@Z
       1772  6EB 0001D540 ?GetSunstormWorldVariables@CWorld@@QAEAAVCSunstormWorldVariables@@XZ
       1773  6EC 0001D550 ?GetSunstormWorldVariables@CWorld@@QBEABVCSunstormWorldVariables@@XZ
       1774  6ED 000A0D10 ?GetSurfaceColor@CModelObject@@QAEKJJ@Z
       1775  6EE 00097950 ?GetSurfaceName@CEditModel@@QAEPBDJJ@Z
       1776  6EF 000A0DF0 ?GetSurfaceRenderFlags@CModelObject@@QAEXJJAAW4SurfaceShadingType@@AAW4SurfaceTranslucencyType@@AAK@Z
       1777  6F0 00028F70 ?GetSymbol@CShell@@QAEPAVCShellSymbol@@ABVCTString@@H@Z
       1778  6F1 001178F0 ?GetTarget@CEntity@@UBEPAV1@XZ
       1779  6F2 00128B70 ?GetTeam@CPlayerCharacter@@QBEABVCTString@@XZ
       1780  6F3 00128B80 ?GetTeamForPrinting@CPlayerCharacter@@QBE?BVCTString@@XZ
       1781  6F4 0001C060 ?GetTerrain@CEntity@@QAEPAVCTerrain@@XZ
       1782  6F5 000CE650 ?GetTerrainSize@CWorld@@QAEXAAV?$Vector@M$02@@0@Z
       1783  6F6 00179750 ?GetTexCoords@CTerrainTile@@QAEAAV?$CStaticStackArray@UGFXTexCoord@@@@XZ
       1784  6F7 0007E170 ?GetTexel@CTextureData@@QAEKJJ@Z
       1785  6F8 000542E0 ?GetTextWidth@CDrawPort@@QBEKABVCTString@@@Z
       1786  6F9 0004B330 ?GetTextureCoordinates@CMappingDefinition@@QBEXABVCMappingVectors@@ABV?$Vector@M$02@@AAV?$Vector@J$01@@@Z
       1787  6FA 0011DE70 ?GetTextureDataForComponent@CEntity@@QAEPAVCTextureData@@J@Z
       1788  6FB 0009CB40 ?GetTextureDimensions@CModelData@@QAEXAAJ0@Z
       1789  6FC 0016B9B0 ?GetThumbnail@CTerrainLayer@@QAEPAVCTextureData@@JJ@Z
       1790  6FD 00179810 ?GetTileLayers@CTerrainTile@@QAEAAV?$CStaticStackArray@UTileLayer@@@@XZ
       1791  6FE 0016BC70 ?GetTilesPerRow@CTerrainLayer@@QAEJXZ
       1792  6FF 00179840 ?GetTopMap@CTerrainTile@@QAEPAVCTextureData@@XZ
       1793  700 0001C0E0 ?GetType@CEntity@@UAEJXZ
       1794  701 0017D380 ?GetType@CMovableBrushEntity@@UAEJXZ
       1795  702 0017E100 ?GetType@CMovableEntity@@UAEJXZ
       1796  703 00188AF0 ?GetType@CMovableModelEntity@@UAEJXZ
       1797  704 000B62E0 ?GetType@CNetworkMessage@@QBE?AW4NetworkMessageType@@XZ
       1798  705 0018B910 ?GetType@CPlayerEntity@@UAEJXZ
       1799  706 0001C4B0 ?GetType@CRationalEntity@@UAEJXZ
       1800  707 000E7300 ?GetUDPBufferSizes@CCommunicationInterface@@QAEXPAJ0@Z
       1801  708 00027490 ?GetUsedCount@CSerial@@QAEJXZ
       1802  709 0014D310 ?GetUsedMemory@CAnimSet@@UAEJXZ
       1803  70A 001646C0 ?GetUsedMemory@CArrayHolder@@QAEJXZ
       1804  70B 00017AC0 ?GetUsedMemory@CBrushEdge@@QAEJXZ
       1805  70C 00017A50 ?GetUsedMemory@CBrushPlane@@QAEJXZ
       1806  70D 00131400 ?GetUsedMemory@CBrushPolygon@@QAEJXZ
       1807  70E 00018030 ?GetUsedMemory@CBrushPolygonTexture@@QAEJXZ
       1808  70F 001362A0 ?GetUsedMemory@CBrushSector@@QAEJXZ
       1809  710 00137AC0 ?GetUsedMemory@CBrushShadowMap@@QAEJXZ
       1810  711 00017A00 ?GetUsedMemory@CBrushVertex@@QAEJXZ
       1811  712 00120A70 ?GetUsedMemory@CEntity@@UAEJXZ
       1812  713 00122C80 ?GetUsedMemory@CEntityClass@@UAEJXZ
       1813  714 0001C2E0 ?GetUsedMemory@CLiveEntity@@UAEJXZ
       1814  715 001512E0 ?GetUsedMemory@CMesh@@UAEJXZ
       1815  716 0009CA30 ?GetUsedMemory@CModelData@@UAEJXZ
       1816  717 00154B20 ?GetUsedMemory@CModelInstance@@QAEJXZ
       1817  718 000A3140 ?GetUsedMemory@CModelObject@@QAEJXZ
       1818  719 00188420 ?GetUsedMemory@CMovableEntity@@UAEJXZ
       1819  71A 00188E60 ?GetUsedMemory@CMovableModelEntity@@UAEJXZ
       1820  71B 0001C4E0 ?GetUsedMemory@CRationalEntity@@UAEJXZ
       1821  71C 00001510 ?GetUsedMemory@CSerial@@UAEJXZ
       1822  71D 00079300 ?GetUsedMemory@CShader@@UAEJXZ
       1823  71E 0007A5B0 ?GetUsedMemory@CShadowMap@@QAEHAAJ00AAM@Z
       1824  71F 00163350 ?GetUsedMemory@CSkeleton@@UAEJXZ
       1825  720 00085300 ?GetUsedMemory@CSoundData@@UAEJXZ
       1826  721 0016CE10 ?GetUsedMemory@CTerrainLayer@@QAEJXZ
       1827  722 00179870 ?GetUsedMemory@CTerrainTile@@QAEJXZ
       1828  723 0007E0D0 ?GetUsedMemory@CTextureData@@UAEJXZ
       1829  724 0000EC40 ?GetValue@CInfoFile@@QAE?AVCTString@@ABV2@@Z
       1830  725 00029230 ?GetValue@CShell@@QAE?AVCTString@@ABV2@@Z
       1831  726 0016E1A0 ?GetValueFromMask@@YAEPAVCTerrain@@JV?$Vector@M$02@@@Z
       1832  727 0001CE60 ?GetVersionString@CSunstormWorldVariables@@UBE?AVCTString@@XZ
       1833  728 00017B40 ?GetVertexCoordinatesAbsolute@CBrushPolygonEdge@@QAEXAAV?$Vector@M$02@@0@Z
       1834  729 00017CA0 ?GetVertexCoordinatesPreciseAbsolute@CBrushPolygonEdge@@QAEXAAV?$Vector@N$02@@0@Z
       1835  72A 00017C40 ?GetVertexCoordinatesPreciseRelative@CBrushPolygonEdge@@QAEXAAV?$Vector@N$02@@0@Z
       1836  72B 00017BC0 ?GetVertexCoordinatesRelative@CBrushPolygonEdge@@QAEXAAV?$Vector@M$02@@0@Z
       1837  72C 00017B00 ?GetVertices@CBrushPolygonEdge@@QAEXAAPAVCBrushVertex@@0@Z
       1838  72D 0003D840 ?GetVertices@CObjectPolygonEdge@@QAEXAAPAVCObjectVertex@@0@Z
       1839  72E 00179720 ?GetVertices@CTerrainTile@@QAEAAV?$CStaticStackArray@UGFXVertex4@@@@XZ
       1840  72F 000C6AD0 ?GetVerticesFillType@CWorldRenderPrefs@@QAE?AW4FillType@1@XZ
       1841  730 000C6AF0 ?GetVerticesInkColor@CWorldRenderPrefs@@QAEKXZ
       1842  731 000192C0 ?GetVerticesPerTileRow@CTerrain@@QAEJXZ
       1843  732 00117DF0 ?GetVisTweaks@CEntity@@UAEKXZ
       1844  733 000C6C30 ?GetVisibilityBoxModel@CWorldRenderPrefs@@QAEPAVCModelObject@@XZ
       1845  734 000C6C70 ?GetVisibilitySphereModel@CWorldRenderPrefs@@QAEPAVCModelObject@@XZ
       1846  735 0000F4E0 ?GetWidth@CDrawPort@@QBEJXZ
       1847  736 0008FED0 ?GetWidth@CEditModel@@QAEJXZ
       1848  737 000516C0 ?GetWidth@CFontData@@QBEJXZ
       1849  738 000A0990 ?GetWidth@CModelObject@@QAEJXZ
       1850  739 000173F0 ?GetWidth@CTextureData@@QBEJXZ
       1851  73A 0007D6F0 ?GetWidth@CTextureObject@@QBEJXZ
       1852  73B 0000B120 ?GetWindowsError@@YA?BVCTString@@K@Z
       1853  73C 0001C020 ?GetWorld@CEntity@@QAEPAVCWorld@@XZ
       1854  73D 0001DB40 ?GetWorld@CNetworkLibrary@@QAEAAVCWorld@@XZ
       1855  73E 0011E5A0 ?GetWorldPolygonIndex@CEntity@@QAEJPAVCBrushPolygon@@@Z
       1856  73F 0011E580 ?GetWorldPolygonPointer@CEntity@@QAEPAVCBrushPolygon@@J@Z
       1857  740 0017F630 ?GiveImpulseTranslationAbsolute@CMovableEntity@@QAEXABV?$Vector@M$02@@@Z
       1858  741 0017F530 ?GiveImpulseTranslationRelative@CMovableEntity@@QAEXABV?$Vector@M$02@@@Z
       1859  742 00053A10 ?GrabScreen@CDrawPort@@QBEXAAVCImageInfo@@J@Z
       1860  743 00053CF0 ?GrabScreenRect@CDrawPort@@QBEXAAVCImageInfo@@AAUtagRECT@@J@Z
       1861  744 000121D0 ?GrowMemory@@YAXPAPAXJ@Z
       1862  745 00188F30 ?H0x00020002_WaitUntilScheduledAnimStarts_01@CMovableModelEntity@@QAEHABVCEntityEvent@@@Z
       1863  746 00188FB0 ?H0x00020003_WaitUntilScheduledAnimStarts_02@CMovableModelEntity@@QAEHABVCEntityEvent@@@Z
       1864  747 00189010 ?H0x00020004_WaitUntilScheduledAnimStarts_03@CMovableModelEntity@@QAEHABVCEntityEvent@@@Z
       1865  748 0004FB40 ?HSVToColor@@YAKEEE@Z
       1866  749 00030EB0 ?HandleAccess@CTFileStream@@UAEXJH@Z
       1867  74A 00031450 ?HandleAccess@CTMemoryStream@@UAEXJH@Z
       1868  74B 0011C110 ?HandleEvent@CEntity@@UAEHABVCEntityEvent@@@Z
       1869  74C 00121870 ?HandleEvent@CRationalEntity@@UAEHABVCEntityEvent@@@Z
       1870  74D 001006A0 ?HandleMovers@CSessionState@@QAEXXZ
       1871  74E 0011CAB0 ?HandleSentEvents@CEntity@@SAXXZ
       1872  74F 000ECDA0 ?HandleTimer@CNetworkTimerHandler@@UAEXXZ
       1873  750 00088690 ?HandleTimer@CSoundTimerHandler@@UAEXXZ
       1874  751 000337E0 ?HandleTimerHandlers@CTimer@@QAEXXZ
       1875  752 00100900 ?HandleTimers@CSessionState@@QAEXM@Z
       1876  753 001231C0 ?HandlerForStateAndEvent@CDLLEntityClass@@QAEP8CEntity@@AEHABVCEntityEvent@@@ZJJ@Z
       1877  754 0011C0F0 ?HandlerForStateAndEvent@CEntity@@UAEP81@AEHABVCEntityEvent@@@ZJJ@Z
       1878  755 00122DA0 ?HandlerForStateAndEvent@CEntityClass@@QAEP8CEntity@@AEHABVCEntityEvent@@@ZJJ@Z
       1879  756 00123200 ?HandlerNameForState@CDLLEntityClass@@QAEPBDJ@Z
       1880  757 00016B60 ?HasAPI@CGfxLibrary@@QAEHW4GfxAPIType@@@Z
       1881  758 00154430 ?HasAlpha@CModelInstance@@QAEHXZ
       1882  759 000A2450 ?HasAlpha@CModelObject@@QAEHXZ
       1883  75A 001378A0 ?HasDynamicLayers@CBrushShadowMap@@UAEHXZ
       1884  75B 00079F80 ?HasDynamicLayers@CShadowMap@@UAEHXZ
       1885  75C 00008820 ?HasPrefix@CTString@@QBEHABV1@@Z
       1886  75D 00154450 ?HasShadow@CModelInstance@@QAEHM@Z
       1887  75E 000A2530 ?HasShadow@CModelObject@@QAEHJ@Z
       1888  75F 00001800 ?Head@CListHead@@QBEAAVCListNode@@XZ
       1889  760 0009C410 ?HiddenLines@CModelRenderPrefs@@QAEHXZ
       1890  761 000A2500 ?HidePatch@CModelObject@@QAEXJ@Z
       1891  762 000B84B0 ?HideSelectedEntities@CWorld@@QAEXAAV?$CSelection@VCEntity@@$00@@@Z
       1892  763 000B8560 ?HideSelectedSectors@CWorld@@QAEXAAV?$CSelection@VCBrushSector@@$00@@@Z
       1893  764 000B84F0 ?HideUnselectedEntities@CWorld@@QAEXXZ
       1894  765 000B8590 ?HideUnselectedSectors@CWorld@@QAEXXZ
       1895  766 0000D250 ?IFeel_ChangeGain@@YAXM@Z
       1896  767 0000D050 ?IFeel_DeleteDevice@@YAXXZ
       1897  768 0000C950 ?IFeel_GetProductName@@YA?AVCTString@@XZ
       1898  769 0000C9A0 ?IFeel_GetProjectFileName@@YA?AVCTString@@XZ
       1899  76A 0000CC90 ?IFeel_InitDevice@@YAHAAPAUHINSTANCE__@@AAPAUHWND__@@@Z
       1900  76B 0000D0B0 ?IFeel_LoadFile@@YAHVCTFileName@@@Z
       1901  76C 0000D200 ?IFeel_PlayEffect@@YAXPAD@Z
       1902  76D 0000D230 ?IFeel_StopEffect@@YAXPAD@Z
       1903  76E 00120A10 ?IRnd@CEntity@@QAEKXZ
       1904  76F 0002EA40 ?IgnoreApplicationPath@@YAXXZ
       1905  770 000F6CD0 ?IgnoreContents@CNetworkMessage@@QAEXXZ
       1906  771 00165450 ?ImportHeightMap_t@CTerrain@@QAEXVCTFileName@@H@Z
       1907  772 0016BC80 ?ImportLayerMask_t@CTerrainLayer@@QAEXVCTFileName@@@Z
       1908  773 0009C3A0 ?IncreaseShadowQuality@CModelRenderPrefs@@QAEXXZ
       1909  774 000EC5C0 ?Index@CPlayerSource@@QAEJXZ
       1910  775 0009E4B0 ?IndicesToPtrs@CModelData@@QAEXXZ
       1911  776 0011EF40 ?InflictBoxDamage@CEntity@@QAEXPAV1@W4DamageType@@MABV?$AABBox@M$02@@@Z
       1912  777 0011E6C0 ?InflictDirectDamage@CEntity@@QAEXPAV1@0W4DamageType@@MABV?$Vector@M$02@@2@Z
       1913  778 0011E750 ?InflictRangeDamage@CEntity@@QAEXPAV1@W4DamageType@@MABV?$Vector@M$02@@MM@Z
       1914  779 0000AF30 ?InfoMessage@@YAXPBDZZ
       1915  77A 000CE890 ?Init@CCastRay@@QAEXPAVCEntity@@ABV?$Vector@M$02@@1@Z
       1916  77B 000E6C20 ?Init@CCommunicationInterface@@QAEXXZ
       1917  77C 0006EAF0 ?Init@CGfxLibrary@@QAEXXZ
       1918  77D 000EBB90 ?Init@CMessageDispatcher@@QAEXABVCTString@@@Z
       1919  77E 000ED770 ?Init@CNetworkLibrary@@QAEXABVCTString@@@Z
       1920  77F 00086320 ?Init@CSoundLibrary@@QAEXXZ
       1921  780 0004C1B0 ?InitAPIs@CGfxLibrary@@AAEXXZ
       1922  781 0011CE60 ?InitAsBrush@CEntity@@QAEXXZ
       1923  782 0011CD80 ?InitAsEditorModel@CEntity@@QAEXXZ
       1924  783 0011CFD0 ?InitAsFieldBrush@CEntity@@QAEXXZ
       1925  784 0011CBB0 ?InitAsModel@CEntity@@QAEXXZ
       1926  785 0011CE10 ?InitAsSkaEditorModel@CEntity@@QAEXXZ
       1927  786 0011CC40 ?InitAsSkaModel@CEntity@@QAEXXZ
       1928  787 0011CC90 ?InitAsTerrain@CEntity@@QAEXXZ
       1929  788 0011CBA0 ?InitAsVoid@CEntity@@QAEXXZ
       1930  789 000F66B0 ?InitCRCGather@CNetworkLibrary@@QAEXXZ
       1931  78A 000519E0 ?InitCloned@CDrawPort@@QAEXPAV1@NNNN@Z
       1932  78B 000C5960 ?InitCollisionGrid@CWorld@@QAEXXZ
       1933  78C 0005FB40 ?InitContext_D3D@CGfxLibrary@@AAEXXZ
       1934  78D 00062C20 ?InitContext_OGL@CGfxLibrary@@AAEXXZ
       1935  78E 000603E0 ?InitDisplay_D3D@CGfxLibrary@@AAEHJJJW4DisplayDepth@@@Z
       1936  78F 0005F840 ?InitDriver_D3D@CGfxLibrary@@AAEHXZ
       1937  790 00063DE0 ?InitDriver_OGL@CGfxLibrary@@AAEHH@Z
       1938  791 000554A0 ?InitTexture@CDrawPort@@QBEXPAVCTextureObject@@H@Z
       1939  792 00033B00 ?InitTranslation@@YAXXZ
       1940  793 0011F670 ?InitTypes@CEntity@@QAEHJ@Z
       1941  794 000E6D10 ?InitWinsock@CCommunicationInterface@@QAEXXZ
       1942  795 001180E0 ?Initialize@CEntity@@QAEXABVCEntityEvent@@@Z
       1943  796 00010FC0 ?Initialize@CInput@@QAEXXZ
       1944  797 00079B80 ?Initialize@CShadowMap@@QAEXJJJJJ@Z
       1945  798 00028860 ?Initialize@CShell@@QAEXXZ
       1946  799 00136650 ?InitializeShadowMap@CBrushPolygon@@QAEXXZ
       1947  79A 00118180 ?Initialize_internal@CEntity@@QAEXABVCEntityEvent@@@Z
       1948  79B 00009870 ?InsertChar@CTString@@QAEXJD@Z
       1949  79C 000F6F00 ?InsertSubMessage@CNetworkMessage@@QAEXABV1@@Z
       1950  79D 001341C0 ?InsertVertexIntoTriangle@CBrushSector@@QAEXAAV?$CSelection@VCBrushPolygon@@$0BAA@@@V?$Vector@M$02@@@Z
       1951  79E 00079A30 ?Invalidate@CShadowMap@@QAEXH@Z
       1952  79F 000360F0 ?Invalidate@CUpdateable@@QAEXXZ
       1953  7A0 00036140 ?Invalidate@CUpdateableRT@@QAEXXZ
       1954  7A1 000380A0 ?Inverse@CObject3D@@QAEXXZ
       1955  7A2 000EC6E0 ?IsActive@CPlayerBuffer@@QAEHXZ
       1956  7A3 000EC5B0 ?IsActive@CPlayerSource@@QAEHXZ
       1957  7A4 0006DE90 ?IsActive@CSoundLibrary@@QAEHXZ
       1958  7A5 00118030 ?IsAllowedForPrediction@CEntity@@QBEHXZ
       1959  7A6 00004D60 ?IsAnimFinished@CAnimObject@@QBEHXZ
       1960  7A7 00154260 ?IsAnimationPlaying@CModelInstance@@QAEHJ@Z
       1961  7A8 00122C90 ?IsAutoFreed@CEntityClass@@UAEHXZ
       1962  7A9 0009CAD0 ?IsAutoFreed@CModelData@@UAEHXZ
       1963  7AA 00001500 ?IsAutoFreed@CSerial@@UAEHXZ
       1964  7AB 000852F0 ?IsAutoFreed@CSoundData@@UAEHXZ
       1965  7AC 0007E0C0 ?IsAutoFreed@CTextureData@@UAEHXZ
       1966  7AD 000C6A60 ?IsAutoMipBrushingOn@CWorldRenderPrefs@@QAEHXZ
       1967  7AE 000A0BE0 ?IsAutoMipModeling@CModelObject@@QAEHXZ
       1968  7AF 000C69A0 ?IsBackgroundTextureOn@CWorldRenderPrefs@@QAEHXZ
       1969  7B0 0004FE50 ?IsBigger@@YAHKK@Z
       1970  7B1 0004FDF0 ?IsBlack@@YAHK@Z
       1971  7B2 000F3820 ?IsConnectionStable@CNetworkLibrary@@QAEHXZ
       1972  7B3 00016B40 ?IsCurrentModeAccelerated@CGfxLibrary@@QAEHXZ
       1973  7B4 00016B50 ?IsCurrentModeDH@CGfxLibrary@@QAEHXZ
       1974  7B5 000F3770 ?IsDemoPlayFinished@CNetworkLibrary@@QAEHXZ
       1975  7B6 00117100 ?IsDerivedFromClass@@YAHPAVCEntity@@PBD@Z
       1976  7B7 000F38A0 ?IsDisconnected@CNetworkLibrary@@QAEHXZ
       1977  7B8 00100490 ?IsDisconnected@CSessionState@@QAEHXZ
       1978  7B9 00051600 ?IsDualHead@CDisplayMode@@QAEHXZ
       1979  7BA 00051D80 ?IsDualHead@CDrawPort@@QAEHXZ
       1980  7BB 000C6960 ?IsEditorModelsOn@CWorldRenderPrefs@@QAEHXZ
       1981  7BC 00011DE0 ?IsEmpty@CListHead@@QBEHXZ
       1982  7BD 001174D0 ?IsEmptyBrush@CEntity@@QBEHXZ
       1983  7BE 000C6980 ?IsFieldBrushesOn@CWorldRenderPrefs@@QAEHXZ
       1984  7BF 00008240 ?IsFileEncrypted@CCrypt@@QAEHPADW4eCryptOwner@1@@Z
       1985  7C0 00031A60 ?IsFileReadOnly@@YAHABVCTFileName@@@Z
       1986  7C1 00018E00 ?IsFirstMip@CBrushMip@@QAEHXZ
       1987  7C2 00051700 ?IsFixedWidth@CFontData@@QBEHXZ
       1988  7C3 000C6A00 ?IsFogOn@CWorldRenderPrefs@@QAEHXZ
       1989  7C4 00051640 ?IsFullScreen@CDisplayMode@@QAEHXZ
       1990  7C5 000F3950 ?IsGameFinished@CNetworkLibrary@@QAEHXZ
       1991  7C6 0004FDA0 ?IsGray@@YAHK@Z
       1992  7C7 000C6A20 ?IsHazeOn@CWorldRenderPrefs@@QAEHXZ
       1993  7C8 000017E0 ?IsHead@CListNode@@QBEHXZ
       1994  7C9 000017C0 ?IsHeadMarker@CListNode@@QBEHXZ
       1995  7CA 000C6900 ?IsHiddenLinesOn@CWorldRenderPrefs@@QAEHXZ
       1996  7CB 00084AE0 ?IsHooked@CSoundData@@QBEHXZ
       1997  7CC 00021350 ?IsHooked@CSoundObject@@QBEHXZ
       1998  7CD 00117920 ?IsImportant@CEntity@@UBEHXZ
       1999  7CE 0000F0A0 ?IsInputEnabled@CInput@@QBEHXZ
       2000  7CF 00043530 ?IsIntersecting@CIntersector@@QAEHXZ
       2001  7D0 00015CB0 ?IsIsometric@CAnyProjection3D@@QAEHXZ
       2002  7D1 00012010 ?IsLinked@CListNode@@QBEHXZ
       2003  7D2 000330C0 ?IsLocked@CTSingleLock@@QAEHXZ
       2004  7D3 00117910 ?IsMarker@CEntity@@UBEHXZ
       2005  7D4 000C6A40 ?IsMirrorsOn@CWorldRenderPrefs@@QAEHXZ
       2006  7D5 00154440 ?IsModelVisible@CModelInstance@@QAEHM@Z
       2007  7D6 000A0AA0 ?IsModelVisible@CModelObject@@QAEHM@Z
       2008  7D7 000174C0 ?IsModified@CTextureData@@QAEHXZ
       2009  7D8 000E72A0 ?IsNetworkEnabled@CCommunicationInterface@@QAEHXZ
       2010  7D9 000F37D0 ?IsNetworkEnabled@CNetworkLibrary@@QAEHXZ
       2011  7DA 00044E70 ?IsObjectPlaneVisible@CIsometricProjection3D@@UBEHABV?$Plane@M$02@@@Z
       2012  7DB 000463E0 ?IsObjectPlaneVisible@CParallelProjection3D@@UBEHABV?$Plane@M$02@@@Z
       2013  7DC 000484A0 ?IsObjectPlaneVisible@CPerspectiveProjection3D@@UBEHABV?$Plane@M$02@@@Z
       2014  7DD 000493F0 ?IsObjectPlaneVisible@CSimpleProjection3D@@UBEHABV?$Plane@M$02@@@Z
       2015  7DE 00117060 ?IsOfClass@@YAHPAVCEntity@@PBD@Z
       2016  7DF 001170D0 ?IsOfSameClass@@YAHPAVCEntity@@0@Z
       2017  7E0 0001C0A0 ?IsOfType@CEntity@@QAEHJ@Z
       2018  7E1 0000F4D0 ?IsOverlappedRendering@CDrawPort@@QBEHXZ
       2019  7E2 00015CF0 ?IsParallel@CAnyProjection3D@@QAEHXZ
       2020  7E3 00004760 ?IsPaused@CAnimObject@@QAEHXZ
       2021  7E4 000F3800 ?IsPaused@CNetworkLibrary@@QAEHXZ
       2022  7E5 00021340 ?IsPaused@CSoundObject@@QAEHXZ
       2023  7E6 00015CD0 ?IsPerspective@CAnyProjection3D@@QAEHXZ
       2024  7E7 00014100 ?IsPerspective@CPerspectiveProjection3D@@UAEHXZ
       2025  7E8 00013C30 ?IsPerspective@CProjection3D@@UAEHXZ
       2026  7E9 000F5B70 ?IsPlayerLocal@CNetworkLibrary@@QAEHPAVCEntity@@@Z
       2027  7EA 00021330 ?IsPlaying@CSoundObject@@QAEHXZ
       2028  7EB 000F3790 ?IsPlayingDemo@CNetworkLibrary@@QAEHXZ
       2029  7EC 000F37A0 ?IsPlayingDemoTutorial@CNetworkLibrary@@QAEHXZ
       2030  7ED 00053FF0 ?IsPointVisible@CDrawPort@@QBEHJJMJJ@Z
       2031  7EE 001818C0 ?IsPolygonBelowPoint@CMovableEntity@@QAEHPAVCBrushPolygon@@ABV?$Vector@M$02@@M@Z
       2032  7EF 0001BFF0 ?IsPredictable@CEntity@@QBEHXZ
       2033  7F0 0001BFE0 ?IsPredicted@CEntity@@QBEHXZ
       2034  7F1 000F39F0 ?IsPredicting@CNetworkLibrary@@QAEHXZ
       2035  7F2 00117FC0 ?IsPredictionHead@CEntity@@QAEHXZ
       2036  7F3 0001BFD0 ?IsPredictor@CEntity@@QBEHXZ
       2037  7F4 00135630 ?IsReTripleAvailable@CBrushSector@@QAEHAAV?$CSelection@VCBrushPolygon@@$0BAA@@@@Z
       2038  7F5 000021D0 ?IsReadable@CTFileStream@@UAEHXZ
       2039  7F6 00031400 ?IsReadable@CTMemoryStream@@UAEHXZ
       2040  7F7 000F37C0 ?IsRecordingDemo@CNetworkLibrary@@QAEHXZ
       2041  7F8 000021E0 ?IsSeekable@CTFileStream@@UAEHXZ
       2042  7F9 00031440 ?IsSeekable@CTMemoryStream@@UAEHXZ
       2043  7FA 00018300 ?IsSelected@CBrushPolygon@@QBEHK@Z
       2044  7FB 00018700 ?IsSelected@CBrushSector@@QBEHK@Z
       2045  7FC 000179F0 ?IsSelected@CBrushVertex@@QBEHK@Z
       2046  7FD 0001BF50 ?IsSelected@CEntity@@QBEHK@Z
       2047  7FE 0001DB30 ?IsServer@CNetworkLibrary@@QAEHXZ
       2048  7FF 001378D0 ?IsShadowFlat@CBrushShadowMap@@UAEHAAK@Z
       2049  800 000177F0 ?IsShadowFlat@CShadowMap@@UAEHAAK@Z
       2050  801 000C6940 ?IsShowEntityNamesOn@CWorldRenderPrefs@@QAEHXZ
       2051  802 000C6920 ?IsShowTargetsOn@CWorldRenderPrefs@@QAEHXZ
       2052  803 00015CA0 ?IsSimple@CAnyProjection3D@@QAEHXZ
       2053  804 00181BC0 ?IsSomeNearPolygonBelowPoint@CMovableEntity@@QAEHABV?$Vector@M$02@@M@Z
       2054  805 00181BD0 ?IsSomeSectorPolygonBelowPoint@CMovableEntity@@QAEHPAVCBrushSector@@ABV?$Vector@M$02@@M@Z
       2055  806 00181630 ?IsStandingOnPolygon@CMovableEntity@@QAEHPAVCBrushPolygon@@@Z
       2056  807 00027480 ?IsSwapped@CSerial@@QAEHXZ
       2057  808 000017F0 ?IsTail@CListNode@@QBEHXZ
       2058  809 000017D0 ?IsTailMarker@CListNode@@QBEHXZ
       2059  80A 00117960 ?IsTargetValid@CEntity@@UAEHJPAV1@@Z
       2060  80B 00117900 ?IsTargetable@CEntity@@UBEHXZ
       2061  80C 000C6AA0 ?IsTextureLayerOn@CWorldRenderPrefs@@QAEHJ@Z
       2062  80D 00004770 ?IsUpToDate@CAnimObject@@QBEHABVCUpdateable@@@Z
       2063  80E 000062C0 ?IsUpToDate@CChangeable@@QBEHABVCUpdateable@@@Z
       2064  80F 00006320 ?IsUpToDate@CChangeableRT@@QBEHABVCUpdateableRT@@@Z
       2065  810 00027470 ?IsUsed@CSerial@@QAEHXZ
       2066  811 00011DD0 ?IsValid@CListHead@@QBEHXZ
       2067  812 00011FF0 ?IsValid@CListNode@@QBEHXZ
       2068  813 00036300 ?IsValidDouble@@YAHN@Z
       2069  814 000362D0 ?IsValidFloat@@YAHM@Z
       2070  815 00044EE0 ?IsViewerPlaneVisible@CIsometricProjection3D@@UBEHABV?$Plane@M$02@@@Z
       2071  816 000464B0 ?IsViewerPlaneVisible@CParallelProjection3D@@UBEHABV?$Plane@M$02@@@Z
       2072  817 00048570 ?IsViewerPlaneVisible@CPerspectiveProjection3D@@UBEHABV?$Plane@M$02@@@Z
       2073  818 00049400 ?IsViewerPlaneVisible@CSimpleProjection3D@@UBEHABV?$Plane@M$02@@@Z
       2074  819 000C69E0 ?IsVisTweaksDisabled@CWorldRenderPrefs@@QAEHXZ
       2075  81A 000C69C0 ?IsVisTweaksOn@CWorldRenderPrefs@@QAEHXZ
       2076  81B 000F3990 ?IsWaitingForPlayers@CNetworkLibrary@@QAEHXZ
       2077  81C 000F39E0 ?IsWaitingForServer@CNetworkLibrary@@QAEHXZ
       2078  81D 00182910 ?IsWaterTooDeep@CMovableEntity@@QAEHXZ
       2079  81E 0004FE20 ?IsWhite@@YAHK@Z
       2080  81F 00051620 ?IsWideScreen@CDisplayMode@@QAEHXZ
       2081  820 00051DA0 ?IsWideScreen@CDrawPort@@QAEHXZ
       2082  821 000021C0 ?IsWriteable@CTFileStream@@UAEHXZ
       2083  822 00031420 ?IsWriteable@CTMemoryStream@@UAEHXZ
       2084  823 00001820 ?IterationHead@CListHead@@QBEAAVCListNode@@XZ
       2085  824 00001780 ?IterationInsertAfter@CListNode@@QAEXAAV1@@Z
       2086  825 000017A0 ?IterationInsertBefore@CListNode@@QAEXAAV1@@Z
       2087  826 00001770 ?IterationPred@CListNode@@QBEAAV1@XZ
       2088  827 00001760 ?IterationSucc@CListNode@@QBEAAV1@XZ
       2089  828 00001830 ?IterationTail@CListHead@@QBEAAVCListNode@@XZ
       2090  829 000C8880 ?JoinAllPossiblePolygons@CWorld@@QAEXAAV?$CSelection@VCBrushPolygon@@$0BAA@@@HJ@Z
       2091  82A 0003FA10 ?JoinContinuingEdges@CObjectPolygon@@QAEXAAV?$CDynamicArray@VCObjectEdge@@@@@Z
       2092  82B 000C8560 ?JoinPolygons@CWorld@@QAEXAAV?$CSelection@VCBrushPolygon@@$0BAA@@@@Z
       2093  82C 000C80E0 ?JoinSectors@CWorld@@QAEXAAV?$CSelection@VCBrushSector@@$00@@@Z
       2094  82D 000F3120 ?JoinSession_t@CNetworkLibrary@@QAEXABVCNetworkSession@@J@Z
       2095  82E 000C7D70 ?JoinTwoSectors@CWorld@@QAEPAVCBrushSector@@AAV2@0@Z
       2096  82F 0001BEA0 ?Jump@CEntity@@QAEXJJHABVCEntityEvent@@@Z
       2097  830 00121670 ?Jump@CRationalEntity@@QAEXJJHABVCEntityEvent@@@Z
       2098  831 000046A0 ?LastFrame@CAnimObject@@QAEXXZ
       2099  832 000360E0 ?LastUpdateTime@CUpdateable@@QBEMXZ
       2100  833 00036130 ?LastUpdateTime@CUpdateableRT@@QBEMXZ
       2101  834 0017F760 ?LaunchAsFreeProjectile@CMovableEntity@@QAEXABV?$Vector@M$02@@PAV1@@Z
       2102  835 0017F690 ?LaunchAsPropelledProjectile@CMovableEntity@@QAEXABV?$Vector@M$02@@PAV1@@Z
       2103  836 00008DE0 ?Left@CTString@@QBE?AV1@H@Z
       2104  837 00001250 ?Length@CTString@@QBEJXZ
       2105  838 00008ED0 ?LengthNaked@CTString@@QBEJXZ
       2106  839 00042DF0 ?Lerp@CPlacement3D@@QAEXABV1@0M@Z
       2107  83A 000F8220 ?Lerp@CPlayerAction@@QAEXABV1@0M@Z
       2108  83B 00050500 ?LerpColor@@YAKKKM@Z
       2109  83C 00050380 ?LerpColor@@YAXKKMAAE00@Z
       2110  83D 00175EA0 ?LerpVertexPos@CTerrainTile@@QAEXAAUGFXVertex4@@JJJ@Z
       2111  83E 0009D7B0 ?LinkDataForSurfaces@CModelData@@QAEXH@Z
       2112  83F 000B8D60 ?LinkEntitiesToSectors@CWorld@@QAEXXZ
       2113  840 00129F20 ?LinkPortalsAndSectors@CBrushArchive@@QAEXXZ
       2114  841 00088D60 ?Listen@CSoundLibrary@@QAEXAAVCSoundListener@@@Z
       2115  842 0000DB20 ?Load@CInfoFile@@QAEXABVCTFileName@@HVCTString@@@Z
       2116  843 0003C1C0 ?LoadAny3DFormat_t@CObject3D@@QAEXABVCTFileName@@ABV?$Matrix@M$02$02@@W4LoadType@1@@Z
       2117  844 000775B0 ?LoadAnyGfxFormat_t@CImageInfo@@QAEXABVCTFileName@@@Z
       2118  845 000ED380 ?LoadBadWords@CNetworkLibrary@@QAEXXZ
       2119  846 000F14C0 ?LoadBannedEntries@CNetworkLibrary@@QAEXXZ
       2120  847 000CC2C0 ?LoadBrushes_t@CWorld@@QAEXABVCTFileName@@@Z
       2121  848 00002FB0 ?LoadFromScript_t@CAnimData@@QAEXPAVCTStream@@PAVCListHead@@@Z
       2122  849 00094250 ?LoadFromScript_t@CEditModel@@QAEXAAVCTFileName@@@Z
       2123  84A 00009C10 ?LoadIntVar@@YAXABVCTFileName@@AAJ@Z
       2124  84B 00009440 ?LoadKeepCRLF_t@CTString@@QAEXABVCTFileName@@@Z
       2125  84C 00098850 ?LoadMapping_t@CEditModel@@QAEXVCTFileName@@J@Z
       2126  84D 00090A20 ?LoadModelAnimationData_t@CEditModel@@AAEXPAVCTStream@@ABV?$Matrix@M$02$02@@@Z
       2127  84E 000772F0 ?LoadPCX_t@CImageInfo@@AAEXABVCTFileName@@@Z
       2128  84F 00009BF0 ?LoadStringVar@@YAXABVCTFileName@@AAVCTString@@@Z
       2129  850 0000DF70 ?LoadSystem@CInfoFile@@QAEXABVCTFileName@@HVCTString@@@Z
       2130  851 00076F20 ?LoadTGA_t@CImageInfo@@AAEXABVCTFileName@@@Z
       2131  852 00009A90 ?LoadVar@CTString@@QAEXABVCTFileName@@@Z
       2132  853 0001C4D0 ?LoadVoiceOverList@CRationalEntity@@UAEXXZ
       2133  854 00092AF0 ?Load_t@CEditModel@@QAEXVCTFileName@@@Z
       2134  855 000F2C80 ?Load_t@CNetworkLibrary@@QAEXABVCTFileName@@@Z
       2135  856 00127ED0 ?Load_t@CPlayerCharacter@@QAEXABVCTFileName@@@Z
       2136  857 00027190 ?Load_t@CSerial@@QAEXVCTFileName@@@Z
       2137  858 000093D0 ?Load_t@CTString@@QAEXABVCTFileName@@@Z
       2138  859 000CBBF0 ?Load_t@CWorld@@QAEXABVCTFileName@@@Z
       2139  85A 00052660 ?Lock@CDrawPort@@QAEHXZ
       2140  85B 00032F90 ?Lock@CTSingleLock@@QAEXXZ
       2141  85C 001331F0 ?LockAll@CBrushSector@@QAEXXZ
       2142  85D 000B7FE0 ?LockAll@CWorld@@QAEXXZ
       2143  85E 000313C0 ?LockBuffer@CTMemoryStream@@QAEXPAPAXPAJ@Z
       2144  85F 000732B0 ?LockDrawPort@CGfxLibrary@@QAEHPAVCDrawPort@@@Z
       2145  860 000744D0 ?LockRaster@CGfxLibrary@@QAEHPAVCRaster@@@Z
       2146  861 000B6560 ?MOTD@CSessionState@@QAEAAVCTString@@XZ
       2147  862 000F4CB0 ?MainLoop@CNetworkLibrary@@QAEXXZ
       2148  863 0011A8A0 ?MakeBoxAtPlacement@CCollisionInfo@@QAEXABV?$Vector@M$02@@ABV?$Matrix@M$02$02@@AAV?$AABBox@M$02@@@Z
       2149  864 00019AB0 ?MakeCopy@CEntityEvent@@UAEPAV1@XZ
       2150  865 0017C8D0 ?MakeCopy@EBegin@@UAEPAVCEntityEvent@@XZ
       2151  866 0017CB10 ?MakeCopy@EBlock@@UAEPAVCEntityEvent@@XZ
       2152  867 0017CE00 ?MakeCopy@EDamage@@UAEPAVCEntityEvent@@XZ
       2153  868 0017CF80 ?MakeCopy@EDeath@@UAEPAVCEntityEvent@@XZ
       2154  869 0017CD40 ?MakeCopy@EFirstWorldBase@@UAEPAVCEntityEvent@@XZ
       2155  86A 0017C810 ?MakeCopy@EInternal@@UAEPAVCEntityEvent@@XZ
       2156  86B 0017CA60 ?MakeCopy@EPass@@UAEPAVCEntityEvent@@XZ
       2157  86C 0017CCF0 ?MakeCopy@EPostLevelChange@@UAEPAVCEntityEvent@@XZ
       2158  86D 0017CCA0 ?MakeCopy@EPreLevelChange@@UAEPAVCEntityEvent@@XZ
       2159  86E 0017C890 ?MakeCopy@EReturn@@UAEPAVCEntityEvent@@XZ
       2160  86F 0017D1C0 ?MakeCopy@ERoundEvent@@UAEPAVCEntityEvent@@XZ
       2161  870 0017CDC0 ?MakeCopy@EStreamInit@@UAEPAVCEntityEvent@@XZ
       2162  871 0017D170 ?MakeCopy@ETakingBreath@@UAEPAVCEntityEvent@@XZ
       2163  872 0017CC60 ?MakeCopy@ETeleport@@UAEPAVCEntityEvent@@XZ
       2164  873 0017C910 ?MakeCopy@ETimer@@UAEPAVCEntityEvent@@XZ
       2165  874 0017C950 ?MakeCopy@ETouch@@UAEPAVCEntityEvent@@XZ
       2166  875 0017C850 ?MakeCopy@EVoid@@UAEPAVCEntityEvent@@XZ
       2167  876 0017CD80 ?MakeCopy@EWaterTooDeep@@UAEPAVCEntityEvent@@XZ
       2168  877 0017CC20 ?MakeCopy@EWouldFall@@UAEPAVCEntityEvent@@XZ
       2169  878 000F66F0 ?MakeDefaultState@CNetworkLibrary@@QAEXABVCTFileName@@KPAX@Z
       2170  879 0000A6D0 ?MakeDirList@@YAXAAV?$CDynamicStackArray@VCTFileName@@@@ABVCTFileName@@ABVCTString@@K@Z
       2171  87A 00179BF0 ?MakeDirectory_t@@YAXABVCTFileName@@H@Z
       2172  87B 0000EB80 ?MakeEmpty@CInfoFile@@QAEXXZ
       2173  87C 00129D20 ?MakeIndices@CBrushArchive@@QAEXXZ
       2174  87D 00036720 ?MakeInverseRotationMatrix@@YAXAAV?$Matrix@M$02$02@@ABV?$Vector@M$02@@@Z
       2175  87E 00036810 ?MakeInverseRotationMatrixFast@@YAXAAV?$Matrix@M$02$02@@ABV?$Vector@M$02@@@Z
       2176  87F 0004A880 ?MakeMappingVectors@CMappingDefinition@@QBEXABVCMappingVectors@@AAV2@@Z
       2177  880 00044BD0 ?MakeOoKGradient@CIsometricProjection3D@@UBEXABV?$Plane@M$02@@AAVCPlanarGradients@@@Z
       2178  881 00046300 ?MakeOoKGradient@CParallelProjection3D@@UBEXABV?$Plane@M$02@@AAVCPlanarGradients@@@Z
       2179  882 00048150 ?MakeOoKGradient@CPerspectiveProjection3D@@UBEXABV?$Plane@M$02@@AAVCPlanarGradients@@@Z
       2180  883 000493C0 ?MakeOoKGradient@CSimpleProjection3D@@UBEXABV?$Plane@M$02@@AAVCPlanarGradients@@@Z
       2181  884 00133420 ?MakePlanesFromVertices@CBrushSector@@QAEXXZ
       2182  885 00036550 ?MakeRotationMatrix@@YAXAAV?$Matrix@M$02$02@@ABV?$Vector@M$02@@@Z
       2183  886 00036640 ?MakeRotationMatrixFast@@YAXAAV?$Matrix@M$02$02@@ABV?$Vector@M$02@@@Z
       2184  887 0013C540 ?MakeShadowMap@CBrushPolygon@@QAEXPAVCWorld@@H@Z
       2185  888 00103860 ?MakeSynchronisationCheck@CSessionState@@QAEXXZ
       2186  889 000520C0 ?MakeWideScreen@CDrawPort@@QAEXPAV1@@Z
       2187  88A 0005EED0 ?Make_t@CFontData@@QAEXABVCTFileName@@JJAAV2@H@Z
       2188  88B 000062A0 ?MarkChanged@CChangeable@@QAEXXZ
       2189  88C 00006300 ?MarkChanged@CChangeableRT@@QAEXXZ
       2190  88D 00079A50 ?MarkDrawn@CShadowMap@@QAEXXZ
       2191  88E 00017480 ?MarkDrawn@CTextureData@@QAEXXZ
       2192  88F 000B9320 ?MarkForPrediction@CWorld@@QAEXXZ
       2193  890 00027460 ?MarkUnused@CSerial@@QAEXXZ
       2194  891 000360C0 ?MarkUpdated@CUpdateable@@QAEXXZ
       2195  892 00036110 ?MarkUpdated@CUpdateableRT@@QAEXXZ
       2196  893 00027450 ?MarkUsed@CSerial@@QAEXXZ
       2197  894 00009920 ?Matches@CTString@@QBEHABV1@@Z
       2198  895 00009930 ?Matches@CTString@@QBEHPBD@Z
       2199  896 00155B80 ?Matrix12ToMatrixVector@@YAXAAV?$Matrix@M$02$02@@AAV?$Vector@M$02@@AAY0M@$$CBM@Z
       2200  897 00155C90 ?Matrix12ToQVect@@YAXAAUQVect@@AAY0M@$$CBM@Z
       2201  898 00155F90 ?MatrixMultiply@@YAXAAY0M@MAAY0M@$$CBM1@Z
       2202  899 001560D0 ?MatrixMultiplyCP@@YAXAAY0M@MAAY0M@$$CBM1@Z
       2203  89A 00156230 ?MatrixTranspose@@YAXAAY0M@MAAY0M@$$CBM@Z
       2204  89B 00155B20 ?MatrixVectorToMatrix12@@YAXAAY0M@MABV?$Matrix@M$02$02@@ABV?$Vector@M$02@@@Z
       2205  89C 0001D8A0 ?MaxPlayers@CNetworkSession@@QAEAAJXZ
       2206  89D 00008BE0 ?Mid@CTString@@QBE?AV1@H@Z
       2207  89E 00008C20 ?Mid@CTString@@QBE?AV1@HH@Z
       2208  89F 00044F10 ?MipFactor@CIsometricProjection3D@@UBEMM@Z
       2209  8A0 00044F40 ?MipFactor@CIsometricProjection3D@@UBEMXZ
       2210  8A1 000464F0 ?MipFactor@CParallelProjection3D@@UBEMM@Z
       2211  8A2 00046520 ?MipFactor@CParallelProjection3D@@UBEMXZ
       2212  8A3 000485A0 ?MipFactor@CPerspectiveProjection3D@@UBEMM@Z
       2213  8A4 000485D0 ?MipFactor@CPerspectiveProjection3D@@UBEMXZ
       2214  8A5 00049430 ?MipFactor@CSimpleProjection3D@@UBEMM@Z
       2215  8A6 00049440 ?MipFactor@CSimpleProjection3D@@UBEMXZ
       2216  8A7 00117DD0 ?MirrorAndStretch@CEntity@@UAEXMH@Z
       2217  8A8 00125390 ?MirrorAndStretch@CWorld@@QAEXAAV1@MW4WorldMirrorType@@@Z
       2218  8A9 00015B30 ?MirrorPlaneL@CProjection3D@@QAEAAV?$Plane@M$02@@XZ
       2219  8AA 00015B40 ?MirrorPlaneR@CProjection3D@@QBEABV?$Plane@M$02@@XZ
       2220  8AB 001802E0 ?MiscDamageInflictor@CMovableEntity@@QAEPAVCEntity@@XZ
       2221  8AC 0013E310 ?MixLayers@CBrushShadowMap@@UAEXJJH@Z
       2222  8AD 00079F00 ?MixLayers@CShadowMap@@UAEXJJH@Z
       2223  8AE 000886A0 ?MixSounds@CSoundLibrary@@QAEXXZ
       2224  8AF 0001D830 ?ModName@CNetworkSession@@QAEAAVCTString@@XZ
       2225  8B0 0011E520 ?ModelChangeNotify@CEntity@@QAEXXZ
       2226  8B1 000C5F70 ?MoveEntityInCollisionGrid@CWorld@@QAEXPAVCEntity@@ABV?$AABBox@M$02@@1@Z
       2227  8B2 00011EB0 ?MoveList@CListHead@@QAEXAAV1@@Z
       2228  8B3 00097B60 ?MovePatchRelative@CEditModel@@QAEXJV?$Vector@J$01@@@Z
       2229  8B4 00130500 ?MovePolygonEdges@CBrushPolygon@@QAEXAAV1@@Z
       2230  8B5 000C6F40 ?MoveTargetBrushPartToObject@CWorld@@QAEXAAVCEntity@@AAV?$AABBox@N$02@@AAVCObject3D@@@Z
       2231  8B6 00117930 ?MovesByTargetedRoute@CEntity@@UBEHAAVCTString@@@Z
       2232  8B7 00050710 ?MulColors@@YAKKK@Z
       2233  8B8 00086DE0 ?Mute@CSoundLibrary@@QAEXXZ
       2234  8B9 00122E80 ?NameForValue@CEntityPropertyEnumType@@QAEPBDJ@Z
       2235  8BA 00015A70 ?NearClipDistanceL@CProjection3D@@QAEAAMXZ
       2236  8BB 00015A80 ?NearClipDistanceR@CProjection3D@@QBEABMXZ
       2237  8BC 0001DB60 ?NetGraphEntries@CNetworkLibrary@@QAEAAV?$CStaticArray@UNetGraphEntry@@@@XZ
       2238  8BD 00122730 ?New@CEntityClass@@QAEPAVCEntity@@XZ
       2239  8BE 00129550 ?NewBrushMipAfter@CBrush3D@@QAEPAVCBrushMip@@PAV2@H@Z
       2240  8BF 001295E0 ?NewBrushMipBefore@CBrush3D@@QAEPAVCBrushMip@@PAV2@H@Z
       2241  8C0 00154070 ?NewClearState@CModelInstance@@QAEXM@Z
       2242  8C1 00153F40 ?NewClonedState@CModelInstance@@QAEXM@Z
       2243  8C2 000956C0 ?NewModel@CEditModel@@AAEXPAVCObject3D@@@Z
       2244  8C3 00004620 ?NextAnim@CAnimObject@@QAEXXZ
       2245  8C4 00004700 ?NextFrame@CAnimObject@@QAEXXZ
       2246  8C5 0001DBC0 ?NextLevelFile@CNetworkLibrary@@QAE?AVCTFileName@@XZ
       2247  8C6 000A0C50 ?NextManualMipLevel@CModelObject@@QAEXXZ
       2248  8C7 0000B4A0 ?NoExt@CTFileName@@QBE?AV1@XZ
       2249  8C8 0001D8C0 ?Node@CNetworkSession@@QAEAAVCListNode@@XZ
       2250  8C9 000F80C0 ?Normalize@CPlayerAction@@QAEXXZ
       2251  8CA 0014F920 ?NormalizeWeights@CMesh@@QAEXXZ
       2252  8CB 0014F7F0 ?NormalizeWeightsInLod@CMesh@@QAEXAAUMeshLOD@@@Z
       2253  8CC 0011F400 ?NotifyCollisionChanged@CEntity@@QAEXXZ
       2254  8CD 0011F280 ?NotifyGravityChanged@CEntity@@QAEXXZ
       2255  8CE 00015BA0 ?ObjectFaceForwardL@CProjection3D@@QAEAAHXZ
       2256  8CF 00015BB0 ?ObjectFaceForwardR@CProjection3D@@QBEABHXZ
       2257  8D0 00015BC0 ?ObjectHalfFaceForwardL@CProjection3D@@QAEAAHXZ
       2258  8D1 00015BD0 ?ObjectHalfFaceForwardR@CProjection3D@@QBEABHXZ
       2259  8D2 00015A30 ?ObjectHandleL@CProjection3D@@QAEAAV?$Vector@M$02@@XZ
       2260  8D3 00015A40 ?ObjectHandleR@CProjection3D@@QBEABV?$Vector@M$02@@XZ
       2261  8D4 00015A10 ?ObjectPlacementL@CProjection3D@@QAEAAVCPlacement3D@@XZ
       2262  8D5 00037800 ?ObjectPlacementL@CSimpleProjection3D_DOUBLE@@QAEAAVCPlacement3D@@XZ
       2263  8D6 00015A20 ?ObjectPlacementR@CProjection3D@@QBEABVCPlacement3D@@XZ
       2264  8D7 00037810 ?ObjectPlacementR@CSimpleProjection3D_DOUBLE@@QBEABVCPlacement3D@@XZ
       2265  8D8 00015AF0 ?ObjectStretchL@CProjection3D@@QAEAAV?$Vector@M$02@@XZ
       2266  8D9 00037820 ?ObjectStretchL@CSimpleProjection3D_DOUBLE@@QAEAAV?$Vector@M$02@@XZ
       2267  8DA 00015B00 ?ObjectStretchR@CProjection3D@@QBEABV?$Vector@M$02@@XZ
       2268  8DB 00037830 ?ObjectStretchR@CSimpleProjection3D_DOUBLE@@QBEABV?$Vector@M$02@@XZ
       2269  8DC 00122760 ?ObtainComponents_t@CEntityClass@@QAEXXZ
       2270  8DD 00126400 ?ObtainWithCheck@CEntityComponent@@QAEXXZ
       2271  8DE 001262E0 ?Obtain_t@CEntityComponent@@QAEXXZ
       2272  8DF 000DA980 ?Obtain_t@CStock_CAnimData@@QAEPAVCAnimData@@ABVCTFileName@@0@Z
       2273  8E0 000DAC70 ?Obtain_t@CStock_CAnimData@@QAEPAVCAnimData@@ABVCTFileName@@@Z
       2274  8E1 000DBCD0 ?Obtain_t@CStock_CAnimSet@@QAEPAVCAnimSet@@ABVCTFileName@@0@Z
       2275  8E2 000DBFC0 ?Obtain_t@CStock_CAnimSet@@QAEPAVCAnimSet@@ABVCTFileName@@@Z
       2276  8E3 000DCF90 ?Obtain_t@CStock_CEntityClass@@QAEPAVCEntityClass@@ABVCTFileName@@0@Z
       2277  8E4 000DD280 ?Obtain_t@CStock_CEntityClass@@QAEPAVCEntityClass@@ABVCTFileName@@@Z
       2278  8E5 000DE2E0 ?Obtain_t@CStock_CMesh@@QAEPAVCMesh@@ABVCTFileName@@0@Z
       2279  8E6 000DE5D0 ?Obtain_t@CStock_CMesh@@QAEPAVCMesh@@ABVCTFileName@@@Z
       2280  8E7 000DF630 ?Obtain_t@CStock_CModelData@@QAEPAVCModelData@@ABVCTFileName@@0@Z
       2281  8E8 000DF930 ?Obtain_t@CStock_CModelData@@QAEPAVCModelData@@ABVCTFileName@@@Z
       2282  8E9 000E0980 ?Obtain_t@CStock_CShader@@QAEPAVCShader@@ABVCTFileName@@0@Z
       2283  8EA 000E0C70 ?Obtain_t@CStock_CShader@@QAEPAVCShader@@ABVCTFileName@@@Z
       2284  8EB 000E1CD0 ?Obtain_t@CStock_CSkeleton@@QAEPAVCSkeleton@@ABVCTFileName@@0@Z
       2285  8EC 000E1FC0 ?Obtain_t@CStock_CSkeleton@@QAEPAVCSkeleton@@ABVCTFileName@@@Z
       2286  8ED 000E3020 ?Obtain_t@CStock_CSoundData@@QAEPAVCSoundData@@ABVCTFileName@@0@Z
       2287  8EE 000E3310 ?Obtain_t@CStock_CSoundData@@QAEPAVCSoundData@@ABVCTFileName@@@Z
       2288  8EF 000E4370 ?Obtain_t@CStock_CTextureData@@QAEPAVCTextureData@@ABVCTFileName@@0@Z
       2289  8F0 000E4670 ?Obtain_t@CStock_CTextureData@@QAEPAVCTextureData@@ABVCTFileName@@@Z
       2290  8F1 00154160 ?OffSetAnimationQueue@CModelInstance@@QAEXM@Z
       2291  8F2 00004610 ?OffsetPhase@CAnimObject@@QAEXM@Z
       2292  8F3 0001BE90 ?OkayToClipMoveToThisEntity@CEntity@@UAEHPAV1@@Z
       2293  8F4 001180C0 ?OnEnd@CEntity@@UAEXXZ
       2294  8F5 0017E520 ?OnEnd@CMovableEntity@@UAEXXZ
       2295  8F6 00121A40 ?OnEnd@CRationalEntity@@UAEXXZ
       2296  8F7 00118090 ?OnInitialize@CEntity@@UAEXABVCEntityEvent@@@Z
       2297  8F8 0017E3B0 ?OnInitialize@CMovableEntity@@UAEXABVCEntityEvent@@@Z
       2298  8F9 001218C0 ?OnInitialize@CRationalEntity@@UAEXABVCEntityEvent@@@Z
       2299  8FA 00009160 ?OnlyFirstLine@CTString@@QAEXXZ
       2300  8FB 00084600 ?OpenCanvas@CViewPort@@QAEXXZ
       2301  8FC 000E7650 ?OpenSocket_t@CCommunicationInterface@@QAEXKK@Z
       2302  8FD 00030530 ?Open_t@CTFileStream@@QAEXABVCTFileName@@W4OpenMode@CTStream@@@Z
       2303  8FE 0014B750 ?Optimize@CAnimSet@@QAEXXZ
       2304  8FF 0014E520 ?Optimize@CMesh@@QAEXXZ
       2305  900 00038030 ?Optimize@CObject3D@@QAEXXZ
       2306  901 0014B780 ?OptimizeAnimation@CAnimSet@@QAEXAAUAnimation@@M@Z
       2307  902 0014E550 ?OptimizeLod@CMesh@@QAEXAAUMeshLOD@@@Z
       2308  903 00129710 ?OptimizeObject3D@CBrush3D@@SAXAAVCObject3D@@@Z
       2309  904 000F70D0 ?Pack@CNetworkMessage@@QAEXAAV1@AAVCCompressor@@@Z
       2310  905 000F7150 ?PackDefault@CNetworkMessage@@QAEXAAV1@@Z
       2311  906 00230450 ?PaletteColorValues@@3PAKA
       2312  907 00151C90 ?ParseSmcFile_t@@YAPAVCModelInstance@@ABVCTString@@@Z
       2313  908 00151BA0 ?ParseSmcFile_t@@YAXAAVCModelInstance@@ABVCTString@@@Z
       2314  909 000564F0 ?ParticleGetProjection@@YAPAVCProjection3D@@XZ
       2315  90A 00056480 ?Particle_EndSystem@@YAXH@Z
       2316  90B 00059150 ?Particle_Flush@@YAXXZ
       2317  90C 00059830 ?Particle_Flush_Tris@@YAXXZ
       2318  90D 000564E0 ?Particle_GetDrawPort@@YAPAVCDrawPort@@XZ
       2319  90E 000564D0 ?Particle_GetDrawPortID@@YAJXZ
       2320  90F 000564B0 ?Particle_GetMipFactor@@YAMXZ
       2321  910 000564C0 ?Particle_GetViewer@@YAPAVCEntity@@XZ
       2322  911 0010CF00 ?Particle_PrepareEntity@@YAXMHHPAVCEntity@@@Z
       2323  912 000563E0 ?Particle_PrepareSystem@@YAXPAVCDrawPort@@AAVCAnyProjection3D@@@Z
       2324  913 00056500 ?Particle_PrepareTexture@@YAXPAVCTextureObject@@W4ParticleBlendType@@@Z
       2325  914 00056F00 ?Particle_RenderLine@@YAXABV?$Vector@M$02@@0MK@Z
       2326  915 00058490 ?Particle_RenderQuad2@@YAXABV?$Vector@M$02@@000ABUGFXTexCoord@@111K@Z
       2327  916 000577C0 ?Particle_RenderQuad3D@@YAXABV?$Vector@M$02@@000K@Z
       2328  917 00056870 ?Particle_RenderSquare@@YAXABV?$Vector@M$02@@MMKM@Z
       2329  918 00059AC0 ?Particle_RenderTri@@YAXABV?$Vector@M$02@@00ABUGFXTexCoord@@11ABK22@Z
       2330  919 00056750 ?Particle_SetTexturePart@@YAXJJJJM@Z
       2331  91A 00059330 ?Particle_Sort@@YAXH@Z
       2332  91B 00021310 ?Pause@CSoundObject@@QAEXXZ
       2333  91C 00004570 ?PauseAnim@CAnimObject@@QAEXXZ
       2334  91D 00084D10 ?PausePlayingObjects@CSoundData@@QAEXXZ
       2335  91E 0002F0F0 ?PeekID_t@CTStream@@QAE?AVCChunkID@@XZ
       2336  91F 000A1F10 ?PickPolyColor@CModelObject@@QAEXPAVCDrawPort@@PAVCProjection3D@@JJAAJH@Z
       2337  920 000A2020 ?PickPolySurface@CModelObject@@QAEJPAVCDrawPort@@PAVCProjection3D@@JJ@Z
       2338  921 000A20C0 ?PickVertexIndex@CModelObject@@QAEJPAVCDrawPort@@PAVCProjection3D@@JJAAV?$Vector@M$02@@@Z
       2339  922 0001D880 ?Ping@CNetworkSession@@QAEAAMXZ
       2340  923 0008D610 ?Play@CSoundObject@@QAEXPAVCSoundData@@J@Z
       2341  924 00004970 ?PlayAnim@CAnimObject@@QAEXJK@Z
       2342  925 0001C4C0 ?PlayNextVoiceOver@CRationalEntity@@UAEXXZ
       2343  926 0011E610 ?PlaySoundA@CEntity@@QAEXAAVCSoundObject@@ABVCTFileName@@J@Z
       2344  927 0011E5C0 ?PlaySoundA@CEntity@@QAEXAAVCSoundObject@@JJ@Z
       2345  928 0008D690 ?Play_internal@CSoundObject@@QAEXPAVCSoundData@@J@Z
       2346  929 0008E1E0 ?Play_t@CSoundObject@@QAEXABVCTFileName@@J@Z
       2347  92A 000EC5D0 ?PlayerAction@CPlayerSource@@QAEAAVCPlayerAction@@XZ
       2348  92B 000EC5E0 ?PlayerCharacter@CPlayerSource@@QAEAAVCPlayerCharacter@@XZ
       2349  92C 0001D890 ?PlayerCount@CNetworkSession@@QAEAAJXZ
       2350  92D 0013E7A0 ?PolygonHasLayer@CLightSource@@QAEHAAVCBrushPolygon@@@Z
       2351  92E 000A18D0 ?PolygonHit@CModelObject@@QAEPAUModelPolygon@@VCPlacement3D@@0JAAM@Z
       2352  92F 000A19D0 ?PolygonHitModelData@CModelObject@@QAEPAUModelPolygon@@PAVCModelData@@VCPlacement3D@@1JAAM@Z
       2353  930 000A2490 ?PolygonsInSurfaceCt@CModelObject@@QAEJJJ@Z
       2354  931 00044380 ?PostClip@CIsometricProjection3D@@UBEXABV?$Vector@M$02@@AAV2@@Z
       2355  932 000443C0 ?PostClip@CIsometricProjection3D@@UBEXABV?$Vector@M$02@@MAAV2@AAM@Z
       2356  933 00045A40 ?PostClip@CParallelProjection3D@@UBEXABV?$Vector@M$02@@AAV2@@Z
       2357  934 00045A90 ?PostClip@CParallelProjection3D@@UBEXABV?$Vector@M$02@@MAAV2@AAM@Z
       2358  935 000478B0 ?PostClip@CPerspectiveProjection3D@@UBEXABV?$Vector@M$02@@AAV2@@Z
       2359  936 000478F0 ?PostClip@CPerspectiveProjection3D@@UBEXABV?$Vector@M$02@@MAAV2@AAM@Z
       2360  937 00048AA0 ?PostClip@CSimpleProjection3D@@UBEXABV?$Vector@M$02@@AAV2@@Z
       2361  938 00048AC0 ?PostClip@CSimpleProjection3D@@UBEXABV?$Vector@M$02@@MAAV2@AAM@Z
       2362  939 00187D30 ?PostMoving@CMovableEntity@@UAEXXZ
       2363  93A 00121070 ?PostMoving@CRationalEntity@@UAEXXZ
       2364  93B 000442B0 ?PreClip@CIsometricProjection3D@@UBEXABV?$Vector@M$02@@AAV2@@Z
       2365  93C 00045970 ?PreClip@CParallelProjection3D@@UBEXABV?$Vector@M$02@@AAV2@@Z
       2366  93D 000477E0 ?PreClip@CPerspectiveProjection3D@@UBEXABV?$Vector@M$02@@AAV2@@Z
       2367  93E 000489D0 ?PreClip@CSimpleProjection3D@@UBEXABV?$Vector@M$02@@AAV2@@Z
       2368  93F 001844B0 ?PreMoving@CMovableEntity@@UAEXXZ
       2369  940 00188CA0 ?PreMoving@CMovableModelEntity@@UAEXXZ
       2370  941 00121050 ?PreMoving@CRationalEntity@@UAEXXZ
       2371  942 0011DD00 ?Precache@CAutoPrecacheModel@@QAEXABVCTFileName@@@Z
       2372  943 0011DC00 ?Precache@CAutoPrecacheSound@@QAEXABVCTFileName@@@Z
       2373  944 0011DDC0 ?Precache@CAutoPrecacheTexture@@QAEXABVCTFileName@@@Z
       2374  945 001200E0 ?Precache@CEntity@@UAEXXZ
       2375  946 00123140 ?PrecacheClass@CDLLEntityClass@@QAEXJJ@Z
       2376  947 0011DBB0 ?PrecacheClass@CEntity@@QAEXJJ@Z
       2377  948 000CC650 ?PrecacheDynamicModels@CWorld@@QAEXXZ
       2378  949 000B8AB0 ?PrecacheEntities_t@CWorld@@QAEXXZ
       2379  94A 00123020 ?PrecacheModel@CDLLEntityClass@@QAEXJ@Z
       2380  94B 0011DB50 ?PrecacheModel@CEntity@@QAEXJ@Z
       2381  94C 001230E0 ?PrecacheSound@CDLLEntityClass@@QAEXJ@Z
       2382  94D 0011DB90 ?PrecacheSound@CEntity@@QAEXJ@Z
       2383  94E 00123080 ?PrecacheTexture@CDLLEntityClass@@QAEXJ@Z
       2384  94F 0011DB70 ?PrecacheTexture@CEntity@@QAEXJ@Z
       2385  950 00001750 ?Pred@CListNode@@QBEAAV1@XZ
       2386  951 000B6530 ?PredictionHeadTick@CSessionState@@QAEMXZ
       2387  952 00043670 ?Prepare@CIsometricProjection3D@@UAEXXZ
       2388  953 00045020 ?Prepare@CParallelProjection3D@@UAEXXZ
       2389  954 000465D0 ?Prepare@CPerspectiveProjection3D@@UAEXXZ
       2390  955 00048600 ?Prepare@CSimpleProjection3D@@UAEXXZ
       2391  956 00049490 ?Prepare@CSimpleProjection3D_DOUBLE@@QAEXXZ
       2392  957 000E6D70 ?PrepareForUse@CCommunicationInterface@@QAEXHH@Z
       2393  958 00129870 ?PrepareRelativeToAbsoluteProjection@CBrush3D@@QAEXAAVCSimpleProjection3D_DOUBLE@@@Z
       2394  959 0008E190 ?PrepareSound@CSoundObject@@QAEXXZ
       2395  95A 00004650 ?PrevAnim@CAnimObject@@QAEXXZ
       2396  95B 00004730 ?PrevFrame@CAnimObject@@QAEXXZ
       2397  95C 000A0C70 ?PrevManualMipLevel@CModelObject@@QAEXXZ
       2398  95D 001004B0 ?PrintChatMessage@CSessionState@@QAEXKABVCTString@@0@Z
       2399  95E 00009610 ?PrintF@CTString@@QAAJPBDZZ
       2400  95F 001180D0 ?PrintStackDebug@CEntity@@UAEPBDXZ
       2401  960 00121850 ?PrintStackDebug@CRationalEntity@@UAEPBDXZ
       2402  961 00097610 ?PrintSurfaceNumbers@CEditModel@@QAEXPAVCDrawPort@@PAVCFontData@@JMJJK@Z
       2403  962 001018B0 ?ProcessGameStream@CSessionState@@QAEXXZ
       2404  963 00102290 ?ProcessGameStreamBlock@CSessionState@@QAEXAAVCNetworkMessage@@@Z
       2405  964 001011D0 ?ProcessGameTick@CSessionState@@QAEXAAVCNetworkMessage@@M@Z
       2406  965 00101470 ?ProcessPredictedGameTick@CSessionState@@QAEXJMM@Z
       2407  966 001020E0 ?ProcessPrediction@CSessionState@@QAEXXZ
       2408  967 0007D720 ?ProcessScript_t@@YAXABVCTFileName@@@Z
       2409  968 002560D0 ?ProgresRoutines@@3VCProgressRoutines@@A
       2410  969 00044AE0 ?Project@CIsometricProjection3D@@UBEXABV?$Plane@M$02@@AAV2@@Z
       2411  96A 00037B20 ?Project@CObject3D@@QAEXAAVCSimpleProjection3D_DOUBLE@@@Z
       2412  96B 00046210 ?Project@CParallelProjection3D@@UBEXABV?$Plane@M$02@@AAV2@@Z
       2413  96C 00048060 ?Project@CPerspectiveProjection3D@@UBEXABV?$Plane@M$02@@AAV2@@Z
       2414  96D 000492D0 ?Project@CSimpleProjection3D@@UBEXABV?$Plane@M$02@@AAV2@@Z
       2415  96E 0004A170 ?Project@CSimpleProjection3D_DOUBLE@@QBEXABV?$Plane@N$02@@AAV2@@Z
       2416  96F 00044AD0 ?ProjectAABBox@CIsometricProjection3D@@UBEXABV?$AABBox@M$02@@AAV2@@Z
       2417  970 00046200 ?ProjectAABBox@CParallelProjection3D@@UBEXABV?$AABBox@M$02@@AAV2@@Z
       2418  971 00048050 ?ProjectAABBox@CPerspectiveProjection3D@@UBEXABV?$AABBox@M$02@@AAV2@@Z
       2419  972 00049160 ?ProjectAABBox@CSimpleProjection3D@@UBEXABV?$AABBox@M$02@@AAV2@@Z
       2420  973 00049FB0 ?ProjectAABBox@CSimpleProjection3D_DOUBLE@@QBEXABV?$AABBox@N$02@@AAV2@@Z
       2421  974 00044910 ?ProjectCoordinate@CIsometricProjection3D@@UBEXABV?$Vector@M$02@@AAV2@@Z
       2422  975 00046030 ?ProjectCoordinate@CParallelProjection3D@@UBEXABV?$Vector@M$02@@AAV2@@Z
       2423  976 00047E90 ?ProjectCoordinate@CPerspectiveProjection3D@@UBEXABV?$Vector@M$02@@AAV2@@Z
       2424  977 00048B10 ?ProjectCoordinate@CSimpleProjection3D@@UBEXABV?$Vector@M$02@@AAV2@@Z
       2425  978 00049880 ?ProjectCoordinate@CSimpleProjection3D_DOUBLE@@QBEXABV?$Vector@N$02@@AAV2@@Z
       2426  979 00044A40 ?ProjectDirection@CIsometricProjection3D@@UBEXABV?$Vector@M$02@@AAV2@@Z
       2427  97A 00046170 ?ProjectDirection@CParallelProjection3D@@UBEXABV?$Vector@M$02@@AAV2@@Z
       2428  97B 00047FC0 ?ProjectDirection@CPerspectiveProjection3D@@UBEXABV?$Vector@M$02@@AAV2@@Z
       2429  97C 00048C10 ?ProjectDirection@CSimpleProjection3D@@UBEXABV?$Vector@M$02@@AAV2@@Z
       2430  97D 00049930 ?ProjectDirection@CSimpleProjection3D_DOUBLE@@QBEXABV?$Vector@N$02@@AAV2@@Z
       2431  97E 000A0EB0 ?ProjectFrameVertices@CModelObject@@QAEXPAVCProjection3D@@J@Z
       2432  97F 0004B570 ?ProjectMapping@CMappingDefinition@@QAEXABV?$Plane@M$02@@ABV1@0@Z
       2433  980 00049BF0 ?ProjectMapping@CSimpleProjection3D_DOUBLE@@QBEXABVCMappingDefinition@@ABV?$Plane@N$02@@AAV2@@Z
       2434  981 00048CA0 ?ProjectPlacement@CSimpleProjection3D@@QBEXABVCPlacement3D@@AAV2@@Z
       2435  982 000499B0 ?ProjectPlacement@CSimpleProjection3D_DOUBLE@@QBEXABVCPlacement3D@@AAV2@@Z
       2436  983 00048F00 ?ProjectPlacementSmooth@CSimpleProjection3D@@QBEXABVCPlacement3D@@AAV2@@Z
       2437  984 00122EC0 ?PropertyForName@CDLLEntityClass@@QAEPAVCEntityProperty@@ABVCTString@@@Z
       2438  985 00120B60 ?PropertyForName@CEntity@@QAEPAVCEntityProperty@@ABVCTString@@@Z
       2439  986 00122CD0 ?PropertyForName@CEntityClass@@QAEPAVCEntityProperty@@ABVCTString@@@Z
       2440  987 00122F20 ?PropertyForTypeAndID@CDLLEntityClass@@QAEPAVCEntityProperty@@W4PropertyType@2@K@Z
       2441  988 00120B20 ?PropertyForTypeAndID@CEntity@@QAEPAVCEntityProperty@@KK@Z
       2442  989 00122D40 ?PropertyForTypeAndID@CEntityClass@@QAEPAVCEntityProperty@@KK@Z
       2443  98A 000303D0 ?ProtectPageFromWritting@CTStream@@QAEXJ@Z
       2444  98B 0009E3B0 ?PtrsToIndices@CModelData@@QAEXXZ
       2445  98C 0002EFA0 ?PutLine_t@CTStream@@QAEXPBD@Z
       2446  98D 0002EFF0 ?PutString_t@CTStream@@QAEXPBD@Z
       2447  98E 00054480 ?PutText@CDrawPort@@QBEXABVCTString@@JJKH@Z
       2448  98F 00054E50 ?PutTextC@CDrawPort@@QBEXABVCTString@@JJKH@Z
       2449  990 00054EC0 ?PutTextCXY@CDrawPort@@QBEXABVCTString@@JJKH@Z
       2450  991 00054F50 ?PutTextR@CDrawPort@@QBEXABVCTString@@JJKH@Z
       2451  992 00055040 ?PutTexture@CDrawPort@@QBEXPAVCTextureObject@@ABV?$AABBox@J$01@@1K@Z
       2452  993 000550F0 ?PutTexture@CDrawPort@@QBEXPAVCTextureObject@@ABV?$AABBox@J$01@@1KKKK@Z
       2453  994 00054FC0 ?PutTexture@CDrawPort@@QBEXPAVCTextureObject@@ABV?$AABBox@J$01@@K@Z
       2454  995 00055060 ?PutTexture@CDrawPort@@QBEXPAVCTextureObject@@ABV?$AABBox@J$01@@KKKK@Z
       2455  996 00155E40 ?QVectToMatrix12@@YAXAAY0M@MABUQVect@@@Z
       2456  997 001374A0 ?QueueForCalculation@CBrushShadowMap@@QAEXXZ
       2457  998 000201D0 ?REG_GetLong@@YAHABVCTString@@AAK@Z
       2458  999 0001FD40 ?REG_GetString@@YAHABVCTString@@AAV1@@Z
       2459  99A 00020330 ?REG_SetString@@YAHABVCTString@@0@Z
       2460  99B 0015A2A0 ?RM_AddFlag@@YAXK@Z
       2461  99C 00158650 ?RM_AddSimpleShadow_View@@YAXAAVCModelInstance@@MABV?$Plane@M$02@@@Z
       2462  99D 001578C0 ?RM_AddSkaAttachment@@YAHAAVCModelInstance@@AAV?$Matrix@M$02$02@@AAV?$Vector@M$02@@ABV3@3VCTFileName@@M@Z
       2463  99E 0015A6B0 ?RM_BeginModelRenderingMask@@YAXAAVCAnyProjection3D@@PAEJJ@Z
       2464  99F 0015A340 ?RM_BeginRenderingView@@YAXAAVCAnyProjection3D@@PAVCDrawPort@@@Z
       2465  9A0 001563D0 ?RM_DoFogAndHaze@@YAXH@Z
       2466  9A1 0015A920 ?RM_EndModelRenderingMask@@YAXXZ
       2467  9A2 0015A610 ?RM_EndRenderingView@@YAXH@Z
       2468  9A3 0015A2E0 ?RM_FindRenBone@@YAPAURenBone@@J@Z
       2469  9A4 0015D5F0 ?RM_GetBoneAbsPosition@@YAHAAVCModelInstance@@JAAV?$Vector@M$02@@1@Z
       2470  9A5 0015A290 ?RM_GetFlags@@YAKXZ
       2471  9A6 00156950 ?RM_GetMipFactor@@YAMXZ
       2472  9A7 00156960 ?RM_GetModelVertices@@YAXAAVCModelInstance@@AAV?$CStaticStackArray@V?$Vector@M$02@@@@AAV?$Matrix@M$02$02@@AAV?$Vector@M$02@@MM@Z
       2473  9A8 0015D4E0 ?RM_GetRenBoneAbs@@YAHAAVCModelInstance@@JAAURenBone@@@Z
       2474  9A9 0015A320 ?RM_GetRenBoneArray@@YAPAURenBone@@AAJ@Z
       2475  9AA 0015A270 ?RM_GetRenderFlags@@YAAAKXZ
       2476  9AB 0015A2C0 ?RM_RemoveFlag@@YAXK@Z
       2477  9AC 00159900 ?RM_RenderBone@@YAXAAVCModelInstance@@J@Z
       2478  9AD 001591A0 ?RM_RenderColisionBox@@YAXAAVCModelInstance@@AAUColisionBox@@K@Z
       2479  9AE 00158FE0 ?RM_RenderGround@@YAXAAVCTextureObject@@@Z
       2480  9AF 0015FBE0 ?RM_RenderSKA@@YAXAAVCModelInstance@@@Z
       2481  9B0 00158FA0 ?RM_SetBoneAdjustCallback@@YAXP6AXPAX@Z0@Z
       2482  9B1 00156930 ?RM_SetCurrentDistance@@YAXM@Z
       2483  9B2 0015AE40 ?RM_SetCustomMeshLodDistance@@YAXM@Z
       2484  9B3 0015AE50 ?RM_SetCustomSkeletonLodDistance@@YAXM@Z
       2485  9B4 0015A9C0 ?RM_SetFinalColor@@YAXK@Z
       2486  9B5 0015A280 ?RM_SetFlags@@YAXK@Z
       2487  9B6 0015A930 ?RM_SetLightColor@@YAXKK@Z
       2488  9B7 0015A950 ?RM_SetLightDirection@@YAXAAV?$Vector@M$02@@@Z
       2489  9B8 0015A9F0 ?RM_SetObjectMatrices@@YAXAAVCModelInstance@@@Z
       2490  9B9 0015ADC0 ?RM_SetObjectPlacement@@YAXABV?$Matrix@M$02$02@@ABV?$Vector@M$02@@@Z
       2491  9BA 0015AD10 ?RM_SetObjectPlacement@@YAXABVCPlacement3D@@@Z
       2492  9BB 00158FC0 ?RM_SetShaderParamsAdjustCallback@@YAXP6AXPAXJPAVCShader@@AAUShaderParams@@JPAVCModelInstance@@@Z0@Z
       2493  9BC 00156BF0 ?RM_TestRayCastHit@@YAMAAVCModelInstance@@AAV?$Matrix@M$02$02@@AAV?$Vector@M$02@@ABV3@3MPAJPAV?$Plane@M$02@@PAV3@@Z
       2494  9BD 0015A9D0 ?RM_UpdateFrameCount@@YAXXZ
       2495  9BE 00044D10 ?RayThroughPoint@CIsometricProjection3D@@UBEXABV?$Vector@M$02@@AAVCPlacement3D@@@Z
       2496  9BF 000463D0 ?RayThroughPoint@CParallelProjection3D@@UBEXABV?$Vector@M$02@@AAVCPlacement3D@@@Z
       2497  9C0 00048340 ?RayThroughPoint@CPerspectiveProjection3D@@UBEXABV?$Vector@M$02@@AAVCPlacement3D@@@Z
       2498  9C1 000493E0 ?RayThroughPoint@CSimpleProjection3D@@UBEXABV?$Vector@M$02@@AAVCPlacement3D@@@Z
       2499  9C2 00165D70 ?ReAllocateHeightMap@CTerrain@@QAEXJJ@Z
       2500  9C3 001657F0 ?ReBuildTerrain@CTerrain@@QAEXH@Z
       2501  9C4 00168E20 ?ReGenerate@CTerrain@@QAEXXZ
       2502  9C5 00176F10 ?ReGenerate@CTerrainTile@@QAEXXZ
       2503  9C6 00178FA0 ?ReGenerateBottomBorder@CTerrainTile@@AAEXXZ
       2504  9C7 001780B0 ?ReGenerateLeftBorder@CTerrainTile@@AAEXXZ
       2505  9C8 001787C0 ?ReGenerateRightBorder@CTerrainTile@@AAEXXZ
       2506  9C9 00176990 ?ReGenerateTileLayer@CTerrainTile@@QAEXJ@Z
       2507  9CA 00177990 ?ReGenerateTopBorder@CTerrainTile@@AAEXXZ
       2508  9CB 00135750 ?ReTriple@CBrushSector@@QAEXAAV?$CSelection@VCBrushPolygon@@$0BAA@@@@Z
       2509  9CC 000F6D00 ?Read@CNetworkMessage@@QAEXPAXJ@Z
       2510  9CD 000F7330 ?ReadBits@CNetworkMessage@@QAEXPAXJ@Z
       2511  9CE 000CC3B0 ?ReadBrushes_t@CWorld@@QAEXPAVCTStream@@@Z
       2512  9CF 0002F320 ?ReadChunkAlloc_t@CTStream@@QAEPAXJ@Z
       2513  9D0 0002F220 ?ReadChunk_t@CTStream@@QAEXPAXJ@Z
       2514  9D1 0002F7F0 ?ReadDictionary_intenal_t@CTStream@@QAEXJ@Z
       2515  9D2 00125940 ?ReadEntityPointer_t@CEntity@@QAEXPAVCTStream@@AAVCEntityPointer@@@Z
       2516  9D3 0012A7D0 ?ReadEntitySectorLinks_t@CBrushArchive@@QAEXAAVCTStream@@@Z
       2517  9D4 0017C210 ?ReadFromStream@CSunstormWorldVariables@@UAEXPAVCTStream@@@Z
       2518  9D5 0000B7D0 ?ReadFromText_t@CTFileName@@QAEXAAVCTStream@@ABVCTString@@@Z
       2519  9D6 00009290 ?ReadFromText_t@CTString@@QAEXAAVCTStream@@ABV1@@Z
       2520  9D7 0002F280 ?ReadFullChunk_t@CTStream@@QAEXABVCChunkID@@PAXJ@Z
       2521  9D8 000CDCD0 ?ReadInfo_t@CWorld@@QAEXPAVCTStream@@H@Z
       2522  9D9 00136B70 ?ReadLayers_t@CBrushShadowMap@@UAEXPAVCTStream@@@Z
       2523  9DA 00079F90 ?ReadLayers_t@CShadowMap@@UAEXPAVCTStream@@@Z
       2524  9DB 00098340 ?ReadMipSettings_t@CEditModel@@QAEXPAVCTStream@@J@Z
       2525  9DC 0009E730 ?ReadName_t@CModelCollisionBox@@QAEXPAVCTStream@@@Z
       2526  9DD 0004B2B0 ?ReadOld_t@CMappingDefinition@@QAEXAAVCTStream@@@Z
       2527  9DE 0012A6C0 ?ReadPortalSectorLinks_t@CBrushArchive@@QAEXAAVCTStream@@@Z
       2528  9DF 00125A00 ?ReadProperties_t@CEntity@@QAEXAAVCTStream@@@Z
       2529  9E0 0002F1F0 ?ReadRawChunk_t@CTStream@@QAEXPAXJ@Z
       2530  9E1 00103160 ?ReadRememberedLevels_t@CSessionState@@QAEXPAVCTStream@@@Z
       2531  9E2 0009D4C0 ?ReadSettings_t@MappingSurface@@QAEXPAVCTStream@@@Z
       2532  9E3 000CCCC0 ?ReadState_new_t@CWorld@@QAEXPAVCTStream@@@Z
       2533  9E4 000CC9C0 ?ReadState_t@CWorld@@QAEXPAVCTStream@@@Z
       2534  9E5 0002F390 ?ReadStream_t@CTStream@@QAEXAAV1@@Z
       2535  9E6 00033BE0 ?ReadTranslationTable_t@@YAXAAV?$CDynamicArray@VCTranslationPair@@@@ABVCTFileName@@@Z
       2536  9E7 00009340 ?ReadUntilEOF_t@CTString@@QAEXAAVCTStream@@@Z
       2537  9E8 00169440 ?ReadVersion_t@CTerrain@@QAEXPAVCTStream@@J@Z
       2538  9E9 00102E20 ?ReadWorldAndState_t@CSessionState@@QAEXPAVCTStream@@@Z
       2539  9EA 0012C620 ?Read_new_t@CBrush3D@@QAEXPAVCTStream@@@Z
       2540  9EB 0012C840 ?Read_new_t@CBrushMip@@QAEXPAVCTStream@@@Z
       2541  9EC 0012C4E0 ?Read_old_t@CBrush3D@@QAEXPAVCTStream@@@Z
       2542  9ED 0012C790 ?Read_old_t@CBrushMip@@QAEXPAVCTStream@@@Z
       2543  9EE 00079BE0 ?Read_old_t@CShadowMap@@QAEXPAVCTStream@@@Z
       2544  9EF 0014CA10 ?Read_t@CAnimSet@@UAEXPAVCTStream@@@Z
       2545  9F0 00092FD0 ?Read_t@CAttachedModel@@QAEXPAVCTStream@@@Z
       2546  9F1 0009E840 ?Read_t@CAttachedModelPosition@@QAEXPAVCTStream@@@Z
       2547  9F2 00093320 ?Read_t@CAttachedSound@@QAEXPAVCTStream@@@Z
       2548  9F3 0012C450 ?Read_t@CBrush3D@@QAEXPAVCTStream@@@Z
       2549  9F4 0012ACD0 ?Read_t@CBrushArchive@@UAEXPAVCTStream@@@Z
       2550  9F5 0012C9A0 ?Read_t@CBrushPolygonTexture@@QAEXAAVCTStream@@@Z
       2551  9F6 0012D100 ?Read_t@CBrushSector@@QAEXPAVCTStream@@@Z
       2552  9F7 00093430 ?Read_t@CEditModel@@UAEXPAVCTStream@@@Z
       2553  9F8 0011F810 ?Read_t@CEntity@@UAEXPAVCTStream@@@Z
       2554  9F9 00122960 ?Read_t@CEntityClass@@UAEXPAVCTStream@@@Z
       2555  9FA 0005EA30 ?Read_t@CFontCharData@@QAEXPAVCTStream@@@Z
       2556  9FB 0005ED00 ?Read_t@CFontData@@UAEXPAVCTStream@@@Z
       2557  9FC 00076930 ?Read_t@CImageInfo@@QAEXPAVCTStream@@@Z
       2558  9FD 0013E4C0 ?Read_t@CLightSource@@QAEXPAVCTStream@@@Z
       2559  9FE 00120BF0 ?Read_t@CLiveEntity@@UAEXPAVCTStream@@@Z
       2560  9FF 001504D0 ?Read_t@CMesh@@UAEXPAVCTStream@@@Z
       2561  A00 0009E640 ?Read_t@CModelCollisionBox@@QAEXPAVCTStream@@@Z
       2562  A01 0009EE50 ?Read_t@CModelData@@UAEXPAVCTStream@@@Z
       2563  A02 000A08C0 ?Read_t@CModelObject@@QAEXPAVCTStream@@@Z
       2564  A03 0009C510 ?Read_t@CModelPatch@@QAEXPAVCTStream@@@Z
       2565  A04 0009C460 ?Read_t@CModelRenderPrefs@@QAEXPAVCTStream@@@Z
       2566  A05 0017D3F0 ?Read_t@CMovableBrushEntity@@UAEXPAVCTStream@@@Z
       2567  A06 0017EFA0 ?Read_t@CMovableEntity@@UAEXPAVCTStream@@@Z
       2568  A07 00188E40 ?Read_t@CMovableModelEntity@@UAEXPAVCTStream@@@Z
       2569  A08 00128030 ?Read_t@CPlayerCharacter@@QAEXPAVCTStream@@@Z
       2570  A09 0018BA80 ?Read_t@CPlayerEntity@@UAEXPAVCTStream@@@Z
       2571  A0A 001212F0 ?Read_t@CRationalEntity@@UAEXPAVCTStream@@@Z
       2572  A0B 00102C40 ?Read_t@CSessionState@@QAEXPAVCTStream@@@Z
       2573  A0C 00079320 ?Read_t@CShader@@UAEXPAVCTStream@@@Z
       2574  A0D 00079D40 ?Read_t@CShadowMap@@QAEXPAVCTStream@@@Z
       2575  A0E 00162FA0 ?Read_t@CSkeleton@@UAEXPAVCTStream@@@Z
       2576  A0F 00084EE0 ?Read_t@CSoundData@@UAEXPAVCTStream@@@Z
       2577  A10 0008E220 ?Read_t@CSoundObject@@QAEXPAVCTStream@@@Z
       2578  A11 00002630 ?Read_t@CTStream@@QAEXPAXJ@Z
       2579  A12 001697D0 ?Read_t@CTerrain@@QAEXPAVCTStream@@@Z
       2580  A13 0016A960 ?Read_t@CTerrainArchive@@UAEXPAVCTStream@@@Z
       2581  A14 0016C330 ?Read_t@CTerrainLayer@@QAEXPAVCTStream@@J@Z
       2582  A15 0007B370 ?Read_t@CTextureData@@UAEXPAVCTStream@@@Z
       2583  A16 0007D6D0 ?Read_t@CTextureObject@@QAEXPAVCTStream@@@Z
       2584  A17 000904E0 ?Read_t@CThumbnailSettings@@QAEXPAVCTStream@@@Z
       2585  A18 000CC1C0 ?Read_t@CWorld@@QAEXPAVCTStream@@@Z
       2586  A19 0009D570 ?Read_t@MappingSurface@@QAEXPAVCTStream@@HH@Z
       2587  A1A 0009DDF0 ?Read_t@ModelMipInfo@@QAEXPAVCTStream@@HHH@Z
       2588  A1B 0009CFF0 ?Read_t@ModelPolygon@@QAEXPAVCTStream@@@Z
       2589  A1C 0009CF10 ?Read_t@ModelPolygonVertex@@QAEXPAVCTStream@@@Z
       2590  A1D 000B8EE0 ?RebuildLinks@CWorld@@QAEXXZ
       2591  A1E 00052200 ?RecalculateDimensions@CDrawPort@@QAEXXZ
       2592  A1F 00038100 ?RecalculatePlanes@CObject3D@@QAEXXZ
       2593  A20 000F9AC0 ?ReceiveActionPacket@CPlayerBuffer@@QAEXPAVCNetworkMessage@@J@Z
       2594  A21 000EC530 ?ReceiveBroadcast@CMessageDispatcher@@QAEHAAVCNetworkMessage@@AAKAAG@Z
       2595  A22 0011F4A0 ?ReceiveDamage@CEntity@@UAEXPAV1@W4DamageType@@MABV?$Vector@M$02@@20@Z
       2596  A23 00120C50 ?ReceiveDamage@CLiveEntity@@UAEXPAVCEntity@@W4DamageType@@MABV?$Vector@M$02@@20@Z
       2597  A24 000EC2E0 ?ReceiveFromClient@CMessageDispatcher@@QAEHJAAVCNetworkMessage@@@Z
       2598  A25 000EC3B0 ?ReceiveFromClientReliable@CMessageDispatcher@@QAEHJAAVCNetworkMessage@@@Z
       2599  A26 000EC0E0 ?ReceiveFromServer@CMessageDispatcher@@QAEHAAVCNetworkMessage@@@Z
       2600  A27 000EC1A0 ?ReceiveFromServerReliable@CMessageDispatcher@@QAEHAAVCNetworkMessage@@@Z
       2601  A28 000EC260 ?ReceiveFromServerReliable@CMessageDispatcher@@QAEHAAVCTMemoryStream@@@Z
       2602  A29 0011F640 ?ReceiveItem@CEntity@@UAEHABVCEntityEvent@@@Z
       2603  A2A 00073590 ?ReduceShadows@CGfxLibrary@@QAEXXZ
       2604  A2B 00165A20 ?RefreshTerrain@CTerrain@@QAEXXZ
       2605  A2C 000F6B20 ?Reinit@CNetworkMessage@@QAEXXZ
       2606  A2D 00118460 ?Reinitialize@CEntity@@QAEXXZ
       2607  A2E 000B8A00 ?ReinitializeEntities@CWorld@@QAEXXZ
       2608  A2F 00042BD0 ?RelativeToAbsolute@CPlacement3D@@QAEXABV1@@Z
       2609  A30 00042C80 ?RelativeToAbsoluteSmooth@CPlacement3D@@QAEXABV1@@Z
       2610  A31 00042D30 ?RelativeToRelative@CPlacement3D@@QAEXABV1@0@Z
       2611  A32 00042D90 ?RelativeToRelativeSmooth@CPlacement3D@@QAEXABV1@0@Z
       2612  A33 001264A0 ?Release@CEntityComponent@@QAEXXZ
       2613  A34 000DAEC0 ?Release@CStock_CAnimData@@QAEXPAVCAnimData@@@Z
       2614  A35 000DC210 ?Release@CStock_CAnimSet@@QAEXPAVCAnimSet@@@Z
       2615  A36 000DD4D0 ?Release@CStock_CEntityClass@@QAEXPAVCEntityClass@@@Z
       2616  A37 000DE820 ?Release@CStock_CMesh@@QAEXPAVCMesh@@@Z
       2617  A38 000DFB80 ?Release@CStock_CModelData@@QAEXPAVCModelData@@@Z
       2618  A39 000E0EC0 ?Release@CStock_CShader@@QAEXPAVCShader@@@Z
       2619  A3A 000E2210 ?Release@CStock_CSkeleton@@QAEXPAVCSkeleton@@@Z
       2620  A3B 000E3560 ?Release@CStock_CSoundData@@QAEXPAVCSoundData@@@Z
       2621  A3C 000E48C0 ?Release@CStock_CTextureData@@QAEXPAVCTextureData@@@Z
       2622  A3D 00122800 ?ReleaseComponents@CEntityClass@@QAEXXZ
       2623  A3E 00176110 ?ReleaseTileArrays@CTerrainTile@@QAEXXZ
       2624  A3F 00027250 ?Reload@CSerial@@QAEXXZ
       2625  A40 00011E80 ?RemAll@CListHead@@QAEXXZ
       2626  A41 00153BA0 ?RemAnimation@CModelInstance@@QAEXJ@Z
       2627  A42 00153C40 ?RemAnimsWithID@CModelInstance@@QAEXJ@Z
       2628  A43 00033780 ?RemHandler@CTimer@@QAEXPAVCTimerHandler@@@Z
       2629  A44 00011E40 ?RemHead@CListHead@@QAEXXZ
       2630  A45 0001C2A0 ?RemReference@CEntity@@QAEXXZ
       2631  A46 00122690 ?RemReference@CEntityClass@@QAEXXZ
       2632  A47 00085330 ?RemReference@CSoundData@@QAEXXZ
       2633  A48 0009FE70 ?RemReference_internal@CModelData@@UAEXXZ
       2634  A49 0007DFA0 ?RemReference_internal@CTextureData@@UAEXXZ
       2635  A4A 00011E60 ?RemTail@CListHead@@QAEXXZ
       2636  A4B 00103590 ?RememberCurrentLevel@CSessionState@@QAEXABVCTString@@@Z
       2637  A4C 00104210 ?RememberPlayerPredictorPositions@CSessionState@@QAEXXZ
       2638  A4D 0014B090 ?RememberUnCompresedRotatations@@YAXH@Z
       2639  A4E 00012020 ?Remove@CListNode@@QAEXXZ
       2640  A4F 000A3050 ?RemoveAllAttachmentModels@CModelObject@@QAEXXZ
       2641  A50 0014C310 ?RemoveAnimation@CAnimSet@@QAEXPAUAnimation@@@Z
       2642  A51 0000B560 ?RemoveApplicationPath_t@CTFileName@@QAEXXZ
       2643  A52 0011DEB0 ?RemoveAttachment@CEntity@@QAEXJ@Z
       2644  A53 000A2FF0 ?RemoveAttachmentModel@CModelObject@@QAEXJ@Z
       2645  A54 00152970 ?RemoveChild@CModelInstance@@QAEXPAV1@@Z
       2646  A55 00152610 ?RemoveColisionBox@CModelInstance@@QAEXJ@Z
       2647  A56 00040A80 ?RemoveDummyEdgeReferences@CObjectPolygon@@QAEXXZ
       2648  A57 0012A330 ?RemoveDummyLayers@CBrushArchive@@QAEXXZ
       2649  A58 00137340 ?RemoveDummyLayers@CBrushShadowMap@@QAEXXZ
       2650  A59 0012EB10 ?RemoveDummyPortals@CBrushMip@@QAEXH@Z
       2651  A5A 00037EC0 ?RemoveEmptySectors@CObject3D@@QAEXXZ
       2652  A5B 000C5D60 ?RemoveEntityFromCollisionGrid@CWorld@@QAEXPAVCEntity@@ABV?$AABBox@M$02@@@Z
       2653  A5C 00129400 ?RemoveEquipment@CPlayerCharacter@@QAEXE@Z
       2654  A5D 00031B60 ?RemoveFile@@YAHABVCTFileName@@@Z
       2655  A5E 00019280 ?RemoveFlag@CTerrain@@QAEXK@Z
       2656  A5F 00019200 ?RemoveFlag@CTerrainTile@@QAEXK@Z
       2657  A60 001666C0 ?RemoveLayer@CTerrain@@QAEXJH@Z
       2658  A61 000F2330 ?RemoveManagers@CNetworkLibrary@@QAEXXZ
       2659  A62 0001D070 ?RemoveMapAnimal@CSunstormWorldVariables@@QAEHJ@Z
       2660  A63 000408D0 ?RemoveMarkedEdges@CObjectPolygon@@QAEXJ@Z
       2661  A64 0014FB70 ?RemoveMeshLod@CMesh@@QAEXPAUMeshLOD@@@Z
       2662  A65 00084D60 ?RemoveObjectLink@CSoundData@@QAEXAAVCSoundObject@@@Z
       2663  A66 00153CE0 ?RemovePassedAnimsFromQueue@CModelInstance@@QAEXXZ
       2664  A67 00008760 ?RemovePrefix@CTString@@QAEHABV1@@Z
       2665  A68 00040830 ?RemoveRedundantEdges@CObjectPolygon@@QAEXXZ
       2666  A69 00162B90 ?RemoveSkeletonLod@CSkeleton@@QAEXPAUSkeletonLOD@@@Z
       2667  A6A 00088D50 ?RemoveSoundAware@CSoundLibrary@@QAEXAAVCSoundData@@@Z
       2668  A6B 00009E20 ?RemoveSpecialCodes@@YA?AVCTString@@ABV1@@Z
       2669  A6C 001533D0 ?RemoveTexture@CModelInstance@@QAEXPAUTextureInstance@@PAUMeshInstance@@@Z
       2670  A6D 000F2430 ?RemoveTimerHandler@CNetworkLibrary@@QAEXXZ
       2671  A6E 00165030 ?Render@CTerrain@@QAEXAAVCAnyProjection3D@@PAVCDrawPort@@@Z
       2672  A6F 00175E70 ?Render@CTerrainTile@@QAEXXZ
       2673  A70 0015D340 ?RenderComplexShadow@@YAXAAVCModelInstance@@ABVCPlacement3D@@MMMABV?$Plane@M$02@@@Z
       2674  A71 00117C30 ?RenderFunc@CEntity@@UAEXXZ
       2675  A72 00117DC0 ?RenderGameView@CEntity@@UAEXPAVCDrawPort@@PAX@Z
       2676  A73 00054050 ?RenderLensFlare@CDrawPort@@QBEXPAVCTextureObject@@MMMMMK@Z
       2677  A74 000AA0A0 ?RenderModel@CModelObject@@QAEXAAVCRenderModel@@@Z
       2678  A75 000AA910 ?RenderModel_Mask@CModelObject@@AAEXAAVCRenderModel@@@Z
       2679  A76 000AC9E0 ?RenderModel_View@CModelObject@@AAEXAAVCRenderModel@@@Z
       2680  A77 00117C20 ?RenderParticles@CEntity@@UAEXXZ
       2681  A78 000B0E30 ?RenderPatches_View@CModelObject@@AAEXAAVCRenderModel@@@Z
       2682  A79 000AA550 ?RenderShadow@CModelObject@@QAEXAAVCRenderModel@@ABVCPlacement3D@@MMMABV?$Plane@M$02@@@Z
       2683  A7A 000B1040 ?RenderShadow_View@CModelObject@@AAEXAAVCRenderModel@@ABVCPlacement3D@@MMMABV?$Plane@M$02@@@Z
       2684  A7B 001139E0 ?RenderView@@YAXAAVCWorld@@AAVCEntity@@AAVCAnyProjection3D@@AAVCDrawPort@@@Z
       2685  A7C 00165190 ?RenderWireFrame@CTerrain@@QAEXAAVCAnyProjection3D@@PAVCDrawPort@@AAK@Z
       2686  A7D 0012E970 ?Reoptimize@CBrushMip@@QAEXXZ
       2687  A7E 00008910 ?ReplaceSubstr@CTString@@QAEHABV1@0@Z
       2688  A7F 00012C90 ?Report@CProfileForm@@QAEXAAVCTString@@@Z
       2689  A80 0001DD50 ?RequiredMod@CNetworkLibrary@@QAEAAVCTString@@XZ
       2690  A81 00012A80 ?Reset@CProfileForm@@QAEXXZ
       2691  A82 00004B10 ?ResetAnim@CAnimObject@@QAEXXZ
       2692  A83 000A2FB0 ?ResetAttachmentModelPosition@CModelObject@@QAEXJ@Z
       2693  A84 00072D10 ?ResetDisplayMode@CGfxLibrary@@QAEHW4GfxAPIType@@@Z
       2694  A85 0016BE50 ?ResetLayerMask@CTerrainLayer@@QAEXE@Z
       2695  A86 0016BE90 ?ResetLayerParams@CTerrainLayer@@QAEXXZ
       2696  A87 0017E110 ?ResetPredictionFilter@CMovableEntity@@QAEXXZ
       2697  A88 000FF080 ?ResetRND@CSessionState@@QAEXXZ
       2698  A89 000848E0 ?Resize@CViewPort@@QAEXXZ
       2699  A8A 00012190 ?ResizeMemory@@YAXPAPAXJ@Z
       2700  A8B 00103760 ?RestoreOldLevel@CSessionState@@QAEXABVCTString@@@Z
       2701  A8C 00021320 ?Resume@CSoundObject@@QAEXXZ
       2702  A8D 00084D30 ?ResumePlayingObjects@CSoundData@@QAEXXZ
       2703  A8E 0001BEC0 ?Return@CEntity@@QAEXJABVCEntityEvent@@@Z
       2704  A8F 00121800 ?Return@CRationalEntity@@QAEXJABVCEntityEvent@@@Z
       2705  A90 000010D0 ?Reverse@CTString@@QAE?AV1@PBD@Z
       2706  A91 00001100 ?Reverse@CTString@@QAE?AV1@PBV1@@Z
       2707  A92 00001130 ?ReverseCompare@CTString@@QAEHPBD@Z
       2708  A93 00001190 ?ReverseCompare@CTString@@QAEHPBV1@@Z
       2709  A94 000011F0 ?ReverseNoCaseCompare@CTString@@QAEHPBD@Z
       2710  A95 00001220 ?ReverseNoCaseCompare@CTString@@QAEHPBV1@@Z
       2711  A96 000F70C0 ?Rewind@CNetworkMessage@@QAEXXZ
       2712  A97 00008D30 ?Right@CTString@@QBE?AV1@H@Z
       2713  A98 000FEEE0 ?Rnd@CSessionState@@QAEKXZ
       2714  A99 0004BB60 ?Rotate@CMappingDefinition@@QAEXABVCMappingVectors@@ABV?$Vector@M$02@@M@Z
       2715  A9A 00155C40 ?RotateVector@@YAXAAY02MAAY0M@$$CBM@Z
       2716  A9B 00043160 ?Rotate_Airplane@CPlacement3D@@QAEXABV?$Vector@M$02@@@Z
       2717  A9C 000432E0 ?Rotate_HPB@CPlacement3D@@QAEXABV?$Vector@M$02@@@Z
       2718  A9D 00042FE0 ?Rotate_TrackBall@CPlacement3D@@QAEXABV?$Vector@M$02@@@Z
       2719  A9E 0017B860 ?SE_EndEngine@@YAXXZ
       2720  A9F 00179F70 ?SE_InitEngine@@YAXVCTString@@@Z
       2721  AA0 0017BC90 ?SE_LoadDefaultFonts@@YAXXZ
       2722  AA1 0017BE00 ?SE_PretouchIfNeeded@@YAXXZ
       2723  AA2 0017BDC0 ?SE_UpdateWindowHandle@@YAXPAUHWND__@@@Z
       2724  AA3 00101590 ?SSGetDemoMessage@CSessionState@@QAEHJAAUtagMSG@@AAH@Z
       2725  AA4 00101700 ?SSQueueDemoMessage@CSessionState@@QAEXABUtagMSG@@@Z
       2726  AA5 00101580 ?SSResetDemoMessageQueue@CSessionState@@QAEXXZ
       2727  AA6 0002C690 ?STAT_Report@@YAXAAVCTString@@@Z
       2728  AA7 0002C630 ?STAT_Reset@@YAXXZ
       2729  AA8 0000E730 ?Save@CInfoFile@@QAEXABVCTFileName@@HVCTString@@@Z
       2730  AA9 0000E480 ?Save@CInfoFile@@QAEXXZ
       2731  AAA 000F1680 ?SaveBannedEntries@CNetworkLibrary@@QAEXXZ
       2732  AAB 0000E670 ?SaveEncoded@CInfoFile@@QAEXABVCTFileName@@VCTString@@@Z
       2733  AAC 0000E570 ?SaveEncoded@CInfoFile@@QAEXVCTString@@@Z
       2734  AAD 00091D80 ?SaveIncludeFile_t@CEditModel@@QAEXVCTFileName@@VCTString@@@Z
       2735  AAE 00009DA0 ?SaveIntVar@@YAXABVCTFileName@@AAJ@Z
       2736  AAF 00009570 ?SaveKeepCRLF_t@CTString@@QAEXABVCTFileName@@@Z
       2737  AB0 00098490 ?SaveMapping_t@CEditModel@@QAEXVCTFileName@@J@Z
       2738  AB1 00009C00 ?SaveStringVar@@YAXABVCTFileName@@AAVCTString@@@Z
       2739  AB2 0000E930 ?SaveSystem@CInfoFile@@QAEXABVCTFileName@@HVCTString@@@Z
       2740  AB3 00077190 ?SaveTGA_t@CImageInfo@@QBEXABVCTFileName@@@Z
       2741  AB4 00009B60 ?SaveVar@CTString@@QAEXABVCTFileName@@@Z
       2742  AB5 00092660 ?Save_t@CEditModel@@QAEXVCTFileName@@@Z
       2743  AB6 000F2B70 ?Save_t@CNetworkLibrary@@QAEXABVCTFileName@@@Z
       2744  AB7 00127F80 ?Save_t@CPlayerCharacter@@QAEXABVCTFileName@@@Z
       2745  AB8 000273A0 ?Save_t@CSerial@@QAEXVCTFileName@@@Z
       2746  AB9 00009500 ?Save_t@CTString@@QAEXABVCTFileName@@@Z
       2747  ABA 000CB6E0 ?Save_t@CWorld@@QAEXABVCTFileName@@@Z
       2748  ABB 00009790 ?ScanF@CTString@@QAAJPBDZZ
       2749  ABC 00011BA0 ?ScanJoystick@CInput@@QAEHJH@Z
       2750  ABD 00015AB0 ?ScreenBBoxL@CProjection3D@@QAEAAV?$AABBox@M$01@@XZ
       2751  ABE 00015AC0 ?ScreenBBoxR@CProjection3D@@QBEABV?$AABBox@M$01@@XZ
       2752  ABF 0002ECE0 ?Seek_t@CTStream@@QAEXJW4SeekDir@1@@Z
       2753  AC0 000182C0 ?Select@CBrushPolygon@@QAEXK@Z
       2754  AC1 000186D0 ?Select@CBrushSector@@QAEXK@Z
       2755  AC2 000179C0 ?Select@CBrushVertex@@QAEXK@Z
       2756  AC3 0001BF20 ?Select@CEntity@@QAEXK@Z
       2757  AC4 0012DFD0 ?SelectAllSectors@CBrushMip@@QAEXAAV?$CSelection@VCBrushSector@@$00@@@Z
       2758  AC5 0012DED0 ?SelectAllSectors@CBrushMip@@QAEXAAV?$CSelection@VCBrushSector@@$03@@@Z
       2759  AC6 0012FDD0 ?SelectByColorInSector@CBrushPolygon@@QAEXAAV?$CSelection@VCBrushPolygon@@$0BAA@@@@Z
       2760  AC7 0012FC70 ?SelectByTextureInSector@CBrushPolygon@@QAEXAAV?$CSelection@VCBrushPolygon@@$0BAA@@@J@Z
       2761  AC8 000B8660 ?SelectByTextureInSelectedSectors@CWorld@@QAEXVCTFileName@@AAV?$CSelection@VCBrushPolygon@@$0BAA@@@J@Z
       2762  AC9 000B8830 ?SelectByTextureInWorld@CWorld@@QAEXVCTFileName@@AAV?$CSelection@VCBrushPolygon@@$0BAA@@@J@Z
       2763  ACA 0012DDC0 ?SelectClosedSectors@CBrushMip@@QAEXAAV?$CSelection@VCBrushSector@@$03@@@Z
       2764  ACB 00004680 ?SelectFrameInTime@CAnimObject@@QAEXM@Z
       2765  ACC 0012DCB0 ?SelectOpenSector@CBrushMip@@QAEXAAV?$CSelection@VCBrushSector@@$03@@@Z
       2766  ACD 0012DB70 ?SelectSectorsInRange@CBrushMip@@QAEXAAV?$CSelection@VCBrushSector@@$00@@V?$AABBox@M$02@@@Z
       2767  ACE 0012DA30 ?SelectSectorsInRange@CBrushMip@@QAEXAAV?$CSelection@VCBrushSector@@$03@@V?$AABBox@M$02@@@Z
       2768  ACF 0012F940 ?SelectSimilarByColor@CBrushPolygon@@QAEXAAV?$CSelection@VCBrushPolygon@@$0BAA@@@@Z
       2769  AD0 0012FAD0 ?SelectSimilarByTexture@CBrushPolygon@@QAEXAAV?$CSelection@VCBrushPolygon@@$0BAA@@@J@Z
       2770  AD1 000F56B0 ?SendActionsToServer@CNetworkLibrary@@QAEXXZ
       2771  AD2 00181560 ?SendBlockEvent@CMovableEntity@@QAEXAAVCClipMove@@@Z
       2772  AD3 000EC480 ?SendBroadcast@CMessageDispatcher@@QAEXABVCNetworkMessage@@KG@Z
       2773  AD4 000F5E60 ?SendChat@CNetworkLibrary@@QAEXKKABVCTString@@@Z
       2774  AD5 0011C150 ?SendEvent@CEntity@@QAEXABVCEntityEvent@@@Z
       2775  AD6 0011C970 ?SendEventInRange@CEntity@@QAEXABVCEntityEvent@@ABV?$AABBox@M$02@@@Z
       2776  AD7 00100090 ?SendLevelChangeNotification@CSessionState@@QAEXAAVCEntityEvent@@@Z
       2777  AD8 00100110 ?SendRoundChangeNotification@CSessionState@@QAEXAAVCEntityEvent@@@Z
       2778  AD9 000EBE40 ?SendToClient@CMessageDispatcher@@QAEXJABVCNetworkMessage@@@Z
       2779  ADA 000EBF60 ?SendToClientReliable@CMessageDispatcher@@QAEXJAAVCTMemoryStream@@@Z
       2780  ADB 000EBED0 ?SendToClientReliable@CMessageDispatcher@@QAEXJABVCNetworkMessage@@@Z
       2781  ADC 000EBFC0 ?SendToServer@CMessageDispatcher@@QAEXABVCNetworkMessage@@@Z
       2782  ADD 000EC050 ?SendToServerReliable@CMessageDispatcher@@QAEXABVCNetworkMessage@@@Z
       2783  ADE 001813F0 ?SendTouchEvent@CMovableEntity@@QAEXABVCClipMove@@@Z
       2784  ADF 0001DD30 ?ServerAddress@CNetworkLibrary@@QAEAAVCTString@@XZ
       2785  AE0 000E7B90 ?Server_ClearClient@CCommunicationInterface@@QAEXJ@Z
       2786  AE1 000E7B10 ?Server_Close@CCommunicationInterface@@QAEXXZ
       2787  AE2 000E7C70 ?Server_GetClientName@CCommunicationInterface@@QAE?AVCTString@@J@Z
       2788  AE3 000E7A50 ?Server_Init_t@CCommunicationInterface@@QAEXXZ
       2789  AE4 000E7C00 ?Server_IsClientLocal@CCommunicationInterface@@QAEHJ@Z
       2790  AE5 000E7C30 ?Server_IsClientUsed@CCommunicationInterface@@QAEHJ@Z
       2791  AE6 000E7DE0 ?Server_Receive_Reliable@CCommunicationInterface@@QAEHJPAXAAJ@Z
       2792  AE7 000E7ED0 ?Server_Receive_Unreliable@CCommunicationInterface@@QAEHJPAXAAJ@Z
       2793  AE8 000E7D70 ?Server_Send_Reliable@CCommunicationInterface@@QAEXJPBXJ@Z
       2794  AE9 000E7E60 ?Server_Send_Unreliable@CCommunicationInterface@@QAEXJPBXJ@Z
       2795  AEA 000E7F50 ?Server_Update@CCommunicationInterface@@QAEHXZ
       2796  AEB 0001D860 ?SessionAddr@CNetworkSession@@QAEAAVCTString@@XZ
       2797  AEC 0001DD20 ?SessionName@CNetworkLibrary@@QAEAAVCTString@@XZ
       2798  AED 0001D850 ?SessionName@CNetworkSession@@QAEAAVCTString@@XZ
       2799  AEE 0001DB50 ?SessionState@CNetworkLibrary@@QAEAAVCSessionState@@XZ
       2800  AEF 001039F0 ?SessionStateLoop@CSessionState@@QAEXXZ
       2801  AF0 0008D450 ?Set3DParameters@CSoundObject@@QAEXMMMM@Z
       2802  AF1 0012F290 ?SetAbsolutePosition@CBrushVertex@@QAEXABV?$Vector@N$02@@@Z
       2803  AF2 000FA250 ?SetAction@CPlayerSource@@QAEXABVCPlayerAction@@@Z
       2804  AF3 000048E0 ?SetAnim@CAnimObject@@QAEXJ@Z
       2805  AF4 00079FB0 ?SetAsCurrent@CShadowMap@@QAEXXZ
       2806  AF5 0007CC20 ?SetAsCurrent@CTextureData@@QAEXJH@Z
       2807  AF6 000C6A70 ?SetAutoMipBrushingOn@CWorldRenderPrefs@@QAEXH@Z
       2808  AF7 000C6CE0 ?SetBBoxType@CWorldRenderPrefs@@QAEXW4BBoxType@1@@Z
       2809  AF8 000C6D00 ?SetBSphereType@CWorldRenderPrefs@@QAEXW4BSphereType@1@@Z
       2810  AF9 000B8010 ?SetBackgroundColor@CWorld@@QAEXK@Z
       2811  AFA 000C69B0 ?SetBackgroundTextureOn@CWorldRenderPrefs@@QAEXH@Z
       2812  AFB 000B8020 ?SetBackgroundViewer@CWorld@@QAEXPAVCEntity@@@Z
       2813  AFC 000C6C00 ?SetBoundingBoxModel@CWorldRenderPrefs@@QAEXPAVCModelObject@@@Z
       2814  AFD 000C6C40 ?SetBoundingSphereModel@CWorldRenderPrefs@@QAEXPAVCModelObject@@@Z
       2815  AFE 0016B460 ?SetBufferForEditing@@YAXPAVCTerrain@@PAGAAURect@@W4BufferType@@J@Z
       2816  AFF 00051710 ?SetCharSpacing@CFontData@@QAEXJ@Z
       2817  B00 00099210 ?SetCollisionBox@CEditModel@@QAEXV?$Vector@M$02@@0@Z
       2818  B01 00099600 ?SetCollisionBoxDimensionEquality@CEditModel@@QAEXJ@Z
       2819  B02 000993B0 ?SetCollisionBoxName@CEditModel@@QAEXVCTString@@@Z
       2820  B03 00119360 ?SetCollisionFlags@CEntity@@QAEXK@Z
       2821  B04 000A0CB0 ?SetColorName@CModelObject@@QAEXJAAVCTString@@@Z
       2822  B05 000519D0 ?SetConstantColor@@YAXK@Z
       2823  B06 00018720 ?SetContentType@CBrushSector@@QAEXJ@Z
       2824  B07 00033860 ?SetCurrentTick@CTimer@@QAEXM@Z
       2825  B08 00073270 ?SetCurrentViewport@CGfxLibrary@@QAEHPAVCViewPort@@@Z
       2826  B09 0005F9B0 ?SetCurrentViewport_D3D@CGfxLibrary@@AAEHPAVCViewPort@@@Z
       2827  B0A 000661E0 ?SetCurrentViewport_OGL@CGfxLibrary@@AAEHPAVCViewPort@@@Z
       2828  B0B 000047B0 ?SetData@CAnimObject@@QAEXPAVCAnimData@@@Z
       2829  B0C 000A26E0 ?SetData@CModelObject@@QAEXPAVCModelData@@@Z
       2830  B0D 00004820 ?SetData_t@CAnimObject@@QAEXABVCTFileName@@@Z
       2831  B0E 000A2620 ?SetData_t@CModelObject@@QAEXABVCTFileName@@@Z
       2832  B0F 0007DFB0 ?SetData_t@CTextureObject@@QAEXABVCTFileName@@@Z
       2833  B10 00125930 ?SetDefaultProperties@CEntity@@UAEXXZ
       2834  B11 0017D370 ?SetDefaultProperties@CMovableBrushEntity@@UAEXXZ
       2835  B12 0017DD60 ?SetDefaultProperties@CMovableEntity@@UAEXXZ
       2836  B13 00188AD0 ?SetDefaultProperties@CMovableModelEntity@@UAEXXZ
       2837  B14 0018B900 ?SetDefaultProperties@CPlayerEntity@@UAEXXZ
       2838  B15 0018BFC0 ?SetDefaultProperties@CRoadMarker@@UAEXXZ
       2839  B16 000213E0 ?SetDelay@CSoundObject@@QAEXM@Z
       2840  B17 0001DBB0 ?SetDemoIsTutorial@CNetworkLibrary@@QAEXH@Z
       2841  B18 0001DBA0 ?SetDemoTimer@CNetworkLibrary@@QAEXM@Z
       2842  B19 0001DB80 ?SetDemoVersionMinor@CNetworkLibrary@@QAEXJ@Z
       2843  B1A 000B80A0 ?SetDescription@CWorld@@QAEXABVCTString@@@Z
       2844  B1B 0017F470 ?SetDesiredRotation@CMovableEntity@@QAEXABV?$Vector@M$02@@@Z
       2845  B1C 0017F4D0 ?SetDesiredTranslation@CMovableEntity@@QAEXABV?$Vector@M$02@@@Z
       2846  B1D 00072AC0 ?SetDisplayMode@CGfxLibrary@@QAEHW4GfxAPIType@@JJJW4DisplayDepth@@@Z
       2847  B1E 000C6B00 ?SetEdgesFillType@CWorldRenderPrefs@@QAEXW4FillType@1@@Z
       2848  B1F 000C6B20 ?SetEdgesInkColor@CWorldRenderPrefs@@QAEXK@Z
       2849  B20 000C6970 ?SetEditorModelsOn@CWorldRenderPrefs@@QAEXH@Z
       2850  B21 000C6CA0 ?SetEmptyBrushModel@CWorldRenderPrefs@@QAEXPAVCModelObject@@@Z
       2851  B22 0001DD70 ?SetEnumerationChanged@CNetworkLibrary@@QAEXH@Z
       2852  B23 00086D20 ?SetEnvironment@CSoundLibrary@@QAEHJM@Z
       2853  B24 000187E0 ?SetEnvironmentType@CBrushSector@@QAEXJ@Z
       2854  B25 000290D0 ?SetFLOAT@CShell@@QAEXABVCTString@@M@Z
       2855  B26 000361A0 ?SetFPUPrecision@@YAXW4FPUPrecisionType@@@Z
       2856  B27 000C6990 ?SetFieldBrushesOn@CWorldRenderPrefs@@QAEXH@Z
       2857  B28 00021380 ?SetFilter@CSoundObject@@QAEXMM@Z
       2858  B29 00051730 ?SetFixedWidth@CFontData@@QAEXXZ
       2859  B2A 00119330 ?SetFlags@CEntity@@QAEXK@Z
       2860  B2B 00019250 ?SetFlags@CTerrain@@QAEXK@Z
       2861  B2C 000191E0 ?SetFlags@CTerrainTile@@QAEXK@Z
       2862  B2D 0001CBB0 ?SetFogColorSpringFall@CSunstormWorldVariables@@QAEXK@Z
       2863  B2E 0001CBC0 ?SetFogColorWinter@CSunstormWorldVariables@@QAEXK@Z
       2864  B2F 0001CC00 ?SetFogFar@CSunstormWorldVariables@@QAEXHM@Z
       2865  B30 0001CC60 ?SetFogNear@CSunstormWorldVariables@@QAEXHM@Z
       2866  B31 000C6A10 ?SetFogOn@CWorldRenderPrefs@@QAEXH@Z
       2867  B32 00018780 ?SetFogType@CBrushSector@@QAEXJ@Z
       2868  B33 000542B0 ?SetFont@CDrawPort@@QAEXPAVCFontData@@@Z
       2869  B34 00018750 ?SetForceType@CBrushSector@@QAEXJ@Z
       2870  B35 00086FB0 ?SetFormat@CSoundLibrary@@QAE?AW4SoundFormat@1@W421@H@Z
       2871  B36 00003EF0 ?SetFrame@CAnimData@@QAEXJJJ@Z
       2872  B37 00002D30 ?SetFrames@CAnimData@@QAEXJJPAJ@Z
       2873  B38 000F3920 ?SetGameFinished@CNetworkLibrary@@QAEXXZ
       2874  B39 0001D640 ?SetGameID@CMessageDispatcher@@QAEXVCTString@@@Z
       2875  B3A 001662C0 ?SetGlobalTopMapSize@CTerrain@@QAEXJ@Z
       2876  B3B 000C6A30 ?SetHazeOn@CWorldRenderPrefs@@QAEXH@Z
       2877  B3C 000187B0 ?SetHazeType@CBrushSector@@QAEXJ@Z
       2878  B3D 0001C2C0 ?SetHealth@CLiveEntity@@QAEXM@Z
       2879  B3E 0009C350 ?SetHiddenLines@CModelRenderPrefs@@QAEXH@Z
       2880  B3F 000C6910 ?SetHiddenLinesOn@CWorldRenderPrefs@@QAEXH@Z
       2881  B40 00029150 ?SetINDEX@CShell@@QAEXABVCTString@@J@Z
       2882  B41 0009C420 ?SetInkColor@CModelRenderPrefs@@QAEXK@Z
       2883  B42 0000FED0 ?SetJoyPolling@CInput@@QAEXH@Z
       2884  B43 0000FEE0 ?SetKeyNames@CInput@@QAEXXZ
       2885  B44 001668D0 ?SetLayerIndex@CTerrain@@QAEJJJH@Z
       2886  B45 0013E7D0 ?SetLayerParameters@CLightSource@@QAEXAAVCBrushShadowLayer@@AAVCBrushPolygon@@AAVCLightRectangle@@@Z
       2887  B46 0016BAB0 ?SetLayerSize@CTerrainLayer@@QAEXJJ@Z
       2888  B47 0016BB30 ?SetLayerTexture_t@CTerrainLayer@@QAEXVCTFileName@@@Z
       2889  B48 000C6BA0 ?SetLensFlaresType@CWorldRenderPrefs@@QAEXW4LensFlaresType@1@@Z
       2890  B49 000338D0 ?SetLerp2@CTimer@@QAEXM@Z
       2891  B4A 000338C0 ?SetLerp@CTimer@@QAEXM@Z
       2892  B4B 00102A60 ?SetLerpFactor@CSessionState@@QAEXVCTimerValue@@@Z
       2893  B4C 0013F6C0 ?SetLightSource@CLightSource@@QAEXABV1@HH@Z
       2894  B4D 0013F660 ?SetLightSourceWithNoDiscarding@CLightSource@@QAEXABV1@@Z
       2895  B4E 00051720 ?SetLineSpacing@CFontData@@QAEXJ@Z
       2896  B4F 000F38D0 ?SetLocalPause@CNetworkLibrary@@QAEXH@Z
       2897  B50 00166360 ?SetLodDistanceFactor@CTerrain@@QAEXM@Z
       2898  B51 000C6A80 ?SetManualMipBrushingFactor@CWorldRenderPrefs@@QAEXM@Z
       2899  B52 000A0C20 ?SetManualMipLevel@CModelObject@@QAEXJ@Z
       2900  B53 0001CEA0 ?SetMapAnimal@CSunstormWorldVariables@@QAEHJABVCMapAnimal@@@Z
       2901  B54 0001D240 ?SetMapAnimals@CSunstormWorldVariables@@QAEXABV?$CDynamicStackArray@VCMapAnimal@@@@@Z
       2902  B55 0001CC90 ?SetMapDescription@CSunstormWorldVariables@@QAEXABVCTString@@@Z
       2903  B56 0001CB40 ?SetMapName@CSunstormWorldVariables@@QAEXABVCTString@@@Z
       2904  B57 0001CCE0 ?SetMapSeasonFlags@CSunstormWorldVariables@@QAEXK@Z
       2905  B58 0001CCF0 ?SetMapTempFlags@CSunstormWorldVariables@@QAEXK@Z
       2906  B59 00154FA0 ?SetMeshVisible@CModelInstance@@QAEXHJ@Z
       2907  B5A 000C6BC0 ?SetMinimumRenderRange@CWorldRenderPrefs@@QAEXM@Z
       2908  B5B 0012EC90 ?SetMipDistance@CBrushMip@@QAEXM@Z
       2909  B5C 000A0C30 ?SetMipSwitchFactor@CModelObject@@QAEXJM@Z
       2910  B5D 000C6A50 ?SetMirrorsOn@CWorldRenderPrefs@@QAEXH@Z
       2911  B5E 0011D1A0 ?SetModel@CEntity@@UAEXABVCTFileName@@@Z
       2912  B5F 0011D270 ?SetModel@CEntity@@UAEXJ@Z
       2913  B60 0011D8F0 ?SetModelAttachmentReflectionTexture@CEntity@@QAEXJJ@Z
       2914  B61 0011D930 ?SetModelAttachmentSpecularTexture@CEntity@@QAEXJJ@Z
       2915  B62 0011D5A0 ?SetModelColor@CEntity@@QAEXK@Z
       2916  B63 00154400 ?SetModelColor@CModelInstance@@QAEXK@Z
       2917  B64 0011D5F0 ?SetModelMainTexture@CEntity@@QAEXABVCTFileName@@@Z
       2918  B65 0011D6B0 ?SetModelMainTexture@CEntity@@QAEXJ@Z
       2919  B66 0011D710 ?SetModelReflectionTexture@CEntity@@QAEXJ@Z
       2920  B67 0011D740 ?SetModelSpecularTexture@CEntity@@QAEXJ@Z
       2921  B68 000A8320 ?SetModelView@CRenderModel@@QAEXXZ
       2922  B69 00093220 ?SetModel_t@CAttachedModel@@QAEXVCTFileName@@@Z
       2923  B6A 0000FAD0 ?SetMouseLookMode@CInput@@QAEXH@Z
       2924  B6B 00003E60 ?SetName@CAnimData@@QAEXJVCTString@@@Z
       2925  B6C 00154300 ?SetName@CModelInstance@@QAEXVCTString@@@Z
       2926  B6D 00128B10 ?SetName@CPlayerCharacter@@QAEXVCTString@@@Z
       2927  B6E 000B80E0 ?SetName@CWorld@@QAEXABVCTString@@@Z
       2928  B6F 0001DC40 ?SetNextLevelFile@CNetworkLibrary@@QAEXVCTFileName@@@Z
       2929  B70 000E7500 ?SetNonBlocking_t@CCommunicationInterface@@QAEXXZ
       2930  B71 000A82F0 ?SetObjectPlacement@CRenderModel@@QAEXABV?$Vector@M$02@@ABV?$Matrix@M$02$02@@@Z
       2931  B72 000A82C0 ?SetObjectPlacement@CRenderModel@@QAEXABVCPlacement3D@@@Z
       2932  B73 001529C0 ?SetOffset@CModelInstance@@QAEXQAM@Z
       2933  B74 0008D830 ?SetOffset@CSoundObject@@QAEXM@Z
       2934  B75 00152B30 ?SetOffsetPos@CModelInstance@@QAEXV?$Vector@M$02@@@Z
       2935  B76 00152B50 ?SetOffsetRot@CModelInstance@@QAEXV?$Vector@M$02@@@Z
       2936  B77 00052290 ?SetOrtho@CDrawPort@@QBEXXZ
       2937  B78 0000F4C0 ?SetOverlappedRendering@CDrawPort@@QAEXH@Z
       2938  B79 000213F0 ?SetOwner@CSoundObject@@QAEXPAVCEntity@@@Z
       2939  B7A 0009C440 ?SetPaperColor@CModelRenderPrefs@@QAEXK@Z
       2940  B7B 00119370 ?SetParent@CEntity@@QAEXPAV1@@Z
       2941  B7C 001529B0 ?SetParentBone@CModelInstance@@QAEXJ@Z
       2942  B7D 000018C0 ?SetPassword@CInfoFile@@QAEXVCTString@@@Z
       2943  B7E 00097C30 ?SetPatchStretch@CEditModel@@QAEXJM@Z
       2944  B7F 000A0CA0 ?SetPatchesMask@CModelObject@@QAEXK@Z
       2945  B80 00001950 ?SetPathName@CInfoFile@@QAEXAAVCTString@@@Z
       2946  B81 000213D0 ?SetPhase@CSoundObject@@QAEXM@Z
       2947  B82 00119340 ?SetPhysicsFlags@CEntity@@QAEXK@Z
       2948  B83 000213C0 ?SetPitch@CSoundObject@@QAEXM@Z
       2949  B84 00118A20 ?SetPlacement@CEntity@@QAEXABVCPlacement3D@@@Z
       2950  B85 00181F90 ?SetPlacementFromNextPosition@CMovableEntity@@QAEXXZ
       2951  B86 00118E40 ?SetPlacement_internal@CEntity@@UAEXABVCPlacement3D@@ABV?$Matrix@M$02$02@@H@Z
       2952  B87 0001CD10 ?SetPointLimits@CSunstormWorldVariables@@QAEXW4ePointLimitType@@J@Z
       2953  B88 000C6B40 ?SetPolygonsFillType@CWorldRenderPrefs@@QAEXW4FillType@1@@Z
       2954  B89 000C6B60 ?SetPolygonsInkColor@CWorldRenderPrefs@@QAEXK@Z
       2955  B8A 0002ED60 ?SetPos_t@CTStream@@QAEXJ@Z
       2956  B8B 000B6540 ?SetPrecictionHeadTick@CSessionState@@QAEXM@Z
       2957  B8C 00117EA0 ?SetPredictable@CEntity@@QAEXH@Z
       2958  B8D 00117E20 ?SetPredictionPair@CEntity@@UAEXPAV1@@Z
       2959  B8E 00117E40 ?SetPredictionTime@CEntity@@UAEXM@Z
       2960  B8F 0001DFB0 ?SetProgressDescription@@YAXABVCTString@@@Z
       2961  B90 0001DF90 ?SetProgressHook@@YAXP6AXPAVCProgressHookInfo@@@Z@Z
       2962  B91 000523A0 ?SetProjection@CDrawPort@@QBEXAAVCAnyProjection3D@@@Z
       2963  B92 00168500 ?SetQuadsPerTileRow@CTerrain@@QAEXJ@Z
       2964  B93 000F3960 ?SetRealTimeFactor@CNetworkLibrary@@QAEXM@Z
       2965  B94 00033840 ?SetRealTimeTick@CTimer@@QAEXM@Z
       2966  B95 0009C2E0 ?SetRenderType@CModelRenderPrefs@@QAEXK@Z
       2967  B96 0009D1E0 ?SetRenderingParameters@MappingSurface@@QAEXK@Z
       2968  B97 000C6BE0 ?SetSelectedEntityModel@CWorldRenderPrefs@@QAEXPAVCModelObject@@@Z
       2969  B98 000C6C80 ?SetSelectedPortalModel@CWorldRenderPrefs@@QAEXPAVCModelObject@@@Z
       2970  B99 000C6CC0 ?SetSelectionType@CWorldRenderPrefs@@QAEXW4SelectionType@1@@Z
       2971  B9A 0009C310 ?SetShadingType@CModelRenderPrefs@@QAEXK@Z
       2972  B9B 001660F0 ?SetShadowMapsSize@CTerrain@@QAEXJJ@Z
       2973  B9C 0009C380 ?SetShadowQuality@CModelRenderPrefs@@QAEXJ@Z
       2974  B9D 000C6B80 ?SetShadowsType@CWorldRenderPrefs@@QAEXW4ShadowsType@1@@Z
       2975  B9E 000C6950 ?SetShowEntityNamesOn@CWorldRenderPrefs@@QAEXH@Z
       2976  B9F 000C6930 ?SetShowTargetsOn@CWorldRenderPrefs@@QAEXH@Z
       2977  BA0 0011D2A0 ?SetSkaColisionInfo@CEntity@@QAEXXZ
       2978  BA1 0011D440 ?SetSkaModel@CEntity@@UAEHABVCTString@@@Z
       2979  BA2 0011D340 ?SetSkaModel_t@CEntity@@UAEXABVCTString@@@Z
       2980  BA3 00051750 ?SetSpaceWidth@CFontData@@QAEXM@Z
       2981  BA4 0001BF90 ?SetSpawnFlags@CEntity@@QAEXK@Z
       2982  BA5 000B8120 ?SetSpawnFlags@CWorld@@QAEXK@Z
       2983  BA6 00003EB0 ?SetSpeed@CAnimData@@QAEXJM@Z
       2984  BA7 000078F0 ?SetState@CCrypt@@AAEHW4eCryptError@1@@Z
       2985  BA8 000291F0 ?SetString@CShell@@QAEXABVCTString@@0@Z
       2986  BA9 0013E3D0 ?SetSunColors@@YAXKK@Z
       2987  BAA 000A0D70 ?SetSurfaceColor@CModelObject@@QAEXJJK@Z
       2988  BAB 000A0E50 ?SetSurfaceRenderFlags@CModelObject@@QAEXJJW4SurfaceShadingType@@W4SurfaceTranslucencyType@@K@Z
       2989  BAC 00128C30 ?SetTeam@CPlayerCharacter@@QAEXVCTString@@@Z
       2990  BAD 00165C10 ?SetTerrainSize@CTerrain@@QAEXV?$Vector@M$02@@@Z
       2991  BAE 00168550 ?SetTerrainStretch@CTerrain@@QAEXV?$Vector@M$02@@@Z
       2992  BAF 0000F530 ?SetTextAspect@CDrawPort@@QAEXM@Z
       2993  BB0 0000F500 ?SetTextCharSpacing@CDrawPort@@QAEXJ@Z
       2994  BB1 0000F510 ?SetTextLineSpacing@CDrawPort@@QAEXJ@Z
       2995  BB2 0000F540 ?SetTextMode@CDrawPort@@QAEXJ@Z
       2996  BB3 0000F520 ?SetTextScaling@CDrawPort@@QAEXM@Z
       2997  BB4 00154B90 ?SetTexture@CModelInstance@@QAEHJVCTString@@JJJ@Z
       2998  BB5 000A2560 ?SetTextureData@CModelObject@@QAEXPAVCTextureData@@@Z
       2999  BB6 000C6AB0 ?SetTextureLayerOn@CWorldRenderPrefs@@QAEXHJ@Z
       3000  BB7 00154DD0 ?SetTextureSimple@CModelInstance@@QAEHJ@Z
       3001  BB8 00154E00 ?SetTextureSimpleAllLODs@CModelInstance@@QAEHJ@Z
       3002  BB9 0009C2F0 ?SetTextureType@CModelRenderPrefs@@QAEXK@Z
       3003  BBA 00166310 ?SetTileTopMapSize@CTerrain@@QAEXJ@Z
       3004  BBB 0016BC10 ?SetTilesPerRow@CTerrainLayer@@QAEXJ@Z
       3005  BBC 0001BEE0 ?SetTimerAfter@CEntity@@QAEXM@Z
       3006  BBD 001215A0 ?SetTimerAfter@CRationalEntity@@QAEXM@Z
       3007  BBE 0001BED0 ?SetTimerAt@CEntity@@QAEXM@Z
       3008  BBF 00121550 ?SetTimerAt@CRationalEntity@@QAEXM@Z
       3009  BC0 0011F7B0 ?SetType@CEntity@@QAEXJ@Z
       3010  BC1 000E7360 ?SetUDPBufferSizes@CCommunicationInterface@@QAEXPAJ0@Z
       3011  BC2 00029350 ?SetValue@CShell@@QAEXABVCTString@@0@Z
       3012  BC3 00051740 ?SetVariableWidth@CFontData@@QAEXXZ
       3013  BC4 000C6AC0 ?SetVerticesFillType@CWorldRenderPrefs@@QAEXW4FillType@1@@Z
       3014  BC5 000C6AE0 ?SetVerticesInkColor@CWorldRenderPrefs@@QAEXK@Z
       3015  BC6 000C69D0 ?SetVisTweaksOn@CWorldRenderPrefs@@QAEXH@Z
       3016  BC7 000C6C20 ?SetVisibilityBoxModel@CWorldRenderPrefs@@QAEXPAVCModelObject@@@Z
       3017  BC8 000C6C60 ?SetVisibilitySphereModel@CWorldRenderPrefs@@QAEXPAVCModelObject@@@Z
       3018  BC9 00021360 ?SetVolume@CSoundObject@@QAEXMM@Z
       3019  BCA 0009C330 ?SetWire@CModelRenderPrefs@@QAEXH@Z
       3020  BCB 0001DCB0 ?SetWorldFile@CNetworkLibrary@@QAEXVCTFileName@@@Z
       3021  BCC 000A97D0 ?SetupModelRendering@CModelObject@@QAEXAAVCRenderModel@@@Z
       3022  BCD 00061F40 ?SetupPixelFormat_OGL@CGfxLibrary@@AAEHPAUHDC__@@H@Z
       3023  BCE 000B8530 ?ShowAllEntities@CWorld@@QAEXXZ
       3024  BCF 000B8600 ?ShowAllSectors@CWorld@@QAEXXZ
       3025  BD0 000A24D0 ?ShowPatch@CModelObject@@QAEXJ@Z
       3026  BD1 0016AFA0 ?ShowSelection@@YAXPAVCTerrain@@AAURect@@PAVCTextureData@@KMW4SelectionFill@@@Z
       3027  BD2 000F7300 ?Shrink@CNetworkMessage@@QAEXXZ
       3028  BD3 00012210 ?ShrinkMemory@@YAXPAPAXJ@Z
       3029  BD4 000363B0 ?Sin@@YAMM@Z
       3030  BD5 000027B0 ?SinFast@@YAMM@Z
       3031  BD6 00036340 ?Snap@@YAXAAMM@Z
       3032  BD7 00036370 ?Snap@@YAXAANN@Z
       3033  BD8 00011F00 ?Sort@CListHead@@QAEXP6AHPBX0@ZH@Z
       3034  BD9 00162780 ?SortSkeleton@CSkeleton@@QAEXXZ
       3035  BDA 001628F0 ?SortSkeletonRecursive@CSkeleton@@QAEXJJ@Z
       3036  BDB 000097B0 ?Split@CTString@@QAEXJAAV1@0@Z
       3037  BDC 000C7850 ?SplitOneSector@CWorld@@QAEXAAVCBrushSector@@AAVCObject3D@@@Z
       3038  BDD 000C81F0 ?SplitPolygons@CWorld@@QAEXAAVCEntity@@AAV?$CSelection@VCBrushPolygon@@$0BAA@@@AAV1@0ABVCPlacement3D@@@Z
       3039  BDE 000C7A00 ?SplitSectors@CWorld@@QAEXAAVCEntity@@AAV?$CSelection@VCBrushSector@@$00@@AAV1@0ABVCPlacement3D@@@Z
       3040  BDF 0012EC50 ?SpreadFurtherMips@CBrushMip@@QAEXXZ
       3041  BE0 0009CCE0 ?SpreadMipSwitchFactors@CModelData@@QAEXJM@Z
       3042  BE1 00004920 ?StartAnim@CAnimObject@@QAEXJ@Z
       3043  BE2 000F3410 ?StartDemoPlay_t@CNetworkLibrary@@QAEXABVCTFileName@@@Z
       3044  BE3 000F4630 ?StartDemoRec_t@CNetworkLibrary@@QAEXABVCTFileName@@@Z
       3045  BE4 000F68F0 ?StartDemoRecording@CNetworkLibrary@@QAEXXZ
       3046  BE5 00072F20 ?StartDisplayMode@CGfxLibrary@@AAEHW4GfxAPIType@@JJJW4DisplayDepth@@@Z
       3047  BE6 0011D5D0 ?StartModelAnim@CEntity@@QAEXJK@Z
       3048  BE7 0011D6F0 ?StartModelMainTextureAnim@CEntity@@QAEXJ@Z
       3049  BE8 000F2620 ?StartPeerToPeer_t@CNetworkLibrary@@QAEXABVCTString@@ABVCTFileName@@KJHPAX@Z
       3050  BE9 000EBDB0 ?StartProvider_t@CMessageDispatcher@@QAEXABVCNetworkProvider@@@Z
       3051  BEA 000FF9E0 ?Start_AtClient_t@CSessionState@@QAEXJ@Z
       3052  BEB 000FF840 ?Start_AtServer_t@CSessionState@@QAEXXZ
       3053  BEC 000F9ED0 ?Start_t@CPlayerSource@@QAEXAAVCPlayerCharacter@@@Z
       3054  BED 000FF5F0 ?Start_t@CSessionState@@QAEXJ@Z
       3055  BEE 0007A720 ?Stereo_AdjustProjection@@YAXAAVCProjection3D@@JM@Z
       3056  BEF 0007A690 ?Stereo_IsEnabled@@YAHXZ
       3057  BF0 0007A6A0 ?Stereo_SetBuffer@@YAXJ@Z
       3058  BF1 000FA190 ?Stop@CPlayerSource@@QAEXXZ
       3059  BF2 000FF420 ?Stop@CSessionState@@QAEXXZ
       3060  BF3 0008D8D0 ?Stop@CSoundObject@@QAEXXZ
       3061  BF4 001540D0 ?StopAllAnimations@CModelInstance@@QAEXM@Z
       3062  BF5 000F4820 ?StopDemoRec@CNetworkLibrary@@QAEXXZ
       3063  BF6 000F6920 ?StopDemoRecording@CNetworkLibrary@@QAEXXZ
       3064  BF7 000730D0 ?StopDisplayMode@CGfxLibrary@@AAEXXZ
       3065  BF8 000F3A00 ?StopGame@CNetworkLibrary@@QAEXXZ
       3066  BF9 000EBE30 ?StopProvider@CMessageDispatcher@@QAEXXZ
       3067  BFA 0008D990 ?Stop_internal@CSoundObject@@QAEXXZ
       3068  BFB 000294B0 ?StorePersistentSymbols@CShell@@QAEXABVCTFileName@@@Z
       3069  BFC 00152E10 ?StretchModel@CModelInstance@@QAEXAAV?$Vector@M$02@@@Z
       3070  BFD 000A3090 ?StretchModel@CModelObject@@QAEXABV?$Vector@M$02@@@Z
       3071  BFE 000A30D0 ?StretchModelRelative@CModelObject@@QAEXABV?$Vector@M$02@@@Z
       3072  BFF 00152E30 ?StretchSingleModel@CModelInstance@@QAEXAAV?$Vector@M$02@@@Z
       3073  C00 000A3120 ?StretchSingleModel@CModelObject@@QAEXABV?$Vector@M$02@@@Z
       3074  C01 00012250 ?StringDuplicate@@YAPADPBD@Z
       3075  C02 000E6B30 ?StringToAddress@@YAKABVCTString@@@Z
       3076  C03 00134210 ?SubdivideTriangles@CBrushSector@@QAEXAAV?$CSelection@VCBrushPolygon@@$0BAA@@@@Z
       3077  C04 00001740 ?Succ@CListNode@@QBEAAV1@XZ
       3078  C05 000A2470 ?SurfacesCt@CModelObject@@QAEJJ@Z
       3079  C06 00073A00 ?SwapBuffers@CGfxLibrary@@QAEXPAVCViewPort@@@Z
       3080  C07 00084A50 ?SwapBuffers@CViewPort@@QAEXXZ
       3081  C08 00004AF0 ?SwitchToAnim@CAnimObject@@QAEXJ@Z
       3082  C09 0011D170 ?SwitchToEditorModel@CEntity@@QAEXXZ
       3083  C0A 0011D140 ?SwitchToModel@CEntity@@QAEXXZ
       3084  C0B 00129B10 ?SwitchToNonZoning@CBrush3D@@QAEXXZ
       3085  C0C 00129BA0 ?SwitchToZoning@CBrush3D@@QAEXXZ
       3086  C0D 000F1D50 ?SyncManagers@CNetworkLibrary@@QAEXXZ
       3087  C0E 000F2450 ?SyncSessionState@CNetworkLibrary@@QAEXPAX@Z
       3088  C0F 00004300 ?Synchronize@CAnimObject@@QAEXAAV1@@Z
       3089  C10 00154820 ?Synchronize@CModelInstance@@QAEXAAV1@@Z
       3090  C11 000A05E0 ?Synchronize@CModelObject@@QAEXAAV1@@Z
       3091  C12 00001810 ?Tail@CListHead@@QBEAAVCListNode@@XZ
       3092  C13 00036490 ?Tan@@YAMM@Z
       3093  C14 000027F0 ?TanFast@@YAMM@Z
       3094  C15 00118480 ?Teleport@CEntity@@QAEXABVCPlacement3D@@H@Z
       3095  C16 0011E560 ?TerrainChangeNotify@CEntity@@QAEXXZ
       3096  C17 00044590 ?TestBoxToFrustum@CIsometricProjection3D@@UBEJABV?$OBBox@M@@@Z
       3097  C18 00045CB0 ?TestBoxToFrustum@CParallelProjection3D@@UBEJABV?$OBBox@M@@@Z
       3098  C19 00047B10 ?TestBoxToFrustum@CPerspectiveProjection3D@@UBEJABV?$OBBox@M@@@Z
       3099  C1A 00048B00 ?TestBoxToFrustum@CSimpleProjection3D@@UBEJABV?$OBBox@M@@@Z
       3100  C1B 00180F10 ?TestBreathing@CMovableEntity@@QAEXAAVCContentType@@@Z
       3101  C1C 000CFE10 ?TestBrushSector@CCastRay@@QAEXPAVCBrushSector@@@Z
       3102  C1D 001810B0 ?TestContentDamage@CMovableEntity@@QAEXAAVCContentType@@M@Z
       3103  C1E 00062B00 ?TestExtension_OGL@CGfxLibrary@@AAEXKPBD@Z
       3104  C1F 001803F0 ?TestFields@CMovableEntity@@QAEXAAJ0AAM@Z
       3105  C20 000CF620 ?TestModel@CCastRay@@QAEXPAVCEntity@@@Z
       3106  C21 000CEF70 ?TestModelCollisionBox@CCastRay@@QAEXPAVCEntity@@@Z
       3107  C22 000CF300 ?TestModelFull@CCastRay@@QAEXPAVCEntity@@AAVCModelObject@@@Z
       3108  C23 000CEC80 ?TestModelSimple@CCastRay@@QAEXPAVCEntity@@AAVCModelObject@@@Z
       3109  C24 000CF6A0 ?TestSkaModel@CCastRay@@QAEXPAVCEntity@@@Z
       3110  C25 000CF9F0 ?TestSkaModelFull@CCastRay@@QAEXPAVCEntity@@AAVCModelInstance@@@Z
       3111  C26 000CF710 ?TestSkaModelSimple@CCastRay@@QAEXPAVCEntity@@AAVCModelInstance@@@Z
       3112  C27 00044410 ?TestSphereToFrustum@CIsometricProjection3D@@UBEJABV?$Vector@M$02@@M@Z
       3113  C28 00045AF0 ?TestSphereToFrustum@CParallelProjection3D@@UBEJABV?$Vector@M$02@@M@Z
       3114  C29 00047950 ?TestSphereToFrustum@CPerspectiveProjection3D@@UBEJABV?$Vector@M$02@@M@Z
       3115  C2A 00048AF0 ?TestSphereToFrustum@CSimpleProjection3D@@UBEJABV?$Vector@M$02@@M@Z
       3116  C2B 001812C0 ?TestSurfaceDamage@CMovableEntity@@QAEXAAVCSurfaceType@@@Z
       3117  C2C 000CFD60 ?TestTerrain@CCastRay@@QAEXPAVCEntity@@@Z
       3118  C2D 000D09A0 ?TestThroughSectors@CCastRay@@QAEXXZ
       3119  C2E 000D0720 ?TestWholeWorld@CCastRay@@QAEXPAVCWorld@@@Z
       3120  C2F 0000B060 ?ThrowF_t@@YAXPADZZ
       3121  C30 0002EC70 ?Throw_t@CTStream@@QAAXPADZZ
       3122  C31 00009210 ?Throw_t@CTString@@QAEXXZ
       3123  C32 000B6550 ?Thumbnail@CSessionState@@QAEAAVCTString@@XZ
       3124  C33 001D7C58 ?TickQuantum@CTimer@@2MB
       3125  C34 000338F0 ?TimeToString@@YA?AVCTString@@M@Z
       3126  C35 000F5740 ?TimerLoop@CNetworkLibrary@@QAEXXZ
       3127  C36 0004AE90 ?ToMappingVectors@CMappingDefinition@@QBEXABVCMappingVectors@@AAV2@@Z
       3128  C37 0012B3B0 ?ToObject3D@CBrushMip@@QAEXAAVCObject3D@@AAV?$CSelection@VCBrushSector@@$00@@@Z
       3129  C38 0012B4A0 ?ToObject3D@CBrushMip@@QAEXAAVCObject3D@@AAV?$CSelection@VCBrushSector@@$03@@@Z
       3130  C39 0012B5B0 ?ToObjectSector@CBrushSector@@QAEXAAVCObjectSector@@@Z
       3131  C3A 0004A5F0 ?ToPlane@CMappingVectors@@QBEXAAV?$Plane@M$02@@@Z
       3132  C3B 0004A6C0 ?ToUI@CMappingDefinition@@QBEXAAVCMappingDefinitionUI@@@Z
       3133  C3C 000F37E0 ?TogglePause@CNetworkLibrary@@QAEXXZ
       3134  C3D 00130A00 ?TouchesInAnySector@CBrushEdge@@QAEHAAV1@@Z
       3135  C3E 00130E70 ?TouchesInAnySector@CBrushPolygon@@QAEHAAV1@@Z
       3136  C3F 00130610 ?TouchesInSameSector@CBrushEdge@@QAEHAAV1@@Z
       3137  C40 00130EE0 ?TouchesInSameSector@CBrushPolygon@@QAEHAAV1@@Z
       3138  C41 00126570 ?TouchingEntity@CEntity@@QAEPAV1@P6AHPAV1@@Z0@Z
       3139  C42 0004BFE0 ?Transform@CMappingDefinition@@QAEXABV?$Plane@M$02@@ABVCPlacement3D@@1@Z
       3140  C43 0004AB60 ?TransformMappingVectors@CMappingDefinition@@QBEXABVCMappingVectors@@AAV2@@Z
       3141  C44 00155BE0 ?TransformVertex@@YAXAAUGFXVertex4@@AAY0M@$$CBM@Z
       3142  C45 00034160 ?Translate@@YAPADPADJ@Z
       3143  C46 0004B970 ?Translate@CMappingDefinition@@QAEXABVCMappingVectors@@ABV?$Vector@M$02@@@Z
       3144  C47 00034180 ?TranslateConst@@YAPBDPBDJ@Z
       3145  C48 000433A0 ?Translate_AbsoluteSystem@CPlacement3D@@QAEXABV?$Vector@M$02@@@Z
       3146  C49 00043310 ?Translate_OwnSystem@CPlacement3D@@QAEXABV?$Vector@M$02@@@Z
       3147  C4A 001338F0 ?TriangularizeForVertices@CBrushSector@@QAEXAAV?$CSelection@VCBrushVertex@@$01@@@Z
       3148  C4B 000B9140 ?TriangularizeForVertices@CWorld@@QAEXAAV?$CSelection@VCBrushVertex@@$01@@@Z
       3149  C4C 001339A0 ?TriangularizeMarkedPolygons@CBrushSector@@QAEXXZ
       3150  C4D 00133840 ?TriangularizePolygon@CBrushSector@@QAEXPAVCBrushPolygon@@@Z
       3151  C4E 000B9A10 ?TriangularizePolygons@CWorld@@QAEXAAV?$CDynamicContainer@VCBrushPolygon@@@@@Z
       3152  C4F 00139580 ?Triangulate@CBrushPolygon@@QAEXXZ
       3153  C50 00133340 ?Triangulate@CBrushSector@@QAEXXZ
       3154  C51 00008B40 ?TrimLeft@CTString@@QAEJJ@Z
       3155  C52 00008B90 ?TrimRight@CTString@@QAEJJ@Z
       3156  C53 00009070 ?TrimSpacesLeft@CTString@@QAEJXZ
       3157  C54 000090F0 ?TrimSpacesRight@CTString@@QAEJXZ
       3158  C55 00181FF0 ?TryToGoUpstairs@CMovableEntity@@QAEHABV?$Vector@M$02@@ABVCSurfaceType@@H@Z
       3159  C56 00033020 ?TryToLock@CTSingleLock@@QAEHXZ
       3160  C57 00182BE0 ?TryToMove@CMovableEntity@@QAEHPAV1@HH@Z
       3161  C58 00015B50 ?TurnOffMirrorPlane@CProjection3D@@QAEXXZ
       3162  C59 00015B90 ?TurnOffWarpPlane@CProjection3D@@QAEXXZ
       3163  C5A 00038160 ?TurnPortalsToWalls@CObject3D@@QAEXXZ
       3164  C5B 0007D470 ?Unbind@CTextureData@@QAEXXZ
       3165  C5C 00079A90 ?Uncache@CShadowMap@@QAEJXZ
       3166  C5D 00132AE0 ?UncacheLightMaps@CBrushSector@@QAEXXZ
       3167  C5E 0013E720 ?UncacheShadowMaps@CLightSource@@QAEXXZ
       3168  C5F 0011C000 ?UncacheShadowsForGradient@CEntity@@QAEXJ@Z
       3169  C60 00008F00 ?Undecorated@CTString@@QBE?AV1@XZ
       3170  C61 00052650 ?Unlock@CDrawPort@@QAEXXZ
       3171  C62 000330D0 ?Unlock@CTSingleLock@@QAEXXZ
       3172  C63 00133200 ?UnlockAll@CBrushSector@@QAEXXZ
       3173  C64 000B7FF0 ?UnlockAll@CWorld@@QAEXXZ
       3174  C65 000313F0 ?UnlockBuffer@CTMemoryStream@@QAEXXZ
       3175  C66 000733D0 ?UnlockDrawPort@CGfxLibrary@@QAEXPAVCDrawPort@@@Z
       3176  C67 00074550 ?UnlockRaster@CGfxLibrary@@QAEXPAVCRaster@@@Z
       3177  C68 000B9690 ?UnmarkForPrediction@CWorld@@QAEXXZ
       3178  C69 000F7110 ?Unpack@CNetworkMessage@@QAEXAAV1@AAVCCompressor@@@Z
       3179  C6A 000F7200 ?UnpackDefault@CNetworkMessage@@QAEXAAV1@@Z
       3180  C6B 000A8410 ?UnpackVertex@CModelObject@@QAEXAAVCRenderModel@@JAAV?$Vector@M$02@@@Z
       3181  C6C 000A1460 ?UnpackVertex@CModelObject@@QAEXJJAAV?$Vector@M$02@@@Z
       3182  C6D 000E7230 ?Unprepare@CCommunicationInterface@@QAEXXZ
       3183  C6E 0001BEF0 ?UnsetTimer@CEntity@@QAEXXZ
       3184  C6F 00121600 ?UnsetTimer@CRationalEntity@@QAEXXZ
       3185  C70 000B7D50 ?UntargetEntity@CWorld@@QAEXPAVCEntity@@@Z
       3186  C71 00121630 ?UnwindStack@CRationalEntity@@QAEXJ@Z
       3187  C72 00036C10 ?UpVectorToAngles@@YAXABV?$Vector@M$02@@AAV1@@Z
       3188  C73 0008D9F0 ?Update3DEffects@CSoundObject@@QAEXXZ
       3189  C74 000963F0 ?UpdateAnimations_t@CEditModel@@QAEXAAVCTFileName@@@Z
       3190  C75 0012E5B0 ?UpdateBoundingBox@CBrushMip@@QAEXXZ
       3191  C76 00079930 ?UpdateDynamicLayers@CShadowMap@@QAEKXZ
       3192  C77 0013F990 ?UpdateGlobals@CLightSource@@QAEXXZ
       3193  C78 0013E950 ?UpdateLayer@CLightSource@@QAEXAAVCBrushShadowLayer@@@Z
       3194  C79 000E8E10 ?UpdateMasterBuffers@CCommunicationInterface@@QAEXXZ
       3195  C7A 00001D00 ?UpdateMaxPos@CTStream@@QAEXPAE@Z
       3196  C7B 00001D20 ?UpdateMaxPos@CTStream@@QAEXXZ
       3197  C7C 00096AB0 ?UpdateMipModels_t@CEditModel@@QAEXAAVCTFileName@@@Z
       3198  C7D 00180310 ?UpdateOneSectorForce@CMovableEntity@@QAEXAAVCBrushSector@@M@Z
       3199  C7E 00168C80 ?UpdateQuadTree@CTerrain@@QAEXXZ
       3200  C7F 00177810 ?UpdateQuadTreeNode@CTerrainTile@@QAEXXZ
       3201  C80 001333B0 ?UpdateSector@CBrushSector@@QAEXXZ
       3202  C81 000B9020 ?UpdateSectorsAfterVertexChange@CWorld@@QAEXAAV?$CSelection@VCBrushVertex@@$01@@@Z
       3203  C82 000B8F00 ?UpdateSectorsDuringVertexChange@CWorld@@QAEXAAV?$CSelection@VCBrushVertex@@$01@@@Z
       3204  C83 00166CE0 ?UpdateShadowMap@CTerrain@@QAEXHHPAV?$AABBox@M$02@@H@Z
       3205  C84 00087F00 ?UpdateSounds@CSoundLibrary@@QAEXXZ
       3206  C85 0011B130 ?UpdateSpatialRange@CEntity@@QAEXXZ
       3207  C86 0013F430 ?UpdateTerrains@CLightSource@@QAEXHH@Z
       3208  C87 0013F470 ?UpdateTerrains@CLightSource@@QAEXVCPlacement3D@@0HH@Z
       3209  C88 00166D30 ?UpdateTopMap@CTerrain@@QAEXJPAURect@@@Z
       3210  C89 001337C0 ?UpdateVertexChanges@CBrushSector@@QAEXXZ
       3211  C8A 0002EA00 ?UseApplicationPath@@YAXXZ
       3212  C8B 000096C0 ?VPrintF@CTString@@QAEJPBDPAD@Z
       3213  C8C 0001D840 ?Version@CNetworkSession@@QAEAAVCTString@@XZ
       3214  C8D 00015B10 ?ViewStretchL@CProjection3D@@QAEAAMXZ
       3215  C8E 00015B20 ?ViewStretchR@CProjection3D@@QBEABMXZ
       3216  C8F 000159F0 ?ViewerPlacementL@CProjection3D@@QAEAAVCPlacement3D@@XZ
       3217  C90 000377E0 ?ViewerPlacementL@CSimpleProjection3D_DOUBLE@@QAEAAVCPlacement3D@@XZ
       3218  C91 00015A00 ?ViewerPlacementR@CProjection3D@@QBEABVCPlacement3D@@XZ
       3219  C92 000377F0 ?ViewerPlacementR@CSimpleProjection3D_DOUBLE@@QBEABVCPlacement3D@@XZ
       3220  C93 00100190 ?WaitStream_t@CSessionState@@QAEXAAVCTMemoryStream@@ABVCTString@@J@Z
       3221  C94 00188E80 ?WaitUntilScheduledAnimStarts@CMovableModelEntity@@QAEHABVCEntityEvent@@@Z
       3222  C95 001009D0 ?WarmUpWorld@CSessionState@@QAEXXZ
       3223  C96 0000AE90 ?WarningMessage@@YAXPBDZZ
       3224  C97 00015B60 ?WarpPlaneL@CProjection3D@@QAEAAV?$Plane@M$02@@XZ
       3225  C98 00015B80 ?WarpPlaneR@CProjection3D@@QBEABV?$Plane@M$02@@XZ
       3226  C99 000F38C0 ?WhyDisconnected@CNetworkLibrary@@QAEABVCTString@@XZ
       3227  C9A 0009C400 ?WireOn@CModelRenderPrefs@@QAEHXZ
       3228  C9B 0001DC00 ?WorldFile@CNetworkLibrary@@QAE?AVCTFileName@@XZ
       3229  C9C 0001D870 ?WorldName@CNetworkSession@@QAEAAVCTString@@XZ
       3230  C9D 00181C60 ?WouldFallInNextPosition@CMovableEntity@@QAEHXZ
       3231  C9E 000F6D70 ?Write@CNetworkMessage@@QAEXPBXJ@Z
       3232  C9F 000FA2E0 ?WriteActionPacket@CPlayerSource@@QAEXAAVCNetworkMessage@@@Z
       3233  CA0 000F73C0 ?WriteBits@CNetworkMessage@@QAEXPBXJ@Z
       3234  CA1 000CC530 ?WriteBrushes_t@CWorld@@QAEXPAVCTStream@@@Z
       3235  CA2 0002F410 ?WriteChunk_t@CTStream@@QAEXPAXJ@Z
       3236  CA3 001259B0 ?WriteEntityPointer_t@CEntity@@QAEXPAVCTStream@@VCEntityPointer@@@Z
       3237  CA4 0012AAD0 ?WriteEntitySectorLinks_t@CBrushArchive@@QAEXAAVCTStream@@@Z
       3238  CA5 0002F450 ?WriteFullChunk_t@CTStream@@QAEXABVCChunkID@@PAXJ@Z
       3239  CA6 0002F3A0 ?WriteID_t@CTStream@@QAEXABVCChunkID@@@Z
       3240  CA7 000CDDC0 ?WriteInfo_t@CWorld@@QAEXPAVCTStream@@@Z
       3241  CA8 001370E0 ?WriteLayers_t@CBrushShadowMap@@UAEXPAVCTStream@@@Z
       3242  CA9 00079FA0 ?WriteLayers_t@CShadowMap@@UAEXPAVCTStream@@@Z
       3243  CAA 00098280 ?WriteMipSettings_t@CEditModel@@QAEXPAVCTStream@@J@Z
       3244  CAB 000308F0 ?WritePageToFile@CTFileStream@@QAEXJ@Z
       3245  CAC 0012A8D0 ?WritePortalSectorLinks_t@CBrushArchive@@QAEXAAVCTStream@@@Z
       3246  CAD 00125FE0 ?WriteProperties_t@CEntity@@QAEXAAVCTStream@@@Z
       3247  CAE 0002F3E0 ?WriteRawChunk_t@CTStream@@QAEXPAXJ@Z
       3248  CAF 00103580 ?WriteRememberedLevels_t@CSessionState@@QAEXPAVCTStream@@@Z
       3249  CB0 0009D400 ?WriteSettings_t@MappingSurface@@QAEXPAVCTStream@@@Z
       3250  CB1 0002F3C0 ?WriteSize_t@CTStream@@QAEXJ@Z
       3251  CB2 000CD750 ?WriteState_t@CWorld@@QAEXPAVCTStream@@H@Z
       3252  CB3 0002F4B0 ?WriteStream_t@CTStream@@QAEXAAV1@@Z
       3253  CB4 0017C070 ?WriteToStream@CSunstormWorldVariables@@UAEXPAVCTStream@@@Z
       3254  CB5 000F5F50 ?WriteVersion_t@CNetworkLibrary@@QAEXAAVCTStream@@@Z
       3255  CB6 001033C0 ?WriteWorldAndState_t@CSessionState@@QAEXPAVCTStream@@@Z
       3256  CB7 0014C6E0 ?Write_t@CAnimSet@@UAEXPAVCTStream@@@Z
       3257  CB8 00093160 ?Write_t@CAttachedModel@@QAEXPAVCTStream@@@Z
       3258  CB9 0009E890 ?Write_t@CAttachedModelPosition@@QAEXPAVCTStream@@@Z
       3259  CBA 00093370 ?Write_t@CAttachedSound@@QAEXPAVCTStream@@@Z
       3260  CBB 0012C3B0 ?Write_t@CBrush3D@@QAEXPAVCTStream@@@Z
       3261  CBC 0012AE00 ?Write_t@CBrushArchive@@UAEXPAVCTStream@@@Z
       3262  CBD 0012C6E0 ?Write_t@CBrushMip@@QAEXPAVCTStream@@@Z
       3263  CBE 0012CA90 ?Write_t@CBrushPolygonTexture@@QAEXAAVCTStream@@@Z
       3264  CBF 0012CB20 ?Write_t@CBrushSector@@QAEXPAVCTStream@@@Z
       3265  CC0 00093B10 ?Write_t@CEditModel@@UAEXPAVCTStream@@@Z
       3266  CC1 0011FEB0 ?Write_t@CEntity@@UAEXPAVCTStream@@@Z
       3267  CC2 00122C70 ?Write_t@CEntityClass@@UAEXPAVCTStream@@@Z
       3268  CC3 0005EA80 ?Write_t@CFontCharData@@QAEXPAVCTStream@@@Z
       3269  CC4 0005EE10 ?Write_t@CFontData@@UAEXPAVCTStream@@@Z
       3270  CC5 00076A30 ?Write_t@CImageInfo@@QBEXPAVCTStream@@@Z
       3271  CC6 0013E5D0 ?Write_t@CLightSource@@QAEXPAVCTStream@@@Z
       3272  CC7 00120C20 ?Write_t@CLiveEntity@@UAEXPAVCTStream@@@Z
       3273  CC8 0014FDB0 ?Write_t@CMesh@@UAEXPAVCTStream@@@Z
       3274  CC9 0009E750 ?Write_t@CModelCollisionBox@@QAEXPAVCTStream@@@Z
       3275  CCA 0009E8E0 ?Write_t@CModelData@@UAEXPAVCTStream@@@Z
       3276  CCB 000A0820 ?Write_t@CModelObject@@QAEXPAVCTStream@@@Z
       3277  CCC 0009C5D0 ?Write_t@CModelPatch@@QAEXPAVCTStream@@@Z
       3278  CCD 0009C470 ?Write_t@CModelRenderPrefs@@QAEXPAVCTStream@@@Z
       3279  CCE 0017D400 ?Write_t@CMovableBrushEntity@@UAEXPAVCTStream@@@Z
       3280  CCF 0017F1B0 ?Write_t@CMovableEntity@@UAEXPAVCTStream@@@Z
       3281  CD0 00188E50 ?Write_t@CMovableModelEntity@@UAEXPAVCTStream@@@Z
       3282  CD1 001282C0 ?Write_t@CPlayerCharacter@@QAEXPAVCTStream@@@Z
       3283  CD2 0018BAD0 ?Write_t@CPlayerEntity@@UAEXPAVCTStream@@@Z
       3284  CD3 001214A0 ?Write_t@CRationalEntity@@UAEXPAVCTStream@@@Z
       3285  CD4 00103230 ?Write_t@CSessionState@@QAEXPAVCTStream@@@Z
       3286  CD5 00079310 ?Write_t@CShader@@UAEXPAVCTStream@@@Z
       3287  CD6 00079E50 ?Write_t@CShadowMap@@QAEXPAVCTStream@@@Z
       3288  CD7 00162DB0 ?Write_t@CSkeleton@@UAEXPAVCTStream@@@Z
       3289  CD8 00085180 ?Write_t@CSoundData@@UAEXPAVCTStream@@@Z
       3290  CD9 0008E440 ?Write_t@CSoundObject@@QAEXPAVCTStream@@@Z
       3291  CDA 00002660 ?Write_t@CTStream@@QAEXPBXJ@Z
       3292  CDB 001698F0 ?Write_t@CTerrain@@QAEXPAVCTStream@@@Z
       3293  CDC 0016AA80 ?Write_t@CTerrainArchive@@UAEXPAVCTStream@@@Z
       3294  CDD 0016C9B0 ?Write_t@CTerrainLayer@@QAEXPAVCTStream@@@Z
       3295  CDE 0007C620 ?Write_t@CTextureData@@UAEXPAVCTStream@@@Z
       3296  CDF 0007D6E0 ?Write_t@CTextureObject@@QAEXPAVCTStream@@@Z
       3297  CE0 000905E0 ?Write_t@CThumbnailSettings@@QAEXPAVCTStream@@@Z
       3298  CE1 000CC000 ?Write_t@CWorld@@QAEXPAVCTStream@@@Z
       3299  CE2 0009D260 ?Write_t@MappingSurface@@QAEXPAVCTStream@@@Z
       3300  CE3 0009DC20 ?Write_t@ModelMipInfo@@QAEXPAVCTStream@@@Z
       3301  CE4 0009CF40 ?Write_t@ModelPolygon@@QAEXPAVCTStream@@@Z
       3302  CE5 0009CEE0 ?Write_t@ModelPolygonVertex@@QAEXPAVCTStream@@@Z
       3303  CE6 0000AFC0 ?YesNoMessage@@YAHPBDZZ
       3304  CE7 00015C40 ?ZoomFactorL@CIsometricProjection3D@@QAEAAMXZ
       3305  CE8 00015C50 ?ZoomFactorR@CIsometricProjection3D@@QBEABMXZ
       3306  CE9 0022E1F8 ?_ategtTextureEffectGlobalPresets@@3PAUTextureEffectGlobalType@@A
       3307  CEA 0025F66C ?_bDedicatedServer@@3HA
       3308  CEB 0025BCD0 ?_bSelectAlternative@@3HA
       3309  CEC 0025F670 ?_bWorldEditorApp@@3HA
       3310  CED 00259C3C ?_colViewerAmbient@@3KA
       3311  CEE 00259C40 ?_colViewerLight@@3KA
       3312  CEF 0022E3A8 ?_ctTextureEffectGlobalPresets@@3JA
       3313  CF0 0025BDCC ?_eeVoid@@3ABVCEntityEvent@@B
       3314  CF1 00242A60 ?_fnmApplicationExe@@3VCTFileName@@A
       3315  CF2 00242A68 ?_fnmApplicationPath@@3VCTFileName@@A
       3316  CF3 00242A40 ?_fnmCDPath@@3VCTFileName@@A
       3317  CF4 00242A38 ?_fnmExecutablePath@@3VCTFileName@@A
       3318  CF5 00242A58 ?_fnmMod@@3VCTFileName@@A
       3319  CF6 00253AAC ?_iTexForcedQuality@@3JA
       3320  CF7 002560E0 ?_mrpModelRenderPrefs@@3VCModelRenderPrefs@@A
       3321  CF8 00258574 ?_pAnimSetStock@@3PAVCStock_CAnimSet@@A
       3322  CF9 0025856C ?_pAnimStock@@3PAVCStock_CAnimData@@A
       3323  CFA 0023D1C8 ?_pConsole@@3PAVCConsole@@A
       3324  CFB 0025857C ?_pEntityClassStock@@3PAVCStock_CEntityClass@@A
       3325  CFC 00253AA8 ?_pGfx@@3PAVCGfxLibrary@@A
       3326  CFD 0023E09C ?_pInput@@3PAVCInput@@A
       3327  CFE 00258584 ?_pMeshStock@@3PAVCStock_CMesh@@A
       3328  CFF 0025858C ?_pModelStock@@3PAVCStock_CModelData@@A
       3329  D00 002598F0 ?_pNetwork@@3PAVCNetworkLibrary@@A
       3330  D01 00258594 ?_pShaderStock@@3PAVCStock_CShader@@A
       3331  D02 002424E0 ?_pShell@@3PAVCShell@@A
       3332  D03 0025859C ?_pSkeletonStock@@3PAVCStock_CSkeleton@@A
       3333  D04 00255FD4 ?_pSound@@3PAVCSoundLibrary@@A
       3334  D05 002585A4 ?_pSoundStock@@3PAVCStock_CSoundData@@A
       3335  D06 0025E308 ?_pTerrain@@3PAVCTerrain@@A
       3336  D07 002585AC ?_pTextureStock@@3PAVCStock_CTextureData@@A
       3337  D08 00242AEC ?_pTimer@@3PAVCTimer@@A
       3338  D09 0025BCC8 ?_pavpixSelectLasso@@3PAV?$CStaticStackArray@V?$Vector@J$01@@@@A
       3339  D0A 00253BF8 ?_pfGfxProfile@@3AAVCProfileForm@@A
       3340  D0B 00256100 ?_pfModelProfile@@3AAVCProfileForm@@A
       3341  D0C 002599E8 ?_pfNetworkProfile@@3AAVCProfileForm@@A
       3342  D0D 00258460 ?_pfPhysicsProfile@@3AAVCProfileForm@@A
       3343  D0E 0025BCF0 ?_pfRenderProfile@@3AAVCProfileForm@@A
       3344  D0F 00256088 ?_pfSoundProfile@@3AAVCProfileForm@@A
       3345  D10 002584D8 ?_pfWorldEditingProfile@@3AAVCProfileForm@@A
       3346  D11 00244FB4 ?_pfdConsoleFont@@3PAVCFontData@@A
       3347  D12 00244FB8 ?_pfdDisplayFont@@3PAVCFontData@@A
       3348  D13 00235804 ?_pixDeltaAroundVertex@@3JA
       3349  D14 00242BC0 ?_plOrigin@@3VCPlacement3D@@A
       3350  D15 002599BC ?_precache_bNowPrecaching@@3JA
       3351  D16 0025BCDC ?_pselbscVisTweaks@@3PAV?$CSelection@VCBrushSector@@$00@@A
       3352  D17 0025BCC4 ?_pselbvxtSelectOnRender@@3PAV?$CSelection@VCBrushVertex@@$01@@A
       3353  D18 0025BCCC ?_pselenSelectOnRender@@3PAV?$CSelection@VCEntity@@$00@@A
       3354  D19 00242828 ?_sfStats@@3VCStatForm@@A
       3355  D1A 0025F664 ?_strEngineBuild@@3VCTString@@A
       3356  D1B 0025F660 ?_strLogFile@@3VCTString@@A
       3357  D1C 00242A48 ?_strModExt@@3VCTString@@A
       3358  D1D 00242A50 ?_strModName@@3VCTString@@A
       3359  D1E 00242A4C ?_strModURL@@3VCTString@@A
       3360  D1F 002573B0 ?_toSimpleModelShadow@@3VCTextureObject@@A
       3361  D20 00253A58 ?_tpGlobal@@3PAVCTexParams@@A
       3362  D21 002381E4 ?_ulEngineBuildMajor@@3KA
       3363  D22 002381E8 ?_ulEngineBuildMinor@@3KA
       3364  D23 00259C48 ?_vViewerLightDirection@@3V?$Vector@M$02@@A
       3365  D24 00259C58 ?_vpixSelectNearPoint@@3V?$Vector@J$01@@A
       3366  D25 00259A98 ?_wrpWorldRenderPrefs@@3VCWorldRenderPrefs@@A
       3367  D26 0022477C ?crc_aulCRCTable@@3PAKA
       3368  D27 002585B0 ?g_Comm@@3VCCommunicationInterface@@A
       3369  D28 0025F288 ?g_gdp@@3UGame_Drawports@@A
       3370  D29 002598BC ?gam_iPrecachePolicy@@3JA
       3371  D2A 00224B9C ?hunters_key@CCrypt@@2PAEA
       3372  D2B 00077E70 ?shaBegin@@YAXAAVCAnyProjection3D@@PAVCShader@@@Z
       3373  D2C 00079140 ?shaBlendFunc@@YAXW4GfxBlend@@0@Z
       3374  D2D 00078100 ?shaCalculateLight@@YAXXZ
       3375  D2E 000788A0 ?shaCalculateLightForSpecular@@YAXXZ
       3376  D2F 00078B90 ?shaClean@@YAXXZ
       3377  D30 00079100 ?shaCullFace@@YAXW4GfxFace@@@Z
       3378  D31 00079210 ?shaDepthFunc@@YAXW4GfxComp@@@Z
       3379  D32 000791A0 ?shaDisableAlphaTest@@YAXXZ
       3380  D33 00079180 ?shaDisableBlend@@YAXXZ
       3381  D34 000791C0 ?shaDisableDepthTest@@YAXXZ
       3382  D35 00079200 ?shaDisableDepthWrite@@YAXXZ
       3383  D36 000791E0 ?shaDisableStencilDrawOnce@@YAXXZ
       3384  D37 00077FF0 ?shaDoFogPass@@YAXXZ
       3385  D38 00079190 ?shaEnableAlphaTest@@YAXXZ
       3386  D39 00079170 ?shaEnableBlend@@YAXXZ
       3387  D3A 000791B0 ?shaEnableDepthTest@@YAXXZ
       3388  D3B 000791F0 ?shaEnableDepthWrite@@YAXXZ
       3389  D3C 000791D0 ?shaEnableStencilDrawOnce@@YAXXZ
       3390  D3D 00077E90 ?shaEnd@@YAXXZ
       3391  D3E 00078F40 ?shaGetAmbientColor@@YAAAKXZ
       3392  D3F 00078EF0 ?shaGetColor@@YAAAKJ@Z
       3393  D40 00078FB0 ?shaGetColorArray@@YAPAUGFXColor@@XZ
       3394  D41 00078F50 ?shaGetCurrentColor@@YAAAKXZ
       3395  D42 00078F00 ?shaGetFlags@@YAAAKXZ
       3396  D43 00078EB0 ?shaGetFloat@@YAMJ@Z
       3397  D44 00078F70 ?shaGetIndexArray@@YAPAJXZ
       3398  D45 00078EA0 ?shaGetIndexCount@@YAJXZ
       3399  D46 00078F30 ?shaGetLightColor@@YAAAKXZ
       3400  D47 00078F20 ?shaGetLightDirection@@YAAAV?$Vector@M$02@@XZ
       3401  D48 00078F10 ?shaGetModelColor@@YAAAKXZ
       3402  D49 00078FC0 ?shaGetNewColorArray@@YAPAUGFXColor@@XZ
       3403  D4A 00079000 ?shaGetNewTexCoordArray@@YAPAUGFXTexCoord@@XZ
       3404  D4B 00078F80 ?shaGetNormalArray@@YAPAUGFXNormal4@@XZ
       3405  D4C 000790F0 ?shaGetObjToAbsMatrix@@YAPAY0M@MXZ
       3406  D4D 000790E0 ?shaGetObjToViewMatrix@@YAPAY0M@MXZ
       3407  D4E 000790D0 ?shaGetProjection@@YAPAVCAnyProjection3D@@XZ
       3408  D4F 00078EC0 ?shaGetTexture@@YAPAVCTextureObject@@J@Z
       3409  D50 00078F90 ?shaGetUVMap@@YAPAUGFXTexCoord@@J@Z
       3410  D51 00078F60 ?shaGetVertexArray@@YAPAUGFXVertex4@@XZ
       3411  D52 00078E90 ?shaGetVertexCount@@YAJXZ
       3412  D53 000780E0 ?shaModifyColorForFog@@YAXXZ
       3413  D54 00079270 ?shaOverBrightningEnabled@@YAHXZ
       3414  D55 00077F60 ?shaRender@@YAXXZ
       3415  D56 00078E20 ?shaSetColor@@YAXJ@Z
       3416  D57 00078CD0 ?shaSetColorArray@@YAXPAKJ@Z
       3417  D58 00078E80 ?shaSetConstantColor@@YAXK@Z
       3418  D59 00078D90 ?shaSetFinalColor@@YAXUGFXColor@@@Z
       3419  D5A 00078D10 ?shaSetFlags@@YAXK@Z
       3420  D5B 00078CF0 ?shaSetFloatArray@@YAXPAMJ@Z
       3421  D5C 00079240 ?shaSetFogUVMap@@YAXPAUGFXTexCoord@@@Z
       3422  D5D 00079260 ?shaSetHazeColorArray@@YAXPAUGFXColor@@@Z
       3423  D5E 00079250 ?shaSetHazeUVMap@@YAXPAUGFXTexCoord@@@Z
       3424  D5F 00078C70 ?shaSetIndices@@YAXPAJJ@Z
       3425  D60 00078D50 ?shaSetLightColor@@YAXKK@Z
       3426  D61 00078D30 ?shaSetLightDirection@@YAXABV?$Vector@M$02@@@Z
       3427  D62 00078D20 ?shaSetModelColor@@YAXAAK@Z
       3428  D63 00078C60 ?shaSetNormalArray@@YAXPAUGFXNormal4@@@Z
       3429  D64 00078DB0 ?shaSetObjToAbsMatrix@@YAXAAY0M@M@Z
       3430  D65 00078DA0 ?shaSetObjToViewMatrix@@YAXAAY0M@M@Z
       3431  D66 00078E60 ?shaSetTexCoords@@YAXPAUGFXTexCoord@@@Z
       3432  D67 00078DC0 ?shaSetTexture@@YAXJ@Z
       3433  D68 00078C90 ?shaSetTextureArray@@YAXPAPAVCTextureObject@@J@Z
       3434  D69 00079160 ?shaSetTextureModulation@@YAXJ@Z
       3435  D6A 00079220 ?shaSetTextureWrapping@@YAXW4GfxWrap@@0@Z
       3436  D6B 00078E00 ?shaSetUVMap@@YAXJ@Z
       3437  D6C 00078CB0 ?shaSetUVMapsArray@@YAXPAUGFXTexCoord@@J@Z
       3438  D6D 00078C40 ?shaSetVertexArray@@YAXPAUGFXVertex4@@J@Z
       3439  D6E 00078E70 ?shaSetVertexColors@@YAXPAUGFXColor@@@Z
       3440  D6F 00163CA0 ?ska_ClearStringTable@@YAXXZ
       3441  D70 00163B10 ?ska_DumpStringTable@@YAXVCTFileName@@@Z
       3442  D71 00163810 ?ska_FindStringInTable@@YAJVCTString@@@Z
       3443  D72 00163720 ?ska_GetIDFromStringTable@@YAJVCTString@@@Z
       3444  D73 001638D0 ?ska_GetStringFromTable@@YA?AVCTString@@J@Z
       3445  D74 001639C0 ?ska_StringTableRead_t@@YAXPAVCTStream@@@Z
       3446  D75 00163920 ?ska_StringTableWrite_t@@YAXPAVCTStream@@@Z
       3447  D76 0022E968 ?snd_iFormat@@3JA
       3448  D77 00224B8C ?sunstorm_key@CCrypt@@2PAEA
       3449  D78 00224B94 ?user_key@CCrypt@@2PAEA
       3450  D79 00235F10 CEntity_DLLClass
       3451  D7A 00235F58 CLiveEntity_DLLClass
       3452  D7B 00238BD0 CMovableBrushEntity_DLLClass
       3453  D7C 00238C40 CMovableEntity_DLLClass
       3454  D7D 00238E90 CMovableModelEntity_DLLClass
       3455  D7E 00239668 CPlayerEntity_DLLClass
       3456  D7F 00235FA0 CRationalEntity_DLLClass
       3457  D80 00239700 CRoadMarker_DLLClass

  Summary

       3D000 .data
        1000 .data1
       4D000 .rdata
       1C000 .reloc
      1D6000 .text
        1000 .tls
