Microsoft (R) COFF/PE Dumper Version 10.00.30319.01
Copyright (C) Microsoft Corporation.  All rights reserved.


Dump of file Entities.dll

File Type: DLL

  Section contains the following exports for Entities.dll

    00000000 characteristics
    3D91F9B9 time date stamp Wed Sep 25 21:00:25 2002
        0.00 version
           1 ordinal base
        2543 number of functions
        2543 number of names

    ordinal hint RVA      name

          1    0 0000AD90 ??0CCompMessageID@@QAE@ABV0@@Z
          2    1 0000AD70 ??0CCompMessageID@@QAE@XZ
          3    2 00013790 ??0CEnemyBase@@QAE@ABV0@@Z
          4    3 00060B40 ??0CEnemyBase@@QAE@XZ
          5    4 00069C80 ??0CEnemyDive@@QAE@ABV0@@Z
          6    5 00069C60 ??0CEnemyDive@@QAE@XZ
          7    6 0006AC70 ??0CEnemyFly@@QAE@ABV0@@Z
          8    7 0006AC50 ??0CEnemyFly@@QAE@XZ
          9    8 0006D3F0 ??0CEnemyRunInto@@QAE@ABV0@@Z
         10    9 0006D3D0 ??0CEnemyRunInto@@QAE@XZ
         11    A 00024A00 ??0CNavigationMarker@@QAE@ABV0@@Z
         12    B 00024970 ??0CNavigationMarker@@QAE@XZ
         13    C 0009A210 ??0CPathNode@@QAE@ABV0@@Z
         14    D 0000D6D0 ??0CPlayer@@QAE@AAV0@@Z
         15    E 000B2F00 ??0CPlayer@@QAE@XZ
         16    F 000A5E50 ??0CPlayerView@@QAE@ABV0@@Z
         17   10 000A5E20 ??0CPlayerView@@QAE@XZ
         18   11 000A8250 ??0CPulser@@QAE@ABV0@@Z
         19   12 000A8220 ??0CPulser@@QAE@XZ
         20   13 0000B0A0 ??0CReminder@@QAE@ABV0@@Z
         21   14 0000B080 ??0CReminder@@QAE@XZ
         22   15 00012540 ??0CWatcher@@QAE@ABV0@@Z
         23   16 00012510 ??0CWatcher@@QAE@XZ
         24   17 00072870 ??0EAIEnterScrapePointHit@@QAE@ABV0@@Z
         25   18 0012F6F0 ??0EAIEnterScrapePointHit@@QAE@XZ
         26   19 00072970 ??0EAIExitScrapePointHit@@QAE@ABV0@@Z
         27   1A 0012F730 ??0EAIExitScrapePointHit@@QAE@XZ
         28   1B 00025980 ??0EAIMoveFinished@@QAE@ABV0@@Z
         29   1C 00027610 ??0EAIMoveFinished@@QAE@XZ
         30   1D 00025A80 ??0EAIMovePointHit@@QAE@ABV0@@Z
         31   1E 00027650 ??0EAIMovePointHit@@QAE@XZ
         32   1F 00034BE0 ??0EATVClicked@@QAE@ABV0@@Z
         33   20 00036020 ??0EATVClicked@@QAE@XZ
         34   21 00034E20 ??0EATVLoadOnTruck@@QAE@ABV0@@Z
         35   22 000360D0 ??0EATVLoadOnTruck@@QAE@XZ
         36   23 000348B0 ??0EATVStart@@QAE@ABV0@@Z
         37   24 00035F30 ??0EATVStart@@QAE@XZ
         38   25 00034AE0 ??0EATVStop@@QAE@ABV0@@Z
         39   26 00035FD0 ??0EATVStop@@QAE@XZ
         40   27 00035050 ??0EATVUnloadOffTruck@@QAE@ABV0@@Z
         41   28 00036190 ??0EATVUnloadOffTruck@@QAE@XZ
         42   29 000081B0 ??0EActivate@@QAE@ABV0@@Z
         43   2A 0007C6E0 ??0EActivate@@QAE@XZ
         44   2B 00015860 ??0EAimLeft@@QAE@ABV0@@Z
         45   2C 000CC980 ??0EAimLeft@@QAE@XZ
         46   2D 00015960 ??0EAimRight@@QAE@ABV0@@Z
         47   2E 000CC9C0 ??0EAimRight@@QAE@XZ
         48   2F 0000CC80 ??0EAnimalClaimed@@QAE@ABV0@@Z
         49   30 000AB7C0 ??0EAnimalClaimed@@QAE@XZ
         50   31 00025050 ??0EAnimalInit@@QAE@ABV0@@Z
         51   32 0002BA80 ??0EAnimalInit@@QAE@XZ
         52   33 000A7070 ??0EAnimatorInit@@QAE@ABV0@@Z
         53   34 000C9390 ??0EAnimatorInit@@QAE@XZ
         54   35 0000C6E0 ??0EAutoAction@@QAE@ABV0@@Z
         55   36 000AB600 ??0EAutoAction@@QAE@XZ
         56   37 00048010 ??0EBoatClicked@@QAE@ABV0@@Z
         57   38 00048D20 ??0EBoatClicked@@QAE@XZ
         58   39 00047CE0 ??0EBoatStart@@QAE@ABV0@@Z
         59   3A 00048C30 ??0EBoatStart@@QAE@XZ
         60   3B 00047F10 ??0EBoatStop@@QAE@ABV0@@Z
         61   3C 00048CD0 ??0EBoatStop@@QAE@XZ
         62   3D 00056CD0 ??0EBrushDestroyed@@QAE@ABV0@@Z
         63   3E 00094C20 ??0EBrushDestroyed@@QAE@XZ
         64   3F 00071350 ??0EBuckVitalShot@@QAE@ABV0@@Z
         65   40 00160320 ??0EBuckVitalShot@@QAE@XZ
         66   41 0003E170 ??0ECallMade@@QAE@ABV0@@Z
         67   42 0003ED20 ??0ECallMade@@QAE@XZ
         68   43 00071AD0 ??0ECalledBuck@@QAE@ABV0@@Z
         69   44 00160670 ??0ECalledBuck@@QAE@XZ
         70   45 000719B0 ??0ECalledDoe@@QAE@ABV0@@Z
         71   46 00160610 ??0ECalledDoe@@QAE@XZ
         72   47 0000C080 ??0ECameraStart@@QAE@ABV0@@Z
         73   48 000AB420 ??0ECameraStart@@QAE@XZ
         74   49 0000C2B0 ??0ECameraStop@@QAE@ABV0@@Z
         75   4A 000AB4D0 ??0ECameraStop@@QAE@XZ
         76   4B 00009550 ??0ECenterMessage@@QAE@ABV0@@Z
         77   4C 0007CC50 ??0ECenterMessage@@QAE@XZ
         78   4D 0000A510 ??0EChangeAnim@@QAE@ABV0@@Z
         79   4E 00031860 ??0EChangeAnim@@QAE@XZ
         80   4F 000834F0 ??0EChangeGravity@@QAE@ABV0@@Z
         81   50 000847B0 ??0EChangeGravity@@QAE@XZ
         82   51 00011E20 ??0EChangeMusic@@QAE@ABV0@@Z
         83   52 000995F0 ??0EChangeMusic@@QAE@XZ
         84   53 00009CA0 ??0EClicked@@QAE@ABV0@@Z
         85   54 0007CF80 ??0EClicked@@QAE@XZ
         86   55 00009780 ??0EComputerMessage@@QAE@ABV0@@Z
         87   56 0007CD60 ??0EComputerMessage@@QAE@XZ
         88   57 00072F90 ??0EDAAttracted@@QAE@ABV0@@Z
         89   58 0012F8B0 ??0EDAAttracted@@QAE@XZ
         90   59 00072C90 ??0EDABed@@QAE@ABV0@@Z
         91   5A 0012F7F0 ??0EDABed@@QAE@XZ
         92   5B 00072B90 ??0EDADrink@@QAE@ABV0@@Z
         93   5C 0012F7B0 ??0EDADrink@@QAE@XZ
         94   5D 00073290 ??0EDADying@@QAE@ABV0@@Z
         95   5E 0012F970 ??0EDADying@@QAE@XZ
         96   5F 00072A90 ??0EDAEat@@QAE@ABV0@@Z
         97   60 0012F770 ??0EDAEat@@QAE@XZ
         98   61 00073390 ??0EDAFollowParent@@QAE@ABV0@@Z
         99   62 0012F9B0 ??0EDAFollowParent@@QAE@XZ
        100   63 00073590 ??0EDAHeardCall@@QAE@ABV0@@Z
        101   64 0012FA30 ??0EDAHeardCall@@QAE@XZ
        102   65 00072D90 ??0EDAMarkTerritory@@QAE@ABV0@@Z
        103   66 0012F830 ??0EDAMarkTerritory@@QAE@XZ
        104   67 00073490 ??0EDANothing@@QAE@ABV0@@Z
        105   68 0012F9F0 ??0EDANothing@@QAE@XZ
        106   69 00072E90 ??0EDASearchForDeer@@QAE@ABV0@@Z
        107   6A 0012F870 ??0EDASearchForDeer@@QAE@XZ
        108   6B 00073090 ??0EDASpooked@@QAE@ABV0@@Z
        109   6C 0012F8F0 ??0EDASpooked@@QAE@XZ
        110   6D 00073190 ??0EDAWounded@@QAE@ABV0@@Z
        111   6E 0012F930 ??0EDAWounded@@QAE@XZ
        112   6F 000082B0 ??0EDeactivate@@QAE@ABV0@@Z
        113   70 0007C720 ??0EDeactivate@@QAE@XZ
        114   71 00044690 ??0EDecoyStart@@QAE@ABV0@@Z
        115   72 00044F90 ??0EDecoyStart@@QAE@XZ
        116   73 000530F0 ??0EDeerCallInit@@QAE@ABV0@@Z
        117   74 00053FB0 ??0EDeerCallInit@@QAE@XZ
        118   75 00053340 ??0EDeerCallMade@@QAE@ABV0@@Z
        119   76 000540E0 ??0EDeerCallMade@@QAE@XZ
        120   77 000558A0 ??0EDeerDecoyRecalled@@QAE@ABV0@@Z
        121   78 00055FF0 ??0EDeerDecoyRecalled@@QAE@XZ
        122   79 00055650 ??0EDeerDecoyStart@@QAE@ABV0@@Z
        123   7A 00055F40 ??0EDeerDecoyStart@@QAE@XZ
        124   7B 0000C5E0 ??0EDisconnected@@QAE@ABV0@@Z
        125   7C 000AB5B0 ??0EDisconnected@@QAE@XZ
        126   7D 00051C40 ??0EDoDecal@@QAE@ABV0@@Z
        127   7E 00052370 ??0EDoDecal@@QAE@XZ
        128   7F 000725E0 ??0EDoDeerBloodTrack@@QAE@ABV0@@Z
        129   80 00149770 ??0EDoDeerBloodTrack@@QAE@XZ
        130   81 00072350 ??0EDoDeerTrack@@QAE@ABV0@@Z
        131   82 00149620 ??0EDoDeerTrack@@QAE@XZ
        132   83 00071590 ??0EDoeVitalShot@@QAE@ABV0@@Z
        133   84 00160430 ??0EDoeVitalShot@@QAE@XZ
        134   85 000085B0 ??0EEnd@@QAE@ABV0@@Z
        135   86 0007C7E0 ??0EEnd@@QAE@XZ
        136   87 00052DD0 ??0EEndCall@@QAE@ABV0@@Z
        137   88 00053EC0 ??0EEndCall@@QAE@XZ
        138   89 000A68E0 ??0EEnteredLauncher@@QAE@ABV0@@Z
        139   8A 000F8640 ??0EEnteredLauncher@@QAE@XZ
        140   8B 000083B0 ??0EEnvironmentStart@@QAE@ABV0@@Z
        141   8C 0007C760 ??0EEnvironmentStart@@QAE@XZ
        142   8D 000084B0 ??0EEnvironmentStop@@QAE@ABV0@@Z
        143   8E 0007C7A0 ??0EEnvironmentStop@@QAE@XZ
        144   8F 00014A20 ??0EFireGun@@QAE@ABV0@@Z
        145   90 000CC5C0 ??0EFireGun@@QAE@XZ
        146   91 00013600 ??0EForceWound@@QAE@ABV0@@Z
        147   92 00060720 ??0EForceWound@@QAE@XZ
        148   93 000818C0 ??0EGrasshopperParticlesInit@@QAE@ABV0@@Z
        149   94 00082050 ??0EGrasshopperParticlesInit@@QAE@XZ
        150   95 00014730 ??0EGunInit@@QAE@ABV0@@Z
        151   96 000CC4E0 ??0EGunInit@@QAE@XZ
        152   97 00014F40 ??0EGunIsUp@@QAE@ABV0@@Z
        153   98 000CC720 ??0EGunIsUp@@QAE@XZ
        154   99 00015040 ??0EGunNotUp@@QAE@ABV0@@Z
        155   9A 000CC760 ??0EGunNotUp@@QAE@XZ
        156   9B 000E5980 ??0EHarbor@@QAE@ABV0@@Z
        157   9C 000E6240 ??0EHarbor@@QAE@XZ
        158   9D 00014E40 ??0EHeartbeat@@QAE@ABV0@@Z
        159   9E 000CC6E0 ??0EHeartbeat@@QAE@XZ
        160   9F 00056BD0 ??0EHit@@QAE@ABV0@@Z
        161   A0 00094BE0 ??0EHit@@QAE@XZ
        162   A1 00009BA0 ??0EHitBySpaceShipBeam@@QAE@ABV0@@Z
        163   A2 0007CF30 ??0EHitBySpaceShipBeam@@QAE@XZ
        164   A3 000A72A0 ??0EInitStand@@QAE@ABV0@@Z
        165   A4 00100300 ??0EInitStand@@QAE@XZ
        166   A5 0000CA30 ??0EKilledDeer@@QAE@ABV0@@Z
        167   A6 000AB710 ??0EKilledDeer@@QAE@XZ
        168   A7 00009020 ??0EKilledEnemy@@QAE@ABV0@@Z
        169   A8 0007CAD0 ??0EKilledEnemy@@QAE@XZ
        170   A9 00085390 ??0ELAAmbient@@QAE@ABV0@@Z
        171   AA 00085DA0 ??0ELAAmbient@@QAE@XZ
        172   AB 00085490 ??0ELAFlee@@QAE@ABV0@@Z
        173   AC 00085DE0 ??0ELAFlee@@QAE@XZ
        174   AD 00085590 ??0ELASleep@@QAE@ABV0@@Z
        175   AE 00085E20 ??0ELASleep@@QAE@XZ
        176   AF 000A6B10 ??0ELaunchSkeet@@QAE@ABV0@@Z
        177   B0 000F86F0 ??0ELaunchSkeet@@QAE@XZ
        178   B1 000A6D40 ??0ELaunchTrap@@QAE@ABV0@@Z
        179   B2 000F87A0 ??0ELaunchTrap@@QAE@XZ
        180   B3 00014C20 ??0ELowerGun@@QAE@ABV0@@Z
        181   B4 000CC650 ??0ELowerGun@@QAE@XZ
        182   B5 00013150 ??0EMemberNotify@@QAE@ABV0@@Z
        183   B6 000D84E0 ??0EMemberNotify@@QAE@XZ
        184   B7 0000D470 ??0EMessage@@QAE@ABV0@@Z
        185   B8 000ABAA0 ??0EMessage@@QAE@XZ
        186   B9 00015360 ??0EPin1Down@@QAE@ABV0@@Z
        187   BA 000CC840 ??0EPin1Down@@QAE@XZ
        188   BB 00015260 ??0EPin1Up@@QAE@ABV0@@Z
        189   BC 000CC800 ??0EPin1Up@@QAE@XZ
        190   BD 00015560 ??0EPin2Down@@QAE@ABV0@@Z
        191   BE 000CC8C0 ??0EPin2Down@@QAE@XZ
        192   BF 00015460 ??0EPin2Up@@QAE@ABV0@@Z
        193   C0 000CC880 ??0EPin2Up@@QAE@XZ
        194   C1 00015760 ??0EPin3Down@@QAE@ABV0@@Z
        195   C2 000CC940 ??0EPin3Down@@QAE@XZ
        196   C3 00015660 ??0EPin3Up@@QAE@ABV0@@Z
        197   C4 000CC900 ??0EPin3Up@@QAE@XZ
        198   C5 0000CFF0 ??0EPlayerFired@@QAE@ABV0@@Z
        199   C6 000AB8E0 ??0EPlayerFired@@QAE@XZ
        200   C7 0000CEB0 ??0EProfileScore@@QAE@ABV0@@Z
        201   C8 000AB870 ??0EProfileScore@@QAE@XZ
        202   C9 00012C80 ??0EProjectileHit@@QAE@ABV0@@Z
        203   CA 000D8360 ??0EProjectileHit@@QAE@XZ
        204   CB 00013030 ??0EProjectileInit@@QAE@ABV0@@Z
        205   CC 000D8460 ??0EProjectileInit@@QAE@XZ
        206   CD 000A80B0 ??0EPulse@@QAE@ABV0@@Z
        207   CE 000DF8D0 ??0EPulse@@QAE@XZ
        208   CF 00025770 ??0EPulseAnimation@@QAE@ABV0@@Z
        209   D0 0010DC40 ??0EPulseAnimation@@QAE@XZ
        210   D1 00025870 ??0EPulseMover@@QAE@ABV0@@Z
        211   D2 0010DC80 ??0EPulseMover@@QAE@XZ
        212   D3 000A7E80 ??0EPulserInit@@QAE@ABV0@@Z
        213   D4 000DF820 ??0EPulserInit@@QAE@XZ
        214   D5 000E05C0 ??0ERAmbient@@QAE@ABV0@@Z
        215   D6 000E1030 ??0ERAmbient@@QAE@XZ
        216   D7 000E06C0 ??0ERFlee@@QAE@ABV0@@Z
        217   D8 000E1070 ??0ERFlee@@QAE@XZ
        218   D9 000E07C0 ??0ERSleep@@QAE@ABV0@@Z
        219   DA 000E10B0 ??0ERSleep@@QAE@XZ
        220   DB 00014B20 ??0ERaiseGun@@QAE@ABV0@@Z
        221   DC 000CC600 ??0ERaiseGun@@QAE@XZ
        222   DD 0000A3E0 ??0ERangeModelDestruction@@QAE@ABV0@@Z
        223   DE 0008C2C0 ??0ERangeModelDestruction@@QAE@XZ
        224   DF 0000C4E0 ??0ERebirth@@QAE@ABV0@@Z
        225   E0 000AB570 ??0ERebirth@@QAE@XZ
        226   E1 00008F00 ??0EReceiveScore@@QAE@ABV0@@Z
        227   E2 0007CA80 ??0EReceiveScore@@QAE@XZ
        228   E3 00013500 ??0EReconsiderBehavior@@QAE@ABV0@@Z
        229   E4 000606E0 ??0EReconsiderBehavior@@QAE@XZ
        230   E5 00071110 ??0ERecordBuckVitalShot@@QAE@ABV0@@Z
        231   E6 00160200 ??0ERecordBuckVitalShot@@QAE@XZ
        232   E7 00014D40 ??0EReloadGun@@QAE@ABV0@@Z
        233   E8 000CC6A0 ??0EReloadGun@@QAE@XZ
        234   E9 000089E0 ??0EReminder@@QAE@ABV0@@Z
        235   EA 0007C920 ??0EReminder@@QAE@XZ
        236   EB 0000AE30 ??0EReminderInit@@QAE@ABV0@@Z
        237   EC 000E0290 ??0EReminderInit@@QAE@XZ
        238   ED 00013400 ??0ERestartAttack@@QAE@ABV0@@Z
        239   EE 000606A0 ??0ERestartAttack@@QAE@XZ
        240   EF 0000D140 ??0ERoundChange@@QAE@ABV0@@Z
        241   F0 000AB960 ??0ERoundChange@@QAE@XZ
        242   F1 000E7870 ??0ESBAmbient@@QAE@ABV0@@Z
        243   F2 000E82D0 ??0ESBAmbient@@QAE@XZ
        244   F3 000E7970 ??0ESBFlee@@QAE@ABV0@@Z
        245   F4 000E8310 ??0ESBFlee@@QAE@XZ
        246   F5 000E7A70 ??0ESBSleep@@QAE@ABV0@@Z
        247   F6 000E8350 ??0ESBSleep@@QAE@XZ
        248   F7 000A7B80 ??0ESGAmbient@@QAE@ABV0@@Z
        249   F8 000FA010 ??0ESGAmbient@@QAE@XZ
        250   F9 000A7C80 ??0ESGFlee@@QAE@ABV0@@Z
        251   FA 000FA050 ??0ESGFlee@@QAE@XZ
        252   FB 000A7D80 ??0ESGSleep@@QAE@ABV0@@Z
        253   FC 000FA090 ??0ESGSleep@@QAE@XZ
        254   FD 00009120 ??0ESecretFound@@QAE@ABV0@@Z
        255   FE 0007CB10 ??0ESecretFound@@QAE@XZ
        256   FF 00052FD0 ??0ESetCall@@QAE@ABV0@@Z
        257  100 00053F50 ??0ESetCall@@QAE@XZ
        258  101 00015140 ??0ESetGunFireOffset@@QAE@ABV0@@Z
        259  102 000CC7B0 ??0ESetGunFireOffset@@QAE@XZ
        260  103 00012900 ??0EShotPenalty@@QAE@ABV0@@Z
        261  104 000D81F0 ??0EShotPenalty@@QAE@XZ
        262  105 0000C910 ??0ESlideTreeStand@@QAE@ABV0@@Z
        263  106 000AB6B0 ??0ESlideTreeStand@@QAE@XZ
        264  107 00009300 ??0ESound@@QAE@ABV0@@Z
        265  108 0007CB60 ??0ESound@@QAE@XZ
        266  109 0000A950 ??0ESpawnDebris@@QAE@ABV0@@Z
        267  10A 00051060 ??0ESpawnDebris@@QAE@XZ
        268  10B 0000A740 ??0ESpawnEffect@@QAE@ABV0@@Z
        269  10C 0003C810 ??0ESpawnEffect@@QAE@XZ
        270  10D 00056810 ??0ESpawnEffector@@QAE@ABV0@@Z
        271  10E 0005DE30 ??0ESpawnEffector@@QAE@XZ
        272  10F 0000A130 ??0ESpawnSpray@@QAE@ABV0@@Z
        273  110 00047680 ??0ESpawnSpray@@QAE@XZ
        274  111 00072210 ??0EStalkedBuck@@QAE@ABV0@@Z
        275  112 00160950 ??0EStalkedBuck@@QAE@XZ
        276  113 000720F0 ??0EStalkedDoe@@QAE@ABV0@@Z
        277  114 001608F0 ??0EStalkedDoe@@QAE@XZ
        278  115 00007F80 ??0EStart@@QAE@ABV0@@Z
        279  116 0007C640 ??0EStart@@QAE@XZ
        280  117 00008B00 ??0EStartAttack@@QAE@ABV0@@Z
        281  118 0007C970 ??0EStartAttack@@QAE@XZ
        282  119 00052CD0 ??0EStartCall@@QAE@ABV0@@Z
        283  11A 00053E80 ??0EStartCall@@QAE@XZ
        284  11B 00007E80 ??0EStop@@QAE@ABV0@@Z
        285  11C 0007C5F0 ??0EStop@@QAE@XZ
        286  11D 00008C00 ??0EStopAttack@@QAE@ABV0@@Z
        287  11E 0007C9B0 ??0EStopAttack@@QAE@XZ
        288  11F 00008D00 ??0EStopBlindness@@QAE@ABV0@@Z
        289  120 0007C9F0 ??0EStopBlindness@@QAE@XZ
        290  121 00008E00 ??0EStopDeafness@@QAE@ABV0@@Z
        291  122 0007CA30 ??0EStopDeafness@@QAE@XZ
        292  123 000A6F70 ??0EStrength@@QAE@ABV0@@Z
        293  124 000F8840 ??0EStrength@@QAE@XZ
        294  125 000A85A0 ??0ESurroundParticleSystemInit@@QAE@ABV0@@Z
        295  126 00105F70 ??0ESurroundParticleSystemInit@@QAE@XZ
        296  127 000717A0 ??0ETargetBullsEye@@QAE@ABV0@@Z
        297  128 00160540 ??0ETargetBullsEye@@QAE@XZ
        298  129 000088E0 ??0ETeleportMovingBrush@@QAE@ABV0@@Z
        299  12A 0007C8D0 ??0ETeleportMovingBrush@@QAE@XZ
        300  12B 00025670 ??0EThink@@QAE@ABV0@@Z
        301  12C 0010DC00 ??0EThink@@QAE@XZ
        302  12D 000253F0 ??0EThinkerInit@@QAE@ABV0@@Z
        303  12E 0010DB60 ??0EThinkerInit@@QAE@XZ
        304  12F 0000BE10 ??0ETimeDelayed@@QAE@ABV0@@Z
        305  130 0010E760 ??0ETimeDelayed@@QAE@XZ
        306  131 00071FF0 ??0ETrackedBloodTrail@@QAE@ABV0@@Z
        307  132 001608A0 ??0ETrackedBloodTrail@@QAE@XZ
        308  133 00071DF0 ??0ETrackedBuckTrack@@QAE@ABV0@@Z
        309  134 001607F0 ??0ETrackedBuckTrack@@QAE@XZ
        310  135 00071BF0 ??0ETrackedDoeTrack@@QAE@ABV0@@Z
        311  136 00160700 ??0ETrackedDoeTrack@@QAE@XZ
        312  137 000086B0 ??0ETrigger@@QAE@ABV0@@Z
        313  138 0007C830 ??0ETrigger@@QAE@XZ
        314  139 00034440 ??0ETruckClicked@@QAE@ABV0@@Z
        315  13A 001135D0 ??0ETruckClicked@@QAE@XZ
        316  13B 00034240 ??0ETruckFirstPersonView@@QAE@ABV0@@Z
        317  13C 00113540 ??0ETruckFirstPersonView@@QAE@XZ
        318  13D 00034670 ??0ETruckLoadATV@@QAE@ABV0@@Z
        319  13E 00113680 ??0ETruckLoadATV@@QAE@XZ
        320  13F 00033F10 ??0ETruckStart@@QAE@ABV0@@Z
        321  140 00113460 ??0ETruckStart@@QAE@XZ
        322  141 00034140 ??0ETruckStop@@QAE@ABV0@@Z
        323  142 00113500 ??0ETruckStop@@QAE@XZ
        324  143 00034340 ??0ETruckThirdPersonView@@QAE@ABV0@@Z
        325  144 00113580 ??0ETruckThirdPersonView@@QAE@XZ
        326  145 00009ED0 ??0EUseCall@@QAE@ABV0@@Z
        327  146 0007D030 ??0EUseCall@@QAE@XZ
        328  147 00052ED0 ??0EUseNextCall@@QAE@ABV0@@Z
        329  148 00053F00 ??0EUseNextCall@@QAE@XZ
        330  149 000A5AE0 ??0EViewInit@@QAE@ABV0@@Z
        331  14A 000D56E0 ??0EViewInit@@QAE@XZ
        332  14B 00009990 ??0EVoiceMessage@@QAE@ABV0@@Z
        333  14C 0007CE70 ??0EVoiceMessage@@QAE@XZ
        334  14D 00012290 ??0EWatch@@QAE@ABV0@@Z
        335  14E 00117C30 ??0EWatch@@QAE@XZ
        336  14F 00012060 ??0EWatcherInit@@QAE@ABV0@@Z
        337  150 00117B80 ??0EWatcherInit@@QAE@XZ
        338  151 000D6480 ??0EWeaponEffectInit@@QAE@ABV0@@Z
        339  152 000D6B00 ??0EWeaponEffectInit@@QAE@XZ
        340  153 0000D240 ??0EWorldClick@@QAE@ABV0@@Z
        341  154 000AB9B0 ??0EWorldClick@@QAE@XZ
        342  155 00033DF0 ??0GPSCenterView@@QAE@ABV0@@Z
        343  156 0007E020 ??0GPSCenterView@@QAE@XZ
        344  157 00033CF0 ??0GPSClearWayPoint@@QAE@ABV0@@Z
        345  158 0007DFE0 ??0GPSClearWayPoint@@QAE@XZ
        346  159 000338F0 ??0GPSModeBig@@QAE@ABV0@@Z
        347  15A 0007DEE0 ??0GPSModeBig@@QAE@XZ
        348  15B 000339F0 ??0GPSModeSmall@@QAE@ABV0@@Z
        349  15C 0007DF20 ??0GPSModeSmall@@QAE@XZ
        350  15D 000335F0 ??0GPSMoveDown@@QAE@ABV0@@Z
        351  15E 0007DE20 ??0GPSMoveDown@@QAE@XZ
        352  15F 000332F0 ??0GPSMoveLeft@@QAE@ABV0@@Z
        353  160 0007DD60 ??0GPSMoveLeft@@QAE@XZ
        354  161 000333F0 ??0GPSMoveRight@@QAE@ABV0@@Z
        355  162 0007DDA0 ??0GPSMoveRight@@QAE@XZ
        356  163 000334F0 ??0GPSMoveUp@@QAE@ABV0@@Z
        357  164 0007DDE0 ??0GPSMoveUp@@QAE@XZ
        358  165 00033BF0 ??0GPSNextWayPoint@@QAE@ABV0@@Z
        359  166 0007DFA0 ??0GPSNextWayPoint@@QAE@XZ
        360  167 000336F0 ??0GPSRaiseLower@@QAE@ABV0@@Z
        361  168 0007DE60 ??0GPSRaiseLower@@QAE@XZ
        362  169 00033AF0 ??0GPSSetWayPoint@@QAE@ABV0@@Z
        363  16A 0007DF60 ??0GPSSetWayPoint@@QAE@XZ
        364  16B 000337F0 ??0GPSSwitchModes@@QAE@ABV0@@Z
        365  16C 0007DEA0 ??0GPSSwitchModes@@QAE@XZ
        366  16D 000330F0 ??0GPSZoomIn@@QAE@ABV0@@Z
        367  16E 0007DCE0 ??0GPSZoomIn@@QAE@XZ
        368  16F 000331F0 ??0GPSZoomOut@@QAE@ABV0@@Z
        369  170 0007DD20 ??0GPSZoomOut@@QAE@XZ
        370  171 0000AB60 ??0PlayerAnimState@@QAE@XZ
        371  172 0000AB20 ??0PlayerStats@@QAE@XZ
        372  173 0000AE20 ??1CCompMessageID@@QAE@XZ
        373  174 00014490 ??1CEnemyBase@@UAE@XZ
        374  175 00069E30 ??1CEnemyDive@@UAE@XZ
        375  176 0006AEE0 ??1CEnemyFly@@UAE@XZ
        376  177 0006D4E0 ??1CEnemyRunInto@@UAE@XZ
        377  178 00024EF0 ??1CNavigationMarker@@UAE@XZ
        378  179 000114D0 ??1CPlayer@@UAE@XZ
        379  17A 000A67A0 ??1CPlayerView@@UAE@XZ
        380  17B 000A8440 ??1CPulser@@UAE@XZ
        381  17C 0000B260 ??1CReminder@@UAE@XZ
        382  17D 00012760 ??1CWatcher@@UAE@XZ
        383  17E 000728B0 ??1EAIEnterScrapePointHit@@UAE@XZ
        384  17F 000729B0 ??1EAIExitScrapePointHit@@UAE@XZ
        385  180 000259C0 ??1EAIMoveFinished@@UAE@XZ
        386  181 00025AC0 ??1EAIMovePointHit@@UAE@XZ
        387  182 00034C50 ??1EATVClicked@@UAE@XZ
        388  183 00034E90 ??1EATVLoadOnTruck@@UAE@XZ
        389  184 00034920 ??1EATVStart@@UAE@XZ
        390  185 00034B20 ??1EATVStop@@UAE@XZ
        391  186 00035100 ??1EATVUnloadOffTruck@@UAE@XZ
        392  187 000081F0 ??1EActivate@@UAE@XZ
        393  188 000158A0 ??1EAimLeft@@UAE@XZ
        394  189 000159A0 ??1EAimRight@@UAE@XZ
        395  18A 0000CCF0 ??1EAnimalClaimed@@UAE@XZ
        396  18B 000251A0 ??1EAnimalInit@@UAE@XZ
        397  18C 000A70E0 ??1EAnimatorInit@@UAE@XZ
        398  18D 0000C750 ??1EAutoAction@@UAE@XZ
        399  18E 00048080 ??1EBoatClicked@@UAE@XZ
        400  18F 00047D50 ??1EBoatStart@@UAE@XZ
        401  190 00047F50 ??1EBoatStop@@UAE@XZ
        402  191 00056D10 ??1EBrushDestroyed@@UAE@XZ
        403  192 00071420 ??1EBuckVitalShot@@UAE@XZ
        404  193 0003E290 ??1ECallMade@@UAE@XZ
        405  194 00071B20 ??1ECalledBuck@@UAE@XZ
        406  195 00071A00 ??1ECalledDoe@@UAE@XZ
        407  196 0000C0F0 ??1ECameraStart@@UAE@XZ
        408  197 0000C320 ??1ECameraStop@@UAE@XZ
        409  198 00009610 ??1ECenterMessage@@UAE@XZ
        410  199 0000A5C0 ??1EChangeAnim@@UAE@XZ
        411  19A 00083560 ??1EChangeGravity@@UAE@XZ
        412  19B 00011EF0 ??1EChangeMusic@@UAE@XZ
        413  19C 00009D10 ??1EClicked@@UAE@XZ
        414  19D 00009830 ??1EComputerMessage@@UAE@XZ
        415  19E 00072FD0 ??1EDAAttracted@@UAE@XZ
        416  19F 00072CD0 ??1EDABed@@UAE@XZ
        417  1A0 00072BD0 ??1EDADrink@@UAE@XZ
        418  1A1 000732D0 ??1EDADying@@UAE@XZ
        419  1A2 00072AD0 ??1EDAEat@@UAE@XZ
        420  1A3 000733D0 ??1EDAFollowParent@@UAE@XZ
        421  1A4 000735D0 ??1EDAHeardCall@@UAE@XZ
        422  1A5 00072DD0 ??1EDAMarkTerritory@@UAE@XZ
        423  1A6 000734D0 ??1EDANothing@@UAE@XZ
        424  1A7 00072ED0 ??1EDASearchForDeer@@UAE@XZ
        425  1A8 000730D0 ??1EDASpooked@@UAE@XZ
        426  1A9 000731D0 ??1EDAWounded@@UAE@XZ
        427  1AA 000082F0 ??1EDeactivate@@UAE@XZ
        428  1AB 00044740 ??1EDecoyStart@@UAE@XZ
        429  1AC 00053180 ??1EDeerCallInit@@UAE@XZ
        430  1AD 00053490 ??1EDeerCallMade@@UAE@XZ
        431  1AE 00055910 ??1EDeerDecoyRecalled@@UAE@XZ
        432  1AF 000556E0 ??1EDeerDecoyStart@@UAE@XZ
        433  1B0 0000C620 ??1EDisconnected@@UAE@XZ
        434  1B1 00051D50 ??1EDoDecal@@UAE@XZ
        435  1B2 000726E0 ??1EDoDeerBloodTrack@@UAE@XZ
        436  1B3 00072450 ??1EDoDeerTrack@@UAE@XZ
        437  1B4 00071640 ??1EDoeVitalShot@@UAE@XZ
        438  1B5 000085F0 ??1EEnd@@UAE@XZ
        439  1B6 00052E10 ??1EEndCall@@UAE@XZ
        440  1B7 000A6950 ??1EEnteredLauncher@@UAE@XZ
        441  1B8 000083F0 ??1EEnvironmentStart@@UAE@XZ
        442  1B9 000084F0 ??1EEnvironmentStop@@UAE@XZ
        443  1BA 00014A60 ??1EFireGun@@UAE@XZ
        444  1BB 00013640 ??1EForceWound@@UAE@XZ
        445  1BC 00081950 ??1EGrasshopperParticlesInit@@UAE@XZ
        446  1BD 00014820 ??1EGunInit@@UAE@XZ
        447  1BE 00014F80 ??1EGunIsUp@@UAE@XZ
        448  1BF 00015080 ??1EGunNotUp@@UAE@XZ
        449  1C0 000E59C0 ??1EHarbor@@UAE@XZ
        450  1C1 00014E80 ??1EHeartbeat@@UAE@XZ
        451  1C2 00056C10 ??1EHit@@UAE@XZ
        452  1C3 00009BE0 ??1EHitBySpaceShipBeam@@UAE@XZ
        453  1C4 000A7330 ??1EInitStand@@UAE@XZ
        454  1C5 0000CAC0 ??1EKilledDeer@@UAE@XZ
        455  1C6 00009060 ??1EKilledEnemy@@UAE@XZ
        456  1C7 000853D0 ??1ELAAmbient@@UAE@XZ
        457  1C8 000854D0 ??1ELAFlee@@UAE@XZ
        458  1C9 000855D0 ??1ELASleep@@UAE@XZ
        459  1CA 000A6B80 ??1ELaunchSkeet@@UAE@XZ
        460  1CB 000A6DB0 ??1ELaunchTrap@@UAE@XZ
        461  1CC 00014C70 ??1ELowerGun@@UAE@XZ
        462  1CD 00013220 ??1EMemberNotify@@UAE@XZ
        463  1CE 0000D520 ??1EMessage@@UAE@XZ
        464  1CF 000153A0 ??1EPin1Down@@UAE@XZ
        465  1D0 000152A0 ??1EPin1Up@@UAE@XZ
        466  1D1 000155A0 ??1EPin2Down@@UAE@XZ
        467  1D2 000154A0 ??1EPin2Up@@UAE@XZ
        468  1D3 000157A0 ??1EPin3Down@@UAE@XZ
        469  1D4 000156A0 ??1EPin3Up@@UAE@XZ
        470  1D5 0000D060 ??1EPlayerFired@@UAE@XZ
        471  1D6 0000CF20 ??1EProfileScore@@UAE@XZ
        472  1D7 00012DD0 ??1EProjectileHit@@UAE@XZ
        473  1D8 00013080 ??1EProjectileInit@@UAE@XZ
        474  1D9 000A8100 ??1EPulse@@UAE@XZ
        475  1DA 000257B0 ??1EPulseAnimation@@UAE@XZ
        476  1DB 000258B0 ??1EPulseMover@@UAE@XZ
        477  1DC 000A7EF0 ??1EPulserInit@@UAE@XZ
        478  1DD 000E0600 ??1ERAmbient@@UAE@XZ
        479  1DE 000E0700 ??1ERFlee@@UAE@XZ
        480  1DF 000E0800 ??1ERSleep@@UAE@XZ
        481  1E0 00014B60 ??1ERaiseGun@@UAE@XZ
        482  1E1 0000A420 ??1ERangeModelDestruction@@UAE@XZ
        483  1E2 0000C520 ??1ERebirth@@UAE@XZ
        484  1E3 00008F50 ??1EReceiveScore@@UAE@XZ
        485  1E4 00013540 ??1EReconsiderBehavior@@UAE@XZ
        486  1E5 000711E0 ??1ERecordBuckVitalShot@@UAE@XZ
        487  1E6 00014D80 ??1EReloadGun@@UAE@XZ
        488  1E7 00008A30 ??1EReminder@@UAE@XZ
        489  1E8 0000AEC0 ??1EReminderInit@@UAE@XZ
        490  1E9 00013440 ??1ERestartAttack@@UAE@XZ
        491  1EA 0000D180 ??1ERoundChange@@UAE@XZ
        492  1EB 000E78B0 ??1ESBAmbient@@UAE@XZ
        493  1EC 000E79B0 ??1ESBFlee@@UAE@XZ
        494  1ED 000E7AB0 ??1ESBSleep@@UAE@XZ
        495  1EE 000A7BC0 ??1ESGAmbient@@UAE@XZ
        496  1EF 000A7CC0 ??1ESGFlee@@UAE@XZ
        497  1F0 000A7DC0 ??1ESGSleep@@UAE@XZ
        498  1F1 00009160 ??1ESecretFound@@UAE@XZ
        499  1F2 00053020 ??1ESetCall@@UAE@XZ
        500  1F3 00015190 ??1ESetGunFireOffset@@UAE@XZ
        501  1F4 00012A20 ??1EShotPenalty@@UAE@XZ
        502  1F5 0000C960 ??1ESlideTreeStand@@UAE@XZ
        503  1F6 00009390 ??1ESound@@UAE@XZ
        504  1F7 0000AA20 ??1ESpawnDebris@@UAE@XZ
        505  1F8 0000A830 ??1ESpawnEffect@@UAE@XZ
        506  1F9 00056950 ??1ESpawnEffector@@UAE@XZ
        507  1FA 0000A200 ??1ESpawnSpray@@UAE@XZ
        508  1FB 00072260 ??1EStalkedBuck@@UAE@XZ
        509  1FC 00072140 ??1EStalkedDoe@@UAE@XZ
        510  1FD 00007FF0 ??1EStart@@UAE@XZ
        511  1FE 00008B40 ??1EStartAttack@@UAE@XZ
        512  1FF 00052D10 ??1EStartCall@@UAE@XZ
        513  200 00007EC0 ??1EStop@@UAE@XZ
        514  201 00008C40 ??1EStopAttack@@UAE@XZ
        515  202 00008D40 ??1EStopBlindness@@UAE@XZ
        516  203 00008E40 ??1EStopDeafness@@UAE@XZ
        517  204 000A6FB0 ??1EStrength@@UAE@XZ
        518  205 000A8610 ??1ESurroundParticleSystemInit@@UAE@XZ
        519  206 00071850 ??1ETargetBullsEye@@UAE@XZ
        520  207 00008920 ??1ETeleportMovingBrush@@UAE@XZ
        521  208 000256B0 ??1EThink@@UAE@XZ
        522  209 000254A0 ??1EThinkerInit@@UAE@XZ
        523  20A 0000BEC0 ??1ETimeDelayed@@UAE@XZ
        524  20B 00072030 ??1ETrackedBloodTrail@@UAE@XZ
        525  20C 00071E90 ??1ETrackedBuckTrack@@UAE@XZ
        526  20D 00071C90 ??1ETrackedDoeTrack@@UAE@XZ
        527  20E 00008720 ??1ETrigger@@UAE@XZ
        528  20F 000344B0 ??1ETruckClicked@@UAE@XZ
        529  210 00034280 ??1ETruckFirstPersonView@@UAE@XZ
        530  211 000346E0 ??1ETruckLoadATV@@UAE@XZ
        531  212 00033F80 ??1ETruckStart@@UAE@XZ
        532  213 00034180 ??1ETruckStop@@UAE@XZ
        533  214 00034380 ??1ETruckThirdPersonView@@UAE@XZ
        534  215 00009F60 ??1EUseCall@@UAE@XZ
        535  216 00052F10 ??1EUseNextCall@@UAE@XZ
        536  217 000A5BB0 ??1EViewInit@@UAE@XZ
        537  218 00009A40 ??1EVoiceMessage@@UAE@XZ
        538  219 00012300 ??1EWatch@@UAE@XZ
        539  21A 000120D0 ??1EWatcherInit@@UAE@XZ
        540  21B 000D6510 ??1EWeaponEffectInit@@UAE@XZ
        541  21C 0000D2B0 ??1EWorldClick@@UAE@XZ
        542  21D 00033E30 ??1GPSCenterView@@UAE@XZ
        543  21E 00033D30 ??1GPSClearWayPoint@@UAE@XZ
        544  21F 00033930 ??1GPSModeBig@@UAE@XZ
        545  220 00033A30 ??1GPSModeSmall@@UAE@XZ
        546  221 00033630 ??1GPSMoveDown@@UAE@XZ
        547  222 00033330 ??1GPSMoveLeft@@UAE@XZ
        548  223 00033430 ??1GPSMoveRight@@UAE@XZ
        549  224 00033530 ??1GPSMoveUp@@UAE@XZ
        550  225 00033C30 ??1GPSNextWayPoint@@UAE@XZ
        551  226 00033730 ??1GPSRaiseLower@@UAE@XZ
        552  227 00033B30 ??1GPSSetWayPoint@@UAE@XZ
        553  228 00033830 ??1GPSSwitchModes@@UAE@XZ
        554  229 00033130 ??1GPSZoomIn@@UAE@XZ
        555  22A 00033230 ??1GPSZoomOut@@UAE@XZ
        556  22B 0000ADD0 ??4CCompMessageID@@QAEAAV0@ABV0@@Z
        557  22C 00013D80 ??4CEnemyBase@@QAEAAV0@AAV0@@Z
        558  22D 00069D60 ??4CEnemyDive@@QAEAAV0@AAV0@@Z
        559  22E 0006ADB0 ??4CEnemyFly@@QAEAAV0@AAV0@@Z
        560  22F 0006D460 ??4CEnemyRunInto@@QAEAAV0@AAV0@@Z
        561  230 00024CE0 ??4CNavigationMarker@@QAEAAV0@AAV0@@Z
        562  231 0009A250 ??4CPathNode@@QAEAAV0@ABV0@@Z
        563  232 0000F8C0 ??4CPlayer@@QAEAAV0@AAV0@@Z
        564  233 000A62E0 ??4CPlayerView@@QAEAAV0@AAV0@@Z
        565  234 000A8320 ??4CPulser@@QAEAAV0@AAV0@@Z
        566  235 0000B150 ??4CReminder@@QAEAAV0@AAV0@@Z
        567  236 00012610 ??4CWatcher@@QAEAAV0@AAV0@@Z
        568  237 00072890 ??4EAIEnterScrapePointHit@@QAEAAV0@ABV0@@Z
        569  238 00072990 ??4EAIExitScrapePointHit@@QAEAAV0@ABV0@@Z
        570  239 000259A0 ??4EAIMoveFinished@@QAEAAV0@ABV0@@Z
        571  23A 00025AA0 ??4EAIMovePointHit@@QAEAAV0@ABV0@@Z
        572  23B 00034C10 ??4EATVClicked@@QAEAAV0@ABV0@@Z
        573  23C 00034E50 ??4EATVLoadOnTruck@@QAEAAV0@ABV0@@Z
        574  23D 000348E0 ??4EATVStart@@QAEAAV0@ABV0@@Z
        575  23E 00034B00 ??4EATVStop@@QAEAAV0@ABV0@@Z
        576  23F 00035090 ??4EATVUnloadOffTruck@@QAEAAV0@ABV0@@Z
        577  240 000081D0 ??4EActivate@@QAEAAV0@ABV0@@Z
        578  241 00015880 ??4EAimLeft@@QAEAAV0@ABV0@@Z
        579  242 00015980 ??4EAimRight@@QAEAAV0@ABV0@@Z
        580  243 0000CCB0 ??4EAnimalClaimed@@QAEAAV0@ABV0@@Z
        581  244 00025100 ??4EAnimalInit@@QAEAAV0@ABV0@@Z
        582  245 000A70A0 ??4EAnimatorInit@@QAEAAV0@ABV0@@Z
        583  246 0000C710 ??4EAutoAction@@QAEAAV0@ABV0@@Z
        584  247 00048040 ??4EBoatClicked@@QAEAAV0@ABV0@@Z
        585  248 00047D10 ??4EBoatStart@@QAEAAV0@ABV0@@Z
        586  249 00047F30 ??4EBoatStop@@QAEAAV0@ABV0@@Z
        587  24A 00056CF0 ??4EBrushDestroyed@@QAEAAV0@ABV0@@Z
        588  24B 000713D0 ??4EBuckVitalShot@@QAEAAV0@ABV0@@Z
        589  24C 0003E200 ??4ECallMade@@QAEAAV0@ABV0@@Z
        590  24D 00071B00 ??4ECalledBuck@@QAEAAV0@ABV0@@Z
        591  24E 000719E0 ??4ECalledDoe@@QAEAAV0@ABV0@@Z
        592  24F 0000C0B0 ??4ECameraStart@@QAEAAV0@ABV0@@Z
        593  250 0000C2E0 ??4ECameraStop@@QAEAAV0@ABV0@@Z
        594  251 000095C0 ??4ECenterMessage@@QAEAAV0@ABV0@@Z
        595  252 0000A570 ??4EChangeAnim@@QAEAAV0@ABV0@@Z
        596  253 00083520 ??4EChangeGravity@@QAEAAV0@ABV0@@Z
        597  254 00011EA0 ??4EChangeMusic@@QAEAAV0@ABV0@@Z
        598  255 00009CD0 ??4EClicked@@QAEAAV0@ABV0@@Z
        599  256 000097F0 ??4EComputerMessage@@QAEAAV0@ABV0@@Z
        600  257 00072FB0 ??4EDAAttracted@@QAEAAV0@ABV0@@Z
        601  258 00072CB0 ??4EDABed@@QAEAAV0@ABV0@@Z
        602  259 00072BB0 ??4EDADrink@@QAEAAV0@ABV0@@Z
        603  25A 000732B0 ??4EDADying@@QAEAAV0@ABV0@@Z
        604  25B 00072AB0 ??4EDAEat@@QAEAAV0@ABV0@@Z
        605  25C 000733B0 ??4EDAFollowParent@@QAEAAV0@ABV0@@Z
        606  25D 000735B0 ??4EDAHeardCall@@QAEAAV0@ABV0@@Z
        607  25E 00072DB0 ??4EDAMarkTerritory@@QAEAAV0@ABV0@@Z
        608  25F 000734B0 ??4EDANothing@@QAEAAV0@ABV0@@Z
        609  260 00072EB0 ??4EDASearchForDeer@@QAEAAV0@ABV0@@Z
        610  261 000730B0 ??4EDASpooked@@QAEAAV0@ABV0@@Z
        611  262 000731B0 ??4EDAWounded@@QAEAAV0@ABV0@@Z
        612  263 000082D0 ??4EDeactivate@@QAEAAV0@ABV0@@Z
        613  264 000446E0 ??4EDecoyStart@@QAEAAV0@ABV0@@Z
        614  265 00053130 ??4EDeerCallInit@@QAEAAV0@ABV0@@Z
        615  266 000533E0 ??4EDeerCallMade@@QAEAAV0@ABV0@@Z
        616  267 000558D0 ??4EDeerDecoyRecalled@@QAEAAV0@ABV0@@Z
        617  268 00055690 ??4EDeerDecoyStart@@QAEAAV0@ABV0@@Z
        618  269 0000C600 ??4EDisconnected@@QAEAAV0@ABV0@@Z
        619  26A 00051CE0 ??4EDoDecal@@QAEAAV0@ABV0@@Z
        620  26B 00072670 ??4EDoDeerBloodTrack@@QAEAAV0@ABV0@@Z
        621  26C 000723E0 ??4EDoDeerTrack@@QAEAAV0@ABV0@@Z
        622  26D 00071600 ??4EDoeVitalShot@@QAEAAV0@ABV0@@Z
        623  26E 000085D0 ??4EEnd@@QAEAAV0@ABV0@@Z
        624  26F 00052DF0 ??4EEndCall@@QAEAAV0@ABV0@@Z
        625  270 000A6910 ??4EEnteredLauncher@@QAEAAV0@ABV0@@Z
        626  271 000083D0 ??4EEnvironmentStart@@QAEAAV0@ABV0@@Z
        627  272 000084D0 ??4EEnvironmentStop@@QAEAAV0@ABV0@@Z
        628  273 00014A40 ??4EFireGun@@QAEAAV0@ABV0@@Z
        629  274 00013620 ??4EForceWound@@QAEAAV0@ABV0@@Z
        630  275 00081900 ??4EGrasshopperParticlesInit@@QAEAAV0@ABV0@@Z
        631  276 000147B0 ??4EGunInit@@QAEAAV0@ABV0@@Z
        632  277 00014F60 ??4EGunIsUp@@QAEAAV0@ABV0@@Z
        633  278 00015060 ??4EGunNotUp@@QAEAAV0@ABV0@@Z
        634  279 000E59A0 ??4EHarbor@@QAEAAV0@ABV0@@Z
        635  27A 00014E60 ??4EHeartbeat@@QAEAAV0@ABV0@@Z
        636  27B 00056BF0 ??4EHit@@QAEAAV0@ABV0@@Z
        637  27C 00009BC0 ??4EHitBySpaceShipBeam@@QAEAAV0@ABV0@@Z
        638  27D 000A72E0 ??4EInitStand@@QAEAAV0@ABV0@@Z
        639  27E 0000CA70 ??4EKilledDeer@@QAEAAV0@ABV0@@Z
        640  27F 00009040 ??4EKilledEnemy@@QAEAAV0@ABV0@@Z
        641  280 000853B0 ??4ELAAmbient@@QAEAAV0@ABV0@@Z
        642  281 000854B0 ??4ELAFlee@@QAEAAV0@ABV0@@Z
        643  282 000855B0 ??4ELASleep@@QAEAAV0@ABV0@@Z
        644  283 000A6B40 ??4ELaunchSkeet@@QAEAAV0@ABV0@@Z
        645  284 000A6D70 ??4ELaunchTrap@@QAEAAV0@ABV0@@Z
        646  285 00014C50 ??4ELowerGun@@QAEAAV0@ABV0@@Z
        647  286 000131B0 ??4EMemberNotify@@QAEAAV0@ABV0@@Z
        648  287 0000D4E0 ??4EMessage@@QAEAAV0@ABV0@@Z
        649  288 00015380 ??4EPin1Down@@QAEAAV0@ABV0@@Z
        650  289 00015280 ??4EPin1Up@@QAEAAV0@ABV0@@Z
        651  28A 00015580 ??4EPin2Down@@QAEAAV0@ABV0@@Z
        652  28B 00015480 ??4EPin2Up@@QAEAAV0@ABV0@@Z
        653  28C 00015780 ??4EPin3Down@@QAEAAV0@ABV0@@Z
        654  28D 00015680 ??4EPin3Up@@QAEAAV0@ABV0@@Z
        655  28E 0000D030 ??4EPlayerFired@@QAEAAV0@ABV0@@Z
        656  28F 0000CEF0 ??4EProfileScore@@QAEAAV0@ABV0@@Z
        657  290 00012D10 ??4EProjectileHit@@QAEAAV0@ABV0@@Z
        658  291 00013060 ??4EProjectileInit@@QAEAAV0@ABV0@@Z
        659  292 000A80E0 ??4EPulse@@QAEAAV0@ABV0@@Z
        660  293 00025790 ??4EPulseAnimation@@QAEAAV0@ABV0@@Z
        661  294 00025890 ??4EPulseMover@@QAEAAV0@ABV0@@Z
        662  295 000A7EB0 ??4EPulserInit@@QAEAAV0@ABV0@@Z
        663  296 000E05E0 ??4ERAmbient@@QAEAAV0@ABV0@@Z
        664  297 000E06E0 ??4ERFlee@@QAEAAV0@ABV0@@Z
        665  298 000E07E0 ??4ERSleep@@QAEAAV0@ABV0@@Z
        666  299 00014B40 ??4ERaiseGun@@QAEAAV0@ABV0@@Z
        667  29A 0000A400 ??4ERangeModelDestruction@@QAEAAV0@ABV0@@Z
        668  29B 0000C500 ??4ERebirth@@QAEAAV0@ABV0@@Z
        669  29C 00008F30 ??4EReceiveScore@@QAEAAV0@ABV0@@Z
        670  29D 00013520 ??4EReconsiderBehavior@@QAEAAV0@ABV0@@Z
        671  29E 00071190 ??4ERecordBuckVitalShot@@QAEAAV0@ABV0@@Z
        672  29F 00014D60 ??4EReloadGun@@QAEAAV0@ABV0@@Z
        673  2A0 00008A10 ??4EReminder@@QAEAAV0@ABV0@@Z
        674  2A1 0000AE70 ??4EReminderInit@@QAEAAV0@ABV0@@Z
        675  2A2 00013420 ??4ERestartAttack@@QAEAAV0@ABV0@@Z
        676  2A3 0000D160 ??4ERoundChange@@QAEAAV0@ABV0@@Z
        677  2A4 000E7890 ??4ESBAmbient@@QAEAAV0@ABV0@@Z
        678  2A5 000E7990 ??4ESBFlee@@QAEAAV0@ABV0@@Z
        679  2A6 000E7A90 ??4ESBSleep@@QAEAAV0@ABV0@@Z
        680  2A7 000A7BA0 ??4ESGAmbient@@QAEAAV0@ABV0@@Z
        681  2A8 000A7CA0 ??4ESGFlee@@QAEAAV0@ABV0@@Z
        682  2A9 000A7DA0 ??4ESGSleep@@QAEAAV0@ABV0@@Z
        683  2AA 00009140 ??4ESecretFound@@QAEAAV0@ABV0@@Z
        684  2AB 00053000 ??4ESetCall@@QAEAAV0@ABV0@@Z
        685  2AC 00015170 ??4ESetGunFireOffset@@QAEAAV0@ABV0@@Z
        686  2AD 00012990 ??4EShotPenalty@@QAEAAV0@ABV0@@Z
        687  2AE 0000C940 ??4ESlideTreeStand@@QAEAAV0@ABV0@@Z
        688  2AF 00009340 ??4ESound@@QAEAAV0@ABV0@@Z
        689  2B0 0000A9C0 ??4ESpawnDebris@@QAEAAV0@ABV0@@Z
        690  2B1 0000A7C0 ??4ESpawnEffect@@QAEAAV0@ABV0@@Z
        691  2B2 000568A0 ??4ESpawnEffector@@QAEAAV0@ABV0@@Z
        692  2B3 0000A190 ??4ESpawnSpray@@QAEAAV0@ABV0@@Z
        693  2B4 00072240 ??4EStalkedBuck@@QAEAAV0@ABV0@@Z
        694  2B5 00072120 ??4EStalkedDoe@@QAEAAV0@ABV0@@Z
        695  2B6 00007FB0 ??4EStart@@QAEAAV0@ABV0@@Z
        696  2B7 00008B20 ??4EStartAttack@@QAEAAV0@ABV0@@Z
        697  2B8 00052CF0 ??4EStartCall@@QAEAAV0@ABV0@@Z
        698  2B9 00007EA0 ??4EStop@@QAEAAV0@ABV0@@Z
        699  2BA 00008C20 ??4EStopAttack@@QAEAAV0@ABV0@@Z
        700  2BB 00008D20 ??4EStopBlindness@@QAEAAV0@ABV0@@Z
        701  2BC 00008E20 ??4EStopDeafness@@QAEAAV0@ABV0@@Z
        702  2BD 000A6F90 ??4EStrength@@QAEAAV0@ABV0@@Z
        703  2BE 000A85D0 ??4ESurroundParticleSystemInit@@QAEAAV0@ABV0@@Z
        704  2BF 00071810 ??4ETargetBullsEye@@QAEAAV0@ABV0@@Z
        705  2C0 00008900 ??4ETeleportMovingBrush@@QAEAAV0@ABV0@@Z
        706  2C1 00025690 ??4EThink@@QAEAAV0@ABV0@@Z
        707  2C2 00025440 ??4EThinkerInit@@QAEAAV0@ABV0@@Z
        708  2C3 0000BE80 ??4ETimeDelayed@@QAEAAV0@ABV0@@Z
        709  2C4 00072010 ??4ETrackedBloodTrail@@QAEAAV0@ABV0@@Z
        710  2C5 00071E50 ??4ETrackedBuckTrack@@QAEAAV0@ABV0@@Z
        711  2C6 00071C50 ??4ETrackedDoeTrack@@QAEAAV0@ABV0@@Z
        712  2C7 000086E0 ??4ETrigger@@QAEAAV0@ABV0@@Z
        713  2C8 00034470 ??4ETruckClicked@@QAEAAV0@ABV0@@Z
        714  2C9 00034260 ??4ETruckFirstPersonView@@QAEAAV0@ABV0@@Z
        715  2CA 000346A0 ??4ETruckLoadATV@@QAEAAV0@ABV0@@Z
        716  2CB 00033F40 ??4ETruckStart@@QAEAAV0@ABV0@@Z
        717  2CC 00034160 ??4ETruckStop@@QAEAAV0@ABV0@@Z
        718  2CD 00034360 ??4ETruckThirdPersonView@@QAEAAV0@ABV0@@Z
        719  2CE 00009F10 ??4EUseCall@@QAEAAV0@ABV0@@Z
        720  2CF 00052EF0 ??4EUseNextCall@@QAEAAV0@ABV0@@Z
        721  2D0 000A5B30 ??4EViewInit@@QAEAAV0@ABV0@@Z
        722  2D1 00009A00 ??4EVoiceMessage@@QAEAAV0@ABV0@@Z
        723  2D2 000122C0 ??4EWatch@@QAEAAV0@ABV0@@Z
        724  2D3 00012090 ??4EWatcherInit@@QAEAAV0@ABV0@@Z
        725  2D4 000D64C0 ??4EWeaponEffectInit@@QAEAAV0@ABV0@@Z
        726  2D5 0000D270 ??4EWorldClick@@QAEAAV0@ABV0@@Z
        727  2D6 00033E10 ??4GPSCenterView@@QAEAAV0@ABV0@@Z
        728  2D7 00033D10 ??4GPSClearWayPoint@@QAEAAV0@ABV0@@Z
        729  2D8 00033910 ??4GPSModeBig@@QAEAAV0@ABV0@@Z
        730  2D9 00033A10 ??4GPSModeSmall@@QAEAAV0@ABV0@@Z
        731  2DA 00033610 ??4GPSMoveDown@@QAEAAV0@ABV0@@Z
        732  2DB 00033310 ??4GPSMoveLeft@@QAEAAV0@ABV0@@Z
        733  2DC 00033410 ??4GPSMoveRight@@QAEAAV0@ABV0@@Z
        734  2DD 00033510 ??4GPSMoveUp@@QAEAAV0@ABV0@@Z
        735  2DE 00033C10 ??4GPSNextWayPoint@@QAEAAV0@ABV0@@Z
        736  2DF 00033710 ??4GPSRaiseLower@@QAEAAV0@ABV0@@Z
        737  2E0 00033B10 ??4GPSSetWayPoint@@QAEAAV0@ABV0@@Z
        738  2E1 00033810 ??4GPSSwitchModes@@QAEAAV0@ABV0@@Z
        739  2E2 00033110 ??4GPSZoomIn@@QAEAAV0@ABV0@@Z
        740  2E3 00033210 ??4GPSZoomOut@@QAEAAV0@ABV0@@Z
        741  2E4 0000AD40 ??4PlayerAnimState@@QAEAAU0@ABU0@@Z
        742  2E5 0000AB40 ??4PlayerStats@@QAEAAU0@ABU0@@Z
        743  2E6 0018B13C ??_7CEnemyBase@@6B@
        744  2E7 0018F1E4 ??_7CEnemyDive@@6B@
        745  2E8 0018F3C8 ??_7CEnemyFly@@6B@
        746  2E9 0018F6E8 ??_7CEnemyRunInto@@6B@
        747  2EA 0018B67C ??_7CNavigationMarker@@6B@
        748  2EB 0018AE44 ??_7CPlayer@@6B@
        749  2EC 00192724 ??_7CPlayerView@@6B@
        750  2ED 001928C8 ??_7CPulser@@6B@
        751  2EE 0018AC88 ??_7CReminder@@6B@
        752  2EF 0018AFBC ??_7CWatcher@@6B@
        753  2F0 0018FA84 ??_7EAIEnterScrapePointHit@@6B@
        754  2F1 0018FA8C ??_7EAIExitScrapePointHit@@6B@
        755  2F2 0018B7D8 ??_7EAIMoveFinished@@6B@
        756  2F3 0018B7E0 ??_7EAIMovePointHit@@6B@
        757  2F4 0018C254 ??_7EATVClicked@@6B@
        758  2F5 0018C25C ??_7EATVLoadOnTruck@@6B@
        759  2F6 0018C244 ??_7EATVStart@@6B@
        760  2F7 0018C24C ??_7EATVStop@@6B@
        761  2F8 0018C264 ??_7EATVUnloadOffTruck@@6B@
        762  2F9 0018ABA8 ??_7EActivate@@6B@
        763  2FA 0018B38C ??_7EAimLeft@@6B@
        764  2FB 0018B394 ??_7EAimRight@@6B@
        765  2FC 0018AE14 ??_7EAnimalClaimed@@6B@
        766  2FD 0018B7B0 ??_7EAnimalInit@@6B@
        767  2FE 00192890 ??_7EAnimatorInit@@6B@
        768  2FF 0018ADFC ??_7EAutoAction@@6B@
        769  300 0018D89C ??_7EBoatClicked@@6B@
        770  301 0018D88C ??_7EBoatStart@@6B@
        771  302 0018D894 ??_7EBoatStop@@6B@
        772  303 0018E89C ??_7EBrushDestroyed@@6B@
        773  304 0018FA24 ??_7EBuckVitalShot@@6B@
        774  305 0018C7AC ??_7ECallMade@@6B@
        775  306 0018FA44 ??_7ECalledBuck@@6B@
        776  307 0018FA3C ??_7ECalledDoe@@6B@
        777  308 0018ADDC ??_7ECameraStart@@6B@
        778  309 0018ADE4 ??_7ECameraStop@@6B@
        779  30A 0018AC28 ??_7ECenterMessage@@6B@
        780  30B 0018AC68 ??_7EChangeAnim@@6B@
        781  30C 00190BC4 ??_7EChangeGravity@@6B@
        782  30D 0018AFA4 ??_7EChangeMusic@@6B@
        783  30E 0018AC48 ??_7EClicked@@6B@
        784  30F 0018AC30 ??_7EComputerMessage@@6B@
        785  310 0018FABC ??_7EDAAttracted@@6B@
        786  311 0018FAA4 ??_7EDABed@@6B@
        787  312 0018FA9C ??_7EDADrink@@6B@
        788  313 0018FAD4 ??_7EDADying@@6B@
        789  314 0018FA94 ??_7EDAEat@@6B@
        790  315 0018FADC ??_7EDAFollowParent@@6B@
        791  316 0018FAEC ??_7EDAHeardCall@@6B@
        792  317 0018FAAC ??_7EDAMarkTerritory@@6B@
        793  318 0018FAE4 ??_7EDANothing@@6B@
        794  319 0018FAB4 ??_7EDASearchForDeer@@6B@
        795  31A 0018FAC4 ??_7EDASpooked@@6B@
        796  31B 0018FACC ??_7EDAWounded@@6B@
        797  31C 0018ABB0 ??_7EDeactivate@@6B@
        798  31D 0018D364 ??_7EDecoyStart@@6B@
        799  31E 0018E5D4 ??_7EDeerCallInit@@6B@
        800  31F 0018E5DC ??_7EDeerCallMade@@6B@
        801  320 0018E738 ??_7EDeerDecoyRecalled@@6B@
        802  321 0018E730 ??_7EDeerDecoyStart@@6B@
        803  322 0018ADF4 ??_7EDisconnected@@6B@
        804  323 0018E460 ??_7EDoDecal@@6B@
        805  324 0018FA7C ??_7EDoDeerBloodTrack@@6B@
        806  325 0018FA74 ??_7EDoDeerTrack@@6B@
        807  326 0018FA2C ??_7EDoeVitalShot@@6B@
        808  327 0018ABC8 ??_7EEnd@@6B@
        809  328 0018E5BC ??_7EEndCall@@6B@
        810  329 00192870 ??_7EEnteredLauncher@@6B@
        811  32A 0018ABB8 ??_7EEnvironmentStart@@6B@
        812  32B 0018ABC0 ??_7EEnvironmentStop@@6B@
        813  32C 0018B31C ??_7EFireGun@@6B@
        814  32D 0018B134 ??_7EForceWound@@6B@
        815  32E 00190A5C ??_7EGrasshopperParticlesInit@@6B@
        816  32F 0018B314 ??_7EGunInit@@6B@
        817  330 0018B344 ??_7EGunIsUp@@6B@
        818  331 0018B34C ??_7EGunNotUp@@6B@
        819  332 001936AC ??_7EHarbor@@6B@
        820  333 0018B33C ??_7EHeartbeat@@6B@
        821  334 0018E894 ??_7EHit@@6B@
        822  335 0018AC40 ??_7EHitBySpaceShipBeam@@6B@
        823  336 00192898 ??_7EInitStand@@6B@
        824  337 0018AE0C ??_7EKilledDeer@@6B@
        825  338 0018AC10 ??_7EKilledEnemy@@6B@
        826  339 00190F6C ??_7ELAAmbient@@6B@
        827  33A 00190F74 ??_7ELAFlee@@6B@
        828  33B 00190F7C ??_7ELASleep@@6B@
        829  33C 00192878 ??_7ELaunchSkeet@@6B@
        830  33D 00192880 ??_7ELaunchTrap@@6B@
        831  33E 0018B32C ??_7ELowerGun@@6B@
        832  33F 0018B11C ??_7EMemberNotify@@6B@
        833  340 0018AE3C ??_7EMessage@@6B@
        834  341 0018B364 ??_7EPin1Down@@6B@
        835  342 0018B35C ??_7EPin1Up@@6B@
        836  343 0018B374 ??_7EPin2Down@@6B@
        837  344 0018B36C ??_7EPin2Up@@6B@
        838  345 0018B384 ??_7EPin3Down@@6B@
        839  346 0018B37C ??_7EPin3Up@@6B@
        840  347 0018AE24 ??_7EPlayerFired@@6B@
        841  348 0018AE1C ??_7EProfileScore@@6B@
        842  349 0018B10C ??_7EProjectileHit@@6B@
        843  34A 0018B114 ??_7EProjectileInit@@6B@
        844  34B 001928C0 ??_7EPulse@@6B@
        845  34C 0018B7C8 ??_7EPulseAnimation@@6B@
        846  34D 0018B7D0 ??_7EPulseMover@@6B@
        847  34E 001928B8 ??_7EPulserInit@@6B@
        848  34F 0019339C ??_7ERAmbient@@6B@
        849  350 001933A4 ??_7ERFlee@@6B@
        850  351 001933AC ??_7ERSleep@@6B@
        851  352 0018B324 ??_7ERaiseGun@@6B@
        852  353 0018AC60 ??_7ERangeModelDestruction@@6B@
        853  354 0018ADEC ??_7ERebirth@@6B@
        854  355 0018AC08 ??_7EReceiveScore@@6B@
        855  356 0018B12C ??_7EReconsiderBehavior@@6B@
        856  357 0018FA1C ??_7ERecordBuckVitalShot@@6B@
        857  358 0018B334 ??_7EReloadGun@@6B@
        858  359 0018ABE0 ??_7EReminder@@6B@
        859  35A 0018AC80 ??_7EReminderInit@@6B@
        860  35B 0018B124 ??_7ERestartAttack@@6B@
        861  35C 0018AE2C ??_7ERoundChange@@6B@
        862  35D 00193938 ??_7ESBAmbient@@6B@
        863  35E 00193940 ??_7ESBFlee@@6B@
        864  35F 00193948 ??_7ESBSleep@@6B@
        865  360 001928A0 ??_7ESGAmbient@@6B@
        866  361 001928A8 ??_7ESGFlee@@6B@
        867  362 001928B0 ??_7ESGSleep@@6B@
        868  363 0018AC18 ??_7ESecretFound@@6B@
        869  364 0018E5CC ??_7ESetCall@@6B@
        870  365 0018B354 ??_7ESetGunFireOffset@@6B@
        871  366 0018B104 ??_7EShotPenalty@@6B@
        872  367 0018AE04 ??_7ESlideTreeStand@@6B@
        873  368 0018AC20 ??_7ESound@@6B@
        874  369 0018AC78 ??_7ESpawnDebris@@6B@
        875  36A 0018AC70 ??_7ESpawnEffect@@6B@
        876  36B 0018E88C ??_7ESpawnEffector@@6B@
        877  36C 0018AC58 ??_7ESpawnSpray@@6B@
        878  36D 0018FA6C ??_7EStalkedBuck@@6B@
        879  36E 0018FA64 ??_7EStalkedDoe@@6B@
        880  36F 0018ABA0 ??_7EStart@@6B@
        881  370 0018ABE8 ??_7EStartAttack@@6B@
        882  371 0018E5B4 ??_7EStartCall@@6B@
        883  372 0018AB98 ??_7EStop@@6B@
        884  373 0018ABF0 ??_7EStopAttack@@6B@
        885  374 0018ABF8 ??_7EStopBlindness@@6B@
        886  375 0018AC00 ??_7EStopDeafness@@6B@
        887  376 00192888 ??_7EStrength@@6B@
        888  377 00192A10 ??_7ESurroundParticleSystemInit@@6B@
        889  378 0018FA34 ??_7ETargetBullsEye@@6B@
        890  379 0018ABD8 ??_7ETeleportMovingBrush@@6B@
        891  37A 0018B7C0 ??_7EThink@@6B@
        892  37B 0018B7B8 ??_7EThinkerInit@@6B@
        893  37C 0018ADD4 ??_7ETimeDelayed@@6B@
        894  37D 0018FA5C ??_7ETrackedBloodTrail@@6B@
        895  37E 0018FA54 ??_7ETrackedBuckTrack@@6B@
        896  37F 0018FA4C ??_7ETrackedDoeTrack@@6B@
        897  380 0018ABD0 ??_7ETrigger@@6B@
        898  381 0018C234 ??_7ETruckClicked@@6B@
        899  382 0018C224 ??_7ETruckFirstPersonView@@6B@
        900  383 0018C23C ??_7ETruckLoadATV@@6B@
        901  384 0018C214 ??_7ETruckStart@@6B@
        902  385 0018C21C ??_7ETruckStop@@6B@
        903  386 0018C22C ??_7ETruckThirdPersonView@@6B@
        904  387 0018AC50 ??_7EUseCall@@6B@
        905  388 0018E5C4 ??_7EUseNextCall@@6B@
        906  389 0019271C ??_7EViewInit@@6B@
        907  38A 0018AC38 ??_7EVoiceMessage@@6B@
        908  38B 0018AFB4 ??_7EWatch@@6B@
        909  38C 0018AFAC ??_7EWatcherInit@@6B@
        910  38D 00192FB4 ??_7EWeaponEffectInit@@6B@
        911  38E 0018AE34 ??_7EWorldClick@@6B@
        912  38F 0018C20C ??_7GPSCenterView@@6B@
        913  390 0018C204 ??_7GPSClearWayPoint@@6B@
        914  391 0018C1E4 ??_7GPSModeBig@@6B@
        915  392 0018C1EC ??_7GPSModeSmall@@6B@
        916  393 0018C1CC ??_7GPSMoveDown@@6B@
        917  394 0018C1B4 ??_7GPSMoveLeft@@6B@
        918  395 0018C1BC ??_7GPSMoveRight@@6B@
        919  396 0018C1C4 ??_7GPSMoveUp@@6B@
        920  397 0018C1FC ??_7GPSNextWayPoint@@6B@
        921  398 0018C1D4 ??_7GPSRaiseLower@@6B@
        922  399 0018C1F4 ??_7GPSSetWayPoint@@6B@
        923  39A 0018C1DC ??_7GPSSwitchModes@@6B@
        924  39B 0018C1A4 ??_7GPSZoomIn@@6B@
        925  39C 0018C1AC ??_7GPSZoomOut@@6B@
        926  39D 001FDAC0 ?AHAnim_enum@@3VCEntityPropertyEnumType@@A
        927  39E 001FDAA8 ?AHAnim_values@@3PAVCEntityPropertyEnumValue@@A
        928  39F 001FDAA0 ?AHEffect_enum@@3VCEntityPropertyEnumType@@A
        929  3A0 001FDA98 ?AHEffect_values@@3PAVCEntityPropertyEnumValue@@A
        930  3A1 001E2DF8 ?AISpecies_enum@@3VCEntityPropertyEnumType@@A
        931  3A2 001E2DC0 ?AISpecies_values@@3PAVCEntityPropertyEnumValue@@A
        932  3A3 000C4B90 ?ATVPhysics@CPlayer@@QAEXXZ
        933  3A4 001E45D0 ?ATVWheelState_enum@@3VCEntityPropertyEnumType@@A
        934  3A5 001E45B8 ?ATVWheelState_values@@3PAVCEntityPropertyEnumValue@@A
        935  3A6 00068670 ?Active@CEnemyBase@@QAEHABVCEntityEvent@@@Z
        936  3A7 000DF960 ?Active@CPulser@@QAEHABVCEntityEvent@@@Z
        937  3A8 00118510 ?Active@CWatcher@@QAEHABVCEntityEvent@@@Z
        938  3A9 000BC240 ?ActiveActions@CPlayer@@QAEXABVCPlayerAction@@@Z
        939  3AA 000019E0 ?AddAttachmentToModel@@YAXPAVCEntity@@AAVCModelObject@@JKKKKK@Z
        940  3AB 00061ED0 ?AddDependentsToPrediction@CEnemyBase@@UAEXXZ
        941  3AC 000B3470 ?AddDependentsToPrediction@CPlayer@@UAEXXZ
        942  3AD 000D5870 ?AddDependentsToPrediction@CPlayerView@@UAEXXZ
        943  3AE 000629C0 ?AddToFuss@CEnemyBase@@QAEXXZ
        944  3AF 00064490 ?AdjustDifficulty@CEnemyBase@@UAEXXZ
        945  3B0 0006A580 ?AdjustDifficulty@CEnemyDive@@UAEXXZ
        946  3B1 0006B8B0 ?AdjustDifficulty@CEnemyFly@@UAEXXZ
        947  3B2 0006D9F0 ?AdjustDifficulty@CEnemyRunInto@@UAEXXZ
        948  3B3 000B0D40 ?AdjustShaderParams@CPlayer@@UAEXJPAVCShader@@AAUShaderParams@@JPAVCModelInstance@@@Z
        949  3B4 00062910 ?AdjustShadingParameters@CEnemyBase@@UAEHAAV?$Vector@M$02@@AAK1@Z
        950  3B5 000B5C50 ?AdjustShadingParameters@CPlayer@@UAEHAAV?$Vector@M$02@@AAK1@Z
        951  3B6 0006BEB0 ?AirToGround@CEnemyFly@@QAEHABVCEntityEvent@@@Z
        952  3B7 0006BB50 ?AirToGroundAnim@CEnemyFly@@UAEMXZ
        953  3B8 000BBBD0 ?AliveActions@CPlayer@@QAEXABVCPlayerAction@@@Z
        954  3B9 000646F0 ?AnimForDamage@CEnemyBase@@UAEJM@Z
        955  3BA 00064710 ?AnimForDeath@CEnemyBase@@UAEJXZ
        956  3BB 000B8B60 ?ApplyAction@CPlayer@@UAEXABVCPlayerAction@@M@Z
        957  3BC 000C4450 ?AttachGuns@CPlayer@@QAEXXZ
        958  3BD 000661C0 ?AttackEnemy@CEnemyBase@@QAEHABVCEntityEvent@@@Z
        959  3BE 0006C500 ?AttackEnemy@CEnemyFly@@QAEHABVCEntityEvent@@@Z
        960  3BF 000BBCD0 ?AutoActions@CPlayer@@QAEXABVCPlayerAction@@@Z
        961  3C0 0009B6D0 ?BSpline2@CNavigationMarker@@QAEXAAV?$Vector@M$02@@000M@Z
        962  3C1 0009B740 ?BSpline3@CNavigationMarker@@QAEXAAV?$Vector@M$02@@0000M@Z
        963  3C2 001E51B0 ?BasicEffectType_enum@@3VCEntityPropertyEnumType@@A
        964  3C3 001E5168 ?BasicEffectType_values@@3PAVCEntityPropertyEnumValue@@A
        965  3C4 000651E0 ?BeIdle@CEnemyBase@@QAEHABVCEntityEvent@@@Z
        966  3C5 00067B10 ?BeWounded@CEnemyBase@@QAEHABVCEntityEvent@@@Z
        967  3C6 0006BBF0 ?BeWounded@CEnemyFly@@QAEHABVCEntityEvent@@@Z
        968  3C7 001E7498 ?BlendControllerType_enum@@3VCEntityPropertyEnumType@@A
        969  3C8 001E7460 ?BlendControllerType_values@@3PAVCEntityPropertyEnumValue@@A
        970  3C9 001E7640 ?BlindType_enum@@3VCEntityPropertyEnumType@@A
        971  3CA 001E7628 ?BlindType_values@@3PAVCEntityPropertyEnumValue@@A
        972  3CB 001EF658 ?BlockAction_enum@@3VCEntityPropertyEnumType@@A
        973  3CC 001EF640 ?BlockAction_values@@3PAVCEntityPropertyEnumValue@@A
        974  3CD 00064470 ?BlowUp@CEnemyBase@@UAEXXZ
        975  3CE 00064460 ?BlowUpBase@CEnemyBase@@QAEXXZ
        976  3CF 00064700 ?BlowUpNotify@CEnemyBase@@UAEXXZ
        977  3D0 001E7A58 ?BoatBlindState_enum@@3VCEntityPropertyEnumType@@A
        978  3D1 001E7A48 ?BoatBlindState_values@@3PAVCEntityPropertyEnumValue@@A
        979  3D2 000C4C10 ?BoatPhysics@CPlayer@@QAEXXZ
        980  3D3 001ECAC0 ?BoolEType_enum@@3VCEntityPropertyEnumType@@A
        981  3D4 001ECAA8 ?BoolEType_values@@3PAVCEntityPropertyEnumValue@@A
        982  3D5 000BEE60 ?ButtonsActions@CPlayer@@QAEXAAVCPlayerAction@@@Z
        983  3D6 00060F50 ?CalcDelta@CEnemyBase@@QAE?AV?$Vector@M$02@@PAVCEntity@@@Z
        984  3D7 00060FB0 ?CalcDist@CEnemyBase@@QAEMPAVCEntity@@@Z
        985  3D8 000633D0 ?CalcDistanceInPlaneToDestination@CEnemyBase@@QAEMXZ
        986  3D9 00061070 ?CalcPlaneDelta@CEnemyBase@@QAE?AV?$Vector@M$02@@PAVCEntity@@@Z
        987  3DA 00061140 ?CalcPlaneDist@CEnemyBase@@QAEMPAVCEntity@@@Z
        988  3DB 000617C0 ?CalculateAngularLaunchParams@CEnemyBase@@QAEXV?$Vector@M$02@@M00MAAM1@Z
        989  3DC 00061AF0 ?CalculatePredictedPosition@CEnemyBase@@QAE?AV?$Vector@M$02@@V2@0M0M@Z
        990  3DD 00063710 ?CanAttackEnemy@CEnemyBase@@QAEHPAVCEntity@@M@Z
        991  3DE 000BDF40 ?CanCrouch@CPlayer@@QAEHXZ
        992  3DF 00063750 ?CanHitEnemy@CEnemyBase@@UAEHPAVCEntity@@M@Z
        993  3E0 0006A590 ?CanHitEnemy@CEnemyDive@@UAEHPAVCEntity@@M@Z
        994  3E1 0006B8C0 ?CanHitEnemy@CEnemyFly@@UAEHPAVCEntity@@M@Z
        995  3E2 000BDED0 ?CanLayDown@CPlayer@@QAEHXZ
        996  3E3 000BDE90 ?CanRaiseGun@CPlayer@@QAEHXZ
        997  3E4 000C4A40 ?ChangeAmmo@CPlayer@@QAEXJ@Z
        998  3E5 0006BB70 ?ChangeCollisionToAir@CEnemyFly@@UAEXXZ
        999  3E6 0006A900 ?ChangeCollisionToGround@CEnemyDive@@UAEXXZ
       1000  3E7 0006BB80 ?ChangeCollisionToGround@CEnemyFly@@UAEXXZ
       1001  3E8 0006A8F0 ?ChangeCollisionToLiquid@CEnemyDive@@UAEXXZ
       1002  3E9 000B8140 ?ChangePlayerView@CPlayer@@QAEXXZ
       1003  3EA 000BB4A0 ?CharacterChanged@CPlayer@@UAEXABVCPlayerCharacter@@@Z
       1004  3EB 000646E0 ?ChargeAnim@CEnemyBase@@UAEXXZ
       1005  3EC 00067670 ?ChargeHitEnemy@CEnemyBase@@QAEHABVCEntityEvent@@@Z
       1006  3ED 000C01D0 ?Cheats@CPlayer@@QAEXXZ
       1007  3EE 000C0190 ?CheatsEnabled@CPlayer@@QAEHXZ
       1008  3EF 00118390 ?CheckAnotherPlayer@CWatcher@@QAEPAVCEntity@@PAV2@@Z
       1009  3F0 00118210 ?CheckCloserPlayer@CWatcher@@QAEPAVCEntity@@PAV2@M@Z
       1010  3F1 000636B0 ?CheckFallForPathFinding@CEnemyBase@@QAEHABVEWouldFall@@@Z
       1011  3F2 000B8700 ?CheckGameEnd@CPlayer@@QAEXXZ
       1012  3F3 000B9CE0 ?CheckGround@CPlayer@@QAEPAVCEntity@@AAV?$Vector@M$02@@AAJ@Z
       1013  3F4 000B9EF0 ?CheckGroundFromPoint@CPlayer@@QAEPAVCEntity@@V?$Vector@M$02@@AAV3@AAJAAM@Z
       1014  3F5 00117F30 ?CheckIfPlayerVisible@CWatcher@@QAEXXZ
       1015  3F6 000B87F0 ?CheckRoundEnd@CPlayer@@QAEXXZ
       1016  3F7 00063580 ?CheckTouchForPathFinding@CEnemyBase@@QAEHABVETouch@@@Z
       1017  3F8 00061F00 ?ChecksumForSync@CEnemyBase@@UAEXAAKJ@Z
       1018  3F9 000B7DF0 ?ChecksumForSync@CPlayer@@UAEXAAKJ@Z
       1019  3FA 001FC4C0 ?ClasificationBits_enum@@3VCEntityPropertyEnumType@@A
       1020  3FB 001FC440 ?ClasificationBits_values@@3PAVCEntityPropertyEnumValue@@A
       1021  3FC 00001000 ?Clear@CCompMessageID@@QAEXXZ
       1022  3FD 0000AB80 ?Clear@PlayerAnimState@@QAEXXZ
       1023  3FE 000B2ED0 ?ClearShellLaunchData@CPlayer@@QAEXXZ
       1024  3FF 00072950 ?ClearToDefault@@YAXAAVEAIEnterScrapePointHit@@@Z
       1025  400 00072A50 ?ClearToDefault@@YAXAAVEAIExitScrapePointHit@@@Z
       1026  401 00025A60 ?ClearToDefault@@YAXAAVEAIMoveFinished@@@Z
       1027  402 00025B60 ?ClearToDefault@@YAXAAVEAIMovePointHit@@@Z
       1028  403 00034D70 ?ClearToDefault@@YAXAAVEATVClicked@@@Z
       1029  404 00034FB0 ?ClearToDefault@@YAXAAVEATVLoadOnTruck@@@Z
       1030  405 00034A40 ?ClearToDefault@@YAXAAVEATVStart@@@Z
       1031  406 00034BC0 ?ClearToDefault@@YAXAAVEATVStop@@@Z
       1032  407 00035230 ?ClearToDefault@@YAXAAVEATVUnloadOffTruck@@@Z
       1033  408 00008290 ?ClearToDefault@@YAXAAVEActivate@@@Z
       1034  409 00015940 ?ClearToDefault@@YAXAAVEAimLeft@@@Z
       1035  40A 00015A40 ?ClearToDefault@@YAXAAVEAimRight@@@Z
       1036  40B 0000CE10 ?ClearToDefault@@YAXAAVEAnimalClaimed@@@Z
       1037  40C 000252A0 ?ClearToDefault@@YAXAAVEAnimalInit@@@Z
       1038  40D 000A7200 ?ClearToDefault@@YAXAAVEAnimatorInit@@@Z
       1039  40E 0000C870 ?ClearToDefault@@YAXAAVEAutoAction@@@Z
       1040  40F 000481A0 ?ClearToDefault@@YAXAAVEBoatClicked@@@Z
       1041  410 00047E70 ?ClearToDefault@@YAXAAVEBoatStart@@@Z
       1042  411 00047FF0 ?ClearToDefault@@YAXAAVEBoatStop@@@Z
       1043  412 00056DB0 ?ClearToDefault@@YAXAAVEBrushDestroyed@@@Z
       1044  413 00071500 ?ClearToDefault@@YAXAAVEBuckVitalShot@@@Z
       1045  414 0003E330 ?ClearToDefault@@YAXAAVECallMade@@@Z
       1046  415 00071BC0 ?ClearToDefault@@YAXAAVECalledBuck@@@Z
       1047  416 00071AA0 ?ClearToDefault@@YAXAAVECalledDoe@@@Z
       1048  417 0000C210 ?ClearToDefault@@YAXAAVECameraStart@@@Z
       1049  418 0000C440 ?ClearToDefault@@YAXAAVECameraStop@@@Z
       1050  419 000096F0 ?ClearToDefault@@YAXAAVECenterMessage@@@Z
       1051  41A 0000A660 ?ClearToDefault@@YAXAAVEChangeAnim@@@Z
       1052  41B 00083680 ?ClearToDefault@@YAXAAVEChangeGravity@@@Z
       1053  41C 00011FD0 ?ClearToDefault@@YAXAAVEChangeMusic@@@Z
       1054  41D 00009E30 ?ClearToDefault@@YAXAAVEClicked@@@Z
       1055  41E 00009910 ?ClearToDefault@@YAXAAVEComputerMessage@@@Z
       1056  41F 00073070 ?ClearToDefault@@YAXAAVEDAAttracted@@@Z
       1057  420 00072D70 ?ClearToDefault@@YAXAAVEDABed@@@Z
       1058  421 00072C70 ?ClearToDefault@@YAXAAVEDADrink@@@Z
       1059  422 00073370 ?ClearToDefault@@YAXAAVEDADying@@@Z
       1060  423 00072B70 ?ClearToDefault@@YAXAAVEDAEat@@@Z
       1061  424 00073470 ?ClearToDefault@@YAXAAVEDAFollowParent@@@Z
       1062  425 00073670 ?ClearToDefault@@YAXAAVEDAHeardCall@@@Z
       1063  426 00072E70 ?ClearToDefault@@YAXAAVEDAMarkTerritory@@@Z
       1064  427 00073570 ?ClearToDefault@@YAXAAVEDANothing@@@Z
       1065  428 00072F70 ?ClearToDefault@@YAXAAVEDASearchForDeer@@@Z
       1066  429 00073170 ?ClearToDefault@@YAXAAVEDASpooked@@@Z
       1067  42A 00073270 ?ClearToDefault@@YAXAAVEDAWounded@@@Z
       1068  42B 00008390 ?ClearToDefault@@YAXAAVEDeactivate@@@Z
       1069  42C 00044860 ?ClearToDefault@@YAXAAVEDecoyStart@@@Z
       1070  42D 000532A0 ?ClearToDefault@@YAXAAVEDeerCallInit@@@Z
       1071  42E 000535B0 ?ClearToDefault@@YAXAAVEDeerCallMade@@@Z
       1072  42F 00055A30 ?ClearToDefault@@YAXAAVEDeerDecoyRecalled@@@Z
       1073  430 00055800 ?ClearToDefault@@YAXAAVEDeerDecoyStart@@@Z
       1074  431 0000C6C0 ?ClearToDefault@@YAXAAVEDisconnected@@@Z
       1075  432 00051E30 ?ClearToDefault@@YAXAAVEDoDecal@@@Z
       1076  433 000727C0 ?ClearToDefault@@YAXAAVEDoDeerBloodTrack@@@Z
       1077  434 00072530 ?ClearToDefault@@YAXAAVEDoDeerTrack@@@Z
       1078  435 00071720 ?ClearToDefault@@YAXAAVEDoeVitalShot@@@Z
       1079  436 00008690 ?ClearToDefault@@YAXAAVEEnd@@@Z
       1080  437 00052EB0 ?ClearToDefault@@YAXAAVEEndCall@@@Z
       1081  438 000A6A70 ?ClearToDefault@@YAXAAVEEnteredLauncher@@@Z
       1082  439 00008490 ?ClearToDefault@@YAXAAVEEnvironmentStart@@@Z
       1083  43A 00008590 ?ClearToDefault@@YAXAAVEEnvironmentStop@@@Z
       1084  43B 00014B00 ?ClearToDefault@@YAXAAVEFireGun@@@Z
       1085  43C 000136E0 ?ClearToDefault@@YAXAAVEForceWound@@@Z
       1086  43D 00081A70 ?ClearToDefault@@YAXAAVEGrasshopperParticlesInit@@@Z
       1087  43E 00014950 ?ClearToDefault@@YAXAAVEGunInit@@@Z
       1088  43F 00015020 ?ClearToDefault@@YAXAAVEGunIsUp@@@Z
       1089  440 00015120 ?ClearToDefault@@YAXAAVEGunNotUp@@@Z
       1090  441 000E5A60 ?ClearToDefault@@YAXAAVEHarbor@@@Z
       1091  442 00014F20 ?ClearToDefault@@YAXAAVEHeartbeat@@@Z
       1092  443 00056CB0 ?ClearToDefault@@YAXAAVEHit@@@Z
       1093  444 00009C80 ?ClearToDefault@@YAXAAVEHitBySpaceShipBeam@@@Z
       1094  445 000A7450 ?ClearToDefault@@YAXAAVEInitStand@@@Z
       1095  446 0000CBE0 ?ClearToDefault@@YAXAAVEKilledDeer@@@Z
       1096  447 00009100 ?ClearToDefault@@YAXAAVEKilledEnemy@@@Z
       1097  448 00085470 ?ClearToDefault@@YAXAAVELAAmbient@@@Z
       1098  449 00085570 ?ClearToDefault@@YAXAAVELAFlee@@@Z
       1099  44A 00085670 ?ClearToDefault@@YAXAAVELASleep@@@Z
       1100  44B 000A6CA0 ?ClearToDefault@@YAXAAVELaunchSkeet@@@Z
       1101  44C 000A6ED0 ?ClearToDefault@@YAXAAVELaunchTrap@@@Z
       1102  44D 00014D10 ?ClearToDefault@@YAXAAVELowerGun@@@Z
       1103  44E 00013340 ?ClearToDefault@@YAXAAVEMemberNotify@@@Z
       1104  44F 0000D600 ?ClearToDefault@@YAXAAVEMessage@@@Z
       1105  450 00015440 ?ClearToDefault@@YAXAAVEPin1Down@@@Z
       1106  451 00015340 ?ClearToDefault@@YAXAAVEPin1Up@@@Z
       1107  452 00015640 ?ClearToDefault@@YAXAAVEPin2Down@@@Z
       1108  453 00015540 ?ClearToDefault@@YAXAAVEPin2Up@@@Z
       1109  454 00015840 ?ClearToDefault@@YAXAAVEPin3Down@@@Z
       1110  455 00015740 ?ClearToDefault@@YAXAAVEPin3Up@@@Z
       1111  456 0000D100 ?ClearToDefault@@YAXAAVEPlayerFired@@@Z
       1112  457 0000CFC0 ?ClearToDefault@@YAXAAVEProfileScore@@@Z
       1113  458 00012F00 ?ClearToDefault@@YAXAAVEProjectileHit@@@Z
       1114  459 00013120 ?ClearToDefault@@YAXAAVEProjectileInit@@@Z
       1115  45A 000A81A0 ?ClearToDefault@@YAXAAVEPulse@@@Z
       1116  45B 00025850 ?ClearToDefault@@YAXAAVEPulseAnimation@@@Z
       1117  45C 00025950 ?ClearToDefault@@YAXAAVEPulseMover@@@Z
       1118  45D 000A8010 ?ClearToDefault@@YAXAAVEPulserInit@@@Z
       1119  45E 000E06A0 ?ClearToDefault@@YAXAAVERAmbient@@@Z
       1120  45F 000E07A0 ?ClearToDefault@@YAXAAVERFlee@@@Z
       1121  460 000E08A0 ?ClearToDefault@@YAXAAVERSleep@@@Z
       1122  461 00014C00 ?ClearToDefault@@YAXAAVERaiseGun@@@Z
       1123  462 0000A4C0 ?ClearToDefault@@YAXAAVERangeModelDestruction@@@Z
       1124  463 0000C5C0 ?ClearToDefault@@YAXAAVERebirth@@@Z
       1125  464 00008FF0 ?ClearToDefault@@YAXAAVEReceiveScore@@@Z
       1126  465 000135E0 ?ClearToDefault@@YAXAAVEReconsiderBehavior@@@Z
       1127  466 000712C0 ?ClearToDefault@@YAXAAVERecordBuckVitalShot@@@Z
       1128  467 00014E20 ?ClearToDefault@@YAXAAVEReloadGun@@@Z
       1129  468 00008AD0 ?ClearToDefault@@YAXAAVEReminder@@@Z
       1130  469 0000AFE0 ?ClearToDefault@@YAXAAVEReminderInit@@@Z
       1131  46A 000134E0 ?ClearToDefault@@YAXAAVERestartAttack@@@Z
       1132  46B 0000D220 ?ClearToDefault@@YAXAAVERoundChange@@@Z
       1133  46C 000E7950 ?ClearToDefault@@YAXAAVESBAmbient@@@Z
       1134  46D 000E7A50 ?ClearToDefault@@YAXAAVESBFlee@@@Z
       1135  46E 000E7B50 ?ClearToDefault@@YAXAAVESBSleep@@@Z
       1136  46F 000A7C60 ?ClearToDefault@@YAXAAVESGAmbient@@@Z
       1137  470 000A7D60 ?ClearToDefault@@YAXAAVESGFlee@@@Z
       1138  471 000A7E60 ?ClearToDefault@@YAXAAVESGSleep@@@Z
       1139  472 00009200 ?ClearToDefault@@YAXAAVESecretFound@@@Z
       1140  473 000530C0 ?ClearToDefault@@YAXAAVESetCall@@@Z
       1141  474 00015230 ?ClearToDefault@@YAXAAVESetGunFireOffset@@@Z
       1142  475 00012B60 ?ClearToDefault@@YAXAAVEShotPenalty@@@Z
       1143  476 0000CA00 ?ClearToDefault@@YAXAAVESlideTreeStand@@@Z
       1144  477 000094B0 ?ClearToDefault@@YAXAAVESound@@@Z
       1145  478 0000AAC0 ?ClearToDefault@@YAXAAVESpawnDebris@@@Z
       1146  479 0000A8D0 ?ClearToDefault@@YAXAAVESpawnEffect@@@Z
       1147  47A 00056A80 ?ClearToDefault@@YAXAAVESpawnEffector@@@Z
       1148  47B 0000A320 ?ClearToDefault@@YAXAAVESpawnSpray@@@Z
       1149  47C 00072300 ?ClearToDefault@@YAXAAVEStalkedBuck@@@Z
       1150  47D 000721E0 ?ClearToDefault@@YAXAAVEStalkedDoe@@@Z
       1151  47E 00008110 ?ClearToDefault@@YAXAAVEStart@@@Z
       1152  47F 00008BE0 ?ClearToDefault@@YAXAAVEStartAttack@@@Z
       1153  480 00052DB0 ?ClearToDefault@@YAXAAVEStartCall@@@Z
       1154  481 00007F60 ?ClearToDefault@@YAXAAVEStop@@@Z
       1155  482 00008CE0 ?ClearToDefault@@YAXAAVEStopAttack@@@Z
       1156  483 00008DE0 ?ClearToDefault@@YAXAAVEStopBlindness@@@Z
       1157  484 00008EE0 ?ClearToDefault@@YAXAAVEStopDeafness@@@Z
       1158  485 000A7050 ?ClearToDefault@@YAXAAVEStrength@@@Z
       1159  486 000A8730 ?ClearToDefault@@YAXAAVESurroundParticleSystemInit@@@Z
       1160  487 00071930 ?ClearToDefault@@YAXAAVETargetBullsEye@@@Z
       1161  488 000089C0 ?ClearToDefault@@YAXAAVETeleportMovingBrush@@@Z
       1162  489 00025750 ?ClearToDefault@@YAXAAVEThink@@@Z
       1163  48A 000255C0 ?ClearToDefault@@YAXAAVEThinkerInit@@@Z
       1164  48B 0000BFA0 ?ClearToDefault@@YAXAAVETimeDelayed@@@Z
       1165  48C 000720D0 ?ClearToDefault@@YAXAAVETrackedBloodTrail@@@Z
       1166  48D 00071F70 ?ClearToDefault@@YAXAAVETrackedBuckTrack@@@Z
       1167  48E 00071D70 ?ClearToDefault@@YAXAAVETrackedDoeTrack@@@Z
       1168  48F 00008840 ?ClearToDefault@@YAXAAVETrigger@@@Z
       1169  490 000345D0 ?ClearToDefault@@YAXAAVETruckClicked@@@Z
       1170  491 00034320 ?ClearToDefault@@YAXAAVETruckFirstPersonView@@@Z
       1171  492 00034800 ?ClearToDefault@@YAXAAVETruckLoadATV@@@Z
       1172  493 000340A0 ?ClearToDefault@@YAXAAVETruckStart@@@Z
       1173  494 00034220 ?ClearToDefault@@YAXAAVETruckStop@@@Z
       1174  495 00034420 ?ClearToDefault@@YAXAAVETruckThirdPersonView@@@Z
       1175  496 0000A080 ?ClearToDefault@@YAXAAVEUseCall@@@Z
       1176  497 00052FB0 ?ClearToDefault@@YAXAAVEUseNextCall@@@Z
       1177  498 000A5CE0 ?ClearToDefault@@YAXAAVEViewInit@@@Z
       1178  499 00009B20 ?ClearToDefault@@YAXAAVEVoiceMessage@@@Z
       1179  49A 00012420 ?ClearToDefault@@YAXAAVEWatch@@@Z
       1180  49B 000121F0 ?ClearToDefault@@YAXAAVEWatcherInit@@@Z
       1181  49C 000D6630 ?ClearToDefault@@YAXAAVEWeaponEffectInit@@@Z
       1182  49D 0000D3D0 ?ClearToDefault@@YAXAAVEWorldClick@@@Z
       1183  49E 00033ED0 ?ClearToDefault@@YAXAAVGPSCenterView@@@Z
       1184  49F 00033DD0 ?ClearToDefault@@YAXAAVGPSClearWayPoint@@@Z
       1185  4A0 000339D0 ?ClearToDefault@@YAXAAVGPSModeBig@@@Z
       1186  4A1 00033AD0 ?ClearToDefault@@YAXAAVGPSModeSmall@@@Z
       1187  4A2 000336D0 ?ClearToDefault@@YAXAAVGPSMoveDown@@@Z
       1188  4A3 000333D0 ?ClearToDefault@@YAXAAVGPSMoveLeft@@@Z
       1189  4A4 000334D0 ?ClearToDefault@@YAXAAVGPSMoveRight@@@Z
       1190  4A5 000335D0 ?ClearToDefault@@YAXAAVGPSMoveUp@@@Z
       1191  4A6 00033CD0 ?ClearToDefault@@YAXAAVGPSNextWayPoint@@@Z
       1192  4A7 000337D0 ?ClearToDefault@@YAXAAVGPSRaiseLower@@@Z
       1193  4A8 00033BD0 ?ClearToDefault@@YAXAAVGPSSetWayPoint@@@Z
       1194  4A9 000338D0 ?ClearToDefault@@YAXAAVGPSSwitchModes@@@Z
       1195  4AA 000331D0 ?ClearToDefault@@YAXAAVGPSZoomIn@@@Z
       1196  4AB 000332D0 ?ClearToDefault@@YAXAAVGPSZoomOut@@@Z
       1197  4AC 00121C30 ?ClearToDefault@@YAXAAW4AHAnim@@@Z
       1198  4AD 00121C20 ?ClearToDefault@@YAXAAW4AHEffect@@@Z
       1199  4AE 00025970 ?ClearToDefault@@YAXAAW4AISpecies@@@Z
       1200  4AF 00034E10 ?ClearToDefault@@YAXAAW4ATVWheelState@@@Z
       1201  4B0 0000A720 ?ClearToDefault@@YAXAAW4BasicEffectType@@@Z
       1202  4B1 00045BC0 ?ClearToDefault@@YAXAAW4BlendControllerType@@@Z
       1203  4B2 0000BE00 ?ClearToDefault@@YAXAAW4BlindType@@@Z
       1204  4B3 00056DD0 ?ClearToDefault@@YAXAAW4BlockAction@@@Z
       1205  4B4 00048240 ?ClearToDefault@@YAXAAW4BoatBlindState@@@Z
       1206  4B5 00009220 ?ClearToDefault@@YAXAAW4BoolEType@@@Z
       1207  4B6 00056E20 ?ClearToDefault@@YAXAAW4ClasificationBits@@@Z
       1208  4B7 0000A4F0 ?ClearToDefault@@YAXAAW4CustomShadingType@@@Z
       1209  4B8 00058800 ?ClearToDefault@@YAXAAW4DBState@@@Z
       1210  4B9 00052CC0 ?ClearToDefault@@YAXAAW4DEERCALLTYPE@@@Z
       1211  4BA 0000A940 ?ClearToDefault@@YAXAAW4DebrisParticlesType@@@Z
       1212  4BB 00044680 ?ClearToDefault@@YAXAAW4DecoyPlace@@@Z
       1213  4BC 00072A80 ?ClearToDefault@@YAXAAW4DeerBehavior@@@Z
       1214  4BD 00072A70 ?ClearToDefault@@YAXAAW4DeerInterest@@@Z
       1215  4BE 00013710 ?ClearToDefault@@YAXAAW4DestinationType@@@Z
       1216  4BF 0000A4E0 ?ClearToDefault@@YAXAAW4DestructionDebrisType@@@Z
       1217  4C0 0005A830 ?ClearToDefault@@YAXAAW4DoorType@@@Z
       1218  4C1 00024940 ?ClearToDefault@@YAXAAW4EMarkerType@@@Z
       1219  4C2 00009230 ?ClearToDefault@@YAXAAW4ESEntityTypes@@@Z
       1220  4C3 0005C640 ?ClearToDefault@@YAXAAW4EffectMarkerType@@@Z
       1221  4C4 0000A730 ?ClearToDefault@@YAXAAW4EffectParticlesType@@@Z
       1222  4C5 00056800 ?ClearToDefault@@YAXAAW4EffectorEffectType@@@Z
       1223  4C6 00069C50 ?ClearToDefault@@YAXAAW4EnemyDiveType@@@Z
       1224  4C7 0006AC40 ?ClearToDefault@@YAXAAW4EnemyFlyType@@@Z
       1225  4C8 0006E7A0 ?ClearToDefault@@YAXAAW4EnemySpawnerType@@@Z
       1226  4C9 00009260 ?ClearToDefault@@YAXAAW4EntityInfoBodyType@@@Z
       1227  4CA 00009250 ?ClearToDefault@@YAXAAW4EventEType@@@Z
       1228  4CB 00078E00 ?ClearToDefault@@YAXAAW4FFSTime@@@Z
       1229  4CC 00078DF0 ?ClearToDefault@@YAXAAW4FFState@@@Z
       1230  4CD 00056E00 ?ClearToDefault@@YAXAAW4FogAttenuationType@@@Z
       1231  4CE 00056E10 ?ClearToDefault@@YAXAAW4FogGraduationType2@@@Z
       1232  4CF 00033F00 ?ClearToDefault@@YAXAAW4GPSMode@@@Z
       1233  4D0 00033EF0 ?ClearToDefault@@YAXAAW4GPSState@@@Z
       1234  4D1 00083720 ?ClearToDefault@@YAXAAW4GravityType@@@Z
       1235  4D2 000146C0 ?ClearToDefault@@YAXAAW4GunAction@@@Z
       1236  4D3 00014710 ?ClearToDefault@@YAXAAW4GunAmmo@@@Z
       1237  4D4 000146D0 ?ClearToDefault@@YAXAAW4GunBarrel@@@Z
       1238  4D5 000146E0 ?ClearToDefault@@YAXAAW4GunChoke@@@Z
       1239  4D6 000128E0 ?ClearToDefault@@YAXAAW4GunGauge@@@Z
       1240  4D7 000146F0 ?ClearToDefault@@YAXAAW4GunOptic@@@Z
       1241  4D8 00014700 ?ClearToDefault@@YAXAAW4GunReticle@@@Z
       1242  4D9 000146B0 ?ClearToDefault@@YAXAAW4GunState@@@Z
       1243  4DA 000128F0 ?ClearToDefault@@YAXAAW4HitZone@@@Z
       1244  4DB 0000A6D0 ?ClearToDefault@@YAXAAW4LensFlareType@@@Z
       1245  4DC 0000A6C0 ?ClearToDefault@@YAXAAW4LightType@@@Z
       1246  4DD 00009270 ?ClearToDefault@@YAXAAW4MessageSound@@@Z
       1247  4DE 00011E10 ?ClearToDefault@@YAXAAW4MusicType@@@Z
       1248  4DF 0000C060 ?ClearToDefault@@YAXAAW4OpticType@@@Z
       1249  4E0 00072330 ?ClearToDefault@@YAXAAW4PP_BroadSkill@@@Z
       1250  4E1 00072340 ?ClearToDefault@@YAXAAW4PP_Skill@@@Z
       1251  4E2 0000A6E0 ?ClearToDefault@@YAXAAW4PSBlendType@@@Z
       1252  4E3 0000A700 ?ClearToDefault@@YAXAAW4PSFadeType@@@Z
       1253  4E4 0000A6F0 ?ClearToDefault@@YAXAAW4PSPartType@@@Z
       1254  4E5 0000A710 ?ClearToDefault@@YAXAAW4PSScaleType@@@Z
       1255  4E6 00009280 ?ClearToDefault@@YAXAAW4ParticleTexture@@@Z
       1256  4E7 0009BDA0 ?ClearToDefault@@YAXAAW4ParticlesHolderType@@@Z
       1257  4E8 000A68D0 ?ClearToDefault@@YAXAAW4PlayerAutoAction@@@Z
       1258  4E9 0000C040 ?ClearToDefault@@YAXAAW4PlayerInterfaceType@@@Z
       1259  4EA 0000C050 ?ClearToDefault@@YAXAAW4PlayerPrimaryState@@@Z
       1260  4EB 0000C070 ?ClearToDefault@@YAXAAW4PlayerSex@@@Z
       1261  4EC 0000C030 ?ClearToDefault@@YAXAAW4PlayerViewType@@@Z
       1262  4ED 0010EB50 ?ClearToDefault@@YAXAAW4RndType@@@Z
       1263  4EE 00056BB0 ?ClearToDefault@@YAXAAW4SOUND_SEASON@@@Z
       1264  4EF 0000A500 ?ClearToDefault@@YAXAAW4ShadowType@@@Z
       1265  4F0 00014720 ?ClearToDefault@@YAXAAW4ShellEjectType@@@Z
       1266  4F1 00009290 ?ClearToDefault@@YAXAAW4SoundType@@@Z
       1267  4F2 0000A120 ?ClearToDefault@@YAXAAW4SprayParticlesType@@@Z
       1268  4F3 000A68B0 ?ClearToDefault@@YAXAAW4SwitchType@@@Z
       1269  4F4 0000C020 ?ClearToDefault@@YAXAAW4TDEGenericMessageType@@@Z
       1270  4F5 00013700 ?ClearToDefault@@YAXAAW4TargetType@@@Z
       1271  4F6 00056DE0 ?ClearToDefault@@YAXAAW4TouchOrDamageEvent@@@Z
       1272  4F7 000348A0 ?ClearToDefault@@YAXAAW4TruckWheelState@@@Z
       1273  4F8 000A5AD0 ?ClearToDefault@@YAXAAW4ViewType@@@Z
       1274  4F9 00056E30 ?ClearToDefault@@YAXAAW4VisibilityBits@@@Z
       1275  4FA 00056BC0 ?ClearToDefault@@YAXAAW4WarpRotation@@@Z
       1276  4FB 000D6470 ?ClearToDefault@@YAXAAW4WeaponEffectType@@@Z
       1277  4FC 000A68C0 ?ClearToDefault@@YAXAAW4WorldLinkType@@@Z
       1278  4FD 000253E0 ?ClearToDefault@@YAXAAW4eAASpecies@@@Z
       1279  4FE 0004A740 ?ClearToDefault@@YAXAAW4eCallType@@@Z
       1280  4FF 000253A0 ?ClearToDefault@@YAXAAW4eDeerSpecies@@@Z
       1281  500 000253B0 ?ClearToDefault@@YAXAAW4eFowlSpecies@@@Z
       1282  501 000A87F0 ?ClearToDefault@@YAXAAW4eHeightMapSize@@@Z
       1283  502 000128D0 ?ClearToDefault@@YAXAAW4eHitType@@@Z
       1284  503 000092A0 ?ClearToDefault@@YAXAAW4eMarkerBehavior@@@Z
       1285  504 000253D0 ?ClearToDefault@@YAXAAW4eMiscBirdSpecies@@@Z
       1286  505 000128C0 ?ClearToDefault@@YAXAAW4eProjectileType@@@Z
       1287  506 000A87E0 ?ClearToDefault@@YAXAAW4eQuadsPerTile@@@Z
       1288  507 000092C0 ?ClearToDefault@@YAXAAW4eSkaMarkerAnimBehavior@@@Z
       1289  508 000092D0 ?ClearToDefault@@YAXAAW4eSkaMarkerCollideBehavior@@@Z
       1290  509 000092E0 ?ClearToDefault@@YAXAAW4eSkaMarkerLightingBehavior@@@Z
       1291  50A 000092B0 ?ClearToDefault@@YAXAAW4eSkaMarkerPlacementBehavior2@@@Z
       1292  50B 000092F0 ?ClearToDefault@@YAXAAW4eSkaMarkerTypeBehavior@@@Z
       1293  50C 00009240 ?ClearToDefault@@YAXAAW4eSkaModelFlags@@@Z
       1294  50D 00108F80 ?ClearToDefault@@YAXAAW4eTagType@@@Z
       1295  50E 000A87D0 ?ClearToDefault@@YAXAAW4eTopMapSize@@@Z
       1296  50F 000253C0 ?ClearToDefault@@YAXAAW4eUplandSpecies@@@Z
       1297  510 00025390 ?ClearToDefault@@YAXAAW4eZoneType@@@Z
       1298  511 00056DF0 ?ClearToDefault@@YAXAAW4e_TimeMethods@@@Z
       1299  512 000173A0 ?CloseParticles@@YAXXZ
       1300  513 000B0ED0 ?CloseToTruckWithATV@CPlayer@@QAEHXZ
       1301  514 00060E60 ?Copy@CEnemyBase@@UAEXAAVCEntity@@K@Z
       1302  515 0009A970 ?Copy@CNavigationMarker@@UAEXAAVCEntity@@K@Z
       1303  516 000B1010 ?Copy@CPlayer@@UAEXAAVCEntity@@K@Z
       1304  517 000C9A00 ?Copy@CPlayerAnimatorSKA@@UAEXAAVCEntity@@K@Z
       1305  518 000CD030 ?Copy@CPlayerGun@@UAEXAAVCEntity@@K@Z
       1306  519 0000ABA0 ?Copy@PlayerAnimState@@QAEXAAU1@@Z
       1307  51A 00060D10 ?CountAsKill@CEnemyBase@@UAEHXZ
       1308  51B 000C3FB0 ?CreateHands@CPlayer@@QAEXXZ
       1309  51C 0009AB30 ?CreateTrail@CNavigationMarker@@QAEXXZ
       1310  51D 000C2EB0 ?CreateWeaponsAndItems@CPlayer@@QAEXXZ
       1311  51E 001EF2E8 ?CustomShadingType_enum@@3VCEntityPropertyEnumType@@A
       1312  51F 001EF2D0 ?CustomShadingType_values@@3PAVCEntityPropertyEnumValue@@A
       1313  520 001E9838 ?DBState_enum@@3VCEntityPropertyEnumType@@A
       1314  521 001E9810 ?DBState_values@@3PAVCEntityPropertyEnumValue@@A
       1315  522 001E89D0 ?DEERCALLTYPE_enum@@3VCEntityPropertyEnumType@@A
       1316  523 001E89A8 ?DEERCALLTYPE_values@@3PAVCEntityPropertyEnumValue@@A
       1317  524 00006750 ?DamageStrength@@YAMW4EntityInfoBodyType@@W4DamageType@@@Z
       1318  525 00068050 ?Death@CEnemyBase@@QAEHABVCEntityEvent@@@Z
       1319  526 0006CAB0 ?Death@CEnemyFly@@QAEHABVCEntityEvent@@@Z
       1320  527 00064720 ?DeathNotify@CEnemyBase@@UAEXXZ
       1321  528 00068200 ?DeathSequence@CEnemyBase@@QAEHABVCEntityEvent@@@Z
       1322  529 00064760 ?DeathSound@CEnemyBase@@UAEXXZ
       1323  52A 001E8778 ?DebrisParticlesType_enum@@3VCEntityPropertyEnumType@@A
       1324  52B 001E8750 ?DebrisParticlesType_values@@3PAVCEntityPropertyEnumValue@@A
       1325  52C 000062A0 ?Debris_Begin@@YAXW4EntityInfoBodyType@@W4DebrisParticlesType@@W4BasicEffectType@@MABV?$Vector@M$02@@3MMK@Z
       1326  52D 00006320 ?Debris_Spawn@@YA?AVCEntityPointer@@PAVCEntity@@0JJJJJJMABV?$Vector@M$02@@@Z
       1327  52E 001E6AC8 ?DecoyPlace_enum@@3VCEntityPropertyEnumType@@A
       1328  52F 001E6AB0 ?DecoyPlace_values@@3PAVCEntityPropertyEnumValue@@A
       1329  530 001FDED8 ?DeerBehavior_enum@@3VCEntityPropertyEnumType@@A
       1330  531 001FDE58 ?DeerBehavior_values@@3PAVCEntityPropertyEnumValue@@A
       1331  532 000B9AA0 ?DeerDecoy_CheckGround@CPlayer@@QAEHAAV?$Vector@M$02@@AAJ@Z
       1332  533 001FDE50 ?DeerInterest_enum@@3VCEntityPropertyEnumType@@A
       1333  534 001FDDE8 ?DeerInterest_values@@3PAVCEntityPropertyEnumValue@@A
       1334  535 000B8A60 ?DemoAction@CPlayer@@QAEXAAVCPlayerAction@@@Z
       1335  536 001EA418 ?DestinationType_enum@@3VCEntityPropertyEnumType@@A
       1336  537 001EA3F8 ?DestinationType_values@@3PAVCEntityPropertyEnumValue@@A
       1337  538 000B1B70 ?Destroy@CPlayer@@UAEXXZ
       1338  539 001EEF80 ?DestructionDebrisType_enum@@3VCEntityPropertyEnumType@@A
       1339  53A 001EEF68 ?DestructionDebrisType_values@@3PAVCEntityPropertyEnumValue@@A
       1340  53B 000C4830 ?DetachGuns@CPlayer@@QAEXXZ
       1341  53C 00067C80 ?Die@CEnemyBase@@QAEHABVCEntityEvent@@@Z
       1342  53D 000BB2D0 ?Disconnect@CPlayer@@UAEXXZ
       1343  53E 0006ABE0 ?DiveFire@CEnemyDive@@QAEHABVCEntityEvent@@@Z
       1344  53F 0006AB80 ?DiveHit@CEnemyDive@@QAEHABVCEntityEvent@@@Z
       1345  540 000C61B0 ?DoAutoActions@CPlayer@@QAEHABVCEntityEvent@@@Z
       1346  541 000B6290 ?DoDescribeScene@CPlayer@@QAEXXZ
       1347  542 000C3F50 ?DoGPSCenterView@CPlayer@@QAEXXZ
       1348  543 000C3EF0 ?DoGPSClearWayPoint@CPlayer@@QAEXXZ
       1349  544 000C3C30 ?DoGPSDown@CPlayer@@QAEXXZ
       1350  545 000C3C90 ?DoGPSLeft@CPlayer@@QAEXXZ
       1351  546 000C3E90 ?DoGPSNextWayPoint@CPlayer@@QAEXXZ
       1352  547 000C3CF0 ?DoGPSRight@CPlayer@@QAEXXZ
       1353  548 000C3E30 ?DoGPSSetWayPoint@CPlayer@@QAEXXZ
       1354  549 000C3E10 ?DoGPSSwitchModes@CPlayer@@QAEXXZ
       1355  54A 000C3BD0 ?DoGPSUp@CPlayer@@QAEXXZ
       1356  54B 000C3D50 ?DoGPSZoomIn@CPlayer@@QAEXXZ
       1357  54C 000C3DB0 ?DoGPSZoomOut@CPlayer@@QAEXXZ
       1358  54D 000B74F0 ?DoMoving@CPlayer@@UAEXXZ
       1359  54E 000D5890 ?DoMoving@CPlayerView@@UAEXXZ
       1360  54F 00064F00 ?DoPatrolling@CEnemyBase@@QAEHABVCEntityEvent@@@Z
       1361  550 001E9A08 ?DoorType_enum@@3VCEntityPropertyEnumType@@A
       1362  551 001E99E8 ?DoorType_values@@3PAVCEntityPropertyEnumValue@@A
       1363  552 000C11E0 ?DrawGPS@CPlayer@@QAEXAAVCAnyProjection3D@@PAVCDrawPort@@@Z
       1364  553 000C14C0 ?DrawHands@CPlayer@@QAEXAAVCAnyProjection3D@@PAVCDrawPort@@@Z
       1365  554 00061D40 ?DropsMarker@CEnemyBase@@UBEHAAVCTFileName@@AAVCTString@@@Z
       1366  555 0009A8D0 ?DropsMarker@CNavigationMarker@@UBEHAAVCTFileName@@AAVCTString@@@Z
       1367  556 000DFD10 ?Dummy@CPulser@@QAEHABVCEntityEvent@@@Z
       1368  557 00118840 ?Dummy@CWatcher@@QAEHABVCEntityEvent@@@Z
       1369  558 0003CA10 ?DumpSync_t@CBasicEffect@@UAEXAAVCTStream@@J@Z
       1370  559 00061F20 ?DumpSync_t@CEnemyBase@@UAEXAAVCTStream@@J@Z
       1371  55A 000B7E90 ?DumpSync_t@CPlayer@@UAEXAAVCTStream@@J@Z
       1372  55B 001F00A8 ?EMarkerType_enum@@3VCEntityPropertyEnumType@@A
       1373  55C 001F0090 ?EMarkerType_values@@3PAVCEntityPropertyEnumValue@@A
       1374  55D 001ECC58 ?ESEntityTypes_enum@@3VCEntityPropertyEnumType@@A
       1375  55E 001ECAC8 ?ESEntityTypes_values@@3PAVCEntityPropertyEnumValue@@A
       1376  55F 001E9F20 ?EffectMarkerType_enum@@3VCEntityPropertyEnumType@@A
       1377  560 001E9ED0 ?EffectMarkerType_values@@3PAVCEntityPropertyEnumValue@@A
       1378  561 001E5210 ?EffectParticlesType_enum@@3VCEntityPropertyEnumType@@A
       1379  562 001E51B8 ?EffectParticlesType_values@@3PAVCEntityPropertyEnumValue@@A
       1380  563 001EA1A8 ?EffectorEffectType_enum@@3VCEntityPropertyEnumType@@A
       1381  564 001EA138 ?EffectorEffectType_values@@3PAVCEntityPropertyEnumValue@@A
       1382  565 001EB038 ?EnemyDiveType_enum@@3VCEntityPropertyEnumType@@A
       1383  566 001EB020 ?EnemyDiveType_values@@3PAVCEntityPropertyEnumValue@@A
       1384  567 001EB198 ?EnemyFlyType_enum@@3VCEntityPropertyEnumType@@A
       1385  568 001EB168 ?EnemyFlyType_values@@3PAVCEntityPropertyEnumValue@@A
       1386  569 000647C0 ?EnemyPostInit@CEnemyBase@@UAEXXZ
       1387  56A 001EB780 ?EnemySpawnerType_enum@@3VCEntityPropertyEnumType@@A
       1388  56B 001EB750 ?EnemySpawnerType_values@@3PAVCEntityPropertyEnumValue@@A
       1389  56C 001ECD48 ?EntityInfoBodyType_enum@@3VCEntityPropertyEnumType@@A
       1390  56D 001ECCF0 ?EntityInfoBodyType_values@@3PAVCEntityPropertyEnumValue@@A
       1391  56E 001ECCE8 ?EventEType_enum@@3VCEntityPropertyEnumType@@A
       1392  56F 001ECC80 ?EventEType_values@@3PAVCEntityPropertyEnumValue@@A
       1393  570 000BE790 ?ExitATV@CPlayer@@QAEXXZ
       1394  571 000BE2E0 ?ExitBoat@CPlayer@@QAEXXZ
       1395  572 000BEB20 ?ExitTruck@CPlayer@@QAEXXZ
       1396  573 001EC720 ?FFSTime_enum@@3VCEntityPropertyEnumType@@A
       1397  574 001EC710 ?FFSTime_values@@3PAVCEntityPropertyEnumValue@@A
       1398  575 001EC5F8 ?FFState_enum@@3VCEntityPropertyEnumType@@A
       1399  576 001EC5D0 ?FFState_values@@3PAVCEntityPropertyEnumValue@@A
       1400  577 00062060 ?FillEntityStatistics@CEnemyBase@@UAEHPAUEntityStats@@@Z
       1401  578 00117DB0 ?FindClosestPlayer@CWatcher@@QAEPAVCEntity@@XZ
       1402  579 000B5D60 ?FindMusicHolder@CPlayer@@QAEXXZ
       1403  57A 000634D0 ?FindNextPathMarker@CEnemyBase@@UAEXXZ
       1404  57B 00067300 ?Fire@CEnemyBase@@QAEHABVCEntityEvent@@@Z
       1405  57C 0006A990 ?Fire@CEnemyDive@@QAEHABVCEntityEvent@@@Z
       1406  57D 0006CA30 ?Fire@CEnemyFly@@QAEHABVCEntityEvent@@@Z
       1407  57E 0006DA90 ?Fire@CEnemyRunInto@@QAEHABVCEntityEvent@@@Z
       1408  57F 00066CB0 ?FireOrHit@CEnemyBase@@QAEHABVCEntityEvent@@@Z
       1409  580 000C5F80 ?FirstInit@CPlayer@@QAEHABVCEntityEvent@@@Z
       1410  581 000069E0 ?FixupCausedToPlayer@@YAPAVCEntity@@PAV1@0H@Z
       1411  582 0006CD00 ?FlyFire@CEnemyFly@@QAEHABVCEntityEvent@@@Z
       1412  583 0006CCA0 ?FlyHit@CEnemyFly@@QAEHABVCEntityEvent@@@Z
       1413  584 001EC898 ?FogAttenuationType_enum@@3VCEntityPropertyEnumType@@A
       1414  585 001EC880 ?FogAttenuationType_values@@3PAVCEntityPropertyEnumValue@@A
       1415  586 001EC8B8 ?FogGraduationType2_enum@@3VCEntityPropertyEnumType@@A
       1416  587 001EC8A0 ?FogGraduationType2_values@@3PAVCEntityPropertyEnumValue@@A
       1417  588 001ED740 ?GPSMode_enum@@3VCEntityPropertyEnumType@@A
       1418  589 001ED730 ?GPSMode_values@@3PAVCEntityPropertyEnumValue@@A
       1419  58A 001ED728 ?GPSState_enum@@3VCEntityPropertyEnumType@@A
       1420  58B 001ED718 ?GPSState_values@@3PAVCEntityPropertyEnumValue@@A
       1421  58C 000B26B0 ?GameBagIsEmpty@CPlayer@@QAEHXZ
       1422  58D 000B5D50 ?GetActionMarker@CPlayer@@QAEPAVCPlayerActionMarker@@XZ
       1423  58E 00062F00 ?GetAttackMoveFrequency@CEnemyBase@@UAEMM@Z
       1424  58F 000B2920 ?GetBuckUrine@CPlayer@@QBEMXZ
       1425  590 000C3970 ?GetCall1ID@CPlayer@@QAEXXZ
       1426  591 000C39A0 ?GetCall2ID@CPlayer@@QAEXXZ
       1427  592 000C1920 ?GetCompetitiveStartMarker@CPlayer@@QAEPAVCEntity@@XZ
       1428  593 00061E20 ?GetComputerMessageName@CEnemyBase@@UBEABVCTFileName@@XZ
       1429  594 000B2900 ?GetCoverScent@CPlayer@@QBEMXZ
       1430  595 00060D00 ?GetCrushHealth@CEnemyBase@@UAEMXZ
       1431  596 000C4AB0 ?GetCurAmmoSlot@CPlayer@@QBEJXZ
       1432  597 000B2A20 ?GetDeerDecoy@CPlayer@@QBE?AVCEntityPointer@@XZ
       1433  598 00061DE0 ?GetDescription@CEnemyBase@@UBEABVCTString@@XZ
       1434  599 000B3770 ?GetDetailStatsComp@CPlayer@@QAEXAAVCTString@@@Z
       1435  59A 000B44B0 ?GetDetailStatsCoop@CPlayer@@QAEXAAVCTString@@@Z
       1436  59B 000B4FC0 ?GetDetailStatsSP@CPlayer@@QAEXAAVCTString@@J@Z
       1437  59C 000B2910 ?GetDoeInHeat@CPlayer@@QBEMXZ
       1438  59D 000B80D0 ?GetEntityInfo@CPlayer@@UAEPAXXZ
       1439  59E 00001260 ?GetEntityInfoPosition@@YAXPAVCEntity@@PAMAAV?$Vector@M$02@@@Z
       1440  59F 00061180 ?GetFrustumAngle@CEnemyBase@@QAEMABV?$Vector@M$02@@@Z
       1441  5A0 00006F00 ?GetGameDamageMultiplier@@YAMXZ
       1442  5A1 000B5AE0 ?GetGameSpyPlayerInfo@CPlayer@@UAEXJAAVCTString@@@Z
       1443  5A2 000BC030 ?GetGroundType@CPlayer@@QAEJXZ
       1444  5A3 000B29C0 ?GetGunIcon@CPlayer@@QBE?AVCTString@@J@Z
       1445  5A4 000B2650 ?GetLargestBaggedGame@CPlayer@@QAE?AVCEntityPointer@@XZ
       1446  5A5 000C0300 ?GetLerpedAbsoluteViewPlacement@CPlayer@@QAEXAAVCPlacement3D@@@Z
       1447  5A6 000D58C0 ?GetLerpedPlacement@CPlayerView@@UBE?AVCPlacement3D@@XZ
       1448  5A7 000BBFB0 ?GetLerpedWeaponPosition@CPlayer@@QAEXV?$Vector@M$02@@AAVCPlacement3D@@@Z
       1449  5A8 00064770 ?GetLockRotationSpeed@CEnemyBase@@UAEMXZ
       1450  5A9 000B2930 ?GetMaxScent@CPlayer@@QBEMXZ
       1451  5AA 000B5D40 ?GetModelInstanceForRendering@CPlayer@@UAEPAVCModelInstance@@XZ
       1452  5AB 00013720 ?GetName@CEnemyBase@@UBEABVCTString@@XZ
       1453  5AC 00024950 ?GetName@CNavigationMarker@@UBEABVCTString@@XZ
       1454  5AD 00117D20 ?GetOwner@CWatcher@@QAEPAVCEnemyBase@@XZ
       1455  5AE 00061240 ?GetPlaneFrustumAngle@CEnemyBase@@QAEMABV?$Vector@M$02@@@Z
       1456  5AF 00060C60 ?GetPlayerKillDescription@CEnemyBase@@UAE?AVCTString@@ABV2@ABVEDeath@@@Z
       1457  5B0 00001310 ?GetPositionCastRay@@YAXPAVCEntity@@0AAV?$Vector@M$02@@1@Z
       1458  5B1 000B33C0 ?GetPredictName@CPlayer@@QBE?AVCTString@@XZ
       1459  5B2 00013740 ?GetPredictionPair@CEnemyBase@@UAEPAVCEntity@@XZ
       1460  5B3 0000D680 ?GetPredictionPair@CPlayer@@UAEPAVCEntity@@XZ
       1461  5B4 000A5DD0 ?GetPredictionPair@CPlayerView@@UAEPAVCEntity@@XZ
       1462  5B5 000A81D0 ?GetPredictionPair@CPulser@@UAEPAVCEntity@@XZ
       1463  5B6 000124C0 ?GetPredictionPair@CWatcher@@UAEPAVCEntity@@XZ
       1464  5B7 000B3460 ?GetPredictionRange@CPlayer@@UAEMXZ
       1465  5B8 00060C50 ?GetPredictionTime@CEnemyBase@@UAEMXZ
       1466  5B9 000B3450 ?GetPredictionTime@CPlayer@@UAEMXZ
       1467  5BA 000B29A0 ?GetPresentGunAmmoCount@CPlayer@@QBEJXZ
       1468  5BB 000B2960 ?GetPresentGunAmmoType@CPlayer@@QBEJXZ
       1469  5BC 000B2980 ?GetPresentGunMaxAmmoCount@CPlayer@@QBEJXZ
       1470  5BD 000B2940 ?GetPresentGunNum@CPlayer@@QBEJXZ
       1471  5BE 000B61A0 ?GetProjectileType@CPlayer@@QBEJJ@Z
       1472  5BF 00060D20 ?GetPropA@CEnemyBase@@UAEAAMAAM@Z
       1473  5C0 0006A520 ?GetPropA@CEnemyDive@@UAEAAMAAM@Z
       1474  5C1 0006B740 ?GetPropA@CEnemyFly@@UAEAAMAAM@Z
       1475  5C2 00117D30 ?GetRandomPlayer@CWatcher@@QAEJXZ
       1476  5C3 0000AD60 ?GetSP@@YAPBVCSessionProperties@@XZ
       1477  5C4 000B2A50 ?GetScrapeKit@CPlayer@@QBE?AVCEntityPointer@@XZ
       1478  5C5 000B32D0 ?GetSettings@CPlayer@@QAEPAVCPlayerSettings@@XZ
       1479  5C6 000B36C0 ?GetShortStats@CPlayer@@QAEXAAVCTString@@@Z
       1480  5C7 000BBF70 ?GetSoundPosition@CPlayer@@UAE?AV?$Vector@M$02@@XZ
       1481  5C8 000B3610 ?GetStats@CPlayer@@QAEXAAVCTString@@W4CompStatType@@J@Z
       1482  5C9 000B34C0 ?GetStatsInGameTimeGame@CPlayer@@QAEMXZ
       1483  5CA 000B3490 ?GetStatsInGameTimeLevel@CPlayer@@QAEMXZ
       1484  5CB 000B3540 ?GetStatsRealWorldStarted@CPlayer@@QAE?AVCTString@@XZ
       1485  5CC 000B34F0 ?GetStatsRealWorldTime@CPlayer@@QAEMXZ
       1486  5CD 000066D0 ?GetStdEntityInfo@@YAPAUEntityInfo@@W4EntityInfoBodyType@@@Z
       1487  5CE 000C1D40 ?GetTeleportingOffset@CPlayer@@QAE?AV?$Vector@M$02@@XZ
       1488  5CF 00060D30 ?GetThreatDistance@CEnemyBase@@UAEMXZ
       1489  5D0 00060C10 ?GetType@CEnemyBase@@UAEJXZ
       1490  5D1 0009A8C0 ?GetType@CNavigationMarker@@UAEJXZ
       1491  5D2 000B1000 ?GetType@CPlayer@@UAEJXZ
       1492  5D3 000C1180 ?GetViewEntity@CPlayer@@QAEPAVCEntity@@XZ
       1493  5D4 00060E50 ?GetWatcher@CEnemyBase@@QAEPAVCWatcher@@XZ
       1494  5D5 000B5F10 ?GetWorldGlaring@CPlayer@@QAEKXZ
       1495  5D6 000B6030 ?GetWorldWeatherTime@CPlayer@@QAEMXZ
       1496  5D7 000B6060 ?GetWorldWeatherTimeString@CPlayer@@QAE?AVCTString@@H@Z
       1497  5D8 000B6160 ?GetWorldWindDirectionAndSpeed@CPlayer@@QAEXAAM0@Z
       1498  5D9 001EDD78 ?GravityType_enum@@3VCEntityPropertyEnumType@@A
       1499  5DA 001EDD58 ?GravityType_values@@3PAVCEntityPropertyEnumValue@@A
       1500  5DB 0006AB20 ?GroundFire@CEnemyDive@@QAEHABVCEntityEvent@@@Z
       1501  5DC 0006CC40 ?GroundFire@CEnemyFly@@QAEHABVCEntityEvent@@@Z
       1502  5DD 0006AAC0 ?GroundHit@CEnemyDive@@QAEHABVCEntityEvent@@@Z
       1503  5DE 0006CBE0 ?GroundHit@CEnemyFly@@QAEHABVCEntityEvent@@@Z
       1504  5DF 0006C1C0 ?GroundToAir@CEnemyFly@@QAEHABVCEntityEvent@@@Z
       1505  5E0 0006BB60 ?GroundToAirAnim@CEnemyFly@@UAEMXZ
       1506  5E1 001F5230 ?GunAction_enum@@3VCEntityPropertyEnumType@@A
       1507  5E2 001F51C8 ?GunAction_values@@3PAVCEntityPropertyEnumValue@@A
       1508  5E3 001F5328 ?GunAmmo_enum@@3VCEntityPropertyEnumType@@A
       1509  5E4 001F52E8 ?GunAmmo_values@@3PAVCEntityPropertyEnumValue@@A
       1510  5E5 001F5250 ?GunBarrel_enum@@3VCEntityPropertyEnumType@@A
       1511  5E6 001F5238 ?GunBarrel_values@@3PAVCEntityPropertyEnumValue@@A
       1512  5E7 001F5280 ?GunChoke_enum@@3VCEntityPropertyEnumType@@A
       1513  5E8 001F5258 ?GunChoke_values@@3PAVCEntityPropertyEnumValue@@A
       1514  5E9 001F64C0 ?GunGauge_enum@@3VCEntityPropertyEnumType@@A
       1515  5EA 001F64A0 ?GunGauge_values@@3PAVCEntityPropertyEnumValue@@A
       1516  5EB 001F52C0 ?GunOptic_enum@@3VCEntityPropertyEnumType@@A
       1517  5EC 001F5288 ?GunOptic_values@@3PAVCEntityPropertyEnumValue@@A
       1518  5ED 001F52E0 ?GunReticle_enum@@3VCEntityPropertyEnumType@@A
       1519  5EE 001F52C8 ?GunReticle_values@@3PAVCEntityPropertyEnumValue@@A
       1520  5EF 001F51C0 ?GunState_enum@@3VCEntityPropertyEnumType@@A
       1521  5F0 001F5180 ?GunState_values@@3PAVCEntityPropertyEnumValue@@A
       1522  5F1 00064AB0 ?H0x01360004_MoveToDestination_01@CEnemyBase@@QAEHABVCEntityEvent@@@Z
       1523  5F2 00064B50 ?H0x01360005_MoveToDestination_02@CEnemyBase@@QAEHABVCEntityEvent@@@Z
       1524  5F3 000649F0 ?H0x01360006_MoveToDestination_03@CEnemyBase@@QAEHABVCEntityEvent@@@Z
       1525  5F4 00064BB0 ?H0x01360007_MoveToDestination_04@CEnemyBase@@QAEHABVCEntityEvent@@@Z
       1526  5F5 00064E00 ?H0x01360009_MoveToRandomPatrolPosition_01@CEnemyBase@@QAEHABVCEntityEvent@@@Z
       1527  5F6 00064EA0 ?H0x0136000a_MoveToRandomPatrolPosition_02@CEnemyBase@@QAEHABVCEntityEvent@@@Z
       1528  5F7 00064FF0 ?H0x0136000c_DoPatrolling_01@CEnemyBase@@QAEHABVCEntityEvent@@@Z
       1529  5F8 00065070 ?H0x0136000d_DoPatrolling_02@CEnemyBase@@QAEHABVCEntityEvent@@@Z
       1530  5F9 000650D0 ?H0x0136000e_DoPatrolling_03@CEnemyBase@@QAEHABVCEntityEvent@@@Z
       1531  5FA 00065170 ?H0x0136000f_DoPatrolling_04@CEnemyBase@@QAEHABVCEntityEvent@@@Z
       1532  5FB 00064F60 ?H0x01360010_DoPatrolling_05@CEnemyBase@@QAEHABVCEntityEvent@@@Z
       1533  5FC 000651D0 ?H0x01360011_DoPatrolling_06@CEnemyBase@@QAEHABVCEntityEvent@@@Z
       1534  5FD 00065340 ?H0x01360013_BeIdle_01@CEnemyBase@@QAEHABVCEntityEvent@@@Z
       1535  5FE 000653C0 ?H0x01360014_BeIdle_02@CEnemyBase@@QAEHABVCEntityEvent@@@Z
       1536  5FF 00065290 ?H0x01360015_BeIdle_03@CEnemyBase@@QAEHABVCEntityEvent@@@Z
       1537  600 00065430 ?H0x01360016_BeIdle_04@CEnemyBase@@QAEHABVCEntityEvent@@@Z
       1538  601 00065720 ?H0x01360019_MoveThroughMarkers_01@CEnemyBase@@QAEHABVCEntityEvent@@@Z
       1539  602 000657C0 ?H0x0136001a_MoveThroughMarkers_02@CEnemyBase@@QAEHABVCEntityEvent@@@Z
       1540  603 000658C0 ?H0x0136001b_MoveThroughMarkers_03@CEnemyBase@@QAEHABVCEntityEvent@@@Z
       1541  604 00065970 ?H0x0136001c_MoveThroughMarkers_04@CEnemyBase@@QAEHABVCEntityEvent@@@Z
       1542  605 000659D0 ?H0x0136001d_MoveThroughMarkers_05@CEnemyBase@@QAEHABVCEntityEvent@@@Z
       1543  606 00065A80 ?H0x0136001e_MoveThroughMarkers_06@CEnemyBase@@QAEHABVCEntityEvent@@@Z
       1544  607 00065B00 ?H0x0136001f_MoveThroughMarkers_07@CEnemyBase@@QAEHABVCEntityEvent@@@Z
       1545  608 00065B60 ?H0x01360020_MoveThroughMarkers_08@CEnemyBase@@QAEHABVCEntityEvent@@@Z
       1546  609 00065BD0 ?H0x01360021_MoveThroughMarkers_09@CEnemyBase@@QAEHABVCEntityEvent@@@Z
       1547  60A 00065C50 ?H0x01360022_MoveThroughMarkers_10@CEnemyBase@@QAEHABVCEntityEvent@@@Z
       1548  60B 00065550 ?H0x01360023_MoveThroughMarkers_11@CEnemyBase@@QAEHABVCEntityEvent@@@Z
       1549  60C 00065CF0 ?H0x01360024_MoveThroughMarkers_12@CEnemyBase@@QAEHABVCEntityEvent@@@Z
       1550  60D 00065E70 ?H0x01360026_NewEnemySpotted_01@CEnemyBase@@QAEHABVCEntityEvent@@@Z
       1551  60E 00065F20 ?H0x01360027_NewEnemySpotted_02@CEnemyBase@@QAEHABVCEntityEvent@@@Z
       1552  60F 00065F80 ?H0x01360028_NewEnemySpotted_03@CEnemyBase@@QAEHABVCEntityEvent@@@Z
       1553  610 00066220 ?H0x0136002c_AttackEnemy_01@CEnemyBase@@QAEHABVCEntityEvent@@@Z
       1554  611 000662C0 ?H0x0136002d_AttackEnemy_02@CEnemyBase@@QAEHABVCEntityEvent@@@Z
       1555  612 000663A0 ?H0x0136002e_AttackEnemy_03@CEnemyBase@@QAEHABVCEntityEvent@@@Z
       1556  613 00066440 ?H0x0136002f_AttackEnemy_04@CEnemyBase@@QAEHABVCEntityEvent@@@Z
       1557  614 00066320 ?H0x01360030_AttackEnemy_05@CEnemyBase@@QAEHABVCEntityEvent@@@Z
       1558  615 000664A0 ?H0x01360031_AttackEnemy_06@CEnemyBase@@QAEHABVCEntityEvent@@@Z
       1559  616 00066500 ?H0x01360032_AttackEnemy_07@CEnemyBase@@QAEHABVCEntityEvent@@@Z
       1560  617 000665A0 ?H0x01360033_AttackEnemy_08@CEnemyBase@@QAEHABVCEntityEvent@@@Z
       1561  618 000667D0 ?H0x01360035_PerformAttack_01@CEnemyBase@@QAEHABVCEntityEvent@@@Z
       1562  619 00066C40 ?H0x01360036_PerformAttack_02@CEnemyBase@@QAEHABVCEntityEvent@@@Z
       1563  61A 000666A0 ?H0x01360037_PerformAttack_03@CEnemyBase@@QAEHABVCEntityEvent@@@Z
       1564  61B 00066CA0 ?H0x01360038_PerformAttack_04@CEnemyBase@@QAEHABVCEntityEvent@@@Z
       1565  61C 00066DD0 ?H0x0136003a_FireOrHit_01@CEnemyBase@@QAEHABVCEntityEvent@@@Z
       1566  61D 00066E70 ?H0x0136003b_FireOrHit_02@CEnemyBase@@QAEHABVCEntityEvent@@@Z
       1567  61E 00067060 ?H0x0136003c_FireOrHit_03@CEnemyBase@@QAEHABVCEntityEvent@@@Z
       1568  61F 00067100 ?H0x0136003d_FireOrHit_04@CEnemyBase@@QAEHABVCEntityEvent@@@Z
       1569  620 000671E0 ?H0x0136003e_FireOrHit_05@CEnemyBase@@QAEHABVCEntityEvent@@@Z
       1570  621 00067160 ?H0x0136003f_FireOrHit_06@CEnemyBase@@QAEHABVCEntityEvent@@@Z
       1571  622 00067240 ?H0x01360040_FireOrHit_07@CEnemyBase@@QAEHABVCEntityEvent@@@Z
       1572  623 00066ED0 ?H0x01360041_FireOrHit_08@CEnemyBase@@QAEHABVCEntityEvent@@@Z
       1573  624 000674A0 ?H0x01360045_LockOnEnemy_01@CEnemyBase@@QAEHABVCEntityEvent@@@Z
       1574  625 000675B0 ?H0x01360046_LockOnEnemy_02@CEnemyBase@@QAEHABVCEntityEvent@@@Z
       1575  626 000673E0 ?H0x01360047_LockOnEnemy_03@CEnemyBase@@QAEHABVCEntityEvent@@@Z
       1576  627 00067610 ?H0x01360048_LockOnEnemy_04@CEnemyBase@@QAEHABVCEntityEvent@@@Z
       1577  628 000676F0 ?H0x0136004a_ChargeHitEnemy_01@CEnemyBase@@QAEHABVCEntityEvent@@@Z
       1578  629 000678E0 ?H0x0136004b_ChargeHitEnemy_02@CEnemyBase@@QAEHABVCEntityEvent@@@Z
       1579  62A 000679B0 ?H0x0136004c_ChargeHitEnemy_03@CEnemyBase@@QAEHABVCEntityEvent@@@Z
       1580  62B 00067A50 ?H0x0136004d_ChargeHitEnemy_04@CEnemyBase@@QAEHABVCEntityEvent@@@Z
       1581  62C 00067AB0 ?H0x0136004e_ChargeHitEnemy_05@CEnemyBase@@QAEHABVCEntityEvent@@@Z
       1582  62D 00067BA0 ?H0x01360050_BeWounded_01@CEnemyBase@@QAEHABVCEntityEvent@@@Z
       1583  62E 00067C20 ?H0x01360051_BeWounded_02@CEnemyBase@@QAEHABVCEntityEvent@@@Z
       1584  62F 00067ED0 ?H0x01360053_Die_01@CEnemyBase@@QAEHABVCEntityEvent@@@Z
       1585  630 00067FF0 ?H0x01360054_Die_02@CEnemyBase@@QAEHABVCEntityEvent@@@Z
       1586  631 00068120 ?H0x01360056_Death_01@CEnemyBase@@QAEHABVCEntityEvent@@@Z
       1587  632 000681A0 ?H0x01360057_Death_02@CEnemyBase@@QAEHABVCEntityEvent@@@Z
       1588  633 00068260 ?H0x01360059_DeathSequence_01@CEnemyBase@@QAEHABVCEntityEvent@@@Z
       1589  634 00068300 ?H0x0136005a_DeathSequence_02@CEnemyBase@@QAEHABVCEntityEvent@@@Z
       1590  635 00068370 ?H0x0136005b_DeathSequence_03@CEnemyBase@@QAEHABVCEntityEvent@@@Z
       1591  636 000683F0 ?H0x0136005c_DeathSequence_04@CEnemyBase@@QAEHABVCEntityEvent@@@Z
       1592  637 000684A0 ?H0x0136005d_DeathSequence_05@CEnemyBase@@QAEHABVCEntityEvent@@@Z
       1593  638 00068520 ?H0x0136005e_DeathSequence_06@CEnemyBase@@QAEHABVCEntityEvent@@@Z
       1594  639 00068590 ?H0x0136005f_DeathSequence_07@CEnemyBase@@QAEHABVCEntityEvent@@@Z
       1595  63A 00068610 ?H0x01360060_DeathSequence_08@CEnemyBase@@QAEHABVCEntityEvent@@@Z
       1596  63B 000686E0 ?H0x01360062_Active_01@CEnemyBase@@QAEHABVCEntityEvent@@@Z
       1597  63C 00068AF0 ?H0x01360063_Active_02@CEnemyBase@@QAEHABVCEntityEvent@@@Z
       1598  63D 00068BC0 ?H0x01360065_Inactive_01@CEnemyBase@@QAEHABVCEntityEvent@@@Z
       1599  63E 00068CD0 ?H0x01360066_Inactive_02@CEnemyBase@@QAEHABVCEntityEvent@@@Z
       1600  63F 00068E30 ?H0x01360069_MainLoop_01@CEnemyBase@@QAEHABVCEntityEvent@@@Z
       1601  640 00068EB0 ?H0x0136006a_MainLoop_02@CEnemyBase@@QAEHABVCEntityEvent@@@Z
       1602  641 00069080 ?H0x0136006b_MainLoop_03@CEnemyBase@@QAEHABVCEntityEvent@@@Z
       1603  642 00069120 ?H0x0136006c_MainLoop_04@CEnemyBase@@QAEHABVCEntityEvent@@@Z
       1604  643 000691F0 ?H0x0136006e_StandardBehavior_01@CEnemyBase@@QAEHABVCEntityEvent@@@Z
       1605  644 00069350 ?H0x0136006f_StandardBehavior_02@CEnemyBase@@QAEHABVCEntityEvent@@@Z
       1606  645 0006BCF0 ?H0x01370002_BeWounded_01@CEnemyFly@@QAEHABVCEntityEvent@@@Z
       1607  646 0006BD90 ?H0x01370003_BeWounded_02@CEnemyFly@@QAEHABVCEntityEvent@@@Z
       1608  647 0006BDF0 ?H0x01370004_BeWounded_03@CEnemyFly@@QAEHABVCEntityEvent@@@Z
       1609  648 0006BE50 ?H0x01370005_BeWounded_04@CEnemyFly@@QAEHABVCEntityEvent@@@Z
       1610  649 0006BC80 ?H0x01370006_BeWounded_05@CEnemyFly@@QAEHABVCEntityEvent@@@Z
       1611  64A 0006BF70 ?H0x01370008_AirToGround_01@CEnemyFly@@QAEHABVCEntityEvent@@@Z
       1612  64B 0006C030 ?H0x01370009_AirToGround_02@CEnemyFly@@QAEHABVCEntityEvent@@@Z
       1613  64C 0006C0D0 ?H0x0137000a_AirToGround_03@CEnemyFly@@QAEHABVCEntityEvent@@@Z
       1614  64D 0006C160 ?H0x0137000b_AirToGround_04@CEnemyFly@@QAEHABVCEntityEvent@@@Z
       1615  64E 0006C2A0 ?H0x0137000d_GroundToAir_01@CEnemyFly@@QAEHABVCEntityEvent@@@Z
       1616  64F 0006C330 ?H0x0137000e_GroundToAir_02@CEnemyFly@@QAEHABVCEntityEvent@@@Z
       1617  650 0006C3F0 ?H0x0137000f_GroundToAir_03@CEnemyFly@@QAEHABVCEntityEvent@@@Z
       1618  651 0006C480 ?H0x01370010_GroundToAir_04@CEnemyFly@@QAEHABVCEntityEvent@@@Z
       1619  652 0006C5B0 ?H0x01370012_AttackEnemy_01@CEnemyFly@@QAEHABVCEntityEvent@@@Z
       1620  653 0006C650 ?H0x01370013_AttackEnemy_02@CEnemyFly@@QAEHABVCEntityEvent@@@Z
       1621  654 0006C6B0 ?H0x01370014_AttackEnemy_03@CEnemyFly@@QAEHABVCEntityEvent@@@Z
       1622  655 0006C790 ?H0x01370015_AttackEnemy_04@CEnemyFly@@QAEHABVCEntityEvent@@@Z
       1623  656 0006C830 ?H0x01370016_AttackEnemy_05@CEnemyFly@@QAEHABVCEntityEvent@@@Z
       1624  657 0006C890 ?H0x01370017_AttackEnemy_06@CEnemyFly@@QAEHABVCEntityEvent@@@Z
       1625  658 0006C8F0 ?H0x01370018_AttackEnemy_07@CEnemyFly@@QAEHABVCEntityEvent@@@Z
       1626  659 0006C950 ?H0x01370019_AttackEnemy_08@CEnemyFly@@QAEHABVCEntityEvent@@@Z
       1627  65A 0006C710 ?H0x0137001a_AttackEnemy_09@CEnemyFly@@QAEHABVCEntityEvent@@@Z
       1628  65B 0006DC60 ?H0x01380002_RotateToEnemy_01@CEnemyRunInto@@QAEHABVCEntityEvent@@@Z
       1629  65C 0006DD90 ?H0x01380003_RotateToEnemy_02@CEnemyRunInto@@QAEHABVCEntityEvent@@@Z
       1630  65D 0006DBC0 ?H0x01380004_RotateToEnemy_03@CEnemyRunInto@@QAEHABVCEntityEvent@@@Z
       1631  65E 0006DDF0 ?H0x01380005_RotateToEnemy_04@CEnemyRunInto@@QAEHABVCEntityEvent@@@Z
       1632  65F 0006DF90 ?H0x01380007_RunIntoEnemy_01@CEnemyRunInto@@QAEHABVCEntityEvent@@@Z
       1633  660 0006E2C0 ?H0x01380008_RunIntoEnemy_02@CEnemyRunInto@@QAEHABVCEntityEvent@@@Z
       1634  661 0006DEF0 ?H0x01380009_RunIntoEnemy_03@CEnemyRunInto@@QAEHABVCEntityEvent@@@Z
       1635  662 0006E320 ?H0x0138000a_RunIntoEnemy_04@CEnemyRunInto@@QAEHABVCEntityEvent@@@Z
       1636  663 0006E430 ?H0x0138000c_RunAwayFromEnemy_01@CEnemyRunInto@@QAEHABVCEntityEvent@@@Z
       1637  664 0006E670 ?H0x0138000d_RunAwayFromEnemy_02@CEnemyRunInto@@QAEHABVCEntityEvent@@@Z
       1638  665 000C6320 ?H0x01910013_DoAutoActions_01@CPlayer@@QAEHABVCEntityEvent@@@Z
       1639  666 000C63A0 ?H0x01910014_DoAutoActions_02@CPlayer@@QAEHABVCEntityEvent@@@Z
       1640  667 000C64F0 ?H0x01910015_DoAutoActions_03@CPlayer@@QAEHABVCEntityEvent@@@Z
       1641  668 000C6400 ?H0x01910016_DoAutoActions_04@CPlayer@@QAEHABVCEntityEvent@@@Z
       1642  669 000C6240 ?H0x01910017_DoAutoActions_05@CPlayer@@QAEHABVCEntityEvent@@@Z
       1643  66A 000C65D0 ?H0x01910018_DoAutoActions_06@CPlayer@@QAEHABVCEntityEvent@@@Z
       1644  66B 000C6A90 ?H0x01910019_Main_01@CPlayer@@QAEHABVCEntityEvent@@@Z
       1645  66C 000C6B50 ?H0x0191001a_Main_02@CPlayer@@QAEHABVCEntityEvent@@@Z
       1646  66D 000C70F0 ?H0x0191001b_Main_03@CPlayer@@QAEHABVCEntityEvent@@@Z
       1647  66E 000C8160 ?H0x0191001c_Main_04@CPlayer@@QAEHABVCEntityEvent@@@Z
       1648  66F 000D6350 ?H0x01930001_Main_01@CPlayerView@@QAEHABVCEntityEvent@@@Z
       1649  670 000D6410 ?H0x01930002_Main_02@CPlayerView@@QAEHABVCEntityEvent@@@Z
       1650  671 001185E0 ?H0x02bc0003_Active_01@CWatcher@@QAEHABVCEntityEvent@@@Z
       1651  672 001186D0 ?H0x02bc0004_Active_02@CWatcher@@QAEHABVCEntityEvent@@@Z
       1652  673 00118570 ?H0x02bc0005_Active_03@CWatcher@@QAEHABVCEntityEvent@@@Z
       1653  674 00118730 ?H0x02bc0006_Active_04@CWatcher@@QAEHABVCEntityEvent@@@Z
       1654  675 001187B0 ?H0x02bc0008_Inactive_01@CWatcher@@QAEHABVCEntityEvent@@@Z
       1655  676 00118830 ?H0x02bc0009_Inactive_02@CWatcher@@QAEHABVCEntityEvent@@@Z
       1656  677 001188B0 ?H0x02bc000b_Dummy_01@CWatcher@@QAEHABVCEntityEvent@@@Z
       1657  678 001188C0 ?H0x02bc000c_Dummy_02@CWatcher@@QAEHABVCEntityEvent@@@Z
       1658  679 001189B0 ?H0x02bc000d_Main_01@CWatcher@@QAEHABVCEntityEvent@@@Z
       1659  67A 00118A50 ?H0x02bc000e_Main_02@CWatcher@@QAEHABVCEntityEvent@@@Z
       1660  67B 000E0450 ?H0x02bf0001_Main_01@CReminder@@QAEHABVCEntityEvent@@@Z
       1661  67C 000E04D0 ?H0x02bf0002_Main_02@CReminder@@QAEHABVCEntityEvent@@@Z
       1662  67D 000E0560 ?H0x02bf0003_Main_03@CReminder@@QAEHABVCEntityEvent@@@Z
       1663  67E 000DFA70 ?H0x77270003_Active_01@CPulser@@QAEHABVCEntityEvent@@@Z
       1664  67F 000DFB60 ?H0x77270004_Active_02@CPulser@@QAEHABVCEntityEvent@@@Z
       1665  680 000DF9C0 ?H0x77270005_Active_03@CPulser@@QAEHABVCEntityEvent@@@Z
       1666  681 000DFC00 ?H0x77270006_Active_04@CPulser@@QAEHABVCEntityEvent@@@Z
       1667  682 000DFC80 ?H0x77270008_Inactive_01@CPulser@@QAEHABVCEntityEvent@@@Z
       1668  683 000DFD00 ?H0x77270009_Inactive_02@CPulser@@QAEHABVCEntityEvent@@@Z
       1669  684 000DFD80 ?H0x7727000b_Dummy_01@CPulser@@QAEHABVCEntityEvent@@@Z
       1670  685 000DFD90 ?H0x7727000c_Dummy_02@CPulser@@QAEHABVCEntityEvent@@@Z
       1671  686 000DFE80 ?H0x7727000d_Main_01@CPulser@@QAEHABVCEntityEvent@@@Z
       1672  687 000DFF20 ?H0x7727000e_Main_02@CPulser@@QAEHABVCEntityEvent@@@Z
       1673  688 0014AED0 ?HUDHandleWindowsMessage@@YAHABUtagMSG@@ABVCPlayer@@@Z
       1674  689 0014AFC0 ?HUDRetrieveGameMenuCommand@@YA?AW4eGameMenuCommand@@PAVCPlayer@@@Z
       1675  68A 0014B020 ?HUDSetBackpackUseKeyName@@YAXJABVCTString@@@Z
       1676  68B 0014B000 ?HUDSetGameMenuCommand@@YAXW4eGameMenuCommand@@PAVCPlayer@@@Z
       1677  68C 000647D0 ?HandleEvent@CEnemyBase@@UAEHABVCEntityEvent@@@Z
       1678  68D 000B7600 ?HandleFootprintsOverlay@CPlayer@@QAEXXZ
       1679  68E 000C5470 ?HandleTimeDelayedEvent@CPlayer@@QAEXABVETimeDelayed@@@Z
       1680  68F 000C54E0 ?HandleWaterTooDeepEvent@CPlayer@@QAEXXZ
       1681  690 0006DA80 ?HigherMass@CEnemyRunInto@@UAEHXZ
       1682  691 000672A0 ?Hit@CEnemyBase@@QAEHABVCEntityEvent@@@Z
       1683  692 0006A910 ?Hit@CEnemyDive@@QAEHABVCEntityEvent@@@Z
       1684  693 0006C9B0 ?Hit@CEnemyFly@@QAEHABVCEntityEvent@@@Z
       1685  694 001F64F8 ?HitZone_enum@@3VCEntityPropertyEnumType@@A
       1686  695 001F64C8 ?HitZone_values@@3PAVCEntityPropertyEnumValue@@A
       1687  696 00064730 ?IdleSound@CEnemyBase@@UAEXXZ
       1688  697 00060FF0 ?IfTargetCrushed@CEnemyBase@@QAEHPAVCEntity@@ABV?$Vector@M$02@@@Z
       1689  698 000B79B0 ?InEdgeOfWorld@CPlayer@@QAEHXZ
       1690  699 000B6D20 ?InVehicle@CPlayer@@QAEHXZ
       1691  69A 00068B00 ?Inactive@CEnemyBase@@QAEHABVCEntityEvent@@@Z
       1692  69B 000DFC10 ?Inactive@CPulser@@QAEHABVCEntityEvent@@@Z
       1693  69C 00118740 ?Inactive@CWatcher@@QAEHABVCEntityEvent@@@Z
       1694  69D 0006DA00 ?IncreaseKickedMass@CEnemyRunInto@@QAEXPAVCEntity@@@Z
       1695  69E 00017010 ?InitParticles@@YAXXZ
       1696  69F 000B26C0 ?InitPulsers@CPlayer@@QAEXXZ
       1697  6A0 000660A0 ?InitializeAttack@CEnemyBase@@QAEHABVCEntityEvent@@@Z
       1698  6A1 000C1BC0 ?InitializePlayer@CPlayer@@QAEXXZ
       1699  6A2 000B7DE0 ?IsConnected@CPlayer@@QBEHXZ
       1700  6A3 000C4DC0 ?IsCrawling@CPlayer@@QAEHXZ
       1701  6A4 000C4D90 ?IsCrouchWalking@CPlayer@@QAEHXZ
       1702  6A5 000C4E40 ?IsDogMoving@CPlayer@@QAEHXZ
       1703  6A6 000C11C0 ?IsGpsRaised@CPlayer@@QAEHXZ
       1704  6A7 00061410 ?IsInFrustum@CEnemyBase@@QAEHPAVCEntity@@M@Z
       1705  6A8 000614E0 ?IsInPlaneFrustum@CEnemyBase@@QAEHPAVCEntity@@M@Z
       1706  6A9 0009A8B0 ?IsMarker@CNavigationMarker@@UBEHXZ
       1707  6AA 000C4D00 ?IsMovingTreeStand@CPlayer@@QAEHXZ
       1708  6AB 000B8930 ?IsPlayerLocalOrDemo@CPlayer@@QAEHXZ
       1709  6AC 000C4D50 ?IsRunning@CPlayer@@QAEHXZ
       1710  6AD 00013730 ?IsTargetable@CEnemyBase@@UBEHXZ
       1711  6AE 00024960 ?IsTargetable@CNavigationMarker@@UBEHXZ
       1712  6AF 000C4DF0 ?IsTurning@CPlayer@@QAEHXZ
       1713  6B0 000C4E20 ?IsTurningFast@CPlayer@@QAEHXZ
       1714  6B1 00062D10 ?IsValidForEnemy@CEnemyBase@@QAEHPAVCEntity@@@Z
       1715  6B2 00061660 ?IsVisible@CEnemyBase@@QAEHPAVCEntity@@@Z
       1716  6B3 00061710 ?IsVisibleCheckAll@CEnemyBase@@QAEHPAVCEntity@@@Z
       1717  6B4 000C4D10 ?IsWalking@CPlayer@@QAEHXZ
       1718  6B5 0004A560 ?JumpFromBouncer@@YAXPAVCEntity@@0@Z
       1719  6B6 000018D0 ?KickEntity@@YAXPAVCEntity@@V?$Vector@M$02@@@Z
       1720  6B7 00064480 ?LeaveStain@CEnemyBase@@UAEXH@Z
       1721  6B8 001EE4F0 ?LensFlareType_enum@@3VCEntityPropertyEnumType@@A
       1722  6B9 001EE488 ?LensFlareType_values@@3PAVCEntityPropertyEnumValue@@A
       1723  6BA 00006B00 ?LerpPlacementsPrecise@@YA?AVCPlacement3D@@ABV1@0M@Z
       1724  6BB 001EE480 ?LightType_enum@@3VCEntityPropertyEnumType@@A
       1725  6BC 001EE458 ?LightType_values@@3PAVCEntityPropertyEnumValue@@A
       1726  6BD 000B6780 ?ListenFromEntity@CPlayer@@QAEXPAVCEntity@@ABVCPlacement3D@@@Z
       1727  6BE 0006DA30 ?LiveEntityTouched@CEnemyRunInto@@UAEXVETouch@@@Z
       1728  6BF 00067360 ?LockOnEnemy@CEnemyBase@@QAEHABVCEntityEvent@@@Z
       1729  6C0 00069360 ?Main@CEnemyBase@@QAEHABVCEntityEvent@@@Z
       1730  6C1 0006AA70 ?Main@CEnemyDive@@QAEHABVCEntityEvent@@@Z
       1731  6C2 0006CB90 ?Main@CEnemyFly@@QAEHABVCEntityEvent@@@Z
       1732  6C3 0006E750 ?Main@CEnemyRunInto@@QAEHABVCEntityEvent@@@Z
       1733  6C4 0009B7E0 ?Main@CNavigationMarker@@QAEHABVCEntityEvent@@@Z
       1734  6C5 000C6650 ?Main@CPlayer@@QAEHABVCEntityEvent@@@Z
       1735  6C6 000D6200 ?Main@CPlayerView@@QAEHABVCEntityEvent@@@Z
       1736  6C7 000DFDA0 ?Main@CPulser@@QAEHABVCEntityEvent@@@Z
       1737  6C8 000E0350 ?Main@CReminder@@QAEHABVCEntityEvent@@@Z
       1738  6C9 001188D0 ?Main@CWatcher@@QAEHABVCEntityEvent@@@Z
       1739  6CA 00068D40 ?MainLoop@CEnemyBase@@QAEHABVCEntityEvent@@@Z
       1740  6CB 0006AA10 ?MainLoop@CEnemyDive@@QAEHABVCEntityEvent@@@Z
       1741  6CC 0006CB30 ?MainLoop@CEnemyFly@@QAEHABVCEntityEvent@@@Z
       1742  6CD 0006E6F0 ?MainLoop@CEnemyRunInto@@QAEHABVCEntityEvent@@@Z
       1743  6CE 0012F6C0 ?MakeCopy@EAIEnterScrapePointHit@@UAEPAVCEntityEvent@@XZ
       1744  6CF 0012F700 ?MakeCopy@EAIExitScrapePointHit@@UAEPAVCEntityEvent@@XZ
       1745  6D0 000275E0 ?MakeCopy@EAIMoveFinished@@UAEPAVCEntityEvent@@XZ
       1746  6D1 00027620 ?MakeCopy@EAIMovePointHit@@UAEPAVCEntityEvent@@XZ
       1747  6D2 00035FE0 ?MakeCopy@EATVClicked@@UAEPAVCEntityEvent@@XZ
       1748  6D3 00036090 ?MakeCopy@EATVLoadOnTruck@@UAEPAVCEntityEvent@@XZ
       1749  6D4 00035EF0 ?MakeCopy@EATVStart@@UAEPAVCEntityEvent@@XZ
       1750  6D5 00035FA0 ?MakeCopy@EATVStop@@UAEPAVCEntityEvent@@XZ
       1751  6D6 00036140 ?MakeCopy@EATVUnloadOffTruck@@UAEPAVCEntityEvent@@XZ
       1752  6D7 0007C6B0 ?MakeCopy@EActivate@@UAEPAVCEntityEvent@@XZ
       1753  6D8 000CC950 ?MakeCopy@EAimLeft@@UAEPAVCEntityEvent@@XZ
       1754  6D9 000CC990 ?MakeCopy@EAimRight@@UAEPAVCEntityEvent@@XZ
       1755  6DA 000AB780 ?MakeCopy@EAnimalClaimed@@UAEPAVCEntityEvent@@XZ
       1756  6DB 0002B9C0 ?MakeCopy@EAnimalInit@@UAEPAVCEntityEvent@@XZ
       1757  6DC 000C9350 ?MakeCopy@EAnimatorInit@@UAEPAVCEntityEvent@@XZ
       1758  6DD 000AB5C0 ?MakeCopy@EAutoAction@@UAEPAVCEntityEvent@@XZ
       1759  6DE 00048CE0 ?MakeCopy@EBoatClicked@@UAEPAVCEntityEvent@@XZ
       1760  6DF 00048BF0 ?MakeCopy@EBoatStart@@UAEPAVCEntityEvent@@XZ
       1761  6E0 00048CA0 ?MakeCopy@EBoatStop@@UAEPAVCEntityEvent@@XZ
       1762  6E1 00094BF0 ?MakeCopy@EBrushDestroyed@@UAEPAVCEntityEvent@@XZ
       1763  6E2 00160290 ?MakeCopy@EBuckVitalShot@@UAEPAVCEntityEvent@@XZ
       1764  6E3 0003EC80 ?MakeCopy@ECallMade@@UAEPAVCEntityEvent@@XZ
       1765  6E4 00160630 ?MakeCopy@ECalledBuck@@UAEPAVCEntityEvent@@XZ
       1766  6E5 001605D0 ?MakeCopy@ECalledDoe@@UAEPAVCEntityEvent@@XZ
       1767  6E6 000AB3E0 ?MakeCopy@ECameraStart@@UAEPAVCEntityEvent@@XZ
       1768  6E7 000AB490 ?MakeCopy@ECameraStop@@UAEPAVCEntityEvent@@XZ
       1769  6E8 0007CBD0 ?MakeCopy@ECenterMessage@@UAEPAVCEntityEvent@@XZ
       1770  6E9 000317F0 ?MakeCopy@EChangeAnim@@UAEPAVCEntityEvent@@XZ
       1771  6EA 00084770 ?MakeCopy@EChangeGravity@@UAEPAVCEntityEvent@@XZ
       1772  6EB 00099560 ?MakeCopy@EChangeMusic@@UAEPAVCEntityEvent@@XZ
       1773  6EC 0007CF40 ?MakeCopy@EClicked@@UAEPAVCEntityEvent@@XZ
       1774  6ED 0007CCE0 ?MakeCopy@EComputerMessage@@UAEPAVCEntityEvent@@XZ
       1775  6EE 0012F880 ?MakeCopy@EDAAttracted@@UAEPAVCEntityEvent@@XZ
       1776  6EF 0012F7C0 ?MakeCopy@EDABed@@UAEPAVCEntityEvent@@XZ
       1777  6F0 0012F780 ?MakeCopy@EDADrink@@UAEPAVCEntityEvent@@XZ
       1778  6F1 0012F940 ?MakeCopy@EDADying@@UAEPAVCEntityEvent@@XZ
       1779  6F2 0012F740 ?MakeCopy@EDAEat@@UAEPAVCEntityEvent@@XZ
       1780  6F3 0012F980 ?MakeCopy@EDAFollowParent@@UAEPAVCEntityEvent@@XZ
       1781  6F4 0012FA00 ?MakeCopy@EDAHeardCall@@UAEPAVCEntityEvent@@XZ
       1782  6F5 0012F800 ?MakeCopy@EDAMarkTerritory@@UAEPAVCEntityEvent@@XZ
       1783  6F6 0012F9C0 ?MakeCopy@EDANothing@@UAEPAVCEntityEvent@@XZ
       1784  6F7 0012F840 ?MakeCopy@EDASearchForDeer@@UAEPAVCEntityEvent@@XZ
       1785  6F8 0012F8C0 ?MakeCopy@EDASpooked@@UAEPAVCEntityEvent@@XZ
       1786  6F9 0012F900 ?MakeCopy@EDAWounded@@UAEPAVCEntityEvent@@XZ
       1787  6FA 0007C6F0 ?MakeCopy@EDeactivate@@UAEPAVCEntityEvent@@XZ
       1788  6FB 00044F40 ?MakeCopy@EDecoyStart@@UAEPAVCEntityEvent@@XZ
       1789  6FC 00053F70 ?MakeCopy@EDeerCallInit@@UAEPAVCEntityEvent@@XZ
       1790  6FD 00054030 ?MakeCopy@EDeerCallMade@@UAEPAVCEntityEvent@@XZ
       1791  6FE 00055FB0 ?MakeCopy@EDeerDecoyRecalled@@UAEPAVCEntityEvent@@XZ
       1792  6FF 00055F00 ?MakeCopy@EDeerDecoyStart@@UAEPAVCEntityEvent@@XZ
       1793  700 000AB580 ?MakeCopy@EDisconnected@@UAEPAVCEntityEvent@@XZ
       1794  701 000522C0 ?MakeCopy@EDoDecal@@UAEPAVCEntityEvent@@XZ
       1795  702 001496D0 ?MakeCopy@EDoDeerBloodTrack@@UAEPAVCEntityEvent@@XZ
       1796  703 00149580 ?MakeCopy@EDoDeerTrack@@UAEPAVCEntityEvent@@XZ
       1797  704 001603B0 ?MakeCopy@EDoeVitalShot@@UAEPAVCEntityEvent@@XZ
       1798  705 0007C7B0 ?MakeCopy@EEnd@@UAEPAVCEntityEvent@@XZ
       1799  706 00053E90 ?MakeCopy@EEndCall@@UAEPAVCEntityEvent@@XZ
       1800  707 000F8600 ?MakeCopy@EEnteredLauncher@@UAEPAVCEntityEvent@@XZ
       1801  708 0007C730 ?MakeCopy@EEnvironmentStart@@UAEPAVCEntityEvent@@XZ
       1802  709 0007C770 ?MakeCopy@EEnvironmentStop@@UAEPAVCEntityEvent@@XZ
       1803  70A 000CC590 ?MakeCopy@EFireGun@@UAEPAVCEntityEvent@@XZ
       1804  70B 000606F0 ?MakeCopy@EForceWound@@UAEPAVCEntityEvent@@XZ
       1805  70C 00082010 ?MakeCopy@EGrasshopperParticlesInit@@UAEPAVCEntityEvent@@XZ
       1806  70D 000CC440 ?MakeCopy@EGunInit@@UAEPAVCEntityEvent@@XZ
       1807  70E 000CC6F0 ?MakeCopy@EGunIsUp@@UAEPAVCEntityEvent@@XZ
       1808  70F 000CC730 ?MakeCopy@EGunNotUp@@UAEPAVCEntityEvent@@XZ
       1809  710 000E6210 ?MakeCopy@EHarbor@@UAEPAVCEntityEvent@@XZ
       1810  711 000CC6B0 ?MakeCopy@EHeartbeat@@UAEPAVCEntityEvent@@XZ
       1811  712 00094BB0 ?MakeCopy@EHit@@UAEPAVCEntityEvent@@XZ
       1812  713 0007CF00 ?MakeCopy@EHitBySpaceShipBeam@@UAEPAVCEntityEvent@@XZ
       1813  714 001002C0 ?MakeCopy@EInitStand@@UAEPAVCEntityEvent@@XZ
       1814  715 000AB6D0 ?MakeCopy@EKilledDeer@@UAEPAVCEntityEvent@@XZ
       1815  716 0007CAA0 ?MakeCopy@EKilledEnemy@@UAEPAVCEntityEvent@@XZ
       1816  717 00085D70 ?MakeCopy@ELAAmbient@@UAEPAVCEntityEvent@@XZ
       1817  718 00085DB0 ?MakeCopy@ELAFlee@@UAEPAVCEntityEvent@@XZ
       1818  719 00085DF0 ?MakeCopy@ELASleep@@UAEPAVCEntityEvent@@XZ
       1819  71A 000F86B0 ?MakeCopy@ELaunchSkeet@@UAEPAVCEntityEvent@@XZ
       1820  71B 000F8760 ?MakeCopy@ELaunchTrap@@UAEPAVCEntityEvent@@XZ
       1821  71C 000CC610 ?MakeCopy@ELowerGun@@UAEPAVCEntityEvent@@XZ
       1822  71D 000D8480 ?MakeCopy@EMemberNotify@@UAEPAVCEntityEvent@@XZ
       1823  71E 000ABA20 ?MakeCopy@EMessage@@UAEPAVCEntityEvent@@XZ
       1824  71F 000CC810 ?MakeCopy@EPin1Down@@UAEPAVCEntityEvent@@XZ
       1825  720 000CC7D0 ?MakeCopy@EPin1Up@@UAEPAVCEntityEvent@@XZ
       1826  721 000CC890 ?MakeCopy@EPin2Down@@UAEPAVCEntityEvent@@XZ
       1827  722 000CC850 ?MakeCopy@EPin2Up@@UAEPAVCEntityEvent@@XZ
       1828  723 000CC910 ?MakeCopy@EPin3Down@@UAEPAVCEntityEvent@@XZ
       1829  724 000CC8D0 ?MakeCopy@EPin3Up@@UAEPAVCEntityEvent@@XZ
       1830  725 000AB890 ?MakeCopy@EPlayerFired@@UAEPAVCEntityEvent@@XZ
       1831  726 000AB830 ?MakeCopy@EProfileScore@@UAEPAVCEntityEvent@@XZ
       1832  727 000D82C0 ?MakeCopy@EProjectileHit@@UAEPAVCEntityEvent@@XZ
       1833  728 000D8420 ?MakeCopy@EProjectileInit@@UAEPAVCEntityEvent@@XZ
       1834  729 000DF890 ?MakeCopy@EPulse@@UAEPAVCEntityEvent@@XZ
       1835  72A 0010DC10 ?MakeCopy@EPulseAnimation@@UAEPAVCEntityEvent@@XZ
       1836  72B 0010DC50 ?MakeCopy@EPulseMover@@UAEPAVCEntityEvent@@XZ
       1837  72C 000DF7E0 ?MakeCopy@EPulserInit@@UAEPAVCEntityEvent@@XZ
       1838  72D 000E1000 ?MakeCopy@ERAmbient@@UAEPAVCEntityEvent@@XZ
       1839  72E 000E1040 ?MakeCopy@ERFlee@@UAEPAVCEntityEvent@@XZ
       1840  72F 000E1080 ?MakeCopy@ERSleep@@UAEPAVCEntityEvent@@XZ
       1841  730 000CC5D0 ?MakeCopy@ERaiseGun@@UAEPAVCEntityEvent@@XZ
       1842  731 0008C290 ?MakeCopy@ERangeModelDestruction@@UAEPAVCEntityEvent@@XZ
       1843  732 000AB540 ?MakeCopy@ERebirth@@UAEPAVCEntityEvent@@XZ
       1844  733 0007CA40 ?MakeCopy@EReceiveScore@@UAEPAVCEntityEvent@@XZ
       1845  734 000606B0 ?MakeCopy@EReconsiderBehavior@@UAEPAVCEntityEvent@@XZ
       1846  735 00160170 ?MakeCopy@ERecordBuckVitalShot@@UAEPAVCEntityEvent@@XZ
       1847  736 000CC670 ?MakeCopy@EReloadGun@@UAEPAVCEntityEvent@@XZ
       1848  737 0007C8E0 ?MakeCopy@EReminder@@UAEPAVCEntityEvent@@XZ
       1849  738 000E0240 ?MakeCopy@EReminderInit@@UAEPAVCEntityEvent@@XZ
       1850  739 00060670 ?MakeCopy@ERestartAttack@@UAEPAVCEntityEvent@@XZ
       1851  73A 000AB930 ?MakeCopy@ERoundChange@@UAEPAVCEntityEvent@@XZ
       1852  73B 000E82A0 ?MakeCopy@ESBAmbient@@UAEPAVCEntityEvent@@XZ
       1853  73C 000E82E0 ?MakeCopy@ESBFlee@@UAEPAVCEntityEvent@@XZ
       1854  73D 000E8320 ?MakeCopy@ESBSleep@@UAEPAVCEntityEvent@@XZ
       1855  73E 000F9FE0 ?MakeCopy@ESGAmbient@@UAEPAVCEntityEvent@@XZ
       1856  73F 000FA020 ?MakeCopy@ESGFlee@@UAEPAVCEntityEvent@@XZ
       1857  740 000FA060 ?MakeCopy@ESGSleep@@UAEPAVCEntityEvent@@XZ
       1858  741 0007CAE0 ?MakeCopy@ESecretFound@@UAEPAVCEntityEvent@@XZ
       1859  742 00053F10 ?MakeCopy@ESetCall@@UAEPAVCEntityEvent@@XZ
       1860  743 000CC770 ?MakeCopy@ESetGunFireOffset@@UAEPAVCEntityEvent@@XZ
       1861  744 000D8140 ?MakeCopy@EShotPenalty@@UAEPAVCEntityEvent@@XZ
       1862  745 000AB670 ?MakeCopy@ESlideTreeStand@@UAEPAVCEntityEvent@@XZ
       1863  746 0007CB20 ?MakeCopy@ESound@@UAEPAVCEntityEvent@@XZ
       1864  747 00050FF0 ?MakeCopy@ESpawnDebris@@UAEPAVCEntityEvent@@XZ
       1865  748 0003C790 ?MakeCopy@ESpawnEffect@@UAEPAVCEntityEvent@@XZ
       1866  749 0005DDA0 ?MakeCopy@ESpawnEffector@@UAEPAVCEntityEvent@@XZ
       1867  74A 00047610 ?MakeCopy@ESpawnSpray@@UAEPAVCEntityEvent@@XZ
       1868  74B 00160910 ?MakeCopy@EStalkedBuck@@UAEPAVCEntityEvent@@XZ
       1869  74C 001608B0 ?MakeCopy@EStalkedDoe@@UAEPAVCEntityEvent@@XZ
       1870  74D 0007C600 ?MakeCopy@EStart@@UAEPAVCEntityEvent@@XZ
       1871  74E 0007C940 ?MakeCopy@EStartAttack@@UAEPAVCEntityEvent@@XZ
       1872  74F 00053E50 ?MakeCopy@EStartCall@@UAEPAVCEntityEvent@@XZ
       1873  750 0007C5C0 ?MakeCopy@EStop@@UAEPAVCEntityEvent@@XZ
       1874  751 0007C980 ?MakeCopy@EStopAttack@@UAEPAVCEntityEvent@@XZ
       1875  752 0007C9C0 ?MakeCopy@EStopBlindness@@UAEPAVCEntityEvent@@XZ
       1876  753 0007CA00 ?MakeCopy@EStopDeafness@@UAEPAVCEntityEvent@@XZ
       1877  754 000F8810 ?MakeCopy@EStrength@@UAEPAVCEntityEvent@@XZ
       1878  755 00105F30 ?MakeCopy@ESurroundParticleSystemInit@@UAEPAVCEntityEvent@@XZ
       1879  756 001604C0 ?MakeCopy@ETargetBullsEye@@UAEPAVCEntityEvent@@XZ
       1880  757 0007C8A0 ?MakeCopy@ETeleportMovingBrush@@UAEPAVCEntityEvent@@XZ
       1881  758 0010DBD0 ?MakeCopy@EThink@@UAEPAVCEntityEvent@@XZ
       1882  759 0010DB10 ?MakeCopy@EThinkerInit@@UAEPAVCEntityEvent@@XZ
       1883  75A 0010E6E0 ?MakeCopy@ETimeDelayed@@UAEPAVCEntityEvent@@XZ
       1884  75B 00160870 ?MakeCopy@ETrackedBloodTrail@@UAEPAVCEntityEvent@@XZ
       1885  75C 00160780 ?MakeCopy@ETrackedBuckTrack@@UAEPAVCEntityEvent@@XZ
       1886  75D 00160690 ?MakeCopy@ETrackedDoeTrack@@UAEPAVCEntityEvent@@XZ
       1887  75E 0007C7F0 ?MakeCopy@ETrigger@@UAEPAVCEntityEvent@@XZ
       1888  75F 00113590 ?MakeCopy@ETruckClicked@@UAEPAVCEntityEvent@@XZ
       1889  760 00113510 ?MakeCopy@ETruckFirstPersonView@@UAEPAVCEntityEvent@@XZ
       1890  761 00113640 ?MakeCopy@ETruckLoadATV@@UAEPAVCEntityEvent@@XZ
       1891  762 00113420 ?MakeCopy@ETruckStart@@UAEPAVCEntityEvent@@XZ
       1892  763 001134D0 ?MakeCopy@ETruckStop@@UAEPAVCEntityEvent@@XZ
       1893  764 00113550 ?MakeCopy@ETruckThirdPersonView@@UAEPAVCEntityEvent@@XZ
       1894  765 0007CFF0 ?MakeCopy@EUseCall@@UAEPAVCEntityEvent@@XZ
       1895  766 00053ED0 ?MakeCopy@EUseNextCall@@UAEPAVCEntityEvent@@XZ
       1896  767 000D5680 ?MakeCopy@EViewInit@@UAEPAVCEntityEvent@@XZ
       1897  768 0007CDF0 ?MakeCopy@EVoiceMessage@@UAEPAVCEntityEvent@@XZ
       1898  769 00117BF0 ?MakeCopy@EWatch@@UAEPAVCEntityEvent@@XZ
       1899  76A 00117B40 ?MakeCopy@EWatcherInit@@UAEPAVCEntityEvent@@XZ
       1900  76B 000D6AC0 ?MakeCopy@EWeaponEffectInit@@UAEPAVCEntityEvent@@XZ
       1901  76C 000AB970 ?MakeCopy@EWorldClick@@UAEPAVCEntityEvent@@XZ
       1902  76D 0007DFF0 ?MakeCopy@GPSCenterView@@UAEPAVCEntityEvent@@XZ
       1903  76E 0007DFB0 ?MakeCopy@GPSClearWayPoint@@UAEPAVCEntityEvent@@XZ
       1904  76F 0007DEB0 ?MakeCopy@GPSModeBig@@UAEPAVCEntityEvent@@XZ
       1905  770 0007DEF0 ?MakeCopy@GPSModeSmall@@UAEPAVCEntityEvent@@XZ
       1906  771 0007DDF0 ?MakeCopy@GPSMoveDown@@UAEPAVCEntityEvent@@XZ
       1907  772 0007DD30 ?MakeCopy@GPSMoveLeft@@UAEPAVCEntityEvent@@XZ
       1908  773 0007DD70 ?MakeCopy@GPSMoveRight@@UAEPAVCEntityEvent@@XZ
       1909  774 0007DDB0 ?MakeCopy@GPSMoveUp@@UAEPAVCEntityEvent@@XZ
       1910  775 0007DF70 ?MakeCopy@GPSNextWayPoint@@UAEPAVCEntityEvent@@XZ
       1911  776 0007DE30 ?MakeCopy@GPSRaiseLower@@UAEPAVCEntityEvent@@XZ
       1912  777 0007DF30 ?MakeCopy@GPSSetWayPoint@@UAEPAVCEntityEvent@@XZ
       1913  778 0007DE70 ?MakeCopy@GPSSwitchModes@@UAEPAVCEntityEvent@@XZ
       1914  779 0007DCB0 ?MakeCopy@GPSZoomIn@@UAEPAVCEntityEvent@@XZ
       1915  77A 0007DCF0 ?MakeCopy@GPSZoomOut@@UAEPAVCEntityEvent@@XZ
       1916  77B 000643B0 ?MayMoveToAttack@CEnemyBase@@UAEHXZ
       1917  77C 0006A880 ?MayMoveToAttack@CEnemyDive@@UAEHXZ
       1918  77D 00060D80 ?MaybeSwitchToAnotherPlayer@CEnemyBase@@QAEXXZ
       1919  77E 001ECD60 ?MessageSound_enum@@3VCEntityPropertyEnumType@@A
       1920  77F 001ECD50 ?MessageSound_values@@3PAVCEntityPropertyEnumValue@@A
       1921  780 000654A0 ?MoveThroughMarkers@CEnemyBase@@QAEHABVCEntityEvent@@@Z
       1922  781 00064970 ?MoveToDestination@CEnemyBase@@QAEHABVCEntityEvent@@@Z
       1923  782 00064C10 ?MoveToRandomPatrolPosition@CEnemyBase@@QAEHABVCEntityEvent@@@Z
       1924  783 000630A0 ?MovementAnimation@CEnemyBase@@UAEXK@Z
       1925  784 00061D10 ?MovesByTargetedRoute@CEnemyBase@@UBEHAAVCTString@@@Z
       1926  785 001EFE88 ?MusicType_enum@@3VCEntityPropertyEnumType@@A
       1927  786 001EFE60 ?MusicType_values@@3PAVCEntityPropertyEnumValue@@A
       1928  787 000B0DA0 ?MyTruckLoaded@CPlayer@@UAEHXZ
       1929  788 00065D60 ?NewEnemySpotted@CEnemyBase@@QAEHABVCEntityEvent@@@Z
       1930  789 000010D0 ?NewMessage@CCompMessageID@@QAEXABVCTFileName@@@Z
       1931  78A 000B0DC0 ?OnATVCloseToTruck@CPlayer@@QAEHXZ
       1932  78B 001F0CB8 ?OpticType_enum@@3VCEntityPropertyEnumType@@A
       1933  78C 001F0C78 ?OpticType_values@@3PAVCEntityPropertyEnumValue@@A
       1934  78D 00202F78 ?PP_BroadSkill_enum@@3VCEntityPropertyEnumType@@A
       1935  78E 00202F50 ?PP_BroadSkill_values@@3PAVCEntityPropertyEnumValue@@A
       1936  78F 00203028 ?PP_Skill_enum@@3VCEntityPropertyEnumType@@A
       1937  790 00202F80 ?PP_Skill_values@@3PAVCEntityPropertyEnumValue@@A
       1938  791 001F0688 ?PSBlendType_enum@@3VCEntityPropertyEnumType@@A
       1939  792 001F0658 ?PSBlendType_values@@3PAVCEntityPropertyEnumValue@@A
       1940  793 001F06C0 ?PSFadeType_enum@@3VCEntityPropertyEnumType@@A
       1941  794 001F06A8 ?PSFadeType_values@@3PAVCEntityPropertyEnumValue@@A
       1942  795 001F06A0 ?PSPartType_enum@@3VCEntityPropertyEnumType@@A
       1943  796 001F0690 ?PSPartType_values@@3PAVCEntityPropertyEnumValue@@A
       1944  797 001F06D8 ?PSScaleType_enum@@3VCEntityPropertyEnumType@@A
       1945  798 001F06C8 ?PSScaleType_values@@3PAVCEntityPropertyEnumValue@@A
       1946  799 001ECDE0 ?ParticleTexture_enum@@3VCEntityPropertyEnumType@@A
       1947  79A 001ECD68 ?ParticleTexture_values@@3PAVCEntityPropertyEnumValue@@A
       1948  79B 001F0470 ?ParticlesHolderType_enum@@3VCEntityPropertyEnumType@@A
       1949  79C 001F0400 ?ParticlesHolderType_values@@3PAVCEntityPropertyEnumValue@@A
       1950  79D 000217A0 ?Particles_Appearing@@YAXPAVCEntity@@M@Z
       1951  79E 0001D340 ?Particles_Atomic@@YAXPAVCEntity@@MMW4ParticleTexture@@J@Z
       1952  79F 00019240 ?Particles_BeastBigProjectileTrail@@YAXPAVCEntity@@MMMJ@Z
       1953  7A0 00019230 ?Particles_BeastBigProjectileTrail_Prepare@@YAXPAVCEntity@@@Z
       1954  7A1 00018B40 ?Particles_BeastProjectileDebrisTrail@@YAXPAVCEntity@@M@Z
       1955  7A2 00018B30 ?Particles_BeastProjectileDebrisTrail_Prepare@@YAXPAVCEntity@@@Z
       1956  7A3 00018CD0 ?Particles_BeastProjectileTrail@@YAXPAVCEntity@@MMJ@Z
       1957  7A4 00018CC0 ?Particles_BeastProjectileTrail_Prepare@@YAXPAVCEntity@@@Z
       1958  7A5 00021980 ?Particles_BloodSpray@@YAXW4SprayParticlesType@@PAVCEntity@@V?$Vector@M$02@@MV?$AABBox@M$02@@2MM@Z
       1959  7A6 00019C20 ?Particles_BloodTrail@@YAXPAVCEntity@@@Z
       1960  7A7 00017970 ?Particles_BombTrail@@YAXPAVCEntity@@@Z
       1961  7A8 00017960 ?Particles_BombTrail_Prepare@@YAXPAVCEntity@@@Z
       1962  7A9 0001FC90 ?Particles_BulletSpray@@YAXPAVCEntity@@V?$Vector@M$02@@W4EffectParticlesType@@M1@Z
       1963  7AA 00018680 ?Particles_CannonBall@@YAXPAVCEntity@@M@Z
       1964  7AB 00018670 ?Particles_CannonBall_Prepare@@YAXPAVCEntity@@@Z
       1965  7AC 00017F40 ?Particles_ColoredStarsTrail@@YAXPAVCEntity@@@Z
       1966  7AD 0001C2B0 ?Particles_DamageSmoke@@YAXPAVCEntity@@MV?$AABBox@M$02@@M@Z
       1967  7AE 000212F0 ?Particles_Death@@YAXPAVCEntity@@M@Z
       1968  7AF 00022290 ?Particles_DestroyingObelisk@@YAXPAVCEntity@@M@Z
       1969  7B0 00022620 ?Particles_DestroyingPylon@@YAXPAVCEntity@@V?$Vector@M$02@@M@Z
       1970  7B1 0001CCC0 ?Particles_ElectricitySparks@@YAXPAVCEntity@@MMMJ@Z
       1971  7B2 0001B630 ?Particles_Emanate@@YAXPAVCEntity@@MMW4ParticleTexture@@J@Z
       1972  7B3 0001BC50 ?Particles_EmanatePlane@@YAXPAVCEntity@@MMMMMMW4ParticleTexture@@J@Z
       1973  7B4 000201E0 ?Particles_EmptyShells@@YAXPAVCEntity@@PAUShellLaunchData@@@Z
       1974  7B5 00019E30 ?Particles_FireBreath@@YAJPAVCEntity@@V?$Vector@M$02@@1MM@Z
       1975  7B6 00018190 ?Particles_Fireball01Trail@@YAXPAVCEntity@@@Z
       1976  7B7 00018180 ?Particles_Fireball01Trail_Prepare@@YAXPAVCEntity@@@Z
       1977  7B8 00017BC0 ?Particles_FirecrackerTrail@@YAXPAVCEntity@@@Z
       1978  7B9 00017BB0 ?Particles_FirecrackerTrail_Prepare@@YAXPAVCEntity@@@Z
       1979  7BA 0001A9F0 ?Particles_FlameThrower@@YAXABVCPlacement3D@@0MM@Z
       1980  7BB 0001BF50 ?Particles_Fountain@@YAXPAVCEntity@@MMW4ParticleTexture@@J@Z
       1981  7BC 0001D7A0 ?Particles_Ghostbuster@@YAXABV?$Vector@M$02@@0JMMM@Z
       1982  7BD 000183C0 ?Particles_GrenadeTrail@@YAXPAVCEntity@@@Z
       1983  7BE 000183B0 ?Particles_GrenadeTrail_Prepare@@YAXPAVCEntity@@@Z
       1984  7BF 00022AA0 ?Particles_HitGround@@YAXPAVCEntity@@MM@Z
       1985  7C0 00018950 ?Particles_LavaBombTrail@@YAXPAVCEntity@@M@Z
       1986  7C1 00018940 ?Particles_LavaBombTrail_Prepare@@YAXPAVCEntity@@@Z
       1987  7C2 0001D1C0 ?Particles_LavaErupting@@YAXPAVCEntity@@MMMMMM@Z
       1988  7C3 0001F890 ?Particles_LavaFlow@@YAXPAVCEntity@@MMMMMJ@Z
       1989  7C4 000187C0 ?Particles_LavaTrail@@YAXPAVCEntity@@@Z
       1990  7C5 000187B0 ?Particles_LavaTrail_Prepare@@YAXPAVCEntity@@@Z
       1991  7C6 0001F000 ?Particles_Lightning@@YAXV?$Vector@M$02@@0M@Z
       1992  7C7 0001C960 ?Particles_MetalParts@@YAXPAVCEntity@@MV?$AABBox@M$02@@M@Z
       1993  7C8 0001DC20 ?Particles_Rain@@YAXPAVCEntity@@MJMPAVCTextureData@@AAV?$AABBox@M$02@@@Z
       1994  7C9 0001A1C0 ?Particles_Regeneration@@YAJPAVCEntity@@MMMH@Z
       1995  7CA 0001B060 ?Particles_Rising@@YAXPAVCEntity@@MMMMMMMW4ParticleTexture@@J@Z
       1996  7CB 00019840 ?Particles_RocketTrail@@YAXPAVCEntity@@M@Z
       1997  7CC 00019830 ?Particles_RocketTrail_Prepare@@YAXPAVCEntity@@@Z
       1998  7CD 00017810 ?Particles_RomboidTrail@@YAXPAVCEntity@@@Z
       1999  7CE 0001C5C0 ?Particles_RunningDust@@YAXPAVCEntity@@@Z
       2000  7CF 0001C5B0 ?Particles_RunningDust_Prepare@@YAXPAVCEntity@@@Z
       2001  7D0 0001F0B0 ?Particles_SandFlow@@YAXPAVCEntity@@MMMMMJ@Z
       2002  7D1 0001E5C0 ?Particles_Snow@@YAXPAVCEntity@@MJMPAVCTextureData@@AAV?$AABBox@M$02@@MM@Z
       2003  7D2 0001B3C0 ?Particles_Spiral@@YAXPAVCEntity@@MMW4ParticleTexture@@J@Z
       2004  7D3 00017E10 ?Particles_SpiralTrail@@YAXPAVCEntity@@@Z
       2005  7D4 0001AE20 ?Particles_Stardust@@YAXPAVCEntity@@MMW4ParticleTexture@@J@Z
       2006  7D5 0001E0D0 ?Particles_VehicleSplash@@YAXPAVCEntity@@MJMM@Z
       2007  7D6 00017670 ?Particles_ViewerLocal@@YAXPAVCEntity@@@Z
       2008  7D7 0001F4A0 ?Particles_WaterFlow@@YAXPAVCEntity@@MMMMMJ@Z
       2009  7D8 0001B880 ?Particles_WaterfallFoam@@YAXPAVCEntity@@MMMMMMMJ@Z
       2010  7D9 00018050 ?Particles_WhiteLineTrail@@YAXPAVCEntity@@@Z
       2011  7DA 00066600 ?PerformAttack@CEnemyBase@@QAEHABVCEntityEvent@@@Z
       2012  7DB 000BDAD0 ?PlayMovingSounds@CPlayer@@QAEXXZ
       2013  7DC 001F4988 ?PlayerAutoAction_enum@@3VCEntityPropertyEnumType@@A
       2014  7DD 001F48C0 ?PlayerAutoAction_values@@3PAVCEntityPropertyEnumValue@@A
       2015  7DE 00060F20 ?PlayerDestinationPos@CEnemyBase@@UAE?AV?$Vector@M$02@@XZ
       2016  7DF 0006B760 ?PlayerDestinationPos@CEnemyFly@@UAE?AV?$Vector@M$02@@XZ
       2017  7E0 001F0BE8 ?PlayerInterfaceType_enum@@3VCEntityPropertyEnumType@@A
       2018  7E1 001F0B78 ?PlayerInterfaceType_values@@3PAVCEntityPropertyEnumValue@@A
       2019  7E2 000C4C80 ?PlayerPhysics@CPlayer@@QAEXXZ
       2020  7E3 001F0C70 ?PlayerPrimaryState_enum@@3VCEntityPropertyEnumType@@A
       2021  7E4 001F0BF0 ?PlayerPrimaryState_values@@3PAVCEntityPropertyEnumValue@@A
       2022  7E5 001F0CD0 ?PlayerSex_enum@@3VCEntityPropertyEnumType@@A
       2023  7E6 001F0CC0 ?PlayerSex_values@@3PAVCEntityPropertyEnumValue@@A
       2024  7E7 001F0B70 ?PlayerViewType_enum@@3VCEntityPropertyEnumType@@A
       2025  7E8 001F0B50 ?PlayerViewType_values@@3PAVCEntityPropertyEnumValue@@A
       2026  7E9 000B2DF0 ?PopZoomOut@CPlayer@@QAEXXZ
       2027  7EA 0006A5C0 ?PostMoving@CEnemyDive@@UAEXXZ
       2028  7EB 000B7A10 ?PostMoving@CPlayer@@UAEXXZ
       2029  7EC 000D58B0 ?PostMoving@CPlayerView@@UAEXXZ
       2030  7ED 00068CE0 ?PreMainLoop@CEnemyBase@@QAEHABVCEntityEvent@@@Z
       2031  7EE 000B74C0 ?PreMoving@CPlayer@@UAEXXZ
       2032  7EF 000D5880 ?PreMoving@CPlayerView@@UAEXXZ
       2033  7F0 000B8920 ?PreapplyAction@CPlayer@@QAEXABVCPlayerAction@@@Z
       2034  7F1 00060E80 ?Precache@CEnemyBase@@UAEXXZ
       2035  7F2 000B8960 ?PrepareDemoMode@CPlayer@@QAEXXZ
       2036  7F3 00063BC0 ?PrepareFreeFlyingProjectile@CEnemyBase@@QAEXAAVCPlacement3D@@V?$Vector@M$02@@AAV3@2@Z
       2037  7F4 000637F0 ?PreparePropelledProjectile@CEnemyBase@@QAEXAAVCPlacement3D@@V?$Vector@M$02@@AAV3@2@Z
       2038  7F5 00006850 ?PrintCenterMessage@@YAXPAVCEntity@@0ABVCTString@@MW4MessageSound@@@Z
       2039  7F6 00006240 ?PrintConsole@@YAPBDXZ
       2040  7F7 00006250 ?PrintStack@@YAPBDPAVCEntity@@@Z
       2041  7F8 000C5A60 ?Pulse@CPlayer@@QAEHABVCEntityEvent@@@Z
       2042  7F9 000BC040 ?QueryGroundType@CPlayer@@QAEXXZ
       2043  7FA 000BFFD0 ?RaiseLowerWeapon@CPlayer@@QAEHXZ
       2044  7FB 000BFF20 ?ReactToWorldClick@CPlayer@@QAEXJ@Z
       2045  7FC 0000ABE0 ?Read@PlayerAnimState@@QAEXPAVCTStream@@@Z
       2046  7FD 00001030 ?Read_t@CCompMessageID@@QAEXAAVCTStream@@@Z
       2047  7FE 00061F80 ?Read_t@CEnemyBase@@UAEXPAVCTStream@@@Z
       2048  7FF 0009AA60 ?Read_t@CNavigationMarker@@UAEXPAVCTStream@@@Z
       2049  800 000B15D0 ?Read_t@CPlayer@@UAEXPAVCTStream@@@Z
       2050  801 000FEBA0 ?Read_t@CSoundHolder@@UAEXPAVCTStream@@@Z
       2051  802 001165B0 ?Read_t@CVoiceHolder@@UAEXPAVCTStream@@@Z
       2052  803 000C60F0 ?Rebirth@CPlayer@@QAEHABVCEntityEvent@@@Z
       2053  804 000620D0 ?ReceiveDamage@CEnemyBase@@UAEXPAVCEntity@@W4DamageType@@MABV?$Vector@M$02@@20@Z
       2054  805 000C2D30 ?RecordEndOfLevelData@CPlayer@@QAEXXZ
       2055  806 00001A20 ?RemoveAttachmentFromModel@@YAXAAVCModelObject@@J@Z
       2056  807 00062B30 ?RemoveFromFuss@CEnemyBase@@QAEXXZ
       2057  808 000B6FD0 ?RenderCameraView@CPlayer@@QAEXPAVCDrawPort@@H@Z
       2058  809 000B6850 ?RenderDummyView@CPlayer@@QAEXPAVCDrawPort@@@Z
       2059  80A 000B7240 ?RenderGameView@CPlayer@@UAEXPAVCDrawPort@@PAX@Z
       2060  80B 000C1830 ?RenderHUD@CPlayer@@QAEXAAVCPerspectiveProjection3D@@PAVCDrawPort@@V?$Vector@M$02@@KKHJ@Z
       2061  80C 00064780 ?RenderParticles@CEnemyBase@@UAEXXZ
       2062  80D 0009AB20 ?RenderParticles@CNavigationMarker@@UAEXXZ
       2063  80E 000C2E80 ?RenderParticles@CPlayer@@UAEXXZ
       2064  80F 000D5910 ?RenderParticles@CPlayerView@@UAEXXZ
       2065  810 000B6970 ?RenderPlayerView@CPlayer@@QAEXPAVCDrawPort@@H@Z
       2066  811 000B6D50 ?RenderSunGlare@CPlayer@@QAEXPAVCDrawPort@@@Z
       2067  812 0015C430 ?ResetSelectControls@@YAXXZ
       2068  813 000B0C30 ?ResetWobble@CPlayer@@QAEXM@Z
       2069  814 00065440 ?ReturnToStartPosition@CEnemyBase@@QAEHABVCEntityEvent@@@Z
       2070  815 0006BB90 ?ReturnToStartPosition@CEnemyFly@@QAEHABVCEntityEvent@@@Z
       2071  816 001FB3D8 ?RndType_enum@@3VCEntityPropertyEnumType@@A
       2072  817 001FB3C0 ?RndType_values@@3PAVCEntityPropertyEnumValue@@A
       2073  818 0006DB20 ?RotateToEnemy@CEnemyRunInto@@QAEHABVCEntityEvent@@@Z
       2074  819 000646D0 ?RotatingAnim@CEnemyBase@@UAEXXZ
       2075  81A 000BDE10 ?RoundViewAngle@CPlayer@@QAEXAAMM@Z
       2076  81B 000BDE70 ?RoundViewAngleDown@CPlayer@@QAEXAAMM@Z
       2077  81C 000BDE50 ?RoundViewAngleUp@CPlayer@@QAEXAAMM@Z
       2078  81D 0006E380 ?RunAwayFromEnemy@CEnemyRunInto@@QAEHABVCEntityEvent@@@Z
       2079  81E 0006DE50 ?RunIntoEnemy@CEnemyRunInto@@QAEHABVCEntityEvent@@@Z
       2080  81F 000646C0 ?RunningAnim@CEnemyBase@@UAEXXZ
       2081  820 001F9570 ?SOUND_SEASON_enum@@3VCEntityPropertyEnumType@@A
       2082  821 001F9520 ?SOUND_SEASON_values@@3PAVCEntityPropertyEnumValue@@A
       2083  822 000B1CD0 ?SaveGameBag@CPlayer@@QAEXXZ
       2084  823 000B5C10 ?SayVoiceMessage@CPlayer@@QAEXABVCTFileName@@@Z
       2085  824 00063780 ?SeeEntity@CEnemyBase@@QAEHPAVCEntity@@M@Z
       2086  825 000637B0 ?SeeEntityInPlane@CEnemyBase@@QAEHPAVCEntity@@M@Z
       2087  826 000645A0 ?SeeNotify@CEnemyBase@@QAEXXZ
       2088  827 000015C0 ?SendInRange@@YAXPAVCEntity@@W4EventEType@@ABV?$AABBox@M$02@@@Z
       2089  828 000013D0 ?SendToTarget@@YAXPAVCEntity@@W4EventEType@@0@Z
       2090  829 00117E90 ?SendWatchEvent@CWatcher@@QAEXPAVCEntity@@@Z
       2091  82A 000013A0 ?SetBoolFromBoolEType@@YAXAAHW4BoolEType@@@Z
       2092  82B 000D5A50 ?SetCameraPosition@CPlayerView@@QAEXXZ
       2093  82C 000D5930 ?SetCameraPositionForDemo@CPlayerView@@QAEXXZ
       2094  82D 00001940 ?SetComponents@@YAXPAVCEntity@@AAVCModelObject@@KKKKK@Z
       2095  82E 000B7DA0 ?SetConnected@CPlayer@@QAEXXZ
       2096  82F 000C4330 ?SetCurrentGun@CPlayer@@QAEXJ@Z
       2097  830 000B2A80 ?SetCurrentScope@CPlayer@@QAEXJ@Z
       2098  831 000B5E30 ?SetDefaultMouthPitch@CPlayer@@QAEXXZ
       2099  832 00122510 ?SetDefaultProperties@AmbientHelper@@UAEXXZ
       2100  833 00026060 ?SetDefaultProperties@CAIAnimator@@UAEXXZ
       2101  834 00027660 ?SetDefaultProperties@CAIBase@@UAEXXZ
       2102  835 0002BB70 ?SetDefaultProperties@CAIController@@UAEXXZ
       2103  836 0002F890 ?SetDefaultProperties@CAIMover@@UAEXXZ
       2104  837 000362D0 ?SetDefaultProperties@CATV@@UAEXXZ
       2105  838 000308F0 ?SetDefaultProperties@CAmmoShell@@UAEXXZ
       2106  839 000318A0 ?SetDefaultProperties@CAnimationChanger@@UAEXXZ
       2107  83A 00032850 ?SetDefaultProperties@CAnimationHub@@UAEXXZ
       2108  83B 00123FA0 ?SetDefaultProperties@CBFly@@UAEXXZ
       2109  83C 00039AC0 ?SetDefaultProperties@CBackgroundViewer@@UAEXXZ
       2110  83D 0003ADE0 ?SetDefaultProperties@CBaggedGame@@UAEXXZ
       2111  83E 0003C8E0 ?SetDefaultProperties@CBasicEffect@@UAEXXZ
       2112  83F 0003ED90 ?SetDefaultProperties@CBirdCall@@UAEXXZ
       2113  840 0003FCA0 ?SetDefaultProperties@CBirdCallDoubleReed@@UAEXXZ
       2114  841 00040690 ?SetDefaultProperties@CBirdCallGooseFlute@@UAEXXZ
       2115  842 00041080 ?SetDefaultProperties@CBirdCallPintailWhistle@@UAEXXZ
       2116  843 00041A70 ?SetDefaultProperties@CBirdCallSingleReed@@UAEXXZ
       2117  844 00042460 ?SetDefaultProperties@CBirdCallTealWhistle@@UAEXXZ
       2118  845 00042E50 ?SetDefaultProperties@CBirdCallTurkeyBox@@UAEXXZ
       2119  846 00043840 ?SetDefaultProperties@CBirdCallTurkeyDiaph@@UAEXXZ
       2120  847 00044230 ?SetDefaultProperties@CBirdCallTurkeySlate@@UAEXXZ
       2121  848 00045000 ?SetDefaultProperties@CBirdDecoy@@UAEXXZ
       2122  849 00045ED0 ?SetDefaultProperties@CBlendController@@UAEXXZ
       2123  84A 000466F0 ?SetDefaultProperties@CBlind@@UAEXXZ
       2124  84B 00047710 ?SetDefaultProperties@CBloodSpray@@UAEXXZ
       2125  84C 00048E20 ?SetDefaultProperties@CBoat@@UAEXXZ
       2126  84D 0004A5E0 ?SetDefaultProperties@CBouncer@@UAEXXZ
       2127  84E 0004ABC0 ?SetDefaultProperties@CCall@@UAEXXZ
       2128  84F 0004B6B0 ?SetDefaultProperties@CCamera@@UAEXXZ
       2129  850 0004E630 ?SetDefaultProperties@CCameraMarker@@UAEXXZ
       2130  851 0004ED80 ?SetDefaultProperties@CCopier@@UAEXXZ
       2131  852 0004FAB0 ?SetDefaultProperties@CCounter@@UAEXXZ
       2132  853 00050790 ?SetDefaultProperties@CDamager@@UAEXXZ
       2133  854 000510A0 ?SetDefaultProperties@CDebris@@UAEXXZ
       2134  855 00052420 ?SetDefaultProperties@CDecalManager@@UAEXXZ
       2135  856 0012FDE0 ?SetDefaultProperties@CDeer@@UAEXXZ
       2136  857 001464B0 ?SetDefaultProperties@CDeerAnimator@@UAEXXZ
       2137  858 00054190 ?SetDefaultProperties@CDeerCall@@UAEXXZ
       2138  859 00056060 ?SetDefaultProperties@CDeerDecoy@@UAEXXZ
       2139  85A 00148280 ?SetDefaultProperties@CDeerMover@@UAEXXZ
       2140  85B 00149820 ?SetDefaultProperties@CDeerTrackManager@@UAEXXZ
       2141  85C 000575E0 ?SetDefaultProperties@CDestroyableArchitecture@@UAEXXZ
       2142  85D 000590A0 ?SetDefaultProperties@CDistantBirds@@UAEXXZ
       2143  85E 0005AF60 ?SetDefaultProperties@CDoorController@@UAEXXZ
       2144  85F 0014AB60 ?SetDefaultProperties@CDrinkPoint@@UAEXXZ
       2145  860 0005C4F0 ?SetDefaultProperties@CEdgeMarker@@UAEXXZ
       2146  861 0005CC50 ?SetDefaultProperties@CEffectMarker@@UAEXXZ
       2147  862 0005DF70 ?SetDefaultProperties@CEffector@@UAEXXZ
       2148  863 00060730 ?SetDefaultProperties@CEnemyBase@@UAEXXZ
       2149  864 00069810 ?SetDefaultProperties@CEnemyCounter@@UAEXXZ
       2150  865 0006A4A0 ?SetDefaultProperties@CEnemyDive@@UAEXXZ
       2151  866 0006B680 ?SetDefaultProperties@CEnemyFly@@UAEXXZ
       2152  867 0006D240 ?SetDefaultProperties@CEnemyMarker@@UAEXXZ
       2153  868 0006D9A0 ?SetDefaultProperties@CEnemyRunInto@@UAEXXZ
       2154  869 0006EF70 ?SetDefaultProperties@CEnemySpawner@@UAEXXZ
       2155  86A 00074280 ?SetDefaultProperties@CEntityBreath@@UAEXXZ
       2156  86B 000761E0 ?SetDefaultProperties@CEnvironmentBase@@UAEXXZ
       2157  86C 00078300 ?SetDefaultProperties@CEnvironmentMarker@@UAEXXZ
       2158  86D 00078A00 ?SetDefaultProperties@CFieldBlind@@UAEXXZ
       2159  86E 00079460 ?SetDefaultProperties@CFirefly@@UAEXXZ
       2160  86F 0007AC50 ?SetDefaultProperties@CFireflySpawner@@UAEXXZ
       2161  870 0007BFB0 ?SetDefaultProperties@CFogMarker@@UAEXXZ
       2162  871 0007E030 ?SetDefaultProperties@CGPS@@UAEXXZ
       2163  872 00081080 ?SetDefaultProperties@CGPSText@@UAEXXZ
       2164  873 0007D0A0 ?SetDefaultProperties@CGlobal@@UAEXXZ
       2165  874 00081660 ?SetDefaultProperties@CGradientMarker@@UAEXXZ
       2166  875 000820C0 ?SetDefaultProperties@CGrasshopperParticles@@UAEXXZ
       2167  876 00083C90 ?SetDefaultProperties@CGravityMarker@@UAEXXZ
       2168  877 00084820 ?SetDefaultProperties@CGravityRouter@@UAEXXZ
       2169  878 00084F70 ?SetDefaultProperties@CHazeMarker@@UAEXXZ
       2170  879 00085E30 ?SetDefaultProperties@CLargeAnimal@@UAEXXZ
       2171  87A 0015E5D0 ?SetDefaultProperties@CLeafSystem@@UAEXXZ
       2172  87B 000889C0 ?SetDefaultProperties@CLight@@UAEXXZ
       2173  87C 00089B80 ?SetDefaultProperties@CLightning@@UAEXXZ
       2174  87D 0008AAD0 ?SetDefaultProperties@CMarker@@UAEXXZ
       2175  87E 0008B210 ?SetDefaultProperties@CMessageHolder@@UAEXXZ
       2176  87F 0008B930 ?SetDefaultProperties@CMirrorMarker@@UAEXXZ
       2177  880 0008C2D0 ?SetDefaultProperties@CModelDestruction@@UAEXXZ
       2178  881 0008ECC0 ?SetDefaultProperties@CModelHolder2@@UAEXXZ
       2179  882 0008D4F0 ?SetDefaultProperties@CModelHolder@@UAEXXZ
       2180  883 00091A70 ?SetDefaultProperties@CMoveableModelHolder@@UAEXXZ
       2181  884 00094C30 ?SetDefaultProperties@CMovingBrush@@UAEXXZ
       2182  885 00097C30 ?SetDefaultProperties@CMovingBrushMarker@@UAEXXZ
       2183  886 00098370 ?SetDefaultProperties@CMusicChanger@@UAEXXZ
       2184  887 000996C0 ?SetDefaultProperties@CMusicHolder@@UAEXXZ
       2185  888 0009BC10 ?SetDefaultProperties@CNavPlacer@@UAEXXZ
       2186  889 0009A7A0 ?SetDefaultProperties@CNavigationMarker@@UAEXXZ
       2187  88A 0009DF60 ?SetDefaultProperties@CParticleSystem@@UAEXXZ
       2188  88B 0009C440 ?SetDefaultProperties@CParticlesHolder@@UAEXXZ
       2189  88C 000A1FB0 ?SetDefaultProperties@CPathFinding@@UAEXXZ
       2190  88D 000A5730 ?SetDefaultProperties@CPendulum@@UAEXXZ
       2191  88E 000B0200 ?SetDefaultProperties@CPlayer@@UAEXXZ
       2192  88F 000C8BE0 ?SetDefaultProperties@CPlayerActionMarker@@UAEXXZ
       2193  890 000C9400 ?SetDefaultProperties@CPlayerAnimatorSKA@@UAEXXZ
       2194  891 000CC9D0 ?SetDefaultProperties@CPlayerGun@@UAEXXZ
       2195  892 000D4FC0 ?SetDefaultProperties@CPlayerMarker@@UAEXXZ
       2196  893 00160970 ?SetDefaultProperties@CPlayerProfile@@UAEXXZ
       2197  894 000D57A0 ?SetDefaultProperties@CPlayerView@@UAEXXZ
       2198  895 000D6BA0 ?SetDefaultProperties@CPlayerWeaponsEffects@@UAEXXZ
       2199  896 000D8590 ?SetDefaultProperties@CProjectile@@UAEXXZ
       2200  897 000DDF90 ?SetDefaultProperties@CProjectileMgr@@UAEXXZ
       2201  898 000DF8F0 ?SetDefaultProperties@CPulser@@UAEXXZ
       2202  899 000E0300 ?SetDefaultProperties@CReminder@@UAEXXZ
       2203  89A 000E10C0 ?SetDefaultProperties@CReptile@@UAEXXZ
       2204  89B 000E4440 ?SetDefaultProperties@CRollingStone@@UAEXXZ
       2205  89C 000E62B0 ?SetDefaultProperties@CShip@@UAEXXZ
       2206  89D 000E7730 ?SetDefaultProperties@CShipMarker@@UAEXXZ
       2207  89E 000E8360 ?SetDefaultProperties@CSimpleBird@@UAEXXZ
       2208  89F 000EBD00 ?SetDefaultProperties@CSkaMarker@@UAEXXZ
       2209  8A0 000F18E0 ?SetDefaultProperties@CSkaMarkerManager@@UAEXXZ
       2210  8A1 000F5060 ?SetDefaultProperties@CSkaModelHolder@@UAEXXZ
       2211  8A2 000F6DC0 ?SetDefaultProperties@CSkeet@@UAEXXZ
       2212  8A3 000F7890 ?SetDefaultProperties@CSkeetLauncher@@UAEXXZ
       2213  8A4 000F8850 ?SetDefaultProperties@CSkeetLauncherController@@UAEXXZ
       2214  8A5 000FA0A0 ?SetDefaultProperties@CSmallGame@@UAEXXZ
       2215  8A6 000FE9D0 ?SetDefaultProperties@CSoundHolder@@UAEXXZ
       2216  8A7 00166D30 ?SetDefaultProperties@CStalkingManager@@UAEXXZ
       2217  8A8 00100370 ?SetDefaultProperties@CStand@@UAEXXZ
       2218  8A9 00101930 ?SetDefaultProperties@CStormController@@UAEXXZ
       2219  8AA 00103610 ?SetDefaultProperties@CStormGlobe@@UAEXXZ
       2220  8AB 00105FE0 ?SetDefaultProperties@CSurroundParticleSystem@@UAEXXZ
       2221  8AC 00108620 ?SetDefaultProperties@CSwitch@@UAEXXZ
       2222  8AD 00110020 ?SetDefaultProperties@CTODController@@UAEXXZ
       2223  8AE 00109400 ?SetDefaultProperties@CTag@@UAEXXZ
       2224  8AF 00109B70 ?SetDefaultProperties@CTeleport@@UAEXXZ
       2225  8B0 0010A380 ?SetDefaultProperties@CTerrainEntity@@UAEXXZ
       2226  8B1 0010B150 ?SetDefaultProperties@CTerrainMarker@@UAEXXZ
       2227  8B2 0010DC90 ?SetDefaultProperties@CThinker@@UAEXXZ
       2228  8B3 0010F1C0 ?SetDefaultProperties@CTimeCounter@@UAEXXZ
       2229  8B4 0010E7F0 ?SetDefaultProperties@CTimeDelayedEvent@@UAEXXZ
       2230  8B5 00110950 ?SetDefaultProperties@CTouchField@@UAEXXZ
       2231  8B6 00111C30 ?SetDefaultProperties@CTrigger@@UAEXXZ
       2232  8B7 00113760 ?SetDefaultProperties@CTruck@@UAEXXZ
       2233  8B8 001164E0 ?SetDefaultProperties@CVoiceHolder@@UAEXXZ
       2234  8B9 00116E10 ?SetDefaultProperties@CVoiceOver@@UAEXXZ
       2235  8BA 00119090 ?SetDefaultProperties@CWatchPlayers@@UAEXXZ
       2236  8BB 00117CA0 ?SetDefaultProperties@CWatcher@@UAEXXZ
       2237  8BC 0011DFB0 ?SetDefaultProperties@CWorldBase@@UAEXXZ
       2238  8BD 0011F580 ?SetDefaultProperties@CWorldLink@@UAEXXZ
       2239  8BE 00120550 ?SetDefaultProperties@CWorldSettingsController@@UAEXXZ
       2240  8BF 001214C0 ?SetDefaultProperties@CZone@@UAEXXZ
       2241  8C0 00063170 ?SetDesiredMovement@CEnemyBase@@UAEKXZ
       2242  8C1 0006A700 ?SetDesiredMovement@CEnemyDive@@UAEKXZ
       2243  8C2 0006B8F0 ?SetDesiredMovement@CEnemyFly@@UAEKXZ
       2244  8C3 0006A890 ?SetEntityPosition@CEnemyDive@@QAEXXZ
       2245  8C4 0006BA70 ?SetEntityPosition@CEnemyFly@@QAEXXZ
       2246  8C5 000B85E0 ?SetGameEnd@CPlayer@@QAEXXZ
       2247  8C6 000C4910 ?SetInterfaceType@CPlayer@@QAEXJ@Z
       2248  8C7 00005C80 ?SetPlayerAppearance@@YAHPAPAVCModelInstance@@PAVCPlayerCharacter@@AAVCTString@@@Z
       2249  8C8 00013750 ?SetPredictionPair@CEnemyBase@@UAEXPAVCEntity@@@Z
       2250  8C9 0000D690 ?SetPredictionPair@CPlayer@@UAEXPAVCEntity@@@Z
       2251  8CA 000A5DE0 ?SetPredictionPair@CPlayerView@@UAEXPAVCEntity@@@Z
       2252  8CB 000A81E0 ?SetPredictionPair@CPulser@@UAEXPAVCEntity@@@Z
       2253  8CC 000124D0 ?SetPredictionPair@CWatcher@@UAEXPAVCEntity@@@Z
       2254  8CD 00060C20 ?SetPredictionTime@CEnemyBase@@UAEXM@Z
       2255  8CE 000B3420 ?SetPredictionTime@CPlayer@@UAEXM@Z
       2256  8CF 000B5E60 ?SetRandomMouthPitch@CPlayer@@QAEXMM@Z
       2257  8D0 000B8640 ?SetRoundEnd@CPlayer@@QAEXXZ
       2258  8D1 000C5630 ?SetSoundDefaultParameters@CPlayer@@QAEXXZ
       2259  8D2 000B5EE0 ?SetSpeakMouthPitch@CPlayer@@QAEXXZ
       2260  8D3 00062F40 ?SetSpeedsToDesiredPosition@CEnemyBase@@UAEXABV?$Vector@M$02@@MH@Z
       2261  8D4 00062E10 ?SetTargetHard@CEnemyBase@@QAEHPAVCEntity@@@Z
       2262  8D5 00062E90 ?SetTargetHardForce@CEnemyBase@@QAEHPAVCEntity@@@Z
       2263  8D6 00062D50 ?SetTargetNone@CEnemyBase@@QAEXXZ
       2264  8D7 00062D90 ?SetTargetSoft@CEnemyBase@@QAEHPAVCEntity@@@Z
       2265  8D8 000B7D10 ?SetUnconnected@CPlayer@@QAEXXZ
       2266  8D9 00117FF0 ?SetWatchDelays@CWatcher@@QAEXXZ
       2267  8DA 000C33B0 ?SetupItems@CPlayer@@QAEXXZ
       2268  8DB 000C4960 ?SetupTestPlayer@CPlayer@@QAEXXZ
       2269  8DC 000B6480 ?SetupView@CPlayer@@QAEXPAVCDrawPort@@AAVCAnyProjection3D@@AAPAVCEntity@@AAVCPlacement3D@@AAKH@Z
       2270  8DD 001EF308 ?ShadowType_enum@@3VCEntityPropertyEnumType@@A
       2271  8DE 001EF2F0 ?ShadowType_values@@3PAVCEntityPropertyEnumValue@@A
       2272  8DF 001F5348 ?ShellEjectType_enum@@3VCEntityPropertyEnumType@@A
       2273  8E0 001F5330 ?ShellEjectType_values@@3PAVCEntityPropertyEnumValue@@A
       2274  8E1 000640C0 ?ShootPredictedProjectile@CEnemyBase@@QAEPAVCEntity@@W4eProjectileType@@V?$Vector@M$02@@AAV4@2@Z
       2275  8E2 00063FA0 ?ShootProjectile@CEnemyBase@@QAEPAVCEntity@@W4eProjectileType@@AAV?$Vector@M$02@@1@Z
       2276  8E3 000643F0 ?ShouldBlowUp@CEnemyBase@@UAEHXZ
       2277  8E4 00062C10 ?ShouldCeaseAttack@CEnemyBase@@QAEHXZ
       2278  8E5 000B63F0 ?ShowTextMessage@CPlayer@@QAEXVCTString@@M@Z
       2279  8E6 00064740 ?SightSound@CEnemyBase@@UAEXXZ
       2280  8E7 000C57F0 ?SlideStand@CPlayer@@QAEHABVCEntityEvent@@@Z
       2281  8E8 001ECE10 ?SoundType_enum@@3VCEntityPropertyEnumType@@A
       2282  8E9 001ECDE8 ?SoundType_values@@3PAVCEntityPropertyEnumValue@@A
       2283  8EA 000C4E90 ?SpawnATV@CPlayer@@QAEXXZ
       2284  8EB 000068F0 ?SpawnRangeSound@@YAXPAVCEntity@@0W4SoundType@@M@Z
       2285  8EC 00001770 ?SpawnReminder@@YA?AVCEntityPointer@@PAVCEntity@@MJ@Z
       2286  8ED 000C2E70 ?SpawnTeleport@CPlayer@@QAEXXZ
       2287  8EE 000C5180 ?SpawnTruck@CPlayer@@QAEXXZ
       2288  8EF 001E7940 ?SprayParticlesType_enum@@3VCEntityPropertyEnumType@@A
       2289  8F0 001E78E8 ?SprayParticlesType_values@@3PAVCEntityPropertyEnumValue@@A
       2290  8F1 00069180 ?StandardBehavior@CEnemyBase@@QAEHABVCEntityEvent@@@Z
       2291  8F2 00064690 ?StandingAnim@CEnemyBase@@UAEXXZ
       2292  8F3 000646A0 ?StandingAnimFight@CEnemyBase@@UAEXXZ
       2293  8F4 00063490 ?StartPathFinding@CEnemyBase@@UAEXXZ
       2294  8F5 0006A540 ?StartPathFinding@CEnemyDive@@UAEXXZ
       2295  8F6 0006B850 ?StartPathFinding@CEnemyFly@@UAEXXZ
       2296  8F7 00065FE0 ?StopAttack@CEnemyBase@@QAEHABVCEntityEvent@@@Z
       2297  8F8 00063350 ?StopMoving@CEnemyBase@@QAEXXZ
       2298  8F9 00063370 ?StopRotating@CEnemyBase@@QAEXXZ
       2299  8FA 000633A0 ?StopTranslating@CEnemyBase@@QAEXXZ
       2300  8FB 000B9A40 ?StopUsingItem@CPlayer@@QAEXE@Z
       2301  8FC 00062C60 ?StretchModel@CEnemyBase@@QAEXXZ
       2302  8FD 000C39D0 ?SwapCall1@CPlayer@@QAEXXZ
       2303  8FE 000C3A10 ?SwapCall2@CPlayer@@QAEXXZ
       2304  8FF 000C4940 ?SwapWeapons@CPlayer@@QAEXXZ
       2305  900 000BE170 ?SwitchInterface@CPlayer@@QAEXXZ
       2306  901 001FA848 ?SwitchType_enum@@3VCEntityPropertyEnumType@@A
       2307  902 001FA838 ?SwitchType_values@@3PAVCEntityPropertyEnumValue@@A
       2308  903 001FB308 ?TDEGenericMessageType_enum@@3VCEntityPropertyEnumType@@A
       2309  904 001FB2F0 ?TDEGenericMessageType_values@@3PAVCEntityPropertyEnumValue@@A
       2310  905 001EA3F0 ?TargetType_enum@@3VCEntityPropertyEnumType@@A
       2311  906 001EA3D8 ?TargetType_values@@3PAVCEntityPropertyEnumValue@@A
       2312  907 000C2040 ?TeleportPlayer@CPlayer@@QAEXW4WorldLinkType@@H@Z
       2313  908 000C1E00 ?Teleport_CheckGround@CPlayer@@QAEHAAV?$Vector@M$02@@AAJ@Z
       2314  909 001EF678 ?TouchOrDamageEvent_enum@@3VCEntityPropertyEnumType@@A
       2315  90A 001EF660 ?TouchOrDamageEvent_values@@3PAVCEntityPropertyEnumValue@@A
       2316  90B 000C4BD0 ?TruckPhysics@CPlayer@@QAEXXZ
       2317  90C 001FBC20 ?TruckWheelState_enum@@3VCEntityPropertyEnumType@@A
       2318  90D 001FBC08 ?TruckWheelState_values@@3PAVCEntityPropertyEnumValue@@A
       2319  90E 000B32E0 ?UpdateLatency@CPlayer@@QAEXM@Z
       2320  90F 000B5E00 ?UpdateLevelStats@CPlayer@@QAEXXZ
       2321  910 000B7520 ?UpdateRangingInfo@CPlayer@@QAEXXZ
       2322  911 000BAB60 ?UseBirdDecoy@CPlayer@@QAEXJW4DecoyPlace@@@Z
       2323  912 000BAEA0 ?UseBlind@CPlayer@@QAEXAAVCEntityPointer@@W4BlindType@@@Z
       2324  913 000C3A50 ?UseCall1@CPlayer@@QAEXJ@Z
       2325  914 000C3B10 ?UseCall2@CPlayer@@QAEXJ@Z
       2326  915 000BA070 ?UseDeerDecoy@CPlayer@@QAEXJ@Z
       2327  916 000B90D0 ?UseItem@CPlayer@@QAEXE@Z
       2328  917 000B8320 ?UsePressed@CPlayer@@QAEXH@Z
       2329  918 000BA370 ?UseTreeStand@CPlayer@@QAEXJ@Z
       2330  919 000B3390 ?ValidateCharacter@CPlayer@@QAEXXZ
       2331  91A 001F6218 ?ViewType_enum@@3VCEntityPropertyEnumType@@A
       2332  91B 001F61F8 ?ViewType_values@@3PAVCEntityPropertyEnumValue@@A
       2333  91C 001FC548 ?VisibilityBits_enum@@3VCEntityPropertyEnumType@@A
       2334  91D 001FC4C8 ?VisibilityBits_values@@3PAVCEntityPropertyEnumValue@@A
       2335  91E 000646B0 ?WalkingAnim@CEnemyBase@@UAEXXZ
       2336  91F 001EEE10 ?WarpRotation_enum@@3VCEntityPropertyEnumType@@A
       2337  920 001EEDF8 ?WarpRotation_values@@3PAVCEntityPropertyEnumValue@@A
       2338  921 001180A0 ?Watch@CWatcher@@QAEXXZ
       2339  922 001F62B0 ?WeaponEffectType_enum@@3VCEntityPropertyEnumType@@A
       2340  923 001F62A8 ?WeaponEffectType_values@@3PAVCEntityPropertyEnumValue@@A
       2341  924 000C5E10 ?WorldChange@CPlayer@@QAEHABVCEntityEvent@@@Z
       2342  925 001FD100 ?WorldLinkType_enum@@3VCEntityPropertyEnumType@@A
       2343  926 001FD0F0 ?WorldLinkType_values@@3PAVCEntityPropertyEnumValue@@A
       2344  927 00064280 ?WouldNotLeaveAttackRadius@CEnemyBase@@QAEHXZ
       2345  928 00064750 ?WoundSound@CEnemyBase@@UAEXXZ
       2346  929 000644A0 ?WoundedNotify@CEnemyBase@@QAEXABVEDamage@@@Z
       2347  92A 0000AC90 ?Write@PlayerAnimState@@QAEXPAVCTStream@@@Z
       2348  92B 00001080 ?Write_t@CCompMessageID@@QAEXAAVCTStream@@@Z
       2349  92C 0009A9B0 ?Write_t@CNavigationMarker@@UAEXPAVCTStream@@@Z
       2350  92D 000B12E0 ?Write_t@CPlayer@@UAEXPAVCTStream@@@Z
       2351  92E 001165D0 ?Write_t@CVoiceHolder@@UAEXPAVCTStream@@@Z
       2352  92F 000B2B90 ?ZoomIn@CPlayer@@QAEXXZ
       2353  930 000B2CF0 ?ZoomOut@CPlayer@@QAEXXZ
       2354  931 000B2E20 ?_AdjustMouseSensitivity@CPlayer@@QAEXXZ
       2355  932 00234390 ?cmp_ppenPlayer@@3PAVCPlayer@@A
       2356  933 000ABEC0 ?ctl_ComposeActionPacket@@YAXABVCPlayerCharacter@@AAVCPlayerAction@@H@Z
       2357  934 000ACAC0 ?ctl_ComposeDemoActionPacket@@YAXAAVCPlayerAction@@H@Z
       2358  935 001F0F04 ?ctl_pvPlayerControls@@3PAXA
       2359  936 00192718 ?ctl_slPlayerControlsSize@@3JB
       2360  937 001FD5C0 ?eAASpecies_enum@@3VCEntityPropertyEnumType@@A
       2361  938 001FD588 ?eAASpecies_values@@3PAVCEntityPropertyEnumValue@@A
       2362  939 001E7E18 ?eCallType_enum@@3VCEntityPropertyEnumType@@A
       2363  93A 001E7DF8 ?eCallType_values@@3PAVCEntityPropertyEnumValue@@A
       2364  93B 001FD4D8 ?eDeerSpecies_enum@@3VCEntityPropertyEnumType@@A
       2365  93C 001FD4A0 ?eDeerSpecies_values@@3PAVCEntityPropertyEnumValue@@A
       2366  93D 001FD520 ?eFowlSpecies_enum@@3VCEntityPropertyEnumType@@A
       2367  93E 001FD4E0 ?eFowlSpecies_values@@3PAVCEntityPropertyEnumValue@@A
       2368  93F 001FACA8 ?eHeightMapSize_enum@@3VCEntityPropertyEnumType@@A
       2369  940 001FAC78 ?eHeightMapSize_values@@3PAVCEntityPropertyEnumValue@@A
       2370  941 001F6498 ?eHitType_enum@@3VCEntityPropertyEnumType@@A
       2371  942 001F6440 ?eHitType_values@@3PAVCEntityPropertyEnumValue@@A
       2372  943 001ECE58 ?eMarkerBehavior_enum@@3VCEntityPropertyEnumType@@A
       2373  944 001ECE18 ?eMarkerBehavior_values@@3PAVCEntityPropertyEnumValue@@A
       2374  945 001FD580 ?eMiscBirdSpecies_enum@@3VCEntityPropertyEnumType@@A
       2375  946 001FD568 ?eMiscBirdSpecies_values@@3PAVCEntityPropertyEnumValue@@A
       2376  947 001F6438 ?eProjectileType_enum@@3VCEntityPropertyEnumType@@A
       2377  948 001F6400 ?eProjectileType_values@@3PAVCEntityPropertyEnumValue@@A
       2378  949 001FAC70 ?eQuadsPerTile_enum@@3VCEntityPropertyEnumType@@A
       2379  94A 001FAC30 ?eQuadsPerTile_values@@3PAVCEntityPropertyEnumValue@@A
       2380  94B 001ECEA0 ?eSkaMarkerAnimBehavior_enum@@3VCEntityPropertyEnumType@@A
       2381  94C 001ECE88 ?eSkaMarkerAnimBehavior_values@@3PAVCEntityPropertyEnumValue@@A
       2382  94D 001ECED8 ?eSkaMarkerCollideBehavior_enum@@3VCEntityPropertyEnumType@@A
       2383  94E 001ECEA8 ?eSkaMarkerCollideBehavior_values@@3PAVCEntityPropertyEnumValue@@A
       2384  94F 001ECEF8 ?eSkaMarkerLightingBehavior_enum@@3VCEntityPropertyEnumType@@A
       2385  950 001ECEE0 ?eSkaMarkerLightingBehavior_values@@3PAVCEntityPropertyEnumValue@@A
       2386  951 001ECE80 ?eSkaMarkerPlacementBehavior2_enum@@3VCEntityPropertyEnumType@@A
       2387  952 001ECE60 ?eSkaMarkerPlacementBehavior2_values@@3PAVCEntityPropertyEnumValue@@A
       2388  953 001ECF18 ?eSkaMarkerTypeBehavior_enum@@3VCEntityPropertyEnumType@@A
       2389  954 001ECF00 ?eSkaMarkerTypeBehavior_values@@3PAVCEntityPropertyEnumValue@@A
       2390  955 001ECC78 ?eSkaModelFlags_enum@@3VCEntityPropertyEnumType@@A
       2391  956 001ECC60 ?eSkaModelFlags_values@@3PAVCEntityPropertyEnumValue@@A
       2392  957 001FAA50 ?eTagType_enum@@3VCEntityPropertyEnumType@@A
       2393  958 001FAA40 ?eTagType_values@@3PAVCEntityPropertyEnumValue@@A
       2394  959 001FAC28 ?eTopMapSize_enum@@3VCEntityPropertyEnumType@@A
       2395  95A 001FABF8 ?eTopMapSize_values@@3PAVCEntityPropertyEnumValue@@A
       2396  95B 001FD560 ?eUplandSpecies_enum@@3VCEntityPropertyEnumType@@A
       2397  95C 001FD528 ?eUplandSpecies_values@@3PAVCEntityPropertyEnumValue@@A
       2398  95D 001FD498 ?eZoneType_enum@@3VCEntityPropertyEnumType@@A
       2399  95E 001FD440 ?eZoneType_values@@3PAVCEntityPropertyEnumValue@@A
       2400  95F 001EF690 ?e_TimeMethods_enum@@3VCEntityPropertyEnumType@@A
       2401  960 001EF680 ?e_TimeMethods_values@@3PAVCEntityPropertyEnumValue@@A
       2402  961 001FDB18 AmbientHelper_DLLClass
       2403  962 001E2D58 CAIAnimator_DLLClass
       2404  963 001E2E60 CAIBase_DLLClass
       2405  964 001E35B8 CAIController_DLLClass
       2406  965 001E3F48 CAIMover_DLLClass
       2407  966 001E4628 CATV_DLLClass
       2408  967 001E3FE8 CAmmoShell_DLLClass
       2409  968 001E40A8 CAnimationChanger_DLLClass
       2410  969 001E43E8 CAnimationHub_DLLClass
       2411  96A 001FDD50 CBFly_DLLClass
       2412  96B 001E4BB0 CBackgroundViewer_DLLClass
       2413  96C 001E4CE8 CBaggedGame_DLLClass
       2414  96D 001E5318 CBasicEffect_DLLClass
       2415  96E 001E5558 CBirdCallDoubleReed_DLLClass
       2416  96F 001E5858 CBirdCallGooseFlute_DLLClass
       2417  970 001E5B58 CBirdCallPintailWhistle_DLLClass
       2418  971 001E5E58 CBirdCallSingleReed_DLLClass
       2419  972 001E6158 CBirdCallTealWhistle_DLLClass
       2420  973 001E6208 CBirdCallTurkeyBox_DLLClass
       2421  974 001E6500 CBirdCallTurkeyDiaph_DLLClass
       2422  975 001E6800 CBirdCallTurkeySlate_DLLClass
       2423  976 001E5440 CBirdCall_DLLClass
       2424  977 001E6B20 CBirdDecoy_DLLClass
       2425  978 001E74B0 CBlendController_DLLClass
       2426  979 001E7698 CBlind_DLLClass
       2427  97A 001E7978 CBloodSpray_DLLClass
       2428  97B 001E7AD0 CBoat_DLLClass
       2429  97C 001E7D00 CBouncer_DLLClass
       2430  97D 001E7E50 CCall_DLLClass
       2431  97E 001E81F0 CCameraMarker_DLLClass
       2432  97F 001E7FE0 CCamera_DLLClass
       2433  980 001E8388 CCopier_DLLClass
       2434  981 001E8518 CCounter_DLLClass
       2435  982 001E8688 CDamager_DLLClass
       2436  983 001E87D0 CDebris_DLLClass
       2437  984 001E8870 CDecalManager_DLLClass
       2438  985 00201C68 CDeerAnimator_DLLClass
       2439  986 001E8B18 CDeerCall_DLLClass
       2440  987 001E8FF0 CDeerDecoy_DLLClass
       2441  988 00201D30 CDeerMover_DLLClass
       2442  989 00201DE8 CDeerTrackManager_DLLClass
       2443  98A 001FEC60 CDeer_DLLClass
       2444  98B 001E9178 CDestroyableArchitecture_DLLClass
       2445  98C 001E9890 CDistantBirds_DLLClass
       2446  98D 001E9C40 CDoorController_DLLClass
       2447  98E 00201E58 CDrinkPoint_DLLClass
       2448  98F 001E9DE8 CEdgeMarker_DLLClass
       2449  990 001E9F38 CEffectMarker_DLLClass
       2450  991 001EA220 CEffector_DLLClass
       2451  992 001EAB00 CEnemyBase_DLLClass
       2452  993 001EAFC8 CEnemyCounter_DLLClass
       2453  994 001EB0C0 CEnemyDive_DLLClass
       2454  995 001EB3E0 CEnemyFly_DLLClass
       2455  996 001EB4C0 CEnemyMarker_DLLClass
       2456  997 001EB6F8 CEnemyRunInto_DLLClass
       2457  998 001EBB08 CEnemySpawner_DLLClass
       2458  999 001EBDB0 CEntityBreath_DLLClass
       2459  99A 001EC080 CEnvironmentBase_DLLClass
       2460  99B 001EC348 CEnvironmentMarker_DLLClass
       2461  99C 001EC508 CFieldBlind_DLLClass
       2462  99D 001EC778 CFireflySpawner_DLLClass
       2463  99E 001EC650 CFirefly_DLLClass
       2464  99F 001EC8D0 CFogMarker_DLLClass
       2465  9A0 001EDAA0 CGPSText_DLLClass
       2466  9A1 001ED7B8 CGPS_DLLClass
       2467  9A2 001ECF30 CGlobal_DLLClass
       2468  9A3 001EDB08 CGradientMarker_DLLClass
       2469  9A4 001EDC90 CGrasshopperParticles_DLLClass
       2470  9A5 001EDD90 CGravityMarker_DLLClass
       2471  9A6 001EDF20 CGravityRouter_DLLClass
       2472  9A7 001EE040 CHazeMarker_DLLClass
       2473  9A8 001EE3D8 CLargeAnimal_DLLClass
       2474  9A9 00202EA8 CLeafSystem_DLLClass
       2475  9AA 001EE508 CLight_DLLClass
       2476  9AB 001EEA80 CLightning_DLLClass
       2477  9AC 001EEC30 CMarker_DLLClass
       2478  9AD 001EECF8 CMessageHolder_DLLClass
       2479  9AE 001EEE28 CMirrorMarker_DLLClass
       2480  9AF 001EEF98 CModelDestruction_DLLClass
       2481  9B0 001EF350 CModelHolder2_DLLClass
       2482  9B1 001EF1C8 CModelHolder_DLLClass
       2483  9B2 001EF5D0 CMoveableModelHolder_DLLClass
       2484  9B3 001EFBE0 CMovingBrushMarker_DLLClass
       2485  9B4 001EF868 CMovingBrush_DLLClass
       2486  9B5 001EFD28 CMusicChanger_DLLClass
       2487  9B6 001EFF20 CMusicHolder_DLLClass
       2488  9B7 001F02F0 CNavPlacer_DLLClass
       2489  9B8 001F00C0 CNavigationMarker_DLLClass
       2490  9B9 001F0750 CParticleSystem_DLLClass
       2491  9BA 001F0508 CParticlesHolder_DLLClass
       2492  9BB 001F09F8 CPathFinding_DLLClass
       2493  9BC 001F0A70 CPendulum_DLLClass
       2494  9BD 001F49A0 CPlayerActionMarker_DLLClass
       2495  9BE 001F4C78 CPlayerAnimatorSKA_DLLClass
       2496  9BF 001F55D0 CPlayerGun_DLLClass
       2497  9C0 001F6098 CPlayerMarker_DLLClass
       2498  9C1 00203060 CPlayerProfile_DLLClass
       2499  9C2 001F6250 CPlayerView_DLLClass
       2500  9C3 001F6338 CPlayerWeaponsEffects_DLLClass
       2501  9C4 001F0DE8 CPlayer_DLLClass
       2502  9C5 001F6990 CProjectileMgr_DLLClass
       2503  9C6 001F65B0 CProjectile_DLLClass
       2504  9C7 001F6C90 CPulser_DLLClass
       2505  9C8 001F6D20 CReminder_DLLClass
       2506  9C9 001F7048 CReptile_DLLClass
       2507  9CA 001F70F0 CRollingStone_DLLClass
       2508  9CB 001F75A8 CShipMarker_DLLClass
       2509  9CC 001F73E0 CShip_DLLClass
       2510  9CD 001F78B0 CSimpleBird_DLLClass
       2511  9CE 001F8718 CSkaMarkerManager_DLLClass
       2512  9CF 001F7B38 CSkaMarker_DLLClass
       2513  9D0 001F8898 CSkaModelHolder_DLLClass
       2514  9D1 001F8CD0 CSkeetLauncherController_DLLClass
       2515  9D2 001F8B98 CSkeetLauncher_DLLClass
       2516  9D3 001F8A28 CSkeet_DLLClass
       2517  9D4 001F91F8 CSmallGame_DLLClass
       2518  9D5 001F95E8 CSoundHolder_DLLClass
       2519  9D6 00203B28 CStalkingManager_DLLClass
       2520  9D7 001F9BA0 CStand_DLLClass
       2521  9D8 001F9F08 CStormController_DLLClass
       2522  9D9 001FA1C0 CStormGlobe_DLLClass
       2523  9DA 001FA720 CSurroundParticleSystem_DLLClass
       2524  9DB 001FA920 CSwitch_DLLClass
       2525  9DC 001FB648 CTODController_DLLClass
       2526  9DD 001FAA88 CTag_DLLClass
       2527  9DE 001FAB58 CTeleport_DLLClass
       2528  9DF 001FACC0 CTerrainEntity_DLLClass
       2529  9E0 001FAEA8 CTerrainMarker_DLLClass
       2530  9E1 001FB298 CThinker_DLLClass
       2531  9E2 001FB500 CTimeCounter_DLLClass
       2532  9E3 001FB360 CTimeDelayedEvent_DLLClass
       2533  9E4 001FB7A8 CTouchField_DLLClass
       2534  9E5 001FB978 CTrigger_DLLClass
       2535  9E6 001FBC78 CTruck_DLLClass
       2536  9E7 001FBF60 CVoiceHolder_DLLClass
       2537  9E8 001FC068 CVoiceOver_DLLClass
       2538  9E9 001FC310 CWatchPlayers_DLLClass
       2539  9EA 001FC1B0 CWatcher_DLLClass
       2540  9EB 001FC560 CWorldBase_DLLClass
       2541  9EC 001FD118 CWorldLink_DLLClass
       2542  9ED 001FD230 CWorldSettingsController_DLLClass
       2543  9EE 001FD618 CZone_DLLClass

  Summary

       64000 .data
       57000 .rdata
       33000 .reloc
      189000 .text
