Microsoft (R) COFF/PE Dumper Version 10.00.30319.01
Copyright (C) Microsoft Corporation.  All rights reserved.


Dump of file Engine.dll

File Type: DLL

  Section contains the following exports for Engine.dll

    00000000 characteristics
    5D19A49A time date stamp Mon Jul 01 09:13:46 2019
        0.00 version
           1 ordinal base
        4447 number of functions
        4447 number of names

    ordinal hint RVA      name

          1    0 001DC620 ??0?$ThreadBase@$0A@$00@@QAE@ABV0@@Z
          2    1 001DC6E0 ??0?$ThreadBase@$0A@$00@@QAE@XZ
          3    2 00001E20 ??0?$ThreadBase@$0A@$0BPE@@@QAE@ABV0@@Z
          4    3 0000A7A0 ??0?$ThreadBase@$0A@$0BPE@@@QAE@XZ
          5    4 0002C240 ??0AccountInfo_s@@QAE@ABU0@@Z
          6    5 0002B850 ??0AccountInfo_s@@QAE@XZ
          7    6 00024590 ??0CAOTime@@QAE@ABV0@@Z
          8    7 001C00C0 ??0CAOTime@@QAE@XZ
          9    8 00008600 ??0CAOTimeInfo@@QAE@ABV0@@Z
         10    9 001BFE00 ??0CAOTimeInfo@@QAE@KKKHMVCTString@@@Z
         11    A 001B57E0 ??0CAOTimeOld@@QAE@XZ
         12    B 00030140 ??0CAnimData@@QAE@XZ
         13    C 00030B00 ??0CAnimObject@@QAE@XZ
         14    D 00028220 ??0CAnimSet@@QAE@ABV0@@Z
         15    E 001702A0 ??0CAnimSet@@QAE@XZ
         16    F 000105F0 ??0CAnyProjection3D@@QAE@ABV0@@Z
         17   10 00010590 ??0CAnyProjection3D@@QAE@XZ
         18   11 000BAE00 ??0CAttachedModel@@QAE@ABV0@@Z
         19   12 000BB440 ??0CAttachedModel@@QAE@XZ
         20   13 000CA2B0 ??0CAttachedModelPosition@@QAE@XZ
         21   14 000BAF70 ??0CAttachedSound@@QAE@ABV0@@Z
         22   15 000BB590 ??0CAttachedSound@@QAE@XZ
         23   16 00045D90 ??0CAttachmentModelObject@@QAE@ABV0@@Z
         24   17 000498D0 ??0CAttachmentModelObject@@QAE@XZ
         25   18 00142CB0 ??0CAutoPrecacheModel@@QAE@XZ
         26   19 00142B30 ??0CAutoPrecacheSound@@QAE@XZ
         27   1A 00142D80 ??0CAutoPrecacheTexture@@QAE@XZ
         28   1B 001AEC50 ??0CBladeTrail@@QAE@XZ
         29   1C 00004DD0 ??0CBoolDefaultFalse@@QAE@XZ
         30   1D 00010900 ??0CBrush3D@@QAE@ABV0@@Z
         31   1E 001528F0 ??0CBrush3D@@QAE@XZ
         32   1F 000E3020 ??0CBrushArchive@@QAE@AAV0@@Z
         33   20 000E2A90 ??0CBrushArchive@@QAE@XZ
         34   21 00004390 ??0CBrushBase@@QAE@ABV0@@Z
         35   22 00004380 ??0CBrushBase@@QAE@XZ
         36   23 00004470 ??0CBrushEdge@@QAE@PAVCBrushVertex@@0@Z
         37   24 00004460 ??0CBrushEdge@@QAE@XZ
         38   25 00004C50 ??0CBrushMip@@QAE@AAV0@@Z
         39   26 00156EE0 ??0CBrushMip@@QAE@XZ
         40   27 000108F0 ??0CBrushPlane@@QAE@XZ
         41   28 0001B280 ??0CBrushPolygon@@QAE@ABV0@@Z
         42   29 00016940 ??0CBrushPolygon@@QAE@XZ
         43   2A 00004960 ??0CBrushPolygonTexture@@QAE@ABV0@@Z
         44   2B 00004890 ??0CBrushPolygonTexture@@QAE@XZ
         45   2C 0015A0F0 ??0CBrushSector@@QAE@ABV0@@Z
         46   2D 0015A210 ??0CBrushSector@@QAE@XZ
         47   2E 00004740 ??0CBrushShadowLayer@@QAE@ABV0@@Z
         48   2F 0015E010 ??0CBrushShadowLayer@@QAE@XZ
         49   30 00004810 ??0CBrushShadowMap@@QAE@ABV0@@Z
         50   31 0015E070 ??0CBrushShadowMap@@QAE@XZ
         51   32 000108E0 ??0CBrushVertex@@QAE@XZ
         52   33 000F2FA0 ??0CCastRay@@QAE@PAVCEntity@@ABV?$Vector@M$02@@1@Z
         53   34 000F2E40 ??0CCastRay@@QAE@PAVCEntity@@ABVCPlacement3D@@@Z
         54   35 000F2EF0 ??0CCastRay@@QAE@PAVCEntity@@ABVCPlacement3D@@M@Z
         55   36 00032B00 ??0CChangeable@@QAE@XZ
         56   37 00032B50 ??0CChangeableRT@@QAE@XZ
         57   38 001A6570 ??0CCharManager@@AAE@XZ
         58   39 00002C50 ??0CChunkID@@QAE@PBD@Z
         59   3A 000E3A10 ??0CClipTest@@QAE@ABV0@@Z
         60   3B 000E3990 ??0CClipTest@@QAE@XZ
         61   3C 001AEFF0 ??0CCollisionCapsule@@QAE@XZ
         62   3D 00148F10 ??0CCollisionInfo@@QAE@ABV0@@Z
         63   3E 000E3900 ??0CCollisionInfo@@QAE@XZ
         64   3F 001AEDF0 ??0CCollisionSphere@@QAE@XZ
         65   40 00010D40 ??0CCommunicationInterface@@QAE@ABV0@@Z
         66   41 00113760 ??0CCommunicationInterface@@QAE@XZ
         67   42 000B0F90 ??0CContentType@@QAE@ABV0@@Z
         68   43 000B0F20 ??0CContentType@@QAE@XZ
         69   44 001B1B80 ??0CControlBone@@QAE@XZ
         70   45 00044D10 ??0CDisableAsyncProgress@@QAE@XZ
         71   46 00076E50 ??0CDisplayMode@@QAE@XZ
         72   47 000798D0 ??0CDrawPort@@QAE@PAV0@ABV?$AABBox@J$01@@@Z
         73   48 00079940 ??0CDrawPort@@QAE@PAV0@J@Z
         74   49 00079890 ??0CDrawPort@@QAE@PAV0@NNNN@Z
         75   4A 000771B0 ??0CDrawPort@@QAE@PBV0@@Z
         76   4B 00077150 ??0CDrawPort@@QAE@XZ
         77   4C 001B0990 ??0CDynParticle@@QAE@MV?$Vector@M$02@@0@Z
         78   4D 001B08F0 ??0CDynParticle@@QAE@XZ
         79   4E 000C5D80 ??0CEditModel@@QAE@AAV0@@Z
         80   4F 000C00E0 ??0CEditModel@@QAE@XZ
         81   50 0014DB90 ??0CEntitiesDLL@@AAE@XZ
         82   51 00010A70 ??0CEntity@@QAE@ABV0@@Z
         83   52 001443F0 ??0CEntity@@QAE@XZ
         84   53 00008000 ??0CEntityClass@@QAE@ABV0@@Z
         85   54 0014DDC0 ??0CEntityClass@@QAE@PAVCDLLEntityClass@@@Z
         86   55 0014DD30 ??0CEntityClass@@QAE@XZ
         87   56 00007DD0 ??0CEntityComponent@@QAE@ABV0@@Z
         88   57 00007D50 ??0CEntityComponent@@QAE@W4EntityComponentType@@KKPAD@Z
         89   58 00007D90 ??0CEntityComponent@@QAE@XZ
         90   59 00004E40 ??0CEntityEvent@@QAE@ABV0@@Z
         91   5A 00004DF0 ??0CEntityEvent@@QAE@J@Z
         92   5B 00141640 ??0CEntityID@@QAE@ABV0@@Z
         93   5C 00141670 ??0CEntityID@@QAE@PAVCEntity@@@Z
         94   5D 00141630 ??0CEntityID@@QAE@XZ
         95   5E 00006B30 ??0CEntityMessage@@QAE@ABV0@@Z
         96   5F 00006B10 ??0CEntityMessage@@QAE@XZ
         97   60 00007CE0 ??0CEntityProperty@@QAE@W4PropertyType@0@PAVCEntityPropertyEnumType@@KJPADDKK@Z
         98   61 00007D20 ??0CEntityProperty@@QAE@XZ
         99   62 000B10B0 ??0CEnvironmentType@@QAE@ABV0@@Z
        100   63 000B1080 ??0CEnvironmentType@@QAE@XZ
        101   64 0012FCE0 ??0CFieldSettings@@QAE@ABV0@@Z
        102   65 0012FCC0 ??0CFieldSettings@@QAE@XZ
        103   66 00003E40 ??0CFileNameNode@@QAE@ABV0@@Z
        104   67 000300C0 ??0CFileNameNode@@QAE@PBDPAVCListHead@@@Z
        105   68 001A6B80 ??0CFontCharData@@QAE@XZ
        106   69 000024F0 ??0CFontData@@QAE@ABV0@@Z
        107   6A 001A76C0 ??0CFontData@@QAE@XZ
        108   6B 001ADF90 ??0CFontTexture@@AAE@XZ
        109   6C 00015CF0 ??0CGfxLibrary@@QAE@ABV0@@Z
        110   6D 00099A20 ??0CGfxLibrary@@QAE@XZ
        111   6E 000B1150 ??0CIlluminationType@@QAE@ABV0@@Z
        112   6F 000B1120 ??0CIlluminationType@@QAE@XZ
        113   70 0009F650 ??0CImageInfo@@QAE@XZ
        114   71 000221B0 ??0CInput@@QAE@ABV0@@Z
        115   72 0003C5D0 ??0CInput@@QAE@XZ
        116   73 0001EEF0 ??0CInputDevice@@QAE@ABV0@@Z
        117   74 0003BE60 ??0CInputDevice@@QAE@XZ
        118   75 000691C0 ??0CIntersector@@QAE@MM@Z
        119   76 000037C0 ??0CIsometricProjection3D@@QAE@ABV0@@Z
        120   77 000037A0 ??0CIsometricProjection3D@@QAE@XZ
        121   78 001B0AE0 ??0CKeyCommand@@QAE@XZ
        122   79 00151660 ??0CLastPositions@@QAE@ABV0@@Z
        123   7A 001120E0 ??0CLastPositions@@QAE@XZ
        124   7B 0013F7C0 ??0CLensFlareType@@QAE@ABV0@@Z
        125   7C 0013EFC0 ??0CLensFlareType@@QAE@XZ
        126   7D 000DD2E0 ??0CLightSource@@QAE@ABV0@@Z
        127   7E 001654A0 ??0CLightSource@@QAE@XZ
        128   7F 000012D0 ??0CListHead@@QAE@ABV0@@Z
        129   80 000012C0 ??0CListHead@@QAE@XZ
        130   81 00001300 ??0CListNode@@QAE@ABV0@@Z
        131   82 000012F0 ??0CListNode@@QAE@XZ
        132   83 00010D10 ??0CLiveEntity@@QAE@ABV0@@Z
        133   84 00148650 ??0CLiveEntity@@QAE@XZ
        134   85 00002940 ??0CMD5@@QAE@ABV0@@Z
        135   86 001BDED0 ??0CMD5@@QAE@XZ
        136   87 00002FD0 ??0CMappingDefinition@@QAE@XZ
        137   88 000BAD20 ??0CMappingUndo@@QAE@ABV0@@Z
        138   89 000C4A60 ??0CMappingUndo@@QAE@XZ
        139   8A 000104E0 ??0CMappingVectors@@QAE@XZ
        140   8B 0001F260 ??0CMesh@@QAE@ABV0@@Z
        141   8C 00176050 ??0CMesh@@QAE@XZ
        142   8D 00006CC0 ??0CMessageDispatcher@@QAE@ABV0@@Z
        143   8E 0011C640 ??0CMessageDispatcher@@QAE@XZ
        144   8F 00007490 ??0CModelCollisionBox@@QAE@ABV0@@Z
        145   90 000CA1E0 ??0CModelCollisionBox@@QAE@XZ
        146   91 000CE560 ??0CModelData@@QAE@ABV0@@Z
        147   92 000CE6C0 ??0CModelData@@QAE@XZ
        148   93 000075B0 ??0CModelInfo@@QAE@ABV0@@Z
        149   94 000115C0 ??0CModelInfo@@QAE@XZ
        150   95 0017C110 ??0CModelInstance@@QAE@AAV0@@Z
        151   96 0017C2D0 ??0CModelInstance@@QAE@XZ
        152   97 000084D0 ??0CModelInstanceSerial@@QAE@ABV0@@Z
        153   98 00179A60 ??0CModelInstanceSerial@@QAE@XZ
        154   99 00045AF0 ??0CModelObject@@QAE@ABV0@@Z
        155   9A 000CA410 ??0CModelObject@@QAE@XZ
        156   9B 000072C0 ??0CModelPatch@@QAE@ABV0@@Z
        157   9C 000C9800 ??0CModelPatch@@QAE@XZ
        158   9D 000C7C00 ??0CModelRenderPrefs@@QAE@XZ
        159   9E 000BA9A0 ??0CMovableBrushEntity@@QAE@ABV0@@Z
        160   9F 000B5A10 ??0CMovableBrushEntity@@QAE@XZ
        161   A0 000BA3B0 ??0CMovableEntity@@QAE@ABV0@@Z
        162   A1 001D5490 ??0CMovableEntity@@QAE@XZ
        163   A2 000BA960 ??0CMovableModelEntity@@QAE@ABV0@@Z
        164   A3 000B5950 ??0CMovableModelEntity@@QAE@XZ
        165   A4 000E38D0 ??0CMovingSphere@@QAE@XZ
        166   A5 0011DB40 ??0CNet@@QAE@XZ
        167   A6 0011FA80 ??0CNetMessage@@QAE@XZ
        168   A7 0010D190 ??0CNetworkLibrary@@QAE@XZ
        169   A8 00120BA0 ??0CNetworkMessage@@QAE@ABV0@@Z
        170   A9 00120B70 ??0CNetworkMessage@@QAE@W4NetworkMessageType@@@Z
        171   AA 00120B40 ??0CNetworkMessage@@QAE@XZ
        172   AB 00006C50 ??0CNetworkProvider@@QAE@ABV0@@Z
        173   AC 0011BDB0 ??0CNetworkProvider@@QAE@XZ
        174   AD 00006E70 ??0CNetworkSession@@QAE@ABV0@@Z
        175   AE 0011BE90 ??0CNetworkSession@@QAE@ABVCTString@@J@Z
        176   AF 0011BDE0 ??0CNetworkSession@@QAE@XZ
        177   B0 0005E960 ??0CObject3D@@QAE@AAV0@@Z
        178   B1 0005D620 ??0CObject3D@@QAE@XZ
        179   B2 0005E8E0 ??0CObjectPolygon@@QAE@AAV0@@Z
        180   B3 0005E820 ??0CObjectPolygon@@QAE@XZ
        181   B4 0005CE70 ??0CObjectPolygonEdge@@QAE@PAVCObjectEdge@@@Z
        182   B5 0005CE90 ??0CObjectPolygonEdge@@QAE@PAVCObjectEdge@@H@Z
        183   B6 0005CE60 ??0CObjectPolygonEdge@@QAE@XZ
        184   B7 00065C50 ??0CObjectSector@@QAE@XZ
        185   B8 0012FD50 ??0COneLensFlare@@QAE@ABV0@@Z
        186   B9 0012FD30 ??0COneLensFlare@@QAE@XZ
        187   BA 00003820 ??0CParallelProjection3D@@QAE@ABV0@@Z
        188   BB 00010570 ??0CParallelProjection3D@@QAE@XZ
        189   BC 001B1910 ??0CParticle@@QAE@XZ
        190   BD 00003670 ??0CPerspectiveProjection3D@@QAE@ABV0@@Z
        191   BE 0006CE80 ??0CPerspectiveProjection3D@@QAE@XZ
        192   BF 00003060 ??0CPlacement3D@@QAE@ABV?$Vector@M$02@@0@Z
        193   C0 000104F0 ??0CPlacement3D@@QAE@XZ
        194   C1 00121200 ??0CPlayerAction@@QAE@XZ
        195   C2 000B5740 ??0CPlayerCharacter@@QAE@ABV0@@Z
        196   C3 00151D00 ??0CPlayerCharacter@@QAE@ABVCTString@@0@Z
        197   C4 00151C50 ??0CPlayerCharacter@@QAE@XZ
        198   C5 000BA9C0 ??0CPlayerEntity@@QAE@ABV0@@Z
        199   C6 000B8A70 ??0CPlayerEntity@@QAE@XZ
        200   C7 00109B40 ??0CPlayerSource@@QAE@ABV0@@Z
        201   C8 00122360 ??0CPlayerSource@@QAE@XZ
        202   C9 0014D060 ??0CPonytail@@QAE@AAV0@@Z
        203   CA 001B2FB0 ??0CPonytail@@QAE@XZ
        204   CB 000BB320 ??0CProgressRoutines@@QAE@XZ
        205   CC 000030C0 ??0CProjection3D@@QAE@ABV0@@Z
        206   CD 000690E0 ??0CProjection3D@@QAE@XZ
        207   CE 001C4740 ??0CQMSLog@@AAE@XZ
        208   CF 0001F0F0 ??0CRationalEntity@@QAE@ABV0@@Z
        209   D0 0014A190 ??0CRationalEntity@@QAE@XZ
        210   D1 000457D0 ??0CRelationDst@@QAE@XZ
        211   D2 000457C0 ??0CRelationSrc@@QAE@XZ
        212   D3 000D1910 ??0CRenderModel@@QAE@XZ
        213   D4 000022B0 ??0CSerial@@QAE@ABV0@@Z
        214   D5 0004A560 ??0CSerial@@QAE@XZ
        215   D6 000B9F60 ??0CServer@@QAE@ABV0@@Z
        216   D7 00127500 ??0CServer@@QAE@XZ
        217   D8 000B8F40 ??0CSessionState@@QAE@AAV0@@Z
        218   D9 0012CFF0 ??0CSessionState@@QAE@XZ
        219   DA 0005BA40 ??0CSetFPUPrecision@@QAE@W4FPUPrecisionType@@@Z
        220   DB 0001BE00 ??0CShader@@QAE@ABV0@@Z
        221   DC 00018050 ??0CShader@@QAE@P6AXXZP6AXAAUShaderDesc@@@ZP6AXAAVCTString@@J@ZP6AX3JW4FOGTYPE@@@Z@Z
        222   DD 00017FC0 ??0CShader@@QAE@XZ
        223   DE 00109CD0 ??0CShadingInfo@@QAE@ABV0@@Z
        224   DF 00111F00 ??0CShadingInfo@@QAE@XZ
        225   E0 000041D0 ??0CShadowMap@@QAE@ABV0@@Z
        226   E1 000A4EF0 ??0CShadowMap@@QAE@XZ
        227   E2 00001860 ??0CShell@@QAE@AAV0@@Z
        228   E3 0004C5B0 ??0CShell@@QAE@XZ
        229   E4 00003930 ??0CSimpleProjection3D@@QAE@ABV0@@Z
        230   E5 00003910 ??0CSimpleProjection3D@@QAE@XZ
        231   E6 0006FB20 ??0CSimpleProjection3D_DOUBLE@@QAE@XZ
        232   E7 00024490 ??0CSkeleton@@QAE@ABV0@@Z
        233   E8 0018ED10 ??0CSkeleton@@QAE@XZ
        234   E9 00007050 ??0CSoundData@@QAE@ABV0@@Z
        235   EA 000AF270 ??0CSoundData@@QAE@XZ
        236   EB 000B2B90 ??0CSoundLibrary@@QAE@XZ
        237   EC 00045F20 ??0CSoundObject@@QAE@ABV0@@Z
        238   ED 000B5E10 ??0CSoundObject@@QAE@XZ
        239   EE 000B0E60 ??0CSurfaceType@@QAE@ABV0@@Z
        240   EF 000B0E00 ??0CSurfaceType@@QAE@XZ
        241   F0 00057590 ??0CTCriticalSection@@QAE@XZ
        242   F1 000019F0 ??0CTFileName@@QAE@ABV0@@Z
        243   F2 00001940 ??0CTFileName@@QAE@ABVCTString@@@Z
        244   F3 000018F0 ??0CTFileName@@QAE@PBD@Z
        245   F4 00001970 ??0CTFileName@@QAE@PBDH@Z
        246   F5 00001920 ??0CTFileName@@QAE@XZ
        247   F6 00010460 ??0CTFileStream@@QAE@AAV0@@Z
        248   F7 00054FC0 ??0CTFileStream@@QAE@XZ
        249   F8 000104B0 ??0CTMemoryStream@@QAE@AAV0@@Z
        250   F9 00055290 ??0CTMemoryStream@@QAE@PAXJW4OpenMode@CTStream@@@Z
        251   FA 00055180 ??0CTMemoryStream@@QAE@XZ
        252   FB 00057710 ??0CTSingleLock@@QAE@PAVCTCriticalSection@@H@Z
        253   FC 000103A0 ??0CTStream@@QAE@AAV0@@Z
        254   FD 00054DF0 ??0CTStream@@QAE@XZ
        255   FE 00001210 ??0CTString@@QAA@JPBDZZ
        256   FF 000011B0 ??0CTString@@QAE@ABV0@@Z
        257  100 000011D0 ??0CTString@@QAE@PBD@Z
        258  101 000011F0 ??0CTString@@QAE@PBG@Z
        259  102 00001190 ??0CTString@@QAE@XZ
        260  103 00035E80 ??0CTWString@@QAE@ABV0@@Z
        261  104 00035EC0 ??0CTWString@@QAE@PBD@Z
        262  105 00035EA0 ??0CTWString@@QAE@PBG@Z
        263  106 00035E60 ??0CTWString@@QAE@XZ
        264  107 001B54D0 ??0CTeamInfo@@QAE@XZ
        265  108 00097500 ??0CTerrain@@QAE@ABV0@@Z
        266  109 0018F490 ??0CTerrain@@QAE@XZ
        267  10A 000E30F0 ??0CTerrainArchive@@QAE@AAV0@@Z
        268  10B 000E2D10 ??0CTerrainArchive@@QAE@XZ
        269  10C 00140EE0 ??0CTerrainLayer@@QAE@ABV0@@Z
        270  10D 00196CF0 ??0CTerrainLayer@@QAE@XZ
        271  10E 000B0D90 ??0CTextureBlending@@QAE@ABV0@@Z
        272  10F 000DD460 ??0CTextureBlending@@QAE@XZ
        273  110 00010680 ??0CTextureData@@QAE@ABV0@@Z
        274  111 000A7260 ??0CTextureData@@QAE@XZ
        275  112 000BAC40 ??0CTextureDataInfo@@QAE@ABV0@@Z
        276  113 000BAB60 ??0CTextureDataInfo@@QAE@XZ
        277  114 00004160 ??0CTextureObject@@QAE@ABV0@@Z
        278  115 000A6BF0 ??0CTextureObject@@QAE@XZ
        279  116 000B0CE0 ??0CTextureTransformation@@QAE@ABV0@@Z
        280  117 000DD3E0 ??0CTextureTransformation@@QAE@XZ
        281  118 000BB010 ??0CThumbnailSettings@@QAE@ABV0@@Z
        282  119 000BBD80 ??0CThumbnailSettings@@QAE@XZ
        283  11A 00001520 ??0CTimer@@QAE@ABV0@@Z
        284  11B 00057DB0 ??0CTimer@@QAE@H@Z
        285  11C 0005B920 ??0CUpdateable@@QAE@XZ
        286  11D 0005B960 ??0CUpdateableRT@@QAE@XZ
        287  11E 0003C8D0 ??0CViewPort@@QAE@ABV0@@Z
        288  11F 000AF1F0 ??0CViewPort@@QAE@JJPAUHWND__@@@Z
        289  120 000DF860 ??0CWorld@@QAE@XZ
        290  121 0012FF20 ??0CWorldRenderPrefs@@QAE@XZ
        291  122 00001BC0 ??0CriticalSection@@QAE@XZ
        292  123 00005510 ??0EBegin@@QAE@ABV0@@Z
        293  124 001CB5F0 ??0EBegin@@QAE@XZ
        294  125 00017110 ??0EBlock@@QAE@ABV0@@Z
        295  126 001CC300 ??0EBlock@@QAE@XZ
        296  127 00005E70 ??0EBouncedWall@@QAE@ABV0@@Z
        297  128 001CBFC0 ??0EBouncedWall@@QAE@XZ
        298  129 00005D70 ??0EBuildModelBrushCollision@@QAE@ABV0@@Z
        299  12A 001CB980 ??0EBuildModelBrushCollision@@QAE@XZ
        300  12B 00017400 ??0EDamage@@QAE@ABV0@@Z
        301  12C 001CC050 ??0EDamage@@QAE@XZ
        302  12D 00006330 ??0EDamageType@@QAE@ABV0@@Z
        303  12E 001CC130 ??0EDamageType@@QAE@XZ
        304  12F 000176E0 ??0EDeath@@QAE@ABV0@@Z
        305  130 001CC3B0 ??0EDeath@@QAE@XZ
        306  131 00005B50 ??0EFirstWorldBase@@QAE@ABV0@@Z
        307  132 001CB8B0 ??0EFirstWorldBase@@QAE@XZ
        308  133 00005210 ??0EInternal@@QAE@ABV0@@Z
        309  134 001CB4D0 ??0EInternal@@QAE@XZ
        310  135 00006130 ??0ELocalEntity@@QAE@ABV0@@Z
        311  136 001CBB10 ??0ELocalEntity@@QAE@XZ
        312  137 00016E70 ??0EPass@@QAE@ABV0@@Z
        313  138 001CBDF0 ??0EPass@@QAE@XZ
        314  139 00006000 ??0EPlayerInit@@QAE@ABV0@@Z
        315  13A 001CBAA0 ??0EPlayerInit@@QAE@XZ
        316  13B 00005A30 ??0EPostLevelChange@@QAE@ABV0@@Z
        317  13C 001CB840 ??0EPostLevelChange@@QAE@XZ
        318  13D 00005910 ??0EPreLevelChange@@QAE@ABV0@@Z
        319  13E 001CB7D0 ??0EPreLevelChange@@QAE@XZ
        320  13F 00006230 ??0ERemoteEntity@@QAE@ABV0@@Z
        321  140 001CBB70 ??0ERemoteEntity@@QAE@XZ
        322  141 00005410 ??0EReturn@@QAE@ABV0@@Z
        323  142 001CB590 ??0EReturn@@QAE@XZ
        324  143 00005C50 ??0ETakingBreath@@QAE@ABV0@@Z
        325  144 001CB910 ??0ETakingBreath@@QAE@XZ
        326  145 00005810 ??0ETeleport@@QAE@ABV0@@Z
        327  146 001CB770 ??0ETeleport@@QAE@XZ
        328  147 00005610 ??0ETimer@@QAE@ABV0@@Z
        329  148 001CB650 ??0ETimer@@QAE@XZ
        330  149 00016B80 ??0ETouch@@QAE@ABV0@@Z
        331  14A 001CC250 ??0ETouch@@QAE@XZ
        332  14B 00005310 ??0EVoid@@QAE@ABV0@@Z
        333  14C 001CB530 ??0EVoid@@QAE@XZ
        334  14D 00005710 ??0EWouldFall@@QAE@ABV0@@Z
        335  14E 001CB710 ??0EWouldFall@@QAE@XZ
        336  14F 0002B250 ??0FieldInfo@@QAE@ABV0@@Z
        337  150 001B67E0 ??0FieldInfo@@QAE@XZ
        338  151 001B36A0 ??0IScavengerBrokerNet@@QAE@ABV0@@Z
        339  152 001B3690 ??0IScavengerBrokerNet@@QAE@XZ
        340  153 001DD8D0 ??0LoadModelMng@@AAE@XZ
        341  154 0001B7A0 ??0MappingSurface@@QAE@ABU0@@Z
        342  155 000CA3C0 ??0MappingSurface@@QAE@XZ
        343  156 00022480 ??0MeshLOD@@QAE@ABU0@@Z
        344  157 00173AF0 ??0MeshLOD@@QAE@XZ
        345  158 0001C130 ??0MeshMorphMap@@QAE@ABU0@@Z
        346  159 000182D0 ??0MeshMorphMap@@QAE@XZ
        347  15A 0001F1B0 ??0MeshSurface@@QAE@ABU0@@Z
        348  15B 00172690 ??0MeshSurface@@QAE@XZ
        349  15C 0001BFD0 ??0MeshUVMap@@QAE@ABU0@@Z
        350  15D 00018240 ??0MeshUVMap@@QAE@XZ
        351  15E 0001C0E0 ??0MeshWeightMap@@QAE@ABU0@@Z
        352  15F 00018290 ??0MeshWeightMap@@QAE@XZ
        353  160 00017AE0 ??0ModelFrameInfo@@QAE@XZ
        354  161 000115A0 ??0ModelFrameVertex16@@QAE@XZ
        355  162 00011590 ??0ModelFrameVertex16_old@@QAE@XZ
        356  163 00011580 ??0ModelFrameVertex8@@QAE@XZ
        357  164 00023C70 ??0ModelMipInfo@@QAE@ABU0@@Z
        358  165 000CD4D0 ??0ModelMipInfo@@QAE@XZ
        359  166 0001B710 ??0ModelPolygon@@QAE@ABU0@@Z
        360  167 000CA330 ??0ModelPolygon@@QAE@XZ
        361  168 000C84F0 ??0ModelTextureVertex@@QAE@XZ
        362  169 0001B9E0 ??0PolygonsPerPatch@@QAE@ABU0@@Z
        363  16A 00017B30 ??0PolygonsPerPatch@@QAE@XZ
        364  16B 00043070 ??0PreLoadMng@@AAE@XZ
        365  16C 00042FB0 ??0PreLoadMng@@QAE@ABV0@@Z
        366  16D 000183F0 ??0SkeletonBone@@QAE@XZ
        367  16E 000209A0 ??0SkeletonLOD@@QAE@ABU0@@Z
        368  16F 00018310 ??0SkeletonLOD@@QAE@XZ
        369  170 001C40A0 ??0TestLog@@AAE@XZ
        370  171 00057790 ??0Thread@@QAE@XZ
        371  172 000115B0 ??0TransformedVertexData@@QAE@XZ
        372  173 00002790 ??0xDeviceFile@File@Device@Xenesis2@@QAE@ABV0123@@Z
        373  174 00002770 ??0xDeviceFile@File@Device@Xenesis2@@QAE@XZ
        374  175 0001B1A0 ??0xFile@File@Foundation@Xenesis2@@AAE@PAVxDeviceFile@1Device@3@_NAAUXFSFileInfo@123@@Z
        375  176 00028AD0 ??0xFileManager@File@Foundation@Xenesis2@@QAE@W4file_system@1Device@3@@Z
        376  177 001CABB0 ??0xHoppingMemory@Xenesis@@AAE@XZ
        377  178 00001CE0 ??0xLifePriority@Internal@Xenesis@@QAE@ABV012@@Z
        378  179 00001C90 ??0xLifePriority@Internal@Xenesis@@QAE@H@Z
        379  17A 001C95E0 ??0xWindowFile@File@Device@Xenesis2@@QAE@ABV0123@@Z
        380  17B 001C93F0 ??0xWindowFile@File@Device@Xenesis2@@QAE@XZ
        381  17C 00051FA0 ??0xfsMan@@QAE@XZ
        382  17D 001DCD10 ??1?$ThreadBase@$0A@$00@@UAE@XZ
        383  17E 00018400 ??1?$ThreadBase@$0A@$0BPE@@@UAE@XZ
        384  17F 0002BF50 ??1AccountInfo_s@@QAE@XZ
        385  180 001C0160 ??1CAOTime@@QAE@XZ
        386  181 001BFE90 ??1CAOTimeInfo@@QAE@XZ
        387  182 001B4B40 ??1CAOTimeOld@@QAE@XZ
        388  183 000317B0 ??1CAnimData@@UAE@XZ
        389  184 00030B30 ??1CAnimObject@@QAE@XZ
        390  185 00170540 ??1CAnimSet@@UAE@XZ
        391  186 000BBF90 ??1CAttachedModel@@QAE@XZ
        392  187 000BAF60 ??1CAttachedSound@@QAE@XZ
        393  188 00045D20 ??1CAttachmentModelObject@@QAE@XZ
        394  189 00142CC0 ??1CAutoPrecacheModel@@QAE@XZ
        395  18A 00142B40 ??1CAutoPrecacheSound@@QAE@XZ
        396  18B 00142D90 ??1CAutoPrecacheTexture@@QAE@XZ
        397  18C 001AEB40 ??1CBladeTrail@@QAE@XZ
        398  18D 00152750 ??1CBrush3D@@QAE@XZ
        399  18E 000E2B00 ??1CBrushArchive@@UAE@XZ
        400  18F 00004BE0 ??1CBrushMip@@QAE@XZ
        401  190 00016A50 ??1CBrushPolygon@@QAE@XZ
        402  191 00004950 ??1CBrushPolygonTexture@@QAE@XZ
        403  192 0015A330 ??1CBrushSector@@QAE@XZ
        404  193 0015E130 ??1CBrushShadowLayer@@QAE@XZ
        405  194 0015E590 ??1CBrushShadowMap@@QAE@XZ
        406  195 000F3040 ??1CCastRay@@QAE@XZ
        407  196 001A6590 ??1CCharManager@@AAE@XZ
        408  197 0014E970 ??1CClipTest@@QAE@XZ
        409  198 001AEDE0 ??1CCollisionCapsule@@QAE@XZ
        410  199 000E3960 ??1CCollisionInfo@@QAE@XZ
        411  19A 001AEDD0 ??1CCollisionSphere@@QAE@XZ
        412  19B 00006920 ??1CCommunicationInterface@@QAE@XZ
        413  19C 000B0F80 ??1CContentType@@QAE@XZ
        414  19D 001B1B70 ??1CControlBone@@QAE@XZ
        415  19E 00044D30 ??1CDisableAsyncProgress@@QAE@XZ
        416  19F 000780E0 ??1CDrawPort@@QAE@XZ
        417  1A0 001B0250 ??1CDynParticle@@QAE@XZ
        418  1A1 000C01E0 ??1CEditModel@@UAE@XZ
        419  1A2 0014DBA0 ??1CEntitiesDLL@@AAE@XZ
        420  1A3 00146A40 ??1CEntity@@UAE@XZ
        421  1A4 0014DF60 ??1CEntityClass@@UAE@XZ
        422  1A5 00007DC0 ??1CEntityComponent@@QAE@XZ
        423  1A6 00004E10 ??1CEntityEvent@@UAE@XZ
        424  1A7 001433A0 ??1CEntityID@@QAE@XZ
        425  1A8 00006B20 ??1CEntityMessage@@QAE@XZ
        426  1A9 000B10A0 ??1CEnvironmentType@@QAE@XZ
        427  1AA 0012FCD0 ??1CFieldSettings@@QAE@XZ
        428  1AB 00003E20 ??1CFileNameNode@@QAE@XZ
        429  1AC 001A77A0 ??1CFontData@@UAE@XZ
        430  1AD 001ADDE0 ??1CFontTexture@@AAE@XZ
        431  1AE 0009CE80 ??1CGfxLibrary@@QAE@XZ
        432  1AF 000B1140 ??1CIlluminationType@@QAE@XZ
        433  1B0 0009F660 ??1CImageInfo@@QAE@XZ
        434  1B1 0003C6C0 ??1CInput@@QAE@XZ
        435  1B2 0003BEE0 ??1CInputDevice@@QAE@XZ
        436  1B3 001B0AF0 ??1CKeyCommand@@QAE@XZ
        437  1B4 001120F0 ??1CLastPositions@@QAE@XZ
        438  1B5 0013EFD0 ??1CLensFlareType@@QAE@XZ
        439  1B6 00166410 ??1CLightSource@@QAE@XZ
        440  1B7 00001320 ??1CListNode@@QAE@XZ
        441  1B8 00006830 ??1CLiveEntity@@UAE@XZ
        442  1B9 001BDEE0 ??1CMD5@@UAE@XZ
        443  1BA 000BAD00 ??1CMappingUndo@@QAE@XZ
        444  1BB 00177AA0 ??1CMesh@@UAE@XZ
        445  1BC 0011C6C0 ??1CMessageDispatcher@@UAE@XZ
        446  1BD 00007480 ??1CModelCollisionBox@@QAE@XZ
        447  1BE 000CD6E0 ??1CModelData@@UAE@XZ
        448  1BF 00007590 ??1CModelInfo@@QAE@XZ
        449  1C0 0017BF40 ??1CModelInstance@@QAE@XZ
        450  1C1 0017CC20 ??1CModelInstanceSerial@@UAE@XZ
        451  1C2 000CA520 ??1CModelObject@@QAE@XZ
        452  1C3 00007260 ??1CModelPatch@@QAE@XZ
        453  1C4 000B5A30 ??1CMovableBrushEntity@@UAE@XZ
        454  1C5 001D52C0 ??1CMovableEntity@@UAE@XZ
        455  1C6 000B5970 ??1CMovableModelEntity@@UAE@XZ
        456  1C7 0011EFF0 ??1CNet@@QAE@XZ
        457  1C8 00004F10 ??1CNetMessage@@QAE@XZ
        458  1C9 0010D4E0 ??1CNetworkLibrary@@UAE@XZ
        459  1CA 001204B0 ??1CNetworkMessage@@QAE@XZ
        460  1CB 00006BE0 ??1CNetworkProvider@@QAE@XZ
        461  1CC 00006DC0 ??1CNetworkSession@@QAE@XZ
        462  1CD 0005D630 ??1CObject3D@@QAE@XZ
        463  1CE 0005E8D0 ??1CObjectPolygon@@QAE@XZ
        464  1CF 00065D00 ??1CObjectSector@@QAE@XZ
        465  1D0 0012FD40 ??1COneLensFlare@@QAE@XZ
        466  1D1 001B1930 ??1CParticle@@QAE@XZ
        467  1D2 000B56C0 ??1CPlayerCharacter@@QAE@XZ
        468  1D3 000B5AD0 ??1CPlayerEntity@@UAE@XZ
        469  1D4 00122400 ??1CPlayerSource@@QAE@XZ
        470  1D5 001B3070 ??1CPonytail@@QAE@XZ
        471  1D6 001C4820 ??1CQMSLog@@AAE@XZ
        472  1D7 00017950 ??1CRationalEntity@@UAE@XZ
        473  1D8 00045A00 ??1CRelationDst@@QAE@XZ
        474  1D9 00045A10 ??1CRelationSrc@@QAE@XZ
        475  1DA 000D20C0 ??1CRenderModel@@QAE@XZ
        476  1DB 0004A5A0 ??1CSerial@@UAE@XZ
        477  1DC 00125520 ??1CServer@@QAE@XZ
        478  1DD 0012D200 ??1CSessionState@@QAE@XZ
        479  1DE 0005BA70 ??1CSetFPUPrecision@@QAE@XZ
        480  1DF 00018100 ??1CShader@@UAE@XZ
        481  1E0 00109CB0 ??1CShadingInfo@@QAE@XZ
        482  1E1 000A4F50 ??1CShadowMap@@QAE@XZ
        483  1E2 0004C620 ??1CShell@@QAE@XZ
        484  1E3 0018ED30 ??1CSkeleton@@UAE@XZ
        485  1E4 000AF480 ??1CSoundData@@UAE@XZ
        486  1E5 000B3750 ??1CSoundLibrary@@QAE@XZ
        487  1E6 000B66A0 ??1CSoundObject@@QAE@XZ
        488  1E7 000B0E50 ??1CSurfaceType@@QAE@XZ
        489  1E8 000575B0 ??1CTCriticalSection@@QAE@XZ
        490  1E9 000019E0 ??1CTFileName@@QAE@XZ
        491  1EA 00055810 ??1CTFileStream@@UAE@XZ
        492  1EB 000553C0 ??1CTMemoryStream@@UAE@XZ
        493  1EC 00057740 ??1CTSingleLock@@QAE@XZ
        494  1ED 00054EE0 ??1CTStream@@UAE@XZ
        495  1EE 00001240 ??1CTString@@QAE@XZ
        496  1EF 00035EE0 ??1CTWString@@QAE@XZ
        497  1F0 001B54E0 ??1CTeamInfo@@QAE@XZ
        498  1F1 0018F550 ??1CTerrain@@QAE@XZ
        499  1F2 000E2D70 ??1CTerrainArchive@@UAE@XZ
        500  1F3 00196FA0 ??1CTerrainLayer@@QAE@XZ
        501  1F4 000B0D80 ??1CTextureBlending@@QAE@XZ
        502  1F5 000A9A50 ??1CTextureData@@UAE@XZ
        503  1F6 000BABD0 ??1CTextureDataInfo@@QAE@XZ
        504  1F7 00004150 ??1CTextureObject@@QAE@XZ
        505  1F8 000B0CD0 ??1CTextureTransformation@@QAE@XZ
        506  1F9 000BB000 ??1CThumbnailSettings@@QAE@XZ
        507  1FA 00057A80 ??1CTimer@@QAE@XZ
        508  1FB 000AEFD0 ??1CViewPort@@QAE@XZ
        509  1FC 000DFF00 ??1CWorld@@QAE@XZ
        510  1FD 00001BD0 ??1CriticalSection@@QAE@XZ
        511  1FE 00005500 ??1EBegin@@UAE@XZ
        512  1FF 000170B0 ??1EBlock@@UAE@XZ
        513  200 00005E60 ??1EBouncedWall@@UAE@XZ
        514  201 00005D60 ??1EBuildModelBrushCollision@@UAE@XZ
        515  202 000173A0 ??1EDamage@@UAE@XZ
        516  203 00006320 ??1EDamageType@@UAE@XZ
        517  204 00017670 ??1EDeath@@UAE@XZ
        518  205 00005B40 ??1EFirstWorldBase@@UAE@XZ
        519  206 00005200 ??1EInternal@@UAE@XZ
        520  207 00006120 ??1ELocalEntity@@UAE@XZ
        521  208 00016E10 ??1EPass@@UAE@XZ
        522  209 00005FF0 ??1EPlayerInit@@UAE@XZ
        523  20A 00005A20 ??1EPostLevelChange@@UAE@XZ
        524  20B 00005900 ??1EPreLevelChange@@UAE@XZ
        525  20C 00006220 ??1ERemoteEntity@@UAE@XZ
        526  20D 00005400 ??1EReturn@@UAE@XZ
        527  20E 00005C40 ??1ETakingBreath@@UAE@XZ
        528  20F 00005800 ??1ETeleport@@UAE@XZ
        529  210 00005600 ??1ETimer@@UAE@XZ
        530  211 00016B20 ??1ETouch@@UAE@XZ
        531  212 00005300 ??1EVoid@@UAE@XZ
        532  213 00005700 ??1EWouldFall@@UAE@XZ
        533  214 001B6A80 ??1FieldInfo@@QAE@XZ
        534  215 001DD9B0 ??1LoadModelMng@@EAE@XZ
        535  216 000CA370 ??1MappingSurface@@QAE@XZ
        536  217 00173B90 ??1MeshLOD@@QAE@XZ
        537  218 000182E0 ??1MeshMorphMap@@QAE@XZ
        538  219 001726D0 ??1MeshSurface@@QAE@XZ
        539  21A 00018260 ??1MeshUVMap@@QAE@XZ
        540  21B 000182A0 ??1MeshWeightMap@@QAE@XZ
        541  21C 000CD580 ??1ModelMipInfo@@QAE@XZ
        542  21D 000CA340 ??1ModelPolygon@@QAE@XZ
        543  21E 0001B990 ??1PolygonsPerPatch@@QAE@XZ
        544  21F 00042BE0 ??1PreLoadMng@@AAE@XZ
        545  220 00018370 ??1SkeletonLOD@@QAE@XZ
        546  221 001C3FD0 ??1TestLog@@AAE@XZ
        547  222 000577F0 ??1Thread@@QAE@XZ
        548  223 00002780 ??1xDeviceFile@File@Device@Xenesis2@@UAE@XZ
        549  224 00016800 ??1xFile@File@Foundation@Xenesis2@@QAE@XZ
        550  225 00028B60 ??1xFileManager@File@Foundation@Xenesis2@@QAE@XZ
        551  226 001CAD30 ??1xHoppingMemory@Xenesis@@EAE@XZ
        552  227 00001CB0 ??1xLifePriority@Internal@Xenesis@@UAE@XZ
        553  228 001C9E50 ??1xWindowFile@File@Device@Xenesis2@@UAE@XZ
        554  229 000558A0 ??1xfsMan@@QAE@XZ
        555  22A 001DC650 ??4?$ThreadBase@$0A@$00@@QAEAAV0@ABV0@@Z
        556  22B 00001E50 ??4?$ThreadBase@$0A@$0BPE@@@QAEAAV0@ABV0@@Z
        557  22C 0002C950 ??4AccountInfo_s@@QAEAAU0@ABU0@@Z
        558  22D 000225B0 ??4CAOTime@@QAEAAV0@ABV0@@Z
        559  22E 00008660 ??4CAOTimeInfo@@QAEAAV0@ABV0@@Z
        560  22F 00007C30 ??4CAOTimeOld@@QAEAAV0@ABV0@@Z
        561  230 000282C0 ??4CAnimSet@@QAEAAV0@ABV0@@Z
        562  231 00003CB0 ??4CAnyProjection3D@@QAEXABV0@@Z
        563  232 00003D80 ??4CAnyProjection3D@@QAEXABVCIsometricProjection3D@@@Z
        564  233 00003DF0 ??4CAnyProjection3D@@QAEXABVCParallelProjection3D@@@Z
        565  234 00003DC0 ??4CAnyProjection3D@@QAEXABVCPerspectiveProjection3D@@@Z
        566  235 00003D60 ??4CAnyProjection3D@@QAEXABVCSimpleProjection3D@@@Z
        567  236 000BAE80 ??4CAttachedModel@@QAEAAV0@ABV0@@Z
        568  237 00007550 ??4CAttachedModelPosition@@QAEAAV0@ABV0@@Z
        569  238 000BAFB0 ??4CAttachedSound@@QAEAAV0@ABV0@@Z
        570  239 00045E20 ??4CAttachmentModelObject@@QAEAAV0@ABV0@@Z
        571  23A 000DD250 ??4CAutoPrecacheModel@@QAEAAV0@ABV0@@Z
        572  23B 000DD240 ??4CAutoPrecacheSound@@QAEAAV0@ABV0@@Z
        573  23C 000DD260 ??4CAutoPrecacheTexture@@QAEAAV0@ABV0@@Z
        574  23D 00141100 ??4CBladeTrail@@QAEAAV0@ABV0@@Z
        575  23E 00004DE0 ??4CBoolDefaultFalse@@QAEAAV0@ABV0@@Z
        576  23F 00004D60 ??4CBrush3D@@QAEAAV0@ABV0@@Z
        577  240 000E2B90 ??4CBrushArchive@@QAEAAV0@AAV0@@Z
        578  241 000043A0 ??4CBrushBase@@QAEAAV0@ABV0@@Z
        579  242 000044B0 ??4CBrushEdge@@QAEAAV0@ABV0@@Z
        580  243 00004CD0 ??4CBrushMip@@QAEAAV0@AAV0@@Z
        581  244 00004440 ??4CBrushPlane@@QAEAAV0@ABV0@@Z
        582  245 0001B450 ??4CBrushPolygon@@QAEAAV0@ABV0@@Z
        583  246 00004720 ??4CBrushPolygonEdge@@QAEAAV0@ABV0@@Z
        584  247 000049C0 ??4CBrushPolygonTexture@@QAEAAV0@ABV0@@Z
        585  248 00159A90 ??4CBrushSector@@QAEAAV0@ABV0@@Z
        586  249 000047A0 ??4CBrushShadowLayer@@QAEAAV0@ABV0@@Z
        587  24A 00004850 ??4CBrushShadowMap@@QAEAAV0@ABV0@@Z
        588  24B 00004400 ??4CBrushVertex@@QAEAAV0@ABV0@@Z
        589  24C 000A0650 ??4CCastRay@@QAEAAV0@ABV0@@Z
        590  24D 00002270 ??4CChangeable@@QAEAAV0@ABV0@@Z
        591  24E 00032AD0 ??4CChangeableRT@@QAEAAV0@ABV0@@Z
        592  24F 00002C30 ??4CChunkID@@QAEAAV0@ABV0@@Z
        593  250 000E8640 ??4CClipTest@@QAEAAV0@ABV0@@Z
        594  251 001413C0 ??4CCollisionCapsule@@QAEAAV0@ABV0@@Z
        595  252 000E85E0 ??4CCollisionInfo@@QAEAAV0@ABV0@@Z
        596  253 001411D0 ??4CCollisionSphere@@QAEAAV0@ABV0@@Z
        597  254 00010E10 ??4CCommunicationInterface@@QAEAAV0@ABV0@@Z
        598  255 000B1000 ??4CContentType@@QAEAAV0@ABV0@@Z
        599  256 00141560 ??4CControlBone@@QAEAAV0@ABV0@@Z
        600  257 00007EC0 ??4CDLLEntityClass@@QAEAAV0@ABV0@@Z
        601  258 00007EA0 ??4CDLLEntityEvent@@QAEAAV0@ABV0@@Z
        602  259 00001A60 ??4CDisableAsyncProgress@@QAEAAV0@ABV0@@Z
        603  25A 00001F20 ??4CDisplayMode@@QAEAAV0@ABV0@@Z
        604  25B 000780F0 ??4CDrawPort@@QAEAAV0@AAV0@@Z
        605  25C 001414B0 ??4CDynParticle@@QAEAAV0@ABV0@@Z
        606  25D 000C5AB0 ??4CEditModel@@QAEAAV0@AAV0@@Z
        607  25E 00006510 ??4CEntity@@UAEAAV0@AAV0@@Z
        608  25F 000080B0 ??4CEntityClass@@QAEAAV0@ABV0@@Z
        609  260 00007E30 ??4CEntityComponent@@QAEAAV0@ABV0@@Z
        610  261 00004E60 ??4CEntityEvent@@QAEAAV0@ABV0@@Z
        611  262 00143410 ??4CEntityID@@QAEABV0@AAV0@@Z
        612  263 00143450 ??4CEntityID@@QAEABV0@K@Z
        613  264 001433C0 ??4CEntityID@@QAEABV0@PAVCEntity@@@Z
        614  265 00006B70 ??4CEntityMessage@@QAEAAV0@ABV0@@Z
        615  266 00007D30 ??4CEntityProperty@@QAEAAV0@ABV0@@Z
        616  267 000B10E0 ??4CEnvironmentType@@QAEAAV0@ABV0@@Z
        617  268 0012FD10 ??4CFieldSettings@@QAEAAV0@ABV0@@Z
        618  269 00003E70 ??4CFileNameNode@@QAEAAV0@ABV0@@Z
        619  26A 001414F0 ??4CFlexibleBody@@QAEAAV0@ABV0@@Z
        620  26B 000023E0 ??4CFontCharData@@QAEAAV0@ABV0@@Z
        621  26C 000025F0 ??4CFontData@@QAEAAV0@ABV0@@Z
        622  26D 00016090 ??4CGfxLibrary@@QAEAAV0@ABV0@@Z
        623  26E 000B1170 ??4CIlluminationType@@QAEAAV0@ABV0@@Z
        624  26F 00077010 ??4CImageInfo@@QAEAAV0@ABV0@@Z
        625  270 00022270 ??4CInput@@QAEAAV0@ABV0@@Z
        626  271 0001EF90 ??4CInputDevice@@QAEAAV0@ABV0@@Z
        627  272 00069210 ??4CIntersector@@QAEAAV0@ABV0@@Z
        628  273 000037F0 ??4CIsometricProjection3D@@QAEAAV0@ABV0@@Z
        629  274 00122340 ??4CKeyCommand@@QAEAAV0@ABV0@@Z
        630  275 001121C0 ??4CLastPositions@@QAEAAV0@ABV0@@Z
        631  276 0013F800 ??4CLensFlareType@@QAEAAV0@ABV0@@Z
        632  277 000DD360 ??4CLightSource@@QAEAAV0@ABV0@@Z
        633  278 000012E0 ??4CListHead@@QAEXABV0@@Z
        634  279 00001340 ??4CListNode@@QAEAAV0@ABV0@@Z
        635  27A 00006840 ??4CLiveEntity@@QAEAAV0@AAV0@@Z
        636  27B 00002980 ??4CMD5@@QAEAAV0@ABV0@@Z
        637  27C 00002FF0 ??4CMappingDefinition@@QAEAAV0@ABV0@@Z
        638  27D 00002F80 ??4CMappingDefinitionUI@@QAEAAV0@ABV0@@Z
        639  27E 000BAD90 ??4CMappingUndo@@QAEAAV0@ABV0@@Z
        640  27F 00002FB0 ??4CMappingVectors@@QAEAAV0@ABV0@@Z
        641  280 0001F300 ??4CMesh@@QAEAAV0@ABV0@@Z
        642  281 00006CF0 ??4CMessageDispatcher@@QAEAAV0@ABV0@@Z
        643  282 00007570 ??4CMipInfo@@QAEAAV0@ABV0@@Z
        644  283 000074E0 ??4CModelCollisionBox@@QAEAAV0@ABV0@@Z
        645  284 000C7BC0 ??4CModelData@@QAEAAV0@ABV0@@Z
        646  285 00007660 ??4CModelInfo@@QAEAAV0@ABV0@@Z
        647  286 00179710 ??4CModelInstance@@QAEXAAV0@@Z
        648  287 00008520 ??4CModelInstanceSerial@@QAEAAV0@ABV0@@Z
        649  288 00045C40 ??4CModelObject@@QAEAAV0@ABV0@@Z
        650  289 00007340 ??4CModelPatch@@QAEAAV0@ABV0@@Z
        651  28A 000BAAF0 ??4CModelRenderPrefs@@QAEAAV0@ABV0@@Z
        652  28B 000B9DE0 ??4CMovableBrushEntity@@QAEAAV0@AAV0@@Z
        653  28C 000B9780 ??4CMovableEntity@@QAEAAV0@AAV0@@Z
        654  28D 000B9DB0 ??4CMovableModelEntity@@QAEAAV0@AAV0@@Z
        655  28E 000E3210 ??4CMovingSphere@@QAEAAV0@ABV0@@Z
        656  28F 000051E0 ??4CNetMessage@@QAEAAV0@ABV0@@Z
        657  290 00120440 ??4CNetworkMessage@@QAEXABV0@@Z
        658  291 00006C80 ??4CNetworkProvider@@QAEAAV0@ABV0@@Z
        659  292 00006F50 ??4CNetworkSession@@QAEAAV0@ABV0@@Z
        660  293 0005D600 ??4CObject3D@@QAEAAV0@AAV0@@Z
        661  294 0005E5A0 ??4CObjectPolygon@@QAEAAV0@AAV0@@Z
        662  295 0005CEC0 ??4CObjectPolygonEdge@@QAEAAV0@ABV0@@Z
        663  296 00065A50 ??4CObjectSector@@QAEAAV0@AAV0@@Z
        664  297 0012FDA0 ??4COneLensFlare@@QAEAAV0@ABV0@@Z
        665  298 000038A0 ??4CParallelProjection3D@@QAEAAV0@ABV0@@Z
        666  299 00141510 ??4CParticle@@QAEAAV0@ABV0@@Z
        667  29A 00003710 ??4CPerspectiveProjection3D@@QAEAAV0@ABV0@@Z
        668  29B 00003030 ??4CPlacement3D@@QAEAAV0@ABV0@@Z
        669  29C 00006AF0 ??4CPlayerAction@@QAEAAV0@ABV0@@Z
        670  29D 001521A0 ??4CPlayerCharacter@@QAEAAV0@ABV0@@Z
        671  29E 000B9E00 ??4CPlayerEntity@@QAEAAV0@AAV0@@Z
        672  29F 00109BA0 ??4CPlayerSource@@QAEAAV0@ABV0@@Z
        673  2A0 0014CEB0 ??4CPonytail@@QAEAAV0@AAV0@@Z
        674  2A1 000BAB40 ??4CProgressRoutines@@QAEAAV0@ABV0@@Z
        675  2A2 00003390 ??4CProjection3D@@QAEAAV0@ABV0@@Z
        676  2A3 0001B640 ??4CRationalEntity@@QAEAAV0@AAV0@@Z
        677  2A4 000BAB20 ??4CRenderModel@@QAEAAV0@ABV0@@Z
        678  2A5 001414D0 ??4CRigidBody@@QAEAAV0@ABV0@@Z
        679  2A6 00002300 ??4CSerial@@QAEAAV0@ABV0@@Z
        680  2A7 000BA0B0 ??4CServer@@QAEAAV0@ABV0@@Z
        681  2A8 000B9260 ??4CSessionState@@QAEAAV0@AAV0@@Z
        682  2A9 0005B9A0 ??4CSetFPUPrecision@@QAEAAV0@ABV0@@Z
        683  2AA 0001BF10 ??4CShader@@QAEAAV0@ABV0@@Z
        684  2AB 00109D30 ??4CShadingInfo@@QAEAAV0@ABV0@@Z
        685  2AC 000042A0 ??4CShadowMap@@QAEAAV0@ABV0@@Z
        686  2AD 000018C0 ??4CShell@@QAEAAV0@AAV0@@Z
        687  2AE 00003950 ??4CSimpleProjection3D@@QAEAAV0@ABV0@@Z
        688  2AF 0005CF40 ??4CSimpleProjection3D_DOUBLE@@QAEAAV0@ABV0@@Z
        689  2B0 00024530 ??4CSkeleton@@QAEAAV0@ABV0@@Z
        690  2B1 00007110 ??4CSoundData@@QAEAAV0@ABV0@@Z
        691  2B2 00046050 ??4CSoundObject@@QAEAAV0@ABV0@@Z
        692  2B3 000B0EC0 ??4CSurfaceType@@QAEAAV0@ABV0@@Z
        693  2B4 00001A20 ??4CTFileName@@QAEAAV0@ABV0@@Z
        694  2B5 00037140 ??4CTFileName@@QAEAAV0@PBD@Z
        695  2B6 000019A0 ??4CTFileName@@QAEXABVCTString@@@Z
        696  2B7 00001290 ??4CTString@@QAEAAV0@ABV0@@Z
        697  2B8 00001260 ??4CTString@@QAEAAV0@PBD@Z
        698  2B9 00035EF0 ??4CTWString@@QAEAAV0@ABV0@@Z
        699  2BA 00035F50 ??4CTWString@@QAEAAV0@PBD@Z
        700  2BB 00035F20 ??4CTWString@@QAEAAV0@PBG@Z
        701  2BC 00007A90 ??4CTeamInfo@@QAEAAV0@ABV0@@Z
        702  2BD 00097540 ??4CTerrain@@QAEAAV0@ABV0@@Z
        703  2BE 000E2DD0 ??4CTerrainArchive@@QAEAAV0@AAV0@@Z
        704  2BF 00196E10 ??4CTerrainLayer@@QAEAAV0@ABV0@@Z
        705  2C0 000B0DC0 ??4CTextureBlending@@QAEAAV0@ABV0@@Z
        706  2C1 000107B0 ??4CTextureData@@QAEAAV0@ABV0@@Z
        707  2C2 000BACB0 ??4CTextureDataInfo@@QAEAAV0@ABV0@@Z
        708  2C3 00004180 ??4CTextureObject@@QAEAAV0@ABV0@@Z
        709  2C4 000B0D30 ??4CTextureTransformation@@QAEAAV0@ABV0@@Z
        710  2C5 000BB110 ??4CThumbnailSettings@@QAEAAV0@ABV0@@Z
        711  2C6 00001560 ??4CTimer@@QAEAAV0@ABV0@@Z
        712  2C7 00032AE0 ??4CUpdateable@@QAEAAV0@ABV0@@Z
        713  2C8 00032AF0 ??4CUpdateableRT@@QAEAAV0@ABV0@@Z
        714  2C9 0003C940 ??4CViewPort@@QAEAAV0@AAV0@@Z
        715  2CA 000E9C90 ??4CWorldRenderPrefs@@QAEAAV0@ABV0@@Z
        716  2CB 00001C00 ??4CriticalSection@@QAEAAV0@ABV0@@Z
        717  2CC 00005530 ??4EBegin@@QAEAAV0@ABV0@@Z
        718  2CD 00017160 ??4EBlock@@QAEAAV0@ABV0@@Z
        719  2CE 00005EC0 ??4EBouncedWall@@QAEAAV0@ABV0@@Z
        720  2CF 00005D90 ??4EBuildModelBrushCollision@@QAEAAV0@ABV0@@Z
        721  2D0 00017460 ??4EDamage@@QAEAAV0@ABV0@@Z
        722  2D1 00006380 ??4EDamageType@@QAEAAV0@ABV0@@Z
        723  2D2 00017750 ??4EDeath@@QAEAAV0@ABV0@@Z
        724  2D3 00005B70 ??4EFirstWorldBase@@QAEAAV0@ABV0@@Z
        725  2D4 00005230 ??4EInternal@@QAEAAV0@ABV0@@Z
        726  2D5 00006150 ??4ELocalEntity@@QAEAAV0@ABV0@@Z
        727  2D6 00016EB0 ??4EPass@@QAEAAV0@ABV0@@Z
        728  2D7 00006030 ??4EPlayerInit@@QAEAAV0@ABV0@@Z
        729  2D8 00005A60 ??4EPostLevelChange@@QAEAAV0@ABV0@@Z
        730  2D9 00005940 ??4EPreLevelChange@@QAEAAV0@ABV0@@Z
        731  2DA 00006250 ??4ERemoteEntity@@QAEAAV0@ABV0@@Z
        732  2DB 00005430 ??4EReturn@@QAEAAV0@ABV0@@Z
        733  2DC 00005C80 ??4ETakingBreath@@QAEAAV0@ABV0@@Z
        734  2DD 00005830 ??4ETeleport@@QAEAAV0@ABV0@@Z
        735  2DE 00005630 ??4ETimer@@QAEAAV0@ABV0@@Z
        736  2DF 00016BD0 ??4ETouch@@QAEAAV0@ABV0@@Z
        737  2E0 00005330 ??4EVoid@@QAEAAV0@ABV0@@Z
        738  2E1 00005730 ??4EWouldFall@@QAEAAV0@ABV0@@Z
        739  2E2 0002B510 ??4FieldInfo@@QAEAAV0@ABV0@@Z
        740  2E3 001B36B0 ??4IScavengerBrokerNet@@QAEAAV0@ABV0@@Z
        741  2E4 0001B8C0 ??4MappingSurface@@QAEAAU0@ABU0@@Z
        742  2E5 00175D20 ??4MeshLOD@@QAEXABU0@@Z
        743  2E6 0001C170 ??4MeshMorphMap@@QAEAAU0@ABU0@@Z
        744  2E7 00008210 ??4MeshNormal@@QAEAAU0@ABU0@@Z
        745  2E8 00173D00 ??4MeshSurface@@QAEXABU0@@Z
        746  2E9 00008250 ??4MeshTexCoord@@QAEAAU0@ABU0@@Z
        747  2EA 00008270 ??4MeshTriangle@@QAEAAU0@ABU0@@Z
        748  2EB 0001C010 ??4MeshUVMap@@QAEAAU0@ABU0@@Z
        749  2EC 000081F0 ??4MeshVertex@@QAEAAU0@ABU0@@Z
        750  2ED 000082B0 ??4MeshVertexMorph@@QAEAAU0@ABU0@@Z
        751  2EE 00008290 ??4MeshVertexWeight@@QAEAAU0@ABU0@@Z
        752  2EF 00008230 ??4MeshVertexWeightInfo@@QAEAAU0@ABU0@@Z
        753  2F0 0001C110 ??4MeshWeightMap@@QAEAAU0@ABU0@@Z
        754  2F1 000073E0 ??4ModelFrameInfo@@QAEAAU0@ABU0@@Z
        755  2F2 000073C0 ??4ModelFrameVertex16@@QAEAAU0@ABU0@@Z
        756  2F3 000073A0 ??4ModelFrameVertex16_old@@QAEAAU0@ABU0@@Z
        757  2F4 00007390 ??4ModelFrameVertex8@@QAEAAU0@ABU0@@Z
        758  2F5 00023D90 ??4ModelMipInfo@@QAEAAU0@ABU0@@Z
        759  2F6 0001B760 ??4ModelPolygon@@QAEAAU0@ABU0@@Z
        760  2F7 00007430 ??4ModelPolygonVertex@@QAEAAU0@ABU0@@Z
        761  2F8 00007410 ??4ModelTextureVertex@@QAEAAU0@ABU0@@Z
        762  2F9 0001BA60 ??4PolygonsPerPatch@@QAEAAU0@ABU0@@Z
        763  2FA 00042920 ??4PreLoadMng@@QAEAAV0@ABV0@@Z
        764  2FB 00007C60 ??4ReportUserData@@QAEAAU0@ABU0@@Z
        765  2FC 00008370 ??4SkeletonBone@@QAEAAU0@ABU0@@Z
        766  2FD 00020A40 ??4SkeletonLOD@@QAEAAU0@ABU0@@Z
        767  2FE 00057770 ??4Thread@@QAEAAV0@ABV0@@Z
        768  2FF 00007450 ??4TransformedVertexData@@QAEAAU0@ABU0@@Z
        769  300 000027A0 ??4xDeviceFile@File@Device@Xenesis2@@QAEAAV0123@ABV0123@@Z
        770  301 00001D00 ??4xLifePriority@Internal@Xenesis@@QAEAAV012@ABV012@@Z
        771  302 001C9600 ??4xWindowFile@File@Device@Xenesis2@@QAEAAV0123@ABV0123@@Z
        772  303 00002DB0 ??4xfsMan@@QAEAAV0@ABV0@@Z
        773  304 00070AA0 ??5@YAAAVCTStream@@AAV0@AAVCMappingDefinition@@@Z
        774  305 00068350 ??5@YAAAVCTStream@@AAV0@AAVCPlacement3D@@@Z
        775  306 00152410 ??5@YAAAVCTStream@@AAV0@AAVCPlayerCharacter@@@Z
        776  307 00037470 ??5@YAAAVCTStream@@AAV0@AAVCTFileName@@@Z
        777  308 000353F0 ??5@YAAAVCTStream@@AAV0@AAVCTString@@@Z
        778  309 00005040 ??5CNetMessage@@QAEAAV0@AAC@Z
        779  30A 00004FE0 ??5CNetMessage@@QAEAAV0@AAE@Z
        780  30B 00005020 ??5CNetMessage@@QAEAAV0@AAF@Z
        781  30C 00004FC0 ??5CNetMessage@@QAEAAV0@AAG@Z
        782  30D 00005060 ??5CNetMessage@@QAEAAV0@AAH@Z
        783  30E 00005000 ??5CNetMessage@@QAEAAV0@AAJ@Z
        784  30F 00004FA0 ??5CNetMessage@@QAEAAV0@AAK@Z
        785  310 00004F60 ??5CNetMessage@@QAEAAV0@AAM@Z
        786  311 00004F80 ??5CNetMessage@@QAEAAV0@AAN@Z
        787  312 0011FBB0 ??5CNetMessage@@QAEAAV0@AAV0@@Z
        788  313 00005080 ??5CNetMessage@@QAEAAV0@AA_K@Z
        789  314 00011170 ??5CNetworkMessage@@QAEAAV0@AAC@Z
        790  315 00011060 ??5CNetworkMessage@@QAEAAV0@AAE@Z
        791  316 00011110 ??5CNetworkMessage@@QAEAAV0@AAF@Z
        792  317 00011000 ??5CNetworkMessage@@QAEAAV0@AAG@Z
        793  318 000110B0 ??5CNetworkMessage@@QAEAAV0@AAJ@Z
        794  319 00010FA0 ??5CNetworkMessage@@QAEAAV0@AAK@Z
        795  31A 00010EE0 ??5CNetworkMessage@@QAEAAV0@AAM@Z
        796  31B 00010F40 ??5CNetworkMessage@@QAEAAV0@AAN@Z
        797  31C 00120640 ??5CNetworkMessage@@QAEAAV0@AAVCTString@@@Z
        798  31D 000111C0 ??5CNetworkMessage@@QAEAAV0@AAW4NetworkMessageType@@@Z
        799  31E 00010240 ??5CTStream@@QAEAAV0@AAC@Z
        800  31F 000101E0 ??5CTStream@@QAEAAV0@AAE@Z
        801  320 00010220 ??5CTStream@@QAEAAV0@AAF@Z
        802  321 000101C0 ??5CTStream@@QAEAAV0@AAG@Z
        803  322 00010260 ??5CTStream@@QAEAAV0@AAH@Z
        804  323 00010200 ??5CTStream@@QAEAAV0@AAJ@Z
        805  324 000101A0 ??5CTStream@@QAEAAV0@AAK@Z
        806  325 00010160 ??5CTStream@@QAEAAV0@AAM@Z
        807  326 00010180 ??5CTStream@@QAEAAV0@AAN@Z
        808  327 001523F0 ??6@YAAAVCTStream@@AAV0@AAVCPlayerCharacter@@@Z
        809  328 00070AE0 ??6@YAAAVCTStream@@AAV0@ABVCMappingDefinition@@@Z
        810  329 00068390 ??6@YAAAVCTStream@@AAV0@ABVCPlacement3D@@@Z
        811  32A 000378E0 ??6@YAAAVCTStream@@AAV0@ABVCTFileName@@@Z
        812  32B 000354B0 ??6@YAAAVCTStream@@AAV0@ABVCTString@@@Z
        813  32C 0011FBF0 ??6CNetMessage@@QAEAAV0@AAV0@@Z
        814  32D 000051C0 ??6CNetMessage@@QAEAAV0@AA_K@Z
        815  32E 00005180 ??6CNetMessage@@QAEAAV0@ABC@Z
        816  32F 00005120 ??6CNetMessage@@QAEAAV0@ABE@Z
        817  330 00005160 ??6CNetMessage@@QAEAAV0@ABF@Z
        818  331 00005100 ??6CNetMessage@@QAEAAV0@ABG@Z
        819  332 000051A0 ??6CNetMessage@@QAEAAV0@ABH@Z
        820  333 00005140 ??6CNetMessage@@QAEAAV0@ABJ@Z
        821  334 000050E0 ??6CNetMessage@@QAEAAV0@ABK@Z
        822  335 000050A0 ??6CNetMessage@@QAEAAV0@ABM@Z
        823  336 000050C0 ??6CNetMessage@@QAEAAV0@ABN@Z
        824  337 000114C0 ??6CNetworkMessage@@QAEAAV0@ABC@Z
        825  338 000113A0 ??6CNetworkMessage@@QAEAAV0@ABE@Z
        826  339 00011460 ??6CNetworkMessage@@QAEAAV0@ABF@Z
        827  33A 00011340 ??6CNetworkMessage@@QAEAAV0@ABG@Z
        828  33B 00011400 ??6CNetworkMessage@@QAEAAV0@ABJ@Z
        829  33C 000112E0 ??6CNetworkMessage@@QAEAAV0@ABK@Z
        830  33D 00011220 ??6CNetworkMessage@@QAEAAV0@ABM@Z
        831  33E 00011280 ??6CNetworkMessage@@QAEAAV0@ABN@Z
        832  33F 00120700 ??6CNetworkMessage@@QAEAAV0@ABVCTString@@@Z
        833  340 00011520 ??6CNetworkMessage@@QAEAAV0@ABW4NetworkMessageType@@@Z
        834  341 00010360 ??6CTStream@@QAEAAV0@ABC@Z
        835  342 00010300 ??6CTStream@@QAEAAV0@ABE@Z
        836  343 00010340 ??6CTStream@@QAEAAV0@ABF@Z
        837  344 000102E0 ??6CTStream@@QAEAAV0@ABG@Z
        838  345 00010380 ??6CTStream@@QAEAAV0@ABH@Z
        839  346 00010320 ??6CTStream@@QAEAAV0@ABJ@Z
        840  347 000102C0 ??6CTStream@@QAEAAV0@ABK@Z
        841  348 00010280 ??6CTStream@@QAEAAV0@ABM@Z
        842  349 000102A0 ??6CTStream@@QAEAAV0@ABN@Z
        843  34A 000343E0 ??8@YAHPBDABVCTString@@@Z
        844  34B 00002C70 ??8CChunkID@@QBEHABV0@@Z
        845  34C 00010500 ??8CPlacement3D@@QBEHABV0@@Z
        846  34D 00152240 ??8CPlayerCharacter@@QBEHABV0@@Z
        847  34E 000343A0 ??8CTString@@QBEHABV0@@Z
        848  34F 000343C0 ??8CTString@@QBEHPBD@Z
        849  350 00035F80 ??8CTWString@@QBEHABV0@@Z
        850  351 00035FA0 ??8CTWString@@QBEHPBG@Z
        851  352 000C7E80 ??8MappingSurface@@QBEHABU0@@Z
        852  353 00034440 ??9@YAHPBDABVCTString@@@Z
        853  354 0005C920 ??9@YAXAAV?$Matrix@N$02$02@@ABV?$Vector@M$02@@@Z
        854  355 00002C90 ??9CChunkID@@QBEHABV0@@Z
        855  356 00034400 ??9CTString@@QBEHABV0@@Z
        856  357 00034420 ??9CTString@@QBEHPBD@Z
        857  358 00035FC0 ??9CTWString@@QBEHABV0@@Z
        858  359 00035FE0 ??9CTWString@@QBEHPBG@Z
        859  35A 00003CA0 ??BCAnyProjection3D@@QAEPAVCProjection3D@@XZ
        860  35B 00002C20 ??BCChunkID@@QAEPADXZ
        861  35C 00002C10 ??BCChunkID@@QBEPBDXZ
        862  35D 001416C0 ??BCEntityID@@QBEPAVCEntity@@XZ
        863  35E 00001250 ??BCTString@@QBEPBDXZ
        864  35F 00035CF0 ??BCTWString@@QBEPBGXZ
        865  360 00003C90 ??CCAnyProjection3D@@QAEPAVCProjection3D@@XZ
        866  361 001416B0 ??CCEntityID@@QAEPAVCEntity@@XZ
        867  362 001416D0 ??DCEntityID@@QAEAAVCEntity@@XZ
        868  363 00035110 ??H@YA?AVCTString@@PBDABV0@@Z
        869  364 00035080 ??HCTString@@QBE?AV0@ABV0@@Z
        870  365 000360A0 ??HCTWString@@QBE?AV0@ABV0@@Z
        871  366 00034460 ??YCTString@@QAEAAV0@ABV0@@Z
        872  367 00036000 ??YCTWString@@QAEAAV0@ABV0@@Z
        873  368 0005C730 ??_6@YAXAAV?$Matrix@N$02$02@@ABV?$Vector@M$02@@@Z
        874  369 0005CB10 ??_6@YAXAAV?$Vector@M$02@@ABV?$Matrix@N$02$02@@@Z
        875  36A 00306174 ??_7?$ThreadBase@$0A@$00@@6B@
        876  36B 002E1450 ??_7?$ThreadBase@$0A@$0BPE@@@6B@
        877  36C 002E1F78 ??_7CAnimSet@@6B@
        878  36D 002E1A00 ??_7CBrush3D@@6B@
        879  36E 002F05AC ??_7CBrushArchive@@6B@
        880  36F 002E16D8 ??_7CBrushBase@@6B@
        881  370 002E16E0 ??_7CBrushShadowMap@@6B@
        882  371 002EFF1C ??_7CEditModel@@6B@
        883  372 002E1A0C ??_7CEntity@@6B@
        884  373 002E18D8 ??_7CEntityClass@@6B@
        885  374 002E16FC ??_7CEntityEvent@@6B@
        886  375 002E1498 ??_7CFontData@@6B@
        887  376 002E15A4 ??_7CIsometricProjection3D@@6B@
        888  377 002E1B5C ??_7CLiveEntity@@6B@
        889  378 002E14F8 ??_7CMD5@@6B@
        890  379 002E1F28 ??_7CMesh@@6B@
        891  37A 002E18AC ??_7CMessageDispatcher@@6B@
        892  37B 002F0398 ??_7CModelData@@6B@
        893  37C 002E18FC ??_7CModelInstanceSerial@@6B@
        894  37D 002EE96C ??_7CMovableBrushEntity@@6B@
        895  37E 002EED6C ??_7CMovableEntity@@6B@
        896  37F 002EE7B4 ??_7CMovableModelEntity@@6B@
        897  380 002F3DA4 ??_7CNetworkLibrary@@6B@
        898  381 002E15F4 ??_7CParallelProjection3D@@6B@
        899  382 002E1554 ??_7CPerspectiveProjection3D@@6B@
        900  383 002EEB44 ??_7CPlayerEntity@@6B@
        901  384 002E1504 ??_7CProjection3D@@6B@
        902  385 002E1DCC ??_7CRationalEntity@@6B@
        903  386 002E1474 ??_7CSerial@@6B@
        904  387 002E1D60 ??_7CShader@@6B@
        905  388 002E16BC ??_7CShadowMap@@6B@
        906  389 002E1644 ??_7CSimpleProjection3D@@6B@
        907  38A 002E1F54 ??_7CSkeleton@@6B@
        908  38B 002E18B4 ??_7CSoundData@@6B@
        909  38C 002E19A0 ??_7CTFileStream@@6B@
        910  38D 002E19BC ??_7CTMemoryStream@@6B@
        911  38E 002E1984 ??_7CTStream@@6B@
        912  38F 002EBFB0 ??_7CTerrain@@6B@
        913  390 002F05D0 ??_7CTerrainArchive@@6B@
        914  391 002E19D8 ??_7CTextureData@@6B@
        915  392 002E174C ??_7EBegin@@6B@
        916  393 002E1D24 ??_7EBlock@@6B@
        917  394 002E1800 ??_7EBouncedWall@@6B@
        918  395 002E17EC ??_7EBuildModelBrushCollision@@6B@
        919  396 002E1D38 ??_7EDamage@@6B@
        920  397 002E1850 ??_7EDamageType@@6B@
        921  398 002E1D4C ??_7EDeath@@6B@
        922  399 002E17C4 ??_7EFirstWorldBase@@6B@
        923  39A 002E1710 ??_7EInternal@@6B@
        924  39B 002E1828 ??_7ELocalEntity@@6B@
        925  39C 002E1D10 ??_7EPass@@6B@
        926  39D 002E1814 ??_7EPlayerInit@@6B@
        927  39E 002E17B0 ??_7EPostLevelChange@@6B@
        928  39F 002E179C ??_7EPreLevelChange@@6B@
        929  3A0 002E183C ??_7ERemoteEntity@@6B@
        930  3A1 002E1738 ??_7EReturn@@6B@
        931  3A2 002E17D8 ??_7ETakingBreath@@6B@
        932  3A3 002E1788 ??_7ETeleport@@6B@
        933  3A4 002E1760 ??_7ETimer@@6B@
        934  3A5 002E1CFC ??_7ETouch@@6B@
        935  3A6 002E1724 ??_7EVoid@@6B@
        936  3A7 002E1774 ??_7EWouldFall@@6B@
        937  3A8 002FC730 ??_7IScavengerBrokerNet@@6B@
        938  3A9 003061A0 ??_7LoadModelMng@@6B@
        939  3AA 002E14BC ??_7xDeviceFile@File@Device@Xenesis2@@6B@
        940  3AB 00301CA0 ??_7xHoppingMemory@Xenesis@@6B@
        941  3AC 002E1448 ??_7xLifePriority@Internal@Xenesis@@6B@
        942  3AD 00301C14 ??_7xWindowFile@File@Device@Xenesis2@@6B@
        943  3AE 00010140 ??_FCChunkID@@QAEXXZ
        944  3AF 00069230 ??_FCIntersector@@QAEXXZ
        945  3B0 000015A0 ??_FCTimer@@QAEXXZ
        946  3B1 00068C00 ?AbsoluteToRelative@CPlacement3D@@QAEXABV1@@Z
        947  3B2 00068CE0 ?AbsoluteToRelativeSmooth@CPlacement3D@@QAEXABV1@@Z
        948  3B3 000BC5A0 ?ActivateNextCollisionBox@CEditModel@@QAEXXZ
        949  3B4 000BC590 ?ActivatePreviousCollisionBox@CEditModel@@QAEXXZ
        950  3B5 00125490 ?ActiveRemoteSessions@CServer@@QAEJXZ
        951  3B6 00022590 ?Add@CAOTime@@QAEXPAVCAOTimeInfo@@@Z
        952  3B7 001CC7C0 ?AddAP@CMovableEntity@@UAEXM@Z
        953  3B8 0003CAB0 ?AddAfter@CListNode@@QAEXAAV1@@Z
        954  3B9 000F3EA0 ?AddAllSectorsOfBrush@CCastRay@@QAEXPAVCBrush3D@@@Z
        955  3BA 0009D670 ?AddAlphaChannel@@YAXPAEPAKJ0@Z
        956  3BB 0017BB60 ?AddAnimSet_t@CModelInstance@@QAEXABVCTFileName@@@Z
        957  3BC 00030670 ?AddAnimation@CAnimData@@QAEXXZ
        958  3BD 001702C0 ?AddAnimation@CAnimSet@@QAEXPAUAnimation@@@Z
        959  3BE 00142030 ?AddAnimation@CEntity@@UAEXJKMJJMMJ@Z
        960  3BF 0017C810 ?AddAnimation@CModelInstance@@QAEXJKMJM@Z
        961  3C0 00144020 ?AddAttachment@CEntity@@QAEXJKK@Z
        962  3C1 00142800 ?AddAttachment@CEntity@@QAEXJVCTFileName@@0@Z
        963  3C2 000CB630 ?AddAttachmentModel@CModelObject@@QAEPAVCAttachmentModelObject@@J@Z
        964  3C3 0010FC00 ?AddBandwidthGraphValue@CNetworkLibrary@@QAEXK@Z
        965  3C4 0003CAD0 ?AddBefore@CListNode@@QAEXAAV1@@Z
        966  3C5 0017A190 ?AddBrush_t@CModelInstance@@QAEXABVCTFileName@@@Z
        967  3C6 0017BB30 ?AddChild@CModelInstance@@QAEXPAV1@J@Z
        968  3C7 00179F50 ?AddColisionBox@CModelInstance@@QAEXVCTString@@V?$Vector@M$02@@1@Z
        969  3C8 000C0050 ?AddCollisionBox@CEditModel@@QAEXXZ
        970  3C9 001B2EC0 ?AddCollisionCapsule@CPonytail@@QAEXXZ
        971  3CA 0017B7C0 ?AddCollisionSphere@CModelInstance@@QAEXJM@Z
        972  3CB 001B2ED0 ?AddCollisionSphere@CPonytail@@QAEXXZ
        973  3CC 000752B0 ?AddColors@@YAKKK@Z
        974  3CD 0017B0E0 ?AddCombinationShadow@CModelInstance@@QAEXAAVCEntity@@V?$Vector@M$02@@H@Z
        975  3CE 001B30F0 ?AddControlBone@CPonytail@@QAEXXZ
        976  3CF 001B0A20 ?AddDampingForce@CDynParticle@@QAEXM@Z
        977  3D0 001B0530 ?AddDampingForce@CDynParticle@@QAEXV?$Vector@M$02@@M@Z
        978  3D1 0003BDE0 ?AddDevice@CInput@@QAEHW4DeviceType@@J@Z
        979  3D2 00069240 ?AddEdge@CIntersector@@QAEXMMMM@Z
        980  3D3 000AE180 ?AddEffectSource@CTextureEffectGlobal@@QAEXKJJJJ@Z
        981  3D4 000E8C30 ?AddEntityToCollisionGrid@CWorld@@QAEXPAVCEntity@@ABV?$AABBox@M$02@@@Z
        982  3D5 0008C040 ?AddExtension_OGL@CGfxLibrary@@AAEXKPBD@Z
        983  3D6 000974C0 ?AddFlag@CTerrain@@QAEXK@Z
        984  3D7 0017AAA0 ?AddFlagsToPlayingAnim@CModelInstance@@QAEHJK@Z
        985  3D8 001B0670 ?AddForce@CDynParticle@@QAEXV?$Vector@M$02@@@Z
        986  3D9 000A7380 ?AddFrame_t@CTextureData@@QAEXPBVCImageInfo@@@Z
        987  3DA 001551D0 ?AddFromObject3D_t@CBrushMip@@QAEPAVCBrushSector@@AAVCObject3D@@@Z
        988  3DB 001B0290 ?AddGravityForce@CDynParticle@@QAEXM@Z
        989  3DC 001CC750 ?AddHP@CMovableEntity@@UAEXM@Z
        990  3DD 00057AB0 ?AddHandler@CTimer@@QAEXPAVCTimerHandler@@@Z
        991  3DE 0003C9E0 ?AddHead@CListHead@@QAEXAAVCListNode@@@Z
        992  3DF 001B0B10 ?AddKeyCmd@CKeyCommand@@QAEXJ@Z
        993  3E0 00164FB0 ?AddLayer@CLightSource@@QAEXAAVCBrushPolygon@@@Z
        994  3E1 00177B40 ?AddMeshLod@CMesh@@QAEXAAUMeshLOD@@@Z
        995  3E2 0017BBF0 ?AddMesh_t@CModelInstance@@QAEXABVCTFileName@@@Z
        996  3E3 001552A0 ?AddMipBrushFromObject3D_t@CBrush3D@@QAEXAAVCObject3D@@M@Z
        997  3E4 000BD620 ?AddMipModel@CEditModel@@AAEXPAVCObject3D@@@Z
        998  3E5 0010FAF0 ?AddNetGraphValue@CNetworkLibrary@@QAEXW4NetGraphEntryType@@M@Z
        999  3E6 000E9CF0 ?AddObjectToBrush@CWorld@@QAEXAAVCObject3D@@AAVCEntity@@@Z
       1000  3E7 0012D700 ?AddPlayer@CSessionState@@QAEXJH@Z
       1001  3E8 00126260 ?AddPlayerUpdate@CServer@@QAEHJAAV?$Vector@M$02@@H@Z
       1002  3E9 0010F9B0 ?AddPlayer_t@CNetworkLibrary@@QAEPAVCPlayerSource@@AAVCPlayerCharacter@@@Z
       1003  3EA 001515D0 ?AddPosition@CLastPositions@@QAEXABV?$Vector@M$02@@@Z
       1004  3EB 0012B660 ?AddQuestModeSwitch@CSessionState@@QAEPAVCEntity@@PAJ@Z
       1005  3EC 0012B7C0 ?AddQuestModeTrigger@CSessionState@@QAEPAVCEntity@@PAJ@Z
       1006  3ED 000067E0 ?AddReference@CEntity@@QAEXXZ
       1007  3EE 0014D370 ?AddReference@CEntityClass@@QAEXXZ
       1008  3EF 000AF450 ?AddReference@CSoundData@@QAEXXZ
       1009  3F0 000458B0 ?AddRelationPair@@YAXAAVCRelationSrc@@AAVCRelationDst@@@Z
       1010  3F1 00045950 ?AddRelationPairHeadHead@@YAXAAVCRelationSrc@@AAVCRelationDst@@@Z
       1011  3F2 00045900 ?AddRelationPairTailTail@@YAXAAVCRelationSrc@@AAVCRelationDst@@@Z
       1012  3F3 00129100 ?AddRemoteGeneralNpc@CSessionState@@QAEXEEJVCPlacement3D@@@Z
       1013  3F4 001291D0 ?AddRemoteMapNpc@CSessionState@@QAEHEJVCPlacement3D@@@Z
       1014  3F5 00129270 ?AddRemoteMasterGolem@CSessionState@@QAEXEJVCPlacement3D@@@Z
       1015  3F6 0012EBD0 ?AddRemotePlayer@CSessionState@@QAEXEGPAD@Z
       1016  3F7 00007B90 ?AddRound@FieldInfo@@QAEXXZ
       1017  3F8 000F5400 ?AddSector@CCastRay@@QAEXPAVCBrushSector@@@Z
       1018  3F9 000F3F70 ?AddSectorsAroundEntity@CCastRay@@QAEXPAVCEntity@@@Z
       1019  3FA 0017B840 ?AddShadowCapsule@CModelInstance@@QAEXJM@Z
       1020  3FB 00179E50 ?AddSimpleShadow@CModelInstance@@QAEXMABV?$Plane@M$02@@@Z
       1021  3FC 000D2F50 ?AddSimpleShadow@CModelObject@@QAEXAAVCRenderModel@@MABV?$Plane@M$02@@@Z
       1022  3FD 000DA540 ?AddSimpleShadow_View@CModelObject@@AAEXAAVCRenderModel@@MABV?$Plane@M$02@@@Z
       1023  3FE 001797D0 ?AddSkeleton_t@CModelInstance@@QAEXABVCTFileName@@@Z
       1024  3FF 0018EE60 ?AddSkletonLod@CSkeleton@@QAEXAAUSkeletonLOD@@@Z
       1025  400 001B0380 ?AddSpringForce@CDynParticle@@QAEXV?$Vector@M$02@@MM@Z
       1026  401 0003CA00 ?AddTail@CListHead@@QAEXAAVCListNode@@@Z
       1027  402 0007AFA0 ?AddTexture@CDrawPort@@QBEXMMMMK@Z
       1028  403 0007B540 ?AddTexture@CDrawPort@@QBEXMMMMKMMMMKMMMMKMMMMK@Z
       1029  404 0007B1A0 ?AddTexture@CDrawPort@@QBEXMMMMMMMMK@Z
       1030  405 000BB330 ?AddTexture_t@CEditModel@@QAEPAVCTextureDataInfo@@ABVCTFileName@@JJ@Z
       1031  406 0017B940 ?AddTexture_t@CModelInstance@@QAEXABVCTFileName@@JPAUMeshInstance@@@Z
       1032  407 0017B9C0 ?AddTexture_t@CModelInstance@@QAEXABVCTFileName@@VCTString@@PAUMeshInstance@@@Z
       1033  408 000DD640 ?AddTimer@CWorld@@QAEXPAVCRationalEntity@@@Z
       1034  409 0014E2D0 ?AddToCRCTable@CEntityClass@@UAEXXZ
       1035  40A 001505B0 ?AddToCRCTable@CEntityComponent@@QAEXXZ
       1036  40B 0004A8C0 ?AddToCRCTable@CSerial@@UAEXXZ
       1037  40C 001CC8D0 ?AddToEnemys@CMovableEntity@@QAEXXZ
       1038  40D 001CC910 ?AddToMovers@CMovableEntity@@QAEXXZ
       1039  40E 001CC980 ?AddToMoversDuringMoving@CMovableEntity@@QAEXXZ
       1040  40F 000B1660 ?AddToPendingList@CSoundLibrary@@QAEXAAVCSoundObject@@@Z
       1041  410 000587D0 ?AddTranslationTable_t@@YAXABVCTFileName@@@Z
       1042  411 000587F0 ?AddTranslationTablesDir_t@@YAXABVCTFileName@@0@Z
       1043  412 0007B3A0 ?AddTriangle@CDrawPort@@QBEXMMMMMMK@Z
       1044  413 001B5510 ?AddWins@CTeamInfo@@QAEXXZ
       1045  414 00112280 ?AddressToString@@YA?AVCTString@@K@Z
       1046  415 0009DF70 ?AdjustBitmapColor@@YAXPAK0JJJJ@Z
       1047  416 00142AB0 ?AdjustBones@CEntity@@UAEXXZ
       1048  417 00142AC0 ?AdjustBonesAbs@CEntity@@UAEXXZ
       1049  418 00075720 ?AdjustColor@@YAKKJJ@Z
       1050  419 001CC8C0 ?AdjustDeadReckoning@CMovableEntity@@QAEXVCPlacement3D@@0M@Z
       1051  41A 00075810 ?AdjustGamma@@YAKKM@Z
       1052  41B 000DD6B0 ?AdjustLateTimers@CWorld@@QAEXM@Z
       1053  41C 00141940 ?AdjustMipFactor@CEntity@@UAEXAAM@Z
       1054  41D 00142AD0 ?AdjustShaderParams@CEntity@@UAEXJPAVCShader@@AAUShaderParams@@@Z
       1055  41E 00141930 ?AdjustShadingParameters@CEntity@@UAEHAAV?$Vector@M$02@@AAK1@Z
       1056  41F 001B5BF0 ?All_Rival_Clear@FieldInfo@@QAEXXZ
       1057  420 0003CDB0 ?AllocMemory@@YAPAXJ@Z
       1058  421 0003CE50 ?AllocMemoryAligned@@YAPAXJJ@Z
       1059  422 00053600 ?AllocateVirtualMemory@CTStream@@QAEHKAAVCTFileName@@@Z
       1060  423 001CCA60 ?AllowForGroundPolygon@CMovableEntity@@UAEHPAVCBrushPolygon@@@Z
       1061  424 0005C580 ?AnglesToDirectionVector@@YAXABV?$Vector@M$02@@AAV1@@Z
       1062  425 001D9000 ?ApplyAction@CPlayerEntity@@UAEXABVCPlayerAction@@MAAH@Z
       1063  426 001224F0 ?ApplyAction@CPlayerSource@@QAEXAAH@Z
       1064  427 001D9050 ?ApplyChangeData@CPlayerEntity@@UAEXAAVCNetMessage@@@Z
       1065  428 001CC8B0 ?ApplyDeadReckoning@CMovableEntity@@QAEXXZ
       1066  429 00141A60 ?ApplyInitData@CEntity@@UAEXAAVCNetMessage@@@Z
       1067  42A 00123850 ?ApplyNewerActions@CPlayerSource@@QAEXK@Z
       1068  42B 000CC0B0 ?ApplySurfaceToPolygon@CModelObject@@QAEXPAVCDrawPort@@PAVCProjection3D@@JJJK@Z
       1069  42C 000CB1F0 ?ApplySurfaceToPolygonsInRegion@CModelObject@@QAEXPAVCDrawPort@@PAVCProjection3D@@V?$AABBox@J$01@@JK@Z
       1070  42D 001D9030 ?ApplySyncData@CPlayerEntity@@UAEXAAVCNetMessage@@@Z
       1071  42E 0005CFA0 ?ArePolygonsPlanar@CObject3D@@QAEHXZ
       1072  42F 00003A50 ?AspectRatioL@CProjection3D@@QAEAAMXZ
       1073  430 00003A60 ?AspectRatioR@CProjection3D@@QBEABMXZ
       1074  431 001411F0 ?AssignBoneID@CCollisionCapsule@@QAEXJ@Z
       1075  432 00141120 ?AssignBoneID@CCollisionSphere@@QAEXJ@Z
       1076  433 00141530 ?AssignBoneID@CControlBone@@QAEXJ@Z
       1077  434 000528B0 ?AtEOF@CTStream@@QAEHXZ
       1078  435 0009F010 ?Attach@CImageInfo@@QAEXPAEJJJ@Z
       1079  436 000C8050 ?AutoMipModelingOff@CModelObject@@QAEXXZ
       1080  437 000C8040 ?AutoMipModelingOn@CModelObject@@QAEXXZ
       1081  438 000CCFA0 ?AutoSetAttachments@CModelObject@@QAEXXZ
       1082  439 000C92E0 ?AutoSetTextures@CModelObject@@QAEXXZ
       1083  43A 000C7D30 ?BBoxAllShow@CModelRenderPrefs@@QAEXH@Z
       1084  43B 000C7D20 ?BBoxAllVisible@CModelRenderPrefs@@QAEHXZ
       1085  43C 000C7D10 ?BBoxFrameShow@CModelRenderPrefs@@QAEXH@Z
       1086  43D 000C7D00 ?BBoxFrameVisible@CModelRenderPrefs@@QAEHXZ
       1087  43E 000609B0 ?BatchLoading_t@CObject3D@@SAXH@Z
       1088  43F 00003BF0 ?BeIsometric@CAnyProjection3D@@QAEXXZ
       1089  440 00003C10 ?BeParallel@CAnyProjection3D@@QAEXXZ
       1090  441 00003C00 ?BePerspective@CAnyProjection3D@@QAEXXZ
       1091  442 00003BE0 ?BeSimple@CAnyProjection3D@@QAEXXZ
       1092  443 000D1520 ?BeginModelRenderingMask@@YAXAAVCAnyProjection3D@@PAEJJ@Z
       1093  444 000D1FA0 ?BeginModelRenderingView@@YAXAAVCAnyProjection3D@@PAVCDrawPort@@@Z
       1094  445 00073A60 ?Benchmark@CGfxLibrary@@QAEXPAVCViewPort@@PAVCDrawPort@@@Z
       1095  446 001138B0 ?Bind_t@CCommunicationInterface@@QAEXKK@Z
       1096  447 0007BBA0 ?BlendScreen@CDrawPort@@QAEXXZ
       1097  448 001AF9A0 ?BoundOut@CCollisionCapsule@@QAEHV?$Vector@M$02@@0MAAV2@1@Z
       1098  449 001AF620 ?BoundOut@CCollisionSphere@@QAEHV?$Vector@M$02@@0MAAV2@1@Z
       1099  44A 00112810 ?Broadcast_Receive@CCommunicationInterface@@QAEHPAXAAJAAVCAddress@@@Z
       1100  44B 00112780 ?Broadcast_Send@CCommunicationInterface@@QAEXPBXJAAVCAddress@@@Z
       1101  44C 00112890 ?Broadcast_Update_t@CCommunicationInterface@@QAEXXZ
       1102  44D 001B2D40 ?BuildBoneMatrix@CPonytail@@QAEXAAY0M@MJ@Z
       1103  44E 0012CF00 ?BuildMapItemList@CSessionState@@QAEHXZ
       1104  44F 001B27D0 ?BuildRenderBoneAixis_CP@CPonytail@@QAEXJ@Z
       1105  450 001B2E20 ?BuildStrSpringLengths@CPonytail@@QAEXXZ
       1106  451 00032E90 ?CON_DiscardLastLineTimes@@YAXXZ
       1107  452 00032EA0 ?CON_GetBuffer@@YAPBDXZ
       1108  453 00032EC0 ?CON_GetBufferSize@@YAJXZ
       1109  454 00032E40 ?CON_GetLastLine@@YA?AVCTString@@J@Z
       1110  455 00033240 ?CON_NumberOfLinesAfter@@YAJM@Z
       1111  456 00033130 ?CPrintF@@YAXPBDZZ
       1112  457 00033220 ?CPutString@@YAXPBD@Z
       1113  458 000EB9E0 ?CSGAdd@CWorld@@QAEXAAVCEntity@@AAV1@0ABVCPlacement3D@@@Z
       1114  459 0005FDE0 ?CSGAddMaterial@CObject3D@@QAEXAAV1@0@Z
       1115  45A 0005FE60 ?CSGAddMaterialReverse@CObject3D@@QAEXAAV1@0@Z
       1116  45B 000EBA40 ?CSGAddReverse@CWorld@@QAEXAAVCEntity@@AAV1@0ABVCPlacement3D@@@Z
       1117  45C 0005FD60 ?CSGAddRooms@CObject3D@@QAEXAAV1@0@Z
       1118  45D 0005FFE0 ?CSGJoinSectors@CObject3D@@QAEXAAV1@0@Z
       1119  45E 000EC7D0 ?CSGRemove@CWorld@@QAEXAAVCEntity@@AAV1@0ABVCPlacement3D@@@Z
       1120  45F 0005FEE0 ?CSGRemoveMaterial@CObject3D@@QAEXAAV1@0@Z
       1121  460 00060060 ?CSGSplitPolygons@CObject3D@@QAEXAAV1@0@Z
       1122  461 0005FF60 ?CSGSplitSectors@CObject3D@@QAEXAAV1@0@Z
       1123  462 00054230 ?CTDeleteFile@@YAHABVCTFileName@@@Z
       1124  463 000542E0 ?CTMoveFile@@YAHABVCTFileName@@0@Z
       1125  464 000A4FC0 ?Cache@CShadowMap@@QAEXJ@Z
       1126  465 00153470 ?CacheAllShadowmaps@CBrushArchive@@QAEXXZ
       1127  466 001CCB50 ?CacheNearPolygons@CMovableEntity@@QAEXXZ
       1128  467 000EF3B0 ?CacheShadowMaps@CWorld@@QAEXXZ
       1129  468 0018E8E0 ?CalculateAbsoluteTransformations@CSkeleton@@QAEXJ@Z
       1130  469 00157F70 ?CalculateArea@CBrushPolygon@@QAENXZ
       1131  46A 00157BF0 ?CalculateBoundingBox@CBrushPolygon@@QAEXXZ
       1132  46B 00152D30 ?CalculateBoundingBoxes@CBrush3D@@QAEXXZ
       1133  46C 00153050 ?CalculateBoundingBoxes@CBrushArchive@@QAEXXZ
       1134  46D 00156B20 ?CalculateBoundingBoxes@CBrushMip@@QAEXAAVCSimpleProjection3D_DOUBLE@@@Z
       1135  46E 0015B240 ?CalculateBoundingBoxes@CBrushSector@@QAEXAAVCSimpleProjection3D_DOUBLE@@@Z
       1136  46F 00152B00 ?CalculateBoundingBoxesForOneMip@CBrush3D@@QAEXPAVCBrushMip@@@Z
       1137  470 000DD780 ?CalculateDirectionalShadows@CWorld@@QAEXXZ
       1138  471 0018BEA0 ?CalculateFadeFactor@@YAMABUAnimList@@@Z
       1139  472 001B1C90 ?CalculateForce_CP@CPonytail@@QAE?AV?$Vector@M$02@@J@Z
       1140  473 000BE100 ?CalculateMappingForMips@CEditModel@@QAEXXZ
       1141  474 001B06A0 ?CalculateMotion@CDynParticle@@QAEXM@Z
       1142  475 001B2EE0 ?CalculateMotion@CPonytail@@QAEXMJ@Z
       1143  476 000DD7D0 ?CalculateNonDirectionalShadows@CWorld@@QAEXXZ
       1144  477 000C1FA0 ?CalculatePatchesPerPolygon@CEditModel@@QAEXXZ
       1145  478 001890E0 ?CalculateRenderingData@@YAXAAVCModelInstance@@@Z
       1146  479 000BDE20 ?CalculateUnwrappedMapping@CEditModel@@QAEXAAVCObject3D@@00@Z
       1147  47A 00159D90 ?CalculateVolume@CBrushSector@@QAENXZ
       1148  47B 00006530 ?Call@CEntity@@QAEXJJHABVCEntityEvent@@@Z
       1149  47C 001467E0 ?Call@CRationalEntity@@QAEXJJHABVCEntityEvent@@@Z
       1150  47D 00044FA0 ?CallProgressHook_t@@YAXM@Z
       1151  47E 0014EC50 ?CanChange@CClipTest@@QAEHPAVCEntity@@J@Z
       1152  47F 000EA100 ?CanCopySectors@CWorld@@QAEHAAV?$CSelection@VCBrushSector@@$00@@@Z
       1153  480 000E9DA0 ?CanJoinAllPossiblePolygons@CWorld@@QAEHAAV?$CSelection@VCBrushPolygon@@$0BAA@@@@Z
       1154  481 000EA070 ?CanJoinPolygons@CWorld@@QAEHAAV?$CSelection@VCBrushPolygon@@$0BAA@@@@Z
       1155  482 000EA000 ?CanJoinSectors@CWorld@@QAEHAAV?$CSelection@VCBrushSector@@$00@@@Z
       1156  483 000F4C80 ?Cast@CCastRay@@QAEXPAVCWorld@@@Z
       1157  484 000F5030 ?CastRay@CWorld@@QAEXAAVCCastRay@@@Z
       1158  485 00071DF0 ?Center@CMappingDefinition@@QAEXABVCMappingVectors@@ABV?$Vector@M$02@@@Z
       1159  486 00122E50 ?ChangeCharacter@CPlayerSource@@QAEXAAVCPlayerCharacter@@@Z
       1160  487 001D62C0 ?ChangeCollisionBoxIndexNow@CMovableModelEntity@@QAEHJ@Z
       1161  488 001D6250 ?ChangeCollisionBoxIndexNow@CMovableModelEntity@@QAEHJPAPAVCEntity@@@Z
       1162  489 001D6320 ?ChangeCollisionBoxIndexWhenPossible@CMovableModelEntity@@QAEXJ@Z
       1163  48A 001C9410 ?ChangeDevicePassword@xWindowFile@File@Device@Xenesis2@@UAE_NPADK0K@Z
       1164  48B 0010AB00 ?ChangeLevel@CNetworkLibrary@@QAEXABVCTFileName@@HJ@Z
       1165  48C 00110650 ?ChangeLevel_client_internal_t@CNetworkLibrary@@QAEXXZ
       1166  48D 001109D0 ?ChangeLevel_internal@CNetworkLibrary@@QAEXXZ
       1167  48E 0017BB90 ?ChangeParent@CModelInstance@@QAEXPAV1@0@Z
       1168  48F 00003F60 ?ChangeSize@CTextureData@@QAEXJ@Z
       1169  490 00122820 ?ChangeSlot@CPlayerSource@@QAEXAAVCPlayerCharacter@@E@Z
       1170  491 00173DF0 ?ChangeSurfaceShader_t@@YAXAAUMeshSurface@@VCTString@@@Z
       1171  492 0010BBB0 ?ChangeTeam@CNetworkLibrary@@QAEPAVCPlayerSource@@AAVCPlayerCharacter@@E@Z
       1172  493 00122F40 ?ChangeTeam@CPlayerSource@@QAEXVCTString@@@Z
       1173  494 00129B50 ?ChangeTeam@CSessionState@@QAEXEE@Z
       1174  495 001D9080 ?CharacterChanged@CPlayerEntity@@UAEXABVCPlayerCharacter@@@Z
       1175  496 00125800 ?CharacterNameIsUsed@CServer@@QAEHAAVCPlayerCharacter@@@Z
       1176  497 001BFF80 ?CheckAOT@CAOTimeInfo@@QAE_NXZ
       1177  498 001B4BB0 ?CheckAOT@CAOTimeOld@@QAEHXZ
       1178  499 0014D3A0 ?CheckClassProperties@CEntityClass@@QAEXXZ
       1179  49A 001D6230 ?CheckForCollisionNow@CMovableModelEntity@@QAEHJPAPAVCEntity@@@Z
       1180  49B 0014EF80 ?CheckForCollisionPolygon@CClipTest@@QAEHPAVCEntity@@JPAPAVCBrushPolygon@@@Z
       1181  49C 00004E30 ?CheckIDs@CEntityEvent@@UAEHXZ
       1182  49D 001CB600 ?CheckIDs@EBegin@@UAEHXZ
       1183  49E 001CB6C0 ?CheckIDs@EBlock@@UAEHXZ
       1184  49F 001CBA00 ?CheckIDs@EBouncedWall@@UAEHXZ
       1185  4A0 001CB990 ?CheckIDs@EBuildModelBrushCollision@@UAEHXZ
       1186  4A1 001CBA20 ?CheckIDs@EDamage@@UAEHXZ
       1187  4A2 001CBC00 ?CheckIDs@EDamageType@@UAEHXZ
       1188  4A3 001CBA40 ?CheckIDs@EDeath@@UAEHXZ
       1189  4A4 001CB8C0 ?CheckIDs@EFirstWorldBase@@UAEHXZ
       1190  4A5 001CB4E0 ?CheckIDs@EInternal@@UAEHXZ
       1191  4A6 001CBB20 ?CheckIDs@ELocalEntity@@UAEHXZ
       1192  4A7 001CB6A0 ?CheckIDs@EPass@@UAEHXZ
       1193  4A8 001CBAC0 ?CheckIDs@EPlayerInit@@UAEHXZ
       1194  4A9 001CB860 ?CheckIDs@EPostLevelChange@@UAEHXZ
       1195  4AA 001CB7F0 ?CheckIDs@EPreLevelChange@@UAEHXZ
       1196  4AB 001CBB80 ?CheckIDs@ERemoteEntity@@UAEHXZ
       1197  4AC 001CB5A0 ?CheckIDs@EReturn@@UAEHXZ
       1198  4AD 001CB930 ?CheckIDs@ETakingBreath@@UAEHXZ
       1199  4AE 001CB780 ?CheckIDs@ETeleport@@UAEHXZ
       1200  4AF 001CB660 ?CheckIDs@ETimer@@UAEHXZ
       1201  4B0 001CB680 ?CheckIDs@ETouch@@UAEHXZ
       1202  4B1 001CB540 ?CheckIDs@EVoid@@UAEHXZ
       1203  4B2 001CB720 ?CheckIDs@EWouldFall@@UAEHXZ
       1204  4B3 001CCBF0 ?CheckInitData@CMovableEntity@@UAEHVCNetMessage@@@Z
       1205  4B4 0015E630 ?CheckLayersUpToDate@CBrushShadowMap@@UAEXXZ
       1206  4B5 000A4BB0 ?CheckLayersUpToDate@CShadowMap@@UAEXXZ
       1207  4B6 001CCBE0 ?CheckSerVantCreature@CMovableEntity@@UAEHXZ
       1208  4B7 0010BD30 ?CheckVersion_t@CNetworkLibrary@@QAEXAAVCTStream@@HAAH@Z
       1209  4B8 000A7320 ?ClampMipLevel@CTextureData@@QBEJM@Z
       1210  4B9 0009E6D0 ?ClampTextureSize@@YAJJJJJ@Z
       1211  4BA 001B5D70 ?ClanInfoClear@AccountInfo_s@@QAEXXZ
       1212  4BB 001C00E0 ?Clear@CAOTime@@QAEXXZ
       1213  4BC 000311A0 ?Clear@CAnimData@@UAEXXZ
       1214  4BD 00170300 ?Clear@CAnimSet@@UAEXXZ
       1215  4BE 000BB4E0 ?Clear@CAttachedModel@@QAEXXZ
       1216  4BF 00007540 ?Clear@CAttachedModelPosition@@QAEXXZ
       1217  4C0 000BAEE0 ?Clear@CAttachedSound@@QAEXXZ
       1218  4C1 001AE700 ?Clear@CBladeTrail@@QAEXXZ
       1219  4C2 00152C00 ?Clear@CBrush3D@@QAEXXZ
       1220  4C3 00004490 ?Clear@CBrushEdge@@QAEXXZ
       1221  4C4 00156E50 ?Clear@CBrushMip@@QAEXXZ
       1222  4C5 00004420 ?Clear@CBrushPlane@@QAEXXZ
       1223  4C6 00157D10 ?Clear@CBrushPolygon@@QAEXXZ
       1224  4C7 000044D0 ?Clear@CBrushPolygonEdge@@QAEXXZ
       1225  4C8 00004930 ?Clear@CBrushPolygonTexture@@QAEXXZ
       1226  4C9 0015A730 ?Clear@CBrushSector@@QAEXXZ
       1227  4CA 000043B0 ?Clear@CBrushVertex@@QAEXXZ
       1228  4CB 001AEDC0 ?Clear@CCollisionCapsule@@QAEXXZ
       1229  4CC 000E3930 ?Clear@CCollisionInfo@@QAEXXZ
       1230  4CD 001AEDB0 ?Clear@CCollisionSphere@@QAEXXZ
       1231  4CE 001B1B60 ?Clear@CControlBone@@QAEXXZ
       1232  4CF 001413E0 ?Clear@CDynParticle@@QAEXXZ
       1233  4D0 00006590 ?Clear@CEntity@@QAEXXZ
       1234  4D1 0014DE50 ?Clear@CEntityClass@@UAEXXZ
       1235  4D2 001A6B90 ?Clear@CFontData@@UAEXXZ
       1236  4D3 0009F040 ?Clear@CImageInfo@@QAEXXZ
       1237  4D4 000691E0 ?Clear@CIntersector@@QAEXXZ
       1238  4D5 0003C9B0 ?Clear@CListHead@@QAEXXZ
       1239  4D6 00177A30 ?Clear@CMesh@@UAEXXZ
       1240  4D7 00007470 ?Clear@CModelCollisionBox@@QAEXXZ
       1241  4D8 000CD2D0 ?Clear@CModelData@@UAEXXZ
       1242  4D9 0017C9F0 ?Clear@CModelInstance@@QAEXXZ
       1243  4DA 00179A90 ?Clear@CModelInstanceSerial@@UAEXXZ
       1244  4DB 00004F20 ?Clear@CNetMessage@@QAEXXZ
       1245  4DC 0005D5F0 ?Clear@CObject3D@@QAEXXZ
       1246  4DD 0005E590 ?Clear@CObjectPolygon@@QAEXXZ
       1247  4DE 0005CEB0 ?Clear@CObjectPolygonEdge@@QAEXXZ
       1248  4DF 001B17D0 ?Clear@CParticle@@QAEXXZ
       1249  4E0 00003020 ?Clear@CPlacement3D@@QAEXXZ
       1250  4E1 00121160 ?Clear@CPlayerAction@@QAEXXZ
       1251  4E2 001B2E90 ?Clear@CPonytail@@QAEXXZ
       1252  4E3 000D1940 ?Clear@CRenderModel@@QAEXXZ
       1253  4E4 0004A8D0 ?Clear@CSerial@@UAEXXZ
       1254  4E5 000A20E0 ?Clear@CShader@@UAEXXZ
       1255  4E6 000A4B10 ?Clear@CShadowMap@@QAEXXZ
       1256  4E7 0018EDC0 ?Clear@CSkeleton@@UAEXXZ
       1257  4E8 000AF3F0 ?Clear@CSoundData@@UAEXXZ
       1258  4E9 000B3270 ?Clear@CSoundLibrary@@QAEXXZ
       1259  4EA 0000FD00 ?Clear@CTString@@QAEXXZ
       1260  4EB 00036090 ?Clear@CTWString@@QAEXXZ
       1261  4EC 00007A60 ?Clear@CTeamInfo@@QAEXXZ
       1262  4ED 0018F540 ?Clear@CTerrain@@QAEXXZ
       1263  4EE 000A99A0 ?Clear@CTextureData@@UAEXXZ
       1264  4EF 000DE440 ?Clear@CWorld@@QAEXXZ
       1265  4F0 001B6260 ?Clear@FieldInfo@@QAEXXZ
       1266  4F1 000CCE80 ?Clear@ModelMipInfo@@QAEXXZ
       1267  4F2 00017B00 ?Clear@PolygonsPerPatch@@QAEXXZ
       1268  4F3 001B5A40 ?ClearAchievementInfo@AccountInfo_s@@QAEXXZ
       1269  4F4 001CC870 ?ClearActionApplied@CMovableEntity@@UAEXXZ
       1270  4F5 000D15F0 ?ClearAlphaBlendingData@CModelObject@@QAEXXZ
       1271  4F6 000CCDD0 ?ClearAlphaBlendingValue@CModelData@@QAEXXZ
       1272  4F7 000C98A0 ?ClearAnimations@CModelData@@QAEXXZ
       1273  4F8 000AF2B0 ?ClearBuffer@CSoundData@@QAEXXZ
       1274  4F9 000E8C20 ?ClearCollisionGrid@CWorld@@QAEXXZ
       1275  4FA 0017B800 ?ClearCollisionSpheres@CModelInstance@@QAEXXZ
       1276  4FB 00039A20 ?ClearControlsValue@CInputDevice@@QAEXXZ
       1277  4FC 001B18B0 ?ClearElapsedTime@CParticle@@QAEXXZ
       1278  4FD 00039380 ?ClearInput@CInput@@QAEXXZ
       1279  4FE 000B2B20 ?ClearLibrary@CSoundLibrary@@QAEXXZ
       1280  4FF 0012CEE0 ?ClearMapItems@CSessionState@@QAEXXZ
       1281  500 00128CB0 ?ClearMapNpc@CSessionState@@QAEXXZ
       1282  501 000DE330 ?ClearMarkedForUseFlag@CWorld@@QAEXXZ
       1283  502 001CCAB0 ?ClearMovingTemp@CMovableEntity@@UAEXXZ
       1284  503 00143320 ?ClearMovingTemp@CRationalEntity@@UAEXXZ
       1285  504 001B5D20 ?ClearNewGolemModeNpcData@FieldInfo@@QAEXXZ
       1286  505 001CCA80 ?ClearNextPosition@CMovableEntity@@QAEXXZ
       1287  506 001B6220 ?ClearPingCheckInfo@AccountInfo_s@@QAEXXZ
       1288  507 00128CD0 ?ClearQuestModeEntity@CSessionState@@QAEXXZ
       1289  508 001CC8A0 ?ClearReapplyingActions@CMovableEntity@@UAEXXZ
       1290  509 0011D7F0 ?ClearReliableData@CNet@@QAEXE@Z
       1291  50A 0011D830 ?ClearReliableData_All@CNet@@QAEXXZ
       1292  50B 000F2A50 ?ClearSectorList@CCastRay@@QAEXXZ
       1293  50C 0017B880 ?ClearShadowCapsules@CModelInstance@@QAEXXZ
       1294  50D 001CE170 ?ClearTemporaryData@CMovableEntity@@QAEXXZ
       1295  50E 00007F10 ?ClearToDefault@@YAXAAC@Z
       1296  50F 00007F00 ?ClearToDefault@@YAXAAE@Z
       1297  510 00007F30 ?ClearToDefault@@YAXAAF@Z
       1298  511 00007F20 ?ClearToDefault@@YAXAAG@Z
       1299  512 00007F40 ?ClearToDefault@@YAXAAH@Z
       1300  513 00007EF0 ?ClearToDefault@@YAXAAJ@Z
       1301  514 00007F80 ?ClearToDefault@@YAXAAK@Z
       1302  515 00007EE0 ?ClearToDefault@@YAXAAM@Z
       1303  516 00007F90 ?ClearToDefault@@YAXAAPAVCModelData@@@Z
       1304  517 00007FA0 ?ClearToDefault@@YAXAAPAVCTextureData@@@Z
       1305  518 00007FC0 ?ClearToDefault@@YAXAAUDamageInfo@@@Z
       1306  519 0001BDB0 ?ClearToDefault@@YAXAAV?$Plane@M$02@@@Z
       1307  51A 00017E60 ?ClearToDefault@@YAXAAV?$Vector@M$02@@@Z
       1308  51B 00007FB0 ?ClearToDefault@@YAXAAVCEntityID@@@Z
       1309  51C 000117B0 ?ClearToDefault@@YAXAAVCEntityPointer@@@Z
       1310  51D 00017EA0 ?ClearToDefault@@YAXAAVCPlacement3D@@@Z
       1311  51E 00007F50 ?ClearToDefault@@YAXAAVCTString@@@Z
       1312  51F 000055E0 ?ClearToDefault@@YAXAAVEBegin@@@Z
       1313  520 000172E0 ?ClearToDefault@@YAXAAVEBlock@@@Z
       1314  521 00005F90 ?ClearToDefault@@YAXAAVEBouncedWall@@@Z
       1315  522 00005E40 ?ClearToDefault@@YAXAAVEBuildModelBrushCollision@@@Z
       1316  523 000175F0 ?ClearToDefault@@YAXAAVEDamage@@@Z
       1317  524 00006450 ?ClearToDefault@@YAXAAVEDamageType@@@Z
       1318  525 000178C0 ?ClearToDefault@@YAXAAVEDeath@@@Z
       1319  526 00005C20 ?ClearToDefault@@YAXAAVEFirstWorldBase@@@Z
       1320  527 000052E0 ?ClearToDefault@@YAXAAVEInternal@@@Z
       1321  528 00006200 ?ClearToDefault@@YAXAAVELocalEntity@@@Z
       1322  529 00017010 ?ClearToDefault@@YAXAAVEPass@@@Z
       1323  52A 000060F0 ?ClearToDefault@@YAXAAVEPlayerInit@@@Z
       1324  52B 00005B10 ?ClearToDefault@@YAXAAVEPostLevelChange@@@Z
       1325  52C 000059F0 ?ClearToDefault@@YAXAAVEPreLevelChange@@@Z
       1326  52D 00006300 ?ClearToDefault@@YAXAAVERemoteEntity@@@Z
       1327  52E 000054E0 ?ClearToDefault@@YAXAAVEReturn@@@Z
       1328  52F 00005D30 ?ClearToDefault@@YAXAAVETakingBreath@@@Z
       1329  530 000058E0 ?ClearToDefault@@YAXAAVETeleport@@@Z
       1330  531 000056E0 ?ClearToDefault@@YAXAAVETimer@@@Z
       1331  532 00016D50 ?ClearToDefault@@YAXAAVETouch@@@Z
       1332  533 000053E0 ?ClearToDefault@@YAXAAVEVoid@@@Z
       1333  534 000057E0 ?ClearToDefault@@YAXAAVEWouldFall@@@Z
       1334  535 000064B0 ?ClearToDefault@@YAXAAW4DamageMotionType@@@Z
       1335  536 000064C0 ?ClearToDefault@@YAXAAW4DamageType@@@Z
       1336  537 00007FD0 ?ClearToDefault@@YAXAAW4EEntityClassType@@@Z
       1337  538 00007FE0 ?ClearToDefault@@YAXAAW4EVictory@@@Z
       1338  539 00007FF0 ?ClearToDefault@@YAXPAVCModelInstance@@@Z
       1339  53A 001B5880 ?Clear_CharacterInfo@AccountInfo_s@@QAEXXZ
       1340  53B 001B6400 ?Clear_FIELD_INFO_FOR_ENTER_USER@FieldInfo@@QAEXXZ
       1341  53C 001B5580 ?Clear_InventoryItemInfo@AccountInfo_s@@QAEXXZ
       1342  53D 001CF650 ?ClientCacheNearPolygons@CMovableEntity@@QAEXXZ
       1343  53E 00113020 ?Client_Clear@CCommunicationInterface@@QAEXXZ
       1344  53F 001144A0 ?Client_Close@CCommunicationInterface@@QAEXXZ
       1345  540 00114950 ?Client_Init_t@CCommunicationInterface@@QAEXK@Z
       1346  541 00114A00 ?Client_Init_t@CCommunicationInterface@@QAEXPAD@Z
       1347  542 00113090 ?Client_IsConnected@CCommunicationInterface@@QAEHXZ
       1348  543 00112F90 ?Client_OpenLocal@CCommunicationInterface@@QAEXXZ
       1349  544 00114570 ?Client_OpenNet_t@CCommunicationInterface@@QAEXK@Z
       1350  545 001131C0 ?Client_PeekSize_Reliable@CCommunicationInterface@@QAEXAAJ0@Z
       1351  546 00113140 ?Client_Receive_Reliable@CCommunicationInterface@@QAEHAAVCTStream@@@Z
       1352  547 001130C0 ?Client_Receive_Reliable@CCommunicationInterface@@QAEHPAXAAJ@Z
       1353  548 001131F0 ?Client_Receive_Unreliable@CCommunicationInterface@@QAEHPAXAAJ@Z
       1354  549 00114790 ?Client_Send_Reliable@CCommunicationInterface@@QAEXPBXJ@Z
       1355  54A 00114820 ?Client_Send_Unreliable@CCommunicationInterface@@QAEXPBXJ@Z
       1356  54B 00113DF0 ?Client_Update@CCommunicationInterface@@QAEHXZ
       1357  54C 000693F0 ?ClipLine@CIsometricProjection3D@@UBEKAAV?$Vector@M$02@@0@Z
       1358  54D 0006B430 ?ClipLine@CParallelProjection3D@@UBEKAAV?$Vector@M$02@@0@Z
       1359  54E 0006C910 ?ClipLine@CPerspectiveProjection3D@@UBEKAAV?$Vector@M$02@@0@Z
       1360  54F 0006E940 ?ClipLine@CSimpleProjection3D@@UBEKAAV?$Vector@M$02@@0@Z
       1361  550 000E7870 ?ClipMove@CWorld@@QAEXAAVCClipMove@@@Z
       1362  551 001148B0 ?Close@CCommunicationInterface@@QAEXXZ
       1363  552 00055050 ?Close@CTFileStream@@QAEXXZ
       1364  553 000AED70 ?CloseCanvas@CViewPort@@QAEXXZ
       1365  554 00125400 ?CloseClient@CServer@@QAEXJ@Z
       1366  555 001C9420 ?CloseDevice@xWindowFile@File@Device@Xenesis2@@UAE_NXZ
       1367  556 0004ED60 ?CloseExceptionHandler@@YAXXZ
       1368  557 00075450 ?ColorToHSV@@YAXKAAE00@Z
       1369  558 000CBF90 ?ColorizePolygon@CModelObject@@QAEXPAVCDrawPort@@PAVCProjection3D@@JJJH@Z
       1370  559 000CB040 ?ColorizeRegion@CModelObject@@QAEXPAVCDrawPort@@PAVCProjection3D@@V?$AABBox@J$01@@JH@Z
       1371  55A 00053770 ?CommitPage@CTStream@@QAEXJ@Z
       1372  55B 000B21A0 ?CommitPlayingBuffer@CSoundLibrary@@AAEJAAVCSoundObject@@AAH@Z
       1373  55C 00034F20 ?Compare@CTString@@QBEHABV1@@Z
       1374  55D 00075580 ?CompareChroma@@YAHKK@Z
       1375  55E 001B4B90 ?Compensation@CAOTimeOld@@QAEMXZ
       1376  55F 0014D800 ?ComponentForPointer@CDLLEntityClass@@QAEPAVCEntityComponent@@PAX@Z
       1377  560 0014DED0 ?ComponentForPointer@CEntityClass@@QAEPAVCEntityComponent@@PAX@Z
       1378  561 0014D790 ?ComponentForTypeAndID@CDLLEntityClass@@QAEPAVCEntityComponent@@W4EntityComponentType@@J@Z
       1379  562 00143290 ?ComponentForTypeAndID@CEntity@@QAEPAVCEntityComponent@@KK@Z
       1380  563 0014DEC0 ?ComponentForTypeAndID@CEntityClass@@QAEPAVCEntityComponent@@W4EntityComponentType@@J@Z
       1381  564 000A68A0 ?Compress@CTextureData@@QAEPAEAAJH@Z
       1382  565 001B4380 ?Connect@IScavengerBrokerNet@@QAEEKI@Z
       1383  566 00124EB0 ?ConnectLocalSessionState@CServer@@QAEXJAAVCNetworkMessage@@@Z
       1384  567 001258A0 ?ConnectRemoteSessionState@CServer@@QAEXJAAVCNetworkMessage@@@Z
       1385  568 00030BB0 ?ContinueAnim@CAnimObject@@QAEXXZ
       1386  569 000F4F50 ?ContinueCast@CCastRay@@QAEXPAVCWorld@@@Z
       1387  56A 000F5040 ?ContinueCast@CWorld@@QAEXAAVCCastRay@@@Z
       1388  56B 00061B10 ?ConvertArraysToO3D@CObject3D@@QAEXXZ
       1389  56C 001A7330 ?ConvertByteStrToWordStr@@YAPAGPADAAJ@Z
       1390  56D 001A6F80 ?ConvertKSC2KSSM@CFontData@@QAEXPAD0@Z
       1391  56E 001A7010 ?ConvertKSSM2KSC@CFontData@@QAEXPAD0@Z
       1392  56F 001A73B0 ?ConvertWordStrToByteStr@@YAPADPAGAAJ@Z
       1393  570 00078FC0 ?CoolTime@CDrawPort@@QAEXMJJJJK@Z
       1394  571 000318E0 ?Copy@CAnimObject@@QAEXAAV1@@Z
       1395  572 00152C90 ?Copy@CBrush3D@@QAEXAAV1@MH@Z
       1396  573 00157300 ?Copy@CBrushMip@@QAEXAAV1@MH@Z
       1397  574 0014FBB0 ?Copy@CEntity@@UAEXAAV1@K@Z
       1398  575 001432F0 ?Copy@CLiveEntity@@UAEXAAVCEntity@@K@Z
       1399  576 0017CD60 ?Copy@CModelInstance@@QAEXAAV1@@Z
       1400  577 000CBD10 ?Copy@CModelObject@@QAEXAAV1@@Z
       1401  578 001CFA70 ?Copy@CMovableEntity@@UAEXAAVCEntity@@K@Z
       1402  579 0011BF70 ?Copy@CNetworkSession@@QAEXABV1@@Z
       1403  57A 001D8E80 ?Copy@CPlayerEntity@@UAEXAAVCEntity@@K@Z
       1404  57B 00148670 ?Copy@CRationalEntity@@UAEXAAVCEntity@@K@Z
       1405  57C 000B6CC0 ?Copy@CSoundObject@@QAEXAAV1@@Z
       1406  57D 000A6C10 ?Copy@CTextureObject@@QAEXAAV1@@Z
       1407  57E 00150350 ?CopyAllEntitiesExceptOne@CWorld@@QAEXAAV1@AAVCEntity@@ABVCPlacement3D@@@Z
       1408  57F 00149190 ?CopyCollisionInfo@CEntity@@QAEXAAV1@@Z
       1409  580 00054A80 ?CopyDictionary@CTStream@@QAEXAAV1@@Z
       1410  581 0014FF10 ?CopyEntities@CWorld@@QAEXAAV1@AAV?$CDynamicContainer@VCEntity@@@@AAV?$CSelection@VCEntity@@$00@@ABVCPlacement3D@@@Z
       1411  582 0014F480 ?CopyEntityInWorld@CWorld@@QAEPAVCEntity@@AAV2@ABVCPlacement3D@@HKH@Z
       1412  583 0014FB60 ?CopyEntityProperties@CEntity@@QAEXAAV1@K@Z
       1413  584 00157D70 ?CopyFromSameSector@CBrushPolygon@@QAEXAAV1@@Z
       1414  585 0017BC50 ?CopyMeshInstance@CModelInstance@@QAEXAAV1@@Z
       1415  586 000B1F70 ?CopyMixerBuffer_dsound@CSoundLibrary@@AAEXJ@Z
       1416  587 000B2010 ?CopyMixerBuffer_waveout@CSoundLibrary@@AAEXXZ
       1417  588 00150270 ?CopyOneEntity@CWorld@@QAEPAVCEntity@@AAV2@ABVCPlacement3D@@@Z
       1418  589 0014F8E0 ?CopyOneProperty@CEntity@@QAEXAAVCEntityProperty@@0AAV1@K@Z
       1419  58A 00158F30 ?CopyPolygon@CBrushPolygon@@QAEAAV1@AAV1@@Z
       1420  58B 000EA240 ?CopyPolygonInWorld@CWorld@@QAEXAAVCBrushPolygon@@AAVCBrushSector@@JAAJ2@Z
       1421  58C 000EA6A0 ?CopyPolygonsToBrush@CWorld@@QAEXAAV?$CSelection@VCBrushPolygon@@$0BAA@@@PAVCEntity@@@Z
       1422  58D 00157670 ?CopyProperties@CBrushPolygon@@QAEAAV1@AAV1@H@Z
       1423  58E 00157850 ?CopyPropertiesWithoutTexture@CBrushPolygon@@QAEAAV1@AAV1@@Z
       1424  58F 000ECBC0 ?CopySectors@CWorld@@QAEXAAV?$CSelection@VCBrushSector@@$00@@PAVCEntity@@H@Z
       1425  590 000E9DD0 ?CopySourceBrushSectorsToObject@CWorld@@QAEXAAVCEntity@@AAV?$CSelection@VCBrushSector@@$03@@ABVCPlacement3D@@AAVCObject3D@@2AAV?$AABBox@N$02@@@Z
       1426  591 000048C0 ?CopyTextureProperties@CBrushPolygonTexture@@QAEAAV1@AAV1@H@Z
       1427  592 001578B0 ?CopyTextures@CBrushPolygon@@QAEAAV1@AAV1@@Z
       1428  593 000BF290 ?CorrectCollisionBoxSize@CEditModel@@QAEXXZ
       1429  594 0005BBE0 ?Cos@@YAMM@Z
       1430  595 00001EE0 ?CosFast@@YAMM@Z
       1431  596 0003CB50 ?Count@CListHead@@QBEJXZ
       1432  597 001A6EE0 ?CountKSSMPolys@CFontData@@QAEJPAD@Z
       1433  598 000BBCE0 ?CountPatches@CEditModel@@QAEJXZ
       1434  599 0011D850 ?CountReliablePacket@CNet@@QAEKXZ
       1435  59A 00030220 ?CreateAnimations@CAnimData@@QAEXJVCTString@@JM@Z
       1436  59B 000D2FD0 ?CreateAttachment@CModelObject@@QAEHAAVCRenderModel@@AAVCAttachmentModelObject@@@Z
       1437  59C 00159070 ?CreateBSPPolygon@CBrushPolygon@@QAEXAAV?$BSPPolygon@N$02@@@Z
       1438  59D 00159170 ?CreateBSPPolygonNonPrecise@CBrushPolygon@@QAEXAAV?$BSPPolygon@N$02@@@Z
       1439  59E 0008C130 ?CreateContext_OGL@CGfxLibrary@@AAEHPAUHDC__@@@Z
       1440  59F 000A77B0 ?CreateEffectTexture@CTextureData@@QAEXJJJPAV1@K@Z
       1441  5A0 000BD380 ?CreateEmptyAttachingSounds@CEditModel@@QAEXXZ
       1442  5A1 001432B0 ?CreateEntity@CEntity@@QAEPAV1@ABVCPlacement3D@@JKH@Z
       1443  5A2 000DE980 ?CreateEntity@CWorld@@QAEPAVCEntity@@ABVCPlacement3D@@PAVCEntityClass@@KH@Z
       1444  5A3 000DEB10 ?CreateEntity_t@CWorld@@QAEPAVCEntity@@ABVCPlacement3D@@ABVCTFileName@@KH@Z
       1445  5A4 00129700 ?CreateEventCreature@CSessionState@@QAEPAVCEntity@@AAVCPlacement3D@@VCTString@@@Z
       1446  5A5 000DEFA0 ?CreateEventCreature@CWorld@@QAEPAVCEntity@@ABVCPlacement3D@@PAVCEntityClass@@KH@Z
       1447  5A6 000E0290 ?CreateEventCreature_t@CWorld@@QAEPAVCEntity@@ABVCPlacement3D@@ABVCTFileName@@KH@Z
       1448  5A7 000DECF0 ?CreateMapNpc@CWorld@@QAEPAVCEntity@@ABVCPlacement3D@@PAVCEntityClass@@KH@Z
       1449  5A8 000E01F0 ?CreateMapNpc_t@CWorld@@QAEPAVCEntity@@ABVCPlacement3D@@ABVCTFileName@@KH@Z
       1450  5A9 0012C570 ?CreateMasterGolem@CSessionState@@QAEXW4ETeamClass@@VCTString@@@Z
       1451  5AA 000DEE30 ?CreateMasterGolem@CWorld@@QAEPAVCEntity@@ABVCPlacement3D@@PAVCEntityClass@@KH@Z
       1452  5AB 000E0240 ?CreateMasterGolem_t@CWorld@@QAEPAVCEntity@@ABVCPlacement3D@@ABVCTFileName@@KH@Z
       1453  5AC 000C1DC0 ?CreateMipModels_t@CEditModel@@QAEXAAVCObject3D@@0JJ@Z
       1454  5AD 0017C6C0 ?CreateModelInstance@@YAPAVCModelInstance@@VCTString@@@Z
       1455  5AE 000DEB60 ?CreateNpc@CWorld@@QAEPAVCEntity@@ABVCPlacement3D@@PAVCEntityClass@@KH@Z
       1456  5AF 000E01A0 ?CreateNpc_t@CWorld@@QAEPAVCEntity@@ABVCPlacement3D@@ABVCTFileName@@KH@Z
       1457  5B0 00065510 ?CreatePolygon@CObjectSector@@QAEPAVCObjectPolygon@@JQAJAAVCObjectMaterial@@KH@Z
       1458  5B1 00064F00 ?CreatePolygon@CObjectSector@@QAEPAVCObjectPolygon@@JQAV?$Vector@N$02@@AAVCObjectMaterial@@KH@Z
       1459  5B2 000EA8C0 ?CreatePolygon@CWorld@@QAEXAAV?$CSelection@VCBrushVertex@@$01@@@Z
       1460  5B3 000BB640 ?CreateScriptFile_t@CEditModel@@QAEXAAVCTFileName@@@Z
       1461  5B4 0005D330 ?CreateSectorBSPs@CObject3D@@QAEXXZ
       1462  5B5 0005CF70 ?CreateSectorIndices@CObject3D@@QAEXXZ
       1463  5B6 00113810 ?CreateSocket_t@CCommunicationInterface@@QAEXXZ
       1464  5B7 00079680 ?CreateSubDrawPort@CDrawPort@@QAE?AV1@ABV?$AABBox@J$01@@@Z
       1465  5B8 00079700 ?CreateSubDrawPortRatio@CDrawPort@@QAE?AV1@ABV?$AABBox@M$01@@@Z
       1466  5B9 000AA0C0 ?CreateTexture_t@@YAXABVCTFileName@@0JJKG@Z
       1467  5BA 000AA230 ?CreateTexture_t@@YAXABVCTFileName@@JJK@Z
       1468  5BB 000A8290 ?CreateTexture_t@@YAXPAVCTextureData@@AAVCImageInfo@@JJK@Z
       1469  5BC 00098B00 ?CreateWindowCanvas@CGfxLibrary@@QAEXPAXPAPAVCViewPort@@PAPAVCDrawPort@@@Z
       1470  5BD 00098BD0 ?CreateWorkCanvas@CGfxLibrary@@QAEXJJPAPAVCDrawPort@@@Z
       1471  5BE 00053990 ?Create_t@CTFileStream@@QAEXABVCTFileName@@W4CreateMode@CTStream@@@Z
       1472  5BF 000A7650 ?Create_t@CTextureData@@QAEXPBVCImageInfo@@JJGK@Z
       1473  5C0 000A7500 ?Create_t@CTextureData@@QAEXPBVCImageInfo@@JJK@Z
       1474  5C1 000B1350 ?DSFail@CSoundLibrary@@AAEHPAD@Z
       1475  5C2 000B1380 ?DSLockBuffer@CSoundLibrary@@AAEHPAUIDirectSoundBuffer@@JAAPAXAAK@Z
       1476  5C3 000B1420 ?DSPlayMainBuffers@CSoundLibrary@@AAEXXZ
       1477  5C4 0037F4F8 ?DamageMotionType_enum@@3VCEntityPropertyEnumType@@A
       1478  5C5 0037F3B8 ?DamageMotionType_values@@3PAVCEntityPropertyEnumValue@@A
       1479  5C6 0037F668 ?DamageType_enum@@3VCEntityPropertyEnumType@@A
       1480  5C7 0037F500 ?DamageType_values@@3PAVCEntityPropertyEnumValue@@A
       1481  5C8 0005CF60 ?DebugDump@CObject3D@@QAEXXZ
       1482  5C9 001BFEF0 ?DebugLog@CAOTimeInfo@@QAEXXZ
       1483  5CA 0010B830 ?DebugSave@CNetworkLibrary@@QAEXXZ
       1484  5CB 001CCD00 ?Debug_GetLerpedPlacement@CMovableEntity@@QAE?AVCPlacement3D@@XZ
       1485  5CC 0004C8C0 ?DeclareSymbol@CShell@@QAEXABVCTString@@PAX@Z
       1486  5CD 00053830 ?DecommitPage@CTStream@@QAEXJ@Z
       1487  5CE 0005C520 ?DecomposeRotationMatrix@@YAXAAV?$Vector@M$02@@ABV?$Matrix@M$02$02@@@Z
       1488  5CF 0005C400 ?DecomposeRotationMatrixNoSnap@@YAXAAV?$Vector@M$02@@ABV?$Matrix@M$02$02@@@Z
       1489  5D0 000303B0 ?DefaultAnimation@CAnimData@@QAEXXZ
       1490  5D1 0017C7B0 ?DeleteAllChildren@CModelInstance@@QAEXH@Z
       1491  5D2 00030870 ?DeleteAnimation@CAnimData@@QAEXJ@Z
       1492  5D3 00152E70 ?DeleteBrushMip@CBrush3D@@QAEXPAVCBrushMip@@@Z
       1493  5D4 00034BF0 ?DeleteChar@CTString@@QAEXJ@Z
       1494  5D5 00034CD0 ?DeleteChars@CTString@@QAEXJJ@Z
       1495  5D6 0017C780 ?DeleteChild@CModelInstance@@QAEXPAV1@@Z
       1496  5D7 000BF240 ?DeleteCurrentCollisionBox@CEditModel@@QAEXXZ
       1497  5D8 000A2050 ?DeleteHandles@CShader@@QAEXXZ
       1498  5D9 0017C750 ?DeleteModelInstance@@YAXPAVCModelInstance@@@Z
       1499  5DA 000EC610 ?DeletePolygons@CWorld@@QAEXAAV?$CDynamicContainer@VCBrushPolygon@@@@@Z
       1500  5DB 00040D60 ?DeletePreloadMDLDeleteType@PreLoadMng@@QAEXE@Z
       1501  5DC 00040CD0 ?DeletePreloadSMCDeleteType@PreLoadMng@@QAEXE@Z
       1502  5DD 00040BE0 ?DeletePreloadSoundDeleteType@PreLoadMng@@QAEXE@Z
       1503  5DE 00040DF0 ?DeletePreloadTextureDeleteType@PreLoadMng@@QAEXE@Z
       1504  5DF 001CB450 ?DeletePriorityFunction@Internal@Xenesis@@YAXXZ
       1505  5E0 000EA170 ?DeleteSectors@CWorld@@QAEXAAV?$CSelection@VCBrushSector@@$00@@H@Z
       1506  5E1 00156E60 ?DeleteSelectedSectors@CBrushMip@@QAEXAAV?$CSelection@VCBrushSector@@$03@@@Z
       1507  5E2 00141840 ?DeleteSelf@CEntity@@QAEXXZ
       1508  5E3 00003B80 ?DepthBufferFarL@CProjection3D@@QAEAAMXZ
       1509  5E4 00003B90 ?DepthBufferFarR@CProjection3D@@QBEABMXZ
       1510  5E5 00003B60 ?DepthBufferNearL@CProjection3D@@QAEAAMXZ
       1511  5E6 00003B70 ?DepthBufferNearR@CProjection3D@@QBEABMXZ
       1512  5E7 00076E60 ?DepthString@CDisplayMode@@QBE?AVCTString@@XZ
       1513  5E8 000756E0 ?DesaturateColor@@YAKK@Z
       1514  5E9 00004A60 ?Deselect@CBrushPolygon@@QAEXK@Z
       1515  5EA 00004AD0 ?Deselect@CBrushSector@@QAEXK@Z
       1516  5EB 000043D0 ?Deselect@CBrushVertex@@QAEXK@Z
       1517  5EC 000065B0 ?Deselect@CEntity@@QAEXK@Z
       1518  5ED 000C7CD0 ?DesreaseShadowQuality@CModelRenderPrefs@@QAEXXZ
       1519  5EE 0014A220 ?Destroy@CEntity@@UAEXH@Z
       1520  5EF 001AD990 ?Destroy@CFontTexture@@QAEXXZ
       1521  5F0 001B3770 ?DestroyBrokerNetLib@@YAXXZ
       1522  5F1 000E9100 ?DestroyCollisionGrid@CWorld@@QAEXXZ
       1523  5F2 000DF0D0 ?DestroyEntities@CWorld@@QAEXAAV?$CSelection@VCEntity@@$00@@@Z
       1524  5F3 0012C670 ?DestroyMasterGolems@CSessionState@@QAEXXZ
       1525  5F4 000DE400 ?DestroyOneEntity@CWorld@@QAEXPAVCEntity@@@Z
       1526  5F5 00098970 ?DestroyWindowCanvas@CGfxLibrary@@QAEXPAVCViewPort@@@Z
       1527  5F6 00098990 ?DestroyWorkCanvas@CGfxLibrary@@QAEXPAVCDrawPort@@@Z
       1528  5F7 0009F030 ?Detach@CImageInfo@@QAEXXZ
       1529  5F8 00055440 ?DictionaryPreload_t@CTStream@@QAEXXZ
       1530  5F9 000565C0 ?DictionaryReadBegin_t@CTStream@@QAEJXZ
       1531  5FA 00054B30 ?DictionaryReadEnd_t@CTStream@@QAEXXZ
       1532  5FB 00056470 ?DictionaryWriteBegin_t@CTStream@@QAEXABVCTFileName@@J@Z
       1533  5FC 00054800 ?DictionaryWriteEnd_t@CTStream@@QAEXXZ
       1534  5FD 0005C6D0 ?DirectionVectorToAngles@@YAXABV?$Vector@M$02@@AAV1@@Z
       1535  5FE 0005C620 ?DirectionVectorToAnglesNoSnap@@YAXABV?$Vector@M$02@@AAV1@@Z
       1536  5FF 00039AF0 ?DisableControl@CInputDevice@@QAEXJ@Z
       1537  600 00039AB0 ?DisableDevice@CInputDevice@@QAEXXZ
       1538  601 00039310 ?DisableInput@CInput@@QAEXXZ
       1539  602 00057BA0 ?DisableLerp@CTimer@@QAEXXZ
       1540  603 000511F0 ?DisableStreamHandling@CTStream@@SAXXZ
       1541  604 000E9A10 ?DisableVisTweaks@CWorldRenderPrefs@@QAEXH@Z
       1542  605 0015E4F0 ?DiscardAllLayers@CBrushShadowMap@@QAEXXZ
       1543  606 000DDC30 ?DiscardAllShadows@CWorld@@QAEXXZ
       1544  607 00147C90 ?DiscardCollisionInfo@CEntity@@QAEXXZ
       1545  608 00157A70 ?DiscardShadingInfos@CBrushPolygon@@QAEXXZ
       1546  609 001653B0 ?DiscardShadowLayers@CLightSource@@QAEXXZ
       1547  60A 0015F2A0 ?DiscardShadows@CBrushPolygon@@QAEXXZ
       1548  60B 0015E040 ?DiscardShadows@CBrushShadowLayer@@QAEXXZ
       1549  60C 0015E530 ?DiscardShadows@CBrushShadowMap@@QAEXXZ
       1550  60D 001D9070 ?Disconnect@CPlayerEntity@@UAEXXZ
       1551  60E 001B37A0 ?Disconnect@IScavengerBrokerNet@@QAEXXZ
       1552  60F 0009D9A0 ?DitherBitmap@@YAXJPAK0JJJJ@Z
       1553  610 0009DCF0 ?DitherMipmaps@@YAXJPAK0JJ@Z
       1554  611 000EB6B0 ?DoCSGOperation@CWorld@@QAEXAAVCEntity@@AAV1@0ABVCPlacement3D@@P8CObject3D@@AEXAAV4@3@Z4@Z
       1555  612 001415D0 ?DoEvent@CEntity@@UAEXAAVCNetMessage@@@Z
       1556  613 001CC670 ?DoMoving@CMovableBrushEntity@@UAEXXZ
       1557  614 001D4B70 ?DoMoving@CMovableEntity@@UAEXXZ
       1558  615 001D6210 ?DoMoving@CMovableModelEntity@@UAEXXZ
       1559  616 001D8E70 ?DoMoving@CPlayerEntity@@UAEXXZ
       1560  617 00143340 ?DoMoving@CRationalEntity@@UAEXXZ
       1561  618 00078840 ?DrawBorder@CDrawPort@@QBEXJJJJKK@Z
       1562  619 000BECC0 ?DrawFilledSurface@CEditModel@@QAEXPAVCDrawPort@@JJMJJKK@Z
       1563  61A 000786F0 ?DrawLine3D@CDrawPort@@QBEXV?$Vector@M$02@@0K@Z
       1564  61B 000784D0 ?DrawLine@CDrawPort@@QBEXJJJJKK@Z
       1565  61C 00078380 ?DrawPoint3D@CDrawPort@@QBEXV?$Vector@M$02@@KM@Z
       1566  61D 00077640 ?DrawPoint@CDrawPort@@QBEXJJKJ@Z
       1567  61E 0007AEC0 ?DrawTexture@CDrawPort@@QAEXPAVCTextureData@@JJJJK@Z
       1568  61F 0007C020 ?DrawTexture@CDrawPort@@QAEXPAVCTextureObject@@JJJJK@Z
       1569  620 0007A990 ?DrawTexture@CDrawPort@@QBEXPAVCTextureObject@@ABJ1111111ABM2222222ABKK@Z
       1570  621 0007ABA0 ?DrawTexture@CDrawPort@@QBEXPAVCTextureObject@@HHHHHHHHKK@Z
       1571  622 0007AE70 ?DrawTexture@CDrawPort@@QBEXPAVCTextureObject@@HHHHHHKK@Z
       1572  623 000BEA90 ?DrawWireSurface@CEditModel@@QAEXPAVCDrawPort@@JJMJJKK@Z
       1573  624 00127150 ?DropLaggingClients@CServer@@QAEXXZ
       1574  625 001418E0 ?DropsMarker@CEntity@@UBEHAAVCTFileName@@AAVCTString@@@Z
       1575  626 001CC6A0 ?Dummy@CMovableBrushEntity@@QAEHABVCEntityEvent@@@Z
       1576  627 001CCC00 ?Dummy@CMovableEntity@@QAEHABVCEntityEvent@@@Z
       1577  628 001D6360 ?Dummy@CMovableModelEntity@@QAEHABVCEntityEvent@@@Z
       1578  629 001D90A0 ?Dummy@CPlayerEntity@@QAEHABVCEntityEvent@@@Z
       1579  62A 00120810 ?Dump@CNetworkMessage@@QAEXXZ
       1580  62B 0004EE20 ?DumpCurrentStack@@YAXPAVCTFileStream@@@Z
       1581  62C 000DD950 ?DumpReferenceInfo@CWorld@@QAEXPAVCEntity@@@Z
       1582  62D 001242A0 ?DumpStats@CServer@@QAEXXZ
       1583  62E 001D8D60 ?DumpToConsole@CPlayerEntity@@UAEXXZ
       1584  62F 001704A0 ?DuplicateAnimation@CAnimSet@@QAEXPAUAnimation@@VCTString@@@Z
       1585  630 000C24E0 ?EditAddPatch@CEditModel@@QAEHVCTFileName@@V?$Vector@J$01@@AAJ@Z
       1586  631 000C2620 ?EditRemoveAllPatches@CEditModel@@QAEXXZ
       1587  632 000C25F0 ?EditRemovePatch@CEditModel@@QAEXJ@Z
       1588  633 00039AD0 ?EnableControl@CInputDevice@@QAEXJ@Z
       1589  634 00039A90 ?EnableDevice@CInputDevice@@QAEXXZ
       1590  635 00039600 ?EnableInput@CInput@@QAEXPAUHWND__@@@Z
       1591  636 0003BD10 ?EnableInput@CInput@@QAEXPAVCViewPort@@@Z
       1592  637 00179A40 ?EnableSrcRememberFN@CModelInstance@@SAXH@Z
       1593  638 00051160 ?EnableStreamHandling@CTStream@@SAXXZ
       1594  639 00179A50 ?EnableVertexArrayKeeping@CModelInstance@@SAXH@Z
       1595  63A 0014A1D0 ?End@CEntity@@QAEXXZ
       1596  63B 00086730 ?EndDriver_D3D@CGfxLibrary@@AAEXXZ
       1597  63C 0008C370 ?EndDriver_OGL@CGfxLibrary@@AAEXXZ
       1598  63D 000D1560 ?EndModelRenderingMask@@YAXXZ
       1599  63E 000D14B0 ?EndModelRenderingView@@YAXH@Z
       1600  63F 00120620 ?EndOfMessage@CNetworkMessage@@QAEHXZ
       1601  640 00112420 ?EndWinsock@CCommunicationInterface@@QAEXXZ
       1602  641 001487D0 ?End_internal@CEntity@@QAEXXZ
       1603  642 001429C0 ?EntityAdjustBonesAbsCallback@@YAXPAX@Z
       1604  643 001429B0 ?EntityAdjustBonesCallback@@YAXPAX@Z
       1605  644 001429D0 ?EntityAdjustShaderParamsCallback@@YAXPAXJPAVCShader@@AAUShaderParams@@@Z
       1606  645 000DD5E0 ?EntityExists@CWorld@@QAEHKAAPAVCEntity@@@Z
       1607  646 000DD5A0 ?EntityFromID@CWorld@@QAEPAVCEntity@@K@Z
       1608  647 0014EC00 ?EntityTouchesBrushPolygon@CClipTest@@QAEHPAVCBrushPolygon@@@Z
       1609  648 000989C0 ?EnumDisplayModes@CGfxLibrary@@QAEPAVCDisplayMode@@AAJW4GfxAPIType@@J@Z
       1610  649 0011C770 ?EnumNetworkProviders@CMessageDispatcher@@QAEXAAVCListHead@@@Z
       1611  64A 0011C070 ?EnumNetworkProviders_startup@CMessageDispatcher@@QAEXAAVCListHead@@@Z
       1612  64B 0010BE80 ?EnumSessionsContinue@CNetworkLibrary@@QAEXXZ
       1613  64C 0010BE10 ?EnumSessionsStart@CNetworkLibrary@@QAEXH@Z
       1614  64D 0010ACE0 ?EnumSessionsStop@CNetworkLibrary@@QAEXXZ
       1615  64E 00036FB0 ?ErrorDescription@@YAPBDPBUErrorTable@@J@Z
       1616  64F 0004B8E0 ?ErrorF@CShell@@QAAXPBDZZ
       1617  650 00036F60 ?ErrorName@@YAPBDPBUErrorTable@@J@Z
       1618  651 00051230 ?ExceptionFatalError@CTStream@@SAXXZ
       1619  652 00052640 ?ExceptionFilter@CTStream@@SAHKPAU_EXCEPTION_POINTERS@@@Z
       1620  653 0004C980 ?Execute@CShell@@QAEXABVCTString@@@Z
       1621  654 0011D310 ?ExitRelay@CNet@@QAEXXZ
       1622  655 0009F060 ?ExpandEdges@CImageInfo@@QAEXJ@Z
       1623  656 00051A80 ?ExpandFilePath@@YAJKABVCTFileName@@AAV1@@Z
       1624  657 00055BA0 ?ExpandxFilePath@@YAJKABVCTFileName@@AAV1@1@Z
       1625  658 00052F50 ?ExpectID_t@CTStream@@QAEXABVCChunkID@@@Z
       1626  659 00053000 ?ExpectKeyword_t@CTStream@@QAEXABVCTString@@@Z
       1627  65A 000BC2D0 ?ExportSurfaceNumbersAndNames@CEditModel@@QAEXVCTFileName@@@Z
       1628  65B 000A7A00 ?Export_t@CTextureData@@QAEXAAVCImageInfo@@J@Z
       1629  65C 00120C70 ?ExtractSubMessage@CNetworkMessage@@QAEXAAV1@@Z
       1630  65D 00068800 ?Extrapolate@CPlacement3D@@QAEXABV1@0M@Z
       1631  65E 001B3170 ?FLOAT3DTopwVector@@YA?AVpwVector3@@V?$Vector@M$02@@@Z
       1632  65F 00003BA0 ?FOVL@CPerspectiveProjection3D@@QAEAAMXZ
       1633  660 00003BB0 ?FOVR@CPerspectiveProjection3D@@QBEABMXZ
       1634  661 00052DD0 ?FPrintF_t@CTStream@@QAAXPBDZZ
       1635  662 001431A0 ?FRnd@CEntity@@QAEMXZ
       1636  663 000B61B0 ?Fade@CSoundObject@@QAEXMMH@Z
       1637  664 001AEB50 ?FadeIn@CBladeTrail@@QAEXV?$Vector@M$02@@0M@Z
       1638  665 001AE780 ?FadeOut@CBladeTrail@@QAEXV?$Vector@M$02@@0M@Z
       1639  666 001CFF50 ?FakeJump@CMovableEntity@@QAEXABV?$Vector@M$02@@0MMMMM@Z
       1640  667 00146BF0 ?FallDownToFloor@CEntity@@QAEXXZ
       1641  668 00003A10 ?FarClipDistanceL@CProjection3D@@QAEAAMXZ
       1642  669 00003A20 ?FarClipDistanceR@CProjection3D@@QBEABMXZ
       1643  66A 00036C00 ?FatalError@@YAXPBDZZ
       1644  66B 000A6DF0 ?FetchRow@CTextureData@@QAEXJPAXJH@Z
       1645  66C 00054420 ?FileCommitPage@CTFileStream@@QAEXJ@Z
       1646  66D 00053D00 ?FileDecommitPage@CTFileStream@@QAEXJ@Z
       1647  66E 00037090 ?FileDir@CTFileName@@QBE?AV1@XZ
       1648  66F 00056330 ?FileExists@@YAHABVCTFileName@@@Z
       1649  670 00053F50 ?FileExistsForWriting@@YAHABVCTFileName@@@Z
       1650  671 00037210 ?FileExt@CTFileName@@QBE?AV1@XZ
       1651  672 00037150 ?FileName@CTFileName@@QBE?AV1@XZ
       1652  673 00142E50 ?FileNameForComponent@CEntity@@QAEABVCTFileName@@JJ@Z
       1653  674 00051550 ?FileReadAhead_t@CTFileStream@@QAEXJJ@Z
       1654  675 00078CF0 ?Fill@CDrawPort@@QBEXJJJJK@Z
       1655  676 000777B0 ?Fill@CDrawPort@@QBEXJJJJKKKK@Z
       1656  677 00077AD0 ?Fill@CDrawPort@@QBEXK@Z
       1657  678 00143160 ?FillEntityStatistics@CEntity@@UAEHPAUEntityStats@@@Z
       1658  679 00077BC0 ?FillZBuffer@CDrawPort@@QBEXJJJJM@Z
       1659  67A 00077CE0 ?FillZBuffer@CDrawPort@@QBEXM@Z
       1660  67B 0009EA70 ?FilterBitmap@@YAXJPAK0JJJJ@Z
       1661  67C 000E02E0 ?FilterEntitiesBySpawnFlags@CWorld@@QAEXK@Z
       1662  67D 0017A730 ?FindAnimationByID@CModelInstance@@QAEHHPAJ0@Z
       1663  67E 0018E8A0 ?FindBoneInLOD@CSkeleton@@QBEJJJ@Z
       1664  67F 00148FD0 ?FindCollisionInfo@CEntity@@QAEXXZ
       1665  680 001492B0 ?FindEntitiesInRange@CEntity@@QAEXABV?$AABBox@M$02@@AAV?$CDynamicContainer@VCEntity@@@@H@Z
       1666  681 0015A4B0 ?FindEntitiesInSector@CBrushSector@@QAEXXZ
       1667  682 000E8E20 ?FindEntitiesNearBox@CWorld@@QAEXABV?$AABBox@M$02@@AAV?$CStaticStackArray@PAVCEntity@@@@@Z
       1668  683 000DDA30 ?FindEntityWithCharacter@CWorld@@QAEPAVCPlayerEntity@@AAVCPlayerCharacter@@@Z
       1669  684 0017A7B0 ?FindFirstAnimationID@CModelInstance@@QAEJXZ
       1670  685 0017AE40 ?FindFlag@CModelInstance@@QAE_NABVCTString@@AA_N@Z
       1671  686 001B5470 ?FindID@FieldInfo@@QAEHG@Z
       1672  687 0015F2C0 ?FindLightRectangle@CBrushShadowMap@@QAEXAAVCLightSource@@AAVCLightRectangle@@@Z
       1673  688 000B1F20 ?FindListener@CSoundLibrary@@QAEHAAVCSoundListener@@@Z
       1674  689 0014F890 ?FindRemappedEntityPointer@CEntity@@SAPAV1@PAV1@@Z
       1675  68A 0012AC30 ?FindRememberedLevel@CSessionState@@QAEPAVCRememberedLevel@@ABVCTString@@@Z
       1676  68B 00147D10 ?FindSectorsAroundEntity@CEntity@@QAEXXZ
       1677  68C 00148020 ?FindSectorsAroundEntityNear@CEntity@@QAEXXZ
       1678  68D 00147110 ?FindShadingInfo@CEntity@@QAEXXZ
       1679  68E 00166020 ?FindShadowLayers@CLightSource@@QAEXH@Z
       1680  68F 000DDAE0 ?FindShadowLayers@CWorld@@QAEXABV?$AABBox@M$02@@HH@Z
       1681  690 00165780 ?FindShadowLayersDirectional@CLightSource@@QAEXH@Z
       1682  691 00165AE0 ?FindShadowLayersPoint@CLightSource@@QAEXH@Z
       1683  692 00034510 ?FindSubstr@CTString@@QAEJABV1@@Z
       1684  693 00179CF0 ?FindTexureInstance@CModelInstance@@QAEPAUTextureInstance@@J@Z
       1685  694 00179D50 ?FindTexureInstance@CModelInstance@@QAEPAUTextureInstance@@JAAUMeshInstance@@@Z
       1686  695 000543E0 ?FindXfsFile@xfsMan@@AAEPAVxFileManager@File@Foundation@Xenesis2@@AAVCTFileName@@@Z
       1687  696 0010ABF0 ?FinishCRCGather@CNetworkLibrary@@QAEXXZ
       1688  697 000582C0 ?FinishTranslationTable@@YAXXZ
       1689  698 00030CB0 ?FirstFrame@CAnimObject@@QAEXXZ
       1690  699 001257D0 ?FirstInactivePlayer@CServer@@QAEPAVCPlayerTarget@@XZ
       1691  69A 0009D740 ?FlipBitmap@@YAXPAE0JJJH@Z
       1692  69B 000EB1D0 ?FlipPolygon@CWorld@@QAEXAAVCBrushPolygon@@@Z
       1693  69C 00002060 ?Flush@CGfxLibrary@@QAEXXZ
       1694  69D 000B1E90 ?Flush@CSoundLibrary@@QAEXXZ
       1695  69E 00078F90 ?FlushRenderingQueue@CDrawPort@@QBEXXZ
       1696  69F 000A67F0 ?Force@CTextureData@@QAEXK@Z
       1697  6A0 001D62E0 ?ForceCollisionBoxIndexChange@CMovableModelEntity@@QAEXJ@Z
       1698  6A1 001CFF40 ?ForceFullStop@CMovableEntity@@QAEXXZ
       1699  6A2 001CE490 ?ForceStopRotation@CMovableEntity@@QAEXXZ
       1700  6A3 001CFE90 ?ForceStopTranslation@CMovableEntity@@QAEXXZ
       1701  6A4 0012AC70 ?ForgetOldLevels@CSessionState@@QAEXXZ
       1702  6A5 00053560 ?FreeBuffer@CTStream@@QAEXXZ
       1703  6A6 0003CDC0 ?FreeMemory@@YAXPAX@Z
       1704  6A7 0003CE80 ?FreeMemoryAligned@@YAXPAX@Z
       1705  6A8 000FC200 ?FreeUnused@CStock_CAnimData@@QAEXXZ
       1706  6A9 000FD6A0 ?FreeUnused@CStock_CAnimSet@@QAEXXZ
       1707  6AA 000FE740 ?FreeUnused@CStock_CEntityClass@@QAEXXZ
       1708  6AB 000FF9A0 ?FreeUnused@CStock_CFontData@@QAEXXZ
       1709  6AC 00100C00 ?FreeUnused@CStock_CMesh@@QAEXXZ
       1710  6AD 00101D30 ?FreeUnused@CStock_CModelData@@QAEXXZ
       1711  6AE 00102EE0 ?FreeUnused@CStock_CModelInstance@@QAEXXZ
       1712  6AF 00104140 ?FreeUnused@CStock_CShader@@QAEXXZ
       1713  6B0 00105380 ?FreeUnused@CStock_CSkeleton@@QAEXXZ
       1714  6B1 001065E0 ?FreeUnused@CStock_CSoundData@@QAEXXZ
       1715  6B2 00107790 ?FreeUnused@CStock_CTextureData@@QAEXXZ
       1716  6B3 00147A90 ?FromBrush@CCollisionInfo@@QAEXPAVCBrush3D@@@Z
       1717  6B4 00071620 ?FromMappingVectors@CMappingDefinition@@QAEXABVCMappingVectors@@0@Z
       1718  6B5 001475E0 ?FromModel@CCollisionInfo@@QAEXPAVCEntity@@J@Z
       1719  6B6 00155330 ?FromObject3D_t@CBrush3D@@QAEXAAVCObject3D@@@Z
       1720  6B7 00154A70 ?FromObjectSector_t@CBrushSector@@QAEXAAVCObjectSector@@@Z
       1721  6B8 00070B20 ?FromPlane@CMappingVectors@@QAEXABV?$Plane@M$02@@@Z
       1722  6B9 00070CD0 ?FromPlane_DOUBLE@CMappingVectors@@QAEXABV?$Plane@N$02@@@Z
       1723  6BA 00141EC0 ?FromSkaModel@CCollisionInfo@@QAEXPAVCEntity@@J@Z
       1724  6BB 00070980 ?FromUI@CMappingDefinition@@QAEXABVCMappingDefinitionUI@@@Z
       1725  6BC 000039D0 ?FrontClipDistanceL@CProjection3D@@QAEAAMXZ
       1726  6BD 000039E0 ?FrontClipDistanceR@CProjection3D@@QBEABMXZ
       1727  6BE 0010ABE0 ?GameInactive@CNetworkLibrary@@QAEXXZ
       1728  6BF 00004F40 ?GatDataSize@CNetMessage@@QAEGXZ
       1729  6C0 001CE150 ?GetAP@CMovableEntity@@UAEMXZ
       1730  6C1 0012AD00 ?GetActionFromMessage@CSessionState@@QAE?AVCPlayerAction@@VCNetMessage@@AAE@Z
       1731  6C2 000BB240 ?GetActiveCollisionBoxIndex@CEditModel@@QAEJXZ
       1732  6C3 000C9900 ?GetAllFramesBBox@CModelData@@QAEXAAV?$AABBox@M$02@@@Z
       1733  6C4 00179E90 ?GetAllFramesBBox@CModelInstance@@QAEXAAV?$AABBox@M$02@@@Z
       1734  6C5 000CAFC0 ?GetAllFramesBBox@CModelObject@@QAEXAAV?$AABBox@M$02@@@Z
       1735  6C6 000CCDE0 ?GetAlphaBlendingFrameIndex@CModelData@@QAEHE@Z
       1736  6C7 000CCE30 ?GetAlphaBlendingFrameIndexAlphaVlaue@CModelData@@QAEHE@Z
       1737  6C8 000C88E0 ?GetAlphaBlendingIndexCount@CModelData@@QAEEXZ
       1738  6C9 00141CD0 ?GetAngle@CEntity@@UAE?AV?$Vector@M$02@@XZ
       1739  6CA 00030FB0 ?GetAnim@CAnimObject@@QBEJXZ
       1740  6CB 00141910 ?GetAnimData@CEntity@@UAEPAVCAnimData@@J@Z
       1741  6CC 00030620 ?GetAnimInfo@CAnimData@@QBEXJAAVCAnimInfo@@@Z
       1742  6CD 00030DB0 ?GetAnimInfo@CAnimObject@@QBEXJAAVCAnimInfo@@@Z
       1743  6CE 00030B40 ?GetAnimLength@CAnimObject@@QBEMJ@Z
       1744  6CF 0017A810 ?GetAnimLength@CModelInstance@@QAEMJH@Z
       1745  6D0 0017A890 ?GetAnimPlayingTime@CModelInstance@@QAEMJ@Z
       1746  6D1 000117F0 ?GetAnimation@CAnimSet@@QAEPAUAnimation@@J@Z
       1747  6D2 000117E0 ?GetAnimationCount@CAnimSet@@QBEJXZ
       1748  6D3 00030860 ?GetAnimsCt@CAnimData@@QBEJXZ
       1749  6D4 00030F90 ?GetAnimsCt@CAnimObject@@QBEJXZ
       1750  6D5 00141200 ?GetAssignedBoneID@CCollisionCapsule@@QAEJXZ
       1751  6D6 00141130 ?GetAssignedBoneID@CCollisionSphere@@QAEJXZ
       1752  6D7 00141540 ?GetAssignedBoneID@CControlBone@@QAEJXZ
       1753  6D8 000DB700 ?GetAttachmentMatrices@CModelObject@@QAEXPAVCAttachmentModelObject@@AAV?$Matrix@M$02$02@@AAV?$Vector@M$02@@@Z
       1754  6D9 000C9630 ?GetAttachmentModel@CModelObject@@QAEPAVCAttachmentModelObject@@J@Z
       1755  6DA 000C96A0 ?GetAttachmentModelCount@CModelObject@@QAEJXZ
       1756  6DB 000C9660 ?GetAttachmentModelList@CModelObject@@QAAPAVCAttachmentModelObject@@JZZ
       1757  6DC 000CAA10 ?GetAttachmentPlacement@CModelObject@@QAE?AVCPlacement3D@@AAVCAttachmentModelObject@@@Z
       1758  6DD 000DBDD0 ?GetAttachmentTransformations@CModelObject@@QAEXJAAV?$Matrix@M$02$02@@AAV?$Vector@M$02@@H@Z
       1759  6DE 000DD4E0 ?GetBackgroundColor@CWorld@@QAEKXZ
       1760  6DF 000DD740 ?GetBackgroundViewer@CWorld@@QAEPAVCEntity@@XZ
       1761  6E0 001B18C0 ?GetBezierCurves@CParticle@@QAEMMMMM@Z
       1762  6E1 00141070 ?GetBladePointE@CBladeTrail@@QAE?AV?$Vector@M$02@@J@Z
       1763  6E2 00141020 ?GetBladePointNum@CBladeTrail@@QAEJXZ
       1764  6E3 00141040 ?GetBladePointS@CBladeTrail@@QAE?AV?$Vector@M$02@@J@Z
       1765  6E4 00007B40 ?GetBlueTeamInfo@FieldInfo@@QAEPAVCTeamInfo@@XZ
       1766  6E5 001B5240 ?GetBlueTeamPlayerCount@FieldInfo@@QAEEXZ
       1767  6E6 001B5340 ?GetBlueTeamPlayerSlotCount@FieldInfo@@QAEEXZ
       1768  6E7 00142A30 ?GetBoneAbsPosition@CEntity@@QAEHJAAV?$Vector@M$02@@0@Z
       1769  6E8 001799A0 ?GetBoneMatrix@CModelInstance@@QAEHJAAY0M@M@Z
       1770  6E9 001799C0 ?GetBoneMatrix@CModelInstance@@QAEHVCTString@@AAY0M@M@Z
       1771  6EA 001452D0 ?GetBonePositionAbs@CEntity@@QAE?AV?$Vector@M$02@@J@Z
       1772  6EB 00145230 ?GetBonePositionAbs@CEntity@@QAE?AV?$Vector@M$02@@VCTString@@@Z
       1773  6EC 0017AC80 ?GetBonePositionAbs@CModelInstance@@QAE?AV?$Vector@M$02@@J@Z
       1774  6ED 0017ACE0 ?GetBonePositionAbs@CModelInstance@@QAE?AV?$Vector@M$02@@VCTString@@@Z
       1775  6EE 0017AD60 ?GetBonePositionRel@CModelInstance@@QAE?AV?$Vector@M$02@@J@Z
       1776  6EF 0017ADC0 ?GetBonePositionRel@CModelInstance@@QAE?AV?$Vector@M$02@@VCTString@@@Z
       1777  6F0 001429F0 ?GetBoneRelPosition@CEntity@@QAEHJAAV?$Vector@M$02@@0@Z
       1778  6F1 0017AC20 ?GetBoneRot@CModelInstance@@QAE?AV?$Vector@M$02@@J@Z
       1779  6F2 00179E10 ?GetBoneRotForMat@CModelInstance@@QAE?AV?$Matrix@M$02$02@@J@Z
       1780  6F3 00144130 ?GetBoneTransformations@CEntity@@QAEHJAAV?$Matrix@M$02$02@@AAV?$Vector@M$02@@@Z
       1781  6F4 00142A70 ?GetBoneTransformations@CEntity@@QAEHJAAY0M@M@Z
       1782  6F5 00007BD0 ?GetBossSlotNumber@FieldInfo@@QAEEXZ
       1783  6F6 00146B70 ?GetBoundingBox@CEntity@@QAEXAAV?$AABBox@M$02@@@Z
       1784  6F7 0005D4F0 ?GetBoundingBox@CObject3D@@QAEXAAV?$AABBox@N$02@@@Z
       1785  6F8 000066B0 ?GetBrush@CEntity@@QAEPAVCBrush3D@@XZ
       1786  6F9 000E9CD0 ?GetBrushMip@CWorld@@QAEPAVCBrushMip@@AAVCEntity@@@Z
       1787  6FA 001529B0 ?GetBrushMipByDistance@CBrush3D@@QAEPAVCBrushMip@@M@Z
       1788  6FB 001529F0 ?GetBrushMipByIndex@CBrush3D@@QAEPAVCBrushMip@@J@Z
       1789  6FC 00004AB0 ?GetBrushPolygon@CBrushShadowMap@@QAEPAVCBrushPolygon@@XZ
       1790  6FD 00004D50 ?GetBrushType@CBrush3D@@UAEJXZ
       1791  6FE 00004370 ?GetBrushType@CBrushBase@@UAEJXZ
       1792  6FF 000974B0 ?GetBrushType@CTerrain@@UAEJXZ
       1793  700 00032CB0 ?GetBuffer@CConsole@@QAEPBDXZ
       1794  701 00032CD0 ?GetBufferSize@CConsole@@QAEJXZ
       1795  702 00007C90 ?GetCash@AccountInfo_s@@QAEKXZ
       1796  703 001D9040 ?GetChangeData@CPlayerEntity@@UAEXAAVCNetMessage@@@Z
       1797  704 000393A0 ?GetCharFromKey@@YADKH@Z
       1798  705 00002430 ?GetCharSpacing@CFontData@@QBEJXZ
       1799  706 00010100 ?GetCharWidthA@CFontData@@QBEJD@Z
       1800  707 00027100 ?GetCharacterInfo@FieldInfo@@QAE?AU_CharacterInfoInField@@J@Z
       1801  708 00027130 ?GetCharacterName@FieldInfo@@QAE?AVCTString@@J@Z
       1802  709 001A7420 ?GetCharsetFromLang@@YAHG@Z
       1803  70A 001224E0 ?GetChatMask@CPlayerSource@@QAEKXZ
       1804  70B 0017A240 ?GetChild@CModelInstance@@QAEPAV1@JH@Z
       1805  70C 0017A2C0 ?GetChild@CModelInstance@@QAEPAV1@VCTString@@H@Z
       1806  70D 00143A20 ?GetChildOfClass@CEntity@@QAEPAV1@PBD@Z
       1807  70E 00007CA0 ?GetClanPoint@AccountInfo_s@@QBE?BKXZ
       1808  70F 00006690 ?GetClass@CEntity@@QAEPAVCEntityClass@@XZ
       1809  710 00144790 ?GetClassificationBoxStretch@CEntity@@UAE?AV?$Vector@M$02@@XZ
       1810  711 001B4FC0 ?GetClientCount@FieldInfo@@QAEEE@Z
       1811  712 001B4F00 ?GetClientCount@FieldInfo@@QAEEXZ
       1812  713 00124D70 ?GetClientsCount@CServer@@QAEJXZ
       1813  714 001A7510 ?GetCodePageFromCharset@@YAHH@Z
       1814  715 00179B20 ?GetColisionBox@CModelInstance@@QAEAAUColisionBox@@J@Z
       1815  716 00179AE0 ?GetColisionBoxIndex@CModelInstance@@QAEJJ@Z
       1816  717 000BBD70 ?GetCollisionBoxDimensionEquality@CEditModel@@QAEJXZ
       1817  718 000C99D0 ?GetCollisionBoxDimensionEquality@CModelData@@QAEJJ@Z
       1818  719 00179BC0 ?GetCollisionBoxDimensionEquality@CModelInstance@@QAEJJ@Z
       1819  71A 000CB020 ?GetCollisionBoxDimensionEquality@CModelObject@@QAEJJ@Z
       1820  71B 00141B50 ?GetCollisionBoxIndex@CEntity@@UAEJXZ
       1821  71C 001D6220 ?GetCollisionBoxIndex@CMovableModelEntity@@UAEJXZ
       1822  71D 000BC790 ?GetCollisionBoxMax@CEditModel@@QAEAAV?$Vector@M$02@@XZ
       1823  71E 000C9980 ?GetCollisionBoxMax@CModelData@@QAE?AV?$Vector@M$02@@J@Z
       1824  71F 00179B70 ?GetCollisionBoxMax@CModelInstance@@QAE?AV?$Vector@M$02@@J@Z
       1825  720 000CB000 ?GetCollisionBoxMax@CModelObject@@QAE?AV?$Vector@M$02@@J@Z
       1826  721 000BC780 ?GetCollisionBoxMin@CEditModel@@QAEAAV?$Vector@M$02@@XZ
       1827  722 000C9930 ?GetCollisionBoxMin@CModelData@@QAE?AV?$Vector@M$02@@J@Z
       1828  723 00179B30 ?GetCollisionBoxMin@CModelInstance@@QAE?AV?$Vector@M$02@@J@Z
       1829  724 000CAFE0 ?GetCollisionBoxMin@CModelObject@@QAE?AV?$Vector@M$02@@J@Z
       1830  725 000BC5C0 ?GetCollisionBoxName@CEditModel@@QAE?AVCTString@@J@Z
       1831  726 000BC660 ?GetCollisionBoxName@CEditModel@@QAE?AVCTString@@XZ
       1832  727 00143820 ?GetCollisionBoxParameters@CEntity@@UAEXJAAV?$AABBox@M$02@@AAJ@Z
       1833  728 0014C9F0 ?GetCollisionCapsule@CPonytail@@QAEPAVCCollisionCapsule@@J@Z
       1834  729 0014BEA0 ?GetCollisionCapsuleNum@CPonytail@@QAEJXZ
       1835  72A 00006670 ?GetCollisionFlags@CEntity@@QBEKXZ
       1836  72B 0014CA00 ?GetCollisionSphere@CPonytail@@QAEPAVCCollisionSphere@@J@Z
       1837  72C 0014BEB0 ?GetCollisionSphereNum@CPonytail@@QAEJXZ
       1838  72D 000C8BF0 ?GetColorName@CModelObject@@QAE?AVCTString@@J@Z
       1839  72E 0004BA60 ?GetCompletionString@CShellSymbol@@QBE?AVCTString@@XZ
       1840  72F 00004AF0 ?GetContentType@CBrushSector@@QAEJXZ
       1841  730 00039990 ?GetControl@CInputDevice@@QAEJABVCTString@@@Z
       1842  731 0014C9E0 ?GetControlBone@CPonytail@@QAEPAVCControlBone@@J@Z
       1843  732 0014BE90 ?GetControlBoneNum@CPonytail@@QAEJXZ
       1844  733 001415C0 ?GetControlBone_Root@CPonytail@@QAEPAVCControlBone@@XZ
       1845  734 00001830 ?GetControlGID@@YAKJJ@Z
       1846  735 0003BE20 ?GetControlGIDFromString@CInput@@QAEKABVCTString@@0@Z
       1847  736 00001840 ?GetControlLID@@YAJK@Z
       1848  737 00039820 ?GetControlName@CInput@@QAE?AVCTString@@K@Z
       1849  738 00039870 ?GetControlTransName@CInput@@QAE?AVCTString@@K@Z
       1850  739 000397F0 ?GetControlValue@CInput@@QAEMK@Z
       1851  73A 000399F0 ?GetControlValue@CInputDevice@@QAEMJ@Z
       1852  73B 00039980 ?GetControlsCount@CInputDevice@@QAEJXZ
       1853  73C 000064E0 ?GetCreateInfo@CEntity@@UAEXAAVCNetMessage@@@Z
       1854  73D 00007B70 ?GetCurrRound@FieldInfo@@QAEEXZ
       1855  73E 00001F60 ?GetCurrentAPI@CGfxLibrary@@QAE?AW4GfxAPIType@@XZ
       1856  73F 00001F70 ?GetCurrentAdapter@CGfxLibrary@@QAEJXZ
       1857  740 001797F0 ?GetCurrentAnimID@CModelInstance@@QAEJXZ
       1858  741 00030B70 ?GetCurrentAnimLength@CAnimObject@@QBEMXZ
       1859  742 00179800 ?GetCurrentAnimName@CModelInstance@@QAE?AVCTString@@XZ
       1860  743 00179AD0 ?GetCurrentColisionBox@CModelInstance@@QAEAAUColisionBox@@XZ
       1861  744 00179EF0 ?GetCurrentColisionBox@CModelInstance@@QAEXAAV?$AABBox@M$02@@@Z
       1862  745 00179720 ?GetCurrentColisionBoxIndex@CModelInstance@@QAEJXZ
       1863  746 00001F80 ?GetCurrentDisplayMode@CGfxLibrary@@QAEXAAVCDisplayMode@@@Z
       1864  747 000C90C0 ?GetCurrentFrameBBox@CModelObject@@QAEXAAV?$AABBox@M$02@@@Z
       1865  748 0012FFB0 ?GetCurrentMipBrushingFactor@CWorldRenderPrefs@@QAEMM@Z
       1866  749 000014B0 ?GetCurrentTick@CTimer@@QBE?BMXZ
       1867  74A 00007040 ?GetCurrentWorld@CNetworkLibrary@@QAEAAVCTFileName@@XZ
       1868  74B 000C80E0 ?GetData@CModelObject@@QAEPAVCModelData@@XZ
       1869  74C 00004F30 ?GetData@CNetMessage@@QAEPAXXZ
       1870  74D 00141B80 ?GetDepthSortOffset@CEntity@@UAEMXZ
       1871  74E 0016F030 ?GetDescription@CAnimSet@@UAE?AVCTString@@XZ
       1872  74F 00143580 ?GetDescription@CEntity@@UBEABVCTString@@XZ
       1873  750 00172650 ?GetDescription@CMesh@@UAE?AVCTString@@XZ
       1874  751 000C7F90 ?GetDescription@CModelData@@UAE?AVCTString@@XZ
       1875  752 00179AA0 ?GetDescription@CModelInstanceSerial@@UAE?AVCTString@@XZ
       1876  753 0011BDD0 ?GetDescription@CNetworkProvider@@QBEABVCTString@@XZ
       1877  754 0004A5C0 ?GetDescription@CSerial@@UAE?AVCTString@@XZ
       1878  755 0018E860 ?GetDescription@CSkeleton@@UAE?AVCTString@@XZ
       1879  756 000AF340 ?GetDescription@CSoundData@@UAE?AVCTString@@XZ
       1880  757 00002CE0 ?GetDescription@CTStream@@QAEAAVCTString@@XZ
       1881  758 000A8390 ?GetDescription@CTextureData@@UAE?AVCTString@@XZ
       1882  759 000DD530 ?GetDescription@CWorld@@QAEABVCTString@@XZ
       1883  75A 001CC9B0 ?GetDesiredRotation@CMovableEntity@@QBEABV?$Vector@M$02@@XZ
       1884  75B 001CC9C0 ?GetDesiredTranslation@CMovableEntity@@QBEABV?$Vector@M$02@@XZ
       1885  75C 00001730 ?GetDeviceType@CInputDevice@@QAE?AW4DeviceType@@XZ
       1886  75D 00003090 ?GetDirectionVector@CPlacement3D@@QAEXAAV?$Vector@M$02@@@Z
       1887  75E 00051ED0 ?GetDiskFreeSpaceA@@YA_JABVCTString@@@Z
       1888  75F 000696E0 ?GetDistance@CIsometricProjection3D@@UBEMABV?$Vector@M$02@@@Z
       1889  760 0006B710 ?GetDistance@CParallelProjection3D@@UBEMABV?$Vector@M$02@@@Z
       1890  761 0006CC70 ?GetDistance@CPerspectiveProjection3D@@UBEMABV?$Vector@M$02@@@Z
       1891  762 0006E990 ?GetDistance@CSimpleProjection3D@@UBEMABV?$Vector@M$02@@@Z
       1892  763 00158C70 ?GetDistanceFromEdges@CBrushPolygon@@QAEMABV?$Vector@M$02@@@Z
       1893  764 000458A0 ?GetDst@CRelationLnk@@QAEAAVCRelationDst@@XZ
       1894  765 000E9B40 ?GetEdgesFillType@CWorldRenderPrefs@@QAE?AW4FillType@1@XZ
       1895  766 000E9B60 ?GetEdgesInkColor@CWorldRenderPrefs@@QAEKXZ
       1896  767 001B4D20 ?GetElapseTime@FieldInfo@@QAEMXZ
       1897  768 000B5D90 ?GetElapsedTime@CSoundObject@@QAEMJ@Z
       1898  769 000E9C60 ?GetEmptyBrushModel@CWorldRenderPrefs@@QAEPAVCModelObject@@XZ
       1899  76A 001415E0 ?GetEntity@CEntityID@@QAEPAVCEntity@@XZ
       1900  76B 00128D10 ?GetEntity@CSessionState@@QAEPAVCEntity@@W4EEntityClassType@@EE@Z
       1901  76C 001419C0 ?GetEntityClassInfo@CEntity@@QAE?AUEntityClassInfo@@XZ
       1902  76D 00143150 ?GetEntityInfo@CEntity@@UAEPAXXZ
       1903  76E 0010F830 ?GetEntityOfClass@CNetworkLibrary@@QAEPAVCEntity@@ABVCTString@@J@Z
       1904  76F 00145760 ?GetEntityPointFixed@CEntity@@QAEXABV?$Vector@M$02@@AAV2@@Z
       1905  770 00145420 ?GetEntityPointRatio@CEntity@@QAEXABV?$Vector@M$02@@AAV2@H@Z
       1906  771 0010F420 ?GetEntityWithName@CNetworkLibrary@@QAEPAVCEntity@@ABVCTString@@J@Z
       1907  772 00004BB0 ?GetEnvironmentType@CBrushSector@@QAEJXZ
       1908  773 000BBD20 ?GetExistingPatchesMask@CEditModel@@QAEKXZ
       1909  774 0004BE70 ?GetFLOAT@CShell@@QAEMABVCTString@@@Z
       1910  775 0005B9C0 ?GetFPUPrecision@@YA?AW4FPUPrecisionType@@XZ
       1911  776 001419B0 ?GetFieldSettings@CEntity@@UAEPAVCFieldSettings@@XZ
       1912  777 000563D0 ?GetFileCRC32_t@@YAKABVCTFileName@@@Z
       1913  778 00054020 ?GetFileTimeStamp_t@@YAJABVCTFileName@@@Z
       1914  779 000BBAB0 ?GetFirstEmptyPatchIndex@CEditModel@@QAEHAAJ@Z
       1915  77A 001528D0 ?GetFirstMip@CBrush3D@@QAEPAVCBrushMip@@XZ
       1916  77B 0017A330 ?GetFirstNonReferencedParent@CModelInstance@@QAEPAV1@PAV1@@Z
       1917  77C 00143A70 ?GetFirstSector@CEntity@@QAEPAVCBrushSector@@XZ
       1918  77D 00143A90 ?GetFirstSectorWithName@CEntity@@QAEPAVCBrushSector@@XZ
       1919  77E 000BBAF0 ?GetFirstValidPatchIndex@CEditModel@@QAEHAAJ@Z
       1920  77F 00006630 ?GetFlags@CEntity@@QBEKXZ
       1921  780 000C7DF0 ?GetFlags@CModelData@@QAEKXZ
       1922  781 000974F0 ?GetFlags@CTerrain@@QAEKXZ
       1923  782 00003F10 ?GetFlags@CTextureData@@QBEKXZ
       1924  783 000A6C80 ?GetFlags@CTextureObject@@QBEKXZ
       1925  784 00141970 ?GetFog@CEntity@@UAEHJAAVCFogParameters@@@Z
       1926  785 00143660 ?GetFogName@CEntity@@UAEABVCTString@@J@Z
       1927  786 00004B50 ?GetFogType@CBrushSector@@QAEJXZ
       1928  787 001A1D70 ?GetFontSize@CCharManager@@QAEHM@Z
       1929  788 00141490 ?GetForce@CDynParticle@@QAE?AV?$Vector@M$02@@XZ
       1930  789 00144730 ?GetForce@CEntity@@UAEXJABV?$Vector@M$02@@AAVCForceStrength@@1@Z
       1931  78A 00141920 ?GetForceController@CEntity@@UAEPAV1@J@Z
       1932  78B 001435F0 ?GetForceName@CEntity@@UAEABVCTString@@J@Z
       1933  78C 00004B20 ?GetForceType@CBrushSector@@QAEJXZ
       1934  78D 00001E90 ?GetFormat@CSoundLibrary@@QAE?AW4SoundFormat@1@XZ
       1935  78E 00030820 ?GetFrame@CAnimData@@QAEJJJ@Z
       1936  78F 00031500 ?GetFrame@CAnimObject@@QBEJXZ
       1937  790 00031520 ?GetFrame@CAnimObject@@QBEXAAJ0AAM@Z
       1938  791 000C8B30 ?GetFrameBBox@CModelObject@@QAE?AV?$AABBox@M$02@@J@Z
       1939  792 00001F50 ?GetFrameNumber@CGfxLibrary@@QAEJXZ
       1940  793 00031000 ?GetFramesInCurrentAnim@CAnimObject@@QBEJXZ
       1941  794 00145F10 ?GetFrontDirection@CEntity@@QAE?AV?$Vector@M$02@@XZ
       1942  795 000393D0 ?GetGIDFromChar@@YAKD@Z
       1943  796 00039400 ?GetGIDFromVirtKey@@YAKJ@Z
       1944  797 001D9090 ?GetGameSpyPlayerInfo@CPlayerEntity@@UAEXJAAVCTString@@@Z
       1945  798 0010ABC0 ?GetGameTime@CNetworkLibrary@@QAEMXZ
       1946  799 00007C20 ?GetGameType@FieldInfo@@QBE?BW4GAMETYPE@@XZ
       1947  79A 00128EC0 ?GetGeneralNpcSlotIndex@CSessionState@@QAEJEEJ@Z
       1948  79B 0009F250 ?GetGfxFileInfo_t@CImageInfo@@QAEJABVCTFileName@@@Z
       1949  79C 000086E0 ?GetGlobalFieldInfo@@YAPAVFieldInfo@@XZ
       1950  79D 00129C60 ?GetGoldGolem@CSessionState@@QAEPAVCEntity@@XZ
       1951  79E 001419A0 ?GetGradient@CEntity@@UAEHJAAVCGradientParameters@@@Z
       1952  79F 001437B0 ?GetGradientName@CEntity@@UAEABVCTString@@J@Z
       1953  7A0 001CE040 ?GetHP@CMovableEntity@@UAEMXZ
       1954  7A1 00034820 ?GetHash@CTString@@QBEKXZ
       1955  7A2 00141980 ?GetHaze@CEntity@@UAEHJAAVCHazeParameters@@AAV?$Vector@M$02@@@Z
       1956  7A3 001436D0 ?GetHazeName@CEntity@@UAEABVCTString@@J@Z
       1957  7A4 00004B80 ?GetHazeType@CBrushSector@@QAEJXZ
       1958  7A5 0003CAF0 ?GetHead@CListNode@@QAEAAVCListHead@@XZ
       1959  7A6 001CE720 ?GetHeadingDirection@CMovableEntity@@QAEXMAAV?$Vector@M$02@@@Z
       1960  7A7 00006810 ?GetHealth@CLiveEntity@@QBEMXZ
       1961  7A8 00038C90 ?GetHeight@CDrawPort@@QBEJXZ
       1962  7A9 000BB230 ?GetHeight@CEditModel@@QAEJXZ
       1963  7AA 00002420 ?GetHeight@CFontData@@QBEJXZ
       1964  7AB 000C89A0 ?GetHeight@CModelObject@@QAEJXZ
       1965  7AC 00003EE0 ?GetHeight@CTextureData@@QBEJXZ
       1966  7AD 000A6C50 ?GetHeight@CTextureObject@@QBEJXZ
       1967  7AE 000014F0 ?GetHighPrecisionTimer@CTimer@@QAE?AVCTimerValue@@XZ
       1968  7AF 001124B0 ?GetHostName@CCommunicationInterface@@QAEXAAVCTString@@0@Z
       1969  7B0 0010A990 ?GetHostName@CNetworkLibrary@@QAEXAAVCTString@@0@Z
       1970  7B1 000116F0 ?GetHostZombieSlot@FieldInfo@@QAEEXZ
       1971  7B2 000772A0 ?GetID@CDrawPort@@QAEKXZ
       1972  7B3 00179910 ?GetID@CModelInstance@@QAEABJXZ
       1973  7B4 00052E70 ?GetID_t@CTStream@@QAE?AVCChunkID@@XZ
       1974  7B5 0004BEF0 ?GetINDEX@CShell@@QAEJABVCTString@@@Z
       1975  7B6 00141A50 ?GetInitData@CEntity@@UAEXAAVCNetMessage@@@Z
       1976  7B7 000C7D70 ?GetInkColor@CModelRenderPrefs@@QAEKXZ
       1977  7B8 0003BD30 ?GetInput@CInput@@QAEXH@Z
       1978  7B9 00039790 ?GetInputDevice@CInput@@QAEPAVCInputDevice@@ABVCTString@@@Z
       1979  7BA 00039760 ?GetInputDevice@CInput@@QAEPAVCInputDevice@@J@Z
       1980  7BB 00001850 ?GetInputDeviceID@@YAJK@Z
       1981  7BC 000398C0 ?GetInputDeviceName@CInput@@QAE?AVCTString@@J@Z
       1982  7BD 00039900 ?GetInputDeviceShortName@CInput@@QAE?AVCTString@@J@Z
       1983  7BE 0000FD20 ?GetInputDevicesCount@CInput@@QAEJXZ
       1984  7BF 001B5690 ?GetItemCountByID@AccountInfo_s@@QAEGG@Z
       1985  7C0 001B0B20 ?GetKeyCmd@CKeyCommand@@QAEJXZ
       1986  7C1 00032D10 ?GetLastLine@CConsole@@QAE?AVCTString@@J@Z
       1987  7C2 001528E0 ?GetLastMip@CBrush3D@@QAEPAVCBrushMip@@XZ
       1988  7C3 00145300 ?GetLastPositions@CEntity@@QAEPAVCLastPositions@@J@Z
       1989  7C4 000E9BE0 ?GetLensFlares@CWorldRenderPrefs@@QAE?AW4LensFlaresType@1@XZ
       1990  7C5 000014E0 ?GetLerpFactor@CTimer@@QBEMXZ
       1991  7C6 000014C0 ?GetLerpedCurrentTick@CTimer@@QBE?BMXZ
       1992  7C7 001CC820 ?GetLerpedEntityTime@CMovableEntity@@QAEMXZ
       1993  7C8 00141D20 ?GetLerpedPlacement@CEntity@@UAE?AVCPlacement3D@@XZ
       1994  7C9 001CCC10 ?GetLerpedPlacement@CMovableEntity@@UAE?AVCPlacement3D@@XZ
       1995  7CA 001B18A0 ?GetLifeTime@CParticle@@QAEMXZ
       1996  7CB 00165460 ?GetLightAmbient@CLightSource@@QBEKXZ
       1997  7CC 001652B0 ?GetLightAmbient@CLightSource@@QBEXAAE00@Z
       1998  7CD 00165420 ?GetLightColor@CLightSource@@QBEKXZ
       1999  7CE 001651E0 ?GetLightColor@CLightSource@@QBEXAAE00@Z
       2000  7CF 000DD2A0 ?GetLightColorAndAmbient@CLightSource@@QBEXAAE00000@Z
       2001  7D0 000DD270 ?GetLightColorAndAmbient@CLightSource@@QBEXAAK0@Z
       2002  7D1 001418F0 ?GetLightSource@CEntity@@UAEPAVCLightSource@@XZ
       2003  7D2 0015E1B0 ?GetLightStrength@CBrushShadowLayer@@QAEMJJMM@Z
       2004  7D3 00002440 ?GetLineSpacing@CFontData@@QBEJXZ
       2005  7D4 00052BC0 ?GetLine_t@CTStream@@QAEXAAVCTString@@D@Z
       2006  7D5 00052B00 ?GetLine_t@CTStream@@QAEXPADJD@Z
       2007  7D6 00052C20 ?GetLine_t@CTStream@@QAEXPAGJG@Z
       2008  7D7 001125A0 ?GetLocalAddress_t@CCommunicationInterface@@QAEXAAK0@Z
       2009  7D8 001B5CE0 ?GetLocalCharacterInfo@FieldInfo@@QAE?AU_CharacterInfoInField@@XZ
       2010  7D9 000240A0 ?GetLocalCharacterName@FieldInfo@@QAE?AVCTString@@XZ
       2011  7DA 0010A980 ?GetLocalPause@CNetworkLibrary@@QAEHXZ
       2012  7DB 0010BA30 ?GetLocalPlayer@CNetworkLibrary@@QAEPAVCPlayerSource@@XZ
       2013  7DC 001B4E40 ?GetLocalPlayer@FieldInfo@@QAEPAVCEntity@@XZ
       2014  7DD 0010BA00 ?GetLocalPlayerCount@CNetworkLibrary@@QAEJXZ
       2015  7DE 0010BA40 ?GetLocalPlayerEntity@CNetworkLibrary@@QAEPAVCEntity@@PAVCPlayerSource@@@Z
       2016  7DF 0004ED70 ?GetLogicalAddress@@YAHPAXPADKAAK2@Z
       2017  7E0 000E9AB0 ?GetManualMipBrushingFactor@CWorldRenderPrefs@@QAEMXZ
       2018  7E1 000C8060 ?GetManualMipLevel@CModelObject@@QAEJXZ
       2019  7E2 00128E80 ?GetMapNpc@CSessionState@@QAEPAVCEntity@@J@Z
       2020  7E3 00128F60 ?GetMapNpcSlotIndex@CSessionState@@QAEJEJ@Z
       2021  7E4 00141440 ?GetMass@CDynParticle@@QAEMXZ
       2022  7E5 00128E30 ?GetMasterGolem@CSessionState@@QAEPAVCEntity@@W4ETeamClass@@@Z
       2023  7E6 001CC7B0 ?GetMaxAP@CMovableEntity@@UAEMXZ
       2024  7E7 00143AE0 ?GetMaxFloorRadius@CCollisionInfo@@QAEMXZ
       2025  7E8 001CC740 ?GetMaxHP@CMovableEntity@@UAEMXZ
       2026  7E9 00141870 ?GetMaxPlayers@CEntity@@SAJXZ
       2027  7EA 00007B50 ?GetMaxRound@FieldInfo@@QAEJXZ
       2028  7EB 00007BA0 ?GetMaxRoundTime@FieldInfo@@QAEMXZ
       2029  7EC 00141BA0 ?GetMaxTessellationLevel@CEntity@@UAEMXZ
       2030  7ED 00001000 ?GetMeleeWeaponType@@YA?AW4EWeapon@@G@Z
       2031  7EE 000E9C00 ?GetMinimumRenderRange@CWorldRenderPrefs@@QAEMXZ
       2032  7EF 000BB210 ?GetMipCt@CEditModel@@QAEJXZ
       2033  7F0 001568B0 ?GetMipDistance@CBrushMip@@QAEMXZ
       2034  7F1 00156950 ?GetMipIndex@CBrushMip@@QAEJXZ
       2035  7F2 000C8AE0 ?GetMipModel@CModelObject@@QAEJM@Z
       2036  7F3 0009D630 ?GetMipmapOfSize@@YAJJAAPAKAAJ1@Z
       2037  7F4 0009E720 ?GetMipmapOffset@@YAJJJJ@Z
       2038  7F5 00141990 ?GetMirror@CEntity@@UAEHJAAVCMirrorParameters@@@Z
       2039  7F6 00143740 ?GetMirrorName@CEntity@@UAEABVCTString@@J@Z
       2040  7F7 00141F80 ?GetModel@CEntity@@QAEABVCTFileName@@XZ
       2041  7F8 00141F70 ?GetModelColor@CEntity@@QBEKXZ
       2042  7F9 00179950 ?GetModelColor@CModelInstance@@QAEKXZ
       2043  7FA 00144210 ?GetModelDataForComponent@CEntity@@QAEPAVCModelData@@J@Z
       2044  7FB 00179960 ?GetModelDyeingColor@CModelInstance@@QAEKXZ
       2045  7FC 00141950 ?GetModelForRendering@CEntity@@UAEPAVCModelObject@@XZ
       2046  7FD 000C89B0 ?GetModelInfo@CModelObject@@QAEXAAVCModelInfo@@@Z
       2047  7FE 000066D0 ?GetModelInstance@CEntity@@QAEPAVCModelInstance@@XZ
       2048  7FF 00144230 ?GetModelInstanceForComponent@CEntity@@QAEPAVCModelInstance@@J@Z
       2049  800 00141960 ?GetModelInstanceForRendering@CEntity@@UAEPAVCModelInstance@@XZ
       2050  801 00142780 ?GetModelMainTexture@CEntity@@QAEABVCTFileName@@XZ
       2051  802 000066C0 ?GetModelObject@CEntity@@QAEPAVCModelObject@@XZ
       2052  803 00179920 ?GetModelVertices@CModelInstance@@QAEXAAV?$CStaticStackArray@V?$Vector@M$02@@@@AAV?$Matrix@M$02$02@@AAV?$Vector@M$02@@MM@Z
       2053  804 000DC550 ?GetModelVertices@CModelObject@@QAEXAAV?$CStaticStackArray@V?$Vector@M$02@@@@AAV?$Matrix@M$02$02@@AAV?$Vector@M$02@@MM@Z
       2054  805 00144070 ?GetModelVerticesAbsolute@CEntity@@QAEXAAV?$CStaticStackArray@V?$Vector@M$02@@@@MM@Z
       2055  806 001D8DF0 ?GetMyPlayerIndex@CPlayerEntity@@QAEJXZ
       2056  807 00007BC0 ?GetMySlotNumber@FieldInfo@@QAEEXZ
       2057  808 00143510 ?GetName@CEntity@@UBEABVCTString@@XZ
       2058  809 001798C0 ?GetName@CModelInstance@@QAE?AVCTString@@XZ
       2059  80A 000C9230 ?GetName@CModelObject@@QAE?AVCTFileName@@XZ
       2060  80B 00151E10 ?GetName@CPlayerCharacter@@QBEABVCTString@@XZ
       2061  80C 001D8DE0 ?GetName@CPlayerEntity@@UBEABVCTString@@XZ
       2062  80D 00002280 ?GetName@CSerial@@QAEABVCTFileName@@XZ
       2063  80E 000019D0 ?GetName@CTFileName@@QAEABV1@XZ
       2064  80F 000A82E0 ?GetName@CTextureObject@@QAEABVCTFileName@@XZ
       2065  810 000DD570 ?GetName@CWorld@@QAEABVCTString@@XZ
       2066  811 00151E20 ?GetNameForPrinting@CPlayerCharacter@@QBE?BVCTString@@XZ
       2067  812 0010F760 ?GetNavigationMakerEntity@CNetworkLibrary@@QAEPAVCEntity@@ABVCTString@@@Z
       2068  813 0017AED0 ?GetNearestBoneID@CModelInstance@@QAEJV?$Vector@M$02@@@Z
       2069  814 0017AFE0 ?GetNearestCollisionSphere@CModelInstance@@QAEPAUCollisionSphere@@V?$Vector@M$02@@@Z
       2070  815 00151A50 ?GetNearestPolygon@CEntity@@QAEPAVCBrushPolygon@@AAV?$Vector@M$02@@AAV?$Plane@M$02@@AAM@Z
       2071  816 001B5820 ?GetNewGolemModeNpcData@FieldInfo@@QAEPAVNewGolemNpcSetData@@E@Z
       2072  817 001B57F0 ?GetNewGolemModeNpcDataCount@FieldInfo@@QAEGXZ
       2073  818 001568C0 ?GetNext@CBrushMip@@QAEPAV1@XZ
       2074  819 000BBC00 ?GetNextValidPatchIndex@CEditModel@@QAEXAAJ@Z
       2075  81A 00003F20 ?GetNoOfFineMips@CTextureData@@QBEKXZ
       2076  81B 00010650 ?GetNoOfMips@CTextureData@@QBEKXZ
       2077  81C 0010F6B0 ?GetNthPlayerEntity@CNetworkLibrary@@QAEPAVCPlayerEntity@@J@Z
       2078  81D 0010F5E0 ?GetNthPlayerEntityWithName@CNetworkLibrary@@QAEPAVCPlayerEntity@@ABVCTString@@J@Z
       2079  81E 0010F390 ?GetNumberOfEntitiesWithName@CNetworkLibrary@@QAEJABVCTString@@@Z
       2080  81F 0010F530 ?GetNumberOfPlayerEntitiesWithName@CNetworkLibrary@@QAEJABVCTString@@@Z
       2081  820 00124E10 ?GetObserversCount@CServer@@QAEJXZ
       2082  821 00179770 ?GetOffsetPos@CModelInstance@@QAE?AV?$Vector@M$02@@XZ
       2083  822 0017A0B0 ?GetOffsetRot@CModelInstance@@QAE?AV?$Vector@M$02@@XZ
       2084  823 00129A60 ?GetOnRoundState@CSessionState@@QAEHXZ
       2085  824 00006580 ?GetOpacity@CEntity@@UAEMXZ
       2086  825 0014DB40 ?GetOverridenState@CDLLEntityClass@@QAEJJ@Z
       2087  826 001415B0 ?GetPT_NUM@CPonytail@@QAEJXZ
       2088  827 000C7D90 ?GetPaperColor@CModelRenderPrefs@@QAEKXZ
       2089  828 000066F0 ?GetParent@CEntity@@QAEPAV1@XZ
       2090  829 0017A1D0 ?GetParent@CModelInstance@@QAEPAV1@PAV1@@Z
       2091  82A 00030E50 ?GetPassedFrame@CAnimObject@@QBEJXZ
       2092  82B 00030EA0 ?GetPassedTime@CAnimObject@@QBEMXZ
       2093  82C 00141AC0 ?GetPassedTimeFrom@CEntity@@UAEMAAM@Z
       2094  82D 00129420 ?GetPassedTimeFrom@CSessionState@@QAEMAAK@Z
       2095  82E 001293A0 ?GetPassedTimeFrom@CSessionState@@QAENAAVCTimerValue@@@Z
       2096  82F 001C9B00 ?GetPasswordFromFile@File@Device@Xenesis2@@YAPADPBD@Z
       2097  830 000C80B0 ?GetPatchesMask@CModelObject@@QAEKXZ
       2098  831 000086D0 ?GetPenalty@CAOTime@@QAEMXZ
       2099  832 00006660 ?GetPhysicsFlags@CEntity@@QBEKXZ
       2100  833 001CE860 ?GetPitchDirection@CMovableEntity@@QAEXMAAV?$Vector@M$02@@@Z
       2101  834 00003F00 ?GetPixHeight@CTextureData@@QBEJXZ
       2102  835 000A6C70 ?GetPixHeight@CTextureObject@@QBEJXZ
       2103  836 00003EF0 ?GetPixWidth@CTextureData@@QBEJXZ
       2104  837 000A6C60 ?GetPixWidth@CTextureObject@@QBEJXZ
       2105  838 000065D0 ?GetPlacement@CEntity@@QBEABVCPlacement3D@@XZ
       2106  839 001B5160 ?GetPlayBluePlayer_Count@FieldInfo@@QAEEXZ
       2107  83A 001B5000 ?GetPlayPlayer_Count@FieldInfo@@QAEEXZ
       2108  83B 001B50B0 ?GetPlayRedPlayer_Count@FieldInfo@@QAEEXZ
       2109  83C 00128DE0 ?GetPlayer@CSessionState@@QAEPAVCEntity@@E@Z
       2110  83D 001B4E60 ?GetPlayer@FieldInfo@@QAEPAVCEntity@@E@Z
       2111  83E 001434D0 ?GetPlayerEntity@CEntity@@SAPAV1@JK@Z
       2112  83F 0010BAD0 ?GetPlayerEntityByName@CNetworkLibrary@@QAEPAVCEntity@@ABVCTString@@@Z
       2113  840 00151E00 ?GetPlayerIndex@CPlayerCharacter@@QAE?BJXZ
       2114  841 001D8DB0 ?GetPlayerName@CPlayerEntity@@QAE?AVCTString@@XZ
       2115  842 0010F8F0 ?GetPlayerSource@CNetworkLibrary@@QAEPAVCPlayerSource@@PAVCEntity@@@Z
       2116  843 00125740 ?GetPlayersCount@CServer@@QAEJXZ
       2117  844 0012CCD0 ?GetPlayersCount@CSessionState@@QAEJXZ
       2118  845 001257A0 ?GetPlayersCountForClient@CServer@@QAEJJ@Z
       2119  846 00007A80 ?GetPoints@CTeamInfo@@QAEJXZ
       2120  847 000E9B80 ?GetPolygonsFillType@CWorldRenderPrefs@@QAE?AW4FillType@1@XZ
       2121  848 000E9BA0 ?GetPolygonsInkColor@CWorldRenderPrefs@@QAEKXZ
       2122  849 0011D1F0 ?GetPort@CNet@@QAEGXZ
       2123  84A 00052880 ?GetPos_t@CTStream@@QAEJXZ
       2124  84B 00141450 ?GetPosition@CDynParticle@@QAE?AV?$Vector@M$02@@XZ
       2125  84C 00141C80 ?GetPosition@CEntity@@UAE?AV?$Vector@M$02@@XZ
       2126  84D 00151630 ?GetPosition@CLastPositions@@QAEABV?$Vector@M$02@@J@Z
       2127  84E 001568D0 ?GetPrev@CBrushMip@@QAEPAV1@XZ
       2128  84F 000BBB30 ?GetPreviousValidPatchIndex@CEditModel@@QAEXAAJ@Z
       2129  850 00128FE0 ?GetQuestSwitch@CSessionState@@QAEPAVCEntity@@G@Z
       2130  851 00129030 ?GetQuestTrigger@CSessionState@@QAEPAVCEntity@@G@Z
       2131  852 000010D0 ?GetRangeWeaponType@@YA?AW4EWeapon@@G@Z
       2132  853 00001490 ?GetRealTickTime@CTimer@@QBE?BMXZ
       2133  854 0010AA90 ?GetRealTimeFactor@CNetworkLibrary@@QAEMXZ
       2134  855 00129370 ?GetRealTimeFactor@CSessionState@@QAEMXZ
       2135  856 00007B30 ?GetRedTeamInfo@FieldInfo@@QAEPAVCTeamInfo@@XZ
       2136  857 001B5210 ?GetRedTeamPlayerCount@FieldInfo@@QAEEXZ
       2137  858 001B5270 ?GetRedTeamPlayerSlotCount@FieldInfo@@QAEEXZ
       2138  859 001CE510 ?GetReferenceHeadingDirection@CMovableEntity@@QAEXABV?$Vector@M$02@@MAAV2@@Z
       2139  85A 00002050 ?GetRefreshHz@CGfxLibrary@@QAEJXZ
       2140  85B 001CCFC0 ?GetRelativeHeading@CMovableEntity@@QAEMABV?$Vector@M$02@@@Z
       2141  85C 001CD030 ?GetRelativePitch@CMovableEntity@@QAEMABV?$Vector@M$02@@@Z
       2142  85D 001442A0 ?GetRelativeVector@CEntity@@QAE?AV?$Vector@M$02@@V2@@Z
       2143  85E 0011CD90 ?GetRelayHeader@CNet@@QAEXABEPAE@Z
       2144  85F 001AF440 ?GetRelitiveVelocity@CCollisionCapsule@@QAE?AV?$Vector@M$02@@V2@0M@Z
       2145  860 001AEEF0 ?GetRelitiveVelocity@CCollisionSphere@@QAE?AV?$Vector@M$02@@V2@0M@Z
       2146  861 00112690 ?GetRemoteAddress_t@CCommunicationInterface@@QAEXAAK0@Z
       2147  862 00006680 ?GetRenderType@CEntity@@QAE?AW4RenderType@1@XZ
       2148  863 000C7CB0 ?GetRenderType@CModelRenderPrefs@@QAEKXZ
       2149  864 000AE060 ?GetRenderingTime@CTextureEffectGlobal@@QAENXZ
       2150  865 001B4CE0 ?GetRestRoundTime@FieldInfo@@QAEMXZ
       2151  866 001B5530 ?GetRestVoteTime@AccountInfo_s@@QAEKXZ
       2152  867 000065E0 ?GetRotationMatrix@CEntity@@QBEABV?$Matrix@M$02$02@@XZ
       2153  868 001B4DA0 ?GetRoundStartTime@FieldInfo@@QAEKXZ
       2154  869 00007AE0 ?GetRoundState@FieldInfo@@QAE?AW4ERoundState@@XZ
       2155  86A 000A6E80 ?GetRowPointer@CTextureData@@QAEPAKJ@Z
       2156  86B 00099130 ?GetScreenPos@@YA?AUtagPOINT@@ABV?$Vector@M$02@@00@Z
       2157  86C 000AF300 ?GetSecondsLength@CSoundData@@QAENXZ
       2158  86D 00145810 ?GetSectorFromPoint@CEntity@@QAEPAVCBrushSector@@ABV?$Vector@M$02@@@Z
       2159  86E 000E9C20 ?GetSelectedEntityModel@CWorldRenderPrefs@@QAEPAVCModelObject@@XZ
       2160  86F 000E9C40 ?GetSelectedPortalModel@CWorldRenderPrefs@@QAEPAVCModelObject@@XZ
       2161  870 000E9C80 ?GetSelectionType@CWorldRenderPrefs@@QAE?AW4SelectionType@1@XZ
       2162  871 0010ABD0 ?GetSessionProperties@CNetworkLibrary@@QAEPAXXZ
       2163  872 00004800 ?GetShadowLayersCount@CBrushShadowMap@@QAEJXZ
       2164  873 000C7CF0 ?GetShadowQuality@CModelRenderPrefs@@QAEJXZ
       2165  874 000A4930 ?GetShadowSize@CShadowMap@@QAEKXZ
       2166  875 000E9BC0 ?GetShadowsType@CWorldRenderPrefs@@QAE?AW4ShadowsType@1@XZ
       2167  876 00144520 ?GetSize@CEntity@@QAEXAAV?$AABBox@M$02@@@Z
       2168  877 00004E20 ?GetSizeOf@CEntityEvent@@UAEJXZ
       2169  878 001CB5E0 ?GetSizeOf@EBegin@@UAEJXZ
       2170  879 001CB6B0 ?GetSizeOf@EBlock@@UAEJXZ
       2171  87A 001CB9F0 ?GetSizeOf@EBouncedWall@@UAEJXZ
       2172  87B 001CB970 ?GetSizeOf@EBuildModelBrushCollision@@UAEJXZ
       2173  87C 001CBA10 ?GetSizeOf@EDamage@@UAEJXZ
       2174  87D 001CBBF0 ?GetSizeOf@EDamageType@@UAEJXZ
       2175  87E 001CBA30 ?GetSizeOf@EDeath@@UAEJXZ
       2176  87F 001CB8A0 ?GetSizeOf@EFirstWorldBase@@UAEJXZ
       2177  880 001CB4C0 ?GetSizeOf@EInternal@@UAEJXZ
       2178  881 001CBB00 ?GetSizeOf@ELocalEntity@@UAEJXZ
       2179  882 001CB690 ?GetSizeOf@EPass@@UAEJXZ
       2180  883 001CBA90 ?GetSizeOf@EPlayerInit@@UAEJXZ
       2181  884 001CB830 ?GetSizeOf@EPostLevelChange@@UAEJXZ
       2182  885 001CB7C0 ?GetSizeOf@EPreLevelChange@@UAEJXZ
       2183  886 001CBB60 ?GetSizeOf@ERemoteEntity@@UAEJXZ
       2184  887 001CB580 ?GetSizeOf@EReturn@@UAEJXZ
       2185  888 001CB900 ?GetSizeOf@ETakingBreath@@UAEJXZ
       2186  889 001CB760 ?GetSizeOf@ETeleport@@UAEJXZ
       2187  88A 001CB640 ?GetSizeOf@ETimer@@UAEJXZ
       2188  88B 001CB670 ?GetSizeOf@ETouch@@UAEJXZ
       2189  88C 001CB520 ?GetSizeOf@EVoid@@UAEJXZ
       2190  88D 001CB700 ?GetSizeOf@EWouldFall@@UAEJXZ
       2191  88E 000530B0 ?GetSize_t@CTStream@@QAEJXZ
       2192  88F 001B5D80 ?GetSlotConnectionType@FieldInfo@@QAE?AW4CONNECTION_TYPE@S_CLIENT_PING_LOG_DATA@@E@Z
       2193  890 001B4E80 ?GetSlotNumber@FieldInfo@@QAEFKG@Z
       2194  891 00006DB0 ?GetSocket@CNet@@QAEIXZ
       2195  892 00112500 ?GetSocketError@CCommunicationInterface@@QAE?AVCTString@@J@Z
       2196  893 00142FA0 ?GetSoundLength@CEntity@@QAENABVCTFileName@@@Z
       2197  894 00142F80 ?GetSoundLength@CEntity@@QAENJ@Z
       2198  895 00071890 ?GetSpaceCoordinates@CMappingDefinition@@QBEXABVCMappingVectors@@ABV?$Vector@J$01@@AAV?$Vector@M$02@@@Z
       2199  896 00006650 ?GetSpawnFlags@CEntity@@QBEKXZ
       2200  897 000DD590 ?GetSpawnFlags@CWorld@@QAEKXZ
       2201  898 00152070 ?GetSpecies@CPlayerCharacter@@QBEABVCTString@@XZ
       2202  899 00152080 ?GetSpeciesForPrinting@CPlayerCharacter@@QBE?BVCTString@@XZ
       2203  89A 00045890 ?GetSrc@CRelationLnk@@QAEAAVCRelationSrc@@XZ
       2204  89B 000064F0 ?GetStatusInfo@CEntity@@UAEXAAVCNetMessage@@@Z
       2205  89C 00011800 ?GetStr@CAOTime@@QAE?AVCTString@@XZ
       2206  89D 00053D80 ?GetStreamCRC32_t@CTFileStream@@UAEKXZ
       2207  89E 000529B0 ?GetStreamCRC32_t@CTStream@@UAEKXZ
       2208  89F 000528F0 ?GetStreamSize@CTStream@@QAEJXZ
       2209  8A0 001BE7B0 ?GetString@CMD5@@QAEPADPBDI@Z
       2210  8A1 0004BF70 ?GetString@CShell@@QAE?AVCTString@@ABV2@@Z
       2211  8A2 001A7620 ?GetStringPixWidth@@YAJABVCTString@@ABM@Z
       2212  8A3 000C8C20 ?GetSurfaceColor@CModelObject@@QAEKJJ@Z
       2213  8A4 000BC400 ?GetSurfaceName@CEditModel@@QAEPBDJJ@Z
       2214  8A5 000C8D10 ?GetSurfaceRenderFlags@CModelObject@@QAEXJJAAW4SurfaceShadingType@@AAW4SurfaceTranslucencyType@@AAK@Z
       2215  8A6 0004BD80 ?GetSymbol@CShell@@QAEPAVCShellSymbol@@ABVCTString@@H@Z
       2216  8A7 001D9020 ?GetSyncData@CPlayerEntity@@UAEXAAVCNetMessage@@@Z
       2217  8A8 00141880 ?GetTarget@CEntity@@UBEPAV1@XZ
       2218  8A9 00151F40 ?GetTeam@CPlayerCharacter@@QBEABVCTString@@XZ
       2219  8AA 00151F50 ?GetTeamForPrinting@CPlayerCharacter@@QBE?BVCTString@@XZ
       2220  8AB 000066E0 ?GetTerrain@CEntity@@QAEPAVCTerrain@@XZ
       2221  8AC 000A6D80 ?GetTexel@CTextureData@@QAEKJJ@Z
       2222  8AD 001A2970 ?GetTextExtentPointSize@CCharManager@@QAEHVCTString@@HPAUtagSIZE@@@Z
       2223  8AE 0007C850 ?GetTextExtentPointSize@CDrawPort@@QBEHPBDHPAUtagSIZE@@@Z
       2224  8AF 0007C7E0 ?GetTextExtentPointSize@CDrawPort@@QBEHVCTString@@HPAUtagSIZE@@@Z
       2225  8B0 001AC220 ?GetTextExtentPointSize@CFontTexture@@QBEHPBDHPAUtagSIZE@@@Z
       2226  8B1 001AC060 ?GetTextExtentPointSize@CFontTexture@@QBEHVCTString@@HPAUtagSIZE@@@Z
       2227  8B2 0007C7C0 ?GetTextHeight@CDrawPort@@QBEKABVCTString@@@Z
       2228  8B3 0007C7A0 ?GetTextWidth@CDrawPort@@QBEKABVCTString@@@Z
       2229  8B4 00071790 ?GetTextureCoordinates@CMappingDefinition@@QBEXABVCMappingVectors@@ABV?$Vector@M$02@@AAV?$Vector@J$01@@@Z
       2230  8B5 001441F0 ?GetTextureDataForComponent@CEntity@@QAEPAVCTextureData@@J@Z
       2231  8B6 000C7DD0 ?GetTextureDimensions@CModelData@@QAEXAAJ0@Z
       2232  8B7 00179840 ?GetTimeAnimEnd@CModelInstance@@QAEMXZ
       2233  8B8 00179830 ?GetTimeAnimStart@CModelInstance@@QAEMXZ
       2234  8B9 00006A20 ?GetType@CNetworkMessage@@QBE?AW4NetworkMessageType@@XZ
       2235  8BA 0004C1A0 ?GetType@CShell@@QAE?AW4ShellTypeType@@ABVCTString@@@Z
       2236  8BB 0004A8B0 ?GetUsedCount@CSerial@@QAEJXZ
       2237  8BC 0016EF60 ?GetUsedMemory@CAnimSet@@UAEJXZ
       2238  8BD 000044A0 ?GetUsedMemory@CBrushEdge@@QAEJXZ
       2239  8BE 00004430 ?GetUsedMemory@CBrushPlane@@QAEJXZ
       2240  8BF 00157A40 ?GetUsedMemory@CBrushPolygon@@QAEJXZ
       2241  8C0 00004940 ?GetUsedMemory@CBrushPolygonTexture@@QAEJXZ
       2242  8C1 00159AC0 ?GetUsedMemory@CBrushSector@@QAEJXZ
       2243  8C2 0015E6C0 ?GetUsedMemory@CBrushShadowMap@@QAEJXZ
       2244  8C3 000043F0 ?GetUsedMemory@CBrushVertex@@QAEJXZ
       2245  8C4 001431E0 ?GetUsedMemory@CEntity@@UAEJXZ
       2246  8C5 0014D610 ?GetUsedMemory@CEntityClass@@UAEJXZ
       2247  8C6 00006820 ?GetUsedMemory@CLiveEntity@@UAEJXZ
       2248  8C7 001724F0 ?GetUsedMemory@CMesh@@UAEJXZ
       2249  8C8 000C8410 ?GetUsedMemory@CModelData@@UAEJXZ
       2250  8C9 0017B410 ?GetUsedMemory@CModelInstance@@QAEJXZ
       2251  8CA 0017B4A0 ?GetUsedMemory@CModelInstanceSerial@@UAEJXZ
       2252  8CB 000C97D0 ?GetUsedMemory@CModelObject@@QAEJXZ
       2253  8CC 001CCB90 ?GetUsedMemory@CMovableEntity@@UAEJXZ
       2254  8CD 001D6350 ?GetUsedMemory@CMovableModelEntity@@UAEJXZ
       2255  8CE 000068F0 ?GetUsedMemory@CRationalEntity@@UAEJXZ
       2256  8CF 000022A0 ?GetUsedMemory@CSerial@@UAEJXZ
       2257  8D0 000A16A0 ?GetUsedMemory@CShader@@UAEJXZ
       2258  8D1 000A5820 ?GetUsedMemory@CShadowMap@@QAEHAAJ00AAM@Z
       2259  8D2 0018E820 ?GetUsedMemory@CSkeleton@@UAEJXZ
       2260  8D3 000AF410 ?GetUsedMemory@CSoundData@@UAEJXZ
       2261  8D4 000A6D20 ?GetUsedMemory@CTextureData@@UAEJXZ
       2262  8D5 00124DC0 ?GetVIPClientsCount@CServer@@QAEJXZ
       2263  8D6 00125760 ?GetVIPPlayersCount@CServer@@QAEJXZ
       2264  8D7 0004C010 ?GetValue@CShell@@QAE?AVCTString@@ABV2@@Z
       2265  8D8 00141470 ?GetVelocity@CDynParticle@@QAE?AV?$Vector@M$02@@XZ
       2266  8D9 00004520 ?GetVertexCoordinatesAbsolute@CBrushPolygonEdge@@QAEXAAV?$Vector@M$02@@0@Z
       2267  8DA 00004680 ?GetVertexCoordinatesPreciseAbsolute@CBrushPolygonEdge@@QAEXAAV?$Vector@N$02@@0@Z
       2268  8DB 000045E0 ?GetVertexCoordinatesPreciseRelative@CBrushPolygonEdge@@QAEXAAV?$Vector@N$02@@0@Z
       2269  8DC 00004580 ?GetVertexCoordinatesRelative@CBrushPolygonEdge@@QAEXAAV?$Vector@M$02@@0@Z
       2270  8DD 001410D0 ?GetVertexE@CBladeTrail@@QAE?AV?$Vector@M$02@@J@Z
       2271  8DE 00141030 ?GetVertexNum@CBladeTrail@@QAEJXZ
       2272  8DF 001410A0 ?GetVertexS@CBladeTrail@@QAE?AV?$Vector@M$02@@J@Z
       2273  8E0 000044E0 ?GetVertices@CBrushPolygonEdge@@QAEXAAPAVCBrushVertex@@0@Z
       2274  8E1 00066100 ?GetVertices@CObjectPolygonEdge@@QAEXAAPAVCObjectVertex@@0@Z
       2275  8E2 000E9B00 ?GetVerticesFillType@CWorldRenderPrefs@@QAE?AW4FillType@1@XZ
       2276  8E3 000E9B20 ?GetVerticesInkColor@CWorldRenderPrefs@@QAEKXZ
       2277  8E4 001D9060 ?GetViewEntity@CPlayerEntity@@UAEPAVCMovableEntity@@XZ
       2278  8E5 00141B90 ?GetVisTweaks@CEntity@@UAEKXZ
       2279  8E6 001B5520 ?GetVote@AccountInfo_s@@QAE?AW4EVOTE@@XZ
       2280  8E7 00038C80 ?GetWidth@CDrawPort@@QBEJXZ
       2281  8E8 000BB220 ?GetWidth@CEditModel@@QAEJXZ
       2282  8E9 00002410 ?GetWidth@CFontData@@QBEJXZ
       2283  8EA 000C8990 ?GetWidth@CModelObject@@QAEJXZ
       2284  8EB 00003ED0 ?GetWidth@CTextureData@@QBEJXZ
       2285  8EC 000A6C40 ?GetWidth@CTextureObject@@QBEJXZ
       2286  8ED 001ABD20 ?GetWidthText@CFontTexture@@QAEXKAAVCTString@@0ABM@Z
       2287  8EE 00037000 ?GetWindowsError@@YA?BVCTString@@K@Z
       2288  8EF 00007A70 ?GetWins@CTeamInfo@@QAEJXZ
       2289  8F0 000066A0 ?GetWorld@CEntity@@QAEPAVCWorld@@XZ
       2290  8F1 00142E80 ?GetWorldPolygonIndex@CEntity@@QAEJPAVCBrushPolygon@@@Z
       2291  8F2 00144260 ?GetWorldPolygonPointer@CEntity@@QAEPAVCBrushPolygon@@J@Z
       2292  8F3 001CFD30 ?GiveImpulseTranslationAbsolute@CMovableEntity@@QAEXABV?$Vector@M$02@@@Z
       2293  8F4 001CFC80 ?GiveImpulseTranslationRelative@CMovableEntity@@QAEXABV?$Vector@M$02@@@Z
       2294  8F5 00077D80 ?GrabScreen@CDrawPort@@QBEXAAVCImageInfo@@J@Z
       2295  8F6 0003CDF0 ?GrowMemory@@YAXPAPAXJ@Z
       2296  8F7 001D6430 ?H0x00020002_WaitUntilScheduledAnimStarts_01@CMovableModelEntity@@QAEHABVCEntityEvent@@@Z
       2297  8F8 001D64C0 ?H0x00020003_WaitUntilScheduledAnimStarts_02@CMovableModelEntity@@QAEHABVCEntityEvent@@@Z
       2298  8F9 001D6530 ?H0x00020004_WaitUntilScheduledAnimStarts_03@CMovableModelEntity@@QAEHABVCEntityEvent@@@Z
       2299  8FA 00074F90 ?HSVToColor@@YAKEEE@Z
       2300  8FB 00127DB0 ?Handle@CServer@@QAEXJAAVCNetworkMessage@@@Z
       2301  8FC 00054670 ?HandleAccess@CTFileStream@@UAEXJH@Z
       2302  8FD 00053EB0 ?HandleAccess@CTMemoryStream@@UAEXJH@Z
       2303  8FE 00128C50 ?HandleAll@CServer@@QAEXXZ
       2304  8FF 00128A20 ?HandleAllForAClient@CServer@@QAEXJ@Z
       2305  900 00129500 ?HandleAllMessages@CSessionState@@QAEXXZ
       2306  901 0012A730 ?HandleAllMovableEntities@CSessionState@@QAEXXZ
       2307  902 001260D0 ?HandleClientDisconected@CServer@@QAEXJ@Z
       2308  903 001B2600 ?HandleCollision_CP@CPonytail@@QAEXJM@Z
       2309  904 00141EE0 ?HandleEvent@CEntity@@UAEHABVCEntityEvent@@@Z
       2310  905 001468C0 ?HandleEvent@CRationalEntity@@UAEHABVCEntityEvent@@@Z
       2311  906 0011DEF0 ?HandleMessage@CNet@@AAEXGGPADABUsockaddr_in@@HH@Z
       2312  907 0012DA40 ?HandleMessage@CSessionState@@QAEXHGKAAVCNetMessage@@KG@Z
       2313  908 0012A450 ?HandleMovers@CSessionState@@QAEXXZ
       2314  909 00123720 ?HandleMoving@CPlayerSource@@QAEXXZ
       2315  90A 0012D2A0 ?HandleMsgEvent@CSessionState@@QAEXW4EEntityClassType@@EEJPAEJ@Z
       2316  90B 00129A90 ?HandleReliableMessages@CSessionState@@QAEXVCNetworkMessage@@@Z
       2317  90C 00144ED0 ?HandleSentEvents@CEntity@@SAXXZ
       2318  90D 00057F70 ?HandleTimerHandlers@CTimer@@QAEXXZ
       2319  90E 0012A900 ?HandleTimers@CSessionState@@QAEXM@Z
       2320  90F 00129A80 ?HandleUnreliableMessages@CSessionState@@QAEXVCNetworkMessage@@@Z
       2321  910 0014DAA0 ?HandlerForStateAndEvent@CDLLEntityClass@@QAEP8CEntity@@AEHABVCEntityEvent@@@ZJJ@Z
       2322  911 00141ED0 ?HandlerForStateAndEvent@CEntity@@UAEP81@AEHABVCEntityEvent@@@ZJJ@Z
       2323  912 0014DEB0 ?HandlerForStateAndEvent@CEntityClass@@QAEP8CEntity@@AEHABVCEntityEvent@@@ZJJ@Z
       2324  913 0014DAF0 ?HandlerNameForState@CDLLEntityClass@@QAEPBDJ@Z
       2325  914 00001FE0 ?HasAPI@CGfxLibrary@@QAEHW4GfxAPIType@@@Z
       2326  915 00179980 ?HasAlpha@CModelInstance@@QAEHXZ
       2327  916 000C9110 ?HasAlpha@CModelObject@@QAEHXZ
       2328  917 00098AC0 ?HasCompression@CGfxLibrary@@QAEHXZ
       2329  918 0015E690 ?HasDynamicLayers@CBrushShadowMap@@UAEHXZ
       2330  919 000A4BC0 ?HasDynamicLayers@CShadowMap@@UAEHXZ
       2331  91A 00039940 ?HasJoystickPOV@CInputDevice@@QAEHXZ
       2332  91B 00002020 ?HasOcclusionCulling@CGfxLibrary@@QAEHXZ
       2333  91C 000344D0 ?HasPrefix@CTString@@QBEHABV1@@Z
       2334  91D 00179990 ?HasShadow@CModelInstance@@QAEHM@Z
       2335  91E 000C9200 ?HasShadow@CModelObject@@QAEHJ@Z
       2336  91F 00001430 ?Head@CListHead@@QBEAAVCListNode@@XZ
       2337  920 000C7D50 ?HiddenLines@CModelRenderPrefs@@QAEHXZ
       2338  921 000C91D0 ?HidePatch@CModelObject@@QAEXJ@Z
       2339  922 000DDDB0 ?HideSelectedEntities@CWorld@@QAEXAAV?$CSelection@VCEntity@@$00@@@Z
       2340  923 000DDEB0 ?HideSelectedSectors@CWorld@@QAEXAAV?$CSelection@VCBrushSector@@$00@@@Z
       2341  924 000DDE10 ?HideUnselectedEntities@CWorld@@QAEXXZ
       2342  925 000DDEF0 ?HideUnselectedSectors@CWorld@@QAEXXZ
       2343  926 00038870 ?IFeel_ChangeGain@@YAXM@Z
       2344  927 000386B0 ?IFeel_DeleteDevice@@YAXXZ
       2345  928 000382B0 ?IFeel_GetProductName@@YA?AVCTString@@XZ
       2346  929 00038320 ?IFeel_GetProjectFileName@@YA?AVCTString@@XZ
       2347  92A 000388B0 ?IFeel_InitDevice@@YAHAAPAUHINSTANCE__@@AAPAUHWND__@@@Z
       2348  92B 00038710 ?IFeel_LoadFile@@YAHVCTFileName@@@Z
       2349  92C 00038BD0 ?IFeel_PlayEffect@@YAXPAD@Z
       2350  92D 00038850 ?IFeel_StopEffect@@YAXPAD@Z
       2351  92E 00143180 ?IRnd@CEntity@@QAEKXZ
       2352  92F 001B5410 ?IdToIPandPort@FieldInfo@@QAEHGAAKAAG@Z
       2353  930 000510E0 ?IgnoreApplicationPath@@YAXXZ
       2354  931 00120610 ?IgnoreContents@CNetworkMessage@@QAEXXZ
       2355  932 000C7CE0 ?IncreaseShadowQuality@CModelRenderPrefs@@QAEXXZ
       2356  933 000CA140 ?IndicesToPtrs@CModelData@@QAEXXZ
       2357  934 0014A5D0 ?InflictBoxDamage@CEntity@@QAEXPAV1@W4DamageType@@MABV?$AABBox@M$02@@@Z
       2358  935 00143090 ?InflictDirectDamage@CEntity@@QAEXPAV1@0W4DamageType@@MABV?$Vector@M$02@@2@Z
       2359  936 0014A370 ?InflictRangeDamage@CEntity@@QAEXPAV1@W4DamageType@@MABV?$Vector@M$02@@MM@Z
       2360  937 00036DC0 ?InfoMessage@@YAXPBDZZ
       2361  938 001BFDF0 ?Init@CAOTime@@AAEXXZ
       2362  939 001B4B50 ?Init@CAOTimeOld@@QAEXXZ
       2363  93A 000F2CC0 ?Init@CCastRay@@QAEXPAVCEntity@@ABV?$Vector@M$02@@1@Z
       2364  93B 00112340 ?Init@CCommunicationInterface@@QAEXXZ
       2365  93C 00099C90 ?Init@CGfxLibrary@@QAEXXZ
       2366  93D 0011C040 ?Init@CMessageDispatcher@@QAEXABVCTString@@@Z
       2367  93E 0010D6D0 ?Init@CNetworkLibrary@@QAEXABVCTString@@@Z
       2368  93F 001C4150 ?Init@CQMSLog@@AAEXXZ
       2369  940 000B38D0 ?Init@CSoundLibrary@@QAEXXZ
       2370  941 000723A0 ?InitAPIs@CGfxLibrary@@AAEXXZ
       2371  942 001484F0 ?InitAsBrush@CEntity@@QAEXXZ
       2372  943 00143D10 ?InitAsEditorModel@CEntity@@QAEXXZ
       2373  944 001485A0 ?InitAsFieldBrush@CEntity@@QAEXXZ
       2374  945 00143BC0 ?InitAsModel@CEntity@@QAEXXZ
       2375  946 00143DF0 ?InitAsSkaEditorModel@CEntity@@QAEXXZ
       2376  947 00143CA0 ?InitAsSkaModel@CEntity@@QAEXXZ
       2377  948 00148320 ?InitAsTerrain@CEntity@@QAEXXZ
       2378  949 00141EF0 ?InitAsVoid@CEntity@@QAEXXZ
       2379  94A 0011C9D0 ?InitBlowfish@CNet@@QAEXXZ
       2380  94B 00141280 ?InitBoneMatrix@CCollisionCapsule@@QAEXAAY0M@M@Z
       2381  94C 001B36C0 ?InitBrokerNetLib@@YAEPAVIScavengerBrokerNet@@@Z
       2382  94D 0010FD20 ?InitCRCGather@CNetworkLibrary@@QAEXXZ
       2383  94E 000797E0 ?InitCloned@CDrawPort@@QAEXPAV1@NNNN@Z
       2384  94F 000E90A0 ?InitCollisionGrid@CWorld@@QAEXXZ
       2385  950 000867D0 ?InitContext_D3D@CGfxLibrary@@AAEXXZ
       2386  951 0008C430 ?InitContext_OGL@CGfxLibrary@@AAEXXZ
       2387  952 0003A340 ?InitDevice@CInputDevice@@QAEHW4DeviceType@@@Z
       2388  953 00086170 ?InitDisplay_D3D@CGfxLibrary@@AAEHJJJW4DisplayDepth@@@Z
       2389  954 00085AD0 ?InitDriver_D3D@CGfxLibrary@@AAEHXZ
       2390  955 0008C190 ?InitDriver_OGL@CGfxLibrary@@AAEHH@Z
       2391  956 0004ED00 ?InitExceptionHandler@@YAXXZ
       2392  957 001B5CB0 ?InitGame@FieldInfo@@QAEXXZ
       2393  958 0011CA30 ?InitNetwork@CNet@@QAEEXZ
       2394  959 00141170 ?InitPosition@CCollisionSphere@@QAEXV?$Vector@M$02@@@Z
       2395  95A 001B4CD0 ?InitRound@FieldInfo@@QAEXXZ
       2396  95B 00127AD0 ?InitServerNetProcess@CServer@@QAEXXZ
       2397  95C 00078F00 ?InitTexture@CDrawPort@@QBEXPAVCTextureObject@@HK@Z
       2398  95D 000584F0 ?InitTranslation@@YAXXZ
       2399  95E 001123C0 ?InitWinsock@CCommunicationInterface@@QAEXXZ
       2400  95F 000559A0 ?InitXfsFile@xfsMan@@QAEPAVxFileManager@File@Foundation@Xenesis2@@AAVCTFileName@@@Z
       2401  960 001BFF10 ?Initalize@CAOTime@@QAE_NK@Z
       2402  961 001C41A0 ?Initalize@CQMSLog@@QAE_NVCTString@@0@Z
       2403  962 001B0260 ?Initialize@CDynParticle@@QAEXMV?$Vector@M$02@@0@Z
       2404  963 001486D0 ?Initialize@CEntity@@QAEXABVCEntityEvent@@H@Z
       2405  964 0003BF80 ?Initialize@CInput@@QAEXXZ
       2406  965 001204F0 ?Initialize@CNetworkMessage@@QAEXABV1@@Z
       2407  966 00120540 ?Initialize@CNetworkMessage@@QAEXW4NetworkMessageType@@@Z
       2408  967 001204D0 ?Initialize@CNetworkMessage@@QAEXXZ
       2409  968 000A5320 ?Initialize@CShadowMap@@QAEXJJJJJ@Z
       2410  969 0004CA30 ?Initialize@CShell@@QAEXXZ
       2411  96A 001487C0 ?InitializeFromNet@CEntity@@UAEXXZ
       2412  96B 001D8CD0 ?InitializePlayer@CPlayerEntity@@QAEXJEH@Z
       2413  96C 0015EFA0 ?InitializeShadowMap@CBrushPolygon@@QAEXXZ
       2414  96D 00141C00 ?Initialize_internal@CEntity@@QAEXABVCEntityEvent@@@Z
       2415  96E 00129AE0 ?InputLocalClientCreatureNpcSlot@CSessionState@@QAEEG@Z
       2416  96F 002E595C ?InputQuantum@CTimer@@2MB
       2417  970 000CD520 ?InsertAlphaBlendingValue@CModelData@@QAEXIE_N@Z
       2418  971 00034B90 ?InsertChar@CTString@@QAEXJD@Z
       2419  972 00120BD0 ?InsertSubMessage@CNetworkMessage@@QAEXABV1@@Z
       2420  973 00034C50 ?InsertSubString@CTString@@QAEXJABV1@@Z
       2421  974 0015DA20 ?InsertVertexIntoTriangle@CBrushSector@@QAEXAAV?$CSelection@VCBrushPolygon@@$0BAA@@@V?$Vector@M$02@@@Z
       2422  975 001AE8B0 ?InterpolateBladeSpline@CBladeTrail@@QAEXXZ
       2423  976 000A4970 ?Invalidate@CShadowMap@@QAEXH@Z
       2424  977 0005B950 ?Invalidate@CUpdateable@@QAEXXZ
       2425  978 0005B990 ?Invalidate@CUpdateableRT@@QAEXXZ
       2426  979 0005D3A0 ?Inverse@CObject3D@@QAEXXZ
       2427  97A 001CC850 ?IsActionApplied@CMovableEntity@@UAEHXZ
       2428  97B 001B1820 ?IsActive@CParticle@@QAEHXZ
       2429  97C 00109B30 ?IsActive@CPlayerSource@@QAEHXZ
       2430  97D 00001E80 ?IsActive@CSoundLibrary@@QAEHXZ
       2431  97E 00010A30 ?IsAlive@CEntity@@QAEHXZ
       2432  97F 001B4DB0 ?IsAllPlayersAdded@FieldInfo@@QAEHXZ
       2433  980 001B5540 ?IsAlphaDataSet@AccountInfo_s@@QAEHE@Z
       2434  981 00030F30 ?IsAnimFinished@CAnimObject@@QBEHXZ
       2435  982 00142570 ?IsAnimationPlaying@CEntity@@QAEHJJ@Z
       2436  983 0017A900 ?IsAnimationPlaying@CModelInstance@@QAEHJ@Z
       2437  984 0017AA20 ?IsAnimationPlaying@CModelInstance@@QAEHVCTString@@@Z
       2438  985 001298F0 ?IsApplyReliableUDP@CSessionState@@QAEHKKGE@Z
       2439  986 0014D620 ?IsAutoFreed@CEntityClass@@UAEHXZ
       2440  987 000C7DC0 ?IsAutoFreed@CModelData@@UAEHXZ
       2441  988 000084C0 ?IsAutoFreed@CModelInstanceSerial@@UAEHXZ
       2442  989 00002290 ?IsAutoFreed@CSerial@@UAEHXZ
       2443  98A 000AF400 ?IsAutoFreed@CSoundData@@UAEHXZ
       2444  98B 000A6D10 ?IsAutoFreed@CTextureData@@UAEHXZ
       2445  98C 000E9A80 ?IsAutoMipBrushingOn@CWorldRenderPrefs@@QAEHXZ
       2446  98D 000C8030 ?IsAutoMipModeling@CModelObject@@QAEHXZ
       2447  98E 000E99C0 ?IsBackgroundTextureOn@CWorldRenderPrefs@@QAEHXZ
       2448  98F 00075140 ?IsBigger@@YAHKK@Z
       2449  990 000750E0 ?IsBlack@@YAHK@Z
       2450  991 000024C0 ?IsCharDefined@CFontData@@QBEHD@Z
       2451  992 000AA350 ?IsCompressed@CTextureData@@QAEHXZ
       2452  993 00001FB0 ?IsCurrentModeAccelerated@CGfxLibrary@@QAEHXZ
       2453  994 00001FC0 ?IsCurrentModeDH@CGfxLibrary@@QAEHXZ
       2454  995 00001FD0 ?IsCurrentModeTH@CGfxLibrary@@QAEHXZ
       2455  996 001CCBB0 ?IsCurrentOnBuff@CMovableEntity@@UAEHKPAVCEntity@@@Z
       2456  997 00010A40 ?IsDead@CEntity@@QAEHXZ
       2457  998 0010A810 ?IsDemoPlayFinished@CNetworkLibrary@@QAEHXZ
       2458  999 001417F0 ?IsDerivedFromClass@@YAHPAVCEntity@@PAVCDLLEntityClass@@@Z
       2459  99A 00141780 ?IsDerivedFromClass@@YAHPAVCEntity@@PBD@Z
       2460  99B 000987C0 ?IsDeviceLostResetFailTime@CGfxLibrary@@QAE_NXZ
       2461  99C 0010A940 ?IsDisconnected@CNetworkLibrary@@QAEHXZ
       2462  99D 001290C0 ?IsDisconnected@CSessionState@@QAEHXZ
       2463  99E 00076F10 ?IsDualHead@CDisplayMode@@QAEHXZ
       2464  99F 00077240 ?IsDualHead@CDrawPort@@QAEHXZ
       2465  9A0 000E9980 ?IsEditorModelsOn@CWorldRenderPrefs@@QAEHXZ
       2466  9A1 0003C9D0 ?IsEmpty@CListHead@@QBEHXZ
       2467  9A2 001434A0 ?IsEmptyBrush@CEntity@@QBEHXZ
       2468  9A3 001B54A0 ?IsEventRound@FieldInfo@@QAEHXZ
       2469  9A4 000E99A0 ?IsFieldBrushesOn@CWorldRenderPrefs@@QAEHXZ
       2470  9A5 00054140 ?IsFileReadOnly@@YAHABVCTFileName@@@Z
       2471  9A6 00004DB0 ?IsFirstMip@CBrushMip@@QAEHXZ
       2472  9A7 00002450 ?IsFixedWidth@CFontData@@QBEHXZ
       2473  9A8 00006620 ?IsFlagOff@CEntity@@QAEKK@Z
       2474  9A9 00006610 ?IsFlagOn@CEntity@@QAEKK@Z
       2475  9AA 000041B0 ?IsFlat@CShadowMap@@QAEHXZ
       2476  9AB 000E9A20 ?IsFogOn@CWorldRenderPrefs@@QAEHXZ
       2477  9AC 00076F70 ?IsFullScreen@CDisplayMode@@QAEHXZ
       2478  9AD 001B4DF0 ?IsGMObserver@FieldInfo@@QAEHE@Z
       2479  9AE 0010AA60 ?IsGameFinished@CNetworkLibrary@@QAEHXZ
       2480  9AF 001B4E10 ?IsGamePlaying@FieldInfo@@QAEHXZ
       2481  9B0 00075530 ?IsGray@@YAHK@Z
       2482  9B1 000084B0 ?IsHaveCollisionBox@CModelInstance@@QAEHXZ
       2483  9B2 000E9A40 ?IsHazeOn@CWorldRenderPrefs@@QAEHXZ
       2484  9B3 00001410 ?IsHead@CListNode@@QBEHXZ
       2485  9B4 000013F0 ?IsHeadMarker@CListNode@@QBEHXZ
       2486  9B5 000E9920 ?IsHiddenLinesOn@CWorldRenderPrefs@@QAEHXZ
       2487  9B6 00045EB0 ?IsHooked@CSoundObject@@QBEHXZ
       2488  9B7 001418C0 ?IsImportant@CEntity@@UBEHXZ
       2489  9B8 000086C0 ?IsInitalize@CAOTime@@QAE_NXZ
       2490  9B9 000017C0 ?IsInputEnabled@CInput@@QBEHXZ
       2491  9BA 001AF090 ?IsInside@CCollisionCapsule@@QAEHV?$Vector@M$02@@@Z
       2492  9BB 001AEE50 ?IsInside@CCollisionSphere@@QAEHV?$Vector@M$02@@@Z
       2493  9BC 000691F0 ?IsIntersecting@CIntersector@@QAEHXZ
       2494  9BD 00003C30 ?IsIsometric@CAnyProjection3D@@QAEHXZ
       2495  9BE 0003CA80 ?IsLinked@CListNode@@QBEHXZ
       2496  9BF 00010A00 ?IsLocalEntity@CEntity@@QAEHXZ
       2497  9C0 000576B0 ?IsLocked@CTSingleLock@@QAEHXZ
       2498  9C1 00006730 ?IsMapItem@CEntity@@UAEHXZ
       2499  9C2 001418B0 ?IsMarker@CEntity@@UBEHXZ
       2500  9C3 00007C00 ?IsMasterSlot@FieldInfo@@QAEHE@Z
       2501  9C4 00007BE0 ?IsMasterSlot@FieldInfo@@QAEHXZ
       2502  9C5 000E9A60 ?IsMirrorsOn@CWorldRenderPrefs@@QAEHXZ
       2503  9C6 00179D90 ?IsModelVisible@CModelInstance@@QAEHM@Z
       2504  9C7 000CA8E0 ?IsModelVisible@CModelObject@@QAEHM@Z
       2505  9C8 00003F90 ?IsModified@CTextureData@@QAEHXZ
       2506  9C9 001124A0 ?IsNetworkEnabled@CCommunicationInterface@@QAEHXZ
       2507  9CA 0010A900 ?IsNetworkEnabled@CNetworkLibrary@@QAEHXZ
       2508  9CB 00006710 ?IsNpc@CEntity@@UAEHXZ
       2509  9CC 0006A850 ?IsObjectPlaneVisible@CIsometricProjection3D@@UBEHABV?$Plane@M$02@@@Z
       2510  9CD 0006C6B0 ?IsObjectPlaneVisible@CParallelProjection3D@@UBEHABV?$Plane@M$02@@@Z
       2511  9CE 0006E620 ?IsObjectPlaneVisible@CPerspectiveProjection3D@@UBEHABV?$Plane@M$02@@@Z
       2512  9CF 0006E960 ?IsObjectPlaneVisible@CSimpleProjection3D@@UBEHABV?$Plane@M$02@@@Z
       2513  9D0 000081C0 ?IsOfClass@@YAHPAVCEntity@@PAVCDLLEntityClass@@@Z
       2514  9D1 001416E0 ?IsOfClass@@YAHPAVCEntity@@PBD@Z
       2515  9D2 00141750 ?IsOfSameClass@@YAHPAVCEntity@@0@Z
       2516  9D3 00038C70 ?IsOverlappedRendering@CDrawPort@@QBEHXZ
       2517  9D4 00003C70 ?IsParallel@CAnyProjection3D@@QAEHXZ
       2518  9D5 0017A4E0 ?IsPauseAnimation@CModelInstance@@QAEHJ@Z
       2519  9D6 00030D40 ?IsPaused@CAnimObject@@QAEHXZ
       2520  9D7 0010A920 ?IsPaused@CNetworkLibrary@@QAEHXZ
       2521  9D8 00129330 ?IsPaused@CSessionState@@QAEHXZ
       2522  9D9 00045EA0 ?IsPaused@CSoundObject@@QBEHXZ
       2523  9DA 00003C50 ?IsPerspective@CAnyProjection3D@@QAEHXZ
       2524  9DB 00003660 ?IsPerspective@CPerspectiveProjection3D@@UAEHXZ
       2525  9DC 000030B0 ?IsPerspective@CProjection3D@@UAEHXZ
       2526  9DD 00006700 ?IsPlayer@CEntity@@UAEHXZ
       2527  9DE 001D8D50 ?IsPlayer@CPlayerEntity@@UAEHXZ
       2528  9DF 0010FD00 ?IsPlayerLocal@CNetworkLibrary@@QAEHPAVCEntity@@@Z
       2529  9E0 00045E90 ?IsPlaying@CSoundObject@@QBEHXZ
       2530  9E1 0010A830 ?IsPlayingDemo@CNetworkLibrary@@QAEHXZ
       2531  9E2 00078080 ?IsPointVisible@CDrawPort@@QBEHJJMJJ@Z
       2532  9E3 001CF070 ?IsPolygonBelowPoint@CMovableEntity@@QAEHPAVCBrushPolygon@@ABV?$Vector@M$02@@M@Z
       2533  9E4 00141820 ?IsPrevAttacker@CEntity@@QAEHPAV1@@Z
       2534  9E5 00006720 ?IsQuestSwitch@CEntity@@UAEHXZ
       2535  9E6 00159B70 ?IsReTripleAvailable@CBrushSector@@QAEHAAV?$CSelection@VCBrushPolygon@@$0BAA@@@@Z
       2536  9E7 00002DE0 ?IsReadable@CTFileStream@@UAEHXZ
       2537  9E8 00051570 ?IsReadable@CTMemoryStream@@UAEHXZ
       2538  9E9 001CC880 ?IsReapplyingActions@CMovableEntity@@UAEHXZ
       2539  9EA 0010A8F0 ?IsRecordingDemo@CNetworkLibrary@@QAEHXZ
       2540  9EB 00007AC0 ?IsRedTeam@FieldInfo@@QAEHE@Z
       2541  9EC 001298B0 ?IsRightSequence@CSessionState@@QAEHEK@Z
       2542  9ED 00007B00 ?IsRoundState@FieldInfo@@QAEHW4ERoundState@@@Z
       2543  9EE 00002DF0 ?IsSeekable@CTFileStream@@UAEHXZ
       2544  9EF 000515B0 ?IsSeekable@CTMemoryStream@@UAEHXZ
       2545  9F0 00004A80 ?IsSelected@CBrushPolygon@@QBEHK@Z
       2546  9F1 00004AE0 ?IsSelected@CBrushSector@@QBEHK@Z
       2547  9F2 000043E0 ?IsSelected@CBrushVertex@@QBEHK@Z
       2548  9F3 000065C0 ?IsSelected@CEntity@@QBEHK@Z
       2549  9F4 001418A0 ?IsSentOverNet@CEntity@@UBEHXZ
       2550  9F5 001CCBD0 ?IsSerVantCreature@CMovableEntity@@UAEHGGJEE@Z
       2551  9F6 00007030 ?IsServer@CNetworkLibrary@@QAEHXZ
       2552  9F7 0015EB60 ?IsShadowFlat@CBrushShadowMap@@UAEHAAK@Z
       2553  9F8 000041A0 ?IsShadowFlat@CShadowMap@@UAEHAAK@Z
       2554  9F9 000E9960 ?IsShowEntityNamesOn@CWorldRenderPrefs@@QAEHXZ
       2555  9FA 000E9940 ?IsShowTargetsOn@CWorldRenderPrefs@@QAEHXZ
       2556  9FB 00003C20 ?IsSimple@CAnyProjection3D@@QAEHXZ
       2557  9FC 001CCA70 ?IsSomeNearPolygonBelowPoint@CMovableEntity@@QAEHABV?$Vector@M$02@@M@Z
       2558  9FD 001CF2A0 ?IsSomeSectorPolygonBelowPoint@CMovableEntity@@QAEHPAVCBrushSector@@ABV?$Vector@M$02@@M@Z
       2559  9FE 001CEE90 ?IsStandingOnPolygon@CMovableEntity@@QAEHPAVCBrushPolygon@@@Z
       2560  9FF 00001420 ?IsTail@CListNode@@QBEHXZ
       2561  A00 00001400 ?IsTailMarker@CListNode@@QBEHXZ
       2562  A01 00141900 ?IsTargetValid@CEntity@@UAEHJPAV1@@Z
       2563  A02 00141890 ?IsTargetable@CEntity@@UBEHXZ
       2564  A03 000E9AC0 ?IsTextureLayerOn@CWorldRenderPrefs@@QAEHJ@Z
       2565  A04 00076F30 ?IsTripleHead@CDisplayMode@@QAEHXZ
       2566  A05 00077260 ?IsTripleHead@CDrawPort@@QAEHXZ
       2567  A06 001B4EE0 ?IsTunnelingSlot@FieldInfo@@QAEHE@Z
       2568  A07 00030D50 ?IsUpToDate@CAnimObject@@QBEHABVCUpdateable@@@Z
       2569  A08 00032B20 ?IsUpToDate@CChangeable@@QBEHABVCUpdateable@@@Z
       2570  A09 00032B70 ?IsUpToDate@CChangeableRT@@QBEHABVCUpdateableRT@@@Z
       2571  A0A 0004A8A0 ?IsUsed@CSerial@@QAEHXZ
       2572  A0B 00141600 ?IsValid@CEntityID@@QAEHXZ
       2573  A0C 0003C9C0 ?IsValid@CListHead@@QBEHXZ
       2574  A0D 0003CA60 ?IsValid@CListNode@@QBEHXZ
       2575  A0E 0005BAB0 ?IsValidDouble@@YAHN@Z
       2576  A0F 0005BA80 ?IsValidFloat@@YAHM@Z
       2577  A10 00129860 ?IsValidUDP_ForPlayer@CSessionState@@QAEHEKG@Z
       2578  A11 001CC9F0 ?IsVictory@CMovableEntity@@QAEHW4EVictory@@@Z
       2579  A12 000697C0 ?IsViewerPlaneVisible@CIsometricProjection3D@@UBEHABV?$Plane@M$02@@@Z
       2580  A13 0006B890 ?IsViewerPlaneVisible@CParallelProjection3D@@UBEHABV?$Plane@M$02@@@Z
       2581  A14 0006CE00 ?IsViewerPlaneVisible@CPerspectiveProjection3D@@UBEHABV?$Plane@M$02@@@Z
       2582  A15 0006EA70 ?IsViewerPlaneVisible@CSimpleProjection3D@@UBEHABV?$Plane@M$02@@@Z
       2583  A16 000E9A00 ?IsVisTweaksDisabled@CWorldRenderPrefs@@QAEHXZ
       2584  A17 000E99E0 ?IsVisTweaksOn@CWorldRenderPrefs@@QAEHXZ
       2585  A18 0010AAA0 ?IsWaitingForPlayers@CNetworkLibrary@@QAEHXZ
       2586  A19 0010AAF0 ?IsWaitingForServer@CNetworkLibrary@@QAEHXZ
       2587  A1A 00075110 ?IsWhite@@YAHK@Z
       2588  A1B 00076F50 ?IsWideScreen@CDisplayMode@@QAEHXZ
       2589  A1C 00077280 ?IsWideScreen@CDrawPort@@QAEHXZ
       2590  A1D 00002DD0 ?IsWriteable@CTFileStream@@UAEHXZ
       2591  A1E 00051590 ?IsWriteable@CTMemoryStream@@UAEHXZ
       2592  A1F 001B55D0 ?ItemTypeToGachaShopItemClass@@YA?AW4EShopItemClass@@ABW4EItemType@@@Z
       2593  A20 001B56C0 ?ItemTypeToShopItemClass@@YA?AW4EShopItemClass@@ABW4EItemType@@@Z
       2594  A21 00001450 ?IterationHead@CListHead@@QBEAAVCListNode@@XZ
       2595  A22 000013A0 ?IterationInsertAfter@CListNode@@QAEXAAV1@@Z
       2596  A23 000013D0 ?IterationInsertBefore@CListNode@@QAEXAAV1@@Z
       2597  A24 00001390 ?IterationPred@CListNode@@QBEAAV1@XZ
       2598  A25 00001380 ?IterationSucc@CListNode@@QBEAAV1@XZ
       2599  A26 00001460 ?IterationTail@CListHead@@QBEAAVCListNode@@XZ
       2600  A27 000EC390 ?JoinAllPossiblePolygons@CWorld@@QAEXAAV?$CSelection@VCBrushPolygon@@$0BAA@@@HJ@Z
       2601  A28 00064530 ?JoinContinuingEdges@CObjectPolygon@@QAEXAAV?$CDynamicArray@VCObjectEdge@@@@@Z
       2602  A29 000EC170 ?JoinPolygons@CWorld@@QAEXAAV?$CSelection@VCBrushPolygon@@$0BAA@@@@Z
       2603  A2A 000EBDF0 ?JoinSectors@CWorld@@QAEXAAV?$CSelection@VCBrushSector@@$00@@@Z
       2604  A2B 00111410 ?JoinSession_t@CNetworkLibrary@@QAEXABVCNetworkSession@@JVCTFileName@@@Z
       2605  A2C 000EBBF0 ?JoinTwoSectors@CWorld@@QAEPAVCBrushSector@@AAV2@0@Z
       2606  A2D 00006520 ?Jump@CEntity@@QAEXJJHABVCEntityEvent@@@Z
       2607  A2E 00146780 ?Jump@CRationalEntity@@QAEXJJHABVCEntityEvent@@@Z
       2608  A2F 00030CC0 ?LastFrame@CAnimObject@@QAEXXZ
       2609  A30 0005B940 ?LastUpdateTime@CUpdateable@@QBEMXZ
       2610  A31 0005B980 ?LastUpdateTime@CUpdateableRT@@QBEMXZ
       2611  A32 001CFE00 ?LaunchAsFreeProjectile@CMovableEntity@@QAEXABV?$Vector@M$02@@PAV1@@Z
       2612  A33 001CFD60 ?LaunchAsPropelledProjectile@CMovableEntity@@QAEXABV?$Vector@M$02@@PAV1@@Z
       2613  A34 00001180 ?Length@CTString@@QBEJXZ
       2614  A35 00035CD0 ?Length@CTWString@@QBEJXZ
       2615  A36 00035BF0 ?LengthNaked@CTString@@QBEJXZ
       2616  A37 00068570 ?Lerp@CPlacement3D@@QAEXABV1@0M@Z
       2617  A38 00121210 ?Lerp@CPlayerAction@@QAEXABV1@0M@Z
       2618  A39 00075AB0 ?LerpColor@@YAKKKM@Z
       2619  A3A 00075960 ?LerpColor@@YAXKKMAAE00@Z
       2620  A3B 000CC430 ?LinkDataForSurfaces@CModelData@@QAEXH@Z
       2621  A3C 000DE190 ?LinkEntitiesToSectors@CWorld@@QAEXXZ
       2622  A3D 00153F30 ?LinkPortalsAndSectors@CBrushArchive@@QAEXXZ
       2623  A3E 000B1630 ?Listen@CSoundLibrary@@QAEXAAVCSoundListener@@@Z
       2624  A3F 00062000 ?LoadAny3DFormat_t@CObject3D@@QAEXABVCTFileName@@ABV?$Matrix@M$02$02@@W4LoadType@1@@Z
       2625  A40 0009FD80 ?LoadAnyGfxFormat_t@CImageInfo@@QAEXABVCTFileName@@@Z
       2626  A41 000F05A0 ?LoadBrushes_t@CWorld@@QAEXABVCTFileName@@@Z
       2627  A42 00031920 ?LoadFromScript_t@CAnimData@@QAEXPAVCTStream@@PAVCListHead@@@Z
       2628  A43 000C2C90 ?LoadFromScript_t@CEditModel@@QAEXAAVCTFileName@@@Z
       2629  A44 00035740 ?LoadIntVar@@YAXABVCTFileName@@AAJ@Z
       2630  A45 00034980 ?LoadKeepCRLF_t@CTString@@QAEXABVCTFileName@@@Z
       2631  A46 000C2650 ?LoadMapping_t@CEditModel@@QAEXVCTFileName@@J@Z
       2632  A47 000C0330 ?LoadModelAnimationData_t@CEditModel@@AAEXPAVCTStream@@ABV?$Matrix@M$02$02@@@Z
       2633  A48 0009F410 ?LoadPCX_t@CImageInfo@@AAEXABVCTFileName@@@Z
       2634  A49 00035720 ?LoadStringVar@@YAXABVCTFileName@@AAVCTString@@@Z
       2635  A4A 0009F800 ?LoadTGA_t@CImageInfo@@AAEXABVCTFileName@@@Z
       2636  A4B 00035660 ?LoadVar@CTString@@QAEXABVCTFileName@@@Z
       2637  A4C 000AF4E0 ?LoadWAV_t@CSoundData@@QAEXPAVCTStream@@J@Z
       2638  A4D 000BF4D0 ?Load_t@CEditModel@@QAEXVCTFileName@@@Z
       2639  A4E 00110350 ?Load_t@CNetworkLibrary@@QAEXABVCTFileName@@@Z
       2640  A4F 00152650 ?Load_t@CPlayerCharacter@@QAEXABVCTFileName@@@Z
       2641  A50 0004A5F0 ?Load_t@CSerial@@QAEXVCTFileName@@@Z
       2642  A51 00034900 ?Load_t@CTString@@QAEXABVCTFileName@@@Z
       2643  A52 000F24E0 ?Load_t@CWorld@@QAEXABVCTFileName@@@Z
       2644  A53 00038D40 ?Lock@CDrawPort@@QAEHXZ
       2645  A54 00057600 ?Lock@CTSingleLock@@QAEXXZ
       2646  A55 00159AA0 ?LockAll@CBrushSector@@QAEXXZ
       2647  A56 000DD6E0 ?LockAll@CWorld@@QAEXXZ
       2648  A57 00053E30 ?LockBuffer@CTMemoryStream@@QAEXPAPAXPAJ@Z
       2649  A58 00098840 ?LockDrawPort@CGfxLibrary@@QAEHPAVCDrawPort@@@Z
       2650  A59 00098A00 ?LockRaster@CGfxLibrary@@QAEHPAVCRaster@@@Z
       2651  A5A 001717F0 ?LockVertexBuffer@MeshLOD@@QAEPAUGFXVertex@@AAJ@Z
       2652  A5B 000775F0 ?Lock_internal@CDrawPort@@QAEHXZ
       2653  A5C 002E140C ?MAX_ERROR_MSG_SIZE@TestLog@@0HB
       2654  A5D 001BE710 ?MD5Final@CMD5@@IAEXPAEPAUMD5_CTX@1@@Z
       2655  A5E 001BDEF0 ?MD5Init@CMD5@@IAEXPAUMD5_CTX@1@@Z
       2656  A5F 001BE660 ?MD5Update@CMD5@@IAEXPAUMD5_CTX@1@PAEI@Z
       2657  A60 0003CD40 ?MEM_CAlloc@@YAPAXII@Z
       2658  A61 0003CCF0 ?MEM_Free@@YAXPAX@Z
       2659  A62 0003CD80 ?MEM_GetFreeMemory@@YAIXZ
       2660  A63 0003CCA0 ?MEM_MAlloc@@YAPAXI@Z
       2661  A64 0003CD00 ?MEM_ReAlloc@@YAPAXPAXI@Z
       2662  A65 0003CD70 ?MEM_Size@@YAIPAX@Z
       2663  A66 00111360 ?MainLoop@CNetworkLibrary@@QAEXXZ
       2664  A67 00144900 ?MakeBoxAtPlacement@CCollisionInfo@@QAEXABV?$Vector@M$02@@ABV?$Matrix@M$02$02@@AAV?$AABBox@M$02@@@Z
       2665  A68 000109D0 ?MakeCopy@CEntityEvent@@UAEPAV1@XZ
       2666  A69 001CB5B0 ?MakeCopy@EBegin@@UAEPAVCEntityEvent@@XZ
       2667  A6A 001CBF70 ?MakeCopy@EBlock@@UAEPAVCEntityEvent@@XZ
       2668  A6B 001CB9A0 ?MakeCopy@EBouncedWall@@UAEPAVCEntityEvent@@XZ
       2669  A6C 001CB940 ?MakeCopy@EBuildModelBrushCollision@@UAEPAVCEntityEvent@@XZ
       2670  A6D 001CC030 ?MakeCopy@EDamage@@UAEPAVCEntityEvent@@XZ
       2671  A6E 001CBB90 ?MakeCopy@EDamageType@@UAEPAVCEntityEvent@@XZ
       2672  A6F 001CC110 ?MakeCopy@EDeath@@UAEPAVCEntityEvent@@XZ
       2673  A70 001CB870 ?MakeCopy@EFirstWorldBase@@UAEPAVCEntityEvent@@XZ
       2674  A71 001CB490 ?MakeCopy@EInternal@@UAEPAVCEntityEvent@@XZ
       2675  A72 001CBAD0 ?MakeCopy@ELocalEntity@@UAEPAVCEntityEvent@@XZ
       2676  A73 001CBF30 ?MakeCopy@EPass@@UAEPAVCEntityEvent@@XZ
       2677  A74 001CBA50 ?MakeCopy@EPlayerInit@@UAEPAVCEntityEvent@@XZ
       2678  A75 001CB800 ?MakeCopy@EPostLevelChange@@UAEPAVCEntityEvent@@XZ
       2679  A76 001CB790 ?MakeCopy@EPreLevelChange@@UAEPAVCEntityEvent@@XZ
       2680  A77 001CBB30 ?MakeCopy@ERemoteEntity@@UAEPAVCEntityEvent@@XZ
       2681  A78 001CB550 ?MakeCopy@EReturn@@UAEPAVCEntityEvent@@XZ
       2682  A79 001CB8D0 ?MakeCopy@ETakingBreath@@UAEPAVCEntityEvent@@XZ
       2683  A7A 001CB730 ?MakeCopy@ETeleport@@UAEPAVCEntityEvent@@XZ
       2684  A7B 001CB610 ?MakeCopy@ETimer@@UAEPAVCEntityEvent@@XZ
       2685  A7C 001CBED0 ?MakeCopy@ETouch@@UAEPAVCEntityEvent@@XZ
       2686  A7D 001CB4F0 ?MakeCopy@EVoid@@UAEPAVCEntityEvent@@XZ
       2687  A7E 001CB6D0 ?MakeCopy@EWouldFall@@UAEPAVCEntityEvent@@XZ
       2688  A7F 00036700 ?MakeDirList@@YAXAAV?$CDynamicStackArray@VCTFileName@@@@ABVCTFileName@@ABVCTString@@K@Z
       2689  A80 001530D0 ?MakeIndices@CBrushArchive@@QAEXXZ
       2690  A81 0005C200 ?MakeInverseRotationMatrix@@YAXAAV?$Matrix@M$02$02@@ABV?$Vector@M$02@@@Z
       2691  A82 0005C2E0 ?MakeInverseRotationMatrixFast@@YAXAAV?$Matrix@M$02$02@@ABV?$Vector@M$02@@@Z
       2692  A83 00070DB0 ?MakeMappingVectors@CMappingDefinition@@QBEXABVCMappingVectors@@AAV2@@Z
       2693  A84 0009EF60 ?MakeMipmaps@@YAXPAKJJJ@Z
       2694  A85 000693E0 ?MakeOoKGradient@CIsometricProjection3D@@UBEXABV?$Plane@M$02@@AAVCPlanarGradients@@@Z
       2695  A86 0006B7F0 ?MakeOoKGradient@CParallelProjection3D@@UBEXABV?$Plane@M$02@@AAVCPlanarGradients@@@Z
       2696  A87 0006CD50 ?MakeOoKGradient@CPerspectiveProjection3D@@UBEXABV?$Plane@M$02@@AAVCPlanarGradients@@@Z
       2697  A88 0006E930 ?MakeOoKGradient@CSimpleProjection3D@@UBEXABV?$Plane@M$02@@AAVCPlanarGradients@@@Z
       2698  A89 00159E70 ?MakePlanesFromVertices@CBrushSector@@QAEXXZ
       2699  A8A 0005C000 ?MakeRotationMatrix@@YAXAAV?$Matrix@M$02$02@@ABV?$Vector@M$02@@@Z
       2700  A8B 0005C0E0 ?MakeRotationMatrixFast@@YAXAAV?$Matrix@M$02$02@@ABV?$Vector@M$02@@@Z
       2701  A8C 00163480 ?MakeShadowMap@CBrushPolygon@@QAEXPAVCWorld@@H@Z
       2702  A8D 0009D960 ?MakeSubMipmap@@YAXPAK0J@Z
       2703  A8E 00079A00 ?MakeWideScreen@CDrawPort@@QAEXPAV1@@Z
       2704  A8F 001A6C30 ?Make_t@CFontData@@QAEXABVCTFileName@@JJAAV2@H@Z
       2705  A90 00032B10 ?MarkChanged@CChangeable@@QAEXXZ
       2706  A91 00032B60 ?MarkChanged@CChangeableRT@@QAEXXZ
       2707  A92 000A4990 ?MarkDrawn@CShadowMap@@QAEXXZ
       2708  A93 00003F30 ?MarkDrawn@CTextureData@@QAEXXZ
       2709  A94 0004A890 ?MarkUnused@CSerial@@QAEXXZ
       2710  A95 0005B930 ?MarkUpdated@CUpdateable@@QAEXXZ
       2711  A96 0005B970 ?MarkUpdated@CUpdateableRT@@QAEXXZ
       2712  A97 0004A880 ?MarkUsed@CSerial@@QAEXXZ
       2713  A98 00124E60 ?MaskOfPlayersOnClient@CServer@@QAEKJ@Z
       2714  A99 00035640 ?Matches@CTString@@QBEHABV1@@Z
       2715  A9A 00034D40 ?Matches@CTString@@QBEHPBD@Z
       2716  A9B 001B1260 ?Matrix12ToPlacement3D@@YAXAAY0M@$$CBMAAVCPlacement3D@@@Z
       2717  A9C 0018BE20 ?Matrix12ToQVect@@YAXAAUQVect@@AAY0M@$$CBM@Z
       2718  A9D 00069440 ?MipFactor@CIsometricProjection3D@@UBEMM@Z
       2719  A9E 00069470 ?MipFactor@CIsometricProjection3D@@UBEMXZ
       2720  A9F 0006B8E0 ?MipFactor@CParallelProjection3D@@UBEMM@Z
       2721  AA0 0006B910 ?MipFactor@CParallelProjection3D@@UBEMXZ
       2722  AA1 0006C9A0 ?MipFactor@CPerspectiveProjection3D@@UBEMM@Z
       2723  AA2 0006CE30 ?MipFactor@CPerspectiveProjection3D@@UBEMXZ
       2724  AA3 0006E970 ?MipFactor@CSimpleProjection3D@@UBEMM@Z
       2725  AA4 0006E980 ?MipFactor@CSimpleProjection3D@@UBEMXZ
       2726  AA5 00141B70 ?MirrorAndStretch@CEntity@@UAEXMH@Z
       2727  AA6 00150400 ?MirrorAndStretch@CWorld@@QAEXAAV1@MW4WorldMirrorType@@@Z
       2728  AA7 00003AB0 ?MirrorPlaneL@CProjection3D@@QAEAAV?$Plane@M$02@@XZ
       2729  AA8 00003AC0 ?MirrorPlaneR@CProjection3D@@QBEABV?$Plane@M$02@@XZ
       2730  AA9 001CCA10 ?MiscDamageInflictor@CMovableEntity@@QAEPAVCEntity@@XZ
       2731  AAA 00164E30 ?MixLayers@CBrushShadowMap@@UAEXJJH@Z
       2732  AAB 000A4B40 ?MixLayers@CShadowMap@@UAEXJJH@Z
       2733  AAC 000B2390 ?MixSounds@CSoundLibrary@@AAEXXZ
       2734  AAD 0014A0A0 ?ModelChangeNotify@CEntity@@QAEXXZ
       2735  AAE 00170700 ?MoveAnimation@CAnimSet@@QAEXPAUAnimation@@0@Z
       2736  AAF 000E8D30 ?MoveEntityInCollisionGrid@CWorld@@QAEXPAVCEntity@@ABV?$AABBox@M$02@@1@Z
       2737  AB0 0003CA20 ?MoveList@CListHead@@QAEXAAV1@@Z
       2738  AB1 000C2380 ?MovePatchRelative@CEditModel@@QAEXJV?$Vector@J$01@@@Z
       2739  AB2 00158050 ?MovePolygonEdges@CBrushPolygon@@QAEXAAV1@@Z
       2740  AB3 000EB540 ?MoveTargetBrushPartToObject@CWorld@@QAEXAAVCEntity@@AAV?$AABBox@N$02@@AAVCObject3D@@@Z
       2741  AB4 001418D0 ?MovesByTargetedRoute@CEntity@@UBEHAAVCTString@@@Z
       2742  AB5 000751A0 ?MulColors@@YAKKK@Z
       2743  AB6 000B1DC0 ?Mute@CSoundLibrary@@QAEXM@Z
       2744  AB7 0014D630 ?NameForValue@CEntityPropertyEnumType@@QAEPBDJ@Z
       2745  AB8 000039F0 ?NearClipDistanceL@CProjection3D@@QAEAAMXZ
       2746  AB9 00003A00 ?NearClipDistanceR@CProjection3D@@QBEABMXZ
       2747  ABA 0014D3B0 ?New@CEntityClass@@QAEPAVCEntity@@XZ
       2748  ABB 00152770 ?NewBrushMipAfter@CBrush3D@@QAEPAVCBrushMip@@PAV2@H@Z
       2749  ABC 00152810 ?NewBrushMipBefore@CBrush3D@@QAEPAVCBrushMip@@PAV2@H@Z
       2750  ABD 00142460 ?NewClearState@CEntity@@QAEXMJ@Z
       2751  ABE 0017C200 ?NewClearState@CModelInstance@@QAEXM@Z
       2752  ABF 00142350 ?NewClonedState@CEntity@@QAEXMJ@Z
       2753  AC0 0017C540 ?NewClonedState@CModelInstance@@QAEXM@Z
       2754  AC1 000BFBF0 ?NewModel@CEditModel@@AAEXPAVCObject3D@@@Z
       2755  AC2 00030C30 ?NextAnim@CAnimObject@@QAEXXZ
       2756  AC3 00030D00 ?NextFrame@CAnimObject@@QAEXXZ
       2757  AC4 000C8B90 ?NextManualMipLevel@CModelObject@@QAEXXZ
       2758  AC5 00037260 ?NoExt@CTFileName@@QBE?AV1@XZ
       2759  AC6 00120A90 ?Normalize@CPlayerAction@@QAEXXZ
       2760  AC7 0014A0E0 ?NotifyCollisionChanged@CEntity@@QAEXXZ
       2761  AC8 00145DD0 ?NotifyGravityChanged@CEntity@@QAEXXZ
       2762  AC9 00003B20 ?ObjectFaceForwardL@CProjection3D@@QAEAAHXZ
       2763  ACA 00003B30 ?ObjectFaceForwardR@CProjection3D@@QBEABHXZ
       2764  ACB 00003B40 ?ObjectHalfFaceForwardL@CProjection3D@@QAEAAHXZ
       2765  ACC 00003B50 ?ObjectHalfFaceForwardR@CProjection3D@@QBEABHXZ
       2766  ACD 000039B0 ?ObjectHandleL@CProjection3D@@QAEAAV?$Vector@M$02@@XZ
       2767  ACE 000039C0 ?ObjectHandleR@CProjection3D@@QBEABV?$Vector@M$02@@XZ
       2768  ACF 00003990 ?ObjectPlacementL@CProjection3D@@QAEAAVCPlacement3D@@XZ
       2769  AD0 0005CF00 ?ObjectPlacementL@CSimpleProjection3D_DOUBLE@@QAEAAVCPlacement3D@@XZ
       2770  AD1 000039A0 ?ObjectPlacementR@CProjection3D@@QBEABVCPlacement3D@@XZ
       2771  AD2 0005CF10 ?ObjectPlacementR@CSimpleProjection3D_DOUBLE@@QBEABVCPlacement3D@@XZ
       2772  AD3 00003A70 ?ObjectStretchL@CProjection3D@@QAEAAV?$Vector@M$02@@XZ
       2773  AD4 0005CF20 ?ObjectStretchL@CSimpleProjection3D_DOUBLE@@QAEAAV?$Vector@M$02@@XZ
       2774  AD5 00003A80 ?ObjectStretchR@CProjection3D@@QBEABV?$Vector@M$02@@XZ
       2775  AD6 0005CF30 ?ObjectStretchR@CSimpleProjection3D_DOUBLE@@QBEABV?$Vector@M$02@@XZ
       2776  AD7 0014D3E0 ?ObtainComponents_t@CEntityClass@@QAEXXZ
       2777  AD8 0017D030 ?ObtainModelInstance_t@@YAPAVCModelInstance@@ABVCTString@@@Z
       2778  AD9 0017CFA0 ?ObtainModelInstance_t@@YAXAAVCModelInstance@@ABVCTString@@@Z
       2779  ADA 00150BF0 ?ObtainWithCheck@CEntityComponent@@QAEXXZ
       2780  ADB 00150A80 ?Obtain_t@CEntityComponent@@QAEXXZ
       2781  ADC 000FC060 ?Obtain_t@CStock_CAnimData@@QAEPAVCAnimData@@ABVCTFileName@@@Z
       2782  ADD 000FD500 ?Obtain_t@CStock_CAnimSet@@QAEPAVCAnimSet@@ABVCTFileName@@@Z
       2783  ADE 000FE5A0 ?Obtain_t@CStock_CEntityClass@@QAEPAVCEntityClass@@ABVCTFileName@@@Z
       2784  ADF 000FF800 ?Obtain_t@CStock_CFontData@@QAEPAVCFontData@@ABVCTFileName@@@Z
       2785  AE0 00100A60 ?Obtain_t@CStock_CMesh@@QAEPAVCMesh@@ABVCTFileName@@@Z
       2786  AE1 00101B90 ?Obtain_t@CStock_CModelData@@QAEPAVCModelData@@ABVCTFileName@@@Z
       2787  AE2 00102D40 ?Obtain_t@CStock_CModelInstance@@QAEPAVCModelInstanceSerial@@ABVCTFileName@@@Z
       2788  AE3 00103FA0 ?Obtain_t@CStock_CShader@@QAEPAVCShader@@ABVCTFileName@@@Z
       2789  AE4 001051E0 ?Obtain_t@CStock_CSkeleton@@QAEPAVCSkeleton@@ABVCTFileName@@@Z
       2790  AE5 00106440 ?Obtain_t@CStock_CSoundData@@QAEPAVCSoundData@@ABVCTFileName@@@Z
       2791  AE6 001075F0 ?Obtain_t@CStock_CTextureData@@QAEPAVCTextureData@@ABVCTFileName@@@Z
       2792  AE7 001425F0 ?OffSetAnimationQueue@CEntity@@QAEXMJ@Z
       2793  AE8 0017A680 ?OffSetAnimationQueue@CModelInstance@@QAEXM@Z
       2794  AE9 00030C20 ?OffsetPhase@CAnimObject@@QAEXM@Z
       2795  AEA 00141BE0 ?OnEnd@CEntity@@UAEXXZ
       2796  AEB 001CF980 ?OnEnd@CMovableEntity@@UAEXXZ
       2797  AEC 00143390 ?OnEnd@CRationalEntity@@UAEXXZ
       2798  AED 00141BB0 ?OnInitialize@CEntity@@UAEXABVCEntityEvent@@@Z
       2799  AEE 001CF820 ?OnInitialize@CMovableEntity@@UAEXABVCEntityEvent@@@Z
       2800  AEF 00146920 ?OnInitialize@CRationalEntity@@UAEXABVCEntityEvent@@@Z
       2801  AF0 00034710 ?OnlyFirstLine@CTString@@QAEXXZ
       2802  AF1 000AF050 ?OpenCanvas@CViewPort@@QAEXXZ
       2803  AF2 001C9400 ?OpenDevice@xWindowFile@File@Device@Xenesis2@@UAE_NPBDPADK_N@Z
       2804  AF3 00113A80 ?OpenSocket_t@CCommunicationInterface@@QAEXKK@Z
       2805  AF4 00055F10 ?Open_t@CTFileStream@@QAEXABVCTFileName@@W4OpenMode@CTStream@@@Z
       2806  AF5 0016FC00 ?Optimize@CAnimSet@@QAEXXZ
       2807  AF6 00176070 ?Optimize@CMesh@@QAEXXZ
       2808  AF7 0005D770 ?Optimize@CObject3D@@QAEXXZ
       2809  AF8 0016F460 ?OptimizeAnimation@CAnimSet@@QAEXAAUAnimation@@M@Z
       2810  AF9 00174120 ?OptimizeLod@CMesh@@QAEXAAUMeshLOD@@@Z
       2811  AFA 00152A20 ?OptimizeObject3D@CBrush3D@@SAXAAVCObject3D@@@Z
       2812  AFB 00120790 ?Pack@CNetworkMessage@@QAEXAAV1@AAVCCompressor@@@Z
       2813  AFC 001155B0 ?PackAngle@@YAKABV?$Vector@M$02@@@Z
       2814  AFD 001210D0 ?PackDefault@CNetworkMessage@@QAEXAAV1@@Z
       2815  AFE 00115150 ?PackFloat@@YAKEEEM@Z
       2816  AFF 00115270 ?PackFloatToSWord@@YAFM@Z
       2817  B00 00115110 ?PackFloatToWord@@YAFM@Z
       2818  B01 00115520 ?PackFloatsToULONG@@YAKMMM@Z
       2819  B02 00115400 ?PackVectorToULONG@@YAKAAV?$Vector@M$02@@@Z
       2820  B03 0011F0C0 ?PacketBufferRecvUpdate@CNet@@AAEXXZ
       2821  B04 0011DA60 ?PacketBufferReliableUpdate@CNet@@AAEXXZ
       2822  B05 0011F330 ?PacketBufferUpdate@CNet@@QAEXXZ
       2823  B06 003789E8 ?PaletteColorValues@@3PAKA
       2824  B07 0017D070 ?ParseSmcFile_t@@YAPAVCModelInstance@@ABVCTString@@@Z
       2825  B08 0017CCA0 ?ParseSmcFile_t@@YAXAAVCModelInstance@@ABVCTString@@@Z
       2826  B09 0007E2F0 ?Particle_EndSystem@@YAXH@Z
       2827  B0A 0007E590 ?Particle_Flush@@YAXXZ
       2828  B0B 0007E340 ?Particle_GetDrawPortID@@YAJXZ
       2829  B0C 0007E310 ?Particle_GetMipFactor@@YAMXZ
       2830  B0D 0007E330 ?Particle_GetProjection@@YAPAVCProjection3D@@XZ
       2831  B0E 0007E320 ?Particle_GetViewer@@YAPAVCEntity@@XZ
       2832  B0F 001301C0 ?Particle_PrepareEntity@@YAXMHHHPAVCEntity@@@Z
       2833  B10 0007E400 ?Particle_PrepareSystem@@YAXPAVCDrawPort@@AAVCAnyProjection3D@@@Z
       2834  B11 0007ED40 ?Particle_PrepareTexture@@YAXPAVCTextureData@@W4PredefinedBlendType@@@Z
       2835  B12 0007EC10 ?Particle_PrepareTexture@@YAXPAVCTextureObject@@W4PredefinedBlendType@@@Z
       2836  B13 0007F370 ?Particle_RenderLine@@YAXABV?$Vector@M$02@@0MK@Z
       2837  B14 0007FA90 ?Particle_RenderQuad3D@@YAXABV?$Vector@M$02@@000K@Z
       2838  B15 0007EE50 ?Particle_RenderSquare@@YAXABV?$Vector@M$02@@MMKM@Z
       2839  B16 0007E4B0 ?Particle_SetTexturePart@@YAXJJJJ@Z
       2840  B17 0007E350 ?Particle_SetTextureSection@@YAXJJJJ@Z
       2841  B18 0007E7E0 ?Particle_Sort@@YAXH@Z
       2842  B19 000B5CD0 ?Pause@CSoundObject@@QAEXXZ
       2843  B1A 00030B80 ?PauseAnim@CAnimObject@@QAEXXZ
       2844  B1B 0017A390 ?PauseAnimation@CModelInstance@@QAEXJ@Z
       2845  B1C 00052EC0 ?PeekID_t@CTStream@@QAE?AVCChunkID@@XZ
       2846  B1D 000CC190 ?PickPolyColor@CModelObject@@QAEXPAVCDrawPort@@PAVCProjection3D@@JJAAJH@Z
       2847  B1E 000CC2A0 ?PickPolySurface@CModelObject@@QAEJPAVCDrawPort@@PAVCProjection3D@@JJ@Z
       2848  B1F 000CADD0 ?PickVertexIndex@CModelObject@@QAEJPAVCDrawPort@@PAVCProjection3D@@JJAAV?$Vector@M$02@@@Z
       2849  B20 001B11D0 ?Placement3DToMatrix12@@YAXABVCPlacement3D@@AAY0M@M@Z
       2850  B21 000B6700 ?Play@CSoundObject@@QAEXPAVCSoundData@@K@Z
       2851  B22 000313F0 ?PlayAnim@CAnimObject@@QAEXJK@Z
       2852  B23 000B2570 ?PlayBuffers@CSoundLibrary@@AAEXXZ
       2853  B24 00142FC0 ?PlaySoundA@CEntity@@QAEXAAVCSoundObject@@ABVCTFileName@@J@Z
       2854  B25 00142EA0 ?PlaySoundA@CEntity@@QAEXAAVCSoundObject@@JJH@Z
       2855  B26 000B6920 ?Play_t@CSoundObject@@QAEXABVCTFileName@@K@Z
       2856  B27 0014E780 ?PointTouchesCylinder@CClipTest@@QAEHABV?$Vector@M$02@@00M@Z
       2857  B28 0014E6E0 ?PointTouchesSphere@CClipTest@@QAEHABV?$Vector@M$02@@0M@Z
       2858  B29 001653F0 ?PolygonHasLayer@CLightSource@@QAEHAAVCBrushPolygon@@@Z
       2859  B2A 000CBE10 ?PolygonHit@CModelObject@@QAEPAUModelPolygon@@VCPlacement3D@@0JAAM@Z
       2860  B2B 000CB380 ?PolygonHitModelData@CModelObject@@QAEPAUModelPolygon@@PAVCModelData@@VCPlacement3D@@1JAAM@Z
       2861  B2C 000C9170 ?PolygonsInSurfaceCt@CModelObject@@QAEJJJ@Z
       2862  B2D 000694A0 ?PostClip@CIsometricProjection3D@@UBEXABV?$Vector@M$02@@AAV2@@Z
       2863  B2E 000694E0 ?PostClip@CIsometricProjection3D@@UBEXABV?$Vector@M$02@@MAAV2@AAM@Z
       2864  B2F 0006B490 ?PostClip@CParallelProjection3D@@UBEXABV?$Vector@M$02@@AAV2@@Z
       2865  B30 0006B4E0 ?PostClip@CParallelProjection3D@@UBEXABV?$Vector@M$02@@MAAV2@AAM@Z
       2866  B31 0006C9E0 ?PostClip@CPerspectiveProjection3D@@UBEXABV?$Vector@M$02@@AAV2@@Z
       2867  B32 0006CA30 ?PostClip@CPerspectiveProjection3D@@UBEXABV?$Vector@M$02@@MAAV2@AAM@Z
       2868  B33 0006E8C0 ?PostClip@CSimpleProjection3D@@UBEXABV?$Vector@M$02@@AAV2@@Z
       2869  B34 0006E8E0 ?PostClip@CSimpleProjection3D@@UBEXABV?$Vector@M$02@@MAAV2@AAM@Z
       2870  B35 001D01F0 ?PostMoving@CMovableEntity@@UAEXXZ
       2871  B36 00143350 ?PostMoving@CRationalEntity@@UAEXXZ
       2872  B37 00069890 ?PreClip@CIsometricProjection3D@@UBEXABV?$Vector@M$02@@AAV2@@Z
       2873  B38 0006B9E0 ?PreClip@CParallelProjection3D@@UBEXABV?$Vector@M$02@@AAV2@@Z
       2874  B39 0006CED0 ?PreClip@CPerspectiveProjection3D@@UBEXABV?$Vector@M$02@@AAV2@@Z
       2875  B3A 0006EE50 ?PreClip@CSimpleProjection3D@@UBEXABV?$Vector@M$02@@AAV2@@Z
       2876  B3B 001D2DE0 ?PreMoving@CMovableEntity@@UAEXXZ
       2877  B3C 001D6590 ?PreMoving@CMovableModelEntity@@UAEXXZ
       2878  B3D 00143330 ?PreMoving@CRationalEntity@@UAEXXZ
       2879  B3E 00142CE0 ?Precache@CAutoPrecacheModel@@QAEXABVCTFileName@@@Z
       2880  B3F 00142B60 ?Precache@CAutoPrecacheSound@@QAEXABVCTFileName@@@Z
       2881  B40 00142DB0 ?Precache@CAutoPrecacheTexture@@QAEXABVCTFileName@@@Z
       2882  B41 00143170 ?Precache@CEntity@@UAEXXZ
       2883  B42 0014DA20 ?PrecacheClass@CDLLEntityClass@@QAEXJJ@Z
       2884  B43 00142B10 ?PrecacheClass@CEntity@@QAEXJJ@Z
       2885  B44 000DE0E0 ?PrecacheEntities_t@CWorld@@QAEXXZ
       2886  B45 0014D860 ?PrecacheModel@CDLLEntityClass@@QAEXJ@Z
       2887  B46 00142AE0 ?PrecacheModel@CEntity@@QAEXJ@Z
       2888  B47 0014D9B0 ?PrecacheSkaModel@CDLLEntityClass@@QAEXJ@Z
       2889  B48 00142B20 ?PrecacheSkaModel@CEntity@@QAEXJ@Z
       2890  B49 0014D940 ?PrecacheSound@CDLLEntityClass@@QAEXJ@Z
       2891  B4A 00142B00 ?PrecacheSound@CEntity@@QAEXJ@Z
       2892  B4B 0014D8D0 ?PrecacheTexture@CDLLEntityClass@@QAEXJ@Z
       2893  B4C 00142AF0 ?PrecacheTexture@CEntity@@QAEXJ@Z
       2894  B4D 00001370 ?Pred@CListNode@@QBEAAV1@XZ
       2895  B4E 00069D00 ?Prepare@CIsometricProjection3D@@UAEXXZ
       2896  B4F 0006BD10 ?Prepare@CParallelProjection3D@@UAEXXZ
       2897  B50 0006D390 ?Prepare@CPerspectiveProjection3D@@UAEXXZ
       2898  B51 000A5620 ?Prepare@CShadowMap@@QAEXXZ
       2899  B52 0006EAA0 ?Prepare@CSimpleProjection3D@@UAEXXZ
       2900  B53 0006FB70 ?Prepare@CSimpleProjection3D_DOUBLE@@QAEXXZ
       2901  B54 00126450 ?PrepareClientData@CServer@@QAEHJ@Z
       2902  B55 00126A40 ?PrepareDemoData@CServer@@QAEHM@Z
       2903  B56 00114030 ?PrepareForUse@CCommunicationInterface@@QAEHHH@Z
       2904  B57 00125F60 ?PrepareGameStateData_t@CServer@@QAEXAAVCTMemoryStream@@AAJ1@Z
       2905  B58 00152A30 ?PrepareRelativeToAbsoluteProjection@CBrush3D@@QAEXAAVCSimpleProjection3D_DOUBLE@@@Z
       2906  B59 000B2090 ?PrepareSoundBuffer_dsound@CSoundLibrary@@AAEJXZ
       2907  B5A 000B20F0 ?PrepareSoundBuffer_waveout@CSoundLibrary@@AAEJXZ
       2908  B5B 00030C60 ?PrevAnim@CAnimObject@@QAEXXZ
       2909  B5C 00030D20 ?PrevFrame@CAnimObject@@QAEXXZ
       2910  B5D 000C8090 ?PrevManualMipLevel@CModelObject@@QAEXXZ
       2911  B5E 0012A220 ?PrintChatMessage@CSessionState@@QAEXKABVCTString@@0@Z
       2912  B5F 00035C30 ?PrintF@CTString@@QAAJPBDZZ
       2913  B60 00141BF0 ?PrintStackDebug@CEntity@@UAEPBDXZ
       2914  B61 001468B0 ?PrintStackDebug@CRationalEntity@@UAEPBDXZ
       2915  B62 000BFD50 ?PrintSurfaceNumbers@CEditModel@@QAEXPAVCDrawPort@@PAVCFontData@@JMJJK@Z
       2916  B63 0045795C ?PriorityArray@Internal@Xenesis@@3PAPAVxLifePriority@12@A
       2917  B64 00457960 ?PriorityArrayElements@Internal@Xenesis@@3IA
       2918  B65 001B3D10 ?ProcessBrokerRecvBuffer@@YAXXZ
       2919  B66 001290E0 ?ProcessGameStream@CSessionState@@QAEXXZ
       2920  B67 001290F0 ?ProcessGameStreamBlock@CSessionState@@QAEXAAVCNetworkMessage@@@Z
       2921  B68 001290D0 ?ProcessGameTick@CSessionState@@QAEXAAVCNetworkMessage@@M@Z
       2922  B69 000A9AB0 ?ProcessScript_t@@YAXABVCTFileName@@@Z
       2923  B6A 003B010C ?ProgresRoutines@@3VCProgressRoutines@@A
       2924  B6B 0006A750 ?Project@CIsometricProjection3D@@UBEXABV?$Plane@M$02@@AAV2@@Z
       2925  B6C 0005D030 ?Project@CObject3D@@QAEXAAVCSimpleProjection3D_DOUBLE@@@Z
       2926  B6D 0006C5B0 ?Project@CParallelProjection3D@@UBEXABV?$Plane@M$02@@AAV2@@Z
       2927  B6E 0006E520 ?Project@CPerspectiveProjection3D@@UBEXABV?$Plane@M$02@@AAV2@@Z
       2928  B6F 0006F5C0 ?Project@CSimpleProjection3D@@UBEXABV?$Plane@M$02@@AAV2@@Z
       2929  B70 00070210 ?Project@CSimpleProjection3D_DOUBLE@@QBEXABV?$Plane@N$02@@AAV2@@Z
       2930  B71 000693D0 ?ProjectAABBox@CIsometricProjection3D@@UBEXABV?$AABBox@M$02@@AAV2@@Z
       2931  B72 0006B420 ?ProjectAABBox@CParallelProjection3D@@UBEXABV?$AABBox@M$02@@AAV2@@Z
       2932  B73 0006C900 ?ProjectAABBox@CPerspectiveProjection3D@@UBEXABV?$AABBox@M$02@@AAV2@@Z
       2933  B74 0006F470 ?ProjectAABBox@CSimpleProjection3D@@UBEXABV?$AABBox@M$02@@AAV2@@Z
       2934  B75 00070100 ?ProjectAABBox@CSimpleProjection3D_DOUBLE@@QBEXABV?$AABBox@N$02@@AAV2@@Z
       2935  B76 00069AB0 ?ProjectCoordinate@CIsometricProjection3D@@UBEXABV?$Vector@M$02@@AAV2@@Z
       2936  B77 0006BC00 ?ProjectCoordinate@CParallelProjection3D@@UBEXABV?$Vector@M$02@@AAV2@@Z
       2937  B78 0006D0F0 ?ProjectCoordinate@CPerspectiveProjection3D@@UBEXABV?$Vector@M$02@@AAV2@@Z
       2938  B79 0006EF20 ?ProjectCoordinate@CSimpleProjection3D@@UBEXABV?$Vector@M$02@@AAV2@@Z
       2939  B7A 0006FEA0 ?ProjectCoordinate@CSimpleProjection3D_DOUBLE@@QBEXABV?$Vector@N$02@@AAV2@@Z
       2940  B7B 00069720 ?ProjectDirection@CIsometricProjection3D@@UBEXABV?$Vector@M$02@@AAV2@@Z
       2941  B7C 0006B750 ?ProjectDirection@CParallelProjection3D@@UBEXABV?$Vector@M$02@@AAV2@@Z
       2942  B7D 0006CCB0 ?ProjectDirection@CPerspectiveProjection3D@@UBEXABV?$Vector@M$02@@AAV2@@Z
       2943  B7E 0006E9D0 ?ProjectDirection@CSimpleProjection3D@@UBEXABV?$Vector@M$02@@AAV2@@Z
       2944  B7F 0006FAB0 ?ProjectDirection@CSimpleProjection3D_DOUBLE@@QBEXABV?$Vector@N$02@@AAV2@@Z
       2945  B80 000C8DC0 ?ProjectFrameVertices@CModelObject@@QAEXPAVCProjection3D@@J@Z
       2946  B81 00071B50 ?ProjectMapping@CMappingDefinition@@QAEXABV?$Plane@M$02@@ABV1@0@Z
       2947  B82 00070300 ?ProjectMapping@CSimpleProjection3D_DOUBLE@@QBEXABVCMappingDefinition@@ABV?$Plane@N$02@@AAV2@@Z
       2948  B83 0006EFF0 ?ProjectPlacement@CSimpleProjection3D@@QBEXABVCPlacement3D@@AAV2@@Z
       2949  B84 0006FF30 ?ProjectPlacement@CSimpleProjection3D_DOUBLE@@QBEXABVCPlacement3D@@AAV2@@Z
       2950  B85 0006F230 ?ProjectPlacementSmooth@CSimpleProjection3D@@QBEXABVCPlacement3D@@AAV2@@Z
       2951  B86 0014E600 ?ProjectSpheresToPlacement@CClipTest@@QAEXAAVCCollisionInfo@@AAV?$Vector@M$02@@AAV?$Matrix@M$02$02@@@Z
       2952  B87 0014D670 ?PropertyForName@CDLLEntityClass@@QAEPAVCEntityProperty@@ABVCTString@@@Z
       2953  B88 001432A0 ?PropertyForName@CEntity@@QAEPAVCEntityProperty@@ABVCTString@@@Z
       2954  B89 0014DE90 ?PropertyForName@CEntityClass@@QAEPAVCEntityProperty@@ABVCTString@@@Z
       2955  B8A 0014D6D0 ?PropertyForTypeAndID@CDLLEntityClass@@QAEPAVCEntityProperty@@W4PropertyType@2@K@Z
       2956  B8B 00143280 ?PropertyForTypeAndID@CEntity@@QAEPAVCEntityProperty@@KK@Z
       2957  B8C 0014DEA0 ?PropertyForTypeAndID@CEntityClass@@QAEPAVCEntityProperty@@KK@Z
       2958  B8D 000538F0 ?ProtectPageFromWritting@CTStream@@QAEXJ@Z
       2959  B8E 000CA060 ?PtrsToIndices@CModelData@@QAEXXZ
       2960  B8F 0007C440 ?PutChar@CDrawPort@@QBEKPAUGFXVertex@@PAUGFXTexCoord@@PAUGFXColor@@U4@MMMMMMMMMM@Z
       2961  B90 0007C5F0 ?PutChar@CDrawPort@@QBEKPAUGFXVertex@@PAUGFXTexCoord@@PAUGFXColor@@U4@MMMMMMMMMMM@Z
       2962  B91 00052CF0 ?PutLine_t@CTStream@@QAEXPBD@Z
       2963  B92 00052D60 ?PutString_t@CTStream@@QAEXPBD@Z
       2964  B93 0007E0D0 ?PutText@CDrawPort@@QBEXABVCTString@@JJKABH@Z
       2965  B94 0007C8F0 ?PutTextASCII@CDrawPort@@QBEXABVCTString@@JJK@Z
       2966  B95 0007E120 ?PutTextC@CDrawPort@@QBEXABVCTString@@JJKABH@Z
       2967  B96 0007E1C0 ?PutTextCXY@CDrawPort@@QBEXABVCTString@@JJKABH@Z
       2968  B97 0007D670 ?PutTextKS@CDrawPort@@QBEXABVCTString@@JJK@Z
       2969  B98 0007D110 ?PutTextKS@CDrawPort@@QBEXABVCTString@@MMMK@Z
       2970  B99 0007DDE0 ?PutTextOthers@CDrawPort@@QBEXABVCTString@@ABJ1ABKABH@Z
       2971  B9A 0007E220 ?PutTextR@CDrawPort@@QBEXABVCTString@@JJKABH@Z
       2972  B9B 0007A3B0 ?PutTexture@CDrawPort@@QBEXPAVCTextureData@@ABV?$AABBox@J$01@@1KKKKK@Z
       2973  B9C 0007BDD0 ?PutTexture@CDrawPort@@QBEXPAVCTextureObject@@ABV?$AABBox@J$01@@1KK@Z
       2974  B9D 0007A110 ?PutTexture@CDrawPort@@QBEXPAVCTextureObject@@ABV?$AABBox@J$01@@1KKKKK@Z
       2975  B9E 0007C000 ?PutTexture@CDrawPort@@QBEXPAVCTextureObject@@ABV?$AABBox@J$01@@KK@Z
       2976  B9F 0007BE00 ?PutTexture@CDrawPort@@QBEXPAVCTextureObject@@ABV?$AABBox@J$01@@KKKKK@Z
       2977  BA0 0007A650 ?PutTextureOverSize@CDrawPort@@QBEXPAVCTextureObject@@ABV?$AABBox@J$01@@1KKKKK@Z
       2978  BA1 0007BEA0 ?PutTextureOverSize@CDrawPort@@QBEXPAVCTextureObject@@ABV?$AABBox@J$01@@KK@Z
       2979  BA2 0007BF30 ?PutTextureRotate@CDrawPort@@QBEXPAVCTextureObject@@ABV?$AABBox@J$01@@1V?$Vector@J$01@@MK@Z
       2980  BA3 0007B770 ?PutTextureRotate@CDrawPort@@QBEXPAVCTextureObject@@ABV?$AABBox@J$01@@1V?$Vector@J$01@@MKKKK@Z
       2981  BA4 0007C0B0 ?PutTextureRotate@CDrawPort@@QBEXPAVCTextureObject@@ABV?$AABBox@J$01@@V?$Vector@J$01@@MK@Z
       2982  BA5 0007BF60 ?PutTextureRotate@CDrawPort@@QBEXPAVCTextureObject@@ABV?$AABBox@J$01@@V?$Vector@J$01@@MKKKK@Z
       2983  BA6 0015E0F0 ?QueueForCalculation@CBrushShadowMap@@QAEXXZ
       2984  BA7 00045570 ?REG_GetLong@@YAHABVCTString@@AAK@Z
       2985  BA8 000453D0 ?REG_GetString@@YAHABVCTString@@AAV1@@Z
       2986  BA9 00045690 ?REG_SetString@@YAHABVCTString@@0@Z
       2987  BAA 001803C0 ?RM_AddFlag@@YAXK@Z
       2988  BAB 001839E0 ?RM_AddOneShadowOnPlane@@YAXABV?$Plane@M$02@@V?$Vector@M$02@@11MHM@Z
       2989  BAC 00188130 ?RM_AddSimpleShadow_View@@YAXAAVCModelInstance@@MABV?$Plane@M$02@@@Z
       2990  BAD 00180460 ?RM_AreHardwareShadersAvailable@@YAHXZ
       2991  BAE 00182770 ?RM_BeginModelRenderingMask@@YAXAAVCAnyProjection3D@@PAEJJ@Z
       2992  BAF 00182540 ?RM_BeginRenderingView@@YAXAAVCAnyProjection3D@@PAVCDrawPort@@@Z
       2993  BB0 00180350 ?RM_ClearCallbackData@@YAXXZ
       2994  BB1 001804F0 ?RM_EndModelRenderingMask@@YAXXZ
       2995  BB2 001804A0 ?RM_EndRenderingView@@YAXH@Z
       2996  BB3 001802D0 ?RM_GetAdjustedMipDistance@@YAMMM@Z
       2997  BB4 0018B0D0 ?RM_GetBoneAbsPosition@@YAHAAVCModelInstance@@JAAV?$Vector@M$02@@1@Z
       2998  BB5 0018AE40 ?RM_GetBoneRelPosition@@YAHAAVCModelInstance@@JAAV?$Vector@M$02@@1@Z
       2999  BB6 0018B110 ?RM_GetBoneTransformations@@YAHAAVCModelInstance@@JPAY0M@M@Z
       3000  BB7 001803B0 ?RM_GetFlags@@YAKXZ
       3001  BB8 00180260 ?RM_GetMipAdjustmentFactor@@YAMPBVCProjection3D@@@Z
       3002  BB9 00189D90 ?RM_GetModelVertices@@YAXAAVCModelInstance@@AAV?$CStaticStackArray@V?$Vector@M$02@@@@AAV?$Matrix@M$02$02@@AAV?$Vector@M$02@@MM@Z
       3003  BBA 0018ADA0 ?RM_GetRenBone@@YAPAURenBone@@AAVCModelInstance@@J@Z
       3004  BBB 0018AE00 ?RM_GetRenBoneArray@@YAPAURenBone@@AAVCModelInstance@@AAJ@Z
       3005  BBC 00180390 ?RM_GetRenderFlags@@YAAAKXZ
       3006  BBD 0017F930 ?RM_PreviewSKA@@YAXAAVCModelInstance@@PAVCDrawPort@@W4SkaPreviewFlags@@J@Z
       3007  BBE 001803D0 ?RM_RemoveFlag@@YAXK@Z
       3008  BBF 00182180 ?RM_RenderBone@@YAXAAURenBone@@K@Z
       3009  BC0 00180380 ?RM_RenderBone@@YAXAAVCModelInstance@@J@Z
       3010  BC1 00181930 ?RM_RenderColisionBox@@YAXAAVCModelInstance@@AAUColisionBox@@K@Z
       3011  BC2 00181A00 ?RM_RenderCross@@YAXAAV?$Vector@M$02@@K@Z
       3012  BC3 00180B90 ?RM_RenderGround@@YAXAAVCTextureObject@@@Z
       3013  BC4 00189210 ?RM_RenderSKA@@YAXAAVCModelInstance@@@Z
       3014  BC5 001897E0 ?RM_RenderSKACharView@@YAXAAVCModelInstance@@@Z
       3015  BC6 00180310 ?RM_SetBoneAdjustAbsCallback@@YAXP6AXPAX@Z0@Z
       3016  BC7 001802F0 ?RM_SetBoneAdjustCallback@@YAXP6AXPAX@Z0@Z
       3017  BC8 00180250 ?RM_SetCurrentDistance@@YAXM@Z
       3018  BC9 001803A0 ?RM_SetFlags@@YAXK@Z
       3019  BCA 00180500 ?RM_SetLightColor@@YAXKK@Z
       3020  BCB 00182950 ?RM_SetLightDirection@@YAXAAV?$Vector@M$02@@@Z
       3021  BCC 00180520 ?RM_SetMaxWeightsPerVertex@@YAXJ@Z
       3022  BCD 00180780 ?RM_SetObjectMatrices@@YAXAAVCModelInstance@@@Z
       3023  BCE 001808E0 ?RM_SetObjectPlacement@@YAXAAVCModelInstance@@ABV?$Matrix@M$02$02@@ABV?$Vector@M$02@@@Z
       3024  BCF 00180850 ?RM_SetObjectPlacement@@YAXAAVCModelInstance@@ABVCPlacement3D@@@Z
       3025  BD0 00180330 ?RM_SetShaderParamsAdjustCallback@@YAXP6AXPAXJPAVCShader@@AAUShaderParams@@@Z0@Z
       3026  BD1 0018A4D0 ?RM_TestRayCastHit@@YAMAAVCModelInstance@@AAV?$Matrix@M$02$02@@AAV?$Vector@M$02@@ABV3@3MPAJ@Z
       3027  BD2 001B0B60 ?RangeRand@@YAMMM@Z
       3028  BD3 00069BB0 ?RayThroughPoint@CIsometricProjection3D@@UBEXABV?$Vector@M$02@@AAVCPlacement3D@@@Z
       3029  BD4 0006B480 ?RayThroughPoint@CParallelProjection3D@@UBEXABV?$Vector@M$02@@AAVCPlacement3D@@@Z
       3030  BD5 0006D1F0 ?RayThroughPoint@CPerspectiveProjection3D@@UBEXABV?$Vector@M$02@@AAVCPlacement3D@@@Z
       3031  BD6 0006E950 ?RayThroughPoint@CSimpleProjection3D@@UBEXABV?$Vector@M$02@@AAVCPlacement3D@@@Z
       3032  BD7 0011CBF0 ?ReNetwork@CNet@@QAEEXZ
       3033  BD8 0015CD50 ?ReTriple@CBrushSector@@QAEXAAV?$CSelection@VCBrushPolygon@@$0BAA@@@@Z
       3034  BD9 0011FA90 ?Read@CNetMessage@@QAEGPAXG@Z
       3035  BDA 00006A30 ?Read@CNetworkMessage@@QAEXPAXJ@Z
       3036  BDB 00119400 ?ReadAddPlayer@CEntityMessage@@QAEXAAKAAJAAVCPlayerCharacter@@001@Z
       3037  BDC 0011A700 ?ReadAddSkaString@CEntityMessage@@QAEXAAJAAVCTString@@@Z
       3038  BDD 0011A540 ?ReadBasePosition@CEntityMessage@@QAEXAAV?$Vector@M$02@@@Z
       3039  BDE 001208C0 ?ReadBits@CNetworkMessage@@QAEXPAXJ@Z
       3040  BDF 000EF500 ?ReadBrushes_t@CWorld@@QAEXPAVCTStream@@@Z
       3041  BE0 00053270 ?ReadChunkAlloc_t@CTStream@@QAEPAXJ@Z
       3042  BE1 00053140 ?ReadChunk_t@CTStream@@QAEXPAXJ@Z
       3043  BE2 00054950 ?ReadDictionary_intenal_t@CTStream@@QAEXJ@Z
       3044  BE3 00118BD0 ?ReadEntityCopy@CEntityMessage@@QAEXAAK0AAVCPlacement3D@@E@Z
       3045  BE4 001188B0 ?ReadEntityCreate@CEntityMessage@@QAEXAAKAAVCPlacement3D@@AAG@Z
       3046  BE5 00117920 ?ReadEntityDestroy@CEntityMessage@@QAEXAAK@Z
       3047  BE6 00118E10 ?ReadEntityEvent@CEntityMessage@@QAEXAAKAAJPAX1@Z
       3048  BE7 00118FC0 ?ReadEntityInitialize@CEntityMessage@@QAEXAAKAAJPAX1@Z
       3049  BE8 001506D0 ?ReadEntityPointer_t@CEntity@@QAEXPAVCTStream@@AAVCEntityPointer@@@Z
       3050  BE9 00153860 ?ReadEntitySectorLinks_t@CBrushArchive@@QAEXAAVCTStream@@@Z
       3051  BEA 000359D0 ?ReadFromStreamShort@CTString@@QAEXPAVCTStream@@@Z
       3052  BEB 00037360 ?ReadFromText_t@CTFileName@@QAEXAAVCTStream@@ABVCTString@@@Z
       3053  BEC 00035440 ?ReadFromText_t@CTString@@QAEXAAVCTStream@@ABV1@@Z
       3054  BED 000531F0 ?ReadFullChunk_t@CTStream@@QAEXABVCChunkID@@PAXJ@Z
       3055  BEE 000EF220 ?ReadInfo_t@CWorld@@QAEXPAVCTStream@@H@Z
       3056  BEF 0015E740 ?ReadLayers_t@CBrushShadowMap@@UAEXPAVCTStream@@@Z
       3057  BF0 000A4BD0 ?ReadLayers_t@CShadowMap@@UAEXPAVCTStream@@@Z
       3058  BF1 000BC420 ?ReadMipSettings_t@CEditModel@@QAEXPAVCTStream@@J@Z
       3059  BF2 00049320 ?ReadModelInstance_t@@YAXAAVCTStream@@AAVCModelInstance@@H@Z
       3060  BF3 000C7F00 ?ReadName_t@CModelCollisionBox@@QAEXPAVCTStream@@@Z
       3061  BF4 00070A20 ?ReadOld_t@CMappingDefinition@@QAEXAAVCTStream@@@Z
       3062  BF5 00119CB0 ?ReadPause@CEntityMessage@@QAEXAAHAAVCTString@@@Z
       3063  BF6 001184D0 ?ReadPlacement@CEntityMessage@@QAEXAAKAAVCPlacement3D@@1@Z
       3064  BF7 00119980 ?ReadPlacementNotify@CEntityMessage@@QAEXAAKAAE@Z
       3065  BF8 00117A90 ?ReadPlayerAction@CEntityMessage@@QAEXAAKAAVCPlayerAction@@@Z
       3066  BF9 001179A0 ?ReadPlayerUpdate@CEntityMessage@@QAEXAAKAAVCNetworkMessage@@@Z
       3067  BFA 00153740 ?ReadPortalSectorLinks_t@CBrushArchive@@QAEXAAVCTStream@@@Z
       3068  BFB 00150C50 ?ReadProperties_t@CEntity@@QAEXAAVCTStream@@H@Z
       3069  BFC 000530F0 ?ReadRawChunk_t@CTStream@@QAEXPAXJ@Z
       3070  BFD 0012AB50 ?ReadRememberedLevels_t@CSessionState@@QAEXPAVCTStream@@@Z
       3071  BFE 00117A10 ?ReadRemovePlayer@CEntityMessage@@QAEXAAJ@Z
       3072  BFF 0014B460 ?ReadSKAQueue@CEntity@@QAEXAAVCNetworkMessage@@@Z
       3073  C00 0014B300 ?ReadSKAQueue@CEntity@@QAEXPAVCTStream@@@Z
       3074  C01 000C8730 ?ReadSettings_t@MappingSurface@@QAEXPAVCTStream@@@Z
       3075  C02 00119AD0 ?ReadSka@CEntityMessage@@QAEXAAKAAEPAXAAJ@Z
       3076  C03 0011A360 ?ReadSound@CEntityMessage@@QAEXAAKAAEPAXAAJ@Z
       3077  C04 00119820 ?ReadStartAnim@CEntityMessage@@QAEXAAKAAJ0@Z
       3078  C05 000F1800 ?ReadState_net_t@CWorld@@QAEXPAVCTStream@@@Z
       3079  C06 000F1140 ?ReadState_new_t@CWorld@@QAEXPAVCTStream@@@Z
       3080  C07 000F0BF0 ?ReadState_old_t@CWorld@@QAEXPAVCTStream@@@Z
       3081  C08 0012ED70 ?ReadState_t@CSessionState@@QAEXPAVCTStream@@@Z
       3082  C09 000F2230 ?ReadState_t@CWorld@@QAEXPAVCTStream@@@Z
       3083  C0A 000F0690 ?ReadState_veryold_t@CWorld@@QAEXPAVCTStream@@@Z
       3084  C0B 00053330 ?ReadStream_t@CTStream@@QAEXAAV1@@Z
       3085  C0C 0011FB30 ?ReadString@CNetMessage@@QAEXPAD@Z
       3086  C0D 00058590 ?ReadTranslationTable_t@@YAXAAV?$CDynamicArray@VCTranslationPair@@@@ABVCTFileName@@@Z
       3087  C0E 00034890 ?ReadUntilEOF_t@CTString@@QAEXAAVCTStream@@@Z
       3088  C0F 0012B9F0 ?ReadWorldAndState_t@CSessionState@@QAEXPAVCTStream@@@Z
       3089  C10 001D8D70 ?Read_net@CPlayerEntity@@UAEXPAVCNetworkMessage@@M@Z
       3090  C11 001D8D90 ?Read_net_brief@CPlayerEntity@@UAEXPAVCNetworkMessage@@M@Z
       3091  C12 00156700 ?Read_new_t@CBrush3D@@QAEXPAVCTStream@@@Z
       3092  C13 00156500 ?Read_new_t@CBrushMip@@QAEXPAVCTStream@@@Z
       3093  C14 00156630 ?Read_old_t@CBrush3D@@QAEXPAVCTStream@@@Z
       3094  C15 001564B0 ?Read_old_t@CBrushMip@@QAEXPAVCTStream@@@Z
       3095  C16 000A5370 ?Read_old_t@CShadowMap@@QAEXPAVCTStream@@@Z
       3096  C17 0016FC40 ?Read_t@CAnimSet@@UAEXPAVCTStream@@@Z
       3097  C18 000BC000 ?Read_t@CAttachedModel@@QAEXPAVCTStream@@@Z
       3098  C19 000C8860 ?Read_t@CAttachedModelPosition@@QAEXPAVCTStream@@@Z
       3099  C1A 000BC250 ?Read_t@CAttachedSound@@QAEXPAVCTStream@@@Z
       3100  C1B 001567D0 ?Read_t@CBrush3D@@QAEXPAVCTStream@@@Z
       3101  C1C 00153D70 ?Read_t@CBrushArchive@@UAEXPAVCTStream@@@Z
       3102  C1D 00155410 ?Read_t@CBrushPolygonTexture@@QAEXAAVCTStream@@@Z
       3103  C1E 00155A90 ?Read_t@CBrushSector@@QAEXPAVCTStream@@@Z
       3104  C1F 000BF700 ?Read_t@CEditModel@@UAEXPAVCTStream@@@Z
       3105  C20 00145F80 ?Read_t@CEntity@@UAEXPAVCTStream@@H@Z
       3106  C21 0014DFD0 ?Read_t@CEntityClass@@UAEXPAVCTStream@@@Z
       3107  C22 001A7640 ?Read_t@CFontCharData@@QAEXPAVCTStream@@@Z
       3108  C23 001A7810 ?Read_t@CFontData@@UAEXPAVCTStream@@@Z
       3109  C24 0009F670 ?Read_t@CImageInfo@@QAEXPAVCTStream@@@Z
       3110  C25 00165520 ?Read_t@CLightSource@@QAEXPAVCTStream@@H@Z
       3111  C26 00146550 ?Read_t@CLiveEntity@@UAEXPAVCTStream@@H@Z
       3112  C27 00174C80 ?Read_t@CMesh@@UAEXPAVCTStream@@@Z
       3113  C28 000C87C0 ?Read_t@CModelCollisionBox@@QAEXPAVCTStream@@@Z
       3114  C29 000CD860 ?Read_t@CModelData@@UAEXPAVCTStream@@@Z
       3115  C2A 0017D110 ?Read_t@CModelInstanceSerial@@UAEXPAVCTStream@@@Z
       3116  C2B 000CA7F0 ?Read_t@CModelObject@@QAEXPAVCTStream@@@Z
       3117  C2C 000C8300 ?Read_t@CModelPatch@@QAEXPAVCTStream@@@Z
       3118  C2D 000C7DA0 ?Read_t@CModelRenderPrefs@@QAEXPAVCTStream@@@Z
       3119  C2E 001CC680 ?Read_t@CMovableBrushEntity@@UAEXPAVCTStream@@H@Z
       3120  C2F 001CE230 ?Read_t@CMovableEntity@@UAEXPAVCTStream@@H@Z
       3121  C30 001D6330 ?Read_t@CMovableModelEntity@@UAEXPAVCTStream@@H@Z
       3122  C31 00152270 ?Read_t@CPlayerCharacter@@QAEXPAVCTStream@@@Z
       3123  C32 001D8F40 ?Read_t@CPlayerEntity@@UAEXPAVCTStream@@H@Z
       3124  C33 001465B0 ?Read_t@CRationalEntity@@UAEXPAVCTStream@@H@Z
       3125  C34 0012F2C0 ?Read_t@CSessionState@@QAEXPAVCTStream@@H@Z
       3126  C35 000A4040 ?Read_t@CShader@@UAEXPAVCTStream@@@Z
       3127  C36 000A5490 ?Read_t@CShadowMap@@QAEXPAVCTStream@@@Z
       3128  C37 0018EAD0 ?Read_t@CSkeleton@@UAEXPAVCTStream@@@Z
       3129  C38 000AFB60 ?Read_t@CSoundData@@UAEXPAVCTStream@@@Z
       3130  C39 000B69A0 ?Read_t@CSoundObject@@QAEXPAVCTStream@@H@Z
       3131  C3A 00002F20 ?Read_t@CTStream@@QAEXPAXJ@Z
       3132  C3B 001902D0 ?Read_t@CTerrain@@QAEXPAVCTStream@@@Z
       3133  C3C 001908A0 ?Read_t@CTerrainArchive@@UAEXPAVCTStream@@@Z
       3134  C3D 000A8E00 ?Read_t@CTextureData@@UAEXPAVCTStream@@@Z
       3135  C3E 000A6C20 ?Read_t@CTextureObject@@QAEXPAVCTStream@@@Z
       3136  C3F 000BBDF0 ?Read_t@CThumbnailSettings@@QAEXPAVCTStream@@@Z
       3137  C40 000F23F0 ?Read_t@CWorld@@QAEXPAVCTStream@@@Z
       3138  C41 000C9C90 ?Read_t@MappingSurface@@QAEXPAVCTStream@@HH@Z
       3139  C42 000CB7C0 ?Read_t@ModelMipInfo@@QAEXPAVCTStream@@HHH@Z
       3140  C43 000C9AC0 ?Read_t@ModelPolygon@@QAEXPAVCTStream@@@Z
       3141  C44 000C8530 ?Read_t@ModelPolygonVertex@@QAEXPAVCTStream@@@Z
       3142  C45 0011A020 ?ReadcharacterChange@CEntityMessage@@QAEXAAKAAVCPlayerCharacter@@@Z
       3143  C46 000DE310 ?RebuildLinks@CWorld@@QAEXXZ
       3144  C47 0017B4C0 ?RecalculateCollisionBox@CModelInstance@@QAE?AV?$AABBox@M$02@@XZ
       3145  C48 0005D410 ?RecalculatePlanes@CObject3D@@QAEXXZ
       3146  C49 00125310 ?ReceiveAcknowledge@CServer@@QAEXJM@Z
       3147  C4A 0011C5C0 ?ReceiveBroadcast@CMessageDispatcher@@QAEHAAVCNetworkMessage@@AAKAAG@Z
       3148  C4B 00143120 ?ReceiveDamage@CEntity@@UAEXPAV1@PBUDamageInfo@@@Z
       3149  C4C 0014AD70 ?ReceiveDamage@CEntity@@UAEXPAV1@W4DamageType@@MABV?$Vector@M$02@@2@Z
       3150  C4D 0014AE80 ?ReceiveDamage@CLiveEntity@@UAEXPAVCEntity@@W4DamageType@@MABV?$Vector@M$02@@2@Z
       3151  C4E 0011C4B0 ?ReceiveFromClient@CMessageDispatcher@@QAEHJAAVCNetworkMessage@@@Z
       3152  C4F 0011C510 ?ReceiveFromClientReliable@CMessageDispatcher@@QAEHJAAVCNetworkMessage@@@Z
       3153  C50 0011C370 ?ReceiveFromServer@CMessageDispatcher@@QAEHAAVCNetworkMessage@@@Z
       3154  C51 0011C3D0 ?ReceiveFromServerReliable@CMessageDispatcher@@QAEHAAVCNetworkMessage@@@Z
       3155  C52 0011C430 ?ReceiveFromServerReliable@CMessageDispatcher@@QAEHAAVCTMemoryStream@@@Z
       3156  C53 00143130 ?ReceiveHoldAttack@CEntity@@UAEXPAV1@@Z
       3157  C54 00143140 ?ReceiveItem@CEntity@@UAEHABVCEntityEvent@@@Z
       3158  C55 0012B2E0 ?ReceiveMessage@CSessionState@@QAEHXZ
       3159  C56 0012B320 ?ReceiveTick@CSessionState@@QAEXMPAEJ@Z
       3160  C57 0012B0B0 ?RecvCreateCreature@CSessionState@@QAEXUsSummonCreatureData@@ABVCTFileName@@@Z
       3161  C58 0011D8A0 ?RecvData@CNet@@QAEHAAHAAGAAKAAEAAVCNetMessage@@210@Z
       3162  C59 001299A0 ?RecvFileldCreature@CSessionState@@QAEXQAUS_USE_CREATURE_FILELD_INFO@@@Z
       3163  C5A 0011D050 ?RecvFrom@CNet@@AAEGPAXPAUsockaddr_in@@AA_N@Z
       3164  C5B 0011D980 ?RecvPingCheckData@CNet@@QAEHAAHAAGAAKAAEAAVCNetMessage@@210@Z
       3165  C5C 001CC7F0 ?ReduceAP@CMovableEntity@@UAEXM@Z
       3166  C5D 001CC780 ?ReduceHP@CMovableEntity@@UAEXM@Z
       3167  C5E 000A5900 ?ReduceShadows@CGfxLibrary@@QAEXXZ
       3168  C5F 001205B0 ?Reinit@CNetworkMessage@@QAEXXZ
       3169  C60 00148940 ?Reinitialize@CEntity@@QAEXXZ
       3170  C61 000DE020 ?ReinitializeEntities@CWorld@@QAEXXZ
       3171  C62 00068DC0 ?RelativeToAbsolute@CPlacement3D@@QAEXABV1@@Z
       3172  C63 00068EA0 ?RelativeToAbsoluteSmooth@CPlacement3D@@QAEXABV1@@Z
       3173  C64 000683D0 ?RelativeToRelative@CPlacement3D@@QAEXABV1@0@Z
       3174  C65 000684A0 ?RelativeToRelativeSmooth@CPlacement3D@@QAEXABV1@0@Z
       3175  C66 00150600 ?Release@CEntityComponent@@QAEXXZ
       3176  C67 000FBDA0 ?Release@CStock_CAnimData@@QAEXPAVCAnimData@@@Z
       3177  C68 000FD240 ?Release@CStock_CAnimSet@@QAEXPAVCAnimSet@@@Z
       3178  C69 000FE2E0 ?Release@CStock_CEntityClass@@QAEXPAVCEntityClass@@@Z
       3179  C6A 000FF540 ?Release@CStock_CFontData@@QAEXPAVCFontData@@@Z
       3180  C6B 001007A0 ?Release@CStock_CMesh@@QAEXPAVCMesh@@@Z
       3181  C6C 001018D0 ?Release@CStock_CModelData@@QAEXPAVCModelData@@@Z
       3182  C6D 00102A80 ?Release@CStock_CModelInstance@@QAEXPAVCModelInstanceSerial@@@Z
       3183  C6E 00103CE0 ?Release@CStock_CShader@@QAEXPAVCShader@@@Z
       3184  C6F 00104F20 ?Release@CStock_CSkeleton@@QAEXPAVCSkeleton@@@Z
       3185  C70 00106180 ?Release@CStock_CSoundData@@QAEXPAVCSoundData@@@Z
       3186  C71 00107330 ?Release@CStock_CTextureData@@QAEXPAVCTextureData@@@Z
       3187  C72 0014D490 ?ReleaseComponents@CEntityClass@@QAEXXZ
       3188  C73 000B1670 ?ReleasePlayingBuffer@CSoundLibrary@@QAEXJH@Z
       3189  C74 0004A6B0 ?Reload@CSerial@@QAEXXZ
       3190  C75 0003CB30 ?RemAll@CListHead@@QAEXXZ
       3191  C76 00142150 ?RemAnimation@CEntity@@QAEXJJ@Z
       3192  C77 0017A540 ?RemAnimation@CModelInstance@@QAEXJ@Z
       3193  C78 00142250 ?RemAnimsWithID@CEntity@@QAEXJJ@Z
       3194  C79 0017A5E0 ?RemAnimsWithID@CModelInstance@@QAEXJ@Z
       3195  C7A 00057B20 ?RemHandler@CTimer@@QAEXPAVCTimerHandler@@@Z
       3196  C7B 0003CB10 ?RemHead@CListHead@@QAEXXZ
       3197  C7C 000067F0 ?RemReference@CEntity@@QAEXXZ
       3198  C7D 0014D380 ?RemReference@CEntityClass@@QAEXXZ
       3199  C7E 000AF460 ?RemReference@CSoundData@@QAEXXZ
       3200  C7F 000C7F70 ?RemReference_internal@CModelData@@UAEXXZ
       3201  C80 000A6C90 ?RemReference_internal@CTextureData@@UAEXXZ
       3202  C81 0003CB20 ?RemTail@CListHead@@QAEXXZ
       3203  C82 00171870 ?RemapMeshIndices@@YAXAAUMeshLOD@@PBJJ@Z
       3204  C83 00172760 ?RemapMeshVertices@@YAXAAUMeshLOD@@PBJJ@Z
       3205  C84 0012BFD0 ?RememberCurrentLevel@CSessionState@@QAEXABVCTString@@@Z
       3206  C85 0016E970 ?RememberUnCompresedRotatations@@YAXH@Z
       3207  C86 0003CA90 ?Remove@CListNode@@QAEXXZ
       3208  C87 000CB730 ?RemoveAllAttachmentModels@CModelObject@@QAEXXZ
       3209  C88 0017B8E0 ?RemoveAllChildren@CModelInstance@@QAEXH@Z
       3210  C89 0012B910 ?RemoveAllGeneralNpcs@CSessionState@@QAEXE@Z
       3211  C8A 0012CD80 ?RemoveAllPlayer@CSessionState@@QAEXXZ
       3212  C8B 0009D6E0 ?RemoveAlphaChannel@@YAXPAKPAEJ@Z
       3213  C8C 001705E0 ?RemoveAnimation@CAnimSet@@QAEXPAUAnimation@@@Z
       3214  C8D 00037320 ?RemoveApplicationPath_t@CTFileName@@QAEXXZ
       3215  C8E 00142E70 ?RemoveAttachment@CEntity@@QAEXJ@Z
       3216  C8F 000CC3A0 ?RemoveAttachmentModel@CModelObject@@QAEXJ@Z
       3217  C90 0017B8C0 ?RemoveChild@CModelInstance@@QAEXPAV1@@Z
       3218  C91 0017B6A0 ?RemoveColisionBox@CModelInstance@@QAEXJ@Z
       3219  C92 00039390 ?RemoveDevice@CInput@@QAEHAAVCInputDevice@@@Z
       3220  C93 00064A00 ?RemoveDummyEdgeReferences@CObjectPolygon@@QAEXXZ
       3221  C94 00153340 ?RemoveDummyLayers@CBrushArchive@@QAEXXZ
       3222  C95 0015E550 ?RemoveDummyLayers@CBrushShadowMap@@QAEXXZ
       3223  C96 00156D10 ?RemoveDummyPortals@CBrushMip@@QAEXH@Z
       3224  C97 0005D690 ?RemoveEmptySectors@CObject3D@@QAEXXZ
       3225  C98 000E8CB0 ?RemoveEntityFromCollisionGrid@CWorld@@QAEXPAVCEntity@@ABV?$AABBox@M$02@@@Z
       3226  C99 000974D0 ?RemoveFlag@CTerrain@@QAEXK@Z
       3227  C9A 000B2160 ?RemoveFromPendingList@CSoundLibrary@@QAEXAAVCSoundObject@@H@Z
       3228  C9B 000B1F50 ?RemoveListeners@CSoundLibrary@@QAEXXZ
       3229  C9C 00064930 ?RemoveMarkedEdges@CObjectPolygon@@QAEXJ@Z
       3230  C9D 00177B80 ?RemoveMeshLod@CMesh@@QAEXPAUMeshLOD@@@Z
       3231  C9E 0017BD10 ?RemovePassedAnimsFromQueue@CModelInstance@@QAEXXZ
       3232  C9F 0012CD00 ?RemovePlayer@CSessionState@@QAEXE@Z
       3233  CA0 000351A0 ?RemovePrefix@CTString@@QAEHABV1@@Z
       3234  CA1 00064BD0 ?RemoveRedundantEdges@CObjectPolygon@@QAEXXZ
       3235  CA2 0018EED0 ?RemoveSkeletonLod@CSkeleton@@QAEXPAUSkeletonLOD@@@Z
       3236  CA3 00035840 ?RemoveSpecialCodes@@YA?AVCTString@@ABV1@@Z
       3237  CA4 0017BA30 ?RemoveTexture@CModelInstance@@QAEXPAUTextureInstance@@PAUMeshInstance@@@Z
       3238  CA5 0016E980 ?RenameAnimation@CAnimSet@@QAEXPAUAnimation@@VCTString@@@Z
       3239  CA6 000D1620 ?RenderFadeInOut@CModelObject@@QAEXXZ
       3240  CA7 00141B60 ?RenderGameView@CEntity@@UAEXPAVCDrawPort@@PAX@Z
       3241  CA8 00079E80 ?RenderLensFlare@CDrawPort@@QBEXPAVCTextureObject@@MMMMMK@Z
       3242  CA9 000D2BA0 ?RenderModel@CModelObject@@QAEXAAVCRenderModel@@@Z
       3243  CAA 000D5100 ?RenderModel_Mask@CModelObject@@AAEXAAVCRenderModel@@@Z
       3244  CAB 000D7F40 ?RenderModel_View@CModelObject@@AAEXAAVCRenderModel@@@Z
       3245  CAC 00141B40 ?RenderParticles@CEntity@@UAEXXZ
       3246  CAD 000D7A90 ?RenderPatches_View@CModelObject@@AAEXAAVCRenderModel@@@Z
       3247  CAE 000D1EE0 ?RenderShadow@CModelObject@@QAEXAAVCRenderModel@@ABVCPlacement3D@@MMMABV?$Plane@M$02@@@Z
       3248  CAF 000D5AF0 ?RenderShadow_View@CModelObject@@AAEXAAVCRenderModel@@ABVCPlacement3D@@MMMABV?$Plane@M$02@@@Z
       3249  CB0 0013B100 ?RenderView@@YAXAAVCWorld@@AAVCEntity@@AAVCAnyProjection3D@@AAVCDrawPort@@@Z
       3250  CB1 00157510 ?Reoptimize@CBrushMip@@QAEXXZ
       3251  CB2 00035AD0 ?ReplaceSubstr@CTString@@QAEHABV1@0@Z
       3252  CB3 00043860 ?Report@CProfileForm@@QAEXAAVCTString@@@Z
       3253  CB4 00124BB0 ?ResendGameStreamBlocks@CServer@@QAEXJJJ@Z
       3254  CB5 000437E0 ?Reset@CProfileForm@@QAEXXZ
       3255  CB6 00030D90 ?ResetAnim@CAnimObject@@QAEXXZ
       3256  CB7 000C96D0 ?ResetAttachmentModelPosition@CModelObject@@QAEXJ@Z
       3257  CB8 0009D110 ?ResetDisplayMode@CGfxLibrary@@QAEHW4GfxAPIType@@@Z
       3258  CB9 0014C960 ?ResetForce@CDynParticle@@QAEXXZ
       3259  CBA 000A3B60 ?ResetHandles@CShader@@QAEXXZ
       3260  CBB 0014C9A0 ?ResetMoment@CRigidBody@@QAEXXZ
       3261  CBC 00129090 ?ResetRND@CSessionState@@QAEXXZ
       3262  CBD 000B5D20 ?ResetTimer@CSoundObject@@QAEXJ@Z
       3263  CBE 000AEE00 ?Resize@CViewPort@@QAEXXZ
       3264  CBF 0003CDD0 ?ResizeMemory@@YAXPAPAXJ@Z
       3265  CC0 000AEEC0 ?Resize_4_3@CViewPort@@QAEXXZ
       3266  CC1 0009C390 ?ResourceRelease@CGfxLibrary@@QAEXXZ
       3267  CC2 0012C100 ?RestoreOldLevel@CSessionState@@QAEXABVCTString@@@Z
       3268  CC3 000B5D10 ?Resume@CSoundObject@@QAEXXZ
       3269  CC4 00006540 ?Return@CEntity@@QAEXJABVCEntityEvent@@@Z
       3270  CC5 00146870 ?Return@CRationalEntity@@QAEXJABVCEntityEvent@@@Z
       3271  CC6 001B1FD0 ?RevisePosition@CPonytail@@QAEXJ@Z
       3272  CC7 00004F50 ?Rewind@CNetMessage@@QAEXXZ
       3273  CC8 00120780 ?Rewind@CNetworkMessage@@QAEXXZ
       3274  CC9 00129080 ?Rnd@CSessionState@@QAEKXZ
       3275  CCA 00071D30 ?Rotate@CMappingDefinition@@QAEXABVCMappingVectors@@ABV?$Vector@M$02@@M@Z
       3276  CCB 000689B0 ?Rotate_Airplane@CPlacement3D@@QAEXABV?$Vector@M$02@@@Z
       3277  CCC 00068B00 ?Rotate_HPB@CPlacement3D@@QAEXABV?$Vector@M$02@@@Z
       3278  CCD 00068860 ?Rotate_TrackBall@CPlacement3D@@QAEXABV?$Vector@M$02@@@Z
       3279  CCE 0012C210 ?RunDemoTick@CSessionState@@QAEXXZ
       3280  CCF 0000A070 ?SE_EndEngine@@YAXXZ
       3281  CD0 00009120 ?SE_InitEngine@@YAXVCTString@@@Z
       3282  CD1 00008AB0 ?SE_LoadDefaultFonts@@YAXXZ
       3283  CD2 00008CF0 ?SE_PretouchIfNeeded@@YAXXZ
       3284  CD3 00008AA0 ?SE_SetEngineData@@YAXPAX@Z
       3285  CD4 00008C00 ?SE_UpdateWindowHandle@@YAXPAUHWND__@@@Z
       3286  CD5 0004FA20 ?STAT_Report@@YAXAAVCTString@@@Z
       3287  CD6 0004F150 ?STAT_Reset@@YAXXZ
       3288  CD7 0004F160 ?STAT_UIstart@@YAXXZ
       3289  CD8 0004F1A0 ?STAT_UIstop@@YAXXZ
       3290  CD9 0009FB90 ?SaveBMP_t@CImageInfo@@QBEXABVCTFileName@@@Z
       3291  CDA 000BC7B0 ?SaveIncludeFile_t@CEditModel@@QAEXVCTFileName@@VCTString@@@Z
       3292  CDB 00035C50 ?SaveIntVar@@YAXABVCTFileName@@AAJ@Z
       3293  CDC 00034AA0 ?SaveKeepCRLF_t@CTString@@QAEXABVCTFileName@@@Z
       3294  CDD 000BEFC0 ?SaveMapping_t@CEditModel@@QAEXVCTFileName@@J@Z
       3295  CDE 00034F00 ?SaveStringVar@@YAXABVCTFileName@@AAVCTString@@@Z
       3296  CDF 0009FA40 ?SaveTGA_t@CImageInfo@@QBEXABVCTFileName@@@Z
       3297  CE0 00034E80 ?SaveVar@CTString@@QAEXABVCTFileName@@@Z
       3298  CE1 000BCFE0 ?Save_t@CEditModel@@QAEXVCTFileName@@@Z
       3299  CE2 0010B6C0 ?Save_t@CNetworkLibrary@@QAEXABVCTFileName@@@Z
       3300  CE3 001526D0 ?Save_t@CPlayerCharacter@@QAEXABVCTFileName@@@Z
       3301  CE4 0004A7D0 ?Save_t@CSerial@@QAEXVCTFileName@@@Z
       3302  CE5 00034A20 ?Save_t@CTString@@QAEXABVCTFileName@@@Z
       3303  CE6 000F10C0 ?Save_t@CWorld@@QAEXABVCTFileName@@@Z
       3304  CE7 00034B70 ?ScanF@CTString@@QAAJPBDZZ
       3305  CE8 00003A30 ?ScreenBBoxL@CProjection3D@@QAEAAV?$AABBox@M$01@@XZ
       3306  CE9 00003A40 ?ScreenBBoxR@CProjection3D@@QBEABV?$AABBox@M$01@@XZ
       3307  CEA 00052730 ?Seek_t@CTStream@@QAEXJW4SeekDir@1@@Z
       3308  CEB 00004A50 ?Select@CBrushPolygon@@QAEXK@Z
       3309  CEC 00004AC0 ?Select@CBrushSector@@QAEXK@Z
       3310  CED 000043C0 ?Select@CBrushVertex@@QAEXK@Z
       3311  CEE 000065A0 ?Select@CEntity@@QAEXK@Z
       3312  CEF 00157280 ?SelectAllSectors@CBrushMip@@QAEXAAV?$CSelection@VCBrushSector@@$00@@@Z
       3313  CF0 00157200 ?SelectAllSectors@CBrushMip@@QAEXAAV?$CSelection@VCBrushSector@@$03@@@Z
       3314  CF1 001595F0 ?SelectByColorInSector@CBrushPolygon@@QAEXAAV?$CSelection@VCBrushPolygon@@$0BAA@@@@Z
       3315  CF2 00159530 ?SelectByTextureInSector@CBrushPolygon@@QAEXAAV?$CSelection@VCBrushPolygon@@$0BAA@@@J@Z
       3316  CF3 000DF180 ?SelectByTextureInSelectedSectors@CWorld@@QAEXVCTFileName@@AAV?$CSelection@VCBrushPolygon@@$0BAA@@@J@Z
       3317  CF4 000DF320 ?SelectByTextureInWorld@CWorld@@QAEXVCTFileName@@AAV?$CSelection@VCBrushPolygon@@$0BAA@@@J@Z
       3318  CF5 00157170 ?SelectClosedSectors@CBrushMip@@QAEXAAV?$CSelection@VCBrushSector@@$03@@@Z
       3319  CF6 00030C90 ?SelectFrameInTime@CAnimObject@@QAEXM@Z
       3320  CF7 001570E0 ?SelectOpenSector@CBrushMip@@QAEXAAV?$CSelection@VCBrushSector@@$03@@@Z
       3321  CF8 00157010 ?SelectSectorsInRange@CBrushMip@@QAEXAAV?$CSelection@VCBrushSector@@$00@@V?$AABBox@M$02@@@Z
       3322  CF9 00156F40 ?SelectSectorsInRange@CBrushMip@@QAEXAAV?$CSelection@VCBrushSector@@$03@@V?$AABBox@M$02@@@Z
       3323  CFA 001592D0 ?SelectSimilarByColor@CBrushPolygon@@QAEXAAV?$CSelection@VCBrushPolygon@@$0BAA@@@@Z
       3324  CFB 001593F0 ?SelectSimilarByTexture@CBrushPolygon@@QAEXAAV?$CSelection@VCBrushPolygon@@$0BAA@@@J@Z
       3325  CFC 00129AA0 ?SendAcknowledge@CSessionState@@QAEXM@Z
       3326  CFD 00123010 ?SendAction@CPlayerSource@@QAEXXZ
       3327  CFE 00123400 ?SendAction_Relay@CPlayerSource@@QAEXXZ
       3328  CFF 001CED70 ?SendBlockEvent@CMovableEntity@@QAEXAAVCClipMove@@@Z
       3329  D00 0011C570 ?SendBroadcast@CMessageDispatcher@@QAEXABVCNetworkMessage@@KG@Z
       3330  D01 001226E0 ?SendChangeData@CPlayerSource@@QAEXXZ
       3331  D02 0010BBD0 ?SendChat@CNetworkLibrary@@QAEXKKABVCTString@@@Z
       3332  D03 0011EE60 ?SendChatDataInGame@CNet@@QAEXPADHE@Z
       3333  D04 00126860 ?SendClientData@CServer@@QAEXJ@Z
       3334  D05 0011DC60 ?SendData@CNet@@AAEHABHABGABE2AAVCNetMessage@@@Z
       3335  D06 0011D420 ?SendData_IP@CNet@@AAEHABHABGABKGAAVCNetMessage@@G@Z
       3336  D07 0011DEC0 ?SendData_Reliable@CNet@@AAEHABGABE1AAVCNetMessage@@@Z
       3337  D08 0011DE90 ?SendData_Unreliable@CNet@@QAEHABGABE1AAVCNetMessage@@@Z
       3338  D09 0011D620 ?SendData_Unreliable@CNet@@QAEHABGABEAAVCNetMessage@@ABK0@Z
       3339  D0A 0011D7A0 ?SendData_Unreliable_IP@CNet@@QAEHABGABEAAVCNetMessage@@ABK00@Z
       3340  D0B 001B3B90 ?SendDisconnect@IScavengerBrokerNet@@QAEXXZ
       3341  D0C 00124650 ?SendDisconnectMessage@CServer@@QAEXJPBDH@Z
       3342  D0D 0014A840 ?SendEvent@CEntity@@QAEXABVCEntityEvent@@H@Z
       3343  D0E 0014ACC0 ?SendEventInRange@CEntity@@QAEXABVCEntityEvent@@ABV?$AABBox@M$02@@@Z
       3344  D0F 00127B60 ?SendGameStateData@CServer@@QAEXJ@Z
       3345  D10 00124810 ?SendGameStreamBlocks@CServer@@QAEXJ@Z
       3346  D11 00129620 ?SendInfoCreateMapNpcTo@CSessionState@@QAEXKGE@Z
       3347  D12 0012AEB0 ?SendInfoCreateMasterGolemTo@CSessionState@@QAEXKGE@Z
       3348  D13 00129510 ?SendInfoCreateNpcTo@CSessionState@@QAEXKGE@Z
       3349  D14 0012D5E0 ?SendInfoMapItemStatus@CSessionState@@QAEXKGE@Z
       3350  D15 0012B5C0 ?SendLevelChangeNotification@CSessionState@@QAEXAAVCEntityEvent@@@Z
       3351  D16 00124240 ?SendMessageA@CServer@@QAEXAAVCEntityMessage@@@Z
       3352  D17 0011EFE0 ?SendPacket_Reliable@CNet@@QAEXABGABE1AAVCNetMessage@@@Z
       3353  D18 0011EFD0 ?SendPacket_Unreliable@CNet@@QAEXABGABE1AAVCNetMessage@@@Z
       3354  D19 0011D7E0 ?SendPacket_Unreliable_IP@CNet@@QAEXABGABEAAVCNetMessage@@ABK00@Z
       3355  D1A 001C4470 ?SendQMS_Ver1@CQMSLog@@QAEXVCTString@@00@Z
       3356  D1B 0012C490 ?SendQuestSwitchStatus@CSessionState@@QAEXKG@Z
       3357  D1C 00124FC0 ?SendSessionStateData@CServer@@QAEXJ@Z
       3358  D1D 00122540 ?SendSyncData@CPlayerSource@@QAEXXZ
       3359  D1E 0011CE50 ?SendTo@CNet@@AAEHQADGKGW4_PACKET_CRYPT_TYPE@1@@Z
       3360  D1F 0011C2A0 ?SendToClient@CMessageDispatcher@@QAEXJABVCNetworkMessage@@@Z
       3361  D20 0011C300 ?SendToClientReliable@CMessageDispatcher@@QAEXJAAVCTMemoryStream@@@Z
       3362  D21 0011C2D0 ?SendToClientReliable@CMessageDispatcher@@QAEXJABVCNetworkMessage@@@Z
       3363  D22 0011EB10 ?SendToOtherClient@CNet@@QAEXGAAVCNetMessage@@@Z
       3364  D23 0011ED30 ?SendToOtherClientReliable@CNet@@QAEXGAAVCNetMessage@@@Z
       3365  D24 0011EC50 ?SendToOtherNormalClient@CNet@@QAEXGAAVCNetMessage@@@Z
       3366  D25 0011ECC0 ?SendToOtherRelayClient@CNet@@QAEXGAAVCNetMessage@@@Z
       3367  D26 0011C350 ?SendToServer@CMessageDispatcher@@QAEXABVCNetworkMessage@@@Z
       3368  D27 0011C360 ?SendToServerReliable@CMessageDispatcher@@QAEXABVCNetworkMessage@@@Z
       3369  D28 001CEC00 ?SendTouchEvent@CMovableEntity@@QAEXABVCClipMove@@@Z
       3370  D29 001B3B40 ?SendWorldList@IScavengerBrokerNet@@UAEXXZ
       3371  D2A 00124110 ?ServerLoop@CServer@@QAEXXZ
       3372  D2B 001273E0 ?ServerNetProcess@CServer@@QAEXXZ
       3373  D2C 00112B50 ?Server_ClearClient@CCommunicationInterface@@QAEXJ@Z
       3374  D2D 00112AD0 ?Server_Close@CCommunicationInterface@@QAEXXZ
       3375  D2E 00112C30 ?Server_GetClientName@CCommunicationInterface@@QAE?AVCTString@@J@Z
       3376  D2F 00112D10 ?Server_GetClientPendingData@CCommunicationInterface@@QAEKJ@Z
       3377  D30 00112D90 ?Server_GetMaxPendingData@CCommunicationInterface@@QAEKXZ
       3378  D31 00112E10 ?Server_GetTotalPendingData@CCommunicationInterface@@QAEKXZ
       3379  D32 00112A00 ?Server_Init_t@CCommunicationInterface@@QAEXXZ
       3380  D33 00112BC0 ?Server_IsClientLocal@CCommunicationInterface@@QAEHJ@Z
       3381  D34 00112BF0 ?Server_IsClientUsed@CCommunicationInterface@@QAEHJ@Z
       3382  D35 00112E90 ?Server_Receive_Reliable@CCommunicationInterface@@QAEHJPAXAAJ@Z
       3383  D36 00112F10 ?Server_Receive_Unreliable@CCommunicationInterface@@QAEHJPAXAAJ@Z
       3384  D37 00114380 ?Server_Send_Reliable@CCommunicationInterface@@QAEXJPBXJ@Z
       3385  D38 00114410 ?Server_Send_Unreliable@CCommunicationInterface@@QAEXJPBXJ@Z
       3386  D39 00113AB0 ?Server_Update@CCommunicationInterface@@QAEHXZ
       3387  D3A 0012CBC0 ?SessionStateLoop@CSessionState@@QAEXXZ
       3388  D3B 00045ED0 ?Set3DParameters@CSoundObject@@QAEXMMMMH@Z
       3389  D3C 001CE0E0 ?SetAP@CMovableEntity@@UAEXM@Z
       3390  D3D 00157AA0 ?SetAbsolutePosition@CBrushVertex@@QAEXABV?$Vector@N$02@@@Z
       3391  D3E 001224A0 ?SetAction@CPlayerSource@@QAEXABVCPlayerAction@@@Z
       3392  D3F 001CC860 ?SetActionApplied@CMovableEntity@@UAEXXZ
       3393  D40 00006500 ?SetActive@CEntity@@UAEXEH@Z
       3394  D41 001B1810 ?SetActive@CParticle@@QAEXH@Z
       3395  D42 00010A50 ?SetAlive@CEntity@@QAEXXZ
       3396  D43 000D15D0 ?SetAlphaBlendingValue@CModelObject@@QAEXJE@Z
       3397  D44 001B5560 ?SetAlphaData@AccountInfo_s@@QAEXE@Z
       3398  D45 00031380 ?SetAnim@CAnimObject@@QAEXJ@Z
       3399  D46 001B1830 ?SetAnimFPS@CParticle@@QAEXM@Z
       3400  D47 00077630 ?SetAsCurrent@CDrawPort@@QAEXXZ
       3401  D48 000A4BF0 ?SetAsCurrent@CShadowMap@@QAEXXZ
       3402  D49 000A7B00 ?SetAsCurrent@CTextureData@@QAEXJH@Z
       3403  D4A 00010A20 ?SetAsLocalEntity@CEntity@@QAEXXZ
       3404  D4B 00010A10 ?SetAsRemoteEntity@CEntity@@QAEXXZ
       3405  D4C 000E9A90 ?SetAutoMipBrushingOn@CWorldRenderPrefs@@QAEXH@Z
       3406  D4D 001B1C00 ?SetAxisFromMatrix@CControlBone@@QAEXAAY0M@M@Z
       3407  D4E 000DD4F0 ?SetBackgroundColor@CWorld@@QAEXK@Z
       3408  D4F 000E99D0 ?SetBackgroundTextureOn@CWorldRenderPrefs@@QAEXH@Z
       3409  D50 000DD700 ?SetBackgroundViewer@CWorld@@QAEXPAVCEntity@@@Z
       3410  D51 000C8120 ?SetBlendColor@CModelObject@@QAEXK@Z
       3411  D52 00141550 ?SetBoneLength@CControlBone@@QAEXM@Z
       3412  D53 00002460 ?SetCharSpacing@CFontData@@QAEXJ@Z
       3413  D54 001B5BA0 ?SetCloseSlot@FieldInfo@@QAEXE@Z
       3414  D55 00141220 ?SetCoeffFriction@CCollisionCapsule@@QAEXM@Z
       3415  D56 00141150 ?SetCoeffFriction@CCollisionSphere@@QAEXM@Z
       3416  D57 00141210 ?SetCoeffRestitution@CCollisionCapsule@@QAEXM@Z
       3417  D58 00141140 ?SetCoeffRestitution@CCollisionSphere@@QAEXM@Z
       3418  D59 000C0080 ?SetCollisionBox@CEditModel@@QAEXV?$Vector@M$02@@0@Z
       3419  D5A 000BF4A0 ?SetCollisionBoxDimensionEquality@CEditModel@@QAEXJ@Z
       3420  D5B 000BC700 ?SetCollisionBoxName@CEditModel@@QAEXVCTString@@@Z
       3421  D5C 0014A200 ?SetCollisionFlags@CEntity@@QAEXK@Z
       3422  D5D 000C8BB0 ?SetColorName@CModelObject@@QAEXJAAVCTString@@@Z
       3423  D5E 00004B00 ?SetContentType@CBrushSector@@QAEXJ@Z
       3424  D5F 0003AED0 ?SetControlNames@CInput@@QAEXXZ
       3425  D60 00007B80 ?SetCurrRound@FieldInfo@@QAEXE@Z
       3426  D61 00179C50 ?SetCurrentColisionBoxIndex@CModelInstance@@QAEXJ@Z
       3427  D62 00030FC0 ?SetCurrentFrame@CAnimObject@@QAEXI@Z
       3428  D63 000014A0 ?SetCurrentTick@CTimer@@QAEXM@Z
       3429  D64 00098810 ?SetCurrentViewport@CGfxLibrary@@QAEHPAVCViewPort@@@Z
       3430  D65 000874A0 ?SetCurrentViewport_D3D@CGfxLibrary@@AAEHPAVCViewPort@@@Z
       3431  D66 0008CFD0 ?SetCurrentViewport_OGL@CGfxLibrary@@AAEHPAVCViewPort@@@Z
       3432  D67 001B1870 ?SetDamping@CParticle@@QAEXM@Z
       3433  D68 00031810 ?SetData@CAnimObject@@QAEXPAVCAnimData@@@Z
       3434  D69 000CC380 ?SetData@CModelObject@@QAEXPAVCModelData@@@Z
       3435  D6A 00031850 ?SetData_t@CAnimObject@@QAEXABVCTFileName@@@Z
       3436  D6B 000CCF40 ?SetData_t@CModelObject@@QAEXABVCTFileName@@@Z
       3437  D6C 000A6CA0 ?SetData_t@CTextureObject@@QAEXABVCTFileName@@@Z
       3438  D6D 00010A60 ?SetDead@CEntity@@QAEXXZ
       3439  D6E 001505A0 ?SetDefaultProperties@CEntity@@UAEXXZ
       3440  D6F 001CC660 ?SetDefaultProperties@CMovableBrushEntity@@UAEXXZ
       3441  D70 001CDCB0 ?SetDefaultProperties@CMovableEntity@@UAEXXZ
       3442  D71 001D61F0 ?SetDefaultProperties@CMovableModelEntity@@UAEXXZ
       3443  D72 001D8CC0 ?SetDefaultProperties@CPlayerEntity@@UAEXXZ
       3444  D73 000DD500 ?SetDescription@CWorld@@QAEXABVCTString@@@Z
       3445  D74 001CCDE0 ?SetDesiredRotation@CMovableEntity@@QAEXABV?$Vector@M$02@@@Z
       3446  D75 001CCED0 ?SetDesiredTranslation@CMovableEntity@@QAEXABV?$Vector@M$02@@@Z
       3447  D76 00098780 ?SetDeviceLostTime@CGfxLibrary@@QAEXXZ
       3448  D77 0009D060 ?SetDisplayMode@CGfxLibrary@@QAEHW4GfxAPIType@@JJJW4DisplayDepth@@@Z
       3449  D78 000E9B30 ?SetEdgesFillType@CWorldRenderPrefs@@QAEXW4FillType@1@@Z
       3450  D79 000E9B50 ?SetEdgesInkColor@CWorldRenderPrefs@@QAEXK@Z
       3451  D7A 000E9990 ?SetEditorModelsOn@CWorldRenderPrefs@@QAEXH@Z
       3452  D7B 00141590 ?SetElastic@CPonytail@@QAEXH@Z
       3453  D7C 000E9C50 ?SetEmptyBrushModel@CWorldRenderPrefs@@QAEXPAVCModelObject@@@Z
       3454  D7D 001B5B50 ?SetEmptySlot@FieldInfo@@QAEXE@Z
       3455  D7E 000064D0 ?SetEntityClassType@CEntity@@QAEXW4EEntityClassType@@@Z
       3456  D7F 001CC9D0 ?SetEntityIdIndex@CMovableEntity@@QAEXEE@Z
       3457  D80 000B1590 ?SetEnvironment@CSoundLibrary@@QAEXW4SndEnvFX@@@Z
       3458  D81 00004BC0 ?SetEnvironmentType@CBrushSector@@QAEXJ@Z
       3459  D82 00037060 ?SetErrorFatalErrorCallback@@YAXP6AXABVCTString@@@Z@Z
       3460  D83 0003CE10 ?SetErrorInsufficientMemoryCallback@@YAXP6AXJ@Z@Z
       3461  D84 00051F40 ?SetErrorReadingCallback@@YAXP6AXABVCTFileName@@@Z@Z
       3462  D85 00051F50 ?SetErrorWritingCallback@@YAXP6AXABVCTFileName@@@Z@Z
       3463  D86 001B54C0 ?SetEventRound@FieldInfo@@QAEXE@Z
       3464  D87 0004BEB0 ?SetFLOAT@CShell@@QAEXABVCTString@@M@Z
       3465  D88 0005B9F0 ?SetFPUPrecision@@YAXW4FPUPrecisionType@@@Z
       3466  D89 00141000 ?SetFadeInBladePointNum@CBladeTrail@@QAEXJ@Z
       3467  D8A 00141010 ?SetFadeOutBladePointNum@CBladeTrail@@QAEXJ@Z
       3468  D8B 000E99B0 ?SetFieldBrushesOn@CWorldRenderPrefs@@QAEXH@Z
       3469  D8C 001B5E70 ?SetFieldGameExit@FieldInfo@@QAEXXZ
       3470  D8D 00053B40 ?SetFileSize_t@CTFileStream@@QAEXJ@Z
       3471  D8E 00002480 ?SetFixedWidth@CFontData@@QAEXXZ
       3472  D8F 00006600 ?SetFlagOff@CEntity@@QAEXK@Z
       3473  D90 000065F0 ?SetFlagOn@CEntity@@QAEXK@Z
       3474  D91 00141E10 ?SetFlags@CEntity@@QAEXK@Z
       3475  D92 000974E0 ?SetFlags@CTerrain@@QAEXK@Z
       3476  D93 000E9A30 ?SetFogOn@CWorldRenderPrefs@@QAEXH@Z
       3477  D94 00004B60 ?SetFogType@CBrushSector@@QAEXJ@Z
       3478  D95 0007C870 ?SetFont@CDrawPort@@QAEXPAVCFontData@@@Z
       3479  D96 00004B30 ?SetForceType@CBrushSector@@QAEXJ@Z
       3480  D97 000B3280 ?SetFormat@CSoundLibrary@@QAEXW4SoundFormat@1@H@Z
       3481  D98 000B3130 ?SetFormat_internal@CSoundLibrary@@AAEXW4SoundFormat@1@H@Z
       3482  D99 00030840 ?SetFrame@CAnimData@@QAEXJJJ@Z
       3483  D9A 001B1850 ?SetFrameNum@CParticle@@QAEXJ@Z
       3484  D9B 00030330 ?SetFrames@CAnimData@@QAEXJJPAJ@Z
       3485  D9C 001B5A70 ?SetFullRoundEnd@FieldInfo@@QAEXXZ
       3486  D9D 0010A9A0 ?SetGameFinished@CNetworkLibrary@@QAEXXZ
       3487  D9E 00007B20 ?SetGoldSwordMode@FieldInfo@@QAEXH@Z
       3488  D9F 001B1860 ?SetGravity@CParticle@@QAEXM@Z
       3489  DA0 001415A0 ?SetGravityFactor@CPonytail@@QAEXM@Z
       3490  DA1 001CE060 ?SetHP@CMovableEntity@@UAEXM@Z
       3491  DA2 000E9A50 ?SetHazeOn@CWorldRenderPrefs@@QAEXH@Z
       3492  DA3 00004B90 ?SetHazeType@CBrushSector@@QAEXJ@Z
       3493  DA4 00006800 ?SetHealth@CLiveEntity@@QAEXM@Z
       3494  DA5 000C7C90 ?SetHiddenLines@CModelRenderPrefs@@QAEXH@Z
       3495  DA6 000E9930 ?SetHiddenLinesOn@CWorldRenderPrefs@@QAEXH@Z
       3496  DA7 00011700 ?SetHostZombieSlot@FieldInfo@@QAEXE@Z
       3497  DA8 0004BF30 ?SetINDEX@CShell@@QAEXABVCTString@@J@Z
       3498  DA9 001CCBC0 ?SetInitInformation@CMovableEntity@@UAEHUsSummonCreatureData@@H@Z
       3499  DAA 000C7D60 ?SetInkColor@CModelRenderPrefs@@QAEXK@Z
       3500  DAB 00039300 ?SetJoyPolling@CInput@@QAEXH@Z
       3501  DAC 001B0B00 ?SetKeyCmd@CKeyCommand@@QAEXJ@Z
       3502  DAD 00164F50 ?SetLayerParameters@CLightSource@@QAEXAAVCBrushShadowLayer@@AAVCBrushPolygon@@AAVCLightRectangle@@@Z
       3503  DAE 000E9BD0 ?SetLensFlaresType@CWorldRenderPrefs@@QAEXW4LensFlaresType@1@@Z
       3504  DAF 00057B90 ?SetLerp@CTimer@@QAEXM@Z
       3505  DB0 001B1890 ?SetLifeTime@CParticle@@QAEXM@Z
       3506  DB1 00166350 ?SetLightSource@CLightSource@@QAEXABV1@@Z
       3507  DB2 00165170 ?SetLightSourceWithNoDiscarding@CLightSource@@QAEXABV1@@Z
       3508  DB3 00002470 ?SetLineSpacing@CFontData@@QAEXJ@Z
       3509  DB4 0010A970 ?SetLocalPause@CNetworkLibrary@@QAEXH@Z
       3510  DB5 00079620 ?SetLogicalRectInLogical@CDrawPort@@QAEXABV?$AABBox@J$01@@@Z
       3511  DB6 000795C0 ?SetLogicalRectInPhysical@CDrawPort@@QAEXABV?$AABBox@J$01@@@Z
       3512  DB7 00078220 ?SetLogicalRectInRaster@CDrawPort@@QAEXABV?$AABBox@J$01@@@Z
       3513  DB8 001B1840 ?SetLoop@CParticle@@QAEXH@Z
       3514  DB9 000E9AA0 ?SetManualMipBrushingFactor@CWorldRenderPrefs@@QAEXM@Z
       3515  DBA 000C8070 ?SetManualMipLevel@CModelObject@@QAEXJ@Z
       3516  DBB 001413F0 ?SetMass@CDynParticle@@QAEXM@Z
       3517  DBC 0012C760 ?SetMasterClient@CSessionState@@QAEXH@Z
       3518  DBD 001297B0 ?SetMasterClient_EventRound@CSessionState@@QAEXH@Z
       3519  DBE 001AE730 ?SetMaxBladePoint@CBladeTrail@@QAEXJ@Z
       3520  DBF 00007B60 ?SetMaxRound@FieldInfo@@QAEXJ@Z
       3521  DC0 00007BB0 ?SetMaxRoundTime@FieldInfo@@QAEXM@Z
       3522  DC1 000E9BF0 ?SetMinimumRenderRange@CWorldRenderPrefs@@QAEXM@Z
       3523  DC2 00156930 ?SetMipDistance@CBrushMip@@QAEXM@Z
       3524  DC3 000C8B70 ?SetMipSwitchFactor@CModelObject@@QAEXJM@Z
       3525  DC4 000E9A70 ?SetMirrorsOn@CWorldRenderPrefs@@QAEXH@Z
       3526  DC5 00149C90 ?SetModel@CEntity@@QAEXABVCTFileName@@@Z
       3527  DC6 00149D90 ?SetModel@CEntity@@QAEXJ@Z
       3528  DC7 0017AB40 ?SetModelAlpha@CModelInstance@@QAEXE@Z
       3529  DC8 00142930 ?SetModelAttachmentReflectionTexture@CEntity@@QAEXJJ@Z
       3530  DC9 00142970 ?SetModelAttachmentSpecularTexture@CEntity@@QAEXJJ@Z
       3531  DCA 00141F60 ?SetModelColor@CEntity@@QAEXK@Z
       3532  DCB 0017AB00 ?SetModelColor@CModelInstance@@QAEXK@Z
       3533  DCC 0017ABD0 ?SetModelDyeingAlpha@CModelInstance@@QAEXE@Z
       3534  DCD 0017AB90 ?SetModelDyeingColor@CModelInstance@@QAEXK@Z
       3535  DCE 00142670 ?SetModelMainTexture@CEntity@@QAEXABVCTFileName@@@Z
       3536  DCF 00142750 ?SetModelMainTexture@CEntity@@QAEXJ@Z
       3537  DD0 001427A0 ?SetModelReflectionTexture@CEntity@@QAEXJ@Z
       3538  DD1 001427D0 ?SetModelSpecularTexture@CEntity@@QAEXJ@Z
       3539  DD2 000D1960 ?SetModelView@CRenderModel@@QAEXXZ
       3540  DD3 000BB520 ?SetModel_t@CAttachedModel@@QAEXVCTFileName@@@Z
       3541  DD4 000307D0 ?SetName@CAnimData@@QAEXJVCTString@@@Z
       3542  DD5 00179850 ?SetName@CModelInstance@@QAEXABVCTString@@@Z
       3543  DD6 00151ED0 ?SetName@CPlayerCharacter@@QAEXVCTString@@@Z
       3544  DD7 000DD540 ?SetName@CWorld@@QAEXABVCTString@@@Z
       3545  DD8 001B5E60 ?SetNewGolemModeNpcData@FieldInfo@@QAEXAAVNewGolemNpcSetData@@@Z
       3546  DD9 00113990 ?SetNonBlocking_t@CCommunicationInterface@@QAEXXZ
       3547  DDA 000D15A0 ?SetObjectPlacement@CRenderModel@@QAEXABV?$Vector@M$02@@ABV?$Matrix@M$02$02@@@Z
       3548  DDB 000D1570 ?SetObjectPlacement@CRenderModel@@QAEXABVCPlacement3D@@@Z
       3549  DDC 0017A010 ?SetOffset@CModelInstance@@QAEXQAM@Z
       3550  DDD 00179740 ?SetOffsetPos@CModelInstance@@QAEXV?$Vector@M$02@@@Z
       3551  DDE 0017A090 ?SetOffsetRot@CModelInstance@@QAEXV?$Vector@M$02@@@Z
       3552  DDF 00078270 ?SetOrtho@CDrawPort@@QBEXXZ
       3553  DE0 00038C60 ?SetOverlappedRendering@CDrawPort@@QAEXH@Z
       3554  DE1 00045EC0 ?SetOwner@CSoundObject@@QAEXPAVCEntity@@@Z
       3555  DE2 00141580 ?SetPT_NUM@CPonytail@@QAEXH@Z
       3556  DE3 000C7D80 ?SetPaperColor@CModelRenderPrefs@@QAEXK@Z
       3557  DE4 00141E20 ?SetParent@CEntity@@QAEXPAV1@@Z
       3558  DE5 00179730 ?SetParentBone@CModelInstance@@QAEXJ@Z
       3559  DE6 00030F00 ?SetPassedTime@CAnimObject@@QAEXM@Z
       3560  DE7 000C2430 ?SetPatchStretch@CEditModel@@QAEXJM@Z
       3561  DE8 000C80C0 ?SetPatchesMask@CModelObject@@QAEXK@Z
       3562  DE9 00079560 ?SetPhysicalRectInLogical@CDrawPort@@QAEXABV?$AABBox@J$01@@@Z
       3563  DEA 00079500 ?SetPhysicalRectInPhysical@CDrawPort@@QAEXABV?$AABBox@J$01@@@Z
       3564  DEB 000781A0 ?SetPhysicalRectInRaster@CDrawPort@@QAEXABV?$AABBox@J$01@@@Z
       3565  DEC 0014A1E0 ?SetPhysicsFlags@CEntity@@QAEXK@Z
       3566  DED 000B5C00 ?SetPitch@CSoundObject@@QAEXMH@Z
       3567  DEE 00143950 ?SetPlacement@CEntity@@QAEXABVCPlacement3D@@@Z
       3568  DEF 001CD0A0 ?SetPlacementFromNextPosition@CMovableEntity@@QAEXXZ
       3569  DF0 00148960 ?SetPlacement_special@CEntity@@UAEXABVCPlacement3D@@ABV?$Matrix@M$02$02@@K@Z
       3570  DF1 000E9B70 ?SetPolygonsFillType@CWorldRenderPrefs@@QAEXW4FillType@1@@Z
       3571  DF2 000E9B90 ?SetPolygonsInkColor@CWorldRenderPrefs@@QAEXK@Z
       3572  DF3 00052810 ?SetPos_t@CTStream@@QAEXJ@Z
       3573  DF4 00141240 ?SetPosition0@CCollisionCapsule@@QAEXV?$Vector@M$02@@@Z
       3574  DF5 00141260 ?SetPosition1@CCollisionCapsule@@QAEXV?$Vector@M$02@@@Z
       3575  DF6 0014C910 ?SetPosition@CDynParticle@@QAEXMMM@Z
       3576  DF7 00141400 ?SetPosition@CDynParticle@@QAEXV?$Vector@M$02@@@Z
       3577  DF8 001B5870 ?SetPowerUser@AccountInfo_s@@QAEXH@Z
       3578  DF9 00044E60 ?SetProgressDescription@@YAXABVCTString@@@Z
       3579  DFA 00044F00 ?SetProgressFile@@YAXABVCTFileName@@@Z
       3580  DFB 00044CE0 ?SetProgressHook@@YAXP6AXPAVCProgressHookInfo@@@Z@Z
       3581  DFC 00079B10 ?SetProjection@CDrawPort@@QBEXAAVCAnyProjection3D@@@Z
       3582  DFD 00032EE0 ?SetPutTextCallback@@YAXP6AXVCTString@@@Z@Z
       3583  DFE 00141230 ?SetRadius@CCollisionCapsule@@QAEXM@Z
       3584  DFF 00141160 ?SetRadius@CCollisionSphere@@QAEXM@Z
       3585  E00 001B1880 ?SetRandomVel@CParticle@@QAEXM@Z
       3586  E01 000B5FA0 ?SetRange@CSoundObject@@QAEXMMH@Z
       3587  E02 0010AA70 ?SetRealTimeFactor@CNetworkLibrary@@QAEXM@Z
       3588  E03 001CC890 ?SetReapplyingActions@CMovableEntity@@UAEXXZ
       3589  E04 0011C9A0 ?SetRelayIP@CNet@@QAEXABK@Z
       3590  E05 0011C9B0 ?SetRelayPort@CNet@@QAEXABG@Z
       3591  E06 000C7C20 ?SetRenderType@CModelRenderPrefs@@QAEXK@Z
       3592  E07 000C7E90 ?SetRenderingParameters@MappingSurface@@QAEXK@Z
       3593  E08 001B4D50 ?SetRestRoundTime@FieldInfo@@QAEXM@Z
       3594  E09 00129A70 ?SetRoundState@CSessionState@@QAEXH@Z
       3595  E0A 00007AF0 ?SetRoundState@FieldInfo@@QAEXW4ERoundState@@@Z
       3596  E0B 001AE750 ?SetSegment@CBladeTrail@@QAEXJ@Z
       3597  E0C 000E9C10 ?SetSelectedEntityModel@CWorldRenderPrefs@@QAEXPAVCModelObject@@@Z
       3598  E0D 000E9C30 ?SetSelectedPortalModel@CWorldRenderPrefs@@QAEXPAVCModelObject@@@Z
       3599  E0E 000E9C70 ?SetSelectionType@CWorldRenderPrefs@@QAEXW4SelectionType@1@@Z
       3600  E0F 000C7C50 ?SetShadingType@CModelRenderPrefs@@QAEXK@Z
       3601  E10 000C7CC0 ?SetShadowQuality@CModelRenderPrefs@@QAEXJ@Z
       3602  E11 000E9BB0 ?SetShadowsType@CWorldRenderPrefs@@QAEXW4ShadowsType@1@@Z
       3603  E12 000E9970 ?SetShowEntityNamesOn@CWorldRenderPrefs@@QAEXH@Z
       3604  E13 000E9950 ?SetShowTargetsOn@CWorldRenderPrefs@@QAEXH@Z
       3605  E14 00179970 ?SetSingleModelDyeingColor@CModelInstance@@QAEXK@Z
       3606  E15 00149DD0 ?SetSkaColisionInfo@CEntity@@QAEXXZ
       3607  E16 00149F30 ?SetSkaModel@CEntity@@QAEHABVCTString@@@Z
       3608  E17 0014A030 ?SetSkaModel@CEntity@@QAEXJ@Z
       3609  E18 00149E80 ?SetSkaModel_t@CEntity@@QAEXABVCTString@@@Z
       3610  E19 000024A0 ?SetSpaceWidth@CFontData@@QAEXM@Z
       3611  E1A 00006640 ?SetSpawnFlags@CEntity@@QAEXK@Z
       3612  E1B 000DD580 ?SetSpawnFlags@CWorld@@QAEXK@Z
       3613  E1C 00152130 ?SetSpecies@CPlayerCharacter@@QAEXVCTString@@@Z
       3614  E1D 00030800 ?SetSpeed@CAnimData@@QAEXJM@Z
       3615  E1E 0004BFD0 ?SetString@CShell@@QAEXABVCTString@@0@Z
       3616  E1F 000C8C90 ?SetSurfaceColor@CModelObject@@QAEXJJK@Z
       3617  E20 000C8D70 ?SetSurfaceRenderFlags@CModelObject@@QAEXJJW4SurfaceShadingType@@W4SurfaceTranslucencyType@@K@Z
       3618  E21 00152000 ?SetTeam@CPlayerCharacter@@QAEXVCTString@@@Z
       3619  E22 00038CD0 ?SetTextAspect@CDrawPort@@QAEXM@Z
       3620  E23 00038CF0 ?SetTextBlendingType@CDrawPort@@QAEXK@Z
       3621  E24 00038CA0 ?SetTextCharSpacing@CDrawPort@@QAEXJ@Z
       3622  E25 00038D00 ?SetTextFlags@CDrawPort@@QAEXK@Z
       3623  E26 00038CB0 ?SetTextLineSpacing@CDrawPort@@QAEXJ@Z
       3624  E27 00038D10 ?SetTextMode@CDrawPort@@QAEXJ@Z
       3625  E28 00038CC0 ?SetTextScaling@CDrawPort@@QAEXM@Z
       3626  E29 00038CE0 ?SetTextShadow@CDrawPort@@QAEXM@Z
       3627  E2A 000C80D0 ?SetTextureData@CModelObject@@QAEXPAVCTextureData@@@Z
       3628  E2B 000E9AD0 ?SetTextureLayerOn@CWorldRenderPrefs@@QAEXHJ@Z
       3629  E2C 000C7C30 ?SetTextureType@CModelRenderPrefs@@QAEXK@Z
       3630  E2D 00006560 ?SetTimerAfter@CEntity@@QAEXM@Z
       3631  E2E 001443C0 ?SetTimerAfter@CRationalEntity@@QAEXM@Z
       3632  E2F 00006550 ?SetTimerAt@CEntity@@QAEXM@Z
       3633  E30 00144340 ?SetTimerAt@CRationalEntity@@QAEXM@Z
       3634  E31 0004C120 ?SetValue@CShell@@QAEXABVCTString@@0@Z
       3635  E32 00002490 ?SetVariableWidth@CFontData@@QAEXXZ
       3636  E33 00141420 ?SetVelocity@CDynParticle@@QAEXV?$Vector@M$02@@@Z
       3637  E34 000E9AF0 ?SetVerticesFillType@CWorldRenderPrefs@@QAEXW4FillType@1@@Z
       3638  E35 000E9B10 ?SetVerticesInkColor@CWorldRenderPrefs@@QAEXK@Z
       3639  E36 000E99F0 ?SetVisTweaksOn@CWorldRenderPrefs@@QAEXH@Z
       3640  E37 000B5EB0 ?SetVolume@CSoundObject@@QAEXMH@Z
       3641  E38 001D8D40 ?SetWeaponAndAnimator@CPlayerEntity@@UAEXXZ
       3642  E39 001B54F0 ?SetWins@CTeamInfo@@QAEXJ@Z
       3643  E3A 000C7C70 ?SetWire@CModelRenderPrefs@@QAEXH@Z
       3644  E3B 001B5500 ?Set_RoundTeamKillCount@CTeamInfo@@QAEXJ@Z
       3645  E3C 000D3A00 ?SetupModelRendering@CModelObject@@QAEXAAVCRenderModel@@@Z
       3646  E3D 0008B980 ?SetupPixelFormat_OGL@CGfxLibrary@@AAEHPAUHDC__@@H@Z
       3647  E3E 000DDE70 ?ShowAllEntities@CWorld@@QAEXXZ
       3648  E3F 000DDF90 ?ShowAllSectors@CWorld@@QAEXXZ
       3649  E40 000C91A0 ?ShowPatch@CModelObject@@QAEXJ@Z
       3650  E41 00120880 ?Shrink@CNetworkMessage@@QAEXXZ
       3651  E42 0003CE00 ?ShrinkMemory@@YAXPAPAXJ@Z
       3652  E43 000B11B0 ?ShutDown_dsound@CSoundLibrary@@AAEXXZ
       3653  E44 000B2A60 ?ShutDown_waveout@CSoundLibrary@@AAEXXZ
       3654  E45 0005BB60 ?Sin@@YAMM@Z
       3655  E46 00001EC0 ?SinFast@@YAMM@Z
       3656  E47 00049410 ?SkipModelInstance_t@@YAXAAVCTStream@@@Z
       3657  E48 0005BB20 ?Snap@@YAXAAMM@Z
       3658  E49 0005BAF0 ?Snap@@YAXAANN@Z
       3659  E4A 0003CB60 ?Sort@CListHead@@QAEXP6AHPBX0@ZH@Z
       3660  E4B 0018EA20 ?SortSkeleton@CSkeleton@@QAEXXZ
       3661  E4C 0018E1A0 ?SortSkeletonRecursive@CSkeleton@@QAEXJJ@Z
       3662  E4D 0014E9F0 ?SphereTouchesBrushPolygon@CClipTest@@QAEHABVCMovingSphere@@PAVCBrushPolygon@@@Z
       3663  E4E 000355D0 ?Split@CTString@@QAEXJAAV1@0@Z
       3664  E4F 000EBAA0 ?SplitOneSector@CWorld@@QAEXAAVCBrushSector@@AAVCObject3D@@@Z
       3665  E50 000EBED0 ?SplitPolygons@CWorld@@QAEXAAVCEntity@@AAV?$CSelection@VCBrushPolygon@@$0BAA@@@AAV1@0ABVCPlacement3D@@@Z
       3666  E51 000EC8B0 ?SplitSectors@CWorld@@QAEXAAVCEntity@@AAV?$CSelection@VCBrushSector@@$00@@AAV1@0ABVCPlacement3D@@@Z
       3667  E52 001761C0 ?SplitSurfaces@CMesh@@QAEXAAUMeshLOD@@@Z
       3668  E53 001568E0 ?SpreadFurtherMips@CBrushMip@@QAEXXZ
       3669  E54 000C7E00 ?SpreadMipSwitchFactors@CModelData@@QAEXJM@Z
       3670  E55 001BFEA0 ?Start@CAOTimeInfo@@QAEXK@Z
       3671  E56 001B4B70 ?Start@CAOTimeOld@@QAEXK@Z
       3672  E57 000313C0 ?StartAnim@CAnimObject@@QAEXJ@Z
       3673  E58 001116A0 ?StartDemoPlay_t@CNetworkLibrary@@QAEXABVCTFileName@@@Z
       3674  E59 0010B8E0 ?StartDemoRec_t@CNetworkLibrary@@QAEXABVCTFileName@@@Z
       3675  E5A 000985A0 ?StartDisplayMode@CGfxLibrary@@AAEHW4GfxAPIType@@JJJW4DisplayDepth@@@Z
       3676  E5B 00141F90 ?StartModelAnim@CEntity@@QAEXJKH@Z
       3677  E5C 00142790 ?StartModelMainTextureAnim@CEntity@@QAEXJ@Z
       3678  E5D 00127940 ?StartNewTick@CServer@@QAEXM@Z
       3679  E5E 0010FEC0 ?StartPeerToPeer_t@CNetworkLibrary@@QAEXABVCTString@@ABVCTFileName@@KJHPAX@Z
       3680  E5F 00044FF0 ?StartProgress@@YAXXZ
       3681  E60 0011C1A0 ?StartProvider_t@CMessageDispatcher@@QAEXABVCNetworkProvider@@@Z
       3682  E61 000B16B0 ?StartUp_dsound@CSoundLibrary@@AAEHH@Z
       3683  E62 000B2C60 ?StartUp_waveout@CSoundLibrary@@AAEHH@Z
       3684  E63 0012F480 ?Start_AtClient_t@CSessionState@@QAEXJVCTFileName@@@Z
       3685  E64 00129CA0 ?Start_AtServer_t@CSessionState@@QAEXXZ
       3686  E65 00122880 ?Start_t@CPlayerSource@@QAEXAAVCPlayerCharacter@@@Z
       3687  E66 00125620 ?Start_t@CServer@@QAEXXZ
       3688  E67 0012F6A0 ?Start_t@CSessionState@@QAEXJVCTFileName@@@Z
       3689  E68 000A5E80 ?Stereo_AdjustProjection@@YAXAAVCProjection3D@@JM@Z
       3690  E69 000A5DF0 ?Stereo_IsEnabled@@YAHXZ
       3691  E6A 000A5E00 ?Stereo_SetBuffer@@YAXJ@Z
       3692  E6B 001BFED0 ?Stop@CAOTimeInfo@@QAEXXZ
       3693  E6C 00122490 ?Stop@CPlayerSource@@QAEXXZ
       3694  E6D 00127710 ?Stop@CServer@@QAEXXZ
       3695  E6E 0012B3E0 ?Stop@CSessionState@@QAEXXZ
       3696  E6F 000B68A0 ?Stop@CSoundObject@@QAEXH@Z
       3697  E70 00142110 ?StopAllAnimations@CEntity@@QAEXXZ
       3698  E71 0017C270 ?StopAllAnimations@CModelInstance@@QAEXM@Z
       3699  E72 0010A840 ?StopDemoRec@CNetworkLibrary@@QAEXXZ
       3700  E73 0009C420 ?StopDisplayMode@CGfxLibrary@@QAEXXZ
       3701  E74 0010F120 ?StopGame@CNetworkLibrary@@QAEXXZ
       3702  E75 001242B0 ?StopNetProcess@CServer@@QAEXXZ
       3703  E76 000450D0 ?StopProgress@@YAXXZ
       3704  E77 0011C210 ?StopProvider@CMessageDispatcher@@QAEXXZ
       3705  E78 000B6150 ?Stop_internal@CSoundObject@@QAEXH@Z
       3706  E79 0004C1D0 ?StorePersistentSymbols@CShell@@QAEXABVCTFileName@@@Z
       3707  E7A 00143E60 ?StretchModel@CEntity@@QAEXAAV?$Vector@M$02@@J@Z
       3708  E7B 001797A0 ?StretchModel@CModelInstance@@QAEXAAV?$Vector@M$02@@@Z
       3709  E7C 000C9730 ?StretchModel@CModelObject@@QAEXABV?$Vector@M$02@@@Z
       3710  E7D 000C9770 ?StretchModelRelative@CModelObject@@QAEXABV?$Vector@M$02@@@Z
       3711  E7E 00143F40 ?StretchSingleModel@CEntity@@QAEXAAV?$Vector@M$02@@J@Z
       3712  E7F 0017A100 ?StretchSingleModel@CModelInstance@@QAEXAAV?$Vector@M$02@@@Z
       3713  E80 000C80F0 ?StretchSingleModel@CModelObject@@QAEXABV?$Vector@M$02@@@Z
       3714  E81 000342E0 ?StringDuplicate@@YAPADPBD@Z
       3715  E82 00034320 ?StringDuplicate@@YAPADPBG@Z
       3716  E83 00034240 ?StringFree@@YAXPAD@Z
       3717  E84 001122F0 ?StringToAddress@@YAKABVCTString@@@Z
       3718  E85 00035A40 ?SubString@CTString@@QBE?AV1@JJ@Z
       3719  E86 0015B8E0 ?SubdivideTriangles@CBrushSector@@QAEXAAV?$CSelection@VCBrushPolygon@@$0BAA@@@@Z
       3720  E87 00001360 ?Succ@CListNode@@QBEAAV1@XZ
       3721  E88 000C9140 ?SurfacesCt@CModelObject@@QAEJJ@Z
       3722  E89 0009C600 ?SwapBuffers@CGfxLibrary@@QAEXPAVCViewPort@@H@Z
       3723  E8A 000AEFB0 ?SwapBuffers@CViewPort@@QAEXH@Z
       3724  E8B 000314D0 ?SwitchToAnim@CAnimObject@@QAEXJ@Z
       3725  E8C 00141F30 ?SwitchToEditorModel@CEntity@@QAEXXZ
       3726  E8D 00141F00 ?SwitchToModel@CEntity@@QAEXXZ
       3727  E8E 00152D40 ?SwitchToNonZoning@CBrush3D@@QAEXXZ
       3728  E8F 00152DE0 ?SwitchToZoning@CBrush3D@@QAEXXZ
       3729  E90 000312C0 ?Synchronize@CAnimObject@@QAEXAAV1@@Z
       3730  E91 0017C5F0 ?Synchronize@CModelInstance@@QAEXAAV1@@Z
       3731  E92 000CA5D0 ?Synchronize@CModelObject@@QAEXAAV1@@Z
       3732  E93 001925A0 ?TRE_FreeBufferForEditing@@YAXPAG@Z
       3733  E94 00192630 ?TRE_GetBufferForEditing@@YAPAGPAVCTerrain@@VCTRect@@W4BufferType@@J@Z
       3734  E95 00192840 ?TRE_SetBufferForEditing@@YAXPAVCTerrain@@PAGVCTRect@@W4BufferType@@J@Z
       3735  E96 00192520 ?TRE_ShowSelection@@YAXPBVCTerrain@@AAVCTRect@@PAVCTextureData@@KMW4SelectionFill@@W4BufferType@@@Z
       3736  E97 00197390 ?TRL_ApplyLayerMatrix@@YAXPAVCTerrain@@J@Z
       3737  E98 00197C40 ?TRL_CreateLayer_t@@YAJPAVCTerrain@@ABVCTFileName@@@Z
       3738  E99 00197DA0 ?TRL_DeleteLayer@@YAXPAVCTerrain@@JH@Z
       3739  E9A 00197160 ?TRL_ExportLayerMask_t@@YAXPAVCTerrain@@JABVCTFileName@@@Z
       3740  E9B 00197150 ?TRL_ExportLayerMask_t@@YAXPAVCTerrain@@PAVCTerrainLayer@@ABVCTFileName@@@Z
       3741  E9C 00197340 ?TRL_FillLayerData@@YAXPAVCTerrain@@JE@Z
       3742  E9D 001972A0 ?TRL_GetLayerTexture_t@@YAPAVCTextureData@@PAVCTerrain@@J@Z
       3743  E9E 00197650 ?TRL_GetLayerThumbnail@@YAPAVCTextureData@@PAVCTerrain@@JJJ@Z
       3744  E9F 00197620 ?TRL_ImportLayerMask_t@@YAXPAVCTerrain@@JABVCTFileName@@@Z
       3745  EA0 00197530 ?TRL_ImportLayerMask_t@@YAXPAVCTerrain@@PAVCTerrainLayer@@ABVCTFileName@@@Z
       3746  EA1 00197940 ?TRL_ReadLayerData_t@@YAXPAVCTerrain@@JPAVCTStream@@@Z
       3747  EA2 00197EE0 ?TRL_SetLayerIndex@@YAJPAVCTerrain@@JJ@Z
       3748  EA3 00197270 ?TRL_SetLayerTexture_t@@YAXPAVCTerrain@@JABVCTFileName@@@Z
       3749  EA4 00197130 ?TRL_SetLayerTexture_t@@YAXPAVCTerrain@@PAVCTerrainLayer@@ABVCTFileName@@@Z
       3750  EA5 001979D0 ?TRL_WriteLayerData_t@@YAXPAVCTerrain@@JPAVCTStream@@@Z
       3751  EA6 001A1540 ?TRS_AddDirectionalLight@@YAXKKVCPlacement3D@@@Z
       3752  EA7 001A14B0 ?TRS_AddPointLight@@YAXMMKVCPlacement3D@@@Z
       3753  EA8 0019FAE0 ?TRS_BeginShadowMapUpdate@@YAXPAVCTerrain@@@Z
       3754  EA9 001A15C0 ?TRS_ColectLightsFromWorld@@YAXPAVCTerrain@@@Z
       3755  EAA 0019FB80 ?TRS_EndShadowMapUpdate@@YAXPAVCTerrain@@@Z
       3756  EAB 0019FA60 ?TRS_SetTerrainPlacement@@YAXAAY0M@$$CBM@Z
       3757  EAC 0019FAF0 ?TRS_SetTerrainPlacement@@YAXABVCPlacement3D@@@Z
       3758  EAD 001A12E0 ?TRS_UpdateShadowMap@@YAXPAVCTerrain@@V?$AABBox@M$02@@@Z
       3759  EAE 0019EF00 ?TR_AddTerrainViewer@@YAXPBVCTerrain@@V?$Vector@M$02@@M@Z
       3760  EAF 0019A5F0 ?TR_AreHardwareShadersAvailable@@YAHXZ
       3761  EB0 0019B090 ?TR_BeginRenderingView@@YAXAAVCAnyProjection3D@@PAVCDrawPort@@@Z
       3762  EB1 00190FF0 ?TR_BindTerrainTextures@@YAXPAVCTerrain@@@Z
       3763  EB2 00198960 ?TR_CalcShadingTC@@YA?AV?$Vector@M$01@@PBVCTerrain@@ABV?$Vector@M$02@@AAY0M@$$CBM@Z
       3764  EB3 0019A8E0 ?TR_CleanRender@@YAXPAVCTerrain@@@Z
       3765  EB4 00195250 ?TR_ClearTerrain@@YAXPAVCTerrain@@@Z
       3766  EB5 00191550 ?TR_CopyTerrain@@YAXPAVCTerrain@@PBV1@@Z
       3767  EB6 00190C20 ?TR_DiscardShadingInfos@@YAXPAVCTerrain@@@Z
       3768  EB7 0019A6A0 ?TR_EndRenderingView@@YAXXZ
       3769  EB8 00192DC0 ?TR_ExportEdgeMap_t@@YAXPAVCTerrain@@ABVCTFileName@@@Z
       3770  EB9 00192BD0 ?TR_ExportHeightMap_t@@YAXPAVCTerrain@@ABVCTFileName@@H@Z
       3771  EBA 00198A40 ?TR_ExtractPoligonsInRect@@YAXPBVCTerrain@@ABVCTRect@@PAPAV?$Vector@M$02@@AAJPAPAG3@Z
       3772  EBB 00199060 ?TR_ExtractPolygonsInBox@@YAXPBVCTerrain@@ABV?$AABBox@M$02@@AAY0M@$$CBMPAPAV?$Vector@M$02@@AAJPAPAG4@Z
       3773  EBC 00191210 ?TR_FillEdgeMap@@YAXPAVCTerrain@@E@Z
       3774  EBD 00190B20 ?TR_FillHeightMap@@YAXPAVCTerrain@@G@Z
       3775  EBE 0019A6D0 ?TR_ForceCustomTileLOD@@YAXJ@Z
       3776  EBF 00190BC0 ?TR_GetHeightMapHeight@@YAJPBVCTerrain@@@Z
       3777  EC0 00190BB0 ?TR_GetHeightMapWidth@@YAJPBVCTerrain@@@Z
       3778  EC1 00198900 ?TR_GetMatrixFromEntity@@YAXAAY0M@MPBVCTerrain@@@Z
       3779  EC2 00191700 ?TR_GetPlaneFromPoint@@YA?AV?$Plane@M$02@@PBVCTerrain@@AAY0M@$$CBMABV?$Vector@M$02@@@Z
       3780  EC3 001985C0 ?TR_GetShadeColor@@YAKPBVCTerrain@@PAVCShadingInfo@@@Z
       3781  EC4 00190B60 ?TR_GetShadingMapAspect@@YAJPBVCTerrain@@@Z
       3782  EC5 00190B50 ?TR_GetShadowMapAspect@@YAJPBVCTerrain@@@Z
       3783  EC6 001911A0 ?TR_GetStretchedTerrainBBox@@YA?AV?$AABBox@M$02@@PBVCTerrain@@@Z
       3784  EC7 00191140 ?TR_GetTerrainBBox@@YA?AV?$AABBox@M$02@@PBVCTerrain@@@Z
       3785  EC8 00198150 ?TR_GetTerrainInfo@@YA?AVCTString@@PBVCTerrain@@@Z
       3786  EC9 00190B90 ?TR_GetTerrainSize@@YA?AV?$Vector@M$02@@PBVCTerrain@@@Z
       3787  ECA 00190BF0 ?TR_GetTerrainStretch@@YA?AV?$Vector@M$02@@PBVCTerrain@@@Z
       3788  ECB 00190BE0 ?TR_GetTopMapHeight@@YAJPBVCTerrain@@@Z
       3789  ECC 00190BD0 ?TR_GetTopMapWidth@@YAJPBVCTerrain@@@Z
       3790  ECD 00192CE0 ?TR_ImportEdgeMap_t@@YAXPAVCTerrain@@ABVCTFileName@@@Z
       3791  ECE 00196120 ?TR_ImportHeightMap_t@@YAXPAVCTerrain@@ABVCTFileName@@H@Z
       3792  ECF 00190C10 ?TR_IsTerrainBelowPoint@@YAHPBVCTerrain@@ABV?$Vector@M$02@@M1@Z
       3793  ED0 00196050 ?TR_RegenerateAll@@YAXPAVCTerrain@@@Z
       3794  ED1 00198500 ?TR_RelFromAbsPoint@@YA?AV?$Vector@J$01@@PBVCTerrain@@ABV?$Vector@M$02@@AAY0M@$$CBM@Z
       3795  ED2 0019F230 ?TR_RenderTerrain@@YAXPAVCTerrain@@@Z
       3796  ED3 0019F2C0 ?TR_RenderWireFrame@@YAXPAVCTerrain@@K@Z
       3797  ED4 0019A6C0 ?TR_SetCurrentDistance@@YAXM@Z
       3798  ED5 00190B70 ?TR_SetDistanceFactor@@YAXPAVCTerrain@@M@Z
       3799  ED6 00196070 ?TR_SetHeightMapSize@@YAXPAVCTerrain@@JJ@Z
       3800  ED7 00194810 ?TR_SetShadowMapSize@@YAXPAVCTerrain@@JJ@Z
       3801  ED8 0019A860 ?TR_SetTerrainPlacement@@YAXABV?$Matrix@M$02$02@@ABV?$Vector@M$02@@@Z
       3802  ED9 0019A7C0 ?TR_SetTerrainPlacement@@YAXABVCPlacement3D@@@Z
       3803  EDA 00191250 ?TR_SetTerrainSize@@YAXPAVCTerrain@@V?$Vector@M$02@@@Z
       3804  EDB 001948A0 ?TR_SetTopMapSize@@YAXPAVCTerrain@@JJ@Z
       3805  EDC 0019A2B0 ?TR_TestRayCastHit@@YAMPAVCTerrain@@ABV?$Matrix@M$02$02@@ABV?$Vector@M$02@@V3@3MH@Z
       3806  EDD 0019A3E0 ?TR_TestRayCastHit@@YAMPAVCTerrain@@ABV?$Matrix@M$02$02@@ABV?$Vector@M$02@@V3@3MHAAV?$Plane@M$02@@AAV3@@Z
       3807  EDE 00191070 ?TR_UnbindTerrainTextures@@YAXPAVCTerrain@@@Z
       3808  EDF 00190A80 ?TR_UpdateShadowMap@@YAXPAVCTerrain@@AAY0M@$$CBMV?$AABBox@M$02@@H@Z
       3809  EE0 00190AF0 ?TR_UpdateTopMap@@YAXPAVCTerrain@@@Z
       3810  EE1 00001440 ?Tail@CListHead@@QBEAAVCListNode@@XZ
       3811  EE2 0005BC60 ?Tan@@YAMM@Z
       3812  EE3 00001F00 ?TanFast@@YAMM@Z
       3813  EE4 0014B000 ?Teleport@CEntity@@QAEXABVCPlacement3D@@H@Z
       3814  EE5 001458B0 ?TerrainChangeNotify@CEntity@@QAEXXZ
       3815  EE6 00069960 ?TestBoxToFrustum@CIsometricProjection3D@@UBEJABV?$OBBox@M@@@Z
       3816  EE7 0006BAB0 ?TestBoxToFrustum@CParallelProjection3D@@UBEJABV?$OBBox@M@@@Z
       3817  EE8 0006CFA0 ?TestBoxToFrustum@CPerspectiveProjection3D@@UBEJABV?$OBBox@M@@@Z
       3818  EE9 0006E920 ?TestBoxToFrustum@CSimpleProjection3D@@UBEJABV?$OBBox@M@@@Z
       3819  EEA 001CCA40 ?TestBreathing@CMovableEntity@@QAEXAAVCContentType@@@Z
       3820  EEB 000F41C0 ?TestBrushSector@CCastRay@@QAEXPAVCBrushSector@@@Z
       3821  EEC 001CE9A0 ?TestContentDamage@CMovableEntity@@QAEXAAVCContentType@@M@Z
       3822  EED 0008C100 ?TestExtension_OGL@CGfxLibrary@@AAEXKPBD@Z
       3823  EEE 001D06A0 ?TestFields@CMovableEntity@@QAEXAAJ0AAM@Z
       3824  EEF 000F3740 ?TestModel@CCastRay@@QAEXPAVCEntity@@@Z
       3825  EF0 000F3280 ?TestModelCollisionBox@CCastRay@@QAEXPAVCEntity@@@Z
       3826  EF1 000F3490 ?TestModelFull@CCastRay@@QAEXPAVCEntity@@AAVCModelObject@@@Z
       3827  EF2 000F3050 ?TestModelSimple@CCastRay@@QAEXPAVCEntity@@AAVCModelObject@@@Z
       3828  EF3 000F45D0 ?TestSkaModel@CCastRay@@QAEXPAVCEntity@@@Z
       3829  EF4 000F39E0 ?TestSkaModelCollisionBox@CCastRay@@QAEXPAVCEntity@@AAVCModelInstance@@@Z
       3830  EF5 000F4000 ?TestSkaModelCollisionSphere@CCastRay@@QAEXPAVCEntity@@AAVCModelInstance@@@Z
       3831  EF6 000F3BF0 ?TestSkaModelFull@CCastRay@@QAEXPAVCEntity@@AAVCModelInstance@@@Z
       3832  EF7 000F37B0 ?TestSkaModelSimple@CCastRay@@QAEXPAVCEntity@@AAVCModelInstance@@@Z
       3833  EF8 00069540 ?TestSphereToFrustum@CIsometricProjection3D@@UBEJABV?$Vector@M$02@@M@Z
       3834  EF9 0006B540 ?TestSphereToFrustum@CParallelProjection3D@@UBEJABV?$Vector@M$02@@M@Z
       3835  EFA 0006CA90 ?TestSphereToFrustum@CPerspectiveProjection3D@@UBEJABV?$Vector@M$02@@M@Z
       3836  EFB 0006E910 ?TestSphereToFrustum@CSimpleProjection3D@@UBEJABV?$Vector@M$02@@M@Z
       3837  EFC 001CCA50 ?TestSurfaceDamage@CMovableEntity@@QAEXAAVCSurfaceType@@@Z
       3838  EFD 000F2930 ?TestTerrain@CCastRay@@QAEXPAVCEntity@@@Z
       3839  EFE 000F4A70 ?TestThroughSectors@CCastRay@@QAEXXZ
       3840  EFF 000F47A0 ?TestWholeWorld@CCastRay@@QAEXPAVCWorld@@@Z
       3841  F00 00036F10 ?ThrowF_t@@YAXPADZZ
       3842  F01 000512A0 ?Throw_t@CTStream@@QAAXPADZZ
       3843  F02 00034870 ?Throw_t@CTString@@QAEXXZ
       3844  F03 002E5958 ?TickQuantum@CTimer@@2MB
       3845  F04 00057BB0 ?TimeToString@@YA?AVCTString@@M@Z
       3846  F05 000347B0 ?ToLower@CTString@@QAEXXZ
       3847  F06 00034F60 ?ToLowerCompare@CTString@@QAEHABV1@@Z
       3848  F07 00071390 ?ToMappingVectors@CMappingDefinition@@QBEXABVCMappingVectors@@AAV2@@Z
       3849  F08 001548A0 ?ToObject3D@CBrushMip@@QAEXAAVCObject3D@@AAV?$CSelection@VCBrushSector@@$00@@@Z
       3850  F09 00154930 ?ToObject3D@CBrushMip@@QAEXAAVCObject3D@@AAV?$CSelection@VCBrushSector@@$03@@@Z
       3851  F0A 001543D0 ?ToObjectSector@CBrushSector@@QAEXAAVCObjectSector@@@Z
       3852  F0B 00070D30 ?ToPlane@CMappingVectors@@QBEXAAV?$Plane@M$02@@@Z
       3853  F0C 000707F0 ?ToUI@CMappingDefinition@@QBEXAAVCMappingDefinitionUI@@@Z
       3854  F0D 00034740 ?ToUpper@CTString@@QAEXXZ
       3855  F0E 0010A910 ?TogglePause@CNetworkLibrary@@QAEXXZ
       3856  F0F 00158610 ?TouchesInAnySector@CBrushEdge@@QAEHAAV1@@Z
       3857  F10 00158B50 ?TouchesInAnySector@CBrushPolygon@@QAEHAAV1@@Z
       3858  F11 00158170 ?TouchesInSameSector@CBrushEdge@@QAEHAAV1@@Z
       3859  F12 00158BE0 ?TouchesInSameSector@CBrushPolygon@@QAEHAAV1@@Z
       3860  F13 00151450 ?TouchingEntity@CEntity@@QAEPAV1@P6AHPAV1@@Z0@Z
       3861  F14 00071A10 ?Transform@CMappingDefinition@@QAEXABV?$Plane@M$02@@ABVCPlacement3D@@1@Z
       3862  F15 00071080 ?TransformMappingVectors@CMappingDefinition@@QBEXABVCMappingVectors@@AAV2@@Z
       3863  F16 00058300 ?Translate@@YAPADPADJ@Z
       3864  F17 00071C50 ?Translate@CMappingDefinition@@QAEXABVCMappingVectors@@ABV?$Vector@M$02@@@Z
       3865  F18 000581E0 ?TranslateConst@@YAPBDPBDJ@Z
       3866  F19 00068BD0 ?Translate_AbsoluteSystem@CPlacement3D@@QAEXABV?$Vector@M$02@@@Z
       3867  F1A 00068B30 ?Translate_OwnSystem@CPlacement3D@@QAEXABV?$Vector@M$02@@@Z
       3868  F1B 0015B1A0 ?TriangularizeForVertices@CBrushSector@@QAEXAAV?$CSelection@VCBrushVertex@@$01@@@Z
       3869  F1C 000DF670 ?TriangularizeForVertices@CWorld@@QAEXAAV?$CSelection@VCBrushVertex@@$01@@@Z
       3870  F1D 0015A830 ?TriangularizeMarkedPolygons@CBrushSector@@QAEXXZ
       3871  F1E 0015B8A0 ?TriangularizePolygon@CBrushSector@@QAEXPAVCBrushPolygon@@@Z
       3872  F1F 000DF760 ?TriangularizePolygons@CWorld@@QAEXAAV?$CDynamicContainer@VCBrushPolygon@@@@@Z
       3873  F20 00160900 ?Triangulate@CBrushPolygon@@QAEXXZ
       3874  F21 00159D20 ?Triangulate@CBrushSector@@QAEXXZ
       3875  F22 00034580 ?TrimLeft@CTString@@QAEJJ@Z
       3876  F23 000345F0 ?TrimRight@CTString@@QAEJJ@Z
       3877  F24 00034670 ?TrimSpacesLeft@CTString@@QAEJXZ
       3878  F25 000346C0 ?TrimSpacesRight@CTString@@QAEJXZ
       3879  F26 001D1150 ?TryToGoUpstairs@CMovableEntity@@QAEHABV?$Vector@M$02@@ABVCSurfaceType@@H@Z
       3880  F27 00057660 ?TryToLock@CTSingleLock@@QAEHXZ
       3881  F28 001D18C0 ?TryToMove@CMovableEntity@@QAEHPAV1@HH@Z
       3882  F29 00003AD0 ?TurnOffMirrorPlane@CProjection3D@@QAEXXZ
       3883  F2A 00003B10 ?TurnOffWarpPlane@CProjection3D@@QAEXXZ
       3884  F2B 0005D480 ?TurnPortalsToWalls@CObject3D@@QAEXXZ
       3885  F2C 001724B0 ?Unbind@CMesh@@QAEXXZ
       3886  F2D 000A6B70 ?Unbind@CTextureData@@QAEXXZ
       3887  F2E 000A49E0 ?Uncache@CShadowMap@@QAEJXZ
       3888  F2F 00159CB0 ?UncacheLightMaps@CBrushSector@@QAEXXZ
       3889  F30 00165380 ?UncacheShadowMaps@CLightSource@@QAEXXZ
       3890  F31 00144D80 ?UncacheShadowsForGradient@CEntity@@QAEXJ@Z
       3891  F32 00035280 ?Undecorated@CTString@@QBE?AV1@XZ
       3892  F33 00038D50 ?Unlock@CDrawPort@@QAEXXZ
       3893  F34 000576C0 ?Unlock@CTSingleLock@@QAEXXZ
       3894  F35 00159AB0 ?UnlockAll@CBrushSector@@QAEXXZ
       3895  F36 000DD6F0 ?UnlockAll@CWorld@@QAEXXZ
       3896  F37 00053E80 ?UnlockBuffer@CTMemoryStream@@QAEXXZ
       3897  F38 00098960 ?UnlockDrawPort@CGfxLibrary@@QAEXPAVCDrawPort@@@Z
       3898  F39 00098AB0 ?UnlockRaster@CGfxLibrary@@QAEXPAVCRaster@@@Z
       3899  F3A 00171820 ?UnlockVertexBuffer@MeshLOD@@QAEXXZ
       3900  F3B 000775C0 ?Unlock_internal@CDrawPort@@QAEXXZ
       3901  F3C 001207D0 ?Unpack@CNetworkMessage@@QAEXAAV1@AAVCCompressor@@@Z
       3902  F3D 001156E0 ?UnpackAngle@@YAXKAAV?$Vector@M$02@@@Z
       3903  F3E 00120D60 ?UnpackDefault@CNetworkMessage@@QAEXAAV1@@Z
       3904  F3F 001151D0 ?UnpackFloat@@YAMEEEK@Z
       3905  F40 00115130 ?UnpackFloatFromWord@@YAMF@Z
       3906  F41 00115290 ?UnpackFloatToSWord@@YAXFAAM@Z
       3907  F42 00115560 ?UnpackFloatsFromULONG@@YAXKAAM00@Z
       3908  F43 00115460 ?UnpackVectorFromULONG@@YA?AV?$Vector@M$02@@K@Z
       3909  F44 001154C0 ?UnpackVectorFromULONG@@YAXKAAV?$Vector@M$02@@@Z
       3910  F45 000D1A50 ?UnpackVertex@CModelObject@@QAEXAAVCRenderModel@@JAAV?$Vector@M$02@@@Z
       3911  F46 000C8FB0 ?UnpackVertex@CModelObject@@QAEXJJAAV?$Vector@M$02@@@Z
       3912  F47 00112440 ?Unprepare@CCommunicationInterface@@QAEXXZ
       3913  F48 00006570 ?UnsetTimer@CEntity@@QAEXXZ
       3914  F49 00143360 ?UnsetTimer@CRationalEntity@@QAEXXZ
       3915  F4A 000DD800 ?UntargetEntity@CWorld@@QAEXPAVCEntity@@@Z
       3916  F4B 00146740 ?UnwindStack@CRationalEntity@@QAEXJ@Z
       3917  F4C 0005CC20 ?UpVectorToAngles@@YAXABV?$Vector@M$02@@AAV1@@Z
       3918  F4D 001C0060 ?Update@CAOTime@@QAE_NXZ
       3919  F4E 00141A70 ?Update@CEntity@@UAEXXZ
       3920  F4F 001B1940 ?Update@CParticle@@QAEXM@Z
       3921  F50 000B8140 ?Update@CSoundObject@@QAEXXZ
       3922  F51 0012CA10 ?UpdateAllEntities@CSessionState@@QAEXXZ
       3923  F52 0012CAA0 ?UpdateAllEntitiesTick_First@CSessionState@@QAEXXZ
       3924  F53 0012CB30 ?UpdateAllEntitiesTick_Last@CSessionState@@QAEXXZ
       3925  F54 000C1960 ?UpdateAnimations_t@CEditModel@@QAEXAAVCTFileName@@@Z
       3926  F55 00141320 ?UpdateBoneMatrix@CCollisionCapsule@@QAEXAAY0M@M@Z
       3927  F56 00156980 ?UpdateBoundingBox@CBrushMip@@QAEXXZ
       3928  F57 000A5220 ?UpdateDynamicLayers@CShadowMap@@QAEKXZ
       3929  F58 001650A0 ?UpdateLayer@CLightSource@@QAEXAAVCBrushShadowLayer@@@Z
       3930  F59 00129460 ?UpdateLocalTime@CSessionState@@QAEJXZ
       3931  F5A 00113270 ?UpdateMasterBuffers@CCommunicationInterface@@QAEXXZ
       3932  F5B 00002CB0 ?UpdateMaxPos@CTStream@@QAEXPAE@Z
       3933  F5C 00002CD0 ?UpdateMaxPos@CTStream@@QAEXXZ
       3934  F5D 000BE380 ?UpdateMipModels_t@CEditModel@@QAEXAAVCTFileName@@@Z
       3935  F5E 001D05B0 ?UpdateOneSectorForce@CMovableEntity@@QAEXAAVCBrushSector@@M@Z
       3936  F5F 001B6540 ?UpdatePingValueState@AccountInfo_s@@QAEXEJ_NAAU_RTL_CRITICAL_SECTION@@@Z
       3937  F60 001CFBB0 ?UpdatePlacement@CMovableEntity@@UAEXV?$Vector@M$02@@0@Z
       3938  F61 001D9010 ?UpdatePlacement@CPlayerEntity@@UAEXABVCPlayerAction@@@Z
       3939  F62 001411A0 ?UpdatePosition@CCollisionSphere@@QAEXV?$Vector@M$02@@@Z
       3940  F63 0011D200 ?UpdateRelay@CNet@@QAEXXZ
       3941  F64 00141AA0 ?UpdateRender@CEntity@@UAEXXZ
       3942  F65 001B5EB0 ?UpdateSameMentorGroupInfoMine@FieldInfo@@QAEXXZ
       3943  F66 0015B7F0 ?UpdateSector@CBrushSector@@QAEXXZ
       3944  F67 000DF590 ?UpdateSectorsAfterVertexChange@CWorld@@QAEXAAV?$CSelection@VCBrushVertex@@$01@@@Z
       3945  F68 000DF4B0 ?UpdateSectorsDuringVertexChange@CWorld@@QAEXAAV?$CSelection@VCBrushVertex@@$01@@@Z
       3946  F69 000B33F0 ?UpdateSounds@CSoundLibrary@@QAEXXZ
       3947  F6A 00144AD0 ?UpdateSpatialRange@CEntity@@QAEXXZ
       3948  F6B 00166040 ?UpdateTerrains@CLightSource@@QAEXVCPlacement3D@@0@Z
       3949  F6C 001662F0 ?UpdateTerrains@CLightSource@@QAEXXZ
       3950  F6D 00141A80 ?UpdateTick_First@CEntity@@UAEXXZ
       3951  F6E 00141A90 ?UpdateTick_Last@CEntity@@UAEXXZ
       3952  F6F 0015B880 ?UpdateVertexChanges@CBrushSector@@QAEXXZ
       3953  F70 000A6A30 ?UploadCompressed@CTextureData@@QAEHXZ
       3954  F71 000510A0 ?UseApplicationPath@@YAXXZ
       3955  F72 001BDE50 ?UseGameGuard@@YAHXZ
       3956  F73 0011CA20 ?UseRelayServer@CNet@@QAEHXZ
       3957  F74 00035500 ?VPrintF@CTString@@QAEJPBDPAD@Z
       3958  F75 00003A90 ?ViewStretchL@CProjection3D@@QAEAAMXZ
       3959  F76 00003AA0 ?ViewStretchR@CProjection3D@@QBEABMXZ
       3960  F77 00003970 ?ViewerPlacementL@CProjection3D@@QAEAAVCPlacement3D@@XZ
       3961  F78 0005CEE0 ?ViewerPlacementL@CSimpleProjection3D_DOUBLE@@QAEAAVCPlacement3D@@XZ
       3962  F79 00003980 ?ViewerPlacementR@CProjection3D@@QBEABVCPlacement3D@@XZ
       3963  F7A 0005CEF0 ?ViewerPlacementR@CSimpleProjection3D_DOUBLE@@QBEABVCPlacement3D@@XZ
       3964  F7B 00129F00 ?WaitStream_t@CSessionState@@QAEXAAVCTMemoryStream@@ABVCTString@@J@Z
       3965  F7C 001D6370 ?WaitUntilScheduledAnimStarts@CMovableModelEntity@@QAEHABVCEntityEvent@@@Z
       3966  F7D 0012AA20 ?WarmUpWorld@CSessionState@@QAEXXZ
       3967  F7E 00036D10 ?WarningMessage@@YAXPBDZZ
       3968  F7F 00003AE0 ?WarpPlaneL@CProjection3D@@QAEAAV?$Plane@M$02@@XZ
       3969  F80 00003B00 ?WarpPlaneR@CProjection3D@@QBEABV?$Plane@M$02@@XZ
       3970  F81 0010A960 ?WhyDisconnected@CNetworkLibrary@@QAEABVCTString@@XZ
       3971  F82 000C7D40 ?WireOn@CModelRenderPrefs@@QAEHXZ
       3972  F83 001CF340 ?WouldFallInNextPosition@CMovableEntity@@QAEHXZ
       3973  F84 0011FAF0 ?Write@CNetMessage@@QAEXQAXG@Z
       3974  F85 00006A90 ?Write@CNetworkMessage@@QAEXPBXJ@Z
       3975  F86 00119090 ?WriteAddPlayer@CEntityMessage@@QAEXAAKAAJAAVCPlayerCharacter@@00J@Z
       3976  F87 0011A610 ?WriteAddSkaString@CEntityMessage@@QAEXJABVCTString@@@Z
       3977  F88 0011A430 ?WriteBasePosition@CEntityMessage@@QAEXAAV?$Vector@M$02@@@Z
       3978  F89 00120940 ?WriteBits@CNetworkMessage@@QAEXPBXJ@Z
       3979  F8A 000EF700 ?WriteBrushes_t@CWorld@@QAEXPAVCTStream@@@Z
       3980  F8B 00119D80 ?WriteCharacterChange@CEntityMessage@@QAEXAAKAAVCPlayerCharacter@@@Z
       3981  F8C 00053430 ?WriteChunk_t@CTStream@@QAEXPAXJ@Z
       3982  F8D 00126EC0 ?WriteDemoData@CServer@@QAEXM@Z
       3983  F8E 00118A00 ?WriteEntityCopy@CEntityMessage@@QAEXAAK0ABVCPlacement3D@@E@Z
       3984  F8F 001186D0 ?WriteEntityCreate@CEntityMessage@@QAEXAAKABVCPlacement3D@@AAG@Z
       3985  F90 001178E0 ?WriteEntityDestroy@CEntityMessage@@QAEXAAK@Z
       3986  F91 00118D30 ?WriteEntityEvent@CEntityMessage@@QAEXAAKAAJPAX1@Z
       3987  F92 00118EE0 ?WriteEntityInitialize@CEntityMessage@@QAEXAAKAAJPAX1@Z
       3988  F93 00150730 ?WriteEntityPointer_t@CEntity@@QAEXPAVCTStream@@VCEntityPointer@@@Z
       3989  F94 00153B80 ?WriteEntitySectorLinks_t@CBrushArchive@@QAEXAAVCTStream@@@Z
       3990  F95 000534B0 ?WriteFullChunk_t@CTStream@@QAEXABVCChunkID@@PAXJ@Z
       3991  F96 00053360 ?WriteID_t@CTStream@@QAEXABVCChunkID@@@Z
       3992  F97 000EF320 ?WriteInfo_t@CWorld@@QAEXPAVCTStream@@@Z
       3993  F98 0015E3B0 ?WriteLayers_t@CBrushShadowMap@@UAEXPAVCTStream@@@Z
       3994  F99 000A4BE0 ?WriteLayers_t@CShadowMap@@UAEXPAVCTStream@@@Z
       3995  F9A 000BEF00 ?WriteMipSettings_t@CEditModel@@QAEXPAVCTStream@@J@Z
       3996  F9B 00048090 ?WriteModelInstance_t@@YAXAAVCTStream@@AAVCModelInstance@@H@Z
       3997  F9C 00053C00 ?WritePageToFile@CTFileStream@@QAEXJ@Z
       3998  F9D 00119BA0 ?WritePause@CEntityMessage@@QAEXAAHAAVCTString@@@Z
       3999  F9E 00118260 ?WritePlacement@CEntityMessage@@QAEXAAKABVCPlacement3D@@1@Z
       4000  F9F 001198D0 ?WritePlacementNotify@CEntityMessage@@QAEXAAKE@Z
       4001  FA0 00117A30 ?WritePlayerAction@CEntityMessage@@QAEXAAKAAVCPlayerAction@@@Z
       4002  FA1 00117940 ?WritePlayerUpdate@CEntityMessage@@QAEXAAKAAVCNetworkMessage@@@Z
       4003  FA2 00153990 ?WritePortalSectorLinks_t@CBrushArchive@@QAEXAAVCTStream@@@Z
       4004  FA3 00150770 ?WriteProperties_t@CEntity@@QAEXAAVCTStream@@H@Z
       4005  FA4 000533E0 ?WriteRawChunk_t@CTStream@@QAEXPAXJ@Z
       4006  FA5 00129320 ?WriteRememberedLevels_t@CSessionState@@QAEXPAVCTStream@@@Z
       4007  FA6 001179D0 ?WriteRemovePlayer@CEntityMessage@@QAEXAAJ@Z
       4008  FA7 00145070 ?WriteSKAQueue@CEntity@@QAEXAAVCNetworkMessage@@@Z
       4009  FA8 00144F80 ?WriteSKAQueue@CEntity@@QAEXPAVCTStream@@@Z
       4010  FA9 000C86A0 ?WriteSettings_t@MappingSurface@@QAEXPAVCTStream@@@Z
       4011  FAA 000533A0 ?WriteSize_t@CTStream@@QAEXJ@Z
       4012  FAB 001199F0 ?WriteSka@CEntityMessage@@QAEXAAKEPAXAAJ@Z
       4013  FAC 0011A280 ?WriteSound@CEntityMessage@@QAEXAAKEPAXAAJ@Z
       4014  FAD 00119750 ?WriteStartAnim@CEntityMessage@@QAEXAAKAAJ0@Z
       4015  FAE 000EF7C0 ?WriteState_net_t@CWorld@@QAEXPAVCTStream@@@Z
       4016  FAF 0012BD60 ?WriteState_t@CSessionState@@QAEXPAVCTStream@@@Z
       4017  FB0 000F0020 ?WriteState_t@CWorld@@QAEXPAVCTStream@@H@Z
       4018  FB1 00053530 ?WriteStream_t@CTStream@@QAEXAAV1@@Z
       4019  FB2 0011FB70 ?WriteString@CNetMessage@@QAEXQAD@Z
       4020  FB3 00035970 ?WriteToStreamShort@CTString@@QAEXPAVCTStream@@@Z
       4021  FB4 0010BCE0 ?WriteVersion_t@CNetworkLibrary@@QAEXAAVCTStream@@@Z
       4022  FB5 0012BE30 ?WriteWorldAndState_t@CSessionState@@QAEXPAVCTStream@@@Z
       4023  FB6 001D8D80 ?Write_net@CPlayerEntity@@UAEXPAVCNetworkMessage@@@Z
       4024  FB7 001D8DA0 ?Write_net_brief@CPlayerEntity@@UAEXPAVCNetworkMessage@@@Z
       4025  FB8 0016EC60 ?Write_t@CAnimSet@@UAEXPAVCTStream@@@Z
       4026  FB9 000BC190 ?Write_t@CAttachedModel@@QAEXPAVCTStream@@@Z
       4027  FBA 000C88A0 ?Write_t@CAttachedModelPosition@@QAEXPAVCTStream@@@Z
       4028  FBB 000BC290 ?Write_t@CAttachedSound@@QAEXPAVCTStream@@@Z
       4029  FBC 00156410 ?Write_t@CBrush3D@@QAEXPAVCTStream@@@Z
       4030  FBD 00153E40 ?Write_t@CBrushArchive@@UAEXPAVCTStream@@@Z
       4031  FBE 001559D0 ?Write_t@CBrushMip@@QAEXPAVCTStream@@@Z
       4032  FBF 00155510 ?Write_t@CBrushPolygonTexture@@QAEXAAVCTStream@@@Z
       4033  FC0 001555A0 ?Write_t@CBrushSector@@QAEXPAVCTStream@@@Z
       4034  FC1 000BD3F0 ?Write_t@CEditModel@@UAEXPAVCTStream@@@Z
       4035  FC2 001463B0 ?Write_t@CEntity@@UAEXPAVCTStream@@H@Z
       4036  FC3 0014D600 ?Write_t@CEntityClass@@UAEXPAVCTStream@@@Z
       4037  FC4 001A7680 ?Write_t@CFontCharData@@QAEXPAVCTStream@@@Z
       4038  FC5 001A7A00 ?Write_t@CFontData@@UAEXPAVCTStream@@@Z
       4039  FC6 0009F750 ?Write_t@CImageInfo@@QBEXPAVCTStream@@@Z
       4040  FC7 00165650 ?Write_t@CLightSource@@QAEXPAVCTStream@@H@Z
       4041  FC8 00146580 ?Write_t@CLiveEntity@@UAEXPAVCTStream@@H@Z
       4042  FC9 001732D0 ?Write_t@CMesh@@UAEXPAVCTStream@@@Z
       4043  FCA 000C7F20 ?Write_t@CModelCollisionBox@@QAEXPAVCTStream@@@Z
       4044  FCB 000CC870 ?Write_t@CModelData@@UAEXPAVCTStream@@@Z
       4045  FCC 00179A80 ?Write_t@CModelInstanceSerial@@UAEXPAVCTStream@@@Z
       4046  FCD 000C88F0 ?Write_t@CModelObject@@QAEXPAVCTStream@@@Z
       4047  FCE 000C83C0 ?Write_t@CModelPatch@@QAEXPAVCTStream@@@Z
       4048  FCF 000C7DB0 ?Write_t@CModelRenderPrefs@@QAEXPAVCTStream@@@Z
       4049  FD0 001CC690 ?Write_t@CMovableBrushEntity@@UAEXPAVCTStream@@H@Z
       4050  FD1 001CE3D0 ?Write_t@CMovableEntity@@UAEXPAVCTStream@@H@Z
       4051  FD2 001D6340 ?Write_t@CMovableModelEntity@@UAEXPAVCTStream@@H@Z
       4052  FD3 00152330 ?Write_t@CPlayerCharacter@@QAEXPAVCTStream@@@Z
       4053  FD4 001D8FC0 ?Write_t@CPlayerEntity@@UAEXPAVCTStream@@H@Z
       4054  FD5 001466A0 ?Write_t@CRationalEntity@@UAEXPAVCTStream@@H@Z
       4055  FD6 0012CDC0 ?Write_t@CSessionState@@QAEXPAVCTStream@@H@Z
       4056  FD7 000A16B0 ?Write_t@CShader@@UAEXPAVCTStream@@@Z
       4057  FD8 000A5580 ?Write_t@CShadowMap@@QAEXPAVCTStream@@@Z
       4058  FD9 0018E630 ?Write_t@CSkeleton@@UAEXPAVCTStream@@@Z
       4059  FDA 000AF310 ?Write_t@CSoundData@@UAEXPAVCTStream@@@Z
       4060  FDB 000B6280 ?Write_t@CSoundObject@@QAEXPAVCTStream@@H@Z
       4061  FDC 00002F50 ?Write_t@CTStream@@QAEXPBXJ@Z
       4062  FDD 001903C0 ?Write_t@CTerrain@@QAEXPAVCTStream@@@Z
       4063  FDE 00190970 ?Write_t@CTerrainArchive@@UAEXPAVCTStream@@@Z
       4064  FDF 000A88F0 ?Write_t@CTextureData@@UAEXPAVCTStream@@@Z
       4065  FE0 000A6C30 ?Write_t@CTextureObject@@QAEXPAVCTStream@@@Z
       4066  FE1 000BBEC0 ?Write_t@CThumbnailSettings@@QAEXPAVCTStream@@@Z
       4067  FE2 000F04D0 ?Write_t@CWorld@@QAEXPAVCTStream@@@Z
       4068  FE3 000C8560 ?Write_t@MappingSurface@@QAEXPAVCTStream@@@Z
       4069  FE4 000C9EB0 ?Write_t@ModelMipInfo@@QAEXPAVCTStream@@@Z
       4070  FE5 000C9A20 ?Write_t@ModelPolygon@@QAEXPAVCTStream@@@Z
       4071  FE6 000C8500 ?Write_t@ModelPolygonVertex@@QAEXPAVCTStream@@@Z
       4072  FE7 002E0D90 ?Xenesis_Singletone_Priority@xHoppingMemory@Xenesis@@0HB
       4073  FE8 00036E60 ?YesNoMessage@@YAHPBDZZ
       4074  FE9 00003BC0 ?ZoomFactorL@CIsometricProjection3D@@QAEAAMXZ
       4075  FEA 00003BD0 ?ZoomFactorR@CIsometricProjection3D@@QBEABMXZ
       4076  FEB 0037AA35 ?_FontHeight@@3EA
       4077  FEC 003E6EE4 ?_FontPosY_Gap@@3EA
       4078  FED 003A5844 ?_Particle_bSkipClipping@@3HA
       4079  FEE 00378720 ?_ategtTextureEffectGlobalPresets@@3PAUTextureEffectGlobalType@@A
       4080  FEF 0038C934 ?_bDedicatedServer@@3HA
       4081  FF0 003E03C0 ?_bSelectAlternative@@3HA
       4082  FF1 0038C938 ?_bWorldEditorApp@@3HA
       4083  FF2 003E6ECC ?_buseCreateFontTex@@3HA
       4084  FF3 003E6ED0 ?_buseMultiByte@@3HA
       4085  FF4 003B4DE8 ?_cmiComm@@3VCCommunicationInterface@@A
       4086  FF5 003E03A8 ?_colViewerAmbient@@3KA
       4087  FF6 003E03AC ?_colViewerLight@@3KA
       4088  FF7 00378694 ?_ctTextureEffectGlobalPresets@@3JA
       4089  FF8 00374008 ?_dwTlsIndex@@3KA
       4090  FF9 00379D6C ?_eeVoid@@3ABVCEntityEvent@@B
       4091  FFA 003A4FE4 ?_fnmApplicationExe@@3VCTFileName@@A
       4092  FFB 003A4FDC ?_fnmApplicationPath@@3VCTFileName@@A
       4093  FFC 003A4FF8 ?_fnmCDPath@@3VCTFileName@@A
       4094  FFD 0038C990 ?_iStatsMode@@3JA
       4095  FFE 003AAB9C ?_iTexForcedQuality@@3JA
       4096  FFF 003E6ED4 ?_langid@@3GA
       4097 1000 003B01F4 ?_mrpModelRenderPrefs@@3VCModelRenderPrefs@@A
       4098 1001 003B1E44 ?_pAnimSetStock@@3PAVCStock_CAnimSet@@A
       4099 1002 003B1D6C ?_pAnimStock@@3PAVCStock_CAnimData@@A
       4100 1003 0039CAE4 ?_pConsole@@3PAVCConsole@@A
       4101 1004 003B1F1C ?_pEntityClassStock@@3PAVCStock_CEntityClass@@A
       4102 1005 003E6FB8 ?_pFontInfo@@3PAVCFontInfo@@A
       4103 1006 003B1FF4 ?_pFontStock@@3PAVCStock_CFontData@@A
       4104 1007 003AAB90 ?_pGfx@@3PAVCGfxLibrary@@A
       4105 1008 0039DEDC ?_pInput@@3PAVCInput@@A
       4106 1009 003B20CC ?_pMeshStock@@3PAVCStock_CMesh@@A
       4107 100A 003B227C ?_pModelInstanceStock@@3PAVCStock_CModelInstance@@A
       4108 100B 003B21A4 ?_pModelStock@@3PAVCStock_CModelData@@A
       4109 100C 003B2920 ?_pNetwork@@3PAVCNetworkLibrary@@A
       4110 100D 00457044 ?_pRakionBrokerNet@@3PAVIScavengerBrokerNet@@A
       4111 100E 003B2354 ?_pShaderStock@@3PAVCStock_CShader@@A
       4112 100F 003A4A38 ?_pShell@@3PAVCShell@@A
       4113 1010 003B242C ?_pSkeletonStock@@3PAVCStock_CSkeleton@@A
       4114 1011 003AFDE0 ?_pSound@@3PAVCSoundLibrary@@A
       4115 1012 003B2504 ?_pSoundStock@@3PAVCStock_CSoundData@@A
       4116 1013 003B25DC ?_pTextureStock@@3PAVCStock_CTextureData@@A
       4117 1014 003A5098 ?_pTimer@@3PAVCTimer@@A
       4118 1015 003E03B8 ?_pavpixSelectLasso@@3PAV?$CStaticStackArray@V?$Vector@J$01@@@@A
       4119 1016 00374020 ?_pf1oCosTable@@3PBMB
       4120 1017 0037401C ?_pf1oSinTable@@3PBMB
       4121 1018 00374018 ?_pfCosTable@@3PBMB
       4122 1019 00379CEC ?_pfNetworkProfile@@3AAVCProfileForm@@A
       4123 101A 00374014 ?_pfSinTable@@3PBMB
       4124 101B 00379844 ?_pfWorldEditingProfile@@3AAVCProfileForm@@A
       4125 101C 003E6EDC ?_pfdConsoleFont@@3PAVCFontData@@A
       4126 101D 003E6EE0 ?_pfdDisplayFont@@3PAVCFontData@@A
       4127 101E 003E6ED8 ?_pfdGulimFont@@3PAVCFontData@@A
       4128 101F 00374028 ?_piACosTable@@3PBJB
       4129 1020 00374024 ?_piASinTable@@3PBJB
       4130 1021 00379D10 ?_pixDeltaAroundVertex@@3JA
       4131 1022 003A563C ?_plOrigin@@3VCPlacement3D@@A
       4132 1023 003B29BC ?_precache_bNowPrecaching@@3JA
       4133 1024 003E03CC ?_pselbscVisTweaks@@3PAV?$CSelection@VCBrushSector@@$00@@A
       4134 1025 003E03B4 ?_pselbvxtSelectOnRender@@3PAV?$CSelection@VCBrushVertex@@$01@@A
       4135 1026 003E03BC ?_pselenSelectOnRender@@3PAV?$CSelection@VCEntity@@$00@@A
       4136 1027 003AABBC ?_ptdFlat@@3PAVCTextureData@@A
       4137 1028 003E6EC8 ?_ptdRakionFont@@3PAVCTextureData@@A
       4138 1029 0037402C ?_pubClipByte@@3PBEB
       4139 102A 003A4EDC ?_sfStats@@3VCStatForm@@A
       4140 102B 00392BA4 ?_strEngineBuild@@3VCTString@@A
       4141 102C 003E6FB4 ?_strFontName@@3VCTString@@A
       4142 102D 00392C74 ?_strLogFile@@3VCTString@@A
       4143 102E 003A4FF4 ?_strModExt@@3VCTString@@A
       4144 102F 003A4FEC ?_strModName@@3VCTString@@A
       4145 1030 003A4FF0 ?_strModURL@@3VCTString@@A
       4146 1031 003B0228 ?_toSimpleModelShadow@@3VCTextureObject@@A
       4147 1032 003AB348 ?_tpGlobal@@3PAVCTexParams@@A
       4148 1033 00374000 ?_ulEngineBuildMajor@@3KA
       4149 1034 00374004 ?_ulEngineBuildMinor@@3KA
       4150 1035 003E03D4 ?_vViewerLightDirection@@3V?$Vector@M$02@@A
       4151 1036 003E2488 ?_vpixSelectNearPoint@@3V?$Vector@J$01@@A
       4152 1037 003E2518 ?_wrpWorldRenderPrefs@@3VCWorldRenderPrefs@@A
       4153 1038 00016840 ?accumulating@xFileManager@File@Foundation@Xenesis2@@AAEKAAVxDeviceFile@2Device@4@PAKK@Z
       4154 1039 00018450 ?begin@?$ThreadBase@$0A@$0BPE@@@QAEXXZ
       4155 103A 00002BA0 ?changeDevicePassword@xFileManager@File@Foundation@Xenesis2@@QAE_NPADK0K@Z
       4156 103B 00002BB0 ?changePassword@xFileManager@File@Foundation@Xenesis2@@QAE_NPBDPADK1K@Z
       4157 103C 001C94B0 ?changePassword@xWindowFile@File@Device@Xenesis2@@UAE_NPBDPADK1K@Z
       4158 103D 001CB040 ?check@xHoppingMemory@Xenesis@@QBEXI@Z
       4159 103E 001A6150 ?clear@CCharManager@@QAEXXZ
       4160 103F 001AD950 ?clear@CFontTexture@@QAEXXZ
       4161 1040 00041FA0 ?clearPrecache@PreLoadMng@@QAEXXZ
       4162 1041 003798D0 ?cli_iCurrentFPS@@3JA
       4163 1042 001C37D0 ?close@TestLog@@QAEXABV?$_List_iterator@V?$_List_val@U?$pair@$$CBV?$basic_string@DU?$char_traits@D@std@@V?$allocator@D@2@@std@@V?$shared_ptr@V?$basic_ofstream@DU?$char_traits@D@std@@@std@@@boost@@@std@@V?$allocator@U?$pair@$$CBV?$basic_string@DU?$char_traits@D@std@@V?$allocator@D@2@@std@@V?$shared_ptr@V?$basic_ofstream@DU?$char_traits@D@std@@@std@@@boost@@@std@@@2@@std@@@std@@@Z
       4164 1043 001C3900 ?close@TestLog@@QAEXABV?$basic_string@DU?$char_traits@D@std@@V?$allocator@D@2@@std@@@Z
       4165 1044 001C3870 ?close@TestLog@@QAEXXZ
       4166 1045 00002930 ?close@xFile@File@Foundation@Xenesis2@@QAEXXZ
       4167 1046 0001B230 ?close@xFileManager@File@Foundation@Xenesis2@@QAEXPAVxFile@234@@Z
       4168 1047 001C9490 ?close@xWindowFile@File@Device@Xenesis2@@UAE_NXZ
       4169 1048 000577D0 ?closeThread@Thread@@QAEXXZ
       4170 1049 00002B40 ?coping@xFileManager@File@Foundation@Xenesis2@@AAE_NAAVxDeviceFile@2Device@4@0PAXK@Z
       4171 104A 003747C8 ?crc_aulCRCTable@@3PAKA
       4172 104B 001A3F80 ?createData@CCharManager@@QAEPAUCharData@@ABV?$basic_string@DU?$char_traits@D@std@@V?$allocator@D@2@@std@@M@Z
       4173 104C 001C9A90 ?createDeviceFile@File@Device@Xenesis2@@YAPAVxDeviceFile@123@W4file_system@123@@Z
       4174 104D 00028DD0 ?createFileTable@xFileManager@File@Foundation@Xenesis2@@AAEXAAV?$map@V?$basic_string@DUi_char_traits@File@Foundation@Xenesis2@@V?$allocator@D@std@@@std@@UXFSFileInfo@File@Foundation@Xenesis2@@U?$less@V?$basic_string@DUi_char_traits@File@Foundation@Xenesis2@@V?$allocator@D@std@@@std@@@2@V?$allocator@U?$pair@$$CBV?$basic_string@DUi_char_traits@File@Foundation@Xenesis2@@V?$allocator@D@std@@@std@@UXFSFileInfo@File@Foundation@Xenesis2@@@std@@@2@@std@@PAUXFSFileInfo@234@H@Z
       4175 104E 001C95C0 ?createFolder@xWindowFile@File@Device@Xenesis2@@UAE_NPBD@Z
       4176 104F 001AB630 ?createFontTexture@CFontTexture@@AAEPAVCTextureData@@ABVCTString@@M@Z
       4177 1050 000577A0 ?createThread@Thread@@QAEHP6GKPAX@ZQAX@Z
       4178 1051 0038C98C ?dbg_bAtHome@@3JA
       4179 1052 00028670 ?deleteFile@xFileManager@File@Foundation@Xenesis2@@AAEXPBD@Z
       4180 1053 001C9AE0 ?destroyDeviceFile@File@Device@Xenesis2@@YAXPAVxDeviceFile@123@@Z
       4181 1054 00001BE0 ?enterCriticalSection@CriticalSection@@QAEXXZ
       4182 1055 00016810 ?exporting@xFileManager@File@Foundation@Xenesis2@@AAE_NAAVxDeviceFile@2Device@4@PAXKPAVxFile@234@@Z
       4183 1056 002E1408 ?ferr_@xFile@File@Foundation@Xenesis2@@0KB
       4184 1057 002E13FC ?forsize_@xFile@File@Foundation@Xenesis2@@0KB
       4185 1058 002E1404 ?fsize_@xFile@File@Foundation@Xenesis2@@0KB
       4186 1059 002E1400 ?funcomp_@xFile@File@Foundation@Xenesis2@@0KB
       4187 105A 00392C78 ?g_Field_Info@@3VFieldInfo@@A
       4188 105B 003E2708 ?g_hiClassDLL@@3PAUHINSTANCE__@@A
       4189 105C 003B2AC8 ?gam_iPrecachePolicy@@3JA
       4190 105D 001CB140 ?get@xHoppingMemory@Xenesis@@QBEKAAVxIndexer@2@@Z
       4191 105E 001A68F0 ?getCharData@CCharManager@@QAEPAUCharData@@ABV?$basic_string@DU?$char_traits@D@std@@V?$allocator@D@2@@std@@M@Z
       4192 105F 00007CB0 ?getCharacterInfo@AccountInfo_s@@QAEPAU_CharacterInfo@@H@Z
       4193 1060 00016850 ?getChecksum@xFileManager@File@Foundation@Xenesis2@@AAEKXZ
       4194 1061 00002900 ?getCompSize@xFile@File@Foundation@Xenesis2@@QBEKXZ
       4195 1062 0001F060 ?getCompSize@xFileManager@File@Foundation@Xenesis2@@QAEKXZ
       4196 1063 0014DD20 ?getDLL@CEntitiesDLL@@QAEPAUHINSTANCE__@@XZ
       4197 1064 00010130 ?getFileCount@xFileManager@File@Foundation@Xenesis2@@QBEKXZ
       4198 1065 00023B80 ?getFileInfo@xFileManager@File@Foundation@Xenesis2@@AAEPAUXFSFileInfo@234@PBD@Z
       4199 1066 00002920 ?getFilePos@xFile@File@Foundation@Xenesis2@@QAEKXZ
       4200 1067 00002BC0 ?getFileSize@xFileManager@File@Foundation@Xenesis2@@QBEKXZ
       4201 1068 001AE160 ?getFontTexture@CFontTexture@@QAEPAVCTextureData@@ABVCTString@@ABHM@Z
       4202 1069 001A66C0 ?getInstance@CCharManager@@SAAAV1@XZ
       4203 106A 0014DEE0 ?getInstance@CEntitiesDLL@@SAAAV1@XZ
       4204 106B 001AE080 ?getInstance@CFontTexture@@SAAAV1@XZ
       4205 106C 001C4900 ?getInstance@CQMSLog@@SAAAV1@XZ
       4206 106D 001DDB00 ?getInstance@LoadModelMng@@SAAAV1@XZ
       4207 106E 00043340 ?getInstance@PreLoadMng@@SAAAV1@XZ
       4208 106F 001C40E0 ?getInstance@TestLog@@SAAAV1@XZ
       4209 1070 000292C0 ?getMD5Code@xFileManager@File@Foundation@Xenesis2@@QAE?AV?$basic_string@DU?$char_traits@D@std@@V?$allocator@D@2@@std@@XZ
       4210 1071 00026A20 ?getNearstFile@xFileManager@File@Foundation@Xenesis2@@AAEPAUXFSFileInfo@234@K@Z
       4211 1072 0001F030 ?getRealSize@xFileManager@File@Foundation@Xenesis2@@QAEKXZ
       4212 1073 000028F0 ?getSize@xFile@File@Foundation@Xenesis2@@QBEKXZ
       4213 1074 001C9500 ?getSize@xWindowFile@File@Device@Xenesis2@@UBE_NAAK@Z
       4214 1075 001ABB70 ?getTextHeight@CFontTexture@@QBEKABVCTString@@ABM@Z
       4215 1076 001AB900 ?getTextWidth@CFontTexture@@QBEKABVCTString@@ABM@Z
       4216 1077 0000A7D0 ?getThreadHandle@?$ThreadBase@$0A@$0BPE@@@QBEQAXXZ
       4217 1078 00057750 ?getThreadHandle@Thread@@QAEQAXXZ
       4218 1079 00057760 ?getThreadID@Thread@@QAE?BKXZ
       4219 107A 00002C00 ?getVersion@xFileManager@File@Foundation@Xenesis2@@QBE?BKXZ
       4220 107B 0008DC80 ?gfxSetBlendType@@YAXW4PredefinedBlendType@@@Z
       4221 107C 00029180 ?init@xFileManager@File@Foundation@Xenesis2@@QAE_NPBD_N0H1@Z
       4222 107D 00002B80 ?initDevice@xFileManager@File@Foundation@Xenesis2@@QAE_NPBDPADK_N@Z
       4223 107E 00028D30 ?insertFile@xFileManager@File@Foundation@Xenesis2@@AAEPAUXFSFileInfo@234@PBD_N@Z
       4224 107F 00028C20 ?insertinfo@xFileManager@File@Foundation@Xenesis2@@AAEPAUXFSFileInfo@234@ABU5234@@Z
       4225 1080 00002BD0 ?isActivate@xFileManager@File@Foundation@Xenesis2@@QBE_NXZ
       4226 1081 000028E0 ?isReadOnly@xFile@File@Foundation@Xenesis2@@QBE_NXZ
       4227 1082 000168F0 ?isRightChecksum@xFileManager@File@Foundation@Xenesis2@@QAE_NXZ
       4228 1083 001C94C0 ?isValid@xWindowFile@File@Device@Xenesis2@@UBE_NXZ
       4229 1084 00001BF0 ?leaveCriticalSection@CriticalSection@@QAEXXZ
       4230 1085 00016640 ?load@xFile@File@Foundation@Xenesis2@@QAEKPAXK@Z
       4231 1086 001C9520 ?load@xWindowFile@File@Device@Xenesis2@@UAE_NPAXK@Z
       4232 1087 00016430 ?loadBlock@xFile@File@Foundation@Xenesis2@@AAE_NPAE@Z
       4233 1088 0014DBB0 ?loadDLL@CEntitiesDLL@@QAEXVCTFileName@@@Z
       4234 1089 001DD4E0 ?loadModelData@LoadModelMng@@QAEXAAVCEntity@@ABW4Enum@ModelState@@ABVCTString@@@Z
       4235 108A 001B0BC0 ?lstsq@@YAJPAV?$CStaticArray@M@@0JJ0@Z
       4236 108B 00011990 ?mainThread@?$ThreadBase@$0A@$0BPE@@@CAXPAV1@@Z
       4237 108C 00002AE0 ?moving@xFileManager@File@Foundation@Xenesis2@@AAE_NAAVxDeviceFile@2Device@4@PAXKKK@Z
       4238 108D 003798DC ?net_bLocalPrediction@@3JA
       4239 108E 001DC6D0 ?onAfterThread@?$ThreadBase@$0A@$00@@MAEXXZ
       4240 108F 0000A790 ?onAfterThread@?$ThreadBase@$0A@$0BPE@@@MAEXXZ
       4241 1090 001DC6C0 ?onBeforeThread@?$ThreadBase@$0A@$00@@MAEXXZ
       4242 1091 0000A780 ?onBeforeThread@?$ThreadBase@$0A@$0BPE@@@MAEXXZ
       4243 1092 001DC680 ?onBeforeThread@LoadModelMng@@EAEXXZ
       4244 1093 001DC6A0 ?onEvent@?$ThreadBase@$0A@$00@@MAEXABK@Z
       4245 1094 0000A760 ?onEvent@?$ThreadBase@$0A@$0BPE@@@MAEXABK@Z
       4246 1095 001DC6B0 ?onIdle@?$ThreadBase@$0A@$00@@MAEXXZ
       4247 1096 0000A770 ?onIdle@?$ThreadBase@$0A@$0BPE@@@MAEXXZ
       4248 1097 001DD680 ?onIdle@LoadModelMng@@EAEXXZ
       4249 1098 001CB3D0 ?onIdle@xHoppingMemory@Xenesis@@MAEXXZ
       4250 1099 000291B0 ?open@xFileManager@File@Foundation@Xenesis2@@QAEPAVxFile@234@PBD_N1@Z
       4251 109A 001C9430 ?open@xWindowFile@File@Device@Xenesis2@@UAE_NPBD_N10K1@Z
       4252 109B 00026B30 ?optimize@xFileManager@File@Foundation@Xenesis2@@QAE_NK@Z
       4253 109C 00041660 ?preLoadMDL@PreLoadMng@@QAEXABVCTString@@@Z
       4254 109D 00041C50 ?preLoadMDLInOption@PreLoadMng@@QAEXABVCTString@@E@Z
       4255 109E 00041500 ?preLoadSMC@PreLoadMng@@QAEXABVCTString@@@Z
       4256 109F 00041AE0 ?preLoadSMCInOption@PreLoadMng@@QAEXABVCTString@@E@Z
       4257 10A0 000417A0 ?preLoadSND@PreLoadMng@@QAEXABVCTString@@@Z
       4258 10A1 00041840 ?preLoadSoundInOption@PreLoadMng@@QAEXABVCTString@@E@Z
       4259 10A2 00041700 ?preLoadTEX@PreLoadMng@@QAEXABVCTString@@@Z
       4260 10A3 00041E30 ?preLoadTextureInOption@PreLoadMng@@QAEXABVCTString@@E@Z
       4261 10A4 001C3A40 ?printLog@TestLog@@QAAXABV?$basic_string@DU?$char_traits@D@std@@V?$allocator@D@2@@std@@QBDZZ
       4262 10A5 001B0BA0 ?pwAbs@@YAMM@Z
       4263 10A6 001B34B0 ?pwGetBSpline@@YA?AV?$Vector@M$02@@AAV1@000M@Z
       4264 10A7 001B3330 ?pwGetCatmullRom@@YA?AV?$Vector@M$02@@AAV1@000M@Z
       4265 10A8 001B1510 ?pwGetDirectionProjection@@YA?AV?$Vector@M$02@@AAV1@00M@Z
       4266 10A9 001B31D0 ?pwGetEqSpringPosition@@YA?AV?$Vector@M$02@@V1@0M@Z
       4267 10AA 001B13B0 ?pwGetPointProjection@@YA?AV?$Vector@M$02@@AAV1@00M@Z
       4268 10AB 001B1620 ?pwGetReflectVelocity@@YA?AV?$Vector@M$02@@V1@0M@Z
       4269 10AC 001B12F0 ?pwGetRelativePosition@@YA?AV?$Vector@M$02@@AAV1@AAV?$Matrix@M$02$02@@@Z
       4270 10AD 001B0B30 ?pwRandF@@YAMXZ
       4271 10AE 001B31A0 ?pwVectorToFLOAT3D@@YA?AV?$Vector@M$02@@VpwVector3@@@Z
       4272 10AF 00035000 ?rFind@CTString@@QAEJABV1@@Z
       4273 10B0 0005CE20 ?rand_@@YAHXZ
       4274 10B1 001CADA0 ?regist@xHoppingMemory@Xenesis@@QAEXAAVxIndexer@2@@Z
       4275 10B2 001CAE60 ?regist@xHoppingMemory@Xenesis@@QBEXAAVxIndexer@2@K@Z
       4276 10B3 00028730 ?remove@xFileManager@File@Foundation@Xenesis2@@QAE_NPBD@Z
       4277 10B4 00027FA0 ?resetXFS@xFileManager@File@Foundation@Xenesis2@@AAE_NAAVxDeviceFile@2Device@4@AAUXFSHeader@1234@AAV?$map@V?$basic_string@DUi_char_traits@File@Foundation@Xenesis2@@V?$allocator@D@std@@@std@@UXFSFileInfo@File@Foundation@Xenesis2@@U?$less@V?$basic_string@DUi_char_traits@File@Foundation@Xenesis2@@V?$allocator@D@std@@@std@@@2@V?$allocator@U?$pair@$$CBV?$basic_string@DUi_char_traits@File@Foundation@Xenesis2@@V?$allocator@D@std@@@std@@UXFSFileInfo@File@Foundation@Xenesis2@@@std@@@2@@std@@@Z
       4278 10B5 000167E0 ?rewind@xFile@File@Foundation@Xenesis2@@QAEXXZ
       4279 10B6 001C9560 ?save@xWindowFile@File@Device@Xenesis2@@UAE_NPAXK@Z
       4280 10B7 001CB230 ?set@xHoppingMemory@Xenesis@@QAEXAAVxIndexer@2@K@Z
       4281 10B8 001C95A0 ?setEnd@xWindowFile@File@Device@Xenesis2@@UAE_NXZ
       4282 10B9 001C94D0 ?setPos@xWindowFile@File@Device@Xenesis2@@UAE_NK@Z
       4283 10BA 00002BE0 ?setVersion@xFileManager@File@Foundation@Xenesis2@@QAEXK@Z
       4284 10BB 00028F00 ?setXFS@xFileManager@File@Foundation@Xenesis2@@AAE_NPBDAAVxDeviceFile@2Device@4@AAUXFSHeader@1234@AAV?$map@V?$basic_string@DUi_char_traits@File@Foundation@Xenesis2@@V?$allocator@D@std@@@std@@UXFSFileInfo@File@Foundation@Xenesis2@@U?$less@V?$basic_string@DUi_char_traits@File@Foundation@Xenesis2@@V?$allocator@D@std@@@std@@@2@V?$allocator@U?$pair@$$CBV?$basic_string@DUi_char_traits@File@Foundation@Xenesis2@@V?$allocator@D@std@@@std@@UXFSFileInfo@File@Foundation@Xenesis2@@@std@@@2@@std@@0H_N@Z
       4285 10BC 000A25D0 ?shaAttenuateAlphaForFogAndHaze@@YAXXZ
       4286 10BD 000A2520 ?shaAttenuateColorForFogAndHaze@@YAXXZ
       4287 10BE 000A1460 ?shaBlendFunc@@YAXW4GfxBlend@@0@Z
       4288 10BF 000A3270 ?shaCalculateLight@@YAXXZ
       4289 10C0 000A3600 ?shaCalculateLightForSpecular@@YAXXZ
       4290 10C1 000A2730 ?shaClean@@YAXXZ
       4291 10C2 000A1210 ?shaClearTextureMatrix@@YAXJ@Z
       4292 10C3 000A1450 ?shaCullFace@@YAXW4GfxFace@@@Z
       4293 10C4 000A1520 ?shaDepthFunc@@YAXW4GfxComp@@@Z
       4294 10C5 000A14D0 ?shaDisableAlphaTest@@YAXXZ
       4295 10C6 000A14B0 ?shaDisableBlend@@YAXXZ
       4296 10C7 000A1540 ?shaDisableDepthBias@@YAXXZ
       4297 10C8 000A14F0 ?shaDisableDepthTest@@YAXXZ
       4298 10C9 000A1510 ?shaDisableDepthWrite@@YAXXZ
       4299 10CA 000A1690 ?shaDisableInverted@@YAXXZ
       4300 10CB 000A1B80 ?shaDisableOverBrightning@@YAXXZ
       4301 10CC 000A15D0 ?shaDisablePixelProgram@@YAXXZ
       4302 10CD 000A1AF0 ?shaDisableTexture@@YAXJ@Z
       4303 10CE 000A15B0 ?shaDisableVertexBuffers@@YAXXZ
       4304 10CF 000A15C0 ?shaDisableVertexProgram@@YAXXZ
       4305 10D0 000A2650 ?shaDoFogAndHazePass@@YAXXZ
       4306 10D1 000A14C0 ?shaEnableAlphaTest@@YAXXZ
       4307 10D2 000A14A0 ?shaEnableBlend@@YAXXZ
       4308 10D3 000A1530 ?shaEnableDepthBias@@YAXXZ
       4309 10D4 000A14E0 ?shaEnableDepthTest@@YAXXZ
       4310 10D5 000A1500 ?shaEnableDepthWrite@@YAXXZ
       4311 10D6 000A1680 ?shaEnableInverted@@YAXXZ
       4312 10D7 000A1B60 ?shaEnableOverBrightning@@YAXXZ
       4313 10D8 000A15A0 ?shaEnablePixelProgram@@YAXXZ
       4314 10D9 000A1580 ?shaEnableVertexBuffers@@YAXXZ
       4315 10DA 000A1590 ?shaEnableVertexProgram@@YAXXZ
       4316 10DB 000A3200 ?shaFillColorBuffer@@YAXK@Z
       4317 10DC 000A1360 ?shaGetAmbientColor@@YAKXZ
       4318 10DD 000A12C0 ?shaGetColor@@YAKJ@Z
       4319 10DE 000A13F0 ?shaGetColorArray@@YAPAUGFXColor@@XZ
       4320 10DF 000A1380 ?shaGetCurrentColor@@YAKXZ
       4321 10E0 000A1240 ?shaGetFirstVertex@@YAJXZ
       4322 10E1 000A12E0 ?shaGetFlags@@YAAAKXZ
       4323 10E2 000A1270 ?shaGetFloat@@YAMJ@Z
       4324 10E3 000A13A0 ?shaGetIndexArray@@YAPBGXZ
       4325 10E4 000A1260 ?shaGetIndexCount@@YAJXZ
       4326 10E5 000A1340 ?shaGetLightColor@@YAKXZ
       4327 10E6 000A1310 ?shaGetLightDirection@@YA?AV?$Vector@M$02@@XZ
       4328 10E7 000A12F0 ?shaGetModelColor@@YAKXZ
       4329 10E8 000A1300 ?shaGetModelDyeingColor@@YAKXZ
       4330 10E9 000A3A70 ?shaGetNewColorArray@@YAPAUGFXColor@@XZ
       4331 10EA 000A3AC0 ?shaGetNewTexCoordArray@@YAPAUGFXTexCoord@@XZ
       4332 10EB 000A3B10 ?shaGetNewVertexArray@@YAPAUGFXVertex@@XZ
       4333 10EC 000A13B0 ?shaGetNormalArray@@YAPAUGFXNormal@@XZ
       4334 10ED 000A1430 ?shaGetObjToAbsMatrix@@YAPAY0M@MXZ
       4335 10EE 000A1410 ?shaGetObjToViewMatrix@@YAPAY0M@MXZ
       4336 10EF 000A1420 ?shaGetObjToViewStrMatrix@@YAPAY0M@MXZ
       4337 10F0 000A1400 ?shaGetProjection@@YAPAVCAnyProjection3D@@XZ
       4338 10F1 000A1440 ?shaGetRenFlags@@YAKXZ
       4339 10F2 000A1290 ?shaGetTexture@@YAPAVCTextureObject@@J@Z
       4340 10F3 000A13D0 ?shaGetUVMap@@YAPAUGFXTexCoord@@J@Z
       4341 10F4 000A1390 ?shaGetVertexArray@@YAPAUGFXVertex@@XZ
       4342 10F5 000A1250 ?shaGetVertexCount@@YAJXZ
       4343 10F6 000A1BA0 ?shaHasFog@@YAHAAV?$AABBox@M$02@@@Z
       4344 10F7 000A1E00 ?shaHasHaze@@YAHAAV?$AABBox@M$02@@@Z
       4345 10F8 000A1470 ?shaLineWidth@@YAXM@Z
       4346 10F9 000A10B0 ?shaLockArrays@@YAXXZ
       4347 10FA 000A1660 ?shaOverBrightningEnabled@@YAHXZ
       4348 10FB 000A1490 ?shaPolygonMode@@YAXW4GfxPolyMode@@@Z
       4349 10FC 000A2A10 ?shaPrepareFogAndHaze@@YAXH@Z
       4350 10FD 000A1980 ?shaRender@@YAXXZ
       4351 10FE 000A0F70 ?shaSetBoneMatrix@@YAXPAY0M@$$CBMJ@Z
       4352 10FF 000A10D0 ?shaSetColor@@YAXJ@Z
       4353 1100 000A1150 ?shaSetColorArray@@YAXPAUGFXColor@@@Z
       4354 1101 000A1160 ?shaSetConstantColor@@YAXK@Z
       4355 1102 000A0D20 ?shaSetFogTextureUnit@@YAXJH@Z
       4356 1103 000A1630 ?shaSetFogUVMap@@YAXPAUGFXTexCoord@@@Z
       4357 1104 000A1650 ?shaSetHazeColorArray@@YAXPAUGFXColor@@@Z
       4358 1105 000A1640 ?shaSetHazeUVMap@@YAXPAUGFXTexCoord@@@Z
       4359 1106 000A0E30 ?shaSetIndices@@YAXPBGJ@Z
       4360 1107 000A1030 ?shaSetLightColor@@YAXKK@Z
       4361 1108 000A28A0 ?shaSetLightDirection@@YAXABV?$Vector@M$02@@@Z
       4362 1109 000A1010 ?shaSetModelColor@@YAXAAK@Z
       4363 110A 000A1020 ?shaSetModelDyeingColor@@YAXAAK@Z
       4364 110B 000A0E50 ?shaSetNormalArray@@YAXPAUGFXNormal@@@Z
       4365 110C 000A0EF0 ?shaSetNormalBufferID@@YAXJ@Z
       4366 110D 000A1090 ?shaSetObjToAbsMatrix@@YAXAAY0M@M@Z
       4367 110E 000A1070 ?shaSetObjToViewMatrix@@YAXAAY0M@M@Z
       4368 110F 000A1080 ?shaSetObjToViewStrMatrix@@YAXAAY0M@M@Z
       4369 1110 000A3890 ?shaSetPixelProgram@@YAXJ@Z
       4370 1111 000A06E0 ?shaSetPixelProgramConst@@YAXJPBUShaderRegister@@J@Z
       4371 1112 000A10A0 ?shaSetRenFlags@@YAXK@Z
       4372 1113 000A0FC0 ?shaSetSurfaceColors@@YAXPAKJ@Z
       4373 1114 000A1000 ?shaSetSurfaceFlags@@YAXK@Z
       4374 1115 000A0FE0 ?shaSetSurfaceFloats@@YAXPAMJ@Z
       4375 1116 000A0FA0 ?shaSetSurfaceTextures@@YAXPAPAVCTextureObject@@J@Z
       4376 1117 000A0EA0 ?shaSetSurfaceUVMaps@@YAXPAPAUGFXTexCoord@@J@Z
       4377 1118 000A0F50 ?shaSetSurfaceUVMapsIDs@@YAXPAJJ@Z
       4378 1119 000A1120 ?shaSetTexCoordArray@@YAXPAUGFXTexCoord@@J@Z
       4379 111A 000A0F30 ?shaSetTexCoordBufferID@@YAXJJ@Z
       4380 111B 000A2970 ?shaSetTexture@@YAXJJ@Z
       4381 111C 000A29D0 ?shaSetTexture@@YAXPAVCTextureData@@J@Z
       4382 111D 000A1170 ?shaSetTextureMatrix@@YAXAAY0M@$$CBMJ@Z
       4383 111E 000A1100 ?shaSetTextureUnit@@YAXJ@Z
       4384 111F 000A1550 ?shaSetTextureWrapping@@YAXW4GfxWrap@@0J@Z
       4385 1120 000A1B10 ?shaSetUVMap@@YAXJJ@Z
       4386 1121 000A0E00 ?shaSetVertexArray@@YAXPAUGFXVertex@@JJ@Z
       4387 1122 000A0EC0 ?shaSetVertexBufferID@@YAXJJJ@Z
       4388 1123 000A3D40 ?shaSetVertexProgram@@YAXJ@Z
       4389 1124 000A06D0 ?shaSetVertexProgramConst@@YAXJPAY0BA@$$CBMJ@Z
       4390 1125 000A06C0 ?shaSetVertexProgramConst@@YAXJPAY0M@$$CBMJ@Z
       4391 1126 000A06B0 ?shaSetVertexProgramConst@@YAXJPBUShaderRegister@@J@Z
       4392 1127 000A1A80 ?shaSetViewerConstant@@YAXXZ
       4393 1128 000A0E80 ?shaSetWeightArray@@YAXPAUGFXWeight@@@Z
       4394 1129 000A0F10 ?shaSetWeightBufferID@@YAXJ@Z
       4395 112A 000A0F90 ?shaSetWeightsPerVertex@@YAXJ@Z
       4396 112B 000A10C0 ?shaUnlockArrays@@YAXXZ
       4397 112C 000A15E0 ?shaUseHWShaders@@YAHXZ
       4398 112D 000A1610 ?shaUsePixelProgram@@YAHXZ
       4399 112E 000A1620 ?shaUseVertexBuffers@@YAHXZ
       4400 112F 000A1600 ?shaUseVertexProgram@@YAHXZ
       4401 1130 0018F190 ?ska_FindID@@YAJABVCTString@@@Z
       4402 1131 0018F210 ?ska_IDToString@@YA?AVCTString@@J@Z
       4403 1132 0018F390 ?ska_StringToID@@YAJABVCTString@@@Z
       4404 1133 003AB23C ?ska_fLODAdd@@3MA
       4405 1134 003773C4 ?ska_fLODMul@@3MA
       4406 1135 00016730 ?skip@xFile@File@Foundation@Xenesis2@@QAE_NK@Z
       4407 1136 00002840 ?skipBlock@xFile@File@Foundation@Xenesis2@@AAE_NXZ
       4408 1137 0037886C ?snd_iFormat@@3JA
       4409 1138 0005CE10 ?srand_@@YAXI@Z
       4410 1139 001DCA80 ?terminate@?$ThreadBase@$0A@$00@@QAEXABK@Z
       4411 113A 00011830 ?terminate@?$ThreadBase@$0A@$0BPE@@@QAEXABK@Z
       4412 113B 001BDE60 ?theEncryptMemory@Memory@Foundation@Xenesis2@@YAAAVxEncryptMemory@123@XZ
       4413 113C 0000AF00 ?threading@?$ThreadBase@$0A@$0BPE@@@AAEXXZ
       4414 113D 003A4A40 ?tmp_af@@3PAMA
       4415 113E 003A4A90 ?tmp_ai@@3PAJA
       4416 113F 003A4AB8 ?tmp_fAdd@@3MA
       4417 1140 003A4ABC ?tmp_i@@3JA
       4418 1141 000281E0 ?uninit@xFileManager@File@Foundation@Xenesis2@@QAE_NXZ
       4419 1142 00002B90 ?uninitDevice@xFileManager@File@Foundation@Xenesis2@@QAE_NXZ
       4420 1143 001CAF60 ?unregist@xHoppingMemory@Xenesis@@QBEXAAVxIndexer@2@@Z
       4421 1144 001C02A0 ?updateTime@TestLog@@AAEXXZ
       4422 1145 001C02C0 ?vStr@TestLog@@QAAPBDPADZZ
       4423 1146 001DC770 ?waitForTerminate@?$ThreadBase@$0A@$00@@QAEXABK@Z
       4424 1147 0000A950 ?waitForTerminate@?$ThreadBase@$0A@$0BPE@@@QAEXABK@Z
       4425 1148 00379D90 CEntity_DLLClass
       4426 1149 00379DE0 CLiveEntity_DLLClass
       4427 114A 0037F680 CMovableBrushEntity_DLLClass
       4428 114B 0037F6E0 CMovableEntity_DLLClass
       4429 114C 0037FD30 CMovableModelEntity_DLLClass
       4430 114D 0037FDD8 CPlayerEntity_DLLClass
       4431 114E 00379E30 CRationalEntity_DLLClass
       4432 114F 0019F620 Shader_Desc_TRShader_1TRL
       4433 1150 0019F700 Shader_Desc_TRShader_2TRL
       4434 1151 0019F810 Shader_Desc_TRShader_Base
       4435 1152 0019F8F0 Shader_Desc_TRShader_Fog
       4436 1153 0019F5F0 Shader_PPCode_TRShader_1TRL
       4437 1154 0019F6D0 Shader_PPCode_TRShader_2TRL
       4438 1155 0019F7E0 Shader_PPCode_TRShader_Base
       4439 1156 0019F8C0 Shader_PPCode_TRShader_Fog
       4440 1157 0019F5B0 Shader_TRShader_1TRL
       4441 1158 0019F690 Shader_TRShader_2TRL
       4442 1159 0019F770 Shader_TRShader_Base
       4443 115A 0019F880 Shader_TRShader_Fog
       4444 115B 0019F5C0 Shader_VPCode_TRShader_1TRL
       4445 115C 0019F6A0 Shader_VPCode_TRShader_2TRL
       4446 115D 0019F780 Shader_VPCode_TRShader_Base
       4447 115E 0019F890 Shader_VPCode_TRShader_Fog

  Summary

       FD000 .data
       94000 .rdata
       21000 .reloc
      2DF000 .text
        1000 .tls
