LIBRARY ENTITIESMP 
EXPORTS 
??0CAbuseStr_Filter@@QAE@XZ 
??0CBattleBowAnimator@@QAE@ABV0@@Z 
??0CBattleBowAnimator@@QAE@XZ 
??0CBattleBowWeapon@@QAE@AAV0@@Z 
??0CBattleBowWeapon@@QAE@XZ 
??0CBeginnersHelpData@@QAE@AAV0@@Z 
??0CBeginnersHelpData@@QAE@XZ 
??0CBlackSmithAnimator@@QAE@ABV0@@Z 
??0CBlackSmithAnimator@@QAE@XZ 
??0CBlackSmithWeapon@@QAE@AAV0@@Z 
??0CBlackSmithWeapon@@QAE@XZ 
??0CBuddyFishingDefense@@QAE@ABV0@@Z 
??0CBuddyFishingDefense@@QAE@XZ 
??0CBullet@@QAE@ABV0@@Z 
??0CBullet@@QAE@XZ 
??0CCannonBall@@QAE@ABV0@@Z 
??0CCannonBall@@QAE@XZ 
??0CCharName_Filter@@QAE@XZ 
??0CCompMessageID@@QAE@ABV0@@Z 
??0CCompMessageID@@QAE@XZ 
??0CConstAchievementData@@QAE@ABV0@@Z 
??0CConstAchievementData@@QAE@XZ 
??0CConstAlphabetData@@QAE@ABV0@@Z 
??0CConstAlphabetData@@QAE@XZ 
??0CConstAttributeData@@QAE@ABV0@@Z 
??0CConstAttributeData@@QAE@XZ 
??0CConstAttributeObjectData@@QAE@ABV0@@Z 
??0CConstAttributeObjectData@@QAE@XZ 
??0CConstAttributeOpenData@@QAE@ABV0@@Z 
??0CConstAttributeOpenData@@QAE@XZ 
??0CConstAttributeReinforceData@@QAE@ABV0@@Z 
??0CConstAttributeReinforceData@@QAE@XZ 
??0CConstClanEmblemData@@QAE@ABV0@@Z 
??0CConstClanEmblemData@@QAE@XZ 
??0CConstCreatureBookCollectionData@@QAE@ABV0@@Z 
??0CConstCreatureBookCollectionData@@QAE@XZ 
??0CConstCreatureBookData@@QAE@ABV0@@Z 
??0CConstCreatureBookData@@QAE@XZ 
??0CConstCreatureSynthesisData@@QAE@ABV0@@Z 
??0CConstCreatureSynthesisData@@QAE@XZ 
??0CConstEventKillCountData@@QAE@ABV0@@Z 
??0CConstEventKillCountData@@QAE@XZ 
??0CConstItemData@@QAE@ABV0@@Z 
??0CConstItemData@@QAE@XZ 
??0CConstNewGolemNpcData@@QAE@ABV0@@Z 
??0CConstNewGolemNpcData@@QAE@XZ 
??0CConstNewGolemPlayerData@@QAE@ABV0@@Z 
??0CConstNewGolemPlayerData@@QAE@XZ 
??0CConstObjectToolTip@@QAE@ABV0@@Z 
??0CConstObjectToolTip@@QAE@XZ 
??0CConstPreloadCreatureData@@QAE@ABV0@@Z 
??0CConstPreloadCreatureData@@QAE@XZ 
??0CConstPreloadGameResource@@QAE@XZ 
??0CConstPremiumPack@@QAE@ABV0@@Z 
??0CConstPremiumPack@@QAE@XZ 
??0CConstQuestData@@QAE@ABV0@@Z 
??0CConstQuestData@@QAE@XZ 
??0CConstRageGaugeData@@QAE@ABV0@@Z 
??0CConstRageGaugeData@@QAE@XZ 
??0CConstSetEffectEquipmentData@@QAE@ABV0@@Z 
??0CConstSetEffectEquipmentData@@QAE@XZ 
??0CConstStageEffectItem@@QAE@ABV0@@Z 
??0CConstStageEffectItem@@QAE@XZ 
??0CConstTapMiniMapInfoData@@QAE@ABV0@@Z 
??0CConstTapMiniMapInfoData@@QAE@XZ 
??0CConstTutorialQuestData@@QAE@ABV0@@Z 
??0CConstTutorialQuestData@@QAE@XZ 
??0CDualistAnimator@@QAE@ABV0@@Z 
??0CDualistAnimator@@QAE@XZ 
??0CDualistWeapon@@QAE@AAV0@@Z 
??0CDualistWeapon@@QAE@XZ 
??0CEmiter@@QAE@ABV0@@Z 
??0CEmiter@@QAE@XZ 
??0CEmittedParticle@@QAE@XZ 
??0CEnemyBase@@QAE@ABV0@@Z 
??0CEnemyBase@@QAE@XZ 
??0CEnemyDive@@QAE@ABV0@@Z 
??0CEnemyDive@@QAE@XZ 
??0CEnemyFly@@QAE@ABV0@@Z 
??0CEnemyFly@@QAE@XZ 
??0CEnemyRunInto@@QAE@ABV0@@Z 
??0CEnemyRunInto@@QAE@XZ 
??0CExceptionMapCreatureList@@QAE@ABV0@@Z 
??0CExceptionMapCreatureList@@QAE@XZ 
??0CItem@@QAE@ABV0@@Z 
??0CItem@@QAE@XZ 
??0CItemManager@@AAE@XZ 
??0CLarvaOffspring@@QAE@ABV0@@Z 
??0CLarvaOffspring@@QAE@XZ 
??0CLevelScriptor@@QAE@AAV0@@Z 
??0CLevelScriptor@@QAE@XZ 
??0CLimitedSell@@QAE@ABV0@@Z 
??0CLimitedSell@@QAE@XZ 
??0CMageAnimator@@QAE@ABV0@@Z 
??0CMageAnimator@@QAE@XZ 
??0CMageWeapon@@QAE@AAV0@@Z 
??0CMageWeapon@@QAE@XZ 
??0CNavigationMarker@@QAE@ABV0@@Z 
??0CNavigationMarker@@QAE@XZ 
??0CNinjaAnimator@@QAE@ABV0@@Z 
??0CNinjaAnimator@@QAE@XZ 
??0CNinjaWeapon@@QAE@AAV0@@Z 
??0CNinjaWeapon@@QAE@XZ 
??0CNpcBase@@QAE@AAV0@@Z 
??0CNpcBase@@QAE@XZ 
??0CNpcWatcher@@QAE@ABV0@@Z 
??0CNpcWatcher@@QAE@XZ 
??0CParticleEmitter@@QAE@ABV0@@Z 
??0CParticleEmitter@@QAE@XZ 
??0CPartsEffect@@QAE@ABV0@@Z 
??0CPartsEffect@@QAE@XZ 
??0CPathNode@@QAE@ABV0@@Z 
??0CPathNode@@QAE@PAVCNavigationMarker@@@Z 
??0CPlayer@@QAE@AAV0@@Z 
??0CPlayer@@QAE@XZ 
??0CPlayerAnimatorBase@@QAE@ABV0@@Z 
??0CPlayerAnimatorBase@@QAE@XZ 
??0CPlayerView@@QAE@ABV0@@Z 
??0CPlayerView@@QAE@XZ 
??0CPlayerWeaponBase@@QAE@AAV0@@Z 
??0CPlayerWeaponBase@@QAE@XZ 
??0CProjectile@@QAE@AAV0@@Z 
??0CProjectile@@QAE@XZ 
??0CReminder@@QAE@ABV0@@Z 
??0CReminder@@QAE@XZ 
??0CSaleEvent@@QAE@EEKE@Z 
??0CSaleEvent@@QAE@XZ 
??0CServantCreatureListData@@QAE@ABV0@@Z 
??0CServantCreatureListData@@QAE@XZ 
??0CSetItemEffect@@QAE@ABV0@@Z 
??0CSetItemEffect@@QAE@XZ 
??0CSpinner@@QAE@ABV0@@Z 
??0CSpinner@@QAE@XZ 
??0CSwordManAnimator@@QAE@ABV0@@Z 
??0CSwordManAnimator@@QAE@XZ 
??0CSwordmanWeapon@@QAE@AAV0@@Z 
??0CSwordmanWeapon@@QAE@XZ 
??0CTreeBeginnersHelpData@@QAE@AAV0@@Z 
??0CTreeBeginnersHelpData@@QAE@XZ 
??0CWatcher@@QAE@ABV0@@Z 
??0CWatcher@@QAE@XZ 
??0CellPointinfo@@QAE@ABV0@@Z 
??0CellPointinfo@@QAE@XZ 
??0ConstEventNoticeData@@QAE@XZ 
??0ConstGachaItemData@@QAE@ABV0@@Z 
??0ConstGachaItemData@@QAE@XZ 
??0ConstLoginGaugeRewardData@@QAE@ABV0@@Z 
??0ConstLoginGaugeRewardData@@QAE@XZ 
??0ConstProduceItemData@@QAE@ABV0@@Z 
??0ConstProduceItemData@@QAE@XZ 
??0ConstSpecialDiscountEventData@@QAE@ABV0@@Z 
??0ConstSpecialDiscountEventData@@QAE@XZ 
??0ConstStageRewardData@@QAE@ABV0@@Z 
??0ConstStageRewardData@@QAE@XZ 
??0EAbuseEarnPoint@@QAE@ABV0@@Z 
??0EAbuseEarnPoint@@QAE@XZ 
??0EActivate@@QAE@ABV0@@Z 
??0EActivate@@QAE@XZ 
??0EActivateBeam@@QAE@ABV0@@Z 
??0EActivateBeam@@QAE@XZ 
??0EActivateBlend@@QAE@ABV0@@Z 
??0EActivateBlend@@QAE@XZ 
??0EActivateSwitchPointer@@QAE@ABV0@@Z 
??0EActivateSwitchPointer@@QAE@XZ 
??0EActivatebySync@@QAE@ABV0@@Z 
??0EActivatebySync@@QAE@XZ 
??0EActivityBegin@@QAE@ABV0@@Z 
??0EActivityBegin@@QAE@XZ 
??0EAirElementalContinue@@QAE@ABV0@@Z 
??0EAirElementalContinue@@QAE@XZ 
??0EAmmoItem@@QAE@ABV0@@Z 
??0EAmmoItem@@QAE@XZ 
??0EAmmoPackItem@@QAE@ABV0@@Z 
??0EAmmoPackItem@@QAE@XZ 
??0EAnimatorInit@@QAE@ABV0@@Z 
??0EAnimatorInit@@QAE@XZ 
??0EApproachEnemy@@QAE@ABV0@@Z 
??0EApproachEnemy@@QAE@XZ 
??0EArchitectureDeath2@@QAE@ABV0@@Z 
??0EArchitectureDeath2@@QAE@XZ 
??0EArchitectureDeath@@QAE@ABV0@@Z 
??0EArchitectureDeath@@QAE@XZ 
??0EArmor@@QAE@ABV0@@Z 
??0EArmor@@QAE@XZ 
??0EAttackFire@@QAE@ABV0@@Z 
??0EAttackFire@@QAE@XZ 
??0EAttackHit@@QAE@ABV0@@Z 
??0EAttackHit@@QAE@XZ 
??0EBarrier@@QAE@ABV0@@Z 
??0EBarrier@@QAE@XZ 
??0EBatteryBlood@@QAE@ABV0@@Z 
??0EBatteryBlood@@QAE@XZ 
??0EBatteryContinue@@QAE@ABV0@@Z 
??0EBatteryContinue@@QAE@XZ 
??0EBatteryDamage@@QAE@ABV0@@Z 
??0EBatteryDamage@@QAE@XZ 
??0EBatteryExplode@@QAE@ABV0@@Z 
??0EBatteryExplode@@QAE@XZ 
??0EBeIdle@@QAE@ABV0@@Z 
??0EBeIdle@@QAE@XZ 
??0EBead@@QAE@ABV0@@Z 
??0EBead@@QAE@XZ 
??0EBlackIceWind@@QAE@ABV0@@Z 
??0EBlackIceWind@@QAE@XZ 
??0EBless@@QAE@ABV0@@Z 
??0EBless@@QAE@XZ 
??0EBlowUp@@QAE@ABV0@@Z 
??0EBlowUp@@QAE@XZ 
??0EBombEffect@@QAE@ABV0@@Z 
??0EBombEffect@@QAE@XZ 
??0EBonus@@QAE@ABV0@@Z 
??0EBonus@@QAE@XZ 
??0EBossDamage@@QAE@ABV0@@Z 
??0EBossDamage@@QAE@XZ 
??0EBrushDeath@@QAE@ABV0@@Z 
??0EBrushDeath@@QAE@XZ 
??0EBrushDestroyed@@QAE@ABV0@@Z 
??0EBrushDestroyed@@QAE@XZ 
??0EBrushDestroyedByDevil@@QAE@ABV0@@Z 
??0EBrushDestroyedByDevil@@QAE@XZ 
??0EBuff@@QAE@ABV0@@Z 
??0EBuff@@QAE@XZ 
??0EBuffAction@@QAE@ABV0@@Z 
??0EBuffAction@@QAE@XZ 
??0EBuffClear@@QAE@ABV0@@Z 
??0EBuffClear@@QAE@XZ 
??0EBuffEvent@@QAE@ABV0@@Z 
??0EBuffEvent@@QAE@XZ 
??0EBulletInit@@QAE@ABV0@@Z 
??0EBulletInit@@QAE@XZ 
??0ECameraStart@@QAE@ABV0@@Z 
??0ECameraStart@@QAE@XZ 
??0ECameraStop@@QAE@ABV0@@Z 
??0ECameraStop@@QAE@XZ 
??0ECenterMessage@@QAE@ABV0@@Z 
??0ECenterMessage@@QAE@XZ 
??0EChangeAnim@@QAE@ABV0@@Z 
??0EChangeAnim@@QAE@XZ 
??0EChangeCharaType@@QAE@ABV0@@Z 
??0EChangeCharaType@@QAE@XZ 
??0EChangeGravity@@QAE@ABV0@@Z 
??0EChangeGravity@@QAE@XZ 
??0EChangeMode@@QAE@ABV0@@Z 
??0EChangeMode@@QAE@XZ 
??0EChangeMusic@@QAE@ABV0@@Z 
??0EChangeMusic@@QAE@XZ 
??0EChangeStart@@QAE@ABV0@@Z 
??0EChangeStart@@QAE@XZ 
??0EChangeState@@QAE@ABV0@@Z 
??0EChangeState@@QAE@XZ 
??0EChangeWeapon@@QAE@ABV0@@Z 
??0EChangeWeapon@@QAE@XZ 
??0EChaosGuageFull@@QAE@ABV0@@Z 
??0EChaosGuageFull@@QAE@XZ 
??0EChargeAttack@@QAE@ABV0@@Z 
??0EChargeAttack@@QAE@XZ 
??0EChristmasBoxItemTouch@@QAE@ABV0@@Z 
??0EChristmasBoxItemTouch@@QAE@XZ 
??0EChristmasBoxReceive@@QAE@ABV0@@Z 
??0EChristmasBoxReceive@@QAE@XZ 
??0EChristmasDestroy@@QAE@ABV0@@Z 
??0EChristmasDestroy@@QAE@XZ 
??0EChristmasNoticeMessage@@QAE@ABV0@@Z 
??0EChristmasNoticeMessage@@QAE@XZ 
??0EChristmasSetting@@QAE@ABV0@@Z 
??0EChristmasSetting@@QAE@XZ 
??0ECloseAttack@@QAE@ABV0@@Z 
??0ECloseAttack@@QAE@XZ 
??0ECloseAttackKing@@QAE@ABV0@@Z 
??0ECloseAttackKing@@QAE@XZ 
??0ECloseQDoor@@QAE@ABV0@@Z 
??0ECloseQDoor@@QAE@XZ 
??0ECollisionState@@QAE@ABV0@@Z 
??0ECollisionState@@QAE@XZ 
??0EComputerMessage@@QAE@ABV0@@Z 
??0EComputerMessage@@QAE@XZ 
??0ECopierTrigger@@QAE@ABV0@@Z 
??0ECopierTrigger@@QAE@XZ 
??0ECounterCount@@QAE@ABV0@@Z 
??0ECounterCount@@QAE@XZ 
??0ECredits@@QAE@ABV0@@Z 
??0ECredits@@QAE@XZ 
??0ECrush@@QAE@ABV0@@Z 
??0ECrush@@QAE@XZ 
??0ECutSceneObj@@QAE@ABV0@@Z 
??0ECutSceneObj@@QAE@XZ 
??0EDamageDiminution@@QAE@ABV0@@Z 
??0EDamageDiminution@@QAE@XZ 
??0EDamageTypeNet@@QAE@ABV0@@Z 
??0EDamageTypeNet@@QAE@XZ 
??0EDeBuff@@QAE@ABV0@@Z 
??0EDeBuff@@QAE@XZ 
??0EDeBuffClear@@QAE@ABV0@@Z 
??0EDeBuffClear@@QAE@XZ 
??0EDeactivate@@QAE@ABV0@@Z 
??0EDeactivate@@QAE@XZ 
??0EDeactivateBlend@@QAE@ABV0@@Z 
??0EDeactivateBlend@@QAE@XZ 
??0EDeactivateSwitchPointer@@QAE@ABV0@@Z 
??0EDeactivateSwitchPointer@@QAE@XZ 
??0EDestroyEventItem@@QAE@ABV0@@Z 
??0EDestroyEventItem@@QAE@XZ 
??0EDevilCommand@@QAE@ABV0@@Z 
??0EDevilCommand@@QAE@XZ 
??0EDevilContinue@@QAE@ABV0@@Z 
??0EDevilContinue@@QAE@XZ 
??0EDevilFireElectricity@@QAE@ABV0@@Z 
??0EDevilFireElectricity@@QAE@XZ 
??0EDevilStopElectricity@@QAE@ABV0@@Z 
??0EDevilStopElectricity@@QAE@XZ 
??0EDisappear@@QAE@ABV0@@Z 
??0EDisappear@@QAE@XZ 
??0EDisconnected@@QAE@ABV0@@Z 
??0EDisconnected@@QAE@XZ 
??0EDistanceAttack@@QAE@ABV0@@Z 
??0EDistanceAttack@@QAE@XZ 
??0EDropBoxItem@@QAE@ABV0@@Z 
??0EDropBoxItem@@QAE@XZ 
??0EDropBoxItemDestroy@@QAE@ABV0@@Z 
??0EDropBoxItemDestroy@@QAE@XZ 
??0EDropBoxItemTouch@@QAE@ABV0@@Z 
??0EDropBoxItemTouch@@QAE@XZ 
??0EDropKamikaze@@QAE@ABV0@@Z 
??0EDropKamikaze@@QAE@XZ 
??0EEffectAttack@@QAE@ABV0@@Z 
??0EEffectAttack@@QAE@XZ 
??0EElectricityStart@@QAE@ABV0@@Z 
??0EElectricityStart@@QAE@XZ 
??0EElectricityStop@@QAE@ABV0@@Z 
??0EElectricityStop@@QAE@XZ 
??0EElementalGrow@@QAE@ABV0@@Z 
??0EElementalGrow@@QAE@XZ 
??0EEnd@@QAE@ABV0@@Z 
??0EEnd@@QAE@XZ 
??0EEndRound@@QAE@ABV0@@Z 
??0EEndRound@@QAE@XZ 
??0EEnemyBaseDamage@@QAE@ABV0@@Z 
??0EEnemyBaseDamage@@QAE@XZ 
??0EEnemyBaseDeath@@QAE@ABV0@@Z 
??0EEnemyBaseDeath@@QAE@XZ 
??0EEnvironmentStart@@QAE@ABV0@@Z 
??0EEnvironmentStart@@QAE@XZ 
??0EEnvironmentStop@@QAE@ABV0@@Z 
??0EEnvironmentStop@@QAE@XZ 
??0EEventItemSetting@@QAE@ABV0@@Z 
??0EEventItemSetting@@QAE@XZ 
??0EExplEffect@@QAE@ABV0@@Z 
??0EExplEffect@@QAE@XZ 
??0EExplode@@QAE@ABV0@@Z 
??0EExplode@@QAE@XZ 
??0EExplosion@@QAE@ABV0@@Z 
??0EExplosion@@QAE@XZ 
??0EFear@@QAE@ABV0@@Z 
??0EFear@@QAE@XZ 
??0EFearEffect@@QAE@ABV0@@Z 
??0EFearEffect@@QAE@XZ 
??0EFlame@@QAE@ABV0@@Z 
??0EFlame@@QAE@XZ 
??0EFlipTheSwitch@@QAE@ABV0@@Z 
??0EFlipTheSwitch@@QAE@XZ 
??0EFloatingScore@@QAE@ABV0@@Z 
??0EFloatingScore@@QAE@XZ 
??0EForceExplode@@QAE@ABV0@@Z 
??0EForceExplode@@QAE@XZ 
??0EForcePathMarker@@QAE@ABV0@@Z 
??0EForcePathMarker@@QAE@XZ 
??0EForceWound@@QAE@ABV0@@Z 
??0EForceWound@@QAE@XZ 
??0EFreeze@@QAE@ABV0@@Z 
??0EFreeze@@QAE@XZ 
??0EGetEventItem@@QAE@ABV0@@Z 
??0EGetEventItem@@QAE@XZ 
??0EGoldGolemRebirth@@QAE@ABV0@@Z 
??0EGoldGolemRebirth@@QAE@XZ 
??0EGoldGolemRespawn@@QAE@ABV0@@Z 
??0EGoldGolemRespawn@@QAE@XZ 
??0EGoldSword@@QAE@ABV0@@Z 
??0EGoldSword@@QAE@XZ 
??0EHarbor@@QAE@ABV0@@Z 
??0EHarbor@@QAE@XZ 
??0EHealth@@QAE@ABV0@@Z 
??0EHealth@@QAE@XZ 
??0EHeart@@QAE@ABV0@@Z 
??0EHeart@@QAE@XZ 
??0EHit@@QAE@ABV0@@Z 
??0EHit@@QAE@XZ 
??0EHitBySpaceShipBeam@@QAE@ABV0@@Z 
??0EHitBySpaceShipBeam@@QAE@XZ 
??0EHoldAttack@@QAE@ABV0@@Z 
??0EHoldAttack@@QAE@XZ 
??0EHolyLight@@QAE@ABV0@@Z 
??0EHolyLight@@QAE@XZ 
??0EHudPicFX@@QAE@ABV0@@Z 
??0EHudPicFX@@QAE@XZ 
??0EIceWind@@QAE@ABV0@@Z 
??0EIceWind@@QAE@XZ 
??0EIdle@@QAE@ABV0@@Z 
??0EIdle@@QAE@XZ 
??0EIndicatorCreate@@QAE@ABV0@@Z 
??0EIndicatorCreate@@QAE@XZ 
??0EInitDualistBomb@@QAE@ABV0@@Z 
??0EInitDualistBomb@@QAE@XZ 
??0EInitFreeFallModel@@QAE@ABV0@@Z 
??0EInitFreeFallModel@@QAE@XZ 
??0EInitRangeWeapon@@QAE@ABV0@@Z 
??0EInitRangeWeapon@@QAE@XZ 
??0EInvincible@@QAE@ABV0@@Z 
??0EInvincible@@QAE@XZ 
??0EKey@@QAE@ABV0@@Z 
??0EKey@@QAE@XZ 
??0EKillCount@@QAE@ABV0@@Z 
??0EKillCount@@QAE@XZ 
??0EKilledEnemy@@QAE@ABV0@@Z 
??0EKilledEnemy@@QAE@XZ 
??0ELarvaArmDestroyed@@QAE@ABV0@@Z 
??0ELarvaArmDestroyed@@QAE@XZ 
??0ELarvaContinue@@QAE@ABV0@@Z 
??0ELarvaContinue@@QAE@XZ 
??0ELarvaFireLaser@@QAE@ABV0@@Z 
??0ELarvaFireLaser@@QAE@XZ 
??0ELarvaHealth@@QAE@ABV0@@Z 
??0ELarvaHealth@@QAE@XZ 
??0ELarvaRechargePose@@QAE@ABV0@@Z 
??0ELarvaRechargePose@@QAE@XZ 
??0ELaserDestroy@@QAE@ABV0@@Z 
??0ELaserDestroy@@QAE@XZ 
??0ELaserParam@@QAE@ABV0@@Z 
??0ELaserParam@@QAE@XZ 
??0ELaserReadyDestroy@@QAE@ABV0@@Z 
??0ELaserReadyDestroy@@QAE@XZ 
??0ELaserReadyParam@@QAE@ABV0@@Z 
??0ELaserReadyParam@@QAE@XZ 
??0ELaunchCannonBall@@QAE@ABV0@@Z 
??0ELaunchCannonBall@@QAE@XZ 
??0ELaunchLarvaOffspring@@QAE@ABV0@@Z 
??0ELaunchLarvaOffspring@@QAE@XZ 
??0ELaunchProjectile@@QAE@ABV0@@Z 
??0ELaunchProjectile@@QAE@XZ 
??0ELongBow@@QAE@ABV0@@Z 
??0ELongBow@@QAE@XZ 
??0EMageBarrier@@QAE@ABV0@@Z 
??0EMageBarrier@@QAE@XZ 
??0EMageBless@@QAE@ABV0@@Z 
??0EMageBless@@QAE@XZ 
??0EMageBomb@@QAE@ABV0@@Z 
??0EMageBomb@@QAE@XZ 
??0EMageDispell@@QAE@ABV0@@Z 
??0EMageDispell@@QAE@XZ 
??0EMageHold@@QAE@ABV0@@Z 
??0EMageHold@@QAE@XZ 
??0EMageMissile@@QAE@ABV0@@Z 
??0EMageMissile@@QAE@XZ 
??0EMageSpell@@QAE@ABV0@@Z 
??0EMageSpell@@QAE@XZ 
??0EMagicBomb@@QAE@ABV0@@Z 
??0EMagicBomb@@QAE@XZ 
??0EMagicMissile@@QAE@ABV0@@Z 
??0EMagicMissile@@QAE@XZ 
??0EMapItemBomb@@QAE@ABV0@@Z 
??0EMapItemBomb@@QAE@XZ 
??0EMapItemReceive@@QAE@ABV0@@Z 
??0EMapItemReceive@@QAE@XZ 
??0EMapItemRespawn@@QAE@ABV0@@Z 
??0EMapItemRespawn@@QAE@XZ 
??0EMapItemSpawnMapNpc@@QAE@ABV0@@Z 
??0EMapItemSpawnMapNpc@@QAE@XZ 
??0EMapItemTouch@@QAE@ABV0@@Z 
??0EMapItemTouch@@QAE@XZ 
??0EMarkPicked@@QAE@ABV0@@Z 
??0EMarkPicked@@QAE@XZ 
??0EMasterGolemDamage@@QAE@ABV0@@Z 
??0EMasterGolemDamage@@QAE@XZ 
??0EMasterGolemRespawn@@QAE@ABV0@@Z 
??0EMasterGolemRespawn@@QAE@XZ 
??0EMasterNpcRespawn@@QAE@ABV0@@Z 
??0EMasterNpcRespawn@@QAE@XZ 
??0EMessageItem@@QAE@ABV0@@Z 
??0EMessageItem@@QAE@XZ 
??0EModel2Activate@@QAE@ABV0@@Z 
??0EModel2Activate@@QAE@XZ 
??0EModel2Deactivate@@QAE@ABV0@@Z 
??0EModel2Deactivate@@QAE@XZ 
??0EModel3Activate@@QAE@ABV0@@Z 
??0EModel3Activate@@QAE@XZ 
??0EModel3Deactivate@@QAE@ABV0@@Z 
??0EModel3Deactivate@@QAE@XZ 
??0EModelDeath@@QAE@ABV0@@Z 
??0EModelDeath@@QAE@XZ 
??0EModelForSequenceMarker@@QAE@ABV0@@Z 
??0EModelForSequenceMarker@@QAE@XZ 
??0EMoveToDestination@@QAE@ABV0@@Z 
??0EMoveToDestination@@QAE@XZ 
??0EMovementAnimation@@QAE@ABV0@@Z 
??0EMovementAnimation@@QAE@XZ 
??0EMovingBrushDeath@@QAE@ABV0@@Z 
??0EMovingBrushDeath@@QAE@XZ 
??0EMusicChangerTrigger@@QAE@ABV0@@Z 
??0EMusicChangerTrigger@@QAE@XZ 
??0ENetChangeMusic@@QAE@ABV0@@Z 
??0ENetChangeMusic@@QAE@XZ 
??0ENetSpawnEntity@@QAE@ABV0@@Z 
??0ENetSpawnEntity@@QAE@XZ 
??0ENetTrigger@@QAE@ABV0@@Z 
??0ENetTrigger@@QAE@XZ 
??0ENetTriggerPSS@@QAE@ABV0@@Z 
??0ENetTriggerPSS@@QAE@XZ 
??0ENewGolemKillTypeBuff@@QAE@ABV0@@Z 
??0ENewGolemKillTypeBuff@@QAE@XZ 
??0ENpcAcdPoison@@QAE@ABV0@@Z 
??0ENpcAcdPoison@@QAE@XZ 
??0ENpcBaseDamage@@QAE@ABV0@@Z 
??0ENpcBaseDamage@@QAE@XZ 
??0ENpcBaseDeath@@QAE@ABV0@@Z 
??0ENpcBaseDeath@@QAE@XZ 
??0ENpcBuff@@QAE@ABV0@@Z 
??0ENpcBuff@@QAE@XZ 
??0ENpcCocoon@@QAE@ABV0@@Z 
??0ENpcCocoon@@QAE@XZ 
??0ENpcDeadToSwitch@@QAE@ABV0@@Z 
??0ENpcDeadToSwitch@@QAE@XZ 
??0ENpcDisappear@@QAE@ABV0@@Z 
??0ENpcDisappear@@QAE@XZ 
??0ENpcExtraSet@@QAE@ABV0@@Z 
??0ENpcExtraSet@@QAE@XZ 
??0ENpcFear@@QAE@ABV0@@Z 
??0ENpcFear@@QAE@XZ 
??0ENpcFreeze@@QAE@ABV0@@Z 
??0ENpcFreeze@@QAE@XZ 
??0ENpcHP@@QAE@ABV0@@Z 
??0ENpcHP@@QAE@XZ 
??0ENpcNoticeChangeMovePatrolState@@QAE@ABV0@@Z 
??0ENpcNoticeChangeMovePatrolState@@QAE@XZ 
??0ENpcReconsiderBehavior@@QAE@ABV0@@Z 
??0ENpcReconsiderBehavior@@QAE@XZ 
??0ENpcSetDummy@@QAE@ABV0@@Z 
??0ENpcSetDummy@@QAE@XZ 
??0ENpcSetNormal@@QAE@ABV0@@Z 
??0ENpcSetNormal@@QAE@XZ 
??0ENpcStun@@QAE@ABV0@@Z 
??0ENpcStun@@QAE@XZ 
??0ENpcTried@@QAE@ABV0@@Z 
??0ENpcTried@@QAE@XZ 
??0ENpcWatch@@QAE@ABV0@@Z 
??0ENpcWatch@@QAE@XZ 
??0ENpcWatcherInit@@QAE@ABV0@@Z 
??0ENpcWatcherInit@@QAE@XZ 
??0ENpcWeakening@@QAE@ABV0@@Z 
??0ENpcWeakening@@QAE@XZ 
??0EObserver@@QAE@ABV0@@Z 
??0EObserver@@QAE@XZ 
??0EOpenDoor@@QAE@ABV0@@Z 
??0EOpenDoor@@QAE@XZ 
??0EOpenQDoor@@QAE@ABV0@@Z 
??0EOpenQDoor@@QAE@XZ 
??0EOverallAttack@@QAE@ABV0@@Z 
??0EOverallAttack@@QAE@XZ 
??0EParticlesActivate@@QAE@ABV0@@Z 
??0EParticlesActivate@@QAE@XZ 
??0EParticlesDeactivate@@QAE@ABV0@@Z 
??0EParticlesDeactivate@@QAE@XZ 
??0EPassiveCreate@@QAE@ABV0@@Z 
??0EPassiveCreate@@QAE@XZ 
??0EPhaseCheck@@QAE@ABV0@@Z 
??0EPhaseCheck@@QAE@XZ 
??0EPhaseState@@QAE@ABV0@@Z 
??0EPhaseState@@QAE@XZ 
??0EPlayEndMenu@@QAE@ABV0@@Z 
??0EPlayEndMenu@@QAE@XZ 
??0EPlayIdleMenu@@QAE@ABV0@@Z 
??0EPlayIdleMenu@@QAE@XZ 
??0EPlayReturnMenu@@QAE@ABV0@@Z 
??0EPlayReturnMenu@@QAE@XZ 
??0EPlaySoundOnce@@QAE@ABV0@@Z 
??0EPlaySoundOnce@@QAE@XZ 
??0EPlayStartMenu@@QAE@ABV0@@Z 
??0EPlayStartMenu@@QAE@XZ 
??0EPlayerAcdPoison@@QAE@ABV0@@Z 
??0EPlayerAcdPoison@@QAE@XZ 
??0EPlayerBouncedWall@@QAE@ABV0@@Z 
??0EPlayerBouncedWall@@QAE@XZ 
??0EPlayerDamage@@QAE@ABV0@@Z 
??0EPlayerDamage@@QAE@XZ 
??0EPlayerDeath@@QAE@ABV0@@Z 
??0EPlayerDeath@@QAE@XZ 
??0EPlayerRemainHP@@QAE@ABV0@@Z 
??0EPlayerRemainHP@@QAE@XZ 
??0EPlayerReset_HP_AP@@QAE@ABV0@@Z 
??0EPlayerReset_HP_AP@@QAE@XZ 
??0EPowerUp@@QAE@ABV0@@Z 
??0EPowerUp@@QAE@XZ 
??0EPrevClearedRank@@QAE@ABV0@@Z 
??0EPrevClearedRank@@QAE@XZ 
??0EPrizeValue@@QAE@ABV0@@Z 
??0EPrizeValue@@QAE@XZ 
??0EProjectileSpawnClient@@QAE@ABV0@@Z 
??0EProjectileSpawnClient@@QAE@XZ 
??0EProjectileSpawnParam@@QAE@ABV0@@Z 
??0EProjectileSpawnParam@@QAE@XZ 
??0EPyramidShipActivate@@QAE@ABV0@@Z 
??0EPyramidShipActivate@@QAE@XZ 
??0EPyramidShipDeactivate@@QAE@ABV0@@Z 
??0EPyramidShipDeactivate@@QAE@XZ 
??0EQMessage@@QAE@ABV0@@Z 
??0EQMessage@@QAE@XZ 
??0EQstSWReady@@QAE@ABV0@@Z 
??0EQstSWReady@@QAE@XZ 
??0EQstStatus@@QAE@ABV0@@Z 
??0EQstStatus@@QAE@XZ 
??0EQstSwOn@@QAE@ABV0@@Z 
??0EQstSwOn@@QAE@XZ 
??0EQstSwRandom@@QAE@ABV0@@Z 
??0EQstSwRandom@@QAE@XZ 
??0ERangeAttack@@QAE@ABV0@@Z 
??0ERangeAttack@@QAE@XZ 
??0ERangeAttackKing@@QAE@ABV0@@Z 
??0ERangeAttackKing@@QAE@XZ 
??0ERangeModelDestruction@@QAE@ABV0@@Z 
??0ERangeModelDestruction@@QAE@XZ 
??0ERecallEffect@@QAE@ABV0@@Z 
??0ERecallEffect@@QAE@XZ 
??0EReceiveItem@@QAE@ABV0@@Z 
??0EReceiveItem@@QAE@XZ 
??0EReceiveScore@@QAE@ABV0@@Z 
??0EReceiveScore@@QAE@XZ 
??0EReceiveTotDamage@@QAE@ABV0@@Z 
??0EReceiveTotDamage@@QAE@XZ 
??0EReconsiderBehavior@@QAE@ABV0@@Z 
??0EReconsiderBehavior@@QAE@XZ 
??0ERegenerationImpuls@@QAE@ABV0@@Z 
??0ERegenerationImpuls@@QAE@XZ 
??0EReminder@@QAE@ABV0@@Z 
??0EReminder@@QAE@XZ 
??0EReminderInit@@QAE@ABV0@@Z 
??0EReminderInit@@QAE@XZ 
??0EReportTargetforLeader@@QAE@ABV0@@Z 
??0EReportTargetforLeader@@QAE@XZ 
??0ERequestHoldAttack@@QAE@ABV0@@Z 
??0ERequestHoldAttack@@QAE@XZ 
??0ERequestJudge@@QAE@ABV0@@Z 
??0ERequestJudge@@QAE@XZ 
??0ERespawn@@QAE@ABV0@@Z 
??0ERespawn@@QAE@XZ 
??0ERestartAttack@@QAE@ABV0@@Z 
??0ERestartAttack@@QAE@XZ 
??0ERestartRound@@QAE@ABV0@@Z 
??0ERestartRound@@QAE@XZ 
??0EReturnToEndPatrol@@QAE@ABV0@@Z 
??0EReturnToEndPatrol@@QAE@XZ 
??0EReversal@@QAE@ABV0@@Z 
??0EReversal@@QAE@XZ 
??0ESaveGame@@QAE@ABV0@@Z 
??0ESaveGame@@QAE@XZ 
??0EScorpmanWakeUp@@QAE@ABV0@@Z 
??0EScorpmanWakeUp@@QAE@XZ 
??0EScroll@@QAE@ABV0@@Z 
??0EScroll@@QAE@XZ 
??0ESecretFound@@QAE@ABV0@@Z 
??0ESecretFound@@QAE@XZ 
??0ESeriousBomb@@QAE@ABV0@@Z 
??0ESeriousBomb@@QAE@XZ 
??0ESetFlyState@@QAE@ABV0@@Z 
??0ESetFlyState@@QAE@XZ 
??0ESetTargetAnim@@QAE@ABV0@@Z 
??0ESetTargetAnim@@QAE@XZ 
??0ESetTargetIndicator@@QAE@ABV0@@Z 
??0ESetTargetIndicator@@QAE@XZ 
??0ESetTargetforGroup@@QAE@ABV0@@Z 
??0ESetTargetforGroup@@QAE@XZ 
??0ESetType@@QAE@ABV0@@Z 
??0ESetType@@QAE@XZ 
??0ESetViewer@@QAE@ABV0@@Z 
??0ESetViewer@@QAE@XZ 
??0ESetWeapon@@QAE@ABV0@@Z 
??0ESetWeapon@@QAE@XZ 
??0EShootShuriken@@QAE@ABV0@@Z 
??0EShootShuriken@@QAE@XZ 
??0EShootWeapon@@QAE@ABV0@@Z 
??0EShootWeapon@@QAE@XZ 
??0EShortAttack@@QAE@ABV0@@Z 
??0EShortAttack@@QAE@XZ 
??0EShortRangeAttack@@QAE@ABV0@@Z 
??0EShortRangeAttack@@QAE@XZ 
??0ESoulCannon@@QAE@ABV0@@Z 
??0ESoulCannon@@QAE@XZ 
??0ESoulCannonDestroy@@QAE@ABV0@@Z 
??0ESoulCannonDestroy@@QAE@XZ 
??0ESoulShot@@QAE@ABV0@@Z 
??0ESoulShot@@QAE@XZ 
??0ESound@@QAE@ABV0@@Z 
??0ESound@@QAE@XZ 
??0ESpawnBead@@QAE@ABV0@@Z 
??0ESpawnBead@@QAE@XZ 
??0ESpawnBillBoardImage@@QAE@ABV0@@Z 
??0ESpawnBillBoardImage@@QAE@XZ 
??0ESpawnBoneEffect@@QAE@ABV0@@Z 
??0ESpawnBoneEffect@@QAE@XZ 
??0ESpawnBoneEffectModel@@QAE@ABV0@@Z 
??0ESpawnBoneEffectModel@@QAE@XZ 
??0ESpawnBurning@@QAE@ABV0@@Z 
??0ESpawnBurning@@QAE@XZ 
??0ESpawnCPEffect@@QAE@ABV0@@Z 
??0ESpawnCPEffect@@QAE@XZ 
??0ESpawnChristmasBox@@QAE@ABV0@@Z 
??0ESpawnChristmasBox@@QAE@XZ 
??0ESpawnCocoon@@QAE@ABV0@@Z 
??0ESpawnCocoon@@QAE@XZ 
??0ESpawnDebris@@QAE@ABV0@@Z 
??0ESpawnDebris@@QAE@XZ 
??0ESpawnDebrisSka@@QAE@ABV0@@Z 
??0ESpawnDebrisSka@@QAE@XZ 
??0ESpawnDropBoxItem@@QAE@ABV0@@Z 
??0ESpawnDropBoxItem@@QAE@XZ 
??0ESpawnEffect@@QAE@ABV0@@Z 
??0ESpawnEffect@@QAE@XZ 
??0ESpawnEffector@@QAE@ABV0@@Z 
??0ESpawnEffector@@QAE@XZ 
??0ESpawnEventItem@@QAE@ABV0@@Z 
??0ESpawnEventItem@@QAE@XZ 
??0ESpawnFlame@@QAE@ABV0@@Z 
??0ESpawnFlame@@QAE@XZ 
??0ESpawnFreeze@@QAE@ABV0@@Z 
??0ESpawnFreeze@@QAE@XZ 
??0ESpawnInvincible@@QAE@ABV0@@Z 
??0ESpawnInvincible@@QAE@XZ 
??0ESpawnMessage@@QAE@ABV0@@Z 
??0ESpawnMessage@@QAE@XZ 
??0ESpawnNpc@@QAE@ABV0@@Z 
??0ESpawnNpc@@QAE@XZ 
??0ESpawnNpcEffect@@QAE@ABV0@@Z 
??0ESpawnNpcEffect@@QAE@XZ 
??0ESpawnPassive@@QAE@ABV0@@Z 
??0ESpawnPassive@@QAE@XZ 
??0ESpawnPoison@@QAE@ABV0@@Z 
??0ESpawnPoison@@QAE@XZ 
??0ESpawnQstNpc@@QAE@ABV0@@Z 
??0ESpawnQstNpc@@QAE@XZ 
??0ESpawnReversal@@QAE@ABV0@@Z 
??0ESpawnReversal@@QAE@XZ 
??0ESpawnSpray@@QAE@ABV0@@Z 
??0ESpawnSpray@@QAE@XZ 
??0ESpawnStun@@QAE@ABV0@@Z 
??0ESpawnStun@@QAE@XZ 
??0ESpawnTried@@QAE@ABV0@@Z 
??0ESpawnTried@@QAE@XZ 
??0ESpawnWeakening@@QAE@ABV0@@Z 
??0ESpawnWeakening@@QAE@XZ 
??0ESpawnerProjectile@@QAE@ABV0@@Z 
??0ESpawnerProjectile@@QAE@XZ 
??0ESpecialAttackHit@@QAE@ABV0@@Z 
??0ESpecialAttackHit@@QAE@XZ 
??0ESpinnerInit@@QAE@ABV0@@Z 
??0ESpinnerInit@@QAE@XZ 
??0EStand@@QAE@ABV0@@Z 
??0EStand@@QAE@XZ 
??0EStart@@QAE@ABV0@@Z 
??0EStart@@QAE@XZ 
??0EStartAttack@@QAE@ABV0@@Z 
??0EStartAttack@@QAE@XZ 
??0EStartCounter@@QAE@ABV0@@Z 
??0EStartCounter@@QAE@XZ 
??0EStartDrawImage@@QAE@ABV0@@Z 
??0EStartDrawImage@@QAE@XZ 
??0EStartRound@@QAE@ABV0@@Z 
??0EStartRound@@QAE@XZ 
??0EStartSounds@@QAE@ABV0@@Z 
??0EStartSounds@@QAE@XZ 
??0EStop@@QAE@ABV0@@Z 
??0EStop@@QAE@XZ 
??0EStopAttack@@QAE@ABV0@@Z 
??0EStopAttack@@QAE@XZ 
??0EStopBlindness@@QAE@ABV0@@Z 
??0EStopBlindness@@QAE@XZ 
??0EStopCounter@@QAE@ABV0@@Z 
??0EStopCounter@@QAE@XZ 
??0EStopDeafness@@QAE@ABV0@@Z 
??0EStopDeafness@@QAE@XZ 
??0EStopFlaming@@QAE@ABV0@@Z 
??0EStopFlaming@@QAE@XZ 
??0EStopSounds@@QAE@ABV0@@Z 
??0EStopSounds@@QAE@XZ 
??0EStormEnvironmentStart@@QAE@ABV0@@Z 
??0EStormEnvironmentStart@@QAE@XZ 
??0EStormStart@@QAE@ABV0@@Z 
??0EStormStart@@QAE@XZ 
??0EStormStop@@QAE@ABV0@@Z 
??0EStormStop@@QAE@XZ 
??0ESucking@@QAE@ABV0@@Z 
??0ESucking@@QAE@XZ 
??0ESummonAttack@@QAE@ABV0@@Z 
??0ESummonAttack@@QAE@XZ 
??0ESummonEffect@@QAE@ABV0@@Z 
??0ESummonEffect@@QAE@XZ 
??0ESummonEffectOption@@QAE@ABV0@@Z 
??0ESummonEffectOption@@QAE@XZ 
??0ESummonerContinue@@QAE@ABV0@@Z 
??0ESummonerContinue@@QAE@XZ 
??0ESummonerMaterialize@@QAE@ABV0@@Z 
??0ESummonerMaterialize@@QAE@XZ 
??0ESummonerTeleport@@QAE@ABV0@@Z 
??0ESummonerTeleport@@QAE@XZ 
??0ETapMiniMapPickIndex@@QAE@ABV0@@Z 
??0ETapMiniMapPickIndex@@QAE@XZ 
??0ETeleportActivate@@QAE@ABV0@@Z 
??0ETeleportActivate@@QAE@XZ 
??0ETeleportDeactivate@@QAE@ABV0@@Z 
??0ETeleportDeactivate@@QAE@XZ 
??0ETeleportMovingBrush@@QAE@ABV0@@Z 
??0ETeleportMovingBrush@@QAE@XZ 
??0ETextFX@@QAE@ABV0@@Z 
??0ETextFX@@QAE@XZ 
??0ETouchSendedByRemote@@QAE@ABV0@@Z 
??0ETouchSendedByRemote@@QAE@XZ 
??0ETreasureItem@@QAE@ABV0@@Z 
??0ETreasureItem@@QAE@XZ 
??0ETried@@QAE@ABV0@@Z 
??0ETried@@QAE@XZ 
??0ETrigger@@QAE@ABV0@@Z 
??0ETrigger@@QAE@XZ 
??0ETriggerEffector@@QAE@ABV0@@Z 
??0ETriggerEffector@@QAE@XZ 
??0ETriggerLightning@@QAE@ABV0@@Z 
??0ETriggerLightning@@QAE@XZ 
??0ETwister@@QAE@ABV0@@Z 
??0ETwister@@QAE@XZ 
??0EUsePotion@@QAE@ABV0@@Z 
??0EUsePotion@@QAE@XZ 
??0EViewInit@@QAE@ABV0@@Z 
??0EViewInit@@QAE@XZ 
??0EVoiceMessage@@QAE@ABV0@@Z 
??0EVoiceMessage@@QAE@XZ 
??0EWatch@@QAE@ABV0@@Z 
??0EWatch@@QAE@XZ 
??0EWatcherInit@@QAE@ABV0@@Z 
??0EWatcherInit@@QAE@XZ 
??0EWeakening@@QAE@ABV0@@Z 
??0EWeakening@@QAE@XZ 
??0EWeaponItem@@QAE@ABV0@@Z 
??0EWeaponItem@@QAE@XZ 
??0EWeaponsInit@@QAE@ABV0@@Z 
??0EWeaponsInit@@QAE@XZ 
??0EWeatherStart@@QAE@ABV0@@Z 
??0EWeatherStart@@QAE@XZ 
??0EWeatherStop@@QAE@ABV0@@Z 
??0EWeatherStop@@QAE@XZ 
??0EWingDestroy@@QAE@ABV0@@Z 
??0EWingDestroy@@QAE@XZ 
??0Effect_AdditionCriticalDamage@@QAE@ABV0@@Z 
??0Effect_AdditionCriticalDamage@@QAE@XZ 
??0Effect_AttackSpeed@@QAE@ABV0@@Z 
??0Effect_AttackSpeed@@QAE@XZ 
??0Effect_DecreasePerCritical@@QAE@ABV0@@Z 
??0Effect_DecreasePerCritical@@QAE@XZ 
??0Effect_DiminishRecvDamage@@QAE@ABV0@@Z 
??0Effect_DiminishRecvDamage@@QAE@XZ 
??0Effect_Heal@@QAE@ABV0@@Z 
??0Effect_Heal@@QAE@XZ 
??0Effect_HitCreature@@QAE@ABV0@@Z 
??0Effect_HitCreature@@QAE@XZ 
??0Effect_HitDistance@@QAE@ABV0@@Z 
??0Effect_HitDistance@@QAE@XZ 
??0Effect_HitHold@@QAE@ABV0@@Z 
??0Effect_HitHold@@QAE@XZ 
??0Effect_HitNormal@@QAE@ABV0@@Z 
??0Effect_HitNormal@@QAE@XZ 
??0Effect_HitSpecial@@QAE@ABV0@@Z 
??0Effect_HitSpecial@@QAE@XZ 
??0Effect_Invincible@@QAE@ABV0@@Z 
??0Effect_Invincible@@QAE@XZ 
??0Effect_MoveSpeed@@QAE@ABV0@@Z 
??0Effect_MoveSpeed@@QAE@XZ 
??0Effect_RandomEffect@@QAE@ABV0@@Z 
??0Effect_RandomEffect@@QAE@XZ 
??0Effect_ReturnDamage@@QAE@ABV0@@Z 
??0Effect_ReturnDamage@@QAE@XZ 
??0PlayerStats@@QAE@XZ 
??0arrtail@@QAE@ABV0@@Z 
??0arrtail@@QAE@XZ 
??0eSpikeSet@@QAE@ABV0@@Z 
??0eSpikeSet@@QAE@XZ 
??0eSpineInit@@QAE@ABV0@@Z 
??0eSpineInit@@QAE@XZ 
??0eSpineSet@@QAE@ABV0@@Z 
??0eSpineSet@@QAE@XZ 
??0tail@@QAE@ABV0@@Z 
??0tail@@QAE@XZ 
??1CAbuseStr_Filter@@QAE@XZ 
??1CBattleBowAnimator@@UAE@XZ 
??1CBattleBowWeapon@@UAE@XZ 
??1CBeginnersHelpData@@UAE@XZ 
??1CBlackSmithAnimator@@UAE@XZ 
??1CBlackSmithWeapon@@UAE@XZ 
??1CBuddyFishingDefense@@QAE@XZ 
??1CBullet@@UAE@XZ 
??1CCannonBall@@UAE@XZ 
??1CCharName_Filter@@QAE@XZ 
??1CCompMessageID@@QAE@XZ 
??1CConstAchievementData@@QAE@XZ 
??1CConstAlphabetData@@QAE@XZ 
??1CConstAttributeData@@QAE@XZ 
??1CConstAttributeObjectData@@QAE@XZ 
??1CConstAttributeOpenData@@QAE@XZ 
??1CConstAttributeReinforceData@@QAE@XZ 
??1CConstClanEmblemData@@QAE@XZ 
??1CConstCreatureBookCollectionData@@QAE@XZ 
??1CConstCreatureBookData@@QAE@XZ 
??1CConstCreatureSynthesisData@@QAE@XZ 
??1CConstEventKillCountData@@QAE@XZ 
??1CConstItemData@@QAE@XZ 
??1CConstNewGolemNpcData@@QAE@XZ 
??1CConstNewGolemPlayerData@@QAE@XZ 
??1CConstObjectToolTip@@QAE@XZ 
??1CConstPreloadCreatureData@@QAE@XZ 
??1CConstPreloadGameResource@@QAE@XZ 
??1CConstPremiumPack@@QAE@XZ 
??1CConstQuestData@@QAE@XZ 
??1CConstRageGaugeData@@QAE@XZ 
??1CConstSetEffectEquipmentData@@QAE@XZ 
??1CConstStageEffectItem@@QAE@XZ 
??1CConstTapMiniMapInfoData@@QAE@XZ 
??1CConstTutorialQuestData@@QAE@XZ 
??1CDualistAnimator@@UAE@XZ 
??1CDualistWeapon@@UAE@XZ 
??1CEmiter@@QAE@XZ 
??1CEnemyBase@@UAE@XZ 
??1CEnemyDive@@UAE@XZ 
??1CEnemyFly@@UAE@XZ 
??1CEnemyRunInto@@UAE@XZ 
??1CExceptionMapCreatureList@@QAE@XZ 
??1CItem@@UAE@XZ 
??1CItemManager@@AAE@XZ 
??1CLarvaOffspring@@UAE@XZ 
??1CLevelScriptor@@UAE@XZ 
??1CLimitedSell@@QAE@XZ 
??1CMageAnimator@@UAE@XZ 
??1CMageWeapon@@UAE@XZ 
??1CNavigationMarker@@UAE@XZ 
??1CNinjaAnimator@@UAE@XZ 
??1CNinjaWeapon@@UAE@XZ 
??1CNpcBase@@UAE@XZ 
??1CNpcWatcher@@UAE@XZ 
??1CParticleEmitter@@UAE@XZ 
??1CPartsEffect@@QAE@XZ 
??1CPathNode@@QAE@XZ 
??1CPlayer@@UAE@XZ 
??1CPlayerAnimatorBase@@UAE@XZ 
??1CPlayerView@@UAE@XZ 
??1CPlayerWeaponBase@@UAE@XZ 
??1CProjectile@@UAE@XZ 
??1CReminder@@UAE@XZ 
??1CSaleEvent@@QAE@XZ 
??1CServantCreatureListData@@QAE@XZ 
??1CSetItemEffect@@QAE@XZ 
??1CSpinner@@UAE@XZ 
??1CSwordManAnimator@@UAE@XZ 
??1CSwordmanWeapon@@UAE@XZ 
??1CTreeBeginnersHelpData@@UAE@XZ 
??1CWatcher@@UAE@XZ 
??1CellPointinfo@@UAE@XZ 
??1ConstEventNoticeData@@QAE@XZ 
??1ConstGachaItemData@@QAE@XZ 
??1ConstLoginGaugeRewardData@@QAE@XZ 
??1ConstProduceItemData@@QAE@XZ 
??1ConstSpecialDiscountEventData@@QAE@XZ 
??1ConstStageRewardData@@QAE@XZ 
??1EAbuseEarnPoint@@UAE@XZ 
??1EActivate@@UAE@XZ 
??1EActivateBeam@@UAE@XZ 
??1EActivateBlend@@UAE@XZ 
??1EActivateSwitchPointer@@UAE@XZ 
??1EActivatebySync@@UAE@XZ 
??1EActivityBegin@@UAE@XZ 
??1EAirElementalContinue@@UAE@XZ 
??1EAmmoItem@@UAE@XZ 
??1EAmmoPackItem@@UAE@XZ 
??1EAnimatorInit@@UAE@XZ 
??1EApproachEnemy@@UAE@XZ 
??1EArchitectureDeath2@@UAE@XZ 
??1EArchitectureDeath@@UAE@XZ 
??1EArmor@@UAE@XZ 
??1EAttackFire@@UAE@XZ 
??1EAttackHit@@UAE@XZ 
??1EBarrier@@UAE@XZ 
??1EBatteryBlood@@UAE@XZ 
??1EBatteryContinue@@UAE@XZ 
??1EBatteryDamage@@UAE@XZ 
??1EBatteryExplode@@UAE@XZ 
??1EBeIdle@@UAE@XZ 
??1EBead@@UAE@XZ 
??1EBlackIceWind@@UAE@XZ 
??1EBless@@UAE@XZ 
??1EBlowUp@@UAE@XZ 
??1EBombEffect@@UAE@XZ 
??1EBonus@@UAE@XZ 
??1EBossDamage@@UAE@XZ 
??1EBrushDeath@@UAE@XZ 
??1EBrushDestroyed@@UAE@XZ 
??1EBrushDestroyedByDevil@@UAE@XZ 
??1EBuff@@UAE@XZ 
??1EBuffAction@@UAE@XZ 
??1EBuffClear@@UAE@XZ 
??1EBuffEvent@@UAE@XZ 
??1EBulletInit@@UAE@XZ 
??1ECameraStart@@UAE@XZ 
??1ECameraStop@@UAE@XZ 
??1ECenterMessage@@UAE@XZ 
??1EChangeAnim@@UAE@XZ 
??1EChangeCharaType@@UAE@XZ 
??1EChangeGravity@@UAE@XZ 
??1EChangeMode@@UAE@XZ 
??1EChangeMusic@@UAE@XZ 
??1EChangeStart@@UAE@XZ 
??1EChangeState@@UAE@XZ 
??1EChangeWeapon@@UAE@XZ 
??1EChaosGuageFull@@UAE@XZ 
??1EChargeAttack@@UAE@XZ 
??1EChristmasBoxItemTouch@@UAE@XZ 
??1EChristmasBoxReceive@@UAE@XZ 
??1EChristmasDestroy@@UAE@XZ 
??1EChristmasNoticeMessage@@UAE@XZ 
??1EChristmasSetting@@UAE@XZ 
??1ECloseAttack@@UAE@XZ 
??1ECloseAttackKing@@UAE@XZ 
??1ECloseQDoor@@UAE@XZ 
??1ECollisionState@@UAE@XZ 
??1EComputerMessage@@UAE@XZ 
??1ECopierTrigger@@UAE@XZ 
??1ECounterCount@@UAE@XZ 
??1ECredits@@UAE@XZ 
??1ECrush@@UAE@XZ 
??1ECutSceneObj@@UAE@XZ 
??1EDamageDiminution@@UAE@XZ 
??1EDamageTypeNet@@UAE@XZ 
??1EDeBuff@@UAE@XZ 
??1EDeBuffClear@@UAE@XZ 
??1EDeactivate@@UAE@XZ 
??1EDeactivateBlend@@UAE@XZ 
??1EDeactivateSwitchPointer@@UAE@XZ 
??1EDestroyEventItem@@UAE@XZ 
??1EDevilCommand@@UAE@XZ 
??1EDevilContinue@@UAE@XZ 
??1EDevilFireElectricity@@UAE@XZ 
??1EDevilStopElectricity@@UAE@XZ 
??1EDisappear@@UAE@XZ 
??1EDisconnected@@UAE@XZ 
??1EDistanceAttack@@UAE@XZ 
??1EDropBoxItem@@UAE@XZ 
??1EDropBoxItemDestroy@@UAE@XZ 
??1EDropBoxItemTouch@@UAE@XZ 
??1EDropKamikaze@@UAE@XZ 
??1EEffectAttack@@UAE@XZ 
??1EElectricityStart@@UAE@XZ 
??1EElectricityStop@@UAE@XZ 
??1EElementalGrow@@UAE@XZ 
??1EEnd@@UAE@XZ 
??1EEndRound@@UAE@XZ 
??1EEnemyBaseDamage@@UAE@XZ 
??1EEnemyBaseDeath@@UAE@XZ 
??1EEnvironmentStart@@UAE@XZ 
??1EEnvironmentStop@@UAE@XZ 
??1EEventItemSetting@@UAE@XZ 
??1EExplEffect@@UAE@XZ 
??1EExplode@@UAE@XZ 
??1EExplosion@@UAE@XZ 
??1EFear@@UAE@XZ 
??1EFearEffect@@UAE@XZ 
??1EFlame@@UAE@XZ 
??1EFlipTheSwitch@@UAE@XZ 
??1EFloatingScore@@UAE@XZ 
??1EForceExplode@@UAE@XZ 
??1EForcePathMarker@@UAE@XZ 
??1EForceWound@@UAE@XZ 
??1EFreeze@@UAE@XZ 
??1EGetEventItem@@UAE@XZ 
??1EGoldGolemRebirth@@UAE@XZ 
??1EGoldGolemRespawn@@UAE@XZ 
??1EGoldSword@@UAE@XZ 
??1EHarbor@@UAE@XZ 
??1EHealth@@UAE@XZ 
??1EHeart@@UAE@XZ 
??1EHit@@UAE@XZ 
??1EHitBySpaceShipBeam@@UAE@XZ 
??1EHoldAttack@@UAE@XZ 
??1EHolyLight@@UAE@XZ 
??1EHudPicFX@@UAE@XZ 
??1EIceWind@@UAE@XZ 
??1EIdle@@UAE@XZ 
??1EIndicatorCreate@@UAE@XZ 
??1EInitDualistBomb@@UAE@XZ 
??1EInitFreeFallModel@@UAE@XZ 
??1EInitRangeWeapon@@UAE@XZ 
??1EInvincible@@UAE@XZ 
??1EKey@@UAE@XZ 
??1EKillCount@@UAE@XZ 
??1EKilledEnemy@@UAE@XZ 
??1ELarvaArmDestroyed@@UAE@XZ 
??1ELarvaContinue@@UAE@XZ 
??1ELarvaFireLaser@@UAE@XZ 
??1ELarvaHealth@@UAE@XZ 
??1ELarvaRechargePose@@UAE@XZ 
??1ELaserDestroy@@UAE@XZ 
??1ELaserParam@@UAE@XZ 
??1ELaserReadyDestroy@@UAE@XZ 
??1ELaserReadyParam@@UAE@XZ 
??1ELaunchCannonBall@@UAE@XZ 
??1ELaunchLarvaOffspring@@UAE@XZ 
??1ELaunchProjectile@@UAE@XZ 
??1ELongBow@@UAE@XZ 
??1EMageBarrier@@UAE@XZ 
??1EMageBless@@UAE@XZ 
??1EMageBomb@@UAE@XZ 
??1EMageDispell@@UAE@XZ 
??1EMageHold@@UAE@XZ 
??1EMageMissile@@UAE@XZ 
??1EMageSpell@@UAE@XZ 
??1EMagicBomb@@UAE@XZ 
??1EMagicMissile@@UAE@XZ 
??1EMapItemBomb@@UAE@XZ 
??1EMapItemReceive@@UAE@XZ 
??1EMapItemRespawn@@UAE@XZ 
??1EMapItemSpawnMapNpc@@UAE@XZ 
??1EMapItemTouch@@UAE@XZ 
??1EMarkPicked@@UAE@XZ 
??1EMasterGolemDamage@@UAE@XZ 
??1EMasterGolemRespawn@@UAE@XZ 
??1EMasterNpcRespawn@@UAE@XZ 
??1EMessageItem@@UAE@XZ 
??1EModel2Activate@@UAE@XZ 
??1EModel2Deactivate@@UAE@XZ 
??1EModel3Activate@@UAE@XZ 
??1EModel3Deactivate@@UAE@XZ 
??1EModelDeath@@UAE@XZ 
??1EModelForSequenceMarker@@UAE@XZ 
??1EMoveToDestination@@UAE@XZ 
??1EMovementAnimation@@UAE@XZ 
??1EMovingBrushDeath@@UAE@XZ 
??1EMusicChangerTrigger@@UAE@XZ 
??1ENetChangeMusic@@UAE@XZ 
??1ENetSpawnEntity@@UAE@XZ 
??1ENetTrigger@@UAE@XZ 
??1ENetTriggerPSS@@UAE@XZ 
??1ENewGolemKillTypeBuff@@UAE@XZ 
??1ENpcAcdPoison@@UAE@XZ 
??1ENpcBaseDamage@@UAE@XZ 
??1ENpcBaseDeath@@UAE@XZ 
??1ENpcBuff@@UAE@XZ 
??1ENpcCocoon@@UAE@XZ 
??1ENpcDeadToSwitch@@UAE@XZ 
??1ENpcDisappear@@UAE@XZ 
??1ENpcExtraSet@@UAE@XZ 
??1ENpcFear@@UAE@XZ 
??1ENpcFreeze@@UAE@XZ 
??1ENpcHP@@UAE@XZ 
??1ENpcNoticeChangeMovePatrolState@@UAE@XZ 
??1ENpcReconsiderBehavior@@UAE@XZ 
??1ENpcSetDummy@@UAE@XZ 
??1ENpcSetNormal@@UAE@XZ 
??1ENpcStun@@UAE@XZ 
??1ENpcTried@@UAE@XZ 
??1ENpcWatch@@UAE@XZ 
??1ENpcWatcherInit@@UAE@XZ 
??1ENpcWeakening@@UAE@XZ 
??1EObserver@@UAE@XZ 
??1EOpenDoor@@UAE@XZ 
??1EOpenQDoor@@UAE@XZ 
??1EOverallAttack@@UAE@XZ 
??1EParticlesActivate@@UAE@XZ 
??1EParticlesDeactivate@@UAE@XZ 
??1EPassiveCreate@@UAE@XZ 
??1EPhaseCheck@@UAE@XZ 
??1EPhaseState@@UAE@XZ 
??1EPlayEndMenu@@UAE@XZ 
??1EPlayIdleMenu@@UAE@XZ 
??1EPlayReturnMenu@@UAE@XZ 
??1EPlaySoundOnce@@UAE@XZ 
??1EPlayStartMenu@@UAE@XZ 
??1EPlayerAcdPoison@@UAE@XZ 
??1EPlayerBouncedWall@@UAE@XZ 
??1EPlayerDamage@@UAE@XZ 
??1EPlayerDeath@@UAE@XZ 
??1EPlayerRemainHP@@UAE@XZ 
??1EPlayerReset_HP_AP@@UAE@XZ 
??1EPowerUp@@UAE@XZ 
??1EPrevClearedRank@@UAE@XZ 
??1EPrizeValue@@UAE@XZ 
??1EProjectileSpawnClient@@UAE@XZ 
??1EProjectileSpawnParam@@UAE@XZ 
??1EPyramidShipActivate@@UAE@XZ 
??1EPyramidShipDeactivate@@UAE@XZ 
??1EQMessage@@UAE@XZ 
??1EQstSWReady@@UAE@XZ 
??1EQstStatus@@UAE@XZ 
??1EQstSwOn@@UAE@XZ 
??1EQstSwRandom@@UAE@XZ 
??1ERangeAttack@@UAE@XZ 
??1ERangeAttackKing@@UAE@XZ 
??1ERangeModelDestruction@@UAE@XZ 
??1ERecallEffect@@UAE@XZ 
??1EReceiveItem@@UAE@XZ 
??1EReceiveScore@@UAE@XZ 
??1EReceiveTotDamage@@UAE@XZ 
??1EReconsiderBehavior@@UAE@XZ 
??1ERegenerationImpuls@@UAE@XZ 
??1EReminder@@UAE@XZ 
??1EReminderInit@@UAE@XZ 
??1EReportTargetforLeader@@UAE@XZ 
??1ERequestHoldAttack@@UAE@XZ 
??1ERequestJudge@@UAE@XZ 
??1ERespawn@@UAE@XZ 
??1ERestartAttack@@UAE@XZ 
??1ERestartRound@@UAE@XZ 
??1EReturnToEndPatrol@@UAE@XZ 
??1EReversal@@UAE@XZ 
??1ESaveGame@@UAE@XZ 
??1EScorpmanWakeUp@@UAE@XZ 
??1EScroll@@UAE@XZ 
??1ESecretFound@@UAE@XZ 
??1ESeriousBomb@@UAE@XZ 
??1ESetFlyState@@UAE@XZ 
??1ESetTargetAnim@@UAE@XZ 
??1ESetTargetIndicator@@UAE@XZ 
??1ESetTargetforGroup@@UAE@XZ 
??1ESetType@@UAE@XZ 
??1ESetViewer@@UAE@XZ 
??1ESetWeapon@@UAE@XZ 
??1EShootShuriken@@UAE@XZ 
??1EShootWeapon@@UAE@XZ 
??1EShortAttack@@UAE@XZ 
??1EShortRangeAttack@@UAE@XZ 
??1ESoulCannon@@UAE@XZ 
??1ESoulCannonDestroy@@UAE@XZ 
??1ESoulShot@@UAE@XZ 
??1ESound@@UAE@XZ 
??1ESpawnBead@@UAE@XZ 
??1ESpawnBillBoardImage@@UAE@XZ 
??1ESpawnBoneEffect@@UAE@XZ 
??1ESpawnBoneEffectModel@@UAE@XZ 
??1ESpawnBurning@@UAE@XZ 
??1ESpawnCPEffect@@UAE@XZ 
??1ESpawnChristmasBox@@UAE@XZ 
??1ESpawnCocoon@@UAE@XZ 
??1ESpawnDebris@@UAE@XZ 
??1ESpawnDebrisSka@@UAE@XZ 
??1ESpawnDropBoxItem@@UAE@XZ 
??1ESpawnEffect@@UAE@XZ 
??1ESpawnEffector@@UAE@XZ 
??1ESpawnEventItem@@UAE@XZ 
??1ESpawnFlame@@UAE@XZ 
??1ESpawnFreeze@@UAE@XZ 
??1ESpawnInvincible@@UAE@XZ 
??1ESpawnMessage@@UAE@XZ 
??1ESpawnNpc@@UAE@XZ 
??1ESpawnNpcEffect@@UAE@XZ 
??1ESpawnPassive@@UAE@XZ 
??1ESpawnPoison@@UAE@XZ 
??1ESpawnQstNpc@@UAE@XZ 
??1ESpawnReversal@@UAE@XZ 
??1ESpawnSpray@@UAE@XZ 
??1ESpawnStun@@UAE@XZ 
??1ESpawnTried@@UAE@XZ 
??1ESpawnWeakening@@UAE@XZ 
??1ESpawnerProjectile@@UAE@XZ 
??1ESpecialAttackHit@@UAE@XZ 
??1ESpinnerInit@@UAE@XZ 
??1EStand@@UAE@XZ 
??1EStart@@UAE@XZ 
??1EStartAttack@@UAE@XZ 
??1EStartCounter@@UAE@XZ 
??1EStartDrawImage@@UAE@XZ 
??1EStartRound@@UAE@XZ 
??1EStartSounds@@UAE@XZ 
??1EStop@@UAE@XZ 
??1EStopAttack@@UAE@XZ 
??1EStopBlindness@@UAE@XZ 
??1EStopCounter@@UAE@XZ 
??1EStopDeafness@@UAE@XZ 
??1EStopFlaming@@UAE@XZ 
??1EStopSounds@@UAE@XZ 
??1EStormEnvironmentStart@@UAE@XZ 
??1EStormStart@@UAE@XZ 
??1EStormStop@@UAE@XZ 
??1ESucking@@UAE@XZ 
??1ESummonAttack@@UAE@XZ 
??1ESummonEffect@@UAE@XZ 
??1ESummonEffectOption@@UAE@XZ 
??1ESummonerContinue@@UAE@XZ 
??1ESummonerMaterialize@@UAE@XZ 
??1ESummonerTeleport@@UAE@XZ 
??1ETapMiniMapPickIndex@@UAE@XZ 
??1ETeleportActivate@@UAE@XZ 
??1ETeleportDeactivate@@UAE@XZ 
??1ETeleportMovingBrush@@UAE@XZ 
??1ETextFX@@UAE@XZ 
??1ETouchSendedByRemote@@UAE@XZ 
??1ETreasureItem@@UAE@XZ 
??1ETried@@UAE@XZ 
??1ETrigger@@UAE@XZ 
??1ETriggerEffector@@UAE@XZ 
??1ETriggerLightning@@UAE@XZ 
??1ETwister@@UAE@XZ 
??1EUsePotion@@UAE@XZ 
??1EViewInit@@UAE@XZ 
??1EVoiceMessage@@UAE@XZ 
??1EWatch@@UAE@XZ 
??1EWatcherInit@@UAE@XZ 
??1EWeakening@@UAE@XZ 
??1EWeaponItem@@UAE@XZ 
??1EWeaponsInit@@UAE@XZ 
??1EWeatherStart@@UAE@XZ 
??1EWeatherStop@@UAE@XZ 
??1EWingDestroy@@UAE@XZ 
??1Effect_AdditionCriticalDamage@@UAE@XZ 
??1Effect_AttackSpeed@@UAE@XZ 
??1Effect_DecreasePerCritical@@UAE@XZ 
??1Effect_DiminishRecvDamage@@UAE@XZ 
??1Effect_Heal@@UAE@XZ 
??1Effect_HitCreature@@UAE@XZ 
??1Effect_HitDistance@@UAE@XZ 
??1Effect_HitHold@@UAE@XZ 
??1Effect_HitNormal@@UAE@XZ 
??1Effect_HitSpecial@@UAE@XZ 
??1Effect_Invincible@@UAE@XZ 
??1Effect_MoveSpeed@@UAE@XZ 
??1Effect_RandomEffect@@UAE@XZ 
??1Effect_ReturnDamage@@UAE@XZ 
??1arrtail@@UAE@XZ 
??1eSpikeSet@@UAE@XZ 
??1eSpineInit@@UAE@XZ 
??1eSpineSet@@UAE@XZ 
??1tail@@UAE@XZ 
??4CAbuseStr_Filter@@QAEAAV0@ABV0@@Z 
??4CBattleBowAnimator@@QAEAAV0@AAV0@@Z 
??4CBattleBowWeapon@@QAEAAV0@AAV0@@Z 
??4CBeginnersHelpData@@QAEAAV0@AAV0@@Z 
??4CBlackSmithAnimator@@QAEAAV0@AAV0@@Z 
??4CBlackSmithWeapon@@QAEAAV0@AAV0@@Z 
??4CBuddyFishingDefense@@QAEAAV0@ABV0@@Z 
??4CBullet@@QAEAAV0@AAV0@@Z 
??4CCannonBall@@QAEAAV0@AAV0@@Z 
??4CCharName_Filter@@QAEAAV0@ABV0@@Z 
??4CCompMessageID@@QAEAAV0@ABV0@@Z 
??4CConstAchievementData@@QAEAAV0@ABV0@@Z 
??4CConstAlphabetData@@QAEAAV0@ABV0@@Z 
??4CConstAttributeData@@QAEAAV0@ABV0@@Z 
??4CConstAttributeObjectData@@QAEAAV0@ABV0@@Z 
??4CConstAttributeOpenData@@QAEAAV0@ABV0@@Z 
??4CConstAttributeReinforceData@@QAEAAV0@ABV0@@Z 
??4CConstClanEmblemData@@QAEAAV0@ABV0@@Z 
??4CConstCreatureBookCollectionData@@QAEAAV0@ABV0@@Z 
??4CConstCreatureBookData@@QAEAAV0@ABV0@@Z 
??4CConstCreatureSynthesisData@@QAEAAV0@ABV0@@Z 
??4CConstEventKillCountData@@QAEAAV0@ABV0@@Z 
??4CConstItemData@@QAEAAV0@ABV0@@Z 
??4CConstNewGolemNpcData@@QAEAAV0@ABV0@@Z 
??4CConstNewGolemPlayerData@@QAEAAV0@ABV0@@Z 
??4CConstObjectToolTip@@QAEAAV0@ABV0@@Z 
??4CConstPreloadCreatureData@@QAEAAV0@ABV0@@Z 
??4CConstPreloadGameResource@@QAEAAV0@ABV0@@Z 
??4CConstPremiumPack@@QAEAAV0@ABV0@@Z 
??4CConstQuestData@@QAEAAV0@ABV0@@Z 
??4CConstRageGaugeData@@QAEAAV0@ABV0@@Z 
??4CConstSetEffectEquipmentData@@QAEAAV0@ABV0@@Z 
??4CConstStageEffectItem@@QAEAAV0@ABV0@@Z 
??4CConstTapMiniMapInfoData@@QAEAAV0@ABV0@@Z 
??4CConstTutorialQuestData@@QAEAAV0@ABV0@@Z 
??4CDualistAnimator@@QAEAAV0@AAV0@@Z 
??4CDualistWeapon@@QAEAAV0@AAV0@@Z 
??4CEmiter@@QAEAAV0@ABV0@@Z 
??4CEmittedParticle@@QAEAAV0@ABV0@@Z 
??4CEnemyBase@@QAEAAV0@AAV0@@Z 
??4CEnemyDive@@QAEAAV0@AAV0@@Z 
??4CEnemyFly@@QAEAAV0@AAV0@@Z 
??4CEnemyRunInto@@QAEAAV0@AAV0@@Z 
??4CExceptionMapCreatureList@@QAEAAV0@ABV0@@Z 
??4CItem@@QAEAAV0@AAV0@@Z 
??4CLarvaOffspring@@QAEAAV0@AAV0@@Z 
??4CLevelScriptor@@QAEAAV0@AAV0@@Z 
??4CLimitedSell@@QAEAAV0@ABV0@@Z 
??4CMageAnimator@@QAEAAV0@AAV0@@Z 
??4CMageWeapon@@QAEAAV0@AAV0@@Z 
??4CNavigationMarker@@QAEAAV0@AAV0@@Z 
??4CNinjaAnimator@@QAEAAV0@AAV0@@Z 
??4CNinjaWeapon@@QAEAAV0@AAV0@@Z 
??4CNpcBase@@QAEAAV0@AAV0@@Z 
??4CNpcWatcher@@QAEAAV0@AAV0@@Z 
??4CParticleEmitter@@QAEAAV0@AAV0@@Z 
??4CPartsEffect@@QAEAAV0@ABV0@@Z 
??4CPathNode@@QAEAAV0@ABV0@@Z 
??4CPlayer@@QAEAAV0@AAV0@@Z 
??4CPlayerAnimatorBase@@QAEAAV0@AAV0@@Z 
??4CPlayerView@@QAEAAV0@AAV0@@Z 
??4CPlayerWeaponBase@@QAEAAV0@AAV0@@Z 
??4CProjectile@@QAEAAV0@AAV0@@Z 
??4CReminder@@QAEAAV0@AAV0@@Z 
??4CSaleEvent@@QAEAAV0@ABV0@@Z 
??4CServantCreatureListData@@QAEAAV0@ABV0@@Z 
??4CSetItemEffect@@QAEAAV0@ABV0@@Z 
??4CSpinner@@QAEAAV0@AAV0@@Z 
??4CSwordManAnimator@@QAEAAV0@AAV0@@Z 
??4CSwordmanWeapon@@QAEAAV0@AAV0@@Z 
??4CTreeBeginnersHelpData@@QAEAAV0@AAV0@@Z 
??4CWatcher@@QAEAAV0@AAV0@@Z 
??4CellPointinfo@@QAEAAV0@ABV0@@Z 
??4ConstEventNoticeData@@QAEAAV0@ABV0@@Z 
??4ConstGachaItemData@@QAEAAV0@ABV0@@Z 
??4ConstLoginGaugeRewardData@@QAEAAV0@ABV0@@Z 
??4ConstProduceItemData@@QAEAAV0@ABV0@@Z 
??4ConstSpecialDiscountEventData@@QAEAAV0@ABV0@@Z 
??4ConstStageRewardData@@QAEAAV0@ABV0@@Z 
??4EAbuseEarnPoint@@QAEAAV0@ABV0@@Z 
??4EActivate@@QAEAAV0@ABV0@@Z 
??4EActivateBeam@@QAEAAV0@ABV0@@Z 
??4EActivateBlend@@QAEAAV0@ABV0@@Z 
??4EActivateSwitchPointer@@QAEAAV0@ABV0@@Z 
??4EActivatebySync@@QAEAAV0@ABV0@@Z 
??4EActivityBegin@@QAEAAV0@ABV0@@Z 
??4EAirElementalContinue@@QAEAAV0@ABV0@@Z 
??4EAmmoItem@@QAEAAV0@ABV0@@Z 
??4EAmmoPackItem@@QAEAAV0@ABV0@@Z 
??4EAnimatorInit@@QAEAAV0@AAV0@@Z 
??4EApproachEnemy@@QAEAAV0@ABV0@@Z 
??4EArchitectureDeath2@@QAEAAV0@ABV0@@Z 
??4EArchitectureDeath@@QAEAAV0@ABV0@@Z 
??4EArmor@@QAEAAV0@ABV0@@Z 
??4EAttackFire@@QAEAAV0@ABV0@@Z 
??4EAttackHit@@QAEAAV0@ABV0@@Z 
??4EBarrier@@QAEAAV0@AAV0@@Z 
??4EBatteryBlood@@QAEAAV0@ABV0@@Z 
??4EBatteryContinue@@QAEAAV0@ABV0@@Z 
??4EBatteryDamage@@QAEAAV0@ABV0@@Z 
??4EBatteryExplode@@QAEAAV0@ABV0@@Z 
??4EBeIdle@@QAEAAV0@ABV0@@Z 
??4EBead@@QAEAAV0@ABV0@@Z 
??4EBlackIceWind@@QAEAAV0@ABV0@@Z 
??4EBless@@QAEAAV0@AAV0@@Z 
??4EBlowUp@@QAEAAV0@ABV0@@Z 
??4EBombEffect@@QAEAAV0@ABV0@@Z 
??4EBonus@@QAEAAV0@ABV0@@Z 
??4EBossDamage@@QAEAAV0@ABV0@@Z 
??4EBrushDeath@@QAEAAV0@AAV0@@Z 
??4EBrushDestroyed@@QAEAAV0@ABV0@@Z 
??4EBrushDestroyedByDevil@@QAEAAV0@ABV0@@Z 
??4EBuff@@QAEAAV0@ABV0@@Z 
??4EBuffAction@@QAEAAV0@ABV0@@Z 
??4EBuffClear@@QAEAAV0@ABV0@@Z 
??4EBuffEvent@@QAEAAV0@ABV0@@Z 
??4EBulletInit@@QAEAAV0@AAV0@@Z 
??4ECameraStart@@QAEAAV0@ABV0@@Z 
??4ECameraStop@@QAEAAV0@ABV0@@Z 
??4ECenterMessage@@QAEAAV0@ABV0@@Z 
??4EChangeAnim@@QAEAAV0@ABV0@@Z 
??4EChangeCharaType@@QAEAAV0@ABV0@@Z 
??4EChangeGravity@@QAEAAV0@ABV0@@Z 
??4EChangeMode@@QAEAAV0@ABV0@@Z 
??4EChangeMusic@@QAEAAV0@ABV0@@Z 
??4EChangeStart@@QAEAAV0@ABV0@@Z 
??4EChangeState@@QAEAAV0@ABV0@@Z 
??4EChangeWeapon@@QAEAAV0@ABV0@@Z 
??4EChaosGuageFull@@QAEAAV0@ABV0@@Z 
??4EChargeAttack@@QAEAAV0@ABV0@@Z 
??4EChristmasBoxItemTouch@@QAEAAV0@ABV0@@Z 
??4EChristmasBoxReceive@@QAEAAV0@ABV0@@Z 
??4EChristmasDestroy@@QAEAAV0@ABV0@@Z 
??4EChristmasNoticeMessage@@QAEAAV0@ABV0@@Z 
??4EChristmasSetting@@QAEAAV0@ABV0@@Z 
??4ECloseAttack@@QAEAAV0@ABV0@@Z 
??4ECloseAttackKing@@QAEAAV0@ABV0@@Z 
??4ECloseQDoor@@QAEAAV0@ABV0@@Z 
??4ECollisionState@@QAEAAV0@ABV0@@Z 
??4EComputerMessage@@QAEAAV0@ABV0@@Z 
??4ECopierTrigger@@QAEAAV0@ABV0@@Z 
??4ECounterCount@@QAEAAV0@ABV0@@Z 
??4ECredits@@QAEAAV0@ABV0@@Z 
??4ECrush@@QAEAAV0@ABV0@@Z 
??4ECutSceneObj@@QAEAAV0@ABV0@@Z 
??4EDamageDiminution@@QAEAAV0@ABV0@@Z 
??4EDamageTypeNet@@QAEAAV0@ABV0@@Z 
??4EDeBuff@@QAEAAV0@ABV0@@Z 
??4EDeBuffClear@@QAEAAV0@ABV0@@Z 
??4EDeactivate@@QAEAAV0@ABV0@@Z 
??4EDeactivateBlend@@QAEAAV0@ABV0@@Z 
??4EDeactivateSwitchPointer@@QAEAAV0@ABV0@@Z 
??4EDestroyEventItem@@QAEAAV0@ABV0@@Z 
??4EDevilCommand@@QAEAAV0@AAV0@@Z 
??4EDevilContinue@@QAEAAV0@ABV0@@Z 
??4EDevilFireElectricity@@QAEAAV0@ABV0@@Z 
??4EDevilStopElectricity@@QAEAAV0@ABV0@@Z 
??4EDisappear@@QAEAAV0@ABV0@@Z 
??4EDisconnected@@QAEAAV0@ABV0@@Z 
??4EDistanceAttack@@QAEAAV0@ABV0@@Z 
??4EDropBoxItem@@QAEAAV0@ABV0@@Z 
??4EDropBoxItemDestroy@@QAEAAV0@ABV0@@Z 
??4EDropBoxItemTouch@@QAEAAV0@ABV0@@Z 
??4EDropKamikaze@@QAEAAV0@ABV0@@Z 
??4EEffectAttack@@QAEAAV0@ABV0@@Z 
??4EElectricityStart@@QAEAAV0@AAV0@@Z 
??4EElectricityStop@@QAEAAV0@ABV0@@Z 
??4EElementalGrow@@QAEAAV0@ABV0@@Z 
??4EEnd@@QAEAAV0@ABV0@@Z 
??4EEndRound@@QAEAAV0@ABV0@@Z 
??4EEnemyBaseDamage@@QAEAAV0@AAV0@@Z 
??4EEnemyBaseDeath@@QAEAAV0@AAV0@@Z 
??4EEnvironmentStart@@QAEAAV0@ABV0@@Z 
??4EEnvironmentStop@@QAEAAV0@ABV0@@Z 
??4EEventItemSetting@@QAEAAV0@ABV0@@Z 
??4EExplEffect@@QAEAAV0@ABV0@@Z 
??4EExplode@@QAEAAV0@ABV0@@Z 
??4EExplosion@@QAEAAV0@ABV0@@Z 
??4EFear@@QAEAAV0@ABV0@@Z 
??4EFearEffect@@QAEAAV0@ABV0@@Z 
??4EFlame@@QAEAAV0@AAV0@@Z 
??4EFlipTheSwitch@@QAEAAV0@ABV0@@Z 
??4EFloatingScore@@QAEAAV0@ABV0@@Z 
??4EForceExplode@@QAEAAV0@ABV0@@Z 
??4EForcePathMarker@@QAEAAV0@AAV0@@Z 
??4EForceWound@@QAEAAV0@ABV0@@Z 
??4EFreeze@@QAEAAV0@ABV0@@Z 
??4EGetEventItem@@QAEAAV0@ABV0@@Z 
??4EGoldGolemRebirth@@QAEAAV0@ABV0@@Z 
??4EGoldGolemRespawn@@QAEAAV0@ABV0@@Z 
??4EGoldSword@@QAEAAV0@ABV0@@Z 
??4EHarbor@@QAEAAV0@ABV0@@Z 
??4EHealth@@QAEAAV0@ABV0@@Z 
??4EHeart@@QAEAAV0@ABV0@@Z 
??4EHit@@QAEAAV0@ABV0@@Z 
??4EHitBySpaceShipBeam@@QAEAAV0@ABV0@@Z 
??4EHoldAttack@@QAEAAV0@ABV0@@Z 
??4EHolyLight@@QAEAAV0@ABV0@@Z 
??4EHudPicFX@@QAEAAV0@ABV0@@Z 
??4EIceWind@@QAEAAV0@ABV0@@Z 
??4EIdle@@QAEAAV0@ABV0@@Z 
??4EIndicatorCreate@@QAEAAV0@ABV0@@Z 
??4EInitDualistBomb@@QAEAAV0@ABV0@@Z 
??4EInitFreeFallModel@@QAEAAV0@ABV0@@Z 
??4EInitRangeWeapon@@QAEAAV0@ABV0@@Z 
??4EInvincible@@QAEAAV0@ABV0@@Z 
??4EKey@@QAEAAV0@ABV0@@Z 
??4EKillCount@@QAEAAV0@ABV0@@Z 
??4EKilledEnemy@@QAEAAV0@ABV0@@Z 
??4ELarvaArmDestroyed@@QAEAAV0@ABV0@@Z 
??4ELarvaContinue@@QAEAAV0@ABV0@@Z 
??4ELarvaFireLaser@@QAEAAV0@ABV0@@Z 
??4ELarvaHealth@@QAEAAV0@ABV0@@Z 
??4ELarvaRechargePose@@QAEAAV0@ABV0@@Z 
??4ELaserDestroy@@QAEAAV0@ABV0@@Z 
??4ELaserParam@@QAEAAV0@ABV0@@Z 
??4ELaserReadyDestroy@@QAEAAV0@ABV0@@Z 
??4ELaserReadyParam@@QAEAAV0@ABV0@@Z 
??4ELaunchCannonBall@@QAEAAV0@AAV0@@Z 
??4ELaunchLarvaOffspring@@QAEAAV0@AAV0@@Z 
??4ELaunchProjectile@@QAEAAV0@AAV0@@Z 
??4ELongBow@@QAEAAV0@ABV0@@Z 
??4EMageBarrier@@QAEAAV0@ABV0@@Z 
??4EMageBless@@QAEAAV0@ABV0@@Z 
??4EMageBomb@@QAEAAV0@ABV0@@Z 
??4EMageDispell@@QAEAAV0@ABV0@@Z 
??4EMageHold@@QAEAAV0@ABV0@@Z 
??4EMageMissile@@QAEAAV0@ABV0@@Z 
??4EMageSpell@@QAEAAV0@ABV0@@Z 
??4EMagicBomb@@QAEAAV0@ABV0@@Z 
??4EMagicMissile@@QAEAAV0@ABV0@@Z 
??4EMapItemBomb@@QAEAAV0@ABV0@@Z 
??4EMapItemReceive@@QAEAAV0@ABV0@@Z 
??4EMapItemRespawn@@QAEAAV0@ABV0@@Z 
??4EMapItemSpawnMapNpc@@QAEAAV0@ABV0@@Z 
??4EMapItemTouch@@QAEAAV0@ABV0@@Z 
??4EMarkPicked@@QAEAAV0@AAV0@@Z 
??4EMasterGolemDamage@@QAEAAV0@ABV0@@Z 
??4EMasterGolemRespawn@@QAEAAV0@ABV0@@Z 
??4EMasterNpcRespawn@@QAEAAV0@ABV0@@Z 
??4EMessageItem@@QAEAAV0@ABV0@@Z 
??4EModel2Activate@@QAEAAV0@ABV0@@Z 
??4EModel2Deactivate@@QAEAAV0@ABV0@@Z 
??4EModel3Activate@@QAEAAV0@ABV0@@Z 
??4EModel3Deactivate@@QAEAAV0@ABV0@@Z 
??4EModelDeath@@QAEAAV0@ABV0@@Z 
??4EModelForSequenceMarker@@QAEAAV0@AAV0@@Z 
??4EMoveToDestination@@QAEAAV0@ABV0@@Z 
??4EMovementAnimation@@QAEAAV0@ABV0@@Z 
??4EMovingBrushDeath@@QAEAAV0@ABV0@@Z 
??4EMusicChangerTrigger@@QAEAAV0@ABV0@@Z 
??4ENetChangeMusic@@QAEAAV0@ABV0@@Z 
??4ENetSpawnEntity@@QAEAAV0@ABV0@@Z 
??4ENetTrigger@@QAEAAV0@ABV0@@Z 
??4ENetTriggerPSS@@QAEAAV0@ABV0@@Z 
??4ENewGolemKillTypeBuff@@QAEAAV0@ABV0@@Z 
??4ENpcAcdPoison@@QAEAAV0@ABV0@@Z 
??4ENpcBaseDamage@@QAEAAV0@ABV0@@Z 
??4ENpcBaseDeath@@QAEAAV0@ABV0@@Z 
??4ENpcBuff@@QAEAAV0@ABV0@@Z 
??4ENpcCocoon@@QAEAAV0@ABV0@@Z 
??4ENpcDeadToSwitch@@QAEAAV0@ABV0@@Z 
??4ENpcDisappear@@QAEAAV0@ABV0@@Z 
??4ENpcExtraSet@@QAEAAV0@ABV0@@Z 
??4ENpcFear@@QAEAAV0@ABV0@@Z 
??4ENpcFreeze@@QAEAAV0@ABV0@@Z 
??4ENpcHP@@QAEAAV0@ABV0@@Z 
??4ENpcNoticeChangeMovePatrolState@@QAEAAV0@ABV0@@Z 
??4ENpcReconsiderBehavior@@QAEAAV0@ABV0@@Z 
??4ENpcSetDummy@@QAEAAV0@ABV0@@Z 
??4ENpcSetNormal@@QAEAAV0@ABV0@@Z 
??4ENpcStun@@QAEAAV0@ABV0@@Z 
??4ENpcTried@@QAEAAV0@ABV0@@Z 
??4ENpcWatch@@QAEAAV0@AAV0@@Z 
??4ENpcWatcherInit@@QAEAAV0@AAV0@@Z 
??4ENpcWeakening@@QAEAAV0@ABV0@@Z 
??4EObserver@@QAEAAV0@ABV0@@Z 
??4EOpenDoor@@QAEAAV0@ABV0@@Z 
??4EOpenQDoor@@QAEAAV0@ABV0@@Z 
??4EOverallAttack@@QAEAAV0@ABV0@@Z 
??4EParticlesActivate@@QAEAAV0@ABV0@@Z 
??4EParticlesDeactivate@@QAEAAV0@ABV0@@Z 
??4EPassiveCreate@@QAEAAV0@ABV0@@Z 
??4EPhaseCheck@@QAEAAV0@ABV0@@Z 
??4EPhaseState@@QAEAAV0@ABV0@@Z 
??4EPlayEndMenu@@QAEAAV0@ABV0@@Z 
??4EPlayIdleMenu@@QAEAAV0@ABV0@@Z 
??4EPlayReturnMenu@@QAEAAV0@ABV0@@Z 
??4EPlaySoundOnce@@QAEAAV0@ABV0@@Z 
??4EPlayStartMenu@@QAEAAV0@ABV0@@Z 
??4EPlayerAcdPoison@@QAEAAV0@ABV0@@Z 
??4EPlayerBouncedWall@@QAEAAV0@ABV0@@Z 
??4EPlayerDamage@@QAEAAV0@ABV0@@Z 
??4EPlayerDeath@@QAEAAV0@ABV0@@Z 
??4EPlayerRemainHP@@QAEAAV0@ABV0@@Z 
??4EPlayerReset_HP_AP@@QAEAAV0@ABV0@@Z 
??4EPowerUp@@QAEAAV0@ABV0@@Z 
??4EPrevClearedRank@@QAEAAV0@ABV0@@Z 
??4EPrizeValue@@QAEAAV0@ABV0@@Z 
??4EProjectileSpawnClient@@QAEAAV0@ABV0@@Z 
??4EProjectileSpawnParam@@QAEAAV0@AAV0@@Z 
??4EPyramidShipActivate@@QAEAAV0@ABV0@@Z 
??4EPyramidShipDeactivate@@QAEAAV0@ABV0@@Z 
??4EQMessage@@QAEAAV0@ABV0@@Z 
??4EQstSWReady@@QAEAAV0@ABV0@@Z 
??4EQstStatus@@QAEAAV0@ABV0@@Z 
??4EQstSwOn@@QAEAAV0@ABV0@@Z 
??4EQstSwRandom@@QAEAAV0@ABV0@@Z 
??4ERangeAttack@@QAEAAV0@ABV0@@Z 
??4ERangeAttackKing@@QAEAAV0@ABV0@@Z 
??4ERangeModelDestruction@@QAEAAV0@ABV0@@Z 
??4ERecallEffect@@QAEAAV0@ABV0@@Z 
??4EReceiveItem@@QAEAAV0@ABV0@@Z 
??4EReceiveScore@@QAEAAV0@ABV0@@Z 
??4EReceiveTotDamage@@QAEAAV0@ABV0@@Z 
??4EReconsiderBehavior@@QAEAAV0@ABV0@@Z 
??4ERegenerationImpuls@@QAEAAV0@ABV0@@Z 
??4EReminder@@QAEAAV0@ABV0@@Z 
??4EReminderInit@@QAEAAV0@AAV0@@Z 
??4EReportTargetforLeader@@QAEAAV0@ABV0@@Z 
??4ERequestHoldAttack@@QAEAAV0@ABV0@@Z 
??4ERequestJudge@@QAEAAV0@ABV0@@Z 
??4ERespawn@@QAEAAV0@ABV0@@Z 
??4ERestartAttack@@QAEAAV0@ABV0@@Z 
??4ERestartRound@@QAEAAV0@ABV0@@Z 
??4EReturnToEndPatrol@@QAEAAV0@ABV0@@Z 
??4EReversal@@QAEAAV0@ABV0@@Z 
??4ESaveGame@@QAEAAV0@ABV0@@Z 
??4EScorpmanWakeUp@@QAEAAV0@ABV0@@Z 
??4EScroll@@QAEAAV0@ABV0@@Z 
??4ESecretFound@@QAEAAV0@ABV0@@Z 
??4ESeriousBomb@@QAEAAV0@AAV0@@Z 
??4ESetFlyState@@QAEAAV0@ABV0@@Z 
??4ESetTargetAnim@@QAEAAV0@ABV0@@Z 
??4ESetTargetIndicator@@QAEAAV0@ABV0@@Z 
??4ESetTargetforGroup@@QAEAAV0@ABV0@@Z 
??4ESetType@@QAEAAV0@ABV0@@Z 
??4ESetViewer@@QAEAAV0@ABV0@@Z 
??4ESetWeapon@@QAEAAV0@ABV0@@Z 
??4EShootShuriken@@QAEAAV0@ABV0@@Z 
??4EShootWeapon@@QAEAAV0@ABV0@@Z 
??4EShortAttack@@QAEAAV0@ABV0@@Z 
??4EShortRangeAttack@@QAEAAV0@ABV0@@Z 
??4ESoulCannon@@QAEAAV0@ABV0@@Z 
??4ESoulCannonDestroy@@QAEAAV0@ABV0@@Z 
??4ESoulShot@@QAEAAV0@ABV0@@Z 
??4ESound@@QAEAAV0@ABV0@@Z 
??4ESpawnBead@@QAEAAV0@ABV0@@Z 
??4ESpawnBillBoardImage@@QAEAAV0@ABV0@@Z 
??4ESpawnBoneEffect@@QAEAAV0@ABV0@@Z 
??4ESpawnBoneEffectModel@@QAEAAV0@ABV0@@Z 
??4ESpawnBurning@@QAEAAV0@AAV0@@Z 
??4ESpawnCPEffect@@QAEAAV0@ABV0@@Z 
??4ESpawnChristmasBox@@QAEAAV0@AAV0@@Z 
??4ESpawnCocoon@@QAEAAV0@ABV0@@Z 
??4ESpawnDebris@@QAEAAV0@ABV0@@Z 
??4ESpawnDebrisSka@@QAEAAV0@ABV0@@Z 
??4ESpawnDropBoxItem@@QAEAAV0@AAV0@@Z 
??4ESpawnEffect@@QAEAAV0@ABV0@@Z 
??4ESpawnEffector@@QAEAAV0@AAV0@@Z 
??4ESpawnEventItem@@QAEAAV0@ABV0@@Z 
??4ESpawnFlame@@QAEAAV0@AAV0@@Z 
??4ESpawnFreeze@@QAEAAV0@ABV0@@Z 
??4ESpawnInvincible@@QAEAAV0@ABV0@@Z 
??4ESpawnMessage@@QAEAAV0@ABV0@@Z 
??4ESpawnNpc@@QAEAAV0@AAV0@@Z 
??4ESpawnNpcEffect@@QAEAAV0@ABV0@@Z 
??4ESpawnPassive@@QAEAAV0@ABV0@@Z 
??4ESpawnPoison@@QAEAAV0@ABV0@@Z 
??4ESpawnQstNpc@@QAEAAV0@ABV0@@Z 
??4ESpawnReversal@@QAEAAV0@ABV0@@Z 
??4ESpawnSpray@@QAEAAV0@AAV0@@Z 
??4ESpawnStun@@QAEAAV0@ABV0@@Z 
??4ESpawnTried@@QAEAAV0@ABV0@@Z 
??4ESpawnWeakening@@QAEAAV0@ABV0@@Z 
??4ESpawnerProjectile@@QAEAAV0@AAV0@@Z 
??4ESpecialAttackHit@@QAEAAV0@ABV0@@Z 
??4ESpinnerInit@@QAEAAV0@AAV0@@Z 
??4EStand@@QAEAAV0@ABV0@@Z 
??4EStart@@QAEAAV0@ABV0@@Z 
??4EStartAttack@@QAEAAV0@ABV0@@Z 
??4EStartCounter@@QAEAAV0@ABV0@@Z 
??4EStartDrawImage@@QAEAAV0@ABV0@@Z 
??4EStartRound@@QAEAAV0@ABV0@@Z 
??4EStartSounds@@QAEAAV0@ABV0@@Z 
??4EStop@@QAEAAV0@ABV0@@Z 
??4EStopAttack@@QAEAAV0@ABV0@@Z 
??4EStopBlindness@@QAEAAV0@ABV0@@Z 
??4EStopCounter@@QAEAAV0@ABV0@@Z 
??4EStopDeafness@@QAEAAV0@ABV0@@Z 
??4EStopFlaming@@QAEAAV0@ABV0@@Z 
??4EStopSounds@@QAEAAV0@ABV0@@Z 
??4EStormEnvironmentStart@@QAEAAV0@ABV0@@Z 
??4EStormStart@@QAEAAV0@ABV0@@Z 
??4EStormStop@@QAEAAV0@ABV0@@Z 
??4ESucking@@QAEAAV0@ABV0@@Z 
??4ESummonAttack@@QAEAAV0@ABV0@@Z 
??4ESummonEffect@@QAEAAV0@ABV0@@Z 
??4ESummonEffectOption@@QAEAAV0@ABV0@@Z 
??4ESummonerContinue@@QAEAAV0@ABV0@@Z 
??4ESummonerMaterialize@@QAEAAV0@ABV0@@Z 
??4ESummonerTeleport@@QAEAAV0@ABV0@@Z 
??4ETapMiniMapPickIndex@@QAEAAV0@ABV0@@Z 
??4ETeleportActivate@@QAEAAV0@ABV0@@Z 
??4ETeleportDeactivate@@QAEAAV0@ABV0@@Z 
??4ETeleportMovingBrush@@QAEAAV0@ABV0@@Z 
??4ETextFX@@QAEAAV0@ABV0@@Z 
??4ETouchSendedByRemote@@QAEAAV0@ABV0@@Z 
??4ETreasureItem@@QAEAAV0@ABV0@@Z 
??4ETried@@QAEAAV0@ABV0@@Z 
??4ETrigger@@QAEAAV0@ABV0@@Z 
??4ETriggerEffector@@QAEAAV0@ABV0@@Z 
??4ETriggerLightning@@QAEAAV0@ABV0@@Z 
??4ETwister@@QAEAAV0@AAV0@@Z 
??4EUsePotion@@QAEAAV0@ABV0@@Z 
??4EViewInit@@QAEAAV0@AAV0@@Z 
??4EVoiceMessage@@QAEAAV0@ABV0@@Z 
??4EWatch@@QAEAAV0@AAV0@@Z 
??4EWatcherInit@@QAEAAV0@AAV0@@Z 
??4EWeakening@@QAEAAV0@ABV0@@Z 
??4EWeaponItem@@QAEAAV0@ABV0@@Z 
??4EWeaponsInit@@QAEAAV0@AAV0@@Z 
??4EWeatherStart@@QAEAAV0@ABV0@@Z 
??4EWeatherStop@@QAEAAV0@ABV0@@Z 
??4EWingDestroy@@QAEAAV0@ABV0@@Z 
??4Effect_AdditionCriticalDamage@@QAEAAV0@ABV0@@Z 
??4Effect_AttackSpeed@@QAEAAV0@ABV0@@Z 
??4Effect_DecreasePerCritical@@QAEAAV0@ABV0@@Z 
??4Effect_DiminishRecvDamage@@QAEAAV0@ABV0@@Z 
??4Effect_Heal@@QAEAAV0@ABV0@@Z 
??4Effect_HitCreature@@QAEAAV0@ABV0@@Z 
??4Effect_HitDistance@@QAEAAV0@ABV0@@Z 
??4Effect_HitHold@@QAEAAV0@ABV0@@Z 
??4Effect_HitNormal@@QAEAAV0@ABV0@@Z 
??4Effect_HitSpecial@@QAEAAV0@ABV0@@Z 
??4Effect_Invincible@@QAEAAV0@ABV0@@Z 
??4Effect_MoveSpeed@@QAEAAV0@ABV0@@Z 
??4Effect_RandomEffect@@QAEAAV0@ABV0@@Z 
??4Effect_ReturnDamage@@QAEAAV0@ABV0@@Z 
??4PlayerStats@@QAEAAU0@ABU0@@Z 
??4arrtail@@QAEAAV0@ABV0@@Z 
??4eSpikeSet@@QAEAAV0@ABV0@@Z 
??4eSpineInit@@QAEAAV0@ABV0@@Z 
??4eSpineSet@@QAEAAV0@ABV0@@Z 
??4tail@@QAEAAV0@ABV0@@Z 
??_7CBattleBowAnimator@@6B@ 
??_7CBattleBowWeapon@@6B@ 
??_7CBeginnersHelpData@@6B@ 
??_7CBlackSmithAnimator@@6B@ 
??_7CBlackSmithWeapon@@6B@ 
??_7CBullet@@6B@ 
??_7CCannonBall@@6B@ 
??_7CDualistAnimator@@6B@ 
??_7CDualistWeapon@@6B@ 
??_7CEnemyBase@@6B@ 
??_7CEnemyDive@@6B@ 
??_7CEnemyFly@@6B@ 
??_7CEnemyRunInto@@6B@ 
??_7CItem@@6B@ 
??_7CLarvaOffspring@@6B@ 
??_7CLevelScriptor@@6B@ 
??_7CMageAnimator@@6B@ 
??_7CMageWeapon@@6B@ 
??_7CNavigationMarker@@6B@ 
??_7CNinjaAnimator@@6B@ 
??_7CNinjaWeapon@@6B@ 
??_7CNpcBase@@6B@ 
??_7CNpcWatcher@@6B@ 
??_7CParticleEmitter@@6B@ 
??_7CPlayer@@6B@ 
??_7CPlayerAnimatorBase@@6B@ 
??_7CPlayerView@@6B@ 
??_7CPlayerWeaponBase@@6B@ 
??_7CProjectile@@6B@ 
??_7CReminder@@6B@ 
??_7CSpinner@@6B@ 
??_7CSwordManAnimator@@6B@ 
??_7CSwordmanWeapon@@6B@ 
??_7CTreeBeginnersHelpData@@6B@ 
??_7CWatcher@@6B@ 
??_7CellPointinfo@@6B@ 
??_7EAbuseEarnPoint@@6B@ 
??_7EActivate@@6B@ 
??_7EActivateBeam@@6B@ 
??_7EActivateBlend@@6B@ 
??_7EActivateSwitchPointer@@6B@ 
??_7EActivatebySync@@6B@ 
??_7EActivityBegin@@6B@ 
??_7EAirElementalContinue@@6B@ 
??_7EAmmoItem@@6B@ 
??_7EAmmoPackItem@@6B@ 
??_7EAnimatorInit@@6B@ 
??_7EApproachEnemy@@6B@ 
??_7EArchitectureDeath2@@6B@ 
??_7EArchitectureDeath@@6B@ 
??_7EArmor@@6B@ 
??_7EAttackFire@@6B@ 
??_7EAttackHit@@6B@ 
??_7EBarrier@@6B@ 
??_7EBatteryBlood@@6B@ 
??_7EBatteryContinue@@6B@ 
??_7EBatteryDamage@@6B@ 
??_7EBatteryExplode@@6B@ 
??_7EBeIdle@@6B@ 
??_7EBead@@6B@ 
??_7EBlackIceWind@@6B@ 
??_7EBless@@6B@ 
??_7EBlowUp@@6B@ 
??_7EBombEffect@@6B@ 
??_7EBonus@@6B@ 
??_7EBossDamage@@6B@ 
??_7EBrushDeath@@6B@ 
??_7EBrushDestroyed@@6B@ 
??_7EBrushDestroyedByDevil@@6B@ 
??_7EBuff@@6B@ 
??_7EBuffAction@@6B@ 
??_7EBuffClear@@6B@ 
??_7EBuffEvent@@6B@ 
??_7EBulletInit@@6B@ 
??_7ECameraStart@@6B@ 
??_7ECameraStop@@6B@ 
??_7ECenterMessage@@6B@ 
??_7EChangeAnim@@6B@ 
??_7EChangeCharaType@@6B@ 
??_7EChangeGravity@@6B@ 
??_7EChangeMode@@6B@ 
??_7EChangeMusic@@6B@ 
??_7EChangeStart@@6B@ 
??_7EChangeState@@6B@ 
??_7EChangeWeapon@@6B@ 
??_7EChaosGuageFull@@6B@ 
??_7EChargeAttack@@6B@ 
??_7EChristmasBoxItemTouch@@6B@ 
??_7EChristmasBoxReceive@@6B@ 
??_7EChristmasDestroy@@6B@ 
??_7EChristmasNoticeMessage@@6B@ 
??_7EChristmasSetting@@6B@ 
??_7ECloseAttack@@6B@ 
??_7ECloseAttackKing@@6B@ 
??_7ECloseQDoor@@6B@ 
??_7ECollisionState@@6B@ 
??_7EComputerMessage@@6B@ 
??_7ECopierTrigger@@6B@ 
??_7ECounterCount@@6B@ 
??_7ECredits@@6B@ 
??_7ECrush@@6B@ 
??_7ECutSceneObj@@6B@ 
??_7EDamageDiminution@@6B@ 
??_7EDamageTypeNet@@6B@ 
??_7EDeBuff@@6B@ 
??_7EDeBuffClear@@6B@ 
??_7EDeactivate@@6B@ 
??_7EDeactivateBlend@@6B@ 
??_7EDeactivateSwitchPointer@@6B@ 
??_7EDestroyEventItem@@6B@ 
??_7EDevilCommand@@6B@ 
??_7EDevilContinue@@6B@ 
??_7EDevilFireElectricity@@6B@ 
??_7EDevilStopElectricity@@6B@ 
??_7EDisappear@@6B@ 
??_7EDisconnected@@6B@ 
??_7EDistanceAttack@@6B@ 
??_7EDropBoxItem@@6B@ 
??_7EDropBoxItemDestroy@@6B@ 
??_7EDropBoxItemTouch@@6B@ 
??_7EDropKamikaze@@6B@ 
??_7EEffectAttack@@6B@ 
??_7EElectricityStart@@6B@ 
??_7EElectricityStop@@6B@ 
??_7EElementalGrow@@6B@ 
??_7EEnd@@6B@ 
??_7EEndRound@@6B@ 
??_7EEnemyBaseDamage@@6B@ 
??_7EEnemyBaseDeath@@6B@ 
??_7EEnvironmentStart@@6B@ 
??_7EEnvironmentStop@@6B@ 
??_7EEventItemSetting@@6B@ 
??_7EExplEffect@@6B@ 
??_7EExplode@@6B@ 
??_7EExplosion@@6B@ 
??_7EFear@@6B@ 
??_7EFearEffect@@6B@ 
??_7EFlame@@6B@ 
??_7EFlipTheSwitch@@6B@ 
??_7EFloatingScore@@6B@ 
??_7EForceExplode@@6B@ 
??_7EForcePathMarker@@6B@ 
??_7EForceWound@@6B@ 
??_7EFreeze@@6B@ 
??_7EGetEventItem@@6B@ 
??_7EGoldGolemRebirth@@6B@ 
??_7EGoldGolemRespawn@@6B@ 
??_7EGoldSword@@6B@ 
??_7EHarbor@@6B@ 
??_7EHealth@@6B@ 
??_7EHeart@@6B@ 
??_7EHit@@6B@ 
??_7EHitBySpaceShipBeam@@6B@ 
??_7EHoldAttack@@6B@ 
??_7EHolyLight@@6B@ 
??_7EHudPicFX@@6B@ 
??_7EIceWind@@6B@ 
??_7EIdle@@6B@ 
??_7EIndicatorCreate@@6B@ 
??_7EInitDualistBomb@@6B@ 
??_7EInitFreeFallModel@@6B@ 
??_7EInitRangeWeapon@@6B@ 
??_7EInvincible@@6B@ 
??_7EKey@@6B@ 
??_7EKillCount@@6B@ 
??_7EKilledEnemy@@6B@ 
??_7ELarvaArmDestroyed@@6B@ 
??_7ELarvaContinue@@6B@ 
??_7ELarvaFireLaser@@6B@ 
??_7ELarvaHealth@@6B@ 
??_7ELarvaRechargePose@@6B@ 
??_7ELaserDestroy@@6B@ 
??_7ELaserParam@@6B@ 
??_7ELaserReadyDestroy@@6B@ 
??_7ELaserReadyParam@@6B@ 
??_7ELaunchCannonBall@@6B@ 
??_7ELaunchLarvaOffspring@@6B@ 
??_7ELaunchProjectile@@6B@ 
??_7ELongBow@@6B@ 
??_7EMageBarrier@@6B@ 
??_7EMageBless@@6B@ 
??_7EMageBomb@@6B@ 
??_7EMageDispell@@6B@ 
??_7EMageHold@@6B@ 
??_7EMageMissile@@6B@ 
??_7EMageSpell@@6B@ 
??_7EMagicBomb@@6B@ 
??_7EMagicMissile@@6B@ 
??_7EMapItemBomb@@6B@ 
??_7EMapItemReceive@@6B@ 
??_7EMapItemRespawn@@6B@ 
??_7EMapItemSpawnMapNpc@@6B@ 
??_7EMapItemTouch@@6B@ 
??_7EMarkPicked@@6B@ 
??_7EMasterGolemDamage@@6B@ 
??_7EMasterGolemRespawn@@6B@ 
??_7EMasterNpcRespawn@@6B@ 
??_7EMessageItem@@6B@ 
??_7EModel2Activate@@6B@ 
??_7EModel2Deactivate@@6B@ 
??_7EModel3Activate@@6B@ 
??_7EModel3Deactivate@@6B@ 
??_7EModelDeath@@6B@ 
??_7EModelForSequenceMarker@@6B@ 
??_7EMoveToDestination@@6B@ 
??_7EMovementAnimation@@6B@ 
??_7EMovingBrushDeath@@6B@ 
??_7EMusicChangerTrigger@@6B@ 
??_7ENetChangeMusic@@6B@ 
??_7ENetSpawnEntity@@6B@ 
??_7ENetTrigger@@6B@ 
??_7ENetTriggerPSS@@6B@ 
??_7ENewGolemKillTypeBuff@@6B@ 
??_7ENpcAcdPoison@@6B@ 
??_7ENpcBaseDamage@@6B@ 
??_7ENpcBaseDeath@@6B@ 
??_7ENpcBuff@@6B@ 
??_7ENpcCocoon@@6B@ 
??_7ENpcDeadToSwitch@@6B@ 
??_7ENpcDisappear@@6B@ 
??_7ENpcExtraSet@@6B@ 
??_7ENpcFear@@6B@ 
??_7ENpcFreeze@@6B@ 
??_7ENpcHP@@6B@ 
??_7ENpcNoticeChangeMovePatrolState@@6B@ 
??_7ENpcReconsiderBehavior@@6B@ 
??_7ENpcSetDummy@@6B@ 
??_7ENpcSetNormal@@6B@ 
??_7ENpcStun@@6B@ 
??_7ENpcTried@@6B@ 
??_7ENpcWatch@@6B@ 
??_7ENpcWatcherInit@@6B@ 
??_7ENpcWeakening@@6B@ 
??_7EObserver@@6B@ 
??_7EOpenDoor@@6B@ 
??_7EOpenQDoor@@6B@ 
??_7EOverallAttack@@6B@ 
??_7EParticlesActivate@@6B@ 
??_7EParticlesDeactivate@@6B@ 
??_7EPassiveCreate@@6B@ 
??_7EPhaseCheck@@6B@ 
??_7EPhaseState@@6B@ 
??_7EPlayEndMenu@@6B@ 
??_7EPlayIdleMenu@@6B@ 
??_7EPlayReturnMenu@@6B@ 
??_7EPlaySoundOnce@@6B@ 
??_7EPlayStartMenu@@6B@ 
??_7EPlayerAcdPoison@@6B@ 
??_7EPlayerBouncedWall@@6B@ 
??_7EPlayerDamage@@6B@ 
??_7EPlayerDeath@@6B@ 
??_7EPlayerRemainHP@@6B@ 
??_7EPlayerReset_HP_AP@@6B@ 
??_7EPowerUp@@6B@ 
??_7EPrevClearedRank@@6B@ 
??_7EPrizeValue@@6B@ 
??_7EProjectileSpawnClient@@6B@ 
??_7EProjectileSpawnParam@@6B@ 
??_7EPyramidShipActivate@@6B@ 
??_7EPyramidShipDeactivate@@6B@ 
??_7EQMessage@@6B@ 
??_7EQstSWReady@@6B@ 
??_7EQstStatus@@6B@ 
??_7EQstSwOn@@6B@ 
??_7EQstSwRandom@@6B@ 
??_7ERangeAttack@@6B@ 
??_7ERangeAttackKing@@6B@ 
??_7ERangeModelDestruction@@6B@ 
??_7ERecallEffect@@6B@ 
??_7EReceiveItem@@6B@ 
??_7EReceiveScore@@6B@ 
??_7EReceiveTotDamage@@6B@ 
??_7EReconsiderBehavior@@6B@ 
??_7ERegenerationImpuls@@6B@ 
??_7EReminder@@6B@ 
??_7EReminderInit@@6B@ 
??_7EReportTargetforLeader@@6B@ 
??_7ERequestHoldAttack@@6B@ 
??_7ERequestJudge@@6B@ 
??_7ERespawn@@6B@ 
??_7ERestartAttack@@6B@ 
??_7ERestartRound@@6B@ 
??_7EReturnToEndPatrol@@6B@ 
??_7EReversal@@6B@ 
??_7ESaveGame@@6B@ 
??_7EScorpmanWakeUp@@6B@ 
??_7EScroll@@6B@ 
??_7ESecretFound@@6B@ 
??_7ESeriousBomb@@6B@ 
??_7ESetFlyState@@6B@ 
??_7ESetTargetAnim@@6B@ 
??_7ESetTargetIndicator@@6B@ 
??_7ESetTargetforGroup@@6B@ 
??_7ESetType@@6B@ 
??_7ESetViewer@@6B@ 
??_7ESetWeapon@@6B@ 
??_7EShootShuriken@@6B@ 
??_7EShootWeapon@@6B@ 
??_7EShortAttack@@6B@ 
??_7EShortRangeAttack@@6B@ 
??_7ESoulCannon@@6B@ 
??_7ESoulCannonDestroy@@6B@ 
??_7ESoulShot@@6B@ 
??_7ESound@@6B@ 
??_7ESpawnBead@@6B@ 
??_7ESpawnBillBoardImage@@6B@ 
??_7ESpawnBoneEffect@@6B@ 
??_7ESpawnBoneEffectModel@@6B@ 
??_7ESpawnBurning@@6B@ 
??_7ESpawnCPEffect@@6B@ 
??_7ESpawnChristmasBox@@6B@ 
??_7ESpawnCocoon@@6B@ 
??_7ESpawnDebris@@6B@ 
??_7ESpawnDebrisSka@@6B@ 
??_7ESpawnDropBoxItem@@6B@ 
??_7ESpawnEffect@@6B@ 
??_7ESpawnEffector@@6B@ 
??_7ESpawnEventItem@@6B@ 
??_7ESpawnFlame@@6B@ 
??_7ESpawnFreeze@@6B@ 
??_7ESpawnInvincible@@6B@ 
??_7ESpawnMessage@@6B@ 
??_7ESpawnNpc@@6B@ 
??_7ESpawnNpcEffect@@6B@ 
??_7ESpawnPassive@@6B@ 
??_7ESpawnPoison@@6B@ 
??_7ESpawnQstNpc@@6B@ 
??_7ESpawnReversal@@6B@ 
??_7ESpawnSpray@@6B@ 
??_7ESpawnStun@@6B@ 
??_7ESpawnTried@@6B@ 
??_7ESpawnWeakening@@6B@ 
??_7ESpawnerProjectile@@6B@ 
??_7ESpecialAttackHit@@6B@ 
??_7ESpinnerInit@@6B@ 
??_7EStand@@6B@ 
??_7EStart@@6B@ 
??_7EStartAttack@@6B@ 
??_7EStartCounter@@6B@ 
??_7EStartDrawImage@@6B@ 
??_7EStartRound@@6B@ 
??_7EStartSounds@@6B@ 
??_7EStop@@6B@ 
??_7EStopAttack@@6B@ 
??_7EStopBlindness@@6B@ 
??_7EStopCounter@@6B@ 
??_7EStopDeafness@@6B@ 
??_7EStopFlaming@@6B@ 
??_7EStopSounds@@6B@ 
??_7EStormEnvironmentStart@@6B@ 
??_7EStormStart@@6B@ 
??_7EStormStop@@6B@ 
??_7ESucking@@6B@ 
??_7ESummonAttack@@6B@ 
??_7ESummonEffect@@6B@ 
??_7ESummonEffectOption@@6B@ 
??_7ESummonerContinue@@6B@ 
??_7ESummonerMaterialize@@6B@ 
??_7ESummonerTeleport@@6B@ 
??_7ETapMiniMapPickIndex@@6B@ 
??_7ETeleportActivate@@6B@ 
??_7ETeleportDeactivate@@6B@ 
??_7ETeleportMovingBrush@@6B@ 
??_7ETextFX@@6B@ 
??_7ETouchSendedByRemote@@6B@ 
??_7ETreasureItem@@6B@ 
??_7ETried@@6B@ 
??_7ETrigger@@6B@ 
??_7ETriggerEffector@@6B@ 
??_7ETriggerLightning@@6B@ 
??_7ETwister@@6B@ 
??_7EUsePotion@@6B@ 
??_7EViewInit@@6B@ 
??_7EVoiceMessage@@6B@ 
??_7EWatch@@6B@ 
??_7EWatcherInit@@6B@ 
??_7EWeakening@@6B@ 
??_7EWeaponItem@@6B@ 
??_7EWeaponsInit@@6B@ 
??_7EWeatherStart@@6B@ 
??_7EWeatherStop@@6B@ 
??_7EWingDestroy@@6B@ 
??_7Effect_AdditionCriticalDamage@@6B@ 
??_7Effect_AttackSpeed@@6B@ 
??_7Effect_DecreasePerCritical@@6B@ 
??_7Effect_DiminishRecvDamage@@6B@ 
??_7Effect_Heal@@6B@ 
??_7Effect_HitCreature@@6B@ 
??_7Effect_HitDistance@@6B@ 
??_7Effect_HitHold@@6B@ 
??_7Effect_HitNormal@@6B@ 
??_7Effect_HitSpecial@@6B@ 
??_7Effect_Invincible@@6B@ 
??_7Effect_MoveSpeed@@6B@ 
??_7Effect_RandomEffect@@6B@ 
??_7Effect_ReturnDamage@@6B@ 
??_7arrtail@@6B@ 
??_7eSpikeSet@@6B@ 
??_7eSpineInit@@6B@ 
??_7eSpineSet@@6B@ 
??_7tail@@6B@ 
??_B?1??GetInstance@CItemManager@@SAPAV1@XZ@51 
?AcidPoison@CNpcBase@@QAEXUDamageInfo@@PAVCEntity@@@Z 
?AcidPoison@CPlayer@@QAEXVESpawnPoison@@@Z 
?ActionAcidPoison@CNpcBase@@QAEXUDamageInfo@@PAVCEntity@@@Z 
?ActionCocoon@CNpcBase@@QAEXXZ 
?ActionFreeze@CNpcBase@@QAEXVENpcFreeze@@@Z 
?ActionStun@CNpcBase@@QAEXXZ 
?ActionTried@CNpcBase@@QAEXVENpcTried@@@Z 
?ActionWeakening@CNpcBase@@QAEXVENpcWeakening@@@Z 
?Active@CEnemyBase@@QAEHABVCEntityEvent@@@Z 
?Active@CNpcBase@@QAEHABVCEntityEvent@@@Z 
?Active@CNpcWatcher@@QAEHABVCEntityEvent@@@Z 
?Active@CWatcher@@QAEHABVCEntityEvent@@@Z 
?ActiveActions@CPlayer@@QAEXABVCPlayerAction@@@Z 
?AddAP@CPlayer@@UAEXM@Z 
?AddAnimation@CPlayer@@UAEXJKMJJMMJ@Z 
?AddAttachmentToModel@@YAXPAVCEntity@@AAVCModelObject@@JKKKKK@Z 
?AddAttackInfo@CPlayer@@QAEXEM@Z 
?AddBouble@CPlayer@@QAEXV?$Vector@M$02@@0@Z 
?AddBulletSpray@CPlayer@@QAEXV?$Vector@M$02@@W4EffectParticlesType@@0@Z 
?AddCP@CPlayer@@QAEXM@Z 
?AddChild@CPlayer@@QAEXJABVCTFileName@@ABVCTString@@@Z 
?AddDamageInfo@CPlayer@@QAEXEM@Z 
?AddDeathCount@CPlayer@@QAEXXZ 
?AddFlare@CItem@@QAEXJV?$Vector@M$02@@0@Z 
?AddGoreSpray@CPlayer@@QAEXV?$Vector@M$02@@0W4SprayParticlesType@@0V?$AABBox@M$02@@MK@Z 
?AddHP@CPlayer@@UAEXM@Z 
?AddHitCount@CPlayer@@QAEXW4DamageType@@@Z 
?AddKeyCmd@CPlayerAnimatorBase@@QAEXJ@Z 
?AddKillCount@CPlayer@@QAEHW4EKillType@@@Z 
?AddLinkSwitch@CNpcBase@@QAEXPAVCEntity@@@Z 
?AddParticle@CEmiter@@QAEXV?$Vector@M$02@@0MMMMMK@Z 
?AddSkaChild@@YAJPAVCEntity@@0JABVCTString@@J@Z 
?AddSkaChild@@YAJPAVCEntity@@PAVCModelInstance@@ABVCTFileName@@ABVCTString@@J@Z 
?AddSkaChild@@YAJPAVCEntity@@PAVCModelInstance@@JABVCTString@@J@Z 
?AddSkaChild@@YAJPAVCModelInstance@@JABVCTFileName@@ABVCTString@@@Z 
?AddSkaChild@@YAJPAVCModelInstance@@JABVCTFileName@@ABVCTString@@V?$Vector@M$02@@3@Z 
?AddToFuss@CEnemyBase@@QAEXXZ 
?AddToFuss@CNpcBase@@QAEXXZ 
?AdjustBones@CEnemyBase@@UAEXXZ 
?AdjustBones@CNpcBase@@UAEXXZ 
?AdjustBones@CPlayer@@UAEXXZ 
?AdjustBonesAbs@CPlayer@@UAEXXZ 
?AdjustDifficulty@CEnemyBase@@UAEXXZ 
?AdjustDifficulty@CEnemyDive@@UAEXXZ 
?AdjustDifficulty@CEnemyFly@@UAEXXZ 
?AdjustDifficulty@CEnemyRunInto@@UAEXXZ 
?AdjustDifficulty@CItem@@UAEXXZ 
?AdjustEnemyHealth@CEnemyBase@@QAEXXZ 
?AdjustEnemySpeed@CEnemyBase@@QAEXXZ 
?AdjustFlyHeight@CNpcBase@@QAEHABVCEntityEvent@@@Z 
?AdjustMipFactor@CItem@@UAEXAAM@Z 
?AdjustShadingParameters@CCannonBall@@UAEHAAV?$Vector@M$02@@AAK1@Z 
?AdjustShadingParameters@CEnemyBase@@UAEHAAV?$Vector@M$02@@AAK1@Z 
?AdjustShadingParameters@CItem@@UAEHAAV?$Vector@M$02@@AAK1@Z 
?AdjustShadingParameters@CNpcBase@@UAEHAAV?$Vector@M$02@@AAK1@Z 
?AdjustShadingParameters@CPlayer@@UAEHAAV?$Vector@M$02@@AAK1@Z 
?AdjustShadingParameters@CProjectile@@UAEHAAV?$Vector@M$02@@AAK1@Z 
?AfterAnimation@CNpcBase@@UAEXJ@Z 
?AfterburnerDebris@CProjectile@@QAEXXZ 
?AirToGround@CEnemyFly@@QAEHABVCEntityEvent@@@Z 
?AirToGroundAnim@CEnemyFly@@UAEMXZ 
?AliveActions@CPlayer@@QAEXABVCPlayerAction@@@Z 
?AmmoItemType_enum@@3VCEntityPropertyEnumType@@A 
?AmmoItemType_values@@3PAVCEntityPropertyEnumValue@@A 
?AmmoPackType_enum@@3VCEntityPropertyEnumType@@A 
?AmmoPackType_values@@3PAVCEntityPropertyEnumValue@@A 
?AngleBetweenNormVectors@@YAMV?$Vector@M$02@@0@Z 
?AngleBetweenNormVectors@@YAMV?$Vector@M$02@@0JJJ@Z 
?AngleBetweenVectors@@YAMV?$Vector@M$02@@0@Z 
?AngleBetweenVectors@@YAMV?$Vector@M$02@@0JJJ@Z 
?AnimForDamage@CEnemyBase@@UAEJM@Z 
?AnimForDamage@CNpcBase@@UAEJM@Z 
?AnimForDeath@CEnemyBase@@UAEJXZ 
?AnimForDeath@CNpcBase@@UAEJXZ 
?AnimateAttack_Chaos@CBattleBowAnimator@@UAEXXZ 
?AnimateAttack_Chaos@CBlackSmithAnimator@@UAEXXZ 
?AnimateAttack_Chaos@CDualistAnimator@@UAEXXZ 
?AnimateAttack_Chaos@CMageAnimator@@UAEXXZ 
?AnimateAttack_Chaos@CNinjaAnimator@@UAEXXZ 
?AnimateAttack_Chaos@CPlayerAnimatorBase@@UAEXXZ 
?AnimateAttack_Chaos@CSwordManAnimator@@UAEXXZ 
?AnimateAttack_Jumping@CBattleBowAnimator@@UAEXXZ 
?AnimateAttack_Jumping@CBlackSmithAnimator@@UAEXXZ 
?AnimateAttack_Jumping@CDualistAnimator@@UAEXXZ 
?AnimateAttack_Jumping@CMageAnimator@@UAEXXZ 
?AnimateAttack_Jumping@CNinjaAnimator@@UAEXXZ 
?AnimateAttack_Jumping@CPlayerAnimatorBase@@UAEXXZ 
?AnimateAttack_Jumping@CSwordManAnimator@@UAEXXZ 
?AnimateAttack_Weapon01@CBattleBowAnimator@@UAEXXZ 
?AnimateAttack_Weapon01@CBlackSmithAnimator@@UAEXXZ 
?AnimateAttack_Weapon01@CDualistAnimator@@UAEXXZ 
?AnimateAttack_Weapon01@CMageAnimator@@UAEXXZ 
?AnimateAttack_Weapon01@CNinjaAnimator@@UAEXXZ 
?AnimateAttack_Weapon01@CPlayerAnimatorBase@@UAEXXZ 
?AnimateAttack_Weapon01@CSwordManAnimator@@UAEXXZ 
?AnimateAttack_Weapon02@CBattleBowAnimator@@UAEXXZ 
?AnimateAttack_Weapon02@CBlackSmithAnimator@@UAEXXZ 
?AnimateAttack_Weapon02@CDualistAnimator@@UAEXXZ 
?AnimateAttack_Weapon02@CMageAnimator@@UAEXXZ 
?AnimateAttack_Weapon02@CNinjaAnimator@@UAEXXZ 
?AnimateAttack_Weapon02@CPlayerAnimatorBase@@UAEXXZ 
?AnimateAttack_Weapon02@CSwordManAnimator@@UAEXXZ 
?AnimateAttack_Zombie@CPlayerAnimatorBase@@UAEXXZ 
?AnimateDamage@CBattleBowAnimator@@UAEXXZ 
?AnimateDamage@CBlackSmithAnimator@@UAEXXZ 
?AnimateDamage@CDualistAnimator@@UAEXXZ 
?AnimateDamage@CMageAnimator@@UAEXXZ 
?AnimateDamage@CNinjaAnimator@@UAEXXZ 
?AnimateDamage@CPlayerAnimatorBase@@UAEXXZ 
?AnimateDamage@CSwordManAnimator@@UAEXXZ 
?AnimateGuard@CBattleBowAnimator@@UAEXV?$Vector@M$02@@@Z 
?AnimateGuard@CBlackSmithAnimator@@UAEXV?$Vector@M$02@@@Z 
?AnimateGuard@CDualistAnimator@@UAEXV?$Vector@M$02@@@Z 
?AnimateGuard@CMageAnimator@@UAEXV?$Vector@M$02@@@Z 
?AnimateGuard@CNinjaAnimator@@UAEXV?$Vector@M$02@@@Z 
?AnimateGuard@CPlayerAnimatorBase@@UAEXV?$Vector@M$02@@@Z 
?AnimateGuard@CSwordManAnimator@@UAEXV?$Vector@M$02@@@Z 
?AnimateHoldAttack@CPlayerAnimatorBase@@QAEXXZ 
?AnimateHoldTry@CPlayerAnimatorBase@@QAEXXZ 
?AnimateParticles@CEmiter@@QAEXXZ 
?AnimatePlayer@CPlayerAnimatorBase@@QAEXABVCPlayerAction@@@Z 
?AnimateSoftEyes@CPlayerAnimatorBase@@QAEXXZ 
?AnimateWeaponChange@CPlayerAnimatorBase@@QAEXXZ 
?Animate_Excep_Damage@CPlayerAnimatorBase@@QAEXPAVCPlayer@@0AAVCTString@@@Z 
?ApplyAction@CNpcBase@@UAEXXZ 
?ApplyAction@CPlayer@@UAEXABVCPlayerAction@@MAAH@Z 
?ApplyChangeData@CPlayer@@UAEXAAVCNetMessage@@@Z 
?ApplyChaosWeakDamage@CPlayerWeaponBase@@UAEXPAVCPlayer@@PAUDamageInfo@@@Z 
?ApplyInitData@CNpcBase@@UAEXAAVCNetMessage@@@Z 
?ApplyInitData@CPlayer@@UAEXAAVCNetMessage@@@Z 
?ApplyKeyLock@CPlayer@@QAEXAAV?$Vector@M$02@@0@Z 
?ApplyPacket_HP_AP@CPlayer@@QAEXVEPlayerRemainHP@@@Z 
?ApplyPacket_Reset_HP_AP@CPlayer@@QAEXVEPlayerReset_HP_AP@@@Z 
?ApplyRageEffect@CPlayer@@QAEXEM@Z 
?ApplyRageEffectLevel@CPlayer@@QAEXE@Z 
?ApplyRageGauge@CPlayer@@QAEXPAVCEntity@@HMM@Z 
?ApplyReceiveDamage@CPlayer@@QAEXVEPlayerDamage@@PAVCEntity@@@Z 
?ApplyReceiveDamageAdvance@CPlayer@@QAEXAAVCNetMessage@@E@Z 
?ApplyReceiveDamageAdvance@CPlayer@@QAEXUPlayerRecvDamageInfo@@@Z 
?ApplyStageEffectItemByEffectType@CPlayer@@QAEXAAUStageEffectItemInfoForUser@@PAVCEntity@@MUDamageInfo@@@Z 
?ApplyStageEffectItemByTermType@CPlayer@@QAEXW4EStageItemTermsType@@PAVCEntity@@MPBUDamageInfo@@@Z 
?ApplyStageEffectItemSendEventByTargetType@CPlayer@@QAEXABVCEntityEvent@@W4EStageItemTargetType@@PAVCEntity@@@Z 
?ApplySyncData@CPlayer@@UAEXAAVCNetMessage@@@Z 
?ApplyTactics@CEnemyBase@@UAEXAAV?$Vector@M$02@@@Z 
?ApplyTransitFPSCamera@CPlayer@@QAEXAAV?$Vector@M$02@@0@Z 
?AquireGoldSword@CPlayer@@QAEXXZ 
?ArmorItemType_enum@@3VCEntityPropertyEnumType@@A 
?ArmorItemType_values@@3PAVCEntityPropertyEnumValue@@A 
?AssignWatcher@CEnemyBase@@QAEXPAVCEntity@@@Z 
?Attack01@CNpcBase@@QAEHABVCEntityEvent@@@Z 
?Attack02@CNpcBase@@QAEHABVCEntityEvent@@@Z 
?Attack03@CNpcBase@@QAEHABVCEntityEvent@@@Z 
?Attack@CPlayerWeaponBase@@QAEMXZ 
?AttackEnemy@CEnemyBase@@QAEHABVCEntityEvent@@@Z 
?AttackEnemy@CEnemyFly@@QAEHABVCEntityEvent@@@Z 
?AttackEnemy@CNpcBase@@QAEHABVCEntityEvent@@@Z 
?AttackSkyEnemy@CNpcBase@@QAEHABVCEntityEvent@@@Z 
?AutoAimCoordsAdjustForSize@CEnemyBase@@QAEXPAV?$Vector@M$02@@PAM@Z 
?AutoAimCoordsFromBone@CEnemyBase@@QAEXPAV?$Vector@M$02@@PAMJV2@M@Z 
?AutoAimCoordsFromBox@CEnemyBase@@QAEXPAV?$Vector@M$02@@PAM@Z 
?AutoRecoverHP@CPlayer@@QAEXM@Z 
?BallTouchExplode@CCannonBall@@QAEHVCEntityPointer@@@Z 
?BasicEffectType_enum@@3VCEntityPropertyEnumType@@A 
?BasicEffectType_values@@3PAVCEntityPropertyEnumValue@@A 
?BattleBowArrowSpecial@CBattleBowWeapon@@QAEHPAVCEntity@@VEShootWeapon@@AAV?$Vector@M$02@@2AAUEntityClassInfo@@@Z 
?BattleBowArrowSpecial_Remote@CBattleBowWeapon@@QAEXVEShootWeapon@@@Z 
?BeAttackedAnimation@CNpcBase@@QAEHABVCEntityEvent@@@Z 
?BeAttackedAnimationInDeath@CNpcBase@@QAEHABVCEntityEvent@@@Z 
?BeBouncedWall@CEnemyBase@@QAEHABVCEntityEvent@@@Z 
?BeBouncedWall@CPlayerAnimatorBase@@QAEXVEPlayerBouncedWall@@@Z 
?BeIdle@CEnemyBase@@QAEHABVCEntityEvent@@@Z 
?BeIdle@CNpcBase@@QAEHABVCEntityEvent@@@Z 
?BeWounded@CEnemyBase@@QAEHABVCEntityEvent@@@Z 
?BeWounded@CEnemyFly@@QAEHABVCEntityEvent@@@Z 
?Bead@CPlayer@@QAEXXZ 
?BeastBigDebris@CProjectile@@QAEXXZ 
?BeastBigDebrisExplosion@CProjectile@@QAEXXZ 
?BeastBigProjectile@CProjectile@@QAEXXZ 
?BeastBigProjectileExplosion@CProjectile@@QAEXXZ 
?BeastDebris@CProjectile@@QAEXXZ 
?BeastDebrisExplosion@CProjectile@@QAEXXZ 
?BeastProjectile@CProjectile@@QAEXXZ 
?BeastProjectileExplosion@CProjectile@@QAEXXZ 
?BeastType_enum@@3VCEntityPropertyEnumType@@A 
?BeastType_values@@3PAVCEntityPropertyEnumValue@@A 
?BeginnerChaos@CPlayer@@QAE_NXZ 
?BigHeadType_enum@@3VCEntityPropertyEnumType@@A 
?BigHeadType_values@@3PAVCEntityPropertyEnumValue@@A 
?BlendControllerType_enum@@3VCEntityPropertyEnumType@@A 
?BlendControllerType_values@@3PAVCEntityPropertyEnumValue@@A 
?BlockAction_enum@@3VCEntityPropertyEnumType@@A 
?BlockAction_values@@3PAVCEntityPropertyEnumValue@@A 
?BloodSucking@CNpcBase@@UAEXMV?$Vector@M$02@@0@Z 
?BloodSucking@CPlayerWeaponBase@@QAEXMV?$Vector@M$02@@0@Z 
?BloodSuckingSetEffect@CPlayerWeaponBase@@QAEXMV?$Vector@M$02@@0@Z 
?BloodSuckingSocket@CPlayerWeaponBase@@QAEXMV?$Vector@M$02@@0@Z 
?BlowUp@CEnemyBase@@UAEXXZ 
?BlowUpBase@CEnemyBase@@QAEXXZ 
?BlowUpNotify@CEnemyBase@@UAEXXZ 
?BlowUpNotify@CNpcBase@@UAEXXZ 
?BombState_enum@@3VCEntityPropertyEnumType@@A 
?BombState_values@@3PAVCEntityPropertyEnumValue@@A 
?BonemanProjectile@CProjectile@@QAEXXZ 
?BoolEType_enum@@3VCEntityPropertyEnumType@@A 
?BoolEType_values@@3PAVCEntityPropertyEnumValue@@A 
?Bounce@CCannonBall@@QAEHABVCEntityEvent@@@Z 
?BounceSound@CCannonBall@@QAEXM@Z 
?BounceSound@CProjectile@@QAEXXZ 
?BouncedWall@CEnemyBase@@UAEMV?$Vector@M$02@@0@Z 
?BreakUpArmor@CPlayer@@QAEXV?$Vector@M$02@@0J@Z 
?BroadcastingObserver_Action@CPlayer@@QAEXXZ 
?BuffEvent@CNpcBase@@QAEXVEBuffEvent@@@Z 
?BullChar_enum@@3VCEntityPropertyEnumType@@A 
?BullChar_values@@3PAVCEntityPropertyEnumValue@@A 
?BulletHitType_enum@@3VCEntityPropertyEnumType@@A 
?BulletHitType_values@@3PAVCEntityPropertyEnumValue@@A 
?ButtonsActions@CPlayer@@QAEXABVCPlayerAction@@@Z 
?CPlayerAnimator@CPlayerAnimatorBase@@QAEXXZ 
?CalcArmorGuage@CPlayer@@QAEJXZ 
?CalcAttributeReceiveDamage@CNpcBase@@UAEMPAVCEntity@@PBUDamageInfo@@@Z 
?CalcCollisionPlaneDist@CNpcBase@@QAEMPAVCEntity@@@Z 
?CalcDelta@CEnemyBase@@QAE?AV?$Vector@M$02@@PAVCEntity@@@Z 
?CalcDelta@CNpcBase@@QAE?AV?$Vector@M$02@@PAVCEntity@@@Z 
?CalcDelta@CPlayer@@QAE?AV?$Vector@M$02@@PAVCEntity@@@Z 
?CalcDist@CEnemyBase@@QAEMPAVCEntity@@@Z 
?CalcDist@CNpcBase@@QAEMPAVCEntity@@@Z 
?CalcDist@CPlayer@@QAEMPAVCEntity@@@Z 
?CalcDistanceInPlaneToDestination@CEnemyBase@@QAEMXZ 
?CalcDistanceInPlaneToDestination@CNpcBase@@QAEMXZ 
?CalcDistanceInTargetToDestination@CNpcBase@@QAEMPAVCEntity@@@Z 
?CalcHeightLandToSky@CNpcBase@@QAEMXZ 
?CalcHeightTo@CNpcBase@@QAEMPAVCEntity@@@Z 
?CalcHeightToLand@CNpcBase@@QAEMXZ 
?CalcJitterTarget@CBullet@@QAEXM@Z 
?CalcJitterTargetFixed@CBullet@@QAEXMMM@Z 
?CalcPlaneDelta@CEnemyBase@@QAE?AV?$Vector@M$02@@PAVCEntity@@@Z 
?CalcPlaneDelta@CNpcBase@@QAE?AV?$Vector@M$02@@PAVCEntity@@@Z 
?CalcPlaneDist@CEnemyBase@@QAEMPAVCEntity@@@Z 
?CalcPlaneDist@CNpcBase@@QAEMPAVCEntity@@@Z 
?CalcTarget@CBullet@@QAEXM@Z 
?CalcTarget@CBullet@@QAEXPAVCEntity@@M@Z 
?CalcVerticalDelta@CNpcBase@@QAE?AV?$Vector@M$02@@PAVCEntity@@@Z 
?CalcVerticalDist@CNpcBase@@QAEMPAVCEntity@@@Z 
?CalculateAngularLaunchParams@CEnemyBase@@QAEXV?$Vector@M$02@@M00MAAM1@Z 
?CalculateDamageToInflict@CCannonBall@@QAEMXZ 
?CalculatePredictedPosition@CEnemyBase@@QAE?AV?$Vector@M$02@@V2@0M0M@Z 
?CanAttackEnemy@CEnemyBase@@QAEHPAVCEntity@@M@Z 
?CanAttackEnemy@CNpcBase@@QAEHPAVCEntity@@M@Z 
?CanHitEnemy@CEnemyBase@@UAEHPAVCEntity@@M@Z 
?CanHitEnemy@CEnemyDive@@UAEHPAVCEntity@@M@Z 
?CanHitEnemy@CEnemyFly@@UAEHPAVCEntity@@M@Z 
?CannonBallType_enum@@3VCEntityPropertyEnumType@@A 
?CannonBallType_values@@3PAVCEntityPropertyEnumValue@@A 
?CastBless@CPlayer@@QAEXVEMageBless@@@Z 
?CastBomb@CPlayer@@QAEXVEMageBomb@@@Z 
?CastMissile@CPlayer@@QAEXVEMageMissile@@@Z 
?CastSpell@CPlayer@@QAEXVEMageSpell@@@Z 
?CauseOfDeath_enum@@3VCEntityPropertyEnumType@@A 
?CauseOfDeath_values@@3PAVCEntityPropertyEnumValue@@A 
?CenterCamera@CPlayerView@@QAEXXZ 
?ChangeAnimation@CNpcBase@@QAEXJK@Z 
?ChangeAnimation@CNpcBase@@QAEXJKM@Z 
?ChangeAnimation@CNpcBase@@QAEXVCTString@@K@Z 
?ChangeAnimation@CNpcBase@@QAEXVCTString@@KM@Z 
?ChangeAnimation@CNpcBase@@QAEXVCTString@@KMMM@Z 
?ChangeAnimation@CPlayer@@QAEXJKM@Z 
?ChangeAnimation@CPlayer@@QAEXVCTString@@KM@Z 
?ChangeAnimation@CPlayer@@QAEXVCTString@@KMM@Z 
?ChangeAnimation@CPlayerAnimatorBase@@QAEXVCTString@@KM@Z 
?ChangeAnimationChild@CPlayer@@QAEXVCTString@@0@Z 
?ChangeAnimationChild@CPlayer@@QAEXVCTString@@J@Z 
?ChangeAnimationFast@CPlayer@@QAEXVCTString@@@Z 
?ChangeAnimationFast@CPlayer@@QAEXVCTString@@M@Z 
?ChangeAnimationFast@CPlayerAnimatorBase@@QAEXVCTString@@@Z 
?ChangeAnimationFast@CPlayerAnimatorBase@@QAEXVCTString@@M@Z 
?ChangeAttack01State@CBattleBowAnimator@@UAEHJM@Z 
?ChangeAttack01State@CBlackSmithAnimator@@UAEHJM@Z 
?ChangeAttack01State@CDualistAnimator@@UAEHJM@Z 
?ChangeAttack01State@CMageAnimator@@UAEHJM@Z 
?ChangeAttack01State@CNinjaAnimator@@UAEHJM@Z 
?ChangeAttack01State@CPlayerAnimatorBase@@UAEHJM@Z 
?ChangeAttack01State@CSwordManAnimator@@UAEHJM@Z 
?ChangeAttack02State@CBattleBowAnimator@@UAEHJM@Z 
?ChangeAttack02State@CBlackSmithAnimator@@UAEHJM@Z 
?ChangeAttack02State@CDualistAnimator@@UAEHJM@Z 
?ChangeAttack02State@CMageAnimator@@UAEHJM@Z 
?ChangeAttack02State@CNinjaAnimator@@UAEHJM@Z 
?ChangeAttack02State@CPlayerAnimatorBase@@UAEHJM@Z 
?ChangeAttack02State@CSwordManAnimator@@UAEHJM@Z 
?ChangeBladeFlame@CPlayer@@QAEXJ@Z 
?ChangeCharaType@CPlayer@@QAEXVEChangeCharaType@@@Z 
?ChangeCollisionToAir@CEnemyFly@@UAEXXZ 
?ChangeCollisionToGround@CEnemyDive@@UAEXXZ 
?ChangeCollisionToGround@CEnemyFly@@UAEXXZ 
?ChangeCollisionToLiquid@CEnemyDive@@UAEXXZ 
?ChangeItemInformation@CConstItemData@@QAE_NGG@Z 
?ChangeMode@CPlayer@@QAEXVEChangeMode@@@Z 
?ChangeModeGoldSword@CPlayer@@QAEXXZ 
?ChangeModeStart@CPlayer@@QAEXVEChangeStart@@@Z 
?ChangeModelInstanceTexture@@YA_NABVCTString@@ABVCTFileName@@PAVCModelInstance@@@Z 
?ChangePlayerModel@CPlayer@@QAEXVCTFileName@@@Z 
?ChangePlayerView@CPlayer@@QAEXW4EPlayerViewType@@@Z 
?ChangeToObserver@CPlayer@@QAEXXZ 
?ChangeViewCamera@CPlayer@@QAEXE@Z 
?ChangeViewCameraTarger@CPlayer@@QAEXVCEntityPointer@@VCTString@@@Z 
?ChangeViewCameraTarger@CPlayer@@QAEXXZ 
?ChangeViewCamera_Observer@CPlayer@@QAEXE@Z 
?ChangeViewOwnerNext@CPlayer@@QAEXH@Z 
?ChangeWeapon@CPlayerAnimatorBase@@QAEXXZ 
?ChaosProc@CPlayer@@QAEXM@Z 
?ChargeAnim@CEnemyBase@@UAEXXZ 
?ChargeAnim@CEnemyRunInto@@UAEXXZ 
?ChargeAnim@CNpcBase@@UAEXXZ 
?ChargeAttack01@CNpcBase@@QAEHABVCEntityEvent@@@Z 
?ChargeAttack02@CNpcBase@@QAEHABVCEntityEvent@@@Z 
?ChargeAttack03@CNpcBase@@QAEHABVCEntityEvent@@@Z 
?ChargeHitEnemy@CEnemyBase@@QAEHABVCEntityEvent@@@Z 
?Cheats@CPlayer@@QAEXXZ 
?CheatsEnabled@CPlayer@@QAEHXZ 
?CheckAbleInvinAttack@CBattleBowAnimator@@UAEHXZ 
?CheckAbleInvinAttack@CBlackSmithAnimator@@UAEHXZ 
?CheckAbleInvinAttack@CDualistAnimator@@UAEHXZ 
?CheckAbleInvinAttack@CMageAnimator@@UAEHXZ 
?CheckAbleInvinAttack@CNinjaAnimator@@UAEHXZ 
?CheckAbleInvinAttack@CPlayerAnimatorBase@@UAEHXZ 
?CheckAbleInvinAttack@CSwordManAnimator@@UAEHXZ 
?CheckAnotherPlayer@CWatcher@@QAEPAVCEntity@@PAV2@@Z 
?CheckAwardFlag@CPlayer@@QAEHW4EPlayerResult@@@Z 
?CheckCloserPlayer@CWatcher@@QAEPAVCEntity@@PAV2@M@Z 
?CheckCursedState@CPlayer@@QAEHXZ 
?CheckEnemyInTheAir@CNpcBase@@QAEHXZ 
?CheckExceptionMapCreature@@YAHGG@Z 
?CheckExceptionMapCreature@CExceptionMapCreatureList@@QAE?BHGG@Z 
?CheckFallForPathFinding@CEnemyBase@@QAEHABVEWouldFall@@@Z 
?CheckFlag@CBeginnersHelpData@@AAE?B_NW4_stat_flag@BeginnersHelp@@@Z 
?CheckFlag@CLevelScriptor@@QAEHW4_stat_flag@@@Z 
?CheckFlag@CTreeBeginnersHelpData@@AAE?B_NW4_stat_flag@TreeBeginnersHelp@@@Z 
?CheckFocedDown@CPlayer@@QAEHXZ 
?CheckFreezeState@CPlayer@@QAEHXZ 
?CheckHoldAttack@CPlayer@@QAEXVERequestHoldAttack@@@Z 
?CheckIDs@CellPointinfo@@UAEHXZ 
?CheckIDs@EAbuseEarnPoint@@UAEHXZ 
?CheckIDs@EActivate@@UAEHXZ 
?CheckIDs@EActivateBeam@@UAEHXZ 
?CheckIDs@EActivateBlend@@UAEHXZ 
?CheckIDs@EActivateSwitchPointer@@UAEHXZ 
?CheckIDs@EActivatebySync@@UAEHXZ 
?CheckIDs@EActivityBegin@@UAEHXZ 
?CheckIDs@EAirElementalContinue@@UAEHXZ 
?CheckIDs@EAmmoItem@@UAEHXZ 
?CheckIDs@EAmmoPackItem@@UAEHXZ 
?CheckIDs@EAnimatorInit@@UAEHXZ 
?CheckIDs@EApproachEnemy@@UAEHXZ 
?CheckIDs@EArchitectureDeath2@@UAEHXZ 
?CheckIDs@EArchitectureDeath@@UAEHXZ 
?CheckIDs@EArmor@@UAEHXZ 
?CheckIDs@EAttackFire@@UAEHXZ 
?CheckIDs@EAttackHit@@UAEHXZ 
?CheckIDs@EBarrier@@UAEHXZ 
?CheckIDs@EBatteryBlood@@UAEHXZ 
?CheckIDs@EBatteryContinue@@UAEHXZ 
?CheckIDs@EBatteryDamage@@UAEHXZ 
?CheckIDs@EBatteryExplode@@UAEHXZ 
?CheckIDs@EBeIdle@@UAEHXZ 
?CheckIDs@EBead@@UAEHXZ 
?CheckIDs@EBlackIceWind@@UAEHXZ 
?CheckIDs@EBless@@UAEHXZ 
?CheckIDs@EBlowUp@@UAEHXZ 
?CheckIDs@EBombEffect@@UAEHXZ 
?CheckIDs@EBonus@@UAEHXZ 
?CheckIDs@EBossDamage@@UAEHXZ 
?CheckIDs@EBrushDeath@@UAEHXZ 
?CheckIDs@EBrushDestroyed@@UAEHXZ 
?CheckIDs@EBrushDestroyedByDevil@@UAEHXZ 
?CheckIDs@EBuff@@UAEHXZ 
?CheckIDs@EBuffAction@@UAEHXZ 
?CheckIDs@EBuffClear@@UAEHXZ 
?CheckIDs@EBuffEvent@@UAEHXZ 
?CheckIDs@EBulletInit@@UAEHXZ 
?CheckIDs@ECameraStart@@UAEHXZ 
?CheckIDs@ECameraStop@@UAEHXZ 
?CheckIDs@ECenterMessage@@UAEHXZ 
?CheckIDs@EChangeAnim@@UAEHXZ 
?CheckIDs@EChangeCharaType@@UAEHXZ 
?CheckIDs@EChangeGravity@@UAEHXZ 
?CheckIDs@EChangeMode@@UAEHXZ 
?CheckIDs@EChangeMusic@@UAEHXZ 
?CheckIDs@EChangeStart@@UAEHXZ 
?CheckIDs@EChangeState@@UAEHXZ 
?CheckIDs@EChangeWeapon@@UAEHXZ 
?CheckIDs@EChaosGuageFull@@UAEHXZ 
?CheckIDs@EChargeAttack@@UAEHXZ 
?CheckIDs@EChristmasBoxItemTouch@@UAEHXZ 
?CheckIDs@EChristmasBoxReceive@@UAEHXZ 
?CheckIDs@EChristmasDestroy@@UAEHXZ 
?CheckIDs@EChristmasNoticeMessage@@UAEHXZ 
?CheckIDs@EChristmasSetting@@UAEHXZ 
?CheckIDs@ECloseAttack@@UAEHXZ 
?CheckIDs@ECloseAttackKing@@UAEHXZ 
?CheckIDs@ECloseQDoor@@UAEHXZ 
?CheckIDs@ECollisionState@@UAEHXZ 
?CheckIDs@EComputerMessage@@UAEHXZ 
?CheckIDs@ECopierTrigger@@UAEHXZ 
?CheckIDs@ECounterCount@@UAEHXZ 
?CheckIDs@ECredits@@UAEHXZ 
?CheckIDs@ECrush@@UAEHXZ 
?CheckIDs@ECutSceneObj@@UAEHXZ 
?CheckIDs@EDamageDiminution@@UAEHXZ 
?CheckIDs@EDamageTypeNet@@UAEHXZ 
?CheckIDs@EDeBuff@@UAEHXZ 
?CheckIDs@EDeBuffClear@@UAEHXZ 
?CheckIDs@EDeactivate@@UAEHXZ 
?CheckIDs@EDeactivateBlend@@UAEHXZ 
?CheckIDs@EDeactivateSwitchPointer@@UAEHXZ 
?CheckIDs@EDestroyEventItem@@UAEHXZ 
?CheckIDs@EDevilCommand@@UAEHXZ 
?CheckIDs@EDevilContinue@@UAEHXZ 
?CheckIDs@EDevilFireElectricity@@UAEHXZ 
?CheckIDs@EDevilStopElectricity@@UAEHXZ 
?CheckIDs@EDisappear@@UAEHXZ 
?CheckIDs@EDisconnected@@UAEHXZ 
?CheckIDs@EDistanceAttack@@UAEHXZ 
?CheckIDs@EDropBoxItem@@UAEHXZ 
?CheckIDs@EDropBoxItemDestroy@@UAEHXZ 
?CheckIDs@EDropBoxItemTouch@@UAEHXZ 
?CheckIDs@EDropKamikaze@@UAEHXZ 
?CheckIDs@EEffectAttack@@UAEHXZ 
?CheckIDs@EElectricityStart@@UAEHXZ 
?CheckIDs@EElectricityStop@@UAEHXZ 
?CheckIDs@EElementalGrow@@UAEHXZ 
?CheckIDs@EEnd@@UAEHXZ 
?CheckIDs@EEndRound@@UAEHXZ 
?CheckIDs@EEnemyBaseDamage@@UAEHXZ 
?CheckIDs@EEnemyBaseDeath@@UAEHXZ 
?CheckIDs@EEnvironmentStart@@UAEHXZ 
?CheckIDs@EEnvironmentStop@@UAEHXZ 
?CheckIDs@EEventItemSetting@@UAEHXZ 
?CheckIDs@EExplEffect@@UAEHXZ 
?CheckIDs@EExplode@@UAEHXZ 
?CheckIDs@EExplosion@@UAEHXZ 
?CheckIDs@EFear@@UAEHXZ 
?CheckIDs@EFearEffect@@UAEHXZ 
?CheckIDs@EFlame@@UAEHXZ 
?CheckIDs@EFlipTheSwitch@@UAEHXZ 
?CheckIDs@EFloatingScore@@UAEHXZ 
?CheckIDs@EForceExplode@@UAEHXZ 
?CheckIDs@EForcePathMarker@@UAEHXZ 
?CheckIDs@EForceWound@@UAEHXZ 
?CheckIDs@EFreeze@@UAEHXZ 
?CheckIDs@EGetEventItem@@UAEHXZ 
?CheckIDs@EGoldGolemRebirth@@UAEHXZ 
?CheckIDs@EGoldGolemRespawn@@UAEHXZ 
?CheckIDs@EGoldSword@@UAEHXZ 
?CheckIDs@EHarbor@@UAEHXZ 
?CheckIDs@EHealth@@UAEHXZ 
?CheckIDs@EHeart@@UAEHXZ 
?CheckIDs@EHit@@UAEHXZ 
?CheckIDs@EHitBySpaceShipBeam@@UAEHXZ 
?CheckIDs@EHoldAttack@@UAEHXZ 
?CheckIDs@EHolyLight@@UAEHXZ 
?CheckIDs@EHudPicFX@@UAEHXZ 
?CheckIDs@EIceWind@@UAEHXZ 
?CheckIDs@EIdle@@UAEHXZ 
?CheckIDs@EIndicatorCreate@@UAEHXZ 
?CheckIDs@EInitDualistBomb@@UAEHXZ 
?CheckIDs@EInitFreeFallModel@@UAEHXZ 
?CheckIDs@EInitRangeWeapon@@UAEHXZ 
?CheckIDs@EInvincible@@UAEHXZ 
?CheckIDs@EKey@@UAEHXZ 
?CheckIDs@EKillCount@@UAEHXZ 
?CheckIDs@EKilledEnemy@@UAEHXZ 
?CheckIDs@ELarvaArmDestroyed@@UAEHXZ 
?CheckIDs@ELarvaContinue@@UAEHXZ 
?CheckIDs@ELarvaFireLaser@@UAEHXZ 
?CheckIDs@ELarvaHealth@@UAEHXZ 
?CheckIDs@ELarvaRechargePose@@UAEHXZ 
?CheckIDs@ELaserDestroy@@UAEHXZ 
?CheckIDs@ELaserParam@@UAEHXZ 
?CheckIDs@ELaserReadyDestroy@@UAEHXZ 
?CheckIDs@ELaserReadyParam@@UAEHXZ 
?CheckIDs@ELaunchCannonBall@@UAEHXZ 
?CheckIDs@ELaunchLarvaOffspring@@UAEHXZ 
?CheckIDs@ELaunchProjectile@@UAEHXZ 
?CheckIDs@ELongBow@@UAEHXZ 
?CheckIDs@EMageBarrier@@UAEHXZ 
?CheckIDs@EMageBless@@UAEHXZ 
?CheckIDs@EMageBomb@@UAEHXZ 
?CheckIDs@EMageDispell@@UAEHXZ 
?CheckIDs@EMageHold@@UAEHXZ 
?CheckIDs@EMageMissile@@UAEHXZ 
?CheckIDs@EMageSpell@@UAEHXZ 
?CheckIDs@EMagicBomb@@UAEHXZ 
?CheckIDs@EMagicMissile@@UAEHXZ 
?CheckIDs@EMapItemBomb@@UAEHXZ 
?CheckIDs@EMapItemReceive@@UAEHXZ 
?CheckIDs@EMapItemRespawn@@UAEHXZ 
?CheckIDs@EMapItemSpawnMapNpc@@UAEHXZ 
?CheckIDs@EMapItemTouch@@UAEHXZ 
?CheckIDs@EMarkPicked@@UAEHXZ 
?CheckIDs@EMasterGolemDamage@@UAEHXZ 
?CheckIDs@EMasterGolemRespawn@@UAEHXZ 
?CheckIDs@EMasterNpcRespawn@@UAEHXZ 
?CheckIDs@EMessageItem@@UAEHXZ 
?CheckIDs@EModel2Activate@@UAEHXZ 
?CheckIDs@EModel2Deactivate@@UAEHXZ 
?CheckIDs@EModel3Activate@@UAEHXZ 
?CheckIDs@EModel3Deactivate@@UAEHXZ 
?CheckIDs@EModelDeath@@UAEHXZ 
?CheckIDs@EModelForSequenceMarker@@UAEHXZ 
?CheckIDs@EMoveToDestination@@UAEHXZ 
?CheckIDs@EMovementAnimation@@UAEHXZ 
?CheckIDs@EMovingBrushDeath@@UAEHXZ 
?CheckIDs@EMusicChangerTrigger@@UAEHXZ 
?CheckIDs@ENetChangeMusic@@UAEHXZ 
?CheckIDs@ENetSpawnEntity@@UAEHXZ 
?CheckIDs@ENetTrigger@@UAEHXZ 
?CheckIDs@ENetTriggerPSS@@UAEHXZ 
?CheckIDs@ENewGolemKillTypeBuff@@UAEHXZ 
?CheckIDs@ENpcAcdPoison@@UAEHXZ 
?CheckIDs@ENpcBaseDamage@@UAEHXZ 
?CheckIDs@ENpcBaseDeath@@UAEHXZ 
?CheckIDs@ENpcBuff@@UAEHXZ 
?CheckIDs@ENpcCocoon@@UAEHXZ 
?CheckIDs@ENpcDeadToSwitch@@UAEHXZ 
?CheckIDs@ENpcDisappear@@UAEHXZ 
?CheckIDs@ENpcExtraSet@@UAEHXZ 
?CheckIDs@ENpcFear@@UAEHXZ 
?CheckIDs@ENpcFreeze@@UAEHXZ 
?CheckIDs@ENpcHP@@UAEHXZ 
?CheckIDs@ENpcNoticeChangeMovePatrolState@@UAEHXZ 
?CheckIDs@ENpcReconsiderBehavior@@UAEHXZ 
?CheckIDs@ENpcSetDummy@@UAEHXZ 
?CheckIDs@ENpcSetNormal@@UAEHXZ 
?CheckIDs@ENpcStun@@UAEHXZ 
?CheckIDs@ENpcTried@@UAEHXZ 
?CheckIDs@ENpcWatch@@UAEHXZ 
?CheckIDs@ENpcWatcherInit@@UAEHXZ 
?CheckIDs@ENpcWeakening@@UAEHXZ 
?CheckIDs@EObserver@@UAEHXZ 
?CheckIDs@EOpenDoor@@UAEHXZ 
?CheckIDs@EOpenQDoor@@UAEHXZ 
?CheckIDs@EOverallAttack@@UAEHXZ 
?CheckIDs@EParticlesActivate@@UAEHXZ 
?CheckIDs@EParticlesDeactivate@@UAEHXZ 
?CheckIDs@EPassiveCreate@@UAEHXZ 
?CheckIDs@EPhaseCheck@@UAEHXZ 
?CheckIDs@EPhaseState@@UAEHXZ 
?CheckIDs@EPlayEndMenu@@UAEHXZ 
?CheckIDs@EPlayIdleMenu@@UAEHXZ 
?CheckIDs@EPlayReturnMenu@@UAEHXZ 
?CheckIDs@EPlaySoundOnce@@UAEHXZ 
?CheckIDs@EPlayStartMenu@@UAEHXZ 
?CheckIDs@EPlayerAcdPoison@@UAEHXZ 
?CheckIDs@EPlayerBouncedWall@@UAEHXZ 
?CheckIDs@EPlayerDamage@@UAEHXZ 
?CheckIDs@EPlayerDeath@@UAEHXZ 
?CheckIDs@EPlayerRemainHP@@UAEHXZ 
?CheckIDs@EPlayerReset_HP_AP@@UAEHXZ 
?CheckIDs@EPowerUp@@UAEHXZ 
?CheckIDs@EPrevClearedRank@@UAEHXZ 
?CheckIDs@EPrizeValue@@UAEHXZ 
?CheckIDs@EProjectileSpawnClient@@UAEHXZ 
?CheckIDs@EProjectileSpawnParam@@UAEHXZ 
?CheckIDs@EPyramidShipActivate@@UAEHXZ 
?CheckIDs@EPyramidShipDeactivate@@UAEHXZ 
?CheckIDs@EQMessage@@UAEHXZ 
?CheckIDs@EQstSWReady@@UAEHXZ 
?CheckIDs@EQstStatus@@UAEHXZ 
?CheckIDs@EQstSwOn@@UAEHXZ 
?CheckIDs@EQstSwRandom@@UAEHXZ 
?CheckIDs@ERangeAttack@@UAEHXZ 
?CheckIDs@ERangeAttackKing@@UAEHXZ 
?CheckIDs@ERangeModelDestruction@@UAEHXZ 
?CheckIDs@ERecallEffect@@UAEHXZ 
?CheckIDs@EReceiveItem@@UAEHXZ 
?CheckIDs@EReceiveScore@@UAEHXZ 
?CheckIDs@EReceiveTotDamage@@UAEHXZ 
?CheckIDs@EReconsiderBehavior@@UAEHXZ 
?CheckIDs@ERegenerationImpuls@@UAEHXZ 
?CheckIDs@EReminder@@UAEHXZ 
?CheckIDs@EReminderInit@@UAEHXZ 
?CheckIDs@EReportTargetforLeader@@UAEHXZ 
?CheckIDs@ERequestHoldAttack@@UAEHXZ 
?CheckIDs@ERequestJudge@@UAEHXZ 
?CheckIDs@ERespawn@@UAEHXZ 
?CheckIDs@ERestartAttack@@UAEHXZ 
?CheckIDs@ERestartRound@@UAEHXZ 
?CheckIDs@EReturnToEndPatrol@@UAEHXZ 
?CheckIDs@EReversal@@UAEHXZ 
?CheckIDs@ESaveGame@@UAEHXZ 
?CheckIDs@EScorpmanWakeUp@@UAEHXZ 
?CheckIDs@EScroll@@UAEHXZ 
?CheckIDs@ESecretFound@@UAEHXZ 
?CheckIDs@ESeriousBomb@@UAEHXZ 
?CheckIDs@ESetFlyState@@UAEHXZ 
?CheckIDs@ESetTargetAnim@@UAEHXZ 
?CheckIDs@ESetTargetIndicator@@UAEHXZ 
?CheckIDs@ESetTargetforGroup@@UAEHXZ 
?CheckIDs@ESetType@@UAEHXZ 
?CheckIDs@ESetViewer@@UAEHXZ 
?CheckIDs@ESetWeapon@@UAEHXZ 
?CheckIDs@EShootShuriken@@UAEHXZ 
?CheckIDs@EShootWeapon@@UAEHXZ 
?CheckIDs@EShortAttack@@UAEHXZ 
?CheckIDs@EShortRangeAttack@@UAEHXZ 
?CheckIDs@ESoulCannon@@UAEHXZ 
?CheckIDs@ESoulCannonDestroy@@UAEHXZ 
?CheckIDs@ESoulShot@@UAEHXZ 
?CheckIDs@ESound@@UAEHXZ 
?CheckIDs@ESpawnBead@@UAEHXZ 
?CheckIDs@ESpawnBillBoardImage@@UAEHXZ 
?CheckIDs@ESpawnBoneEffect@@UAEHXZ 
?CheckIDs@ESpawnBoneEffectModel@@UAEHXZ 
?CheckIDs@ESpawnBurning@@UAEHXZ 
?CheckIDs@ESpawnCPEffect@@UAEHXZ 
?CheckIDs@ESpawnChristmasBox@@UAEHXZ 
?CheckIDs@ESpawnCocoon@@UAEHXZ 
?CheckIDs@ESpawnDebris@@UAEHXZ 
?CheckIDs@ESpawnDebrisSka@@UAEHXZ 
?CheckIDs@ESpawnDropBoxItem@@UAEHXZ 
?CheckIDs@ESpawnEffect@@UAEHXZ 
?CheckIDs@ESpawnEffector@@UAEHXZ 
?CheckIDs@ESpawnEventItem@@UAEHXZ 
?CheckIDs@ESpawnFlame@@UAEHXZ 
?CheckIDs@ESpawnFreeze@@UAEHXZ 
?CheckIDs@ESpawnInvincible@@UAEHXZ 
?CheckIDs@ESpawnMessage@@UAEHXZ 
?CheckIDs@ESpawnNpc@@UAEHXZ 
?CheckIDs@ESpawnNpcEffect@@UAEHXZ 
?CheckIDs@ESpawnPassive@@UAEHXZ 
?CheckIDs@ESpawnPoison@@UAEHXZ 
?CheckIDs@ESpawnQstNpc@@UAEHXZ 
?CheckIDs@ESpawnReversal@@UAEHXZ 
?CheckIDs@ESpawnSpray@@UAEHXZ 
?CheckIDs@ESpawnStun@@UAEHXZ 
?CheckIDs@ESpawnTried@@UAEHXZ 
?CheckIDs@ESpawnWeakening@@UAEHXZ 
?CheckIDs@ESpawnerProjectile@@UAEHXZ 
?CheckIDs@ESpecialAttackHit@@UAEHXZ 
?CheckIDs@ESpinnerInit@@UAEHXZ 
?CheckIDs@EStand@@UAEHXZ 
?CheckIDs@EStart@@UAEHXZ 
?CheckIDs@EStartAttack@@UAEHXZ 
?CheckIDs@EStartCounter@@UAEHXZ 
?CheckIDs@EStartDrawImage@@UAEHXZ 
?CheckIDs@EStartRound@@UAEHXZ 
?CheckIDs@EStartSounds@@UAEHXZ 
?CheckIDs@EStop@@UAEHXZ 
?CheckIDs@EStopAttack@@UAEHXZ 
?CheckIDs@EStopBlindness@@UAEHXZ 
?CheckIDs@EStopCounter@@UAEHXZ 
?CheckIDs@EStopDeafness@@UAEHXZ 
?CheckIDs@EStopFlaming@@UAEHXZ 
?CheckIDs@EStopSounds@@UAEHXZ 
?CheckIDs@EStormEnvironmentStart@@UAEHXZ 
?CheckIDs@EStormStart@@UAEHXZ 
?CheckIDs@EStormStop@@UAEHXZ 
?CheckIDs@ESucking@@UAEHXZ 
?CheckIDs@ESummonAttack@@UAEHXZ 
?CheckIDs@ESummonEffect@@UAEHXZ 
?CheckIDs@ESummonEffectOption@@UAEHXZ 
?CheckIDs@ESummonerContinue@@UAEHXZ 
?CheckIDs@ESummonerMaterialize@@UAEHXZ 
?CheckIDs@ESummonerTeleport@@UAEHXZ 
?CheckIDs@ETapMiniMapPickIndex@@UAEHXZ 
?CheckIDs@ETeleportActivate@@UAEHXZ 
?CheckIDs@ETeleportDeactivate@@UAEHXZ 
?CheckIDs@ETeleportMovingBrush@@UAEHXZ 
?CheckIDs@ETextFX@@UAEHXZ 
?CheckIDs@ETouchSendedByRemote@@UAEHXZ 
?CheckIDs@ETreasureItem@@UAEHXZ 
?CheckIDs@ETried@@UAEHXZ 
?CheckIDs@ETrigger@@UAEHXZ 
?CheckIDs@ETriggerEffector@@UAEHXZ 
?CheckIDs@ETriggerLightning@@UAEHXZ 
?CheckIDs@ETwister@@UAEHXZ 
?CheckIDs@EUsePotion@@UAEHXZ 
?CheckIDs@EViewInit@@UAEHXZ 
?CheckIDs@EVoiceMessage@@UAEHXZ 
?CheckIDs@EWatch@@UAEHXZ 
?CheckIDs@EWatcherInit@@UAEHXZ 
?CheckIDs@EWeakening@@UAEHXZ 
?CheckIDs@EWeaponItem@@UAEHXZ 
?CheckIDs@EWeaponsInit@@UAEHXZ 
?CheckIDs@EWeatherStart@@UAEHXZ 
?CheckIDs@EWeatherStop@@UAEHXZ 
?CheckIDs@EWingDestroy@@UAEHXZ 
?CheckIDs@Effect_AdditionCriticalDamage@@UAEHXZ 
?CheckIDs@Effect_AttackSpeed@@UAEHXZ 
?CheckIDs@Effect_DecreasePerCritical@@UAEHXZ 
?CheckIDs@Effect_DiminishRecvDamage@@UAEHXZ 
?CheckIDs@Effect_Heal@@UAEHXZ 
?CheckIDs@Effect_HitCreature@@UAEHXZ 
?CheckIDs@Effect_HitDistance@@UAEHXZ 
?CheckIDs@Effect_HitHold@@UAEHXZ 
?CheckIDs@Effect_HitNormal@@UAEHXZ 
?CheckIDs@Effect_HitSpecial@@UAEHXZ 
?CheckIDs@Effect_Invincible@@UAEHXZ 
?CheckIDs@Effect_MoveSpeed@@UAEHXZ 
?CheckIDs@Effect_RandomEffect@@UAEHXZ 
?CheckIDs@Effect_ReturnDamage@@UAEHXZ 
?CheckIDs@arrtail@@UAEHXZ 
?CheckIDs@eSpikeSet@@UAEHXZ 
?CheckIDs@eSpineInit@@UAEHXZ 
?CheckIDs@eSpineSet@@UAEHXZ 
?CheckIDs@tail@@UAEHXZ 
?CheckIfPlayerVisible@CWatcher@@QAEXXZ 
?CheckInitData@CNpcBase@@UAEHVCNetMessage@@@Z 
?CheckItemError@CConstItemData@@QAE_NABH0ABUS_USER_ITEM_INFO@@@Z 
?CheckKeyCmd@CPlayerAnimatorBase@@QAEXAAHJ@Z 
?CheckLockon@CBattleBowAnimator@@UAEPAVCEntity@@M@Z 
?CheckLockon@CDualistAnimator@@UAEPAVCEntity@@M@Z 
?CheckLockon@CMageAnimator@@UAEPAVCEntity@@M@Z 
?CheckLockon@CPlayerAnimatorBase@@UAEPAVCEntity@@M@Z 
?CheckNpcSpawned@CPlayer@@QAEHXZ 
?CheckSerVantCreature@CNpcBase@@UAEHXZ 
?CheckServantCreature@@YAHGG@Z 
?CheckServantCreature@CServantCreatureListData@@QAE?BHGG@Z 
?CheckTouchForPathFinding@CEnemyBase@@QAEHABVETouch@@@Z 
?CheckValidPriorTarget@CNpcBase@@QAEHXZ 
?CheckValidStream@CBeginnersHelpData@@AAE?B_NXZ 
?CheckValidStream@CLevelScriptor@@QAEHXZ 
?CheckValidStream@CTreeBeginnersHelpData@@AAE?B_NXZ 
?Check_SetItem@CSetItemEffect@@QAE_NQBUS_USER_ITEM_INFO@@@Z 
?Clan_DoRespawn@CPlayer@@QAEXE@Z 
?ClasificationBits_enum@@3VCEntityPropertyEnumType@@A 
?ClasificationBits_values@@3PAVCEntityPropertyEnumValue@@A 
?Clear@CCompMessageID@@QAEXXZ 
?ClearBladeInfo@CPlayerWeaponBase@@QAEXXZ 
?ClearBulletSprayLaunchData@CPlayer@@QAEXXZ 
?ClearGoreSprayLaunchData@CPlayer@@QAEXXZ 
?ClearNpcID@CNpcBase@@QAEXXZ 
?ClearRageEffectData@CPlayer@@QAEXXZ 
?ClearShellLaunchData@CPlayer@@QAEXXZ 
?ClearStageRankRewardText@CPlayer@@QAEXXZ 
?ClearToDefault@@YAXAAVCellPointinfo@@@Z 
?ClearToDefault@@YAXAAVEAbuseEarnPoint@@@Z 
?ClearToDefault@@YAXAAVEActivate@@@Z 
?ClearToDefault@@YAXAAVEActivateBeam@@@Z 
?ClearToDefault@@YAXAAVEActivateBlend@@@Z 
?ClearToDefault@@YAXAAVEActivateSwitchPointer@@@Z 
?ClearToDefault@@YAXAAVEActivatebySync@@@Z 
?ClearToDefault@@YAXAAVEActivityBegin@@@Z 
?ClearToDefault@@YAXAAVEAirElementalContinue@@@Z 
?ClearToDefault@@YAXAAVEAmmoItem@@@Z 
?ClearToDefault@@YAXAAVEAmmoPackItem@@@Z 
?ClearToDefault@@YAXAAVEAnimatorInit@@@Z 
?ClearToDefault@@YAXAAVEApproachEnemy@@@Z 
?ClearToDefault@@YAXAAVEArchitectureDeath2@@@Z 
?ClearToDefault@@YAXAAVEArchitectureDeath@@@Z 
?ClearToDefault@@YAXAAVEArmor@@@Z 
?ClearToDefault@@YAXAAVEAttackFire@@@Z 
?ClearToDefault@@YAXAAVEAttackHit@@@Z 
?ClearToDefault@@YAXAAVEBarrier@@@Z 
?ClearToDefault@@YAXAAVEBatteryBlood@@@Z 
?ClearToDefault@@YAXAAVEBatteryContinue@@@Z 
?ClearToDefault@@YAXAAVEBatteryDamage@@@Z 
?ClearToDefault@@YAXAAVEBatteryExplode@@@Z 
?ClearToDefault@@YAXAAVEBeIdle@@@Z 
?ClearToDefault@@YAXAAVEBead@@@Z 
?ClearToDefault@@YAXAAVEBlackIceWind@@@Z 
?ClearToDefault@@YAXAAVEBless@@@Z 
?ClearToDefault@@YAXAAVEBlowUp@@@Z 
?ClearToDefault@@YAXAAVEBombEffect@@@Z 
?ClearToDefault@@YAXAAVEBonus@@@Z 
?ClearToDefault@@YAXAAVEBossDamage@@@Z 
?ClearToDefault@@YAXAAVEBrushDeath@@@Z 
?ClearToDefault@@YAXAAVEBrushDestroyed@@@Z 
?ClearToDefault@@YAXAAVEBrushDestroyedByDevil@@@Z 
?ClearToDefault@@YAXAAVEBuff@@@Z 
?ClearToDefault@@YAXAAVEBuffAction@@@Z 
?ClearToDefault@@YAXAAVEBuffClear@@@Z 
?ClearToDefault@@YAXAAVEBuffEvent@@@Z 
?ClearToDefault@@YAXAAVEBulletInit@@@Z 
?ClearToDefault@@YAXAAVECameraStart@@@Z 
?ClearToDefault@@YAXAAVECameraStop@@@Z 
?ClearToDefault@@YAXAAVECenterMessage@@@Z 
?ClearToDefault@@YAXAAVEChangeAnim@@@Z 
?ClearToDefault@@YAXAAVEChangeCharaType@@@Z 
?ClearToDefault@@YAXAAVEChangeGravity@@@Z 
?ClearToDefault@@YAXAAVEChangeMode@@@Z 
?ClearToDefault@@YAXAAVEChangeMusic@@@Z 
?ClearToDefault@@YAXAAVEChangeStart@@@Z 
?ClearToDefault@@YAXAAVEChangeState@@@Z 
?ClearToDefault@@YAXAAVEChangeWeapon@@@Z 
?ClearToDefault@@YAXAAVEChaosGuageFull@@@Z 
?ClearToDefault@@YAXAAVEChargeAttack@@@Z 
?ClearToDefault@@YAXAAVEChristmasBoxItemTouch@@@Z 
?ClearToDefault@@YAXAAVEChristmasBoxReceive@@@Z 
?ClearToDefault@@YAXAAVEChristmasDestroy@@@Z 
?ClearToDefault@@YAXAAVEChristmasNoticeMessage@@@Z 
?ClearToDefault@@YAXAAVEChristmasSetting@@@Z 
?ClearToDefault@@YAXAAVECloseAttack@@@Z 
?ClearToDefault@@YAXAAVECloseAttackKing@@@Z 
?ClearToDefault@@YAXAAVECloseQDoor@@@Z 
?ClearToDefault@@YAXAAVECollisionState@@@Z 
?ClearToDefault@@YAXAAVEComputerMessage@@@Z 
?ClearToDefault@@YAXAAVECopierTrigger@@@Z 
?ClearToDefault@@YAXAAVECounterCount@@@Z 
?ClearToDefault@@YAXAAVECredits@@@Z 
?ClearToDefault@@YAXAAVECrush@@@Z 
?ClearToDefault@@YAXAAVECutSceneObj@@@Z 
?ClearToDefault@@YAXAAVEDamageDiminution@@@Z 
?ClearToDefault@@YAXAAVEDamageTypeNet@@@Z 
?ClearToDefault@@YAXAAVEDeBuff@@@Z 
?ClearToDefault@@YAXAAVEDeBuffClear@@@Z 
?ClearToDefault@@YAXAAVEDeactivate@@@Z 
?ClearToDefault@@YAXAAVEDeactivateBlend@@@Z 
?ClearToDefault@@YAXAAVEDeactivateSwitchPointer@@@Z 
?ClearToDefault@@YAXAAVEDestroyEventItem@@@Z 
?ClearToDefault@@YAXAAVEDevilCommand@@@Z 
?ClearToDefault@@YAXAAVEDevilContinue@@@Z 
?ClearToDefault@@YAXAAVEDevilFireElectricity@@@Z 
?ClearToDefault@@YAXAAVEDevilStopElectricity@@@Z 
?ClearToDefault@@YAXAAVEDisappear@@@Z 
?ClearToDefault@@YAXAAVEDisconnected@@@Z 
?ClearToDefault@@YAXAAVEDistanceAttack@@@Z 
?ClearToDefault@@YAXAAVEDropBoxItem@@@Z 
?ClearToDefault@@YAXAAVEDropBoxItemDestroy@@@Z 
?ClearToDefault@@YAXAAVEDropBoxItemTouch@@@Z 
?ClearToDefault@@YAXAAVEDropKamikaze@@@Z 
?ClearToDefault@@YAXAAVEEffectAttack@@@Z 
?ClearToDefault@@YAXAAVEElectricityStart@@@Z 
?ClearToDefault@@YAXAAVEElectricityStop@@@Z 
?ClearToDefault@@YAXAAVEElementalGrow@@@Z 
?ClearToDefault@@YAXAAVEEnd@@@Z 
?ClearToDefault@@YAXAAVEEndRound@@@Z 
?ClearToDefault@@YAXAAVEEnemyBaseDamage@@@Z 
?ClearToDefault@@YAXAAVEEnemyBaseDeath@@@Z 
?ClearToDefault@@YAXAAVEEnvironmentStart@@@Z 
?ClearToDefault@@YAXAAVEEnvironmentStop@@@Z 
?ClearToDefault@@YAXAAVEEventItemSetting@@@Z 
?ClearToDefault@@YAXAAVEExplEffect@@@Z 
?ClearToDefault@@YAXAAVEExplode@@@Z 
?ClearToDefault@@YAXAAVEExplosion@@@Z 
?ClearToDefault@@YAXAAVEFear@@@Z 
?ClearToDefault@@YAXAAVEFearEffect@@@Z 
?ClearToDefault@@YAXAAVEFlame@@@Z 
?ClearToDefault@@YAXAAVEFlipTheSwitch@@@Z 
?ClearToDefault@@YAXAAVEFloatingScore@@@Z 
?ClearToDefault@@YAXAAVEForceExplode@@@Z 
?ClearToDefault@@YAXAAVEForcePathMarker@@@Z 
?ClearToDefault@@YAXAAVEForceWound@@@Z 
?ClearToDefault@@YAXAAVEFreeze@@@Z 
?ClearToDefault@@YAXAAVEGetEventItem@@@Z 
?ClearToDefault@@YAXAAVEGoldGolemRebirth@@@Z 
?ClearToDefault@@YAXAAVEGoldGolemRespawn@@@Z 
?ClearToDefault@@YAXAAVEGoldSword@@@Z 
?ClearToDefault@@YAXAAVEHarbor@@@Z 
?ClearToDefault@@YAXAAVEHealth@@@Z 
?ClearToDefault@@YAXAAVEHeart@@@Z 
?ClearToDefault@@YAXAAVEHit@@@Z 
?ClearToDefault@@YAXAAVEHitBySpaceShipBeam@@@Z 
?ClearToDefault@@YAXAAVEHoldAttack@@@Z 
?ClearToDefault@@YAXAAVEHolyLight@@@Z 
?ClearToDefault@@YAXAAVEHudPicFX@@@Z 
?ClearToDefault@@YAXAAVEIceWind@@@Z 
?ClearToDefault@@YAXAAVEIdle@@@Z 
?ClearToDefault@@YAXAAVEIndicatorCreate@@@Z 
?ClearToDefault@@YAXAAVEInitDualistBomb@@@Z 
?ClearToDefault@@YAXAAVEInitFreeFallModel@@@Z 
?ClearToDefault@@YAXAAVEInitRangeWeapon@@@Z 
?ClearToDefault@@YAXAAVEInvincible@@@Z 
?ClearToDefault@@YAXAAVEKey@@@Z 
?ClearToDefault@@YAXAAVEKillCount@@@Z 
?ClearToDefault@@YAXAAVEKilledEnemy@@@Z 
?ClearToDefault@@YAXAAVELarvaArmDestroyed@@@Z 
?ClearToDefault@@YAXAAVELarvaContinue@@@Z 
?ClearToDefault@@YAXAAVELarvaFireLaser@@@Z 
?ClearToDefault@@YAXAAVELarvaHealth@@@Z 
?ClearToDefault@@YAXAAVELarvaRechargePose@@@Z 
?ClearToDefault@@YAXAAVELaserDestroy@@@Z 
?ClearToDefault@@YAXAAVELaserParam@@@Z 
?ClearToDefault@@YAXAAVELaserReadyDestroy@@@Z 
?ClearToDefault@@YAXAAVELaserReadyParam@@@Z 
?ClearToDefault@@YAXAAVELaunchCannonBall@@@Z 
?ClearToDefault@@YAXAAVELaunchLarvaOffspring@@@Z 
?ClearToDefault@@YAXAAVELaunchProjectile@@@Z 
?ClearToDefault@@YAXAAVELongBow@@@Z 
?ClearToDefault@@YAXAAVEMageBarrier@@@Z 
?ClearToDefault@@YAXAAVEMageBless@@@Z 
?ClearToDefault@@YAXAAVEMageBomb@@@Z 
?ClearToDefault@@YAXAAVEMageDispell@@@Z 
?ClearToDefault@@YAXAAVEMageHold@@@Z 
?ClearToDefault@@YAXAAVEMageMissile@@@Z 
?ClearToDefault@@YAXAAVEMageSpell@@@Z 
?ClearToDefault@@YAXAAVEMagicBomb@@@Z 
?ClearToDefault@@YAXAAVEMagicMissile@@@Z 
?ClearToDefault@@YAXAAVEMapItemBomb@@@Z 
?ClearToDefault@@YAXAAVEMapItemReceive@@@Z 
?ClearToDefault@@YAXAAVEMapItemRespawn@@@Z 
?ClearToDefault@@YAXAAVEMapItemSpawnMapNpc@@@Z 
?ClearToDefault@@YAXAAVEMapItemTouch@@@Z 
?ClearToDefault@@YAXAAVEMarkPicked@@@Z 
?ClearToDefault@@YAXAAVEMasterGolemDamage@@@Z 
?ClearToDefault@@YAXAAVEMasterGolemRespawn@@@Z 
?ClearToDefault@@YAXAAVEMasterNpcRespawn@@@Z 
?ClearToDefault@@YAXAAVEMessageItem@@@Z 
?ClearToDefault@@YAXAAVEModel2Activate@@@Z 
?ClearToDefault@@YAXAAVEModel2Deactivate@@@Z 
?ClearToDefault@@YAXAAVEModel3Activate@@@Z 
?ClearToDefault@@YAXAAVEModel3Deactivate@@@Z 
?ClearToDefault@@YAXAAVEModelDeath@@@Z 
?ClearToDefault@@YAXAAVEModelForSequenceMarker@@@Z 
?ClearToDefault@@YAXAAVEMoveToDestination@@@Z 
?ClearToDefault@@YAXAAVEMovementAnimation@@@Z 
?ClearToDefault@@YAXAAVEMovingBrushDeath@@@Z 
?ClearToDefault@@YAXAAVEMusicChangerTrigger@@@Z 
?ClearToDefault@@YAXAAVENetChangeMusic@@@Z 
?ClearToDefault@@YAXAAVENetSpawnEntity@@@Z 
?ClearToDefault@@YAXAAVENetTrigger@@@Z 
?ClearToDefault@@YAXAAVENetTriggerPSS@@@Z 
?ClearToDefault@@YAXAAVENewGolemKillTypeBuff@@@Z 
?ClearToDefault@@YAXAAVENpcAcdPoison@@@Z 
?ClearToDefault@@YAXAAVENpcBaseDamage@@@Z 
?ClearToDefault@@YAXAAVENpcBaseDeath@@@Z 
?ClearToDefault@@YAXAAVENpcBuff@@@Z 
?ClearToDefault@@YAXAAVENpcCocoon@@@Z 
?ClearToDefault@@YAXAAVENpcDeadToSwitch@@@Z 
?ClearToDefault@@YAXAAVENpcDisappear@@@Z 
?ClearToDefault@@YAXAAVENpcExtraSet@@@Z 
?ClearToDefault@@YAXAAVENpcFear@@@Z 
?ClearToDefault@@YAXAAVENpcFreeze@@@Z 
?ClearToDefault@@YAXAAVENpcHP@@@Z 
?ClearToDefault@@YAXAAVENpcNoticeChangeMovePatrolState@@@Z 
?ClearToDefault@@YAXAAVENpcReconsiderBehavior@@@Z 
?ClearToDefault@@YAXAAVENpcSetDummy@@@Z 
?ClearToDefault@@YAXAAVENpcSetNormal@@@Z 
?ClearToDefault@@YAXAAVENpcStun@@@Z 
?ClearToDefault@@YAXAAVENpcTried@@@Z 
?ClearToDefault@@YAXAAVENpcWatch@@@Z 
?ClearToDefault@@YAXAAVENpcWatcherInit@@@Z 
?ClearToDefault@@YAXAAVENpcWeakening@@@Z 
?ClearToDefault@@YAXAAVEObserver@@@Z 
?ClearToDefault@@YAXAAVEOpenDoor@@@Z 
?ClearToDefault@@YAXAAVEOpenQDoor@@@Z 
?ClearToDefault@@YAXAAVEOverallAttack@@@Z 
?ClearToDefault@@YAXAAVEParticlesActivate@@@Z 
?ClearToDefault@@YAXAAVEParticlesDeactivate@@@Z 
?ClearToDefault@@YAXAAVEPassiveCreate@@@Z 
?ClearToDefault@@YAXAAVEPhaseCheck@@@Z 
?ClearToDefault@@YAXAAVEPhaseState@@@Z 
?ClearToDefault@@YAXAAVEPlayEndMenu@@@Z 
?ClearToDefault@@YAXAAVEPlayIdleMenu@@@Z 
?ClearToDefault@@YAXAAVEPlayReturnMenu@@@Z 
?ClearToDefault@@YAXAAVEPlaySoundOnce@@@Z 
?ClearToDefault@@YAXAAVEPlayStartMenu@@@Z 
?ClearToDefault@@YAXAAVEPlayerAcdPoison@@@Z 
?ClearToDefault@@YAXAAVEPlayerBouncedWall@@@Z 
?ClearToDefault@@YAXAAVEPlayerDamage@@@Z 
?ClearToDefault@@YAXAAVEPlayerDeath@@@Z 
?ClearToDefault@@YAXAAVEPlayerRemainHP@@@Z 
?ClearToDefault@@YAXAAVEPlayerReset_HP_AP@@@Z 
?ClearToDefault@@YAXAAVEPowerUp@@@Z 
?ClearToDefault@@YAXAAVEPrevClearedRank@@@Z 
?ClearToDefault@@YAXAAVEPrizeValue@@@Z 
?ClearToDefault@@YAXAAVEProjectileSpawnClient@@@Z 
?ClearToDefault@@YAXAAVEProjectileSpawnParam@@@Z 
?ClearToDefault@@YAXAAVEPyramidShipActivate@@@Z 
?ClearToDefault@@YAXAAVEPyramidShipDeactivate@@@Z 
?ClearToDefault@@YAXAAVEQMessage@@@Z 
?ClearToDefault@@YAXAAVEQstSWReady@@@Z 
?ClearToDefault@@YAXAAVEQstStatus@@@Z 
?ClearToDefault@@YAXAAVEQstSwOn@@@Z 
?ClearToDefault@@YAXAAVEQstSwRandom@@@Z 
?ClearToDefault@@YAXAAVERangeAttack@@@Z 
?ClearToDefault@@YAXAAVERangeAttackKing@@@Z 
?ClearToDefault@@YAXAAVERangeModelDestruction@@@Z 
?ClearToDefault@@YAXAAVERecallEffect@@@Z 
?ClearToDefault@@YAXAAVEReceiveItem@@@Z 
?ClearToDefault@@YAXAAVEReceiveScore@@@Z 
?ClearToDefault@@YAXAAVEReceiveTotDamage@@@Z 
?ClearToDefault@@YAXAAVEReconsiderBehavior@@@Z 
?ClearToDefault@@YAXAAVERegenerationImpuls@@@Z 
?ClearToDefault@@YAXAAVEReminder@@@Z 
?ClearToDefault@@YAXAAVEReminderInit@@@Z 
?ClearToDefault@@YAXAAVEReportTargetforLeader@@@Z 
?ClearToDefault@@YAXAAVERequestHoldAttack@@@Z 
?ClearToDefault@@YAXAAVERequestJudge@@@Z 
?ClearToDefault@@YAXAAVERespawn@@@Z 
?ClearToDefault@@YAXAAVERestartAttack@@@Z 
?ClearToDefault@@YAXAAVERestartRound@@@Z 
?ClearToDefault@@YAXAAVEReturnToEndPatrol@@@Z 
?ClearToDefault@@YAXAAVEReversal@@@Z 
?ClearToDefault@@YAXAAVESaveGame@@@Z 
?ClearToDefault@@YAXAAVEScorpmanWakeUp@@@Z 
?ClearToDefault@@YAXAAVEScroll@@@Z 
?ClearToDefault@@YAXAAVESecretFound@@@Z 
?ClearToDefault@@YAXAAVESeriousBomb@@@Z 
?ClearToDefault@@YAXAAVESetFlyState@@@Z 
?ClearToDefault@@YAXAAVESetTargetAnim@@@Z 
?ClearToDefault@@YAXAAVESetTargetIndicator@@@Z 
?ClearToDefault@@YAXAAVESetTargetforGroup@@@Z 
?ClearToDefault@@YAXAAVESetType@@@Z 
?ClearToDefault@@YAXAAVESetViewer@@@Z 
?ClearToDefault@@YAXAAVESetWeapon@@@Z 
?ClearToDefault@@YAXAAVEShootShuriken@@@Z 
?ClearToDefault@@YAXAAVEShootWeapon@@@Z 
?ClearToDefault@@YAXAAVEShortAttack@@@Z 
?ClearToDefault@@YAXAAVEShortRangeAttack@@@Z 
?ClearToDefault@@YAXAAVESoulCannon@@@Z 
?ClearToDefault@@YAXAAVESoulCannonDestroy@@@Z 
?ClearToDefault@@YAXAAVESoulShot@@@Z 
?ClearToDefault@@YAXAAVESound@@@Z 
?ClearToDefault@@YAXAAVESpawnBead@@@Z 
?ClearToDefault@@YAXAAVESpawnBillBoardImage@@@Z 
?ClearToDefault@@YAXAAVESpawnBoneEffect@@@Z 
?ClearToDefault@@YAXAAVESpawnBoneEffectModel@@@Z 
?ClearToDefault@@YAXAAVESpawnBurning@@@Z 
?ClearToDefault@@YAXAAVESpawnCPEffect@@@Z 
?ClearToDefault@@YAXAAVESpawnChristmasBox@@@Z 
?ClearToDefault@@YAXAAVESpawnCocoon@@@Z 
?ClearToDefault@@YAXAAVESpawnDebris@@@Z 
?ClearToDefault@@YAXAAVESpawnDebrisSka@@@Z 
?ClearToDefault@@YAXAAVESpawnDropBoxItem@@@Z 
?ClearToDefault@@YAXAAVESpawnEffect@@@Z 
?ClearToDefault@@YAXAAVESpawnEffector@@@Z 
?ClearToDefault@@YAXAAVESpawnEventItem@@@Z 
?ClearToDefault@@YAXAAVESpawnFlame@@@Z 
?ClearToDefault@@YAXAAVESpawnFreeze@@@Z 
?ClearToDefault@@YAXAAVESpawnInvincible@@@Z 
?ClearToDefault@@YAXAAVESpawnMessage@@@Z 
?ClearToDefault@@YAXAAVESpawnNpc@@@Z 
?ClearToDefault@@YAXAAVESpawnNpcEffect@@@Z 
?ClearToDefault@@YAXAAVESpawnPassive@@@Z 
?ClearToDefault@@YAXAAVESpawnPoison@@@Z 
?ClearToDefault@@YAXAAVESpawnQstNpc@@@Z 
?ClearToDefault@@YAXAAVESpawnReversal@@@Z 
?ClearToDefault@@YAXAAVESpawnSpray@@@Z 
?ClearToDefault@@YAXAAVESpawnStun@@@Z 
?ClearToDefault@@YAXAAVESpawnTried@@@Z 
?ClearToDefault@@YAXAAVESpawnWeakening@@@Z 
?ClearToDefault@@YAXAAVESpawnerProjectile@@@Z 
?ClearToDefault@@YAXAAVESpecialAttackHit@@@Z 
?ClearToDefault@@YAXAAVESpinnerInit@@@Z 
?ClearToDefault@@YAXAAVEStand@@@Z 
?ClearToDefault@@YAXAAVEStart@@@Z 
?ClearToDefault@@YAXAAVEStartAttack@@@Z 
?ClearToDefault@@YAXAAVEStartCounter@@@Z 
?ClearToDefault@@YAXAAVEStartDrawImage@@@Z 
?ClearToDefault@@YAXAAVEStartRound@@@Z 
?ClearToDefault@@YAXAAVEStartSounds@@@Z 
?ClearToDefault@@YAXAAVEStop@@@Z 
?ClearToDefault@@YAXAAVEStopAttack@@@Z 
?ClearToDefault@@YAXAAVEStopBlindness@@@Z 
?ClearToDefault@@YAXAAVEStopCounter@@@Z 
?ClearToDefault@@YAXAAVEStopDeafness@@@Z 
?ClearToDefault@@YAXAAVEStopFlaming@@@Z 
?ClearToDefault@@YAXAAVEStopSounds@@@Z 
?ClearToDefault@@YAXAAVEStormEnvironmentStart@@@Z 
?ClearToDefault@@YAXAAVEStormStart@@@Z 
?ClearToDefault@@YAXAAVEStormStop@@@Z 
?ClearToDefault@@YAXAAVESucking@@@Z 
?ClearToDefault@@YAXAAVESummonAttack@@@Z 
?ClearToDefault@@YAXAAVESummonEffect@@@Z 
?ClearToDefault@@YAXAAVESummonEffectOption@@@Z 
?ClearToDefault@@YAXAAVESummonerContinue@@@Z 
?ClearToDefault@@YAXAAVESummonerMaterialize@@@Z 
?ClearToDefault@@YAXAAVESummonerTeleport@@@Z 
?ClearToDefault@@YAXAAVETapMiniMapPickIndex@@@Z 
?ClearToDefault@@YAXAAVETeleportActivate@@@Z 
?ClearToDefault@@YAXAAVETeleportDeactivate@@@Z 
?ClearToDefault@@YAXAAVETeleportMovingBrush@@@Z 
?ClearToDefault@@YAXAAVETextFX@@@Z 
?ClearToDefault@@YAXAAVETouchSendedByRemote@@@Z 
?ClearToDefault@@YAXAAVETreasureItem@@@Z 
?ClearToDefault@@YAXAAVETried@@@Z 
?ClearToDefault@@YAXAAVETrigger@@@Z 
?ClearToDefault@@YAXAAVETriggerEffector@@@Z 
?ClearToDefault@@YAXAAVETriggerLightning@@@Z 
?ClearToDefault@@YAXAAVETwister@@@Z 
?ClearToDefault@@YAXAAVEUsePotion@@@Z 
?ClearToDefault@@YAXAAVEViewInit@@@Z 
?ClearToDefault@@YAXAAVEVoiceMessage@@@Z 
?ClearToDefault@@YAXAAVEWatch@@@Z 
?ClearToDefault@@YAXAAVEWatcherInit@@@Z 
?ClearToDefault@@YAXAAVEWeakening@@@Z 
?ClearToDefault@@YAXAAVEWeaponItem@@@Z 
?ClearToDefault@@YAXAAVEWeaponsInit@@@Z 
?ClearToDefault@@YAXAAVEWeatherStart@@@Z 
?ClearToDefault@@YAXAAVEWeatherStop@@@Z 
?ClearToDefault@@YAXAAVEWingDestroy@@@Z 
?ClearToDefault@@YAXAAVEffect_AdditionCriticalDamage@@@Z 
?ClearToDefault@@YAXAAVEffect_AttackSpeed@@@Z 
?ClearToDefault@@YAXAAVEffect_DecreasePerCritical@@@Z 
?ClearToDefault@@YAXAAVEffect_DiminishRecvDamage@@@Z 
?ClearToDefault@@YAXAAVEffect_Heal@@@Z 
?ClearToDefault@@YAXAAVEffect_HitCreature@@@Z 
?ClearToDefault@@YAXAAVEffect_HitDistance@@@Z 
?ClearToDefault@@YAXAAVEffect_HitHold@@@Z 
?ClearToDefault@@YAXAAVEffect_HitNormal@@@Z 
?ClearToDefault@@YAXAAVEffect_HitSpecial@@@Z 
?ClearToDefault@@YAXAAVEffect_Invincible@@@Z 
?ClearToDefault@@YAXAAVEffect_MoveSpeed@@@Z 
?ClearToDefault@@YAXAAVEffect_RandomEffect@@@Z 
?ClearToDefault@@YAXAAVEffect_ReturnDamage@@@Z 
?ClearToDefault@@YAXAAVarrtail@@@Z 
?ClearToDefault@@YAXAAVeSpikeSet@@@Z 
?ClearToDefault@@YAXAAVeSpineInit@@@Z 
?ClearToDefault@@YAXAAVeSpineSet@@@Z 
?ClearToDefault@@YAXAAVtail@@@Z 
?ClearToDefault@@YAXAAW4AmmoItemType@@@Z 
?ClearToDefault@@YAXAAW4AmmoPackType@@@Z 
?ClearToDefault@@YAXAAW4ArmorItemType@@@Z 
?ClearToDefault@@YAXAAW4BasicEffectType@@@Z 
?ClearToDefault@@YAXAAW4BeastType@@@Z 
?ClearToDefault@@YAXAAW4BigHeadType@@@Z 
?ClearToDefault@@YAXAAW4BlendControllerType@@@Z 
?ClearToDefault@@YAXAAW4BlockAction@@@Z 
?ClearToDefault@@YAXAAW4BombState@@@Z 
?ClearToDefault@@YAXAAW4BoolEType@@@Z 
?ClearToDefault@@YAXAAW4BullChar@@@Z 
?ClearToDefault@@YAXAAW4BulletHitType@@@Z 
?ClearToDefault@@YAXAAW4CannonBallType@@@Z 
?ClearToDefault@@YAXAAW4CauseOfDeath@@@Z 
?ClearToDefault@@YAXAAW4ClasificationBits@@@Z 
?ClearToDefault@@YAXAAW4CustomShadingType@@@Z 
?ClearToDefault@@YAXAAW4DebrisParticlesType@@@Z 
?ClearToDefault@@YAXAAW4DebugTargetType@@@Z 
?ClearToDefault@@YAXAAW4DestinationType@@@Z 
?ClearToDefault@@YAXAAW4DestructionDebrisType@@@Z 
?ClearToDefault@@YAXAAW4DevilActionType@@@Z 
?ClearToDefault@@YAXAAW4DevilAttackPower@@@Z 
?ClearToDefault@@YAXAAW4DevilCommandType@@@Z 
?ClearToDefault@@YAXAAW4DevilState@@@Z 
?ClearToDefault@@YAXAAW4DoorType@@@Z 
?ClearToDefault@@YAXAAW4DualistBombState@@@Z 
?ClearToDefault@@YAXAAW4EBoxItemType@@@Z 
?ClearToDefault@@YAXAAW4EBroadcasting_ObserverType@@@Z 
?ClearToDefault@@YAXAAW4EBtnFlag@@@Z 
?ClearToDefault@@YAXAAW4ECharaState@@@Z 
?ClearToDefault@@YAXAAW4ECtrlChkStyle@@@Z 
?ClearToDefault@@YAXAAW4ECtrlChkType@@@Z 
?ClearToDefault@@YAXAAW4EDestinationType@@@Z 
?ClearToDefault@@YAXAAW4EDownState@@@Z 
?ClearToDefault@@YAXAAW4EEBuffSkillType@@@Z 
?ClearToDefault@@YAXAAW4EEffectType@@@Z 
?ClearToDefault@@YAXAAW4EEntityState@@@Z 
?ClearToDefault@@YAXAAW4EFlashEffectType@@@Z 
?ClearToDefault@@YAXAAW4EHoldState@@@Z 
?ClearToDefault@@YAXAAW4EIndicatorType@@@Z 
?ClearToDefault@@YAXAAW4EKillType@@@Z 
?ClearToDefault@@YAXAAW4EMageHoldType@@@Z 
?ClearToDefault@@YAXAAW4EMapItemType@@@Z 
?ClearToDefault@@YAXAAW4ENpcAttackType@@@Z 
?ClearToDefault@@YAXAAW4ENpcAttackWeaponType@@@Z 
?ClearToDefault@@YAXAAW4ENpcClass@@@Z 
?ClearToDefault@@YAXAAW4ENpcExtraStyle@@@Z 
?ClearToDefault@@YAXAAW4ENpcMarkType@@@Z 
?ClearToDefault@@YAXAAW4ENpcProcedures@@@Z 
?ClearToDefault@@YAXAAW4ENpcSkillNum@@@Z 
?ClearToDefault@@YAXAAW4EParticleType@@@Z 
?ClearToDefault@@YAXAAW4EPassiveType@@@Z 
?ClearToDefault@@YAXAAW4EPlayerControlType@@@Z 
?ClearToDefault@@YAXAAW4EPlayerMarkType@@@Z 
?ClearToDefault@@YAXAAW4EPlayerResult@@@Z 
?ClearToDefault@@YAXAAW4EPlayerStatus@@@Z 
?ClearToDefault@@YAXAAW4EPlayerViewType@@@Z 
?ClearToDefault@@YAXAAW4EPopupMsgType@@@Z 
?ClearToDefault@@YAXAAW4EQstSwitchProc@@@Z 
?ClearToDefault@@YAXAAW4EQstSwitchProperty@@@Z 
?ClearToDefault@@YAXAAW4EQstSwitchType@@@Z 
?ClearToDefault@@YAXAAW4EQstTriggerType@@@Z 
?ClearToDefault@@YAXAAW4EQuestGoalType@@@Z 
?ClearToDefault@@YAXAAW4EQuestResultType@@@Z 
?ClearToDefault@@YAXAAW4ERankType@@@Z 
?ClearToDefault@@YAXAAW4EReSpawnType@@@Z 
?ClearToDefault@@YAXAAW4EShootWeaponType@@@Z 
?ClearToDefault@@YAXAAW4ESpellType@@@Z 
?ClearToDefault@@YAXAAW4EWatchEvalType@@@Z 
?ClearToDefault@@YAXAAW4EWeaponType@@@Z 
?ClearToDefault@@YAXAAW4EffectMarkerType@@@Z 
?ClearToDefault@@YAXAAW4EffectParticlesType@@@Z 
?ClearToDefault@@YAXAAW4EffectorEffectType@@@Z 
?ClearToDefault@@YAXAAW4ElementalCharacter@@@Z 
?ClearToDefault@@YAXAAW4ElementalState@@@Z 
?ClearToDefault@@YAXAAW4ElementalType@@@Z 
?ClearToDefault@@YAXAAW4EnemyDiveType@@@Z 
?ClearToDefault@@YAXAAW4EnemyFlyType@@@Z 
?ClearToDefault@@YAXAAW4EnemySpawnerType@@@Z 
?ClearToDefault@@YAXAAW4EntityInfoBodyType@@@Z 
?ClearToDefault@@YAXAAW4EnvironmentParticlesHolderType@@@Z 
?ClearToDefault@@YAXAAW4EventEType@@@Z 
?ClearToDefault@@YAXAAW4EyemanChar@@@Z 
?ClearToDefault@@YAXAAW4EyemanEnv@@@Z 
?ClearToDefault@@YAXAAW4FireType@@@Z 
?ClearToDefault@@YAXAAW4FogAttenuationType@@@Z 
?ClearToDefault@@YAXAAW4FogGraduationType2@@@Z 
?ClearToDefault@@YAXAAW4FreeFallModelState@@@Z 
?ClearToDefault@@YAXAAW4GravityType@@@Z 
?ClearToDefault@@YAXAAW4GruntType@@@Z 
?ClearToDefault@@YAXAAW4HeadmanType@@@Z 
?ClearToDefault@@YAXAAW4HealthItemType@@@Z 
?ClearToDefault@@YAXAAW4KeyItemType@@@Z 
?ClearToDefault@@YAXAAW4LarvaTarget@@@Z 
?ClearToDefault@@YAXAAW4LaserType@@@Z 
?ClearToDefault@@YAXAAW4LensFlareType@@@Z 
?ClearToDefault@@YAXAAW4LightType@@@Z 
?ClearToDefault@@YAXAAW4MenuControllerState@@@Z 
?ClearToDefault@@YAXAAW4MessageSound@@@Z 
?ClearToDefault@@YAXAAW4MessageState@@@Z 
?ClearToDefault@@YAXAAW4ModelForSequenceCommand@@@Z 
?ClearToDefault@@YAXAAW4MusicType@@@Z 
?ClearToDefault@@YAXAAW4NpcBasicEffectType@@@Z 
?ClearToDefault@@YAXAAW4NpcProjectileMovingType@@@Z 
?ClearToDefault@@YAXAAW4NpcProjectileType@@@Z 
?ClearToDefault@@YAXAAW4PLAY_WEAPON_SOUND_TYPE@@@Z 
?ClearToDefault@@YAXAAW4PSSState@@@Z 
?ClearToDefault@@YAXAAW4ParticleTexture@@@Z 
?ClearToDefault@@YAXAAW4ParticlesHolderType@@@Z 
?ClearToDefault@@YAXAAW4PhaseSkillState@@@Z 
?ClearToDefault@@YAXAAW4PlayerActionState@@@Z 
?ClearToDefault@@YAXAAW4PointerType@@@Z 
?ClearToDefault@@YAXAAW4PowerUpItemType@@@Z 
?ClearToDefault@@YAXAAW4ProjectileMovingType@@@Z 
?ClearToDefault@@YAXAAW4ProjectileType@@@Z 
?ClearToDefault@@YAXAAW4ScorpmanType@@@Z 
?ClearToDefault@@YAXAAW4ShadowType@@@Z 
?ClearToDefault@@YAXAAW4SoundType@@@Z 
?ClearToDefault@@YAXAAW4SprayParticlesType@@@Z 
?ClearToDefault@@YAXAAW4SummonEffectType@@@Z 
?ClearToDefault@@YAXAAW4SwitchType@@@Z 
?ClearToDefault@@YAXAAW4TacticType@@@Z 
?ClearToDefault@@YAXAAW4TargetType@@@Z 
?ClearToDefault@@YAXAAW4TextMessageState@@@Z 
?ClearToDefault@@YAXAAW4TouchOrDamageEvent@@@Z 
?ClearToDefault@@YAXAAW4TreasureItemType@@@Z 
?ClearToDefault@@YAXAAW4ViewType@@@Z 
?ClearToDefault@@YAXAAW4VisibilityBits@@@Z 
?ClearToDefault@@YAXAAW4WalkerChar@@@Z 
?ClearToDefault@@YAXAAW4WarpRotation@@@Z 
?ClearToDefault@@YAXAAW4WeaponItemType@@@Z 
?ClearToDefault@@YAXAAW4WeaponState@@@Z 
?ClearToDefault@@YAXAAW4WorldLinkType@@@Z 
?ClearToDefault@@YAXAAW4eNpcHPState@@@Z 
?ClearToDefault@@YAXAAW4eNpc_State@@@Z 
?ClearToDefault@@YAXAAW4ePlayerAction@@@Z 
?ClearToDefault@@YAXAAW4eSpineType@@@Z 
?CloseParticles@@YAXXZ 
?Cocoon@CNpcBase@@QAEXXZ 
?Cocoon@CPlayer@@QAEXVESpawnCocoon@@@Z 
?CollisionDist@CNpcBase@@QAEMPAVCEntity@@@Z 
?CollisionMoveTargetDist@CNpcBase@@QAEMXZ 
?CompareValue@CNpcWatcher@@QAEHMAAMH@Z 
?ComputerPressed@CPlayer@@QAEXXZ 
?ConfirmDamage@CPlayer@@QAEXVEPlayerDamage@@@Z 
?Convert_ItemCharClass_To_ClientCharClass@@YA?AW4ECharacterClass@@E@Z 
?Copy@CEnemyBase@@UAEXAAVCEntity@@K@Z 
?Copy@CNpcBase@@UAEXAAVCEntity@@K@Z 
?Copy@CProjectile@@UAEXAAVCEntity@@K@Z 
?CountAsKill@CEnemyBase@@UAEHXZ 
?CreateAnimAndBoneIDs@CCannonBall@@QAEXXZ 
?CreateAnimAndBoneIDs@CItem@@QAEXXZ 
?CreateAnimAndBoneIDs@CLarvaOffspring@@QAEXXZ 
?CreateBloodSucking@CPlayerWeaponBase@@QAEPAVESucking@@G@Z 
?CreateBloodSuckingSetEffect@CPlayerWeaponBase@@QAEXXZ 
?CreateElemental@CPlayerWeaponBase@@QAEXXZ 
?CreateFreezingSword@CPlayerWeaponBase@@QAEXXZ 
?CreateMachuPicchu@CPlayer@@QAEXXZ 
?CreateNpcWatcher@CNpcBase@@UAEXXZ 
?CreateSucking@CPlayerWeaponBase@@QAEXXZ 
?CreateUniqueEffect@CNpcBase@@UAEXXZ 
?CustomShadingType_enum@@3VCEntityPropertyEnumType@@A 
?CustomShadingType_values@@3PAVCEntityPropertyEnumValue@@A 
?CutDown@CBlackSmithWeapon@@UAEXXZ 
?CutDown@CPlayerWeaponBase@@UAEXXZ 
?CutDownWithWand@CPlayerWeaponBase@@UAEXXZ 
?CutWithBlade@CPlayerWeaponBase@@QAEHV?$Vector@M$02@@0M@Z 
?CyborgBombExplosion@CProjectile@@QAEXXZ 
?CyborgLaser@CProjectile@@QAEXXZ 
?DaggerThrow@CProjectile@@QAEXXZ 
?DamageImpact@CPlayer@@QAEXPBUDamageInfo@@@Z 
?DamageStrength@@YAMW4EntityInfoBodyType@@W4DamageType@@@Z 
?Death@CEnemyBase@@QAEHABVCEntityEvent@@@Z 
?Death@CEnemyFly@@QAEHABVCEntityEvent@@@Z 
?Death@CNpcBase@@QAEHABVCEntityEvent@@@Z 
?Death@CPlayer@@QAEXVEPlayerDeath@@@Z 
?DeathActions@CPlayer@@QAEXABVCPlayerAction@@@Z 
?DeathNotify@CEnemyBase@@UAEXXZ 
?DeathNotify@CNpcBase@@UAEXXZ 
?DeathSequence@CEnemyBase@@QAEHABVCEntityEvent@@@Z 
?DeathSequence@CNpcBase@@QAEHABVCEntityEvent@@@Z 
?DeathSound@CEnemyBase@@UAEXXZ 
?DeathSound@CNpcBase@@UAEXXZ 
?DebrisParticlesType_enum@@3VCEntityPropertyEnumType@@A 
?DebrisParticlesType_values@@3PAVCEntityPropertyEnumValue@@A 
?DebrisSka_Spawn@@YA?AVCEntityPointer@@PAVCEntity@@JMABV?$Vector@M$02@@@Z 
?DebrisSka_Spawn_Independent@@YA?AVCEntityPointer@@PAVCEntity@@JMVCPlacement3D@@V?$Vector@M$02@@2@Z 
?Debris_Begin@@YAXW4EntityInfoBodyType@@W4DebrisParticlesType@@W4BasicEffectType@@MABV?$Vector@M$02@@3MMK@Z 
?Debris_Spawn@@YA?AVCEntityPointer@@PAVCEntity@@0JJJJJJMABV?$Vector@M$02@@@Z 
?Debris_Spawn_Independent@@YA?AVCEntityPointer@@PAVCEntity@@0JJJJJJMVCPlacement3D@@V?$Vector@M$02@@2@Z 
?Debris_Spawn_MH2Template_FromMH2@@YA?AVCEntityPointer@@W4EntityInfoBodyType@@W4DebrisParticlesType@@W4BasicEffectType@@PAVCModelHolder2@@PAVCEntity@@3V?$Vector@M$02@@MVCPlacement3D@@55HMK@Z 
?Debris_Spawn_MH2Template_FromMH3@@YA?AVCEntityPointer@@W4EntityInfoBodyType@@W4DebrisParticlesType@@W4BasicEffectType@@PAVCModelHolder3@@PAVCEntity@@PAVCModelHolder2@@V?$Vector@M$02@@MVCPlacement3D@@66HMK@Z 
?Debris_Spawn_MH3Template_FromMH2@@YA?AVCEntityPointer@@W4EntityInfoBodyType@@W4DebrisParticlesType@@W4BasicEffectType@@PAVCModelHolder2@@PAVCEntity@@PAVCModelHolder3@@V?$Vector@M$02@@MVCPlacement3D@@66HMK@Z 
?Debris_Spawn_MH3Template_FromMH3@@YA?AVCEntityPointer@@W4EntityInfoBodyType@@W4DebrisParticlesType@@W4BasicEffectType@@PAVCModelHolder3@@PAVCEntity@@3V?$Vector@M$02@@MVCPlacement3D@@55HMK@Z 
?DebugTargetType_enum@@3VCEntityPropertyEnumType@@A 
?DebugTargetType_values@@3PAVCEntityPropertyEnumValue@@A 
?DecreaseKillCount@CPlayer@@QAEXXZ 
?Defense@CPlayerWeaponBase@@QAEMXZ 
?DeleteExitPlayerStageEffect@CPlayer@@QAEXE@Z 
?DeleteHolyLight@CPlayer@@QAEXXZ 
?DeleteNotBuyItem@CItemManager@@QAEXG@Z 
?DeleteSetItemBoneEffect@CNpcBase@@QAEXXZ 
?DeleteSetItemBoneEffect@CPlayer@@QAEXXZ 
?DeleteSpecialEffect@CPlayer@@QAEXVCEntityPointer@@K@Z 
?DeleteSpecialEffectAll@CPlayer@@QAEXXZ 
?DemonFireball@CProjectile@@QAEXXZ 
?DemonFireballExplosion@CProjectile@@QAEXXZ 
?DestinationType_enum@@3VCEntityPropertyEnumType@@A 
?DestinationType_values@@3PAVCEntityPropertyEnumValue@@A 
?DestroyBullet@CBullet@@QAEXXZ 
?DestroyParticle@CNpcBase@@UAEXXZ 
?DestroyUniqueEffect@CNpcBase@@UAEXXZ 
?DestroyWatcher@CNpcBase@@QAEXXZ 
?DestructionDebrisType_enum@@3VCEntityPropertyEnumType@@A 
?DestructionDebrisType_values@@3PAVCEntityPropertyEnumValue@@A 
?DevilActionType_enum@@3VCEntityPropertyEnumType@@A 
?DevilActionType_values@@3PAVCEntityPropertyEnumValue@@A 
?DevilAttackPower_enum@@3VCEntityPropertyEnumType@@A 
?DevilAttackPower_values@@3PAVCEntityPropertyEnumValue@@A 
?DevilCommandType_enum@@3VCEntityPropertyEnumType@@A 
?DevilCommandType_values@@3PAVCEntityPropertyEnumValue@@A 
?DevilGuidedProjectile@CProjectile@@QAEXXZ 
?DevilGuidedProjectileExplosion@CProjectile@@QAEXXZ 
?DevilLaser@CProjectile@@QAEXXZ 
?DevilRocket@CProjectile@@QAEXXZ 
?DevilRocketExplosion@CProjectile@@QAEXXZ 
?DevilState_enum@@3VCEntityPropertyEnumType@@A 
?DevilState_values@@3PAVCEntityPropertyEnumValue@@A 
?Die@CEnemyBase@@QAEHABVCEntityEvent@@@Z 
?Die@CNpcBase@@QAEHABVCEntityEvent@@@Z 
?Disappear@CNpcBase@@UAEXXZ 
?DisappearPuppet@CNpcBase@@UAEXXZ 
?Disconnect@CPlayer@@UAEXXZ 
?Dispell@CPlayer@@QAEXVEMageDispell@@@Z 
?DistanceAttack01@CNpcBase@@QAEHABVCEntityEvent@@@Z 
?DistanceAttack02@CNpcBase@@QAEHABVCEntityEvent@@@Z 
?DistanceAttack03@CNpcBase@@QAEHABVCEntityEvent@@@Z 
?DistanceTo@@YAMPAVCEntity@@0@Z 
?DiveFire@CEnemyDive@@QAEHABVCEntityEvent@@@Z 
?DiveHit@CEnemyDive@@QAEHABVCEntityEvent@@@Z 
?DoAnimPacket@CPlayer@@QAEXAAVCNetMessage@@@Z 
?DoEvent@CPlayer@@UAEXAAVCNetMessage@@@Z 
?DoMoving@CNpcBase@@UAEXXZ 
?DoMoving@CPlayer@@UAEXXZ 
?DoMoving@CPlayerView@@UAEXXZ 
?DoPatrolling@CEnemyBase@@QAEHABVCEntityEvent@@@Z 
?DoorType_enum@@3VCEntityPropertyEnumType@@A 
?DoorType_values@@3PAVCEntityPropertyEnumValue@@A 
?DrawHimmelGoldGolemDieMsg@CNpcBase@@QAEXPAVCEntity@@JJ@Z 
?DrawHimmelMasterGolemDieMsg@CNpcBase@@QAEXPAVCEntity@@J@Z 
?DrawHimmelTowerDieMsg@CNpcBase@@QAEXPAVCEntity@@JJ@Z 
?DrawHitElement@CPlayer@@QAEHPAVCDrawPort@@PAVCTextureObject@@AAJJJJJMJJJJMMMMMMM@Z 
?DrawRespawnGuage@CPlayer@@QAEXPAVCDrawPort@@@Z 
?DrawRkTexture@@YAXPAVCDrawPort@@PAVCTextureObject@@JJJJKH@Z 
?DrawTexture@CPlayer@@QAEXPAVCDrawPort@@PAVCTextureObject@@JJJJJJJJKK@Z 
?DropsMarker@CEnemyBase@@UBEHAAVCTFileName@@AAVCTString@@@Z 
?DropsMarker@CNavigationMarker@@UBEHAAVCTFileName@@AAVCTString@@@Z 
?DualistBombState_enum@@3VCEntityPropertyEnumType@@A 
?DualistBombState_values@@3PAVCEntityPropertyEnumValue@@A 
?Dummy@CWatcher@@QAEHABVCEntityEvent@@@Z 
?EBoxItemType_enum@@3VCEntityPropertyEnumType@@A 
?EBoxItemType_values@@3PAVCEntityPropertyEnumValue@@A 
?EBroadcasting_ObserverType_enum@@3VCEntityPropertyEnumType@@A 
?EBroadcasting_ObserverType_values@@3PAVCEntityPropertyEnumValue@@A 
?EBtnFlag_enum@@3VCEntityPropertyEnumType@@A 
?EBtnFlag_values@@3PAVCEntityPropertyEnumValue@@A 
?ECharaState_enum@@3VCEntityPropertyEnumType@@A 
?ECharaState_values@@3PAVCEntityPropertyEnumValue@@A 
?ECtrlChkStyle_enum@@3VCEntityPropertyEnumType@@A 
?ECtrlChkStyle_values@@3PAVCEntityPropertyEnumValue@@A 
?ECtrlChkType_enum@@3VCEntityPropertyEnumType@@A 
?ECtrlChkType_values@@3PAVCEntityPropertyEnumValue@@A 
?EDestinationType_enum@@3VCEntityPropertyEnumType@@A 
?EDestinationType_values@@3PAVCEntityPropertyEnumValue@@A 
?EDownState_enum@@3VCEntityPropertyEnumType@@A 
?EDownState_values@@3PAVCEntityPropertyEnumValue@@A 
?EEBuffSkillType_enum@@3VCEntityPropertyEnumType@@A 
?EEBuffSkillType_values@@3PAVCEntityPropertyEnumValue@@A 
?EEffectType_enum@@3VCEntityPropertyEnumType@@A 
?EEffectType_values@@3PAVCEntityPropertyEnumValue@@A 
?EEntityState_enum@@3VCEntityPropertyEnumType@@A 
?EEntityState_values@@3PAVCEntityPropertyEnumValue@@A 
?EFlashEffectType_enum@@3VCEntityPropertyEnumType@@A 
?EFlashEffectType_values@@3PAVCEntityPropertyEnumValue@@A 
?EHoldState_enum@@3VCEntityPropertyEnumType@@A 
?EHoldState_values@@3PAVCEntityPropertyEnumValue@@A 
?EIndicatorType_enum@@3VCEntityPropertyEnumType@@A 
?EIndicatorType_values@@3PAVCEntityPropertyEnumValue@@A 
?EKillType_enum@@3VCEntityPropertyEnumType@@A 
?EKillType_values@@3PAVCEntityPropertyEnumValue@@A 
?EMageHoldType_enum@@3VCEntityPropertyEnumType@@A 
?EMageHoldType_values@@3PAVCEntityPropertyEnumValue@@A 
?EMapItemType_enum@@3VCEntityPropertyEnumType@@A 
?EMapItemType_values@@3PAVCEntityPropertyEnumValue@@A 
?ENpcAttackType_enum@@3VCEntityPropertyEnumType@@A 
?ENpcAttackType_values@@3PAVCEntityPropertyEnumValue@@A 
?ENpcAttackWeaponType_enum@@3VCEntityPropertyEnumType@@A 
?ENpcAttackWeaponType_values@@3PAVCEntityPropertyEnumValue@@A 
?ENpcClass_enum@@3VCEntityPropertyEnumType@@A 
?ENpcClass_values@@3PAVCEntityPropertyEnumValue@@A 
?ENpcExtraStyle_enum@@3VCEntityPropertyEnumType@@A 
?ENpcExtraStyle_values@@3PAVCEntityPropertyEnumValue@@A 
?ENpcMarkType_enum@@3VCEntityPropertyEnumType@@A 
?ENpcMarkType_values@@3PAVCEntityPropertyEnumValue@@A 
?ENpcProcedures_enum@@3VCEntityPropertyEnumType@@A 
?ENpcProcedures_values@@3PAVCEntityPropertyEnumValue@@A 
?ENpcSkillNum_enum@@3VCEntityPropertyEnumType@@A 
?ENpcSkillNum_values@@3PAVCEntityPropertyEnumValue@@A 
?EParticleType_enum@@3VCEntityPropertyEnumType@@A 
?EParticleType_values@@3PAVCEntityPropertyEnumValue@@A 
?EPassiveType_enum@@3VCEntityPropertyEnumType@@A 
?EPassiveType_values@@3PAVCEntityPropertyEnumValue@@A 
?EPlayerControlType_enum@@3VCEntityPropertyEnumType@@A 
?EPlayerControlType_values@@3PAVCEntityPropertyEnumValue@@A 
?EPlayerMarkType_enum@@3VCEntityPropertyEnumType@@A 
?EPlayerMarkType_values@@3PAVCEntityPropertyEnumValue@@A 
?EPlayerResult_enum@@3VCEntityPropertyEnumType@@A 
?EPlayerResult_values@@3PAVCEntityPropertyEnumValue@@A 
?EPlayerStatus_enum@@3VCEntityPropertyEnumType@@A 
?EPlayerStatus_values@@3PAVCEntityPropertyEnumValue@@A 
?EPlayerViewType_enum@@3VCEntityPropertyEnumType@@A 
?EPlayerViewType_values@@3PAVCEntityPropertyEnumValue@@A 
?EPopupMsgType_enum@@3VCEntityPropertyEnumType@@A 
?EPopupMsgType_values@@3PAVCEntityPropertyEnumValue@@A 
?EQstSwitchProc_enum@@3VCEntityPropertyEnumType@@A 
?EQstSwitchProc_values@@3PAVCEntityPropertyEnumValue@@A 
?EQstSwitchProperty_enum@@3VCEntityPropertyEnumType@@A 
?EQstSwitchProperty_values@@3PAVCEntityPropertyEnumValue@@A 
?EQstSwitchType_enum@@3VCEntityPropertyEnumType@@A 
?EQstSwitchType_values@@3PAVCEntityPropertyEnumValue@@A 
?EQstTriggerType_enum@@3VCEntityPropertyEnumType@@A 
?EQstTriggerType_values@@3PAVCEntityPropertyEnumValue@@A 
?EQuestGoalType_enum@@3VCEntityPropertyEnumType@@A 
?EQuestGoalType_values@@3PAVCEntityPropertyEnumValue@@A 
?EQuestResultType_enum@@3VCEntityPropertyEnumType@@A 
?EQuestResultType_values@@3PAVCEntityPropertyEnumValue@@A 
?ERankType_enum@@3VCEntityPropertyEnumType@@A 
?ERankType_values@@3PAVCEntityPropertyEnumValue@@A 
?EReSpawnType_enum@@3VCEntityPropertyEnumType@@A 
?EReSpawnType_values@@3PAVCEntityPropertyEnumValue@@A 
?EShootWeaponType_enum@@3VCEntityPropertyEnumType@@A 
?EShootWeaponType_values@@3PAVCEntityPropertyEnumValue@@A 
?ESpellType_enum@@3VCEntityPropertyEnumType@@A 
?ESpellType_values@@3PAVCEntityPropertyEnumValue@@A 
?EWatchEvalType_enum@@3VCEntityPropertyEnumType@@A 
?EWatchEvalType_values@@3PAVCEntityPropertyEnumValue@@A 
?EWeaponType_enum@@3VCEntityPropertyEnumType@@A 
?EWeaponType_values@@3PAVCEntityPropertyEnumValue@@A 
?EffectAttack01@CNpcBase@@QAEHABVCEntityEvent@@@Z 
?EffectAttack02@CNpcBase@@QAEHABVCEntityEvent@@@Z 
?EffectAttack03@CNpcBase@@QAEHABVCEntityEvent@@@Z 
?EffectLoop@CParticleEmitter@@QAEHABVCEntityEvent@@@Z 
?EffectMarkerType_enum@@3VCEntityPropertyEnumType@@A 
?EffectMarkerType_values@@3PAVCEntityPropertyEnumValue@@A 
?EffectMaulCutDown@CBlackSmithWeapon@@UAEXV?$Vector@M$02@@M@Z 
?EffectMaulCutDown@CNpcBase@@UAEXV?$Vector@M$02@@M@Z 
?EffectMaulCutDown@CPlayerWeaponBase@@UAEXV?$Vector@M$02@@M@Z 
?EffectParticlesType_enum@@3VCEntityPropertyEnumType@@A 
?EffectParticlesType_values@@3PAVCEntityPropertyEnumValue@@A 
?EffectorEffectType_enum@@3VCEntityPropertyEnumType@@A 
?EffectorEffectType_values@@3PAVCEntityPropertyEnumValue@@A 
?ElementalCharacter_enum@@3VCEntityPropertyEnumType@@A 
?ElementalCharacter_values@@3PAVCEntityPropertyEnumValue@@A 
?ElementalRock@CProjectile@@QAEXJJ@Z 
?ElementalState_enum@@3VCEntityPropertyEnumType@@A 
?ElementalState_values@@3PAVCEntityPropertyEnumValue@@A 
?ElementalType_enum@@3VCEntityPropertyEnumType@@A 
?ElementalType_values@@3PAVCEntityPropertyEnumValue@@A 
?EmitBlood@CNpcBase@@UAEXABV?$Vector@M$02@@0@Z 
?EmitBlood@CPlayer@@QAEXABV?$Vector@M$02@@0@Z 
?EmitCPMessage@CPlayer@@QAEXV?$Vector@M$02@@J@Z 
?EmitChi@CPlayer@@QAEXXZ 
?EmitGuardSparks@CPlayer@@QAEXV?$Vector@M$02@@0@Z 
?EmitHitEffect@CNpcBase@@QAEXV?$Vector@M$02@@@Z 
?EmitHitEffect@CPlayer@@QAEXV?$Vector@M$02@@@Z 
?EmitSpark@CPlayer@@QAEXXZ 
?EmitThunder@CPlayer@@QAEXXZ 
?EnchantFlash@CPlayer@@QAEXW4ECharInv_ItemClass@@VCTString@@@Z 
?EndAllStateEffact@CNpcBase@@QAEXXZ 
?EndAllStateEffact@CPlayer@@QAEXXZ 
?EndCell@CNpcBase@@UAEXXZ 
?EndGame@CPlayer@@QAEXXZ 
?EndGamePoint@CPlayer@@QAEXXZ 
?EndMapNpcs@CPlayer@@QAEXXZ 
?EndMasterGolems@CPlayer@@QAEXXZ 
?EndRound@CPlayer@@QAEXVEEndRound@@@Z 
?EndRoundPoint@CPlayer@@QAEXW4EVictory@@@Z 
?EndRoundResultMatch@CPlayer@@QAEXVEEndRound@@W4EVictory@@H@Z 
?EndRoundResultProLeague@CPlayer@@QAEXVEEndRound@@W4EVictory@@H@Z 
?EndRoundResultZombieMode@CPlayer@@QAEXVEEndRound@@W4EVictory@@H@Z 
?EndStateEffect@CNpcBase@@QAEXW4EBuffEffectID@@H@Z 
?EndStateEffect@CPlayer@@QAEXW4EBuffEffectID@@H@Z 
?EndTransRootMoving@CNpcBase@@QAEXXZ 
?End_Battle_Boss@CPlayer@@QAEXAAVCTString@@0_NE@Z 
?End_Battle_Golem@CPlayer@@QAEXAAVCTString@@0_NE@Z 
?End_Battle_TeamDeath@CPlayer@@QAEXAAVCTString@@0_NE@Z 
?End_Stage@CPlayer@@QAEXAAVEEndRound@@@Z 
?EnemyDiveType_enum@@3VCEntityPropertyEnumType@@A 
?EnemyDiveType_values@@3PAVCEntityPropertyEnumValue@@A 
?EnemyFlyType_enum@@3VCEntityPropertyEnumType@@A 
?EnemyFlyType_values@@3PAVCEntityPropertyEnumValue@@A 
?EnemyPostInit@CEnemyBase@@UAEXXZ 
?EnemySpawnerType_enum@@3VCEntityPropertyEnumType@@A 
?EnemySpawnerType_values@@3PAVCEntityPropertyEnumValue@@A 
?EntityInfoBodyType_enum@@3VCEntityPropertyEnumType@@A 
?EntityInfoBodyType_values@@3PAVCEntityPropertyEnumValue@@A 
?EntryRegulationInServer@@YAHHG@Z 
?EnvironmentParticlesHolderType_enum@@3VCEntityPropertyEnumType@@A 
?EnvironmentParticlesHolderType_values@@3PAVCEntityPropertyEnumValue@@A 
?EraseFlag@CBeginnersHelpData@@AAE?B_NW4_stat_flag@BeginnersHelp@@@Z 
?EraseFlag@CLevelScriptor@@QAEHW4_stat_flag@@@Z 
?EraseFlag@CTreeBeginnersHelpData@@AAE?B_NW4_stat_flag@TreeBeginnersHelp@@@Z 
?EventEType_enum@@3VCEntityPropertyEnumType@@A 
?EventEType_values@@3PAVCEntityPropertyEnumValue@@A 
?EventMessage@CPlayer@@QAEXXZ 
?EvilEye@CPlayer@@QAEXXZ 
?ExecAttackAnim@CPlayer@@QAEXJ@Z 
?ExecDamageAnim@CPlayer@@QAEXJJH@Z 
?ExecNormalAnim@CPlayer@@QAEXJ@Z 
?ExecuteHoldAttack@CPlayer@@QAEXVEHoldAttack@@@Z 
?Explosion@CCannonBall@@QAEXV?$Vector@M$02@@ABV2@11HHHH@Z 
?ExplosionBlazerPrt@CProjectile@@QAEXK@Z 
?ExplosionHimmelGolemProjectilePrt@CProjectile@@QAEXXZ 
?EyemanChar_enum@@3VCEntityPropertyEnumType@@A 
?EyemanChar_values@@3PAVCEntityPropertyEnumValue@@A 
?EyemanEnv_enum@@3VCEntityPropertyEnumType@@A 
?EyemanEnv_values@@3PAVCEntityPropertyEnumValue@@A 
?FileOpen@CTreeBeginnersHelpData@@QAEXXZ 
?FillAutoAimCoords@CEnemyBase@@UAEXPAV?$Vector@M$02@@PAM@Z 
?FillAutoAimCoords@CLarvaOffspring@@QAEXPAV?$Vector@M$02@@PAM@Z 
?FillAutoAimCoords@CPlayer@@QAEXPAV?$Vector@M$02@@PAM@Z 
?FillAutoAimCoords@CProjectile@@QAEXPAV?$Vector@M$02@@PAM@Z 
?FillDamageInfoParam@CNpcBase@@QAEXAAUDamageParam@@J@Z 
?FillEntityStatistics@CEnemyBase@@UAEHPAUEntityStats@@@Z 
?FillEntityStatistics@CNpcBase@@UAEHPAUEntityStats@@@Z 
?Filter_AbuseStr@CAbuseStr_Filter@@QAE?AVCTString@@V2@@Z 
?FindAttackEnemy@CPlayer@@QAEXXZ 
?FindBone@CNpcBase@@QAEHVCTString@@@Z 
?FindClosestFlyingPlayerInSector@CNpcWatcher@@QAEPAVCNpcBase@@XZ 
?FindClosestInSector_FirstNpc@CNpcWatcher@@QAEPAVCEntity@@H@Z 
?FindClosestOnlyNPCInWorld@CNpcWatcher@@QAEPAVCEntity@@XZ 
?FindClosestPlayer@CWatcher@@QAEPAVCEntity@@XZ 
?FindClosestPlayerInSector@CNpcWatcher@@QAEPAVCEntity@@H@Z 
?FindClosestPlayerInWorld@CNpcWatcher@@QAEPAVCEntity@@XZ 
?FindFloorPosition@CNpcBase@@QAE?AV?$Vector@M$02@@VCEntityPointer@@V2@@Z 
?FindFloorPosition@CPlayer@@QAE?AV?$Vector@M$02@@VCEntityPointer@@V2@@Z 
?FindItem@CLimitedSell@@QAEPAULIMITED_SELL_ITEM_INFO@@G@Z 
?FindLongDistancePlayerInSector@CNpcWatcher@@QAEPAVCEntity@@H@Z 
?FindMovePosition@CNpcBase@@QAEXXZ 
?FindNextPathMarker@CEnemyBase@@UAEXXZ 
?FindNextPathMarker@CNpcBase@@QAEXXZ 
?FindShortDistancePlayerInSector@CNpcWatcher@@QAEPAVCEntity@@H@Z 
?Fire@CEnemyBase@@QAEHABVCEntityEvent@@@Z 
?Fire@CEnemyDive@@QAEHABVCEntityEvent@@@Z 
?Fire@CEnemyFly@@QAEHABVCEntityEvent@@@Z 
?Fire@CEnemyRunInto@@QAEHABVCEntityEvent@@@Z 
?Fire@CNpcBase@@QAEHABVCEntityEvent@@@Z 
?FireOrHit@CEnemyBase@@QAEHABVCEntityEvent@@@Z 
?FireOrHit@CNpcBase@@QAEHABVCEntityEvent@@@Z 
?FireType_enum@@3VCEntityPropertyEnumType@@A 
?FireType_values@@3PAVCEntityPropertyEnumValue@@A 
?FixupCausedToPlayer@@YAPAVCEntity@@PAV1@0H@Z 
?FlashEffect@CPlayer@@QAEXKKW4EFlashEffectType@@@Z 
?FlashEffectStop@CPlayer@@QAEXXZ 
?FlashEffectStopColor@CPlayer@@QAEXK@Z 
?FlashUpdate@CPlayer@@QAEXXZ 
?FlyFire@CEnemyFly@@QAEHABVCEntityEvent@@@Z 
?FlyHit@CEnemyFly@@QAEHABVCEntityEvent@@@Z 
?FogAttenuationType_enum@@3VCEntityPropertyEnumType@@A 
?FogAttenuationType_values@@3PAVCEntityPropertyEnumValue@@A 
?FogGraduationType2_enum@@3VCEntityPropertyEnumType@@A 
?FogGraduationType2_values@@3PAVCEntityPropertyEnumValue@@A 
?ForcesCannonballToExplode@CEnemyBase@@UAEHXZ 
?FreeFallModelState_enum@@3VCEntityPropertyEnumType@@A 
?FreeFallModelState_values@@3PAVCEntityPropertyEnumValue@@A 
?FreeMem@CLevelScriptor@@QAEXXZ 
?FreeWeaponFlame@CPlayer@@QAEXXZ 
?Freeze@CNpcBase@@QAEXXZ 
?Freeze@CPlayer@@QAEXVESpawnFreeze@@@Z 
?FreezeAttack@CPlayerWeaponBase@@QAE_NPAVCEntity@@AAUDamageInfo@@@Z 
?FussAnim@CNpcBase@@UAEXXZ 
?GeStageRewardInfoData@@YAAAVConstStageRewardData@@XZ 
?GetAP@CNpcBase@@UAEMXZ 
?GetAP@CPlayer@@UAEMXZ 
?GetAbuseStr_Count@CAbuseStr_Filter@@QAEGXZ 
?GetAbuseStr_Filter@@YAAAVCAbuseStr_Filter@@XZ 
?GetAchievementMainInfo@CConstAchievementData@@QAEPAUMainAchievementInfo@@G@Z 
?GetAchievementMainInfoData@CConstAchievementData@@QAEPAV?$map@GUMainAchievementInfo@@U?$less@G@std@@V?$allocator@U?$pair@$$CBGUMainAchievementInfo@@@std@@@3@@std@@XZ 
?GetAchievementSetupData@@YAAAVCConstAchievementData@@XZ 
?GetAchievementSubInfo@CConstAchievementData@@QAEPAUSubAchievementInfo@@G@Z 
?GetAchievementSubInfoData@CConstAchievementData@@QAEPAV?$map@GUSubAchievementInfo@@U?$less@G@std@@V?$allocator@U?$pair@$$CBGUSubAchievementInfo@@@std@@@3@@std@@XZ 
?GetAchievementTitleInfo@CConstAchievementData@@QAEPAUAchievementTitleEffectInfo@@G@Z 
?GetAchievementType@CConstAchievementData@@QAE?AW4EAchievementType@@G@Z 
?GetAchievementTypeCount@CConstAchievementData@@QAEHW4EAchievementType@@@Z 
?GetActive@CParticleEmitter@@QAEHXZ 
?GetAdjustBoneAngle@CPlayer@@QAEXAAV?$Vector@M$02@@0M@Z 
?GetAlphabet@CConstAlphabetData@@QAEPBUsAlphabetInfo@@W4SCEND_MODE@@F@Z 
?GetAlphabetData@@YAAAVCConstAlphabetData@@XZ 
?GetAnimIDFromString@CNpcBase@@QAEJVCTString@@@Z 
?GetAnimIDFromString@CPlayer@@QAEJVCTString@@@Z 
?GetAnimIDFromString_Exact@CPlayer@@QAEJVCTString@@@Z 
?GetAnimLength@CEnemyBase@@QAEMH@Z 
?GetAnimLength@CNpcBase@@QAEMH@Z 
?GetAnimLength@CNpcBase@@QAEMVCTString@@@Z 
?GetAnimLength@CNpcBase@@QAEMXZ 
?GetAnimLength@CPlayerAnimatorBase@@QAEMXZ 
?GetAnimPassedTime@CPlayerAnimatorBase@@QAEMXZ 
?GetAnimPlayingTime@CNpcBase@@QAEMJ@Z 
?GetAnimStringFromID@CNpcBase@@QAE?AVCTString@@J@Z 
?GetAnimator@CPlayerWeaponBase@@QAEPAVCPlayerAnimatorBase@@XZ 
?GetArmorAttachName@CPlayer@@QAE?AVCTString@@J@Z 
?GetArmorFileName@CPlayer@@QAE?AVCTFileName@@J@Z 
?GetArmorFileName@CPlayer@@QAE?AVCTFileName@@VCTString@@@Z 
?GetArmorFlag@CPlayer@@QAEJXZ 
?GetArmorFolderName@CPlayer@@QAE?AVCTString@@J@Z 
?GetArmorID@CPlayer@@QAEJVCTString@@@Z 
?GetArmorIDName@CPlayer@@QAE?AVCTString@@JE@Z 
?GetArmorName@CPlayer@@QAE?AVCTString@@J@Z 
?GetArmorPartName@CPlayer@@QAE?AVCTString@@J@Z 
?GetAttackMoveFrequency@CEnemyBase@@UAEMM@Z 
?GetAttackMoveFrequency@CNpcBase@@UAEMM@Z 
?GetAttackSpeed@CPlayer@@QAE?AV?$xEncryptType@M@@XZ 
?GetAttributeAddValue@CConstAttributeData@@QAE?BGE@Z 
?GetAttributeData@@YAAAVCConstAttributeData@@XZ 
?GetAttributeObjectData@@YAAAVCConstAttributeObjectData@@XZ 
?GetAttributeOpenData@@YAAAVCConstAttributeOpenData@@XZ 
?GetAttributeReinforceData@@YAAAVCConstAttributeReinforceData@@XZ 
?GetAttributeValueOpponent@CConstAttributeData@@QAE?BMEE@Z 
?GetAttributeValueOpponentOriginalValue@CConstAttributeData@@QAE?BGEE@Z 
?GetAvailableBlessIndex@CPlayer@@QAEJXZ 
?GetAverage_PlayerLevel@CNpcBase@@QAEJAAJ0@Z 
?GetBGSoundFileName@CPlayer@@QAE?AVCTFileName@@XZ 
?GetBasicStatus@CNpcBase@@QAEAAUNpcStatusData@@XZ 
?GetBeginnersHelpByName@@YAPBU_s_BeginnersHelp@@ABVCTString@@@Z 
?GetBeginnersHelpByName@CBeginnersHelpData@@QAEPBU_s_BeginnersHelp@@ABVCTString@@@Z 
?GetBetweenAngle_360@@YAMPBVCEntity@@0@Z 
?GetBezierValue@CPlayer@@QAEMMMMM@Z 
?GetBladeColPositionE@CBlackSmithWeapon@@UAE?AV?$Vector@M$02@@XZ 
?GetBladeColPositionE@CDualistWeapon@@UAE?AV?$Vector@M$02@@XZ 
?GetBladeColPositionE@CNinjaWeapon@@UAE?AV?$Vector@M$02@@XZ 
?GetBladeColPositionE@CPlayerWeaponBase@@UAE?AV?$Vector@M$02@@XZ 
?GetBladeColPositionS@CBlackSmithWeapon@@UAE?AV?$Vector@M$02@@XZ 
?GetBladeColPositionS@CDualistWeapon@@UAE?AV?$Vector@M$02@@XZ 
?GetBladeColPositionS@CNinjaWeapon@@UAE?AV?$Vector@M$02@@XZ 
?GetBladeColPositionS@CPlayerWeaponBase@@UAE?AV?$Vector@M$02@@XZ 
?GetBladeTextureID@CPlayer@@QAEJXZ 
?GetBladeTrail2@CPlayer@@QAEPAVCBladeTrail@@J@Z 
?GetBladeTrail@CNpcBase@@QAEAAVCBladeTrail@@XZ 
?GetBladeTrail@CPlayer@@QAEPAVCBladeTrail@@J@Z 
?GetBodyVectorInAbsSpace@CNpcBase@@QAEXPAVCEntity@@AAV?$Vector@M$02@@@Z 
?GetBoneID@CNpcBase@@QAEJVCTString@@@Z 
?GetBoneID@CPlayer@@QAEJPAVCModelInstance@@VCTString@@@Z 
?GetBoneID@CPlayer@@QAEJVCTString@@@Z 
?GetBoneID@CPlayerAnimatorBase@@QAEJVCTString@@@Z 
?GetBoneID@CPlayerView@@QAEJPAVCModelInstance@@VCTString@@@Z 
?GetBoneMatrix@CPlayer@@QAEHVCTString@@AAY0M@M@Z 
?GetBonePositionAbs@CNpcBase@@QAE?AV?$Vector@M$02@@J@Z 
?GetBonePositionAbs@CNpcBase@@QAE?AV?$Vector@M$02@@VCTString@@@Z 
?GetBonePositionAbs@CPlayer@@QAE?AV?$Vector@M$02@@J@Z 
?GetBonePositionAbs@CPlayer@@QAE?AV?$Vector@M$02@@PAVCModelInstance@@VCTString@@@Z 
?GetBonePositionAbs@CPlayer@@QAE?AV?$Vector@M$02@@VCTString@@@Z 
?GetBonePositionAbs@CPlayerWeaponBase@@QAE?AV?$Vector@M$02@@VCTString@@@Z 
?GetBonePositionAbs@CProjectile@@QAE?AV?$Vector@M$02@@VCTString@@@Z 
?GetBonePositionRel@CNpcBase@@QAE?AV?$Vector@M$02@@VCTString@@@Z 
?GetBonePositionRel@CPlayer@@QAE?AV?$Vector@M$02@@PAVCModelInstance@@VCTString@@@Z 
?GetBonePositionRel@CPlayer@@QAE?AV?$Vector@M$02@@VCTString@@@Z 
?GetBonePositionRel@CProjectile@@QAE?AV?$Vector@M$02@@VCTString@@@Z 
?GetBonePositionsAbs@CPlayer@@QAE?AV?$Vector@M$02@@PAVCModelInstance@@J@Z 
?GetBoneRot@CNpcBase@@QAE?AV?$Vector@M$02@@J@Z 
?GetBoneRot@CNpcBase@@QAE?AV?$Vector@M$02@@VCTString@@@Z 
?GetBoneRotForMat@CNpcBase@@QAE?AV?$Matrix@M$02$02@@J@Z 
?GetBoneRotForMat@CNpcBase@@QAE?AV?$Matrix@M$02$02@@VCTString@@@Z 
?GetBoxItemByName@CLevelScriptor@@AAEPAU_s_boxitem@@AAVCTString@@@Z 
?GetBuddyFishingDefense@@YAAAVCBuddyFishingDefense@@XZ 
?GetCDynamicContainer@CTreeBeginnersHelpData@@QAEAAV?$CDynamicContainer@U_s_TreeBeginnersHelp@@@@XZ 
?GetCP@CPlayer@@QAEMXZ 
?GetCastRayHitVector@CNpcBase@@QAE?AV?$Vector@M$02@@AAV2@0M@Z 
?GetCellName@CPlayer@@QAE?AVCTString@@XZ 
?GetCellType@@YA?AW4ECellType@@G@Z 
?GetChangeData@CPlayer@@UAEXAAVCNetMessage@@@Z 
?GetChaosHaloTexName@CPlayer@@QAE?AVCTString@@XZ 
?GetCharClass@CPlayer@@QAEEXZ 
?GetCharaData@CPlayer@@QAE?AUCharaData@@XZ 
?GetCharaType@CPlayer@@QAEKXZ 
?GetCharaTypeName@CPlayer@@QAE?AVCTString@@XZ 
?GetClanEmblemBGInfo@CConstClanEmblemData@@QAE?AV?$map@IUstClanEmblemIMGInfo@@U?$less@I@std@@V?$allocator@U?$pair@$$CBIUstClanEmblemIMGInfo@@@std@@@3@@std@@XZ 
?GetClanEmblemImgData@@YAAAVCConstClanEmblemData@@XZ 
?GetClanEmblemPatternInfo@CConstClanEmblemData@@QAE?AV?$map@IUstClanEmblemIMGInfo@@U?$less@I@std@@V?$allocator@U?$pair@$$CBIUstClanEmblemIMGInfo@@@std@@@3@@std@@XZ 
?GetClanEmblemRareSingleInfo@CConstClanEmblemData@@QAE?AV?$map@IUstClanEmblemIMGInfo@@U?$less@I@std@@V?$allocator@U?$pair@$$CBIUstClanEmblemIMGInfo@@@std@@@3@@std@@XZ 
?GetClanEmblemRibbonInfo@CConstClanEmblemData@@QAE?AV?$map@IUstClanEmblemIMGInfo@@U?$less@I@std@@V?$allocator@U?$pair@$$CBIUstClanEmblemIMGInfo@@@std@@@3@@std@@XZ 
?GetClassUpStage@@YAPAU_s_stage@@E@Z 
?GetCollisionBoxID@CProjectile@@QAEJVCTString@@@Z 
?GetCollisionIDFromString@CNpcBase@@QAEJVCTString@@@Z 
?GetCollisionYLength@CNpcBase@@QAEMXZ 
?GetCollisionZLength@CNpcBase@@QAEMXZ 
?GetComputerMessageName@CEnemyBase@@UBEABVCTFileName@@XZ 
?GetComputerMessageName@CNpcBase@@UBEABVCTFileName@@XZ 
?GetCreateInfo@CNpcBase@@UAEXAAVCNetMessage@@@Z 
?GetCreaturBookCollectionData@@YAAAVCConstCreatureBookCollectionData@@XZ 
?GetCreatureAttributeObject@CConstAttributeObjectData@@QAE_NKAAV?$vector@UAttributeCreatureObjectInfo@@V?$allocator@UAttributeCreatureObjectInfo@@@std@@@std@@@Z 
?GetCreatureAttributeObjectPath@CConstAttributeObjectData@@QAEPBDE@Z 
?GetCreatureAttributeObjectTextureName@CConstAttributeObjectData@@QAEPBDE@Z 
?GetCreatureBookCollection@CConstCreatureBookCollectionData@@QAEABV?$vector@UCreatureBookCollection@@V?$allocator@UCreatureBookCollection@@@std@@@std@@XZ 
?GetCreatureBookInfo@CConstCreatureBookData@@QAEPBUsCreatureBookInfo@@E@Z 
?GetCreatureBookSetupData@@YAAAVCConstCreatureBookData@@XZ 
?GetCreatureData@CConstPreloadCreatureData@@QAEPAUPreloadCreatureDataFilePath@@K@Z 
?GetCreatureStr@@YA?AVCTString@@K@Z 
?GetCreatureSynthesisData@@YAAAVCConstCreatureSynthesisData@@XZ 
?GetCrushHealth@CEnemyBase@@UAEMXZ 
?GetCurrentAnimID@CNpcBase@@QAEJXZ 
?GetCurrentAnimID@CPlayerAnimatorBase@@QAEJXZ 
?GetCurrentAnimName@CNpcBase@@QAE?AVCTString@@XZ 
?GetCurrentAnimName@CPlayerAnimatorBase@@QAE?AVCTString@@XZ 
?GetCurrentPatrolMovePathDist@CNpcBase@@QAEMXZ 
?GetCutsceneObjByName@CLevelScriptor@@AAEPAU_s_cutsceneObjSpawn@@AAVCTString@@@Z 
?GetDF@CPlayer@@QAEPAVCTString@@XZ 
?GetDamageAnimName@CPlayer@@QAE?AVCTString@@JJH@Z 
?GetDamageAnimName_STRUCK@CPlayer@@QAE?AVCTString@@JJH@Z 
?GetDamageDirection@CPlayer@@QAE?AV?$Vector@M$02@@XZ 
?GetDamageInfoParam@CNpcBase@@QAEXAAUDamageParam@@J@Z 
?GetDamageMotionType@CPlayerWeaponBase@@QAE?AW4DamageMotionType@@J@Z 
?GetDamageSoundName@CPlayer@@QAE?AVCTFileName@@J@Z 
?GetDamageType@CPlayerWeaponBase@@QAE?AW4DamageType@@J@Z 
?GetDamageType_RANGE@CBattleBowWeapon@@UAE?AW4DamageType@@J@Z 
?GetDamageType_RANGE@CPlayerWeaponBase@@UAE?AW4DamageType@@J@Z 
?GetDescription@CEnemyBase@@UBEABVCTString@@XZ 
?GetDescription@CItem@@UBEABVCTString@@XZ 
?GetDescription@CNavigationMarker@@UBEABVCTString@@XZ 
?GetDescription@CNpcBase@@UBEABVCTString@@XZ 
?GetDescription@CParticleEmitter@@UBEABVCTString@@XZ 
?GetDesiredRotaionSpeedForEnemy@CNpcBase@@UAEMM@Z 
?GetDesiredRotationAngle@CPlayer@@QAEMV?$Vector@M$02@@M@Z 
?GetDesiredRotationAngle_FromView@CPlayer@@QAEMV?$Vector@M$02@@@Z 
?GetDesiredRotationAngle_FromView@CPlayer@@QAEMV?$Vector@M$02@@M@Z 
?GetDiscountItemData@@YAAAVConstSpecialDiscountEventData@@XZ 
?GetDiscountRate@CSaleEvent@@QBEEXZ 
?GetDistanceFromViewer@CNpcBase@@QAEMPAVCEntity@@@Z 
?GetDistanceFromViewer@CPlayer@@QAEMPAVCEntity@@@Z 
?GetDmgParamForSkill@CNpcBase@@QAEAAUDamageParam@@J@Z 
?GetEndTime@CLimitedSell@@QAEABKXZ 
?GetEnemyInHoldRange@CNpcBase@@QAEPAVCPlayer@@MM@Z 
?GetEnemyInHoldRange@CPlayer@@QAEPAV1@MM@Z 
?GetEnemyPosition@CNpcBase@@UAE?AV?$Vector@M$02@@XZ 
?GetEntity@CPlayer@@QAEPAVCEntity@@W4EEntityClassType@@EE@Z 
?GetEntityInfo@CLarvaOffspring@@UAEPAXXZ 
?GetEntityInfo@CNavigationMarker@@UAEPAXXZ 
?GetEntityInfo@CNpcBase@@UAEPAXXZ 
?GetEntityInfo@CPlayer@@UAEPAXXZ 
?GetEntityInfo@CProjectile@@UAEPAXXZ 
?GetEntityInfoPosition@@YAXPAVCEntity@@PAMAAV?$Vector@M$02@@@Z 
?GetEntityPropertyValue@CNpcWatcher@@QAEMPAVCNpcBase@@PAVCEntity@@@Z 
?GetEquipmentSetEffectBySubType@CConstSetEffectEquipmentData@@QAEAAUSetEffectEquipmentInfo@@E@Z 
?GetEquipmentSetEffectTypeBySetCount@CConstSetEffectEquipmentData@@QAEEEE@Z 
?GetEquipmentSetEffectValueBySetCount@CConstSetEffectEquipmentData@@QAEMEE@Z 
?GetEventKillCountData@CConstEventKillCountData@@QAE?AV?$map@KUEventKillCountInfo@@U?$less@K@std@@V?$allocator@U?$pair@$$CBKUEventKillCountInfo@@@std@@@3@@std@@XZ 
?GetEventKillCountSetupData@@YAAAVCConstEventKillCountData@@XZ 
?GetEventNoticeImgData@@YAAAVConstEventNoticeData@@XZ 
?GetEventNoticeImgTotNum@ConstEventNoticeData@@QAEHXZ 
?GetEyeVectorInAbsSpace@CNpcBase@@QAEXPAVCEntity@@AAV?$Vector@M$02@@@Z 
?GetFactor@CPlayer@@QAEMMMM@Z 
?GetFieldCharInfo@CPlayer@@QAEPAU_CharacterInfoInField@@XZ 
?GetFieldInfo@CNpcBase@@QAEAAVFieldInfo@@XZ 
?GetFieldInfo@CPlayer@@QBEPAVFieldInfo@@XZ 
?GetFileName_CloseWeapon_Case@CPlayer@@QAE?AVCTFileName@@XZ 
?GetFileName_L_Weapon@CPlayer@@QAE?AVCTFileName@@XZ 
?GetFileName_RangeWeapon@CPlayerAnimatorBase@@QAE?AVCTFileName@@XZ 
?GetFileName_RangeWeapon_Case@CPlayer@@QAE?AVCTFileName@@XZ 
?GetFileName_Weapon01@CPlayerAnimatorBase@@QAE?AVCTFileName@@V2@@Z 
?GetFileName_Weapon01@CPlayerAnimatorBase@@QAE?AVCTFileName@@XZ 
?GetFileName_Weapon02@CPlayerAnimatorBase@@QAE?AVCTFileName@@XZ 
?GetFileOpen@CBeginnersHelpData@@QAEPBU_s_BeginnersHelp@@VCTFileName@@@Z 
?GetFlagNo@CPlayer@@QAEEXZ 
?GetFolderName_Weapon01@CPlayerAnimatorBase@@QAE?AVCTFileName@@XZ 
?GetFolderName_Weapon02@CBattleBowAnimator@@UAE?AVCTFileName@@XZ 
?GetFolderName_Weapon02@CBlackSmithAnimator@@UAE?AVCTFileName@@XZ 
?GetFolderName_Weapon02@CDualistAnimator@@UAE?AVCTFileName@@XZ 
?GetFolderName_Weapon02@CMageAnimator@@UAE?AVCTFileName@@XZ 
?GetFolderName_Weapon02@CNinjaAnimator@@UAE?AVCTFileName@@XZ 
?GetFolderName_Weapon02@CPlayerAnimatorBase@@UAE?AVCTFileName@@XZ 
?GetFolderName_Weapon02@CSwordManAnimator@@UAE?AVCTFileName@@XZ 
?GetFramesInCurrentAnim@CNpcBase@@QAEMJ@Z 
?GetFrontDirection@CEnemyBase@@QAE?AV?$Vector@M$02@@PAVCEntity@@@Z 
?GetFrustumAngle@CEnemyBase@@QAEMABV?$Vector@M$02@@@Z 
?GetFrustumAngle@CNpcBase@@QAEMABV?$Vector@M$02@@@Z 
?GetGachaItemData@@YAAAVConstGachaItemData@@XZ 
?GetGachaItemInfo@ConstGachaItemData@@QAEPAUSGachaItemData@@G@Z 
?GetGameDamageMultiplier@@YAMXZ 
?GetGameType@CNpcBase@@QAE?AW4GAMETYPE@@XZ 
?GetGameType@CPlayer@@QBE?AW4GAMETYPE@@XZ 
?GetGravity@CEmiter@@QAE?AV?$Vector@M$02@@PAVCEntity@@@Z 
?GetHP@CNpcBase@@UAEMXZ 
?GetHP@CPlayer@@UAEMXZ 
?GetHairFileName@CPlayer@@QAE?AVCTFileName@@XZ 
?GetHitPower@CPlayer@@QAEMW4EHitType@@@Z 
?GetHitType@CPlayerWeaponBase@@QAE?AW4EHitType@@J@Z 
?GetHorizontalLength@CPlayerAnimatorBase@@QAEMV?$Vector@M$02@@@Z 
?GetIndicatorByName@CLevelScriptor@@AAEPAU_s_indicator@@AAVCTString@@@Z 
?GetInitData@CNpcBase@@UAEXAAVCNetMessage@@@Z 
?GetInitData@CPlayer@@UAEXAAVCNetMessage@@@Z 
?GetInitialValue@CNpcWatcher@@QAEMXZ 
?GetInstance@CItemManager@@SAPAV1@XZ 
?GetItemColor@CPlayer@@QAEKW4ECharInv_ItemClass@@@Z 
?GetItemDyeingColor@CPlayer@@QAEKW4ECharInv_ItemClass@@@Z 
?GetItemInfo@CConstItemData@@QAEPAU_StatusData@@G@Z 
?GetItemSetupData@@YAAAVCConstItemData@@XZ 
?GetJumpVec@CPlayerAnimatorBase@@QAE?AV?$Vector@M$02@@W4EPlayerControlType@@AAV2@@Z 
?GetKeyCmd@CPlayerAnimatorBase@@QAEJXZ 
?GetKeyName@@YAPBDW4KeyItemType@@@Z 
?GetKeycmd@CPlayer@@QAEPAVCKeyCommand@@XZ 
?GetKillCountGrade@CPlayer@@QAEKK@Z 
?GetLanguageStr@@YA?AVCTString@@K@Z 
?GetLerpedPlacement@CParticleEmitter@@UAE?AVCPlacement3D@@XZ 
?GetLerpedPlacement@CPlayerView@@UAE?AVCPlacement3D@@XZ 
?GetLevel@CNpcBase@@QAEJXZ 
?GetLevelIndex@@YAJW4GAMETYPE@@E@Z 
?GetLevelInfo@@YAPAU_s_stage@@W4GAMETYPE@@E@Z 
?GetLevelInfo@@YAPAU_s_stage@@W4GAMETYPE@@J@Z 
?GetLevelInfo@CLevelScriptor@@QAEPAU_s_stage@@XZ 
?GetLevelSetupData@@YAAAVCLevelData@@XZ 
?GetLightSource@CPlayer@@UAEPAVCLightSource@@XZ 
?GetLightSource@CProjectile@@UAEPAVCLightSource@@XZ 
?GetLimitedSellEndTime@CItemManager@@QAEABKXZ 
?GetLimitedSellFindItem@CItemManager@@QAEPAULIMITED_SELL_ITEM_INFO@@G@Z 
?GetLimitedSellPrice@CItemManager@@AAEKG@Z 
?GetLink@CNavigationMarker@@QAEPAV1@J@Z 
?GetLink@CPathNode@@QAEPAV1@J@Z 
?GetLocalPlayer@CPlayer@@QAEPAV1@XZ 
?GetLockRotationSpeed@CEnemyBase@@UAEMXZ 
?GetLockRotationSpeed@CNpcBase@@UAEMXZ 
?GetLoginGaugeRewardState@ConstLoginGaugeRewardData@@QAEPAV?$vector@GV?$allocator@G@std@@@std@@G@Z 
?GetLoginRewardData@@YAAAVConstLoginGaugeRewardData@@XZ 
?GetLookAtAngle@CNpcBase@@QAEXPAVCEntity@@AAV?$Vector@M$02@@@Z 
?GetMacroStr@@YA?AVCTString@@W4STR_MACRO@@@Z 
?GetMap@CConstCreatureBookData@@QAEABV?$map@EUsCreatureBookInfo@@U?$less@E@std@@V?$allocator@U?$pair@$$CBEUsCreatureBookInfo@@@std@@@3@@std@@XZ 
?GetMapCoordinates@CPlayer@@QAEXAAM000@Z 
?GetMarkerByName@CLevelScriptor@@AAEPAU_s_marker@@AAVCTString@@@Z 
?GetMass@CNpcBase@@QAEMXZ 
?GetMaxAP@CPlayer@@UAEMXZ 
?GetMaxAttributeLevel@CConstAttributeData@@QAE?BEXZ 
?GetMaxCP@CPlayer@@QAEMXZ 
?GetMaxHP@CNpcBase@@UAEMXZ 
?GetMaxHP@CPlayer@@UAEMXZ 
?GetMaxPower@CConstAttributeReinforceData@@QAE?BKE@Z 
?GetMinSec_FromSec@@YAXGAAG0@Z 
?GetModeName@CPlayer@@QAE?AVCTString@@XZ 
?GetModelInstanceForRendering@CPlayer@@UAEPAVCModelInstance@@XZ 
?GetModelStretch@CEnemyBase@@QAEAAV?$Vector@M$02@@XZ 
?GetModelStretch@CNpcBase@@QAEAAV?$Vector@M$02@@XZ 
?GetMovePathTarget@CNpcBase@@QAEPAVCEntity@@XZ 
?GetMovePathTargetPosition@CNpcBase@@QAE?AV?$Vector@M$02@@XZ 
?GetMoveSpeed@CPlayer@@QAEMXZ 
?GetNLBezierValue@CPlayer@@QAEMMMMMMMM@Z 
?GetNLLerpValue@CPlayer@@QAEMMMMMMMM@Z 
?GetName@CEnemyBase@@UBEABVCTString@@XZ 
?GetName@CItem@@UBEABVCTString@@XZ 
?GetName@CNavigationMarker@@UBEABVCTString@@XZ 
?GetName@CNpcBase@@UBEABVCTString@@XZ 
?GetName@CParticleEmitter@@UBEABVCTString@@XZ 
?GetName@CPathNode@@QAEABVCTString@@XZ 
?GetNameFilter@@YAAAVCCharName_Filter@@XZ 
?GetNationCodeStr@@YA?AVCTString@@K@Z 
?GetNcpDataByNpcType@CConstNewGolemNpcData@@QAE?AV?$vector@PAUNewGolemCreatureData@@V?$allocator@PAUNewGolemCreatureData@@@std@@@std@@E@Z 
?GetNeedUpgradeStoneCount@CConstAttributeReinforceData@@QAE?BGEE@Z 
?GetNewGolemNpcData@@YAAAVCConstNewGolemNpcData@@XZ 
?GetNewGolemPlayerData@@YAAAVCConstNewGolemPlayerData@@XZ 
?GetNewGolemPlayerData@CConstNewGolemPlayerData@@QAE?AV?$vector@PAUNewGolemPlayerEffectData@@V?$allocator@PAUNewGolemPlayerEffectData@@@std@@@std@@XZ 
?GetNewGolemPlayerDataKillType@CConstNewGolemPlayerData@@QAEPAUNewGolemPlayerEffectData@@W4EPlayerBuffKillType@@@Z 
?GetNextLevel@@YAPAU_s_stage@@W4GAMETYPE@@E@Z 
?GetNextToken@@YA?AVCTString@@AAV1@@Z 
?GetNextTokenFor@@YA?AVCTString@@DAAV1@@Z 
?GetNextTokenForComment@@YA?AVCTString@@AAV1@@Z 
?GetNpcDLLName@CNpcBase@@QAEPADXZ 
?GetNpcData@CConstNewGolemNpcData@@QAE?AV?$vector@PAUNewGolemCreatureData@@V?$allocator@PAUNewGolemCreatureData@@@std@@@std@@XZ 
?GetNpcData@CNpcBase@@QAEAAUNPCData@@XZ 
?GetNpcDataByDataIndex@CConstNewGolemNpcData@@QAEPAUNewGolemCreatureData@@E@Z 
?GetNpcSetupData@@YAAAVCConstNPCData@@XZ 
?GetNpcSpawnByName@CLevelScriptor@@AAEPAU_s_npcspawn@@AAVCTString@@@Z 
?GetNpcWatcher@CNpcBase@@QAEPAVCNpcWatcher@@XZ 
?GetNumber@CConstAlphabetData@@QAEPBUsAlphabetNumberInfo@@W4SCEND_MODE@@F@Z 
?GetObjectToolTipData@CConstObjectToolTip@@QAEAAV?$map@GUObjectToolTipData@@U?$less@G@std@@V?$allocator@U?$pair@$$CBGUObjectToolTipData@@@std@@@3@@std@@XZ 
?GetObjectToolTipSetupData@@YAAAVCConstObjectToolTip@@XZ 
?GetOpenSubSlotCount@CConstAttributeReinforceData@@QAE?BEEE@Z 
?GetOwner@CNpcWatcher@@QAEPAVCNpcBase@@XZ 
?GetOwner@CWatcher@@QAEPAVCEnemyBase@@XZ 
?GetPartsEffect@@YAAAVCPartsEffect@@XZ 
?GetPathNode@CNavigationMarker@@QAEPAVCPathNode@@XZ 
?GetPercent@CPlayer@@QAEKKK@Z 
?GetPercentageReinforce@CConstAttributeReinforceData@@QAE?BMEE@Z 
?GetPkRankStr@CPlayer@@QAEXEPAD@Z 
?GetPlaneFrustumAngle@CEnemyBase@@QAEMABV?$Vector@M$02@@@Z 
?GetPlaneFrustumAngle@CNpcBase@@QAEMABV?$Vector@M$02@@@Z 
?GetPlayer@CPlayerAnimatorBase@@QAEPAVCPlayer@@XZ 
?GetPlayer@CPlayerView@@QAEPAVCPlayer@@XZ 
?GetPlayer@CPlayerWeaponBase@@QAEPAVCPlayer@@XZ 
?GetPlayerActionState@CPlayerAnimatorBase@@QAE?AW4PlayerActionState@@XZ 
?GetPlayerActionType@CPlayerAnimatorBase@@QAE?AW4ePlayerAction@@XZ 
?GetPlayerAnimator@CPlayer@@QAEPAVCPlayerAnimatorBase@@XZ 
?GetPlayerDamageParam@CPlayer@@QAE?AUDamageParam@@JJ@Z 
?GetPlayerEntityByIndex@CPlayer@@QAEPAVCEntity@@E@Z 
?GetPlayerFileName@CPlayer@@QAE?AVCTFileName@@XZ 
?GetPlayerKillDescription@CEnemyBase@@UAE?AVCTString@@ABV2@ABVEDeath@@@Z 
?GetPlayerName@CPlayer@@QAE?AVCTString@@XZ 
?GetPlayerSetupData@@YAAAVCConstPlayerData@@XZ 
?GetPlayerView@CPlayer@@QAEPAVCPlayerView@@XZ 
?GetPlayerViewAngle@CPlayer@@QAE?AV?$Vector@M$02@@XZ 
?GetPlayerViewPosition@CPlayer@@QAE?AV?$Vector@M$02@@XZ 
?GetPlayerWeapons@CPlayer@@QAEPAVCPlayerWeaponBase@@XZ 
?GetPlayerZombieData@CPlayer@@QAE?AUZombieData@@J@Z 
?GetPlrLocationByName@CLevelScriptor@@AAEPAU_s_playerlocation@@AAVCTString@@@Z 
?GetPopMessageBarName@CPlayer@@QAE?AVCTFileName@@E@Z 
?GetPopMessageName@CPlayer@@QAE?AVCTFileName@@E@Z 
?GetPopupmsgByName@CLevelScriptor@@AAEPAU_s_popupmsg@@AAVCTString@@@Z 
?GetPositionCastRay@@YAXPAVCEntity@@0AAV?$Vector@M$02@@1@Z 
?GetPowerInfo@CConstAttributeReinforceData@@QAE?BEEAAUAttributeReinforcePower@@@Z 
?GetPowerPrice@CConstAttributeReinforceData@@QAE?BKE@Z 
?GetPowerValue@CConstAttributeReinforceData@@QAE?BKE@Z 
?GetPreLoadSMCSize@@YAIXZ 
?GetPreLoadSMCStr@@YA?AVCTString@@K@Z 
?GetPreLoadSoundCharacterSize@@YAIXZ 
?GetPreLoadSoundCharacterStr@@YA?AVCTString@@K@Z 
?GetPredictionPair@CLarvaOffspring@@UAEPAVCEntity@@XZ 
?GetPredictionPair@CNpcWatcher@@UAEPAVCEntity@@XZ 
?GetPredictionPair@CPlayerAnimatorBase@@UAEPAVCEntity@@XZ 
?GetPredictionPair@CPlayerView@@UAEPAVCEntity@@XZ 
?GetPredictionPair@CProjectile@@UAEPAVCEntity@@XZ 
?GetPredictionPair@CWatcher@@UAEPAVCEntity@@XZ 
?GetPreloadCreatureDataFilePath@@YAAAVCConstPreloadCreatureData@@XZ 
?GetPreloadGameResourceData@CConstPreloadGameResource@@QAEPAUPreloadResourceFilePath@@XZ 
?GetPreloadGameResourceFilePath@@YAAAVCConstPreloadGameResource@@XZ 
?GetPremiumPackData@CConstPremiumPack@@QAEAAV?$vector@UPremiumPackInfo@@V?$allocator@UPremiumPackInfo@@@std@@@std@@XZ 
?GetPremiumPackDataByIndex@CConstPremiumPack@@QAEHGAAUPremiumPackInfo@@@Z 
?GetPremiumPackDataByItemID@CConstPremiumPack@@QAEHGAAUPremiumPackInfo@@@Z 
?GetPremiumPackSetupData@@YAAAVCConstPremiumPack@@XZ 
?GetPrevLevel@@YAPAU_s_stage@@W4GAMETYPE@@E@Z 
?GetPrice@CItemManager@@QAE?BKKQBU_StatusData@@@Z 
?GetPriceReinforce@CConstAttributeReinforceData@@QAE?BKEE@Z 
?GetPriceType@CConstAttributeReinforceData@@QAE?BEEAAUAttributeReinforcePriceType@@@Z 
?GetProLeagueGradeColor@CPlayer@@QAEKE@Z 
?GetProduceItemData@@YAAAVConstProduceItemData@@XZ 
?GetProduceItemInfoData@ConstProduceItemData@@QAEPAV?$map@GUSCreature_Make_Info@@U?$less@G@std@@V?$allocator@U?$pair@$$CBGUSCreature_Make_Info@@@std@@@3@@std@@XZ 
?GetProduceItemInfoFromID@ConstProduceItemData@@QAEPAUSCreature_Make_Info@@G@Z 
?GetPropA@CEnemyBase@@UAEAAMAAM@Z 
?GetPropA@CEnemyDive@@UAEAAMAAM@Z 
?GetPropA@CEnemyFly@@UAEAAMAAM@Z 
?GetQuestInfo@CConstQuestData@@QAEPBUsQuestInfo@@K@Z 
?GetQuestSetupData@@YAAAVCConstQuestData@@XZ 
?GetRageGaugeData@@YAAAVCConstRageGaugeData@@XZ 
?GetRageGaugeSetupData@CConstRageGaugeData@@QAEAAURageGaugeData@@XZ 
?GetRandom@CPlayer@@QAEKE@Z 
?GetRandom@CPlayerWeaponBase@@QAEKE@Z 
?GetRandomPlayer@CWatcher@@QAEJXZ 
?GetRangeEntities@CNpcBase@@UAEXAAV?$CDynamicContainer@VCEntity@@@@M@Z 
?GetRangeEntities@CPlayer@@QAEXAAV?$CDynamicContainer@VCEntity@@@@M@Z 
?GetRangeEntities@CProjectile@@QAEXAAV?$CDynamicContainer@VCEntity@@@@M@Z 
?GetRayEnd@CBlackSmithWeapon@@UAE?AV?$Vector@M$02@@V2@00M@Z 
?GetRayEnd@CDualistWeapon@@UAE?AV?$Vector@M$02@@V2@00M@Z 
?GetRayEnd@CNinjaWeapon@@UAE?AV?$Vector@M$02@@V2@00M@Z 
?GetRayEnd@CPlayerWeaponBase@@UAE?AV?$Vector@M$02@@V2@00M@Z 
?GetRayEnd@CSwordmanWeapon@@UAE?AV?$Vector@M$02@@V2@00M@Z 
?GetRayStart@CBlackSmithWeapon@@UAE?AV?$Vector@M$02@@V2@00@Z 
?GetRayStart@CPlayerWeaponBase@@UAE?AV?$Vector@M$02@@V2@00@Z 
?GetRayStart@CSwordmanWeapon@@UAE?AV?$Vector@M$02@@V2@00@Z 
?GetReinforceInfo@CConstAttributeReinforceData@@QAE?BEEAAV?$vector@UAttributeReinforceInfo@@V?$allocator@UAttributeReinforceInfo@@@std@@@std@@@Z 
?GetRespawnTime@CPlayer@@QAEMXZ 
?GetRootMarkBG@CConstAlphabetData@@QAEAAVCTString@@XZ 
?GetRootMarkTitle@CConstAlphabetData@@QAEAAVCTString@@XZ 
?GetRotation@CPlayer@@QAEMJ@Z 
?GetRotationDiff@CPlayer@@QAEMJM@Z 
?GetRotationSpeed@CLarvaOffspring@@QAEMMMM@Z 
?GetRotationSpeed@CProjectile@@QAEMMMM@Z 
?GetSP@@YAPBVCSessionProperties@@XZ 
?GetSaleEventPrice@CItemManager@@AAEKKEE@Z 
?GetSalePrice@CItemManager@@QAE?BKKQBU_StatusData@@@Z 
?GetScaleValue@CPlayer@@QAEJMM@Z 
?GetScene@CConstAlphabetData@@QAEPBUsSceneImageInfo@@W4SCEND_MODE@@@Z 
?GetScoreValue@CPlayer@@QAEKW4EPlayerResult@@@Z 
?GetSecondPassedTimeFrom@CNpcBase@@QAEMM@Z 
?GetSelectLevelInfo@@YAPAU_s_stage@@XZ 
?GetSeriousDamageMultiplier@@YAMPAVCEntity@@@Z 
?GetSetEffectEquipmentData@@YAAAVCConstSetEffectEquipmentData@@XZ 
?GetSetItemEffect@@YAAAVCSetItemEffect@@XZ 
?GetShopItemClass@CItemManager@@QAEABW4EShopItemClass@@XZ 
?GetSizeOf@CellPointinfo@@UAEJXZ 
?GetSizeOf@EAbuseEarnPoint@@UAEJXZ 
?GetSizeOf@EActivate@@UAEJXZ 
?GetSizeOf@EActivateBeam@@UAEJXZ 
?GetSizeOf@EActivateBlend@@UAEJXZ 
?GetSizeOf@EActivateSwitchPointer@@UAEJXZ 
?GetSizeOf@EActivatebySync@@UAEJXZ 
?GetSizeOf@EActivityBegin@@UAEJXZ 
?GetSizeOf@EAirElementalContinue@@UAEJXZ 
?GetSizeOf@EAmmoItem@@UAEJXZ 
?GetSizeOf@EAmmoPackItem@@UAEJXZ 
?GetSizeOf@EAnimatorInit@@UAEJXZ 
?GetSizeOf@EApproachEnemy@@UAEJXZ 
?GetSizeOf@EArchitectureDeath2@@UAEJXZ 
?GetSizeOf@EArchitectureDeath@@UAEJXZ 
?GetSizeOf@EArmor@@UAEJXZ 
?GetSizeOf@EAttackFire@@UAEJXZ 
?GetSizeOf@EAttackHit@@UAEJXZ 
?GetSizeOf@EBarrier@@UAEJXZ 
?GetSizeOf@EBatteryBlood@@UAEJXZ 
?GetSizeOf@EBatteryContinue@@UAEJXZ 
?GetSizeOf@EBatteryDamage@@UAEJXZ 
?GetSizeOf@EBatteryExplode@@UAEJXZ 
?GetSizeOf@EBeIdle@@UAEJXZ 
?GetSizeOf@EBead@@UAEJXZ 
?GetSizeOf@EBlackIceWind@@UAEJXZ 
?GetSizeOf@EBless@@UAEJXZ 
?GetSizeOf@EBlowUp@@UAEJXZ 
?GetSizeOf@EBombEffect@@UAEJXZ 
?GetSizeOf@EBonus@@UAEJXZ 
?GetSizeOf@EBossDamage@@UAEJXZ 
?GetSizeOf@EBrushDeath@@UAEJXZ 
?GetSizeOf@EBrushDestroyed@@UAEJXZ 
?GetSizeOf@EBrushDestroyedByDevil@@UAEJXZ 
?GetSizeOf@EBuff@@UAEJXZ 
?GetSizeOf@EBuffAction@@UAEJXZ 
?GetSizeOf@EBuffClear@@UAEJXZ 
?GetSizeOf@EBuffEvent@@UAEJXZ 
?GetSizeOf@EBulletInit@@UAEJXZ 
?GetSizeOf@ECameraStart@@UAEJXZ 
?GetSizeOf@ECameraStop@@UAEJXZ 
?GetSizeOf@ECenterMessage@@UAEJXZ 
?GetSizeOf@EChangeAnim@@UAEJXZ 
?GetSizeOf@EChangeCharaType@@UAEJXZ 
?GetSizeOf@EChangeGravity@@UAEJXZ 
?GetSizeOf@EChangeMode@@UAEJXZ 
?GetSizeOf@EChangeMusic@@UAEJXZ 
?GetSizeOf@EChangeStart@@UAEJXZ 
?GetSizeOf@EChangeState@@UAEJXZ 
?GetSizeOf@EChangeWeapon@@UAEJXZ 
?GetSizeOf@EChaosGuageFull@@UAEJXZ 
?GetSizeOf@EChargeAttack@@UAEJXZ 
?GetSizeOf@EChristmasBoxItemTouch@@UAEJXZ 
?GetSizeOf@EChristmasBoxReceive@@UAEJXZ 
?GetSizeOf@EChristmasDestroy@@UAEJXZ 
?GetSizeOf@EChristmasNoticeMessage@@UAEJXZ 
?GetSizeOf@EChristmasSetting@@UAEJXZ 
?GetSizeOf@ECloseAttack@@UAEJXZ 
?GetSizeOf@ECloseAttackKing@@UAEJXZ 
?GetSizeOf@ECloseQDoor@@UAEJXZ 
?GetSizeOf@ECollisionState@@UAEJXZ 
?GetSizeOf@EComputerMessage@@UAEJXZ 
?GetSizeOf@ECopierTrigger@@UAEJXZ 
?GetSizeOf@ECounterCount@@UAEJXZ 
?GetSizeOf@ECredits@@UAEJXZ 
?GetSizeOf@ECrush@@UAEJXZ 
?GetSizeOf@ECutSceneObj@@UAEJXZ 
?GetSizeOf@EDamageDiminution@@UAEJXZ 
?GetSizeOf@EDamageTypeNet@@UAEJXZ 
?GetSizeOf@EDeBuff@@UAEJXZ 
?GetSizeOf@EDeBuffClear@@UAEJXZ 
?GetSizeOf@EDeactivate@@UAEJXZ 
?GetSizeOf@EDeactivateBlend@@UAEJXZ 
?GetSizeOf@EDeactivateSwitchPointer@@UAEJXZ 
?GetSizeOf@EDestroyEventItem@@UAEJXZ 
?GetSizeOf@EDevilCommand@@UAEJXZ 
?GetSizeOf@EDevilContinue@@UAEJXZ 
?GetSizeOf@EDevilFireElectricity@@UAEJXZ 
?GetSizeOf@EDevilStopElectricity@@UAEJXZ 
?GetSizeOf@EDisappear@@UAEJXZ 
?GetSizeOf@EDisconnected@@UAEJXZ 
?GetSizeOf@EDistanceAttack@@UAEJXZ 
?GetSizeOf@EDropBoxItem@@UAEJXZ 
?GetSizeOf@EDropBoxItemDestroy@@UAEJXZ 
?GetSizeOf@EDropBoxItemTouch@@UAEJXZ 
?GetSizeOf@EDropKamikaze@@UAEJXZ 
?GetSizeOf@EEffectAttack@@UAEJXZ 
?GetSizeOf@EElectricityStart@@UAEJXZ 
?GetSizeOf@EElectricityStop@@UAEJXZ 
?GetSizeOf@EElementalGrow@@UAEJXZ 
?GetSizeOf@EEnd@@UAEJXZ 
?GetSizeOf@EEndRound@@UAEJXZ 
?GetSizeOf@EEnemyBaseDamage@@UAEJXZ 
?GetSizeOf@EEnemyBaseDeath@@UAEJXZ 
?GetSizeOf@EEnvironmentStart@@UAEJXZ 
?GetSizeOf@EEnvironmentStop@@UAEJXZ 
?GetSizeOf@EEventItemSetting@@UAEJXZ 
?GetSizeOf@EExplEffect@@UAEJXZ 
?GetSizeOf@EExplode@@UAEJXZ 
?GetSizeOf@EExplosion@@UAEJXZ 
?GetSizeOf@EFear@@UAEJXZ 
?GetSizeOf@EFearEffect@@UAEJXZ 
?GetSizeOf@EFlame@@UAEJXZ 
?GetSizeOf@EFlipTheSwitch@@UAEJXZ 
?GetSizeOf@EFloatingScore@@UAEJXZ 
?GetSizeOf@EForceExplode@@UAEJXZ 
?GetSizeOf@EForcePathMarker@@UAEJXZ 
?GetSizeOf@EForceWound@@UAEJXZ 
?GetSizeOf@EFreeze@@UAEJXZ 
?GetSizeOf@EGetEventItem@@UAEJXZ 
?GetSizeOf@EGoldGolemRebirth@@UAEJXZ 
?GetSizeOf@EGoldGolemRespawn@@UAEJXZ 
?GetSizeOf@EGoldSword@@UAEJXZ 
?GetSizeOf@EHarbor@@UAEJXZ 
?GetSizeOf@EHealth@@UAEJXZ 
?GetSizeOf@EHeart@@UAEJXZ 
?GetSizeOf@EHit@@UAEJXZ 
?GetSizeOf@EHitBySpaceShipBeam@@UAEJXZ 
?GetSizeOf@EHoldAttack@@UAEJXZ 
?GetSizeOf@EHolyLight@@UAEJXZ 
?GetSizeOf@EHudPicFX@@UAEJXZ 
?GetSizeOf@EIceWind@@UAEJXZ 
?GetSizeOf@EIdle@@UAEJXZ 
?GetSizeOf@EIndicatorCreate@@UAEJXZ 
?GetSizeOf@EInitDualistBomb@@UAEJXZ 
?GetSizeOf@EInitFreeFallModel@@UAEJXZ 
?GetSizeOf@EInitRangeWeapon@@UAEJXZ 
?GetSizeOf@EInvincible@@UAEJXZ 
?GetSizeOf@EKey@@UAEJXZ 
?GetSizeOf@EKillCount@@UAEJXZ 
?GetSizeOf@EKilledEnemy@@UAEJXZ 
?GetSizeOf@ELarvaArmDestroyed@@UAEJXZ 
?GetSizeOf@ELarvaContinue@@UAEJXZ 
?GetSizeOf@ELarvaFireLaser@@UAEJXZ 
?GetSizeOf@ELarvaHealth@@UAEJXZ 
?GetSizeOf@ELarvaRechargePose@@UAEJXZ 
?GetSizeOf@ELaserDestroy@@UAEJXZ 
?GetSizeOf@ELaserParam@@UAEJXZ 
?GetSizeOf@ELaserReadyDestroy@@UAEJXZ 
?GetSizeOf@ELaserReadyParam@@UAEJXZ 
?GetSizeOf@ELaunchCannonBall@@UAEJXZ 
?GetSizeOf@ELaunchLarvaOffspring@@UAEJXZ 
?GetSizeOf@ELaunchProjectile@@UAEJXZ 
?GetSizeOf@ELongBow@@UAEJXZ 
?GetSizeOf@EMageBarrier@@UAEJXZ 
?GetSizeOf@EMageBless@@UAEJXZ 
?GetSizeOf@EMageBomb@@UAEJXZ 
?GetSizeOf@EMageDispell@@UAEJXZ 
?GetSizeOf@EMageHold@@UAEJXZ 
?GetSizeOf@EMageMissile@@UAEJXZ 
?GetSizeOf@EMageSpell@@UAEJXZ 
?GetSizeOf@EMagicBomb@@UAEJXZ 
?GetSizeOf@EMagicMissile@@UAEJXZ 
?GetSizeOf@EMapItemBomb@@UAEJXZ 
?GetSizeOf@EMapItemReceive@@UAEJXZ 
?GetSizeOf@EMapItemRespawn@@UAEJXZ 
?GetSizeOf@EMapItemSpawnMapNpc@@UAEJXZ 
?GetSizeOf@EMapItemTouch@@UAEJXZ 
?GetSizeOf@EMarkPicked@@UAEJXZ 
?GetSizeOf@EMasterGolemDamage@@UAEJXZ 
?GetSizeOf@EMasterGolemRespawn@@UAEJXZ 
?GetSizeOf@EMasterNpcRespawn@@UAEJXZ 
?GetSizeOf@EMessageItem@@UAEJXZ 
?GetSizeOf@EModel2Activate@@UAEJXZ 
?GetSizeOf@EModel2Deactivate@@UAEJXZ 
?GetSizeOf@EModel3Activate@@UAEJXZ 
?GetSizeOf@EModel3Deactivate@@UAEJXZ 
?GetSizeOf@EModelDeath@@UAEJXZ 
?GetSizeOf@EModelForSequenceMarker@@UAEJXZ 
?GetSizeOf@EMoveToDestination@@UAEJXZ 
?GetSizeOf@EMovementAnimation@@UAEJXZ 
?GetSizeOf@EMovingBrushDeath@@UAEJXZ 
?GetSizeOf@EMusicChangerTrigger@@UAEJXZ 
?GetSizeOf@ENetChangeMusic@@UAEJXZ 
?GetSizeOf@ENetSpawnEntity@@UAEJXZ 
?GetSizeOf@ENetTrigger@@UAEJXZ 
?GetSizeOf@ENetTriggerPSS@@UAEJXZ 
?GetSizeOf@ENewGolemKillTypeBuff@@UAEJXZ 
?GetSizeOf@ENpcAcdPoison@@UAEJXZ 
?GetSizeOf@ENpcBaseDamage@@UAEJXZ 
?GetSizeOf@ENpcBaseDeath@@UAEJXZ 
?GetSizeOf@ENpcBuff@@UAEJXZ 
?GetSizeOf@ENpcCocoon@@UAEJXZ 
?GetSizeOf@ENpcDeadToSwitch@@UAEJXZ 
?GetSizeOf@ENpcDisappear@@UAEJXZ 
?GetSizeOf@ENpcExtraSet@@UAEJXZ 
?GetSizeOf@ENpcFear@@UAEJXZ 
?GetSizeOf@ENpcFreeze@@UAEJXZ 
?GetSizeOf@ENpcHP@@UAEJXZ 
?GetSizeOf@ENpcNoticeChangeMovePatrolState@@UAEJXZ 
?GetSizeOf@ENpcReconsiderBehavior@@UAEJXZ 
?GetSizeOf@ENpcSetDummy@@UAEJXZ 
?GetSizeOf@ENpcSetNormal@@UAEJXZ 
?GetSizeOf@ENpcStun@@UAEJXZ 
?GetSizeOf@ENpcTried@@UAEJXZ 
?GetSizeOf@ENpcWatch@@UAEJXZ 
?GetSizeOf@ENpcWatcherInit@@UAEJXZ 
?GetSizeOf@ENpcWeakening@@UAEJXZ 
?GetSizeOf@EObserver@@UAEJXZ 
?GetSizeOf@EOpenDoor@@UAEJXZ 
?GetSizeOf@EOpenQDoor@@UAEJXZ 
?GetSizeOf@EOverallAttack@@UAEJXZ 
?GetSizeOf@EParticlesActivate@@UAEJXZ 
?GetSizeOf@EParticlesDeactivate@@UAEJXZ 
?GetSizeOf@EPassiveCreate@@UAEJXZ 
?GetSizeOf@EPhaseCheck@@UAEJXZ 
?GetSizeOf@EPhaseState@@UAEJXZ 
?GetSizeOf@EPlayEndMenu@@UAEJXZ 
?GetSizeOf@EPlayIdleMenu@@UAEJXZ 
?GetSizeOf@EPlayReturnMenu@@UAEJXZ 
?GetSizeOf@EPlaySoundOnce@@UAEJXZ 
?GetSizeOf@EPlayStartMenu@@UAEJXZ 
?GetSizeOf@EPlayerAcdPoison@@UAEJXZ 
?GetSizeOf@EPlayerBouncedWall@@UAEJXZ 
?GetSizeOf@EPlayerDamage@@UAEJXZ 
?GetSizeOf@EPlayerDeath@@UAEJXZ 
?GetSizeOf@EPlayerRemainHP@@UAEJXZ 
?GetSizeOf@EPlayerReset_HP_AP@@UAEJXZ 
?GetSizeOf@EPowerUp@@UAEJXZ 
?GetSizeOf@EPrevClearedRank@@UAEJXZ 
?GetSizeOf@EPrizeValue@@UAEJXZ 
?GetSizeOf@EProjectileSpawnClient@@UAEJXZ 
?GetSizeOf@EProjectileSpawnParam@@UAEJXZ 
?GetSizeOf@EPyramidShipActivate@@UAEJXZ 
?GetSizeOf@EPyramidShipDeactivate@@UAEJXZ 
?GetSizeOf@EQMessage@@UAEJXZ 
?GetSizeOf@EQstSWReady@@UAEJXZ 
?GetSizeOf@EQstStatus@@UAEJXZ 
?GetSizeOf@EQstSwOn@@UAEJXZ 
?GetSizeOf@EQstSwRandom@@UAEJXZ 
?GetSizeOf@ERangeAttack@@UAEJXZ 
?GetSizeOf@ERangeAttackKing@@UAEJXZ 
?GetSizeOf@ERangeModelDestruction@@UAEJXZ 
?GetSizeOf@ERecallEffect@@UAEJXZ 
?GetSizeOf@EReceiveItem@@UAEJXZ 
?GetSizeOf@EReceiveScore@@UAEJXZ 
?GetSizeOf@EReceiveTotDamage@@UAEJXZ 
?GetSizeOf@EReconsiderBehavior@@UAEJXZ 
?GetSizeOf@ERegenerationImpuls@@UAEJXZ 
?GetSizeOf@EReminder@@UAEJXZ 
?GetSizeOf@EReminderInit@@UAEJXZ 
?GetSizeOf@EReportTargetforLeader@@UAEJXZ 
?GetSizeOf@ERequestHoldAttack@@UAEJXZ 
?GetSizeOf@ERequestJudge@@UAEJXZ 
?GetSizeOf@ERespawn@@UAEJXZ 
?GetSizeOf@ERestartAttack@@UAEJXZ 
?GetSizeOf@ERestartRound@@UAEJXZ 
?GetSizeOf@EReturnToEndPatrol@@UAEJXZ 
?GetSizeOf@EReversal@@UAEJXZ 
?GetSizeOf@ESaveGame@@UAEJXZ 
?GetSizeOf@EScorpmanWakeUp@@UAEJXZ 
?GetSizeOf@EScroll@@UAEJXZ 
?GetSizeOf@ESecretFound@@UAEJXZ 
?GetSizeOf@ESeriousBomb@@UAEJXZ 
?GetSizeOf@ESetFlyState@@UAEJXZ 
?GetSizeOf@ESetTargetAnim@@UAEJXZ 
?GetSizeOf@ESetTargetIndicator@@UAEJXZ 
?GetSizeOf@ESetTargetforGroup@@UAEJXZ 
?GetSizeOf@ESetType@@UAEJXZ 
?GetSizeOf@ESetViewer@@UAEJXZ 
?GetSizeOf@ESetWeapon@@UAEJXZ 
?GetSizeOf@EShootShuriken@@UAEJXZ 
?GetSizeOf@EShootWeapon@@UAEJXZ 
?GetSizeOf@EShortAttack@@UAEJXZ 
?GetSizeOf@EShortRangeAttack@@UAEJXZ 
?GetSizeOf@ESoulCannon@@UAEJXZ 
?GetSizeOf@ESoulCannonDestroy@@UAEJXZ 
?GetSizeOf@ESoulShot@@UAEJXZ 
?GetSizeOf@ESound@@UAEJXZ 
?GetSizeOf@ESpawnBead@@UAEJXZ 
?GetSizeOf@ESpawnBillBoardImage@@UAEJXZ 
?GetSizeOf@ESpawnBoneEffect@@UAEJXZ 
?GetSizeOf@ESpawnBoneEffectModel@@UAEJXZ 
?GetSizeOf@ESpawnBurning@@UAEJXZ 
?GetSizeOf@ESpawnCPEffect@@UAEJXZ 
?GetSizeOf@ESpawnChristmasBox@@UAEJXZ 
?GetSizeOf@ESpawnCocoon@@UAEJXZ 
?GetSizeOf@ESpawnDebris@@UAEJXZ 
?GetSizeOf@ESpawnDebrisSka@@UAEJXZ 
?GetSizeOf@ESpawnDropBoxItem@@UAEJXZ 
?GetSizeOf@ESpawnEffect@@UAEJXZ 
?GetSizeOf@ESpawnEffector@@UAEJXZ 
?GetSizeOf@ESpawnEventItem@@UAEJXZ 
?GetSizeOf@ESpawnFlame@@UAEJXZ 
?GetSizeOf@ESpawnFreeze@@UAEJXZ 
?GetSizeOf@ESpawnInvincible@@UAEJXZ 
?GetSizeOf@ESpawnMessage@@UAEJXZ 
?GetSizeOf@ESpawnNpc@@UAEJXZ 
?GetSizeOf@ESpawnNpcEffect@@UAEJXZ 
?GetSizeOf@ESpawnPassive@@UAEJXZ 
?GetSizeOf@ESpawnPoison@@UAEJXZ 
?GetSizeOf@ESpawnQstNpc@@UAEJXZ 
?GetSizeOf@ESpawnReversal@@UAEJXZ 
?GetSizeOf@ESpawnSpray@@UAEJXZ 
?GetSizeOf@ESpawnStun@@UAEJXZ 
?GetSizeOf@ESpawnTried@@UAEJXZ 
?GetSizeOf@ESpawnWeakening@@UAEJXZ 
?GetSizeOf@ESpawnerProjectile@@UAEJXZ 
?GetSizeOf@ESpecialAttackHit@@UAEJXZ 
?GetSizeOf@ESpinnerInit@@UAEJXZ 
?GetSizeOf@EStand@@UAEJXZ 
?GetSizeOf@EStart@@UAEJXZ 
?GetSizeOf@EStartAttack@@UAEJXZ 
?GetSizeOf@EStartCounter@@UAEJXZ 
?GetSizeOf@EStartDrawImage@@UAEJXZ 
?GetSizeOf@EStartRound@@UAEJXZ 
?GetSizeOf@EStartSounds@@UAEJXZ 
?GetSizeOf@EStop@@UAEJXZ 
?GetSizeOf@EStopAttack@@UAEJXZ 
?GetSizeOf@EStopBlindness@@UAEJXZ 
?GetSizeOf@EStopCounter@@UAEJXZ 
?GetSizeOf@EStopDeafness@@UAEJXZ 
?GetSizeOf@EStopFlaming@@UAEJXZ 
?GetSizeOf@EStopSounds@@UAEJXZ 
?GetSizeOf@EStormEnvironmentStart@@UAEJXZ 
?GetSizeOf@EStormStart@@UAEJXZ 
?GetSizeOf@EStormStop@@UAEJXZ 
?GetSizeOf@ESucking@@UAEJXZ 
?GetSizeOf@ESummonAttack@@UAEJXZ 
?GetSizeOf@ESummonEffect@@UAEJXZ 
?GetSizeOf@ESummonEffectOption@@UAEJXZ 
?GetSizeOf@ESummonerContinue@@UAEJXZ 
?GetSizeOf@ESummonerMaterialize@@UAEJXZ 
?GetSizeOf@ESummonerTeleport@@UAEJXZ 
?GetSizeOf@ETapMiniMapPickIndex@@UAEJXZ 
?GetSizeOf@ETeleportActivate@@UAEJXZ 
?GetSizeOf@ETeleportDeactivate@@UAEJXZ 
?GetSizeOf@ETeleportMovingBrush@@UAEJXZ 
?GetSizeOf@ETextFX@@UAEJXZ 
?GetSizeOf@ETouchSendedByRemote@@UAEJXZ 
?GetSizeOf@ETreasureItem@@UAEJXZ 
?GetSizeOf@ETried@@UAEJXZ 
?GetSizeOf@ETrigger@@UAEJXZ 
?GetSizeOf@ETriggerEffector@@UAEJXZ 
?GetSizeOf@ETriggerLightning@@UAEJXZ 
?GetSizeOf@ETwister@@UAEJXZ 
?GetSizeOf@EUsePotion@@UAEJXZ 
?GetSizeOf@EViewInit@@UAEJXZ 
?GetSizeOf@EVoiceMessage@@UAEJXZ 
?GetSizeOf@EWatch@@UAEJXZ 
?GetSizeOf@EWatcherInit@@UAEJXZ 
?GetSizeOf@EWeakening@@UAEJXZ 
?GetSizeOf@EWeaponItem@@UAEJXZ 
?GetSizeOf@EWeaponsInit@@UAEJXZ 
?GetSizeOf@EWeatherStart@@UAEJXZ 
?GetSizeOf@EWeatherStop@@UAEJXZ 
?GetSizeOf@EWingDestroy@@UAEJXZ 
?GetSizeOf@Effect_AdditionCriticalDamage@@UAEJXZ 
?GetSizeOf@Effect_AttackSpeed@@UAEJXZ 
?GetSizeOf@Effect_DecreasePerCritical@@UAEJXZ 
?GetSizeOf@Effect_DiminishRecvDamage@@UAEJXZ 
?GetSizeOf@Effect_Heal@@UAEJXZ 
?GetSizeOf@Effect_HitCreature@@UAEJXZ 
?GetSizeOf@Effect_HitDistance@@UAEJXZ 
?GetSizeOf@Effect_HitHold@@UAEJXZ 
?GetSizeOf@Effect_HitNormal@@UAEJXZ 
?GetSizeOf@Effect_HitSpecial@@UAEJXZ 
?GetSizeOf@Effect_Invincible@@UAEJXZ 
?GetSizeOf@Effect_MoveSpeed@@UAEJXZ 
?GetSizeOf@Effect_RandomEffect@@UAEJXZ 
?GetSizeOf@Effect_ReturnDamage@@UAEJXZ 
?GetSizeOf@arrtail@@UAEJXZ 
?GetSizeOf@eSpikeSet@@UAEJXZ 
?GetSizeOf@eSpineInit@@UAEJXZ 
?GetSizeOf@eSpineSet@@UAEJXZ 
?GetSizeOf@tail@@UAEJXZ 
?GetSoundFolderName@CPlayerAnimatorBase@@QAE?AVCTString@@XZ 
?GetSoundFolderNameByWeapon@CPlayerAnimatorBase@@QAE?AVCTString@@XZ 
?GetSoundFolderName_Action@CPlayerAnimatorBase@@QAE?AVCTString@@XZ 
?GetSpawnNpcData@CLevelScriptor@@QAEAAV?$CDynamicContainer@U_s_npcspawn@@@@XZ 
?GetSpawnNpcID@CLevelScriptor@@QAEKK@Z 
?GetSpecialDiscountItemInfo@ConstSpecialDiscountEventData@@QAEPAUsSpecialDiscountItemData@@G@Z 
?GetSpectateVec@CPlayer@@QAE?AV?$Vector@M$02@@AAV2@@Z 
?GetStageEffectItemData@@YAAAVCConstStageEffectItem@@XZ 
?GetStageEffectItemData@CConstStageEffectItem@@QAEAAV?$map@GUStageEffectItemData@@U?$less@G@std@@V?$allocator@U?$pair@$$CBGUStageEffectItemData@@@std@@@3@@std@@XZ 
?GetStageEffectItemDataByItemID@CConstStageEffectItem@@QAE?AUStageEffectItemData@@G@Z 
?GetStageRewardData@ConstLoginGaugeRewardData@@QAEPAV?$map@HV?$vector@GV?$allocator@G@std@@@std@@U?$less@H@2@V?$allocator@U?$pair@$$CBHV?$vector@GV?$allocator@G@std@@@std@@@std@@@2@@std@@XZ 
?GetStageRewardData@ConstStageRewardData@@QAEPAV?$map@HV?$vector@GV?$allocator@G@std@@@std@@U?$less@H@2@V?$allocator@U?$pair@$$CBHV?$vector@GV?$allocator@G@std@@@std@@@std@@@2@@std@@XZ 
?GetStageRewardItemInfoFromMapID@ConstStageRewardData@@QAEPAV?$vector@GV?$allocator@G@std@@@std@@G@Z 
?GetStartBeIdleTime@CNpcBase@@QAEMXZ 
?GetStats@CPlayer@@QAEXAAVCTString@@W4CompStatType@@J@Z 
?GetStdEntityInfo@@YAPAUEntityInfo@@W4EntityInfoBodyType@@@Z 
?GetStrMeleeWeapon@CBattleBowAnimator@@UAE?AVCTString@@XZ 
?GetStrMeleeWeapon@CBlackSmithAnimator@@UAE?AVCTString@@XZ 
?GetStrMeleeWeapon@CDualistAnimator@@UAE?AVCTString@@XZ 
?GetStrMeleeWeapon@CMageAnimator@@UAE?AVCTString@@XZ 
?GetStrMeleeWeapon@CNinjaAnimator@@UAE?AVCTString@@XZ 
?GetStrMeleeWeapon@CPlayerAnimatorBase@@UAE?AVCTString@@XZ 
?GetStrMeleeWeapon@CSwordManAnimator@@UAE?AVCTString@@XZ 
?GetStrRangeWeapon@CBattleBowAnimator@@UAE?AVCTString@@XZ 
?GetStrRangeWeapon@CBlackSmithAnimator@@UAE?AVCTString@@XZ 
?GetStrRangeWeapon@CDualistAnimator@@UAE?AVCTString@@XZ 
?GetStrRangeWeapon@CMageAnimator@@UAE?AVCTString@@XZ 
?GetStrRangeWeapon@CNinjaAnimator@@UAE?AVCTString@@XZ 
?GetStrRangeWeapon@CPlayerAnimatorBase@@UAE?AVCTString@@XZ 
?GetStrRangeWeapon@CSwordManAnimator@@UAE?AVCTString@@XZ 
?GetStrWeapon@CPlayerAnimatorBase@@QAE?AVCTString@@XZ 
?GetStrWeaponAdd@CBattleBowAnimator@@UAE?AVCTString@@XZ 
?GetStrWeaponAdd@CBlackSmithAnimator@@UAE?AVCTString@@XZ 
?GetStrWeaponAdd@CDualistAnimator@@UAE?AVCTString@@XZ 
?GetStrWeaponAdd@CMageAnimator@@UAE?AVCTString@@XZ 
?GetStrWeaponAdd@CNinjaAnimator@@UAE?AVCTString@@XZ 
?GetStrWeaponAdd@CPlayerAnimatorBase@@UAE?AVCTString@@XZ 
?GetStrWeaponAdd@CSwordManAnimator@@UAE?AVCTString@@XZ 
?GetSuckingRenderType@CPlayerWeaponBase@@QAE_NXZ 
?GetSwitchByName@CLevelScriptor@@AAEPAU_s_switch@@AAVCTString@@@Z 
?GetSyncData@CPlayer@@UAEXAAVCNetMessage@@@Z 
?GetSynthesisData@CConstCreatureSynthesisData@@QAEABV?$vector@UAttributeCreatureSynthesisList@@V?$allocator@UAttributeCreatureSynthesisList@@@std@@@std@@XZ 
?GetSynthesisNeedItemAttribute@CConstCreatureSynthesisData@@QAE?BEXZ 
?GetSynthesisNeedItemID@CConstCreatureSynthesisData@@QAE?BKXZ 
?GetTapMiniMapCount@CConstTapMiniMapInfoData@@QAEKK@Z 
?GetTapMiniMapInfoData@@YAAAVCConstTapMiniMapInfoData@@XZ 
?GetTapMiniMapPickTime@CPlayer@@QAEKE@Z 
?GetTapMinimapInfo@CConstTapMiniMapInfoData@@QAEAAV?$vector@VTapMiniMapTerritoryInfo@@V?$allocator@VTapMiniMapTerritoryInfo@@@std@@@std@@K@Z 
?GetTapMinimapTerrytoryInfo@CConstTapMiniMapInfoData@@QAEPAVTapMiniMapTerritoryInfo@@KE@Z 
?GetTarget@CNavigationMarker@@UBEPAVCEntity@@XZ 
?GetThreatDistance@CEnemyBase@@UAEMXZ 
?GetTimeAnimEnd@CNpcBase@@QAEMXZ 
?GetTimeAnimEnd@CPlayerAnimatorBase@@QAEMXZ 
?GetTimeAnimStart@CNpcBase@@QAEMXZ 
?GetTimeAnimStart@CPlayerAnimatorBase@@QAEMXZ 
?GetToolTipDataByID@CConstObjectToolTip@@QAE?AUObjectToolTipData@@G@Z 
?GetTransRootMovingDeltaVector@CNpcBase@@QAE?AV?$Vector@M$02@@XZ 
?GetTranslationVec@CPlayer@@QAE?AV?$Vector@M$02@@W4EPlayerControlType@@AAV2@H@Z 
?GetTreeBeginnersHelpData@@YAAAVCTreeBeginnersHelpData@@XZ 
?GetTriggerByName@CLevelScriptor@@AAEPAU_s_trigger@@AAVCTString@@@Z 
?GetTutorialQuestInfo@CConstTutorialQuestData@@QAEPBUsTutorialQuestInfo@@K@Z 
?GetTutorialQuestSetupData@@YAAAVCConstTutorialQuestData@@XZ 
?GetUnusable_CharName_Count@CCharName_Filter@@QAEGXZ 
?GetUsedMemory@CEnemyBase@@UAEJXZ 
?GetUsedMemory@CItem@@UAEJXZ 
?GetUsedMemory@CNpcBase@@UAEJXZ 
?GetUsedMemory@CWatcher@@UAEJXZ 
?GetViewEntity@CPlayer@@UAEPAVCMovableEntity@@XZ 
?GetWSC@@YAPAVCWorldSettingsController@@PAVCEntity@@@Z 
?GetWarpByName@CLevelScriptor@@AAEPAU_s_warpspawn@@AAVCTString@@@Z 
?GetWatcher@CEnemyBase@@QAEPAVCWatcher@@XZ 
?GetWeapon01IDName@CPlayerAnimatorBase@@QAE?AVCTString@@XZ 
?GetWeapon02IDName@CPlayerAnimatorBase@@QAE?AVCTString@@XZ 
?GetWeaponIndex@CBattleBowAnimator@@UAEJXZ 
?GetWeaponIndex@CBlackSmithAnimator@@UAEJXZ 
?GetWeaponIndex@CDualistAnimator@@UAEJXZ 
?GetWeaponIndex@CMageAnimator@@UAEJXZ 
?GetWeaponIndex@CNinjaAnimator@@UAEJXZ 
?GetWeaponIndex@CPlayerAnimatorBase@@UAEJXZ 
?GetWeaponIndex@CSwordManAnimator@@UAEJXZ 
?GetWeaponModel@CBattleBowWeapon@@UAEPAVCModelInstance@@XZ 
?GetWeaponModel@CPlayerWeaponBase@@UAEPAVCModelInstance@@XZ 
?GetWeaponName01@CBattleBowAnimator@@UAE?AVCTString@@XZ 
?GetWeaponName01@CBlackSmithAnimator@@UAE?AVCTString@@XZ 
?GetWeaponName01@CDualistAnimator@@UAE?AVCTString@@XZ 
?GetWeaponName01@CMageAnimator@@UAE?AVCTString@@XZ 
?GetWeaponName01@CNinjaAnimator@@UAE?AVCTString@@XZ 
?GetWeaponName01@CPlayerAnimatorBase@@UAE?AVCTString@@XZ 
?GetWeaponName01@CSwordManAnimator@@UAE?AVCTString@@XZ 
?GetWeaponName02@CBattleBowAnimator@@UAE?AVCTString@@XZ 
?GetWeaponName02@CBlackSmithAnimator@@UAE?AVCTString@@XZ 
?GetWeaponName02@CDualistAnimator@@UAE?AVCTString@@XZ 
?GetWeaponName02@CMageAnimator@@UAE?AVCTString@@XZ 
?GetWeaponName02@CNinjaAnimator@@UAE?AVCTString@@XZ 
?GetWeaponName02@CPlayerAnimatorBase@@UAE?AVCTString@@XZ 
?GetWeaponName02@CSwordManAnimator@@UAE?AVCTString@@XZ 
?GetWeaponName_L@CBattleBowAnimator@@UAE?AVCTString@@XZ 
?GetWeaponName_L@CBlackSmithAnimator@@UAE?AVCTString@@XZ 
?GetWeaponName_L@CDualistAnimator@@UAE?AVCTString@@XZ 
?GetWeaponName_L@CMageAnimator@@UAE?AVCTString@@XZ 
?GetWeaponName_L@CNinjaAnimator@@UAE?AVCTString@@XZ 
?GetWeaponName_L@CPlayerAnimatorBase@@UAE?AVCTString@@XZ 
?GetWeaponName_L@CSwordManAnimator@@UAE?AVCTString@@XZ 
?GetWorldGlaring@CPlayer@@QAEKXZ 
?GetYPosInWorld@CNpcBase@@QAEMPAVCEntity@@@Z 
?GiveAwardPoint@CPlayer@@QAEJAAV?$CDynamicContainer@VCPlayer@@@@JW4EPlayerResult@@@Z 
?GravityType_enum@@3VCEntityPropertyEnumType@@A 
?GravityType_values@@3PAVCEntityPropertyEnumValue@@A 
?GroundFire@CEnemyDive@@QAEHABVCEntityEvent@@@Z 
?GroundFire@CEnemyFly@@QAEHABVCEntityEvent@@@Z 
?GroundHit@CEnemyDive@@QAEHABVCEntityEvent@@@Z 
?GroundHit@CEnemyFly@@QAEHABVCEntityEvent@@@Z 
?GroundToAir@CEnemyFly@@QAEHABVCEntityEvent@@@Z 
?GroundToAirAnim@CEnemyFly@@UAEMXZ 
?GruntCommanderLaser@CProjectile@@QAEXXZ 
?GruntSoldierLaser@CProjectile@@QAEXXZ 
?GruntType_enum@@3VCEntityPropertyEnumType@@A 
?GruntType_values@@3PAVCEntityPropertyEnumValue@@A 
?GuffyProjectile@CProjectile@@QAEXXZ 
?GuffyProjectileExplosion@CProjectile@@QAEXXZ 
?H0x01360007_MoveToDestination_01@CEnemyBase@@QAEHABVCEntityEvent@@@Z 
?H0x01360008_MoveToDestination_02@CEnemyBase@@QAEHABVCEntityEvent@@@Z 
?H0x01360009_MoveToDestination_03@CEnemyBase@@QAEHABVCEntityEvent@@@Z 
?H0x0136000a_MoveToDestination_04@CEnemyBase@@QAEHABVCEntityEvent@@@Z 
?H0x0136000c_MoveToRandomPatrolPosition_01@CEnemyBase@@QAEHABVCEntityEvent@@@Z 
?H0x0136000d_MoveToRandomPatrolPosition_02@CEnemyBase@@QAEHABVCEntityEvent@@@Z 
?H0x0136000f_DoPatrolling_01@CEnemyBase@@QAEHABVCEntityEvent@@@Z 
?H0x01360010_DoPatrolling_02@CEnemyBase@@QAEHABVCEntityEvent@@@Z 
?H0x01360011_DoPatrolling_03@CEnemyBase@@QAEHABVCEntityEvent@@@Z 
?H0x01360012_DoPatrolling_04@CEnemyBase@@QAEHABVCEntityEvent@@@Z 
?H0x01360013_DoPatrolling_05@CEnemyBase@@QAEHABVCEntityEvent@@@Z 
?H0x01360014_DoPatrolling_06@CEnemyBase@@QAEHABVCEntityEvent@@@Z 
?H0x01360016_BeIdle_01@CEnemyBase@@QAEHABVCEntityEvent@@@Z 
?H0x01360017_BeIdle_02@CEnemyBase@@QAEHABVCEntityEvent@@@Z 
?H0x01360018_BeIdle_03@CEnemyBase@@QAEHABVCEntityEvent@@@Z 
?H0x01360019_BeIdle_04@CEnemyBase@@QAEHABVCEntityEvent@@@Z 
?H0x0136001c_MoveThroughMarkers_01@CEnemyBase@@QAEHABVCEntityEvent@@@Z 
?H0x0136001d_MoveThroughMarkers_02@CEnemyBase@@QAEHABVCEntityEvent@@@Z 
?H0x0136001e_MoveThroughMarkers_03@CEnemyBase@@QAEHABVCEntityEvent@@@Z 
?H0x0136001f_MoveThroughMarkers_04@CEnemyBase@@QAEHABVCEntityEvent@@@Z 
?H0x01360020_MoveThroughMarkers_05@CEnemyBase@@QAEHABVCEntityEvent@@@Z 
?H0x01360021_MoveThroughMarkers_06@CEnemyBase@@QAEHABVCEntityEvent@@@Z 
?H0x01360022_MoveThroughMarkers_07@CEnemyBase@@QAEHABVCEntityEvent@@@Z 
?H0x01360023_MoveThroughMarkers_08@CEnemyBase@@QAEHABVCEntityEvent@@@Z 
?H0x01360024_MoveThroughMarkers_09@CEnemyBase@@QAEHABVCEntityEvent@@@Z 
?H0x01360025_MoveThroughMarkers_10@CEnemyBase@@QAEHABVCEntityEvent@@@Z 
?H0x01360026_MoveThroughMarkers_11@CEnemyBase@@QAEHABVCEntityEvent@@@Z 
?H0x01360027_MoveThroughMarkers_12@CEnemyBase@@QAEHABVCEntityEvent@@@Z 
?H0x01360029_NewEnemySpotted_01@CEnemyBase@@QAEHABVCEntityEvent@@@Z 
?H0x0136002a_NewEnemySpotted_02@CEnemyBase@@QAEHABVCEntityEvent@@@Z 
?H0x0136002b_NewEnemySpotted_03@CEnemyBase@@QAEHABVCEntityEvent@@@Z 
?H0x0136002f_AttackEnemy_01@CEnemyBase@@QAEHABVCEntityEvent@@@Z 
?H0x01360030_AttackEnemy_02@CEnemyBase@@QAEHABVCEntityEvent@@@Z 
?H0x01360031_AttackEnemy_03@CEnemyBase@@QAEHABVCEntityEvent@@@Z 
?H0x01360032_AttackEnemy_04@CEnemyBase@@QAEHABVCEntityEvent@@@Z 
?H0x01360033_AttackEnemy_05@CEnemyBase@@QAEHABVCEntityEvent@@@Z 
?H0x01360034_AttackEnemy_06@CEnemyBase@@QAEHABVCEntityEvent@@@Z 
?H0x01360035_AttackEnemy_07@CEnemyBase@@QAEHABVCEntityEvent@@@Z 
?H0x01360036_AttackEnemy_08@CEnemyBase@@QAEHABVCEntityEvent@@@Z 
?H0x01360038_PerformAttack_01@CEnemyBase@@QAEHABVCEntityEvent@@@Z 
?H0x01360039_PerformAttack_02@CEnemyBase@@QAEHABVCEntityEvent@@@Z 
?H0x0136003a_PerformAttack_03@CEnemyBase@@QAEHABVCEntityEvent@@@Z 
?H0x0136003b_PerformAttack_04@CEnemyBase@@QAEHABVCEntityEvent@@@Z 
?H0x0136003d_FireOrHit_01@CEnemyBase@@QAEHABVCEntityEvent@@@Z 
?H0x0136003e_FireOrHit_02@CEnemyBase@@QAEHABVCEntityEvent@@@Z 
?H0x0136003f_FireOrHit_03@CEnemyBase@@QAEHABVCEntityEvent@@@Z 
?H0x01360040_FireOrHit_04@CEnemyBase@@QAEHABVCEntityEvent@@@Z 
?H0x01360041_FireOrHit_05@CEnemyBase@@QAEHABVCEntityEvent@@@Z 
?H0x01360042_FireOrHit_06@CEnemyBase@@QAEHABVCEntityEvent@@@Z 
?H0x01360043_FireOrHit_07@CEnemyBase@@QAEHABVCEntityEvent@@@Z 
?H0x01360044_FireOrHit_08@CEnemyBase@@QAEHABVCEntityEvent@@@Z 
?H0x01360048_LockOnEnemy_01@CEnemyBase@@QAEHABVCEntityEvent@@@Z 
?H0x01360049_LockOnEnemy_02@CEnemyBase@@QAEHABVCEntityEvent@@@Z 
?H0x0136004a_LockOnEnemy_03@CEnemyBase@@QAEHABVCEntityEvent@@@Z 
?H0x0136004b_LockOnEnemy_04@CEnemyBase@@QAEHABVCEntityEvent@@@Z 
?H0x0136004d_ChargeHitEnemy_01@CEnemyBase@@QAEHABVCEntityEvent@@@Z 
?H0x0136004e_ChargeHitEnemy_02@CEnemyBase@@QAEHABVCEntityEvent@@@Z 
?H0x0136004f_ChargeHitEnemy_03@CEnemyBase@@QAEHABVCEntityEvent@@@Z 
?H0x01360050_ChargeHitEnemy_04@CEnemyBase@@QAEHABVCEntityEvent@@@Z 
?H0x01360051_ChargeHitEnemy_05@CEnemyBase@@QAEHABVCEntityEvent@@@Z 
?H0x01360053_BeBouncedWall_01@CEnemyBase@@QAEHABVCEntityEvent@@@Z 
?H0x01360054_BeBouncedWall_02@CEnemyBase@@QAEHABVCEntityEvent@@@Z 
?H0x01360056_BeWounded_01@CEnemyBase@@QAEHABVCEntityEvent@@@Z 
?H0x01360057_BeWounded_02@CEnemyBase@@QAEHABVCEntityEvent@@@Z 
?H0x01360058_BeWounded_03@CEnemyBase@@QAEHABVCEntityEvent@@@Z 
?H0x0136005a_Die_01@CEnemyBase@@QAEHABVCEntityEvent@@@Z 
?H0x0136005b_Die_02@CEnemyBase@@QAEHABVCEntityEvent@@@Z 
?H0x0136005c_Die_03@CEnemyBase@@QAEHABVCEntityEvent@@@Z 
?H0x0136005d_Die_04@CEnemyBase@@QAEHABVCEntityEvent@@@Z 
?H0x0136005e_Die_05@CEnemyBase@@QAEHABVCEntityEvent@@@Z 
?H0x0136005f_Die_06@CEnemyBase@@QAEHABVCEntityEvent@@@Z 
?H0x01360060_Die_07@CEnemyBase@@QAEHABVCEntityEvent@@@Z 
?H0x01360061_Die_08@CEnemyBase@@QAEHABVCEntityEvent@@@Z 
?H0x01360063_Death_01@CEnemyBase@@QAEHABVCEntityEvent@@@Z 
?H0x01360064_Death_02@CEnemyBase@@QAEHABVCEntityEvent@@@Z 
?H0x01360065_Death_03@CEnemyBase@@QAEHABVCEntityEvent@@@Z 
?H0x01360067_DeathSequence_01@CEnemyBase@@QAEHABVCEntityEvent@@@Z 
?H0x01360068_DeathSequence_02@CEnemyBase@@QAEHABVCEntityEvent@@@Z 
?H0x01360069_DeathSequence_03@CEnemyBase@@QAEHABVCEntityEvent@@@Z 
?H0x0136006a_DeathSequence_04@CEnemyBase@@QAEHABVCEntityEvent@@@Z 
?H0x0136006b_DeathSequence_05@CEnemyBase@@QAEHABVCEntityEvent@@@Z 
?H0x0136006c_DeathSequence_06@CEnemyBase@@QAEHABVCEntityEvent@@@Z 
?H0x0136006d_DeathSequence_07@CEnemyBase@@QAEHABVCEntityEvent@@@Z 
?H0x0136006e_DeathSequence_08@CEnemyBase@@QAEHABVCEntityEvent@@@Z 
?H0x01360070_Active_01@CEnemyBase@@QAEHABVCEntityEvent@@@Z 
?H0x01360071_Active_02@CEnemyBase@@QAEHABVCEntityEvent@@@Z 
?H0x01360073_Inactive_01@CEnemyBase@@QAEHABVCEntityEvent@@@Z 
?H0x01360074_Inactive_02@CEnemyBase@@QAEHABVCEntityEvent@@@Z 
?H0x01360077_MainLoop_internal_01@CEnemyBase@@QAEHABVCEntityEvent@@@Z 
?H0x01360078_MainLoop_internal_02@CEnemyBase@@QAEHABVCEntityEvent@@@Z 
?H0x01360079_MainLoop_internal_03@CEnemyBase@@QAEHABVCEntityEvent@@@Z 
?H0x0136007a_MainLoop_internal_04@CEnemyBase@@QAEHABVCEntityEvent@@@Z 
?H0x0136007c_MainLoop_01@CEnemyBase@@QAEHABVCEntityEvent@@@Z 
?H0x0136007d_MainLoop_02@CEnemyBase@@QAEHABVCEntityEvent@@@Z 
?H0x0136007e_MainLoop_03@CEnemyBase@@QAEHABVCEntityEvent@@@Z 
?H0x0136007f_MainLoop_04@CEnemyBase@@QAEHABVCEntityEvent@@@Z 
?H0x01360080_MainLoop_05@CEnemyBase@@QAEHABVCEntityEvent@@@Z 
?H0x01360082_StandardBehavior_01@CEnemyBase@@QAEHABVCEntityEvent@@@Z 
?H0x01360083_StandardBehavior_02@CEnemyBase@@QAEHABVCEntityEvent@@@Z 
?H0x01370002_BeWounded_01@CEnemyFly@@QAEHABVCEntityEvent@@@Z 
?H0x01370003_BeWounded_02@CEnemyFly@@QAEHABVCEntityEvent@@@Z 
?H0x01370004_BeWounded_03@CEnemyFly@@QAEHABVCEntityEvent@@@Z 
?H0x01370005_BeWounded_04@CEnemyFly@@QAEHABVCEntityEvent@@@Z 
?H0x01370006_BeWounded_05@CEnemyFly@@QAEHABVCEntityEvent@@@Z 
?H0x01370008_AirToGround_01@CEnemyFly@@QAEHABVCEntityEvent@@@Z 
?H0x01370009_AirToGround_02@CEnemyFly@@QAEHABVCEntityEvent@@@Z 
?H0x0137000a_AirToGround_03@CEnemyFly@@QAEHABVCEntityEvent@@@Z 
?H0x0137000b_AirToGround_04@CEnemyFly@@QAEHABVCEntityEvent@@@Z 
?H0x0137000d_GroundToAir_01@CEnemyFly@@QAEHABVCEntityEvent@@@Z 
?H0x0137000e_GroundToAir_02@CEnemyFly@@QAEHABVCEntityEvent@@@Z 
?H0x0137000f_GroundToAir_03@CEnemyFly@@QAEHABVCEntityEvent@@@Z 
?H0x01370010_GroundToAir_04@CEnemyFly@@QAEHABVCEntityEvent@@@Z 
?H0x01370012_AttackEnemy_01@CEnemyFly@@QAEHABVCEntityEvent@@@Z 
?H0x01370013_AttackEnemy_02@CEnemyFly@@QAEHABVCEntityEvent@@@Z 
?H0x01370014_AttackEnemy_03@CEnemyFly@@QAEHABVCEntityEvent@@@Z 
?H0x01370015_AttackEnemy_04@CEnemyFly@@QAEHABVCEntityEvent@@@Z 
?H0x01370016_AttackEnemy_05@CEnemyFly@@QAEHABVCEntityEvent@@@Z 
?H0x01370017_AttackEnemy_06@CEnemyFly@@QAEHABVCEntityEvent@@@Z 
?H0x01370018_AttackEnemy_07@CEnemyFly@@QAEHABVCEntityEvent@@@Z 
?H0x01370019_AttackEnemy_08@CEnemyFly@@QAEHABVCEntityEvent@@@Z 
?H0x0137001a_AttackEnemy_09@CEnemyFly@@QAEHABVCEntityEvent@@@Z 
?H0x01380002_RotateToEnemy_01@CEnemyRunInto@@QAEHABVCEntityEvent@@@Z 
?H0x01380003_RotateToEnemy_02@CEnemyRunInto@@QAEHABVCEntityEvent@@@Z 
?H0x01380004_RotateToEnemy_03@CEnemyRunInto@@QAEHABVCEntityEvent@@@Z 
?H0x01380005_RotateToEnemy_04@CEnemyRunInto@@QAEHABVCEntityEvent@@@Z 
?H0x01380007_RunIntoEnemy_01@CEnemyRunInto@@QAEHABVCEntityEvent@@@Z 
?H0x01380008_RunIntoEnemy_02@CEnemyRunInto@@QAEHABVCEntityEvent@@@Z 
?H0x01380009_RunIntoEnemy_03@CEnemyRunInto@@QAEHABVCEntityEvent@@@Z 
?H0x0138000a_RunIntoEnemy_04@CEnemyRunInto@@QAEHABVCEntityEvent@@@Z 
?H0x0138000c_RunAwayFromEnemy_01@CEnemyRunInto@@QAEHABVCEntityEvent@@@Z 
?H0x0138000d_RunAwayFromEnemy_02@CEnemyRunInto@@QAEHABVCEntityEvent@@@Z 
?H0x0138000e_RunAwayFromEnemy_03@CEnemyRunInto@@QAEHABVCEntityEvent@@@Z 
?H0x0138000f_RunAwayFromEnemy_04@CEnemyRunInto@@QAEHABVCEntityEvent@@@Z 
?H0x015c0001_Main_01@CSpinner@@QAEHABVCEntityEvent@@@Z 
?H0x015c0002_Main_02@CSpinner@@QAEHABVCEntityEvent@@@Z 
?H0x015c0003_Main_03@CSpinner@@QAEHABVCEntityEvent@@@Z 
?H0x015c0004_Main_04@CSpinner@@QAEHABVCEntityEvent@@@Z 
?H0x015c0005_Main_05@CSpinner@@QAEHABVCEntityEvent@@@Z 
?H0x015c0006_Main_06@CSpinner@@QAEHABVCEntityEvent@@@Z 
?H0x015c0007_Main_07@CSpinner@@QAEHABVCEntityEvent@@@Z 
?H0x01610002_LarvaOffspringGuidedSlide_01@CLarvaOffspring@@QAEHABVCEntityEvent@@@Z 
?H0x01610003_LarvaOffspringGuidedSlide_02@CLarvaOffspring@@QAEHABVCEntityEvent@@@Z 
?H0x01610004_LarvaOffspringGuidedSlide_03@CLarvaOffspring@@QAEHABVCEntityEvent@@@Z 
?H0x01610005_LarvaOffspringGuidedSlide_04@CLarvaOffspring@@QAEHABVCEntityEvent@@@Z 
?H0x01610006_Main_01@CLarvaOffspring@@QAEHABVCEntityEvent@@@Z 
?H0x01610007_Main_02@CLarvaOffspring@@QAEHABVCEntityEvent@@@Z 
?H0x01930001_Main_01@CPlayerView@@QAEHABVCEntityEvent@@@Z 
?H0x01930002_Main_02@CPlayerView@@QAEHABVCEntityEvent@@@Z 
?H0x019a004e_Main_01@CPlayer@@QAEHABVCEntityEvent@@@Z 
?H0x019a004f_Main_02@CPlayer@@QAEHABVCEntityEvent@@@Z 
?H0x01f50004_ProjectileFly_01@CProjectile@@QAEHABVCEntityEvent@@@Z 
?H0x01f50005_ProjectileFly_02@CProjectile@@QAEHABVCEntityEvent@@@Z 
?H0x01f50007_ProjectileGuidedFly_01@CProjectile@@QAEHABVCEntityEvent@@@Z 
?H0x01f50008_ProjectileGuidedFly_02@CProjectile@@QAEHABVCEntityEvent@@@Z 
?H0x01f50009_ProjectileGuidedFly_03@CProjectile@@QAEHABVCEntityEvent@@@Z 
?H0x01f5000a_ProjectileGuidedFly_04@CProjectile@@QAEHABVCEntityEvent@@@Z 
?H0x01f5000c_ProjectileGuidedFastFly_01@CProjectile@@QAEHABVCEntityEvent@@@Z 
?H0x01f5000d_ProjectileGuidedFastFly_02@CProjectile@@QAEHABVCEntityEvent@@@Z 
?H0x01f5000e_ProjectileGuidedFastFly_03@CProjectile@@QAEHABVCEntityEvent@@@Z 
?H0x01f5000f_ProjectileGuidedFastFly_04@CProjectile@@QAEHABVCEntityEvent@@@Z 
?H0x01f50011_ProjectileGuidedSlide_01@CProjectile@@QAEHABVCEntityEvent@@@Z 
?H0x01f50012_ProjectileGuidedSlide_02@CProjectile@@QAEHABVCEntityEvent@@@Z 
?H0x01f50013_ProjectileGuidedSlide_03@CProjectile@@QAEHABVCEntityEvent@@@Z 
?H0x01f50014_ProjectileGuidedSlide_04@CProjectile@@QAEHABVCEntityEvent@@@Z 
?H0x01f50016_ProjectileSlide_01@CProjectile@@QAEHABVCEntityEvent@@@Z 
?H0x01f50017_ProjectileSlide_02@CProjectile@@QAEHABVCEntityEvent@@@Z 
?H0x01f50019_ProjectileFlyRebounding_01@CProjectile@@QAEHABVCEntityEvent@@@Z 
?H0x01f5001a_ProjectileFlyRebounding_02@CProjectile@@QAEHABVCEntityEvent@@@Z 
?H0x01f5001b_Main_01@CProjectile@@QAEHABVCEntityEvent@@@Z 
?H0x01f5001c_Main_02@CProjectile@@QAEHABVCEntityEvent@@@Z 
?H0x01f5001d_Main_03@CProjectile@@QAEHABVCEntityEvent@@@Z 
?H0x01f5001e_Main_04@CProjectile@@QAEHABVCEntityEvent@@@Z 
?H0x01f5001f_Main_05@CProjectile@@QAEHABVCEntityEvent@@@Z 
?H0x01f50020_Main_06@CProjectile@@QAEHABVCEntityEvent@@@Z 
?H0x01f50021_Main_07@CProjectile@@QAEHABVCEntityEvent@@@Z 
?H0x01f50022_Main_08@CProjectile@@QAEHABVCEntityEvent@@@Z 
?H0x01fa0003_Bounce_01@CCannonBall@@QAEHABVCEntityEvent@@@Z 
?H0x01fa0004_Bounce_02@CCannonBall@@QAEHABVCEntityEvent@@@Z 
?H0x01fa0005_Main_01@CCannonBall@@QAEHABVCEntityEvent@@@Z 
?H0x01fa0006_Main_02@CCannonBall@@QAEHABVCEntityEvent@@@Z 
?H0x01fa0007_Main_03@CCannonBall@@QAEHABVCEntityEvent@@@Z 
?H0x01fa0008_Main_04@CCannonBall@@QAEHABVCEntityEvent@@@Z 
?H0x01fa0009_Main_05@CCannonBall@@QAEHABVCEntityEvent@@@Z 
?H0x01fa000a_Main_06@CCannonBall@@QAEHABVCEntityEvent@@@Z 
?H0x01fa000b_Main_07@CCannonBall@@QAEHABVCEntityEvent@@@Z 
?H0x01fa000c_Main_08@CCannonBall@@QAEHABVCEntityEvent@@@Z 
?H0x01fa000d_Main_09@CCannonBall@@QAEHABVCEntityEvent@@@Z 
?H0x01fa000e_Main_10@CCannonBall@@QAEHABVCEntityEvent@@@Z 
?H0x01fa000f_Main_11@CCannonBall@@QAEHABVCEntityEvent@@@Z 
?H0x01fa0010_Main_12@CCannonBall@@QAEHABVCEntityEvent@@@Z 
?H0x01fa0011_Main_13@CCannonBall@@QAEHABVCEntityEvent@@@Z 
?H0x01fa0012_Main_14@CCannonBall@@QAEHABVCEntityEvent@@@Z 
?H0x01fa0013_Main_15@CCannonBall@@QAEHABVCEntityEvent@@@Z 
?H0x01fa0014_Main_16@CCannonBall@@QAEHABVCEntityEvent@@@Z 
?H0x01fa0015_Main_17@CCannonBall@@QAEHABVCEntityEvent@@@Z 
?H0x01fa0016_Main_18@CCannonBall@@QAEHABVCEntityEvent@@@Z 
?H0x01fa0017_Main_19@CCannonBall@@QAEHABVCEntityEvent@@@Z 
?H0x01fa0018_Main_20@CCannonBall@@QAEHABVCEntityEvent@@@Z 
?H0x01fa0019_Main_21@CCannonBall@@QAEHABVCEntityEvent@@@Z 
?H0x01fa001a_Main_22@CCannonBall@@QAEHABVCEntityEvent@@@Z 
?H0x01fa001b_Main_23@CCannonBall@@QAEHABVCEntityEvent@@@Z 
?H0x01fa001c_Main_24@CCannonBall@@QAEHABVCEntityEvent@@@Z 
?H0x01fa001d_Main_25@CCannonBall@@QAEHABVCEntityEvent@@@Z 
?H0x01fa001e_Main_26@CCannonBall@@QAEHABVCEntityEvent@@@Z 
?H0x01fa001f_Main_27@CCannonBall@@QAEHABVCEntityEvent@@@Z 
?H0x01fa0020_Main_28@CCannonBall@@QAEHABVCEntityEvent@@@Z 
?H0x01fa0021_Main_29@CCannonBall@@QAEHABVCEntityEvent@@@Z 
?H0x01fa0022_Main_30@CCannonBall@@QAEHABVCEntityEvent@@@Z 
?H0x01fa0023_Main_31@CCannonBall@@QAEHABVCEntityEvent@@@Z 
?H0x02bc0003_Active_01@CWatcher@@QAEHABVCEntityEvent@@@Z 
?H0x02bc0004_Active_02@CWatcher@@QAEHABVCEntityEvent@@@Z 
?H0x02bc0005_Active_03@CWatcher@@QAEHABVCEntityEvent@@@Z 
?H0x02bc0006_Active_04@CWatcher@@QAEHABVCEntityEvent@@@Z 
?H0x02bc0008_Inactive_01@CWatcher@@QAEHABVCEntityEvent@@@Z 
?H0x02bc0009_Inactive_02@CWatcher@@QAEHABVCEntityEvent@@@Z 
?H0x02bc000b_Dummy_01@CWatcher@@QAEHABVCEntityEvent@@@Z 
?H0x02bc000c_Dummy_02@CWatcher@@QAEHABVCEntityEvent@@@Z 
?H0x02bc000d_Main_01@CWatcher@@QAEHABVCEntityEvent@@@Z 
?H0x02bc000e_Main_02@CWatcher@@QAEHABVCEntityEvent@@@Z 
?H0x02bf0001_Main_01@CReminder@@QAEHABVCEntityEvent@@@Z 
?H0x02bf0002_Main_02@CReminder@@QAEHABVCEntityEvent@@@Z 
?H0x02bf0003_Main_03@CReminder@@QAEHABVCEntityEvent@@@Z 
?H0x03200005_ItemLoop_01@CItem@@QAEHABVCEntityEvent@@@Z 
?H0x03200006_ItemLoop_02@CItem@@QAEHABVCEntityEvent@@@Z 
?H0x03200007_ItemLoop_03@CItem@@QAEHABVCEntityEvent@@@Z 
?H0x03200008_ItemLoop_04@CItem@@QAEHABVCEntityEvent@@@Z 
?H0x03200009_ItemLoop_05@CItem@@QAEHABVCEntityEvent@@@Z 
?H0x0320000a_ItemLoop_06@CItem@@QAEHABVCEntityEvent@@@Z 
?H0x0320000c_ItemReceived_01@CItem@@QAEHABVCEntityEvent@@@Z 
?H0x0320000d_ItemReceived_02@CItem@@QAEHABVCEntityEvent@@@Z 
?H0x0320000e_ItemReceived_03@CItem@@QAEHABVCEntityEvent@@@Z 
?H0x0320000f_ItemReceived_04@CItem@@QAEHABVCEntityEvent@@@Z 
?H0x03e90000_Main_01@CParticleEmitter@@QAEHABVCEntityEvent@@@Z 
?H0x03e90001_Main_02@CParticleEmitter@@QAEHABVCEntityEvent@@@Z 
?H0x03e90002_Main_03@CParticleEmitter@@QAEHABVCEntityEvent@@@Z 
?H0x03e90003_Main_04@CParticleEmitter@@QAEHABVCEntityEvent@@@Z 
?H0x044d0039_MoveToDestination_01@CNpcBase@@QAEHABVCEntityEvent@@@Z 
?H0x044d003a_MoveToDestination_02@CNpcBase@@QAEHABVCEntityEvent@@@Z 
?H0x044d003b_MoveToDestination_03@CNpcBase@@QAEHABVCEntityEvent@@@Z 
?H0x044d003c_MoveToDestination_04@CNpcBase@@QAEHABVCEntityEvent@@@Z 
?H0x044d003e_BeIdle_01@CNpcBase@@QAEHABVCEntityEvent@@@Z 
?H0x044d003f_BeIdle_02@CNpcBase@@QAEHABVCEntityEvent@@@Z 
?H0x044d0040_BeIdle_03@CNpcBase@@QAEHABVCEntityEvent@@@Z 
?H0x044d0041_BeIdle_04@CNpcBase@@QAEHABVCEntityEvent@@@Z 
?H0x044d0042_BeIdle_05@CNpcBase@@QAEHABVCEntityEvent@@@Z 
?H0x044d0043_BeIdle_06@CNpcBase@@QAEHABVCEntityEvent@@@Z 
?H0x044d0045_ReturnToStartPosition_01@CNpcBase@@QAEHABVCEntityEvent@@@Z 
?H0x044d0046_ReturnToStartPosition_02@CNpcBase@@QAEHABVCEntityEvent@@@Z 
?H0x044d0047_ReturnToStartPosition_03@CNpcBase@@QAEHABVCEntityEvent@@@Z 
?H0x044d0048_ReturnToStartPosition_04@CNpcBase@@QAEHABVCEntityEvent@@@Z 
?H0x044d004a_MoveToDestinationEntity_Navigation_01@CNpcBase@@QAEHABVCEntityEvent@@@Z 
?H0x044d004b_MoveToDestinationEntity_Navigation_02@CNpcBase@@QAEHABVCEntityEvent@@@Z 
?H0x044d004c_MoveToDestinationEntity_Navigation_03@CNpcBase@@QAEHABVCEntityEvent@@@Z 
?H0x044d004d_MoveToDestinationEntity_Navigation_04@CNpcBase@@QAEHABVCEntityEvent@@@Z 
?H0x044d004e_MoveToDestinationEntity_Navigation_05@CNpcBase@@QAEHABVCEntityEvent@@@Z 
?H0x044d004f_MoveToDestinationEntity_Navigation_06@CNpcBase@@QAEHABVCEntityEvent@@@Z 
?H0x044d0050_MoveToDestinationEntity_Navigation_07@CNpcBase@@QAEHABVCEntityEvent@@@Z 
?H0x044d0052_MoveToDestinationEntity_01@CNpcBase@@QAEHABVCEntityEvent@@@Z 
?H0x044d0053_MoveToDestinationEntity_02@CNpcBase@@QAEHABVCEntityEvent@@@Z 
?H0x044d0055_RotateToStartDirection_01@CNpcBase@@QAEHABVCEntityEvent@@@Z 
?H0x044d0056_RotateToStartDirection_02@CNpcBase@@QAEHABVCEntityEvent@@@Z 
?H0x044d0057_RotateToStartDirection_03@CNpcBase@@QAEHABVCEntityEvent@@@Z 
?H0x044d0058_RotateToStartDirection_04@CNpcBase@@QAEHABVCEntityEvent@@@Z 
?H0x044d005a_AttackSkyEnemy_01@CNpcBase@@QAEHABVCEntityEvent@@@Z 
?H0x044d005b_AttackSkyEnemy_02@CNpcBase@@QAEHABVCEntityEvent@@@Z 
?H0x044d005c_AttackSkyEnemy_03@CNpcBase@@QAEHABVCEntityEvent@@@Z 
?H0x044d005e_AttackEnemy_01@CNpcBase@@QAEHABVCEntityEvent@@@Z 
?H0x044d005f_AttackEnemy_02@CNpcBase@@QAEHABVCEntityEvent@@@Z 
?H0x044d0060_AttackEnemy_03@CNpcBase@@QAEHABVCEntityEvent@@@Z 
?H0x044d0062_PerformSkyAttack_01@CNpcBase@@QAEHABVCEntityEvent@@@Z 
?H0x044d0063_PerformSkyAttack_02@CNpcBase@@QAEHABVCEntityEvent@@@Z 
?H0x044d0064_PerformSkyAttack_03@CNpcBase@@QAEHABVCEntityEvent@@@Z 
?H0x044d0065_PerformSkyAttack_04@CNpcBase@@QAEHABVCEntityEvent@@@Z 
?H0x044d0067_PerformAttack_01@CNpcBase@@QAEHABVCEntityEvent@@@Z 
?H0x044d0068_PerformAttack_02@CNpcBase@@QAEHABVCEntityEvent@@@Z 
?H0x044d0069_PerformAttack_03@CNpcBase@@QAEHABVCEntityEvent@@@Z 
?H0x044d006a_PerformAttack_04@CNpcBase@@QAEHABVCEntityEvent@@@Z 
?H0x044d006c_FireOrHit_01@CNpcBase@@QAEHABVCEntityEvent@@@Z 
?H0x044d006d_FireOrHit_02@CNpcBase@@QAEHABVCEntityEvent@@@Z 
?H0x044d006e_FireOrHit_03@CNpcBase@@QAEHABVCEntityEvent@@@Z 
?H0x044d006f_FireOrHit_04@CNpcBase@@QAEHABVCEntityEvent@@@Z 
?H0x044d0070_FireOrHit_05@CNpcBase@@QAEHABVCEntityEvent@@@Z 
?H0x044d0071_FireOrHit_06@CNpcBase@@QAEHABVCEntityEvent@@@Z 
?H0x044d0072_FireOrHit_07@CNpcBase@@QAEHABVCEntityEvent@@@Z 
?H0x044d0073_FireOrHit_08@CNpcBase@@QAEHABVCEntityEvent@@@Z 
?H0x044d0074_FireOrHit_09@CNpcBase@@QAEHABVCEntityEvent@@@Z 
?H0x044d0075_FireOrHit_10@CNpcBase@@QAEHABVCEntityEvent@@@Z 
?H0x044d0076_FireOrHit_11@CNpcBase@@QAEHABVCEntityEvent@@@Z 
?H0x044d0077_FireOrHit_12@CNpcBase@@QAEHABVCEntityEvent@@@Z 
?H0x044d0078_FireOrHit_13@CNpcBase@@QAEHABVCEntityEvent@@@Z 
?H0x044d0099_BeAttackedAnimation_01@CNpcBase@@QAEHABVCEntityEvent@@@Z 
?H0x044d009a_BeAttackedAnimation_02@CNpcBase@@QAEHABVCEntityEvent@@@Z 
?H0x044d009c_BeAttackedAnimationInDeath_01@CNpcBase@@QAEHABVCEntityEvent@@@Z 
?H0x044d009d_BeAttackedAnimationInDeath_02@CNpcBase@@QAEHABVCEntityEvent@@@Z 
?H0x044d009f_DeathSequence_01@CNpcBase@@QAEHABVCEntityEvent@@@Z 
?H0x044d00a0_DeathSequence_02@CNpcBase@@QAEHABVCEntityEvent@@@Z 
?H0x044d00a2_Death_01@CNpcBase@@QAEHABVCEntityEvent@@@Z 
?H0x044d00a3_Death_02@CNpcBase@@QAEHABVCEntityEvent@@@Z 
?H0x044d00a4_Death_03@CNpcBase@@QAEHABVCEntityEvent@@@Z 
?H0x044d00a5_Death_04@CNpcBase@@QAEHABVCEntityEvent@@@Z 
?H0x044d00a6_Death_05@CNpcBase@@QAEHABVCEntityEvent@@@Z 
?H0x044d00a9_Die_01@CNpcBase@@QAEHABVCEntityEvent@@@Z 
?H0x044d00aa_Die_02@CNpcBase@@QAEHABVCEntityEvent@@@Z 
?H0x044d00ac_Active_01@CNpcBase@@QAEHABVCEntityEvent@@@Z 
?H0x044d00ad_Active_02@CNpcBase@@QAEHABVCEntityEvent@@@Z 
?H0x044d00af_MovePatrol_01@CNpcBase@@QAEHABVCEntityEvent@@@Z 
?H0x044d00b0_MovePatrol_02@CNpcBase@@QAEHABVCEntityEvent@@@Z 
?H0x044d00b1_MovePatrol_03@CNpcBase@@QAEHABVCEntityEvent@@@Z 
?H0x044d00b2_MovePatrol_04@CNpcBase@@QAEHABVCEntityEvent@@@Z 
?H0x044d00b4_Inactive_01@CNpcBase@@QAEHABVCEntityEvent@@@Z 
?H0x044d00b5_Inactive_02@CNpcBase@@QAEHABVCEntityEvent@@@Z 
?H0x044d00b7_LocalEntityMain_01@CNpcBase@@QAEHABVCEntityEvent@@@Z 
?H0x044d00b8_LocalEntityMain_02@CNpcBase@@QAEHABVCEntityEvent@@@Z 
?H0x044d00ba_RemoteEntityMain_01@CNpcBase@@QAEHABVCEntityEvent@@@Z 
?H0x044d00bb_RemoteEntityMain_02@CNpcBase@@QAEHABVCEntityEvent@@@Z 
?H0x044d00bd_MainLoop_01@CNpcBase@@QAEHABVCEntityEvent@@@Z 
?H0x044d00be_MainLoop_02@CNpcBase@@QAEHABVCEntityEvent@@@Z 
?H0x044d00bf_MainLoop_03@CNpcBase@@QAEHABVCEntityEvent@@@Z 
?H0x044d00c0_MainLoop_04@CNpcBase@@QAEHABVCEntityEvent@@@Z 
?H0x044d00c1_MainLoop_05@CNpcBase@@QAEHABVCEntityEvent@@@Z 
?H0x044d00c2_MainLoop_06@CNpcBase@@QAEHABVCEntityEvent@@@Z 
?H0x044d00c3_MainLoop_07@CNpcBase@@QAEHABVCEntityEvent@@@Z 
?H0x044d00c4_MainLoop_08@CNpcBase@@QAEHABVCEntityEvent@@@Z 
?H0x044d00c5_MainLoop_09@CNpcBase@@QAEHABVCEntityEvent@@@Z 
?H0x044d00c6_MainLoop_10@CNpcBase@@QAEHABVCEntityEvent@@@Z 
?H0x044d00c7_MainLoop_11@CNpcBase@@QAEHABVCEntityEvent@@@Z 
?H0x044d00c8_MainLoop_12@CNpcBase@@QAEHABVCEntityEvent@@@Z 
?H0x044d00c9_MainLoop_13@CNpcBase@@QAEHABVCEntityEvent@@@Z 
?H0x044d00ca_MainLoop_14@CNpcBase@@QAEHABVCEntityEvent@@@Z 
?H0x044d00cb_MainLoop_15@CNpcBase@@QAEHABVCEntityEvent@@@Z 
?H0x044d00cc_MainLoop_16@CNpcBase@@QAEHABVCEntityEvent@@@Z 
?H0x044d00cd_MainLoop_17@CNpcBase@@QAEHABVCEntityEvent@@@Z 
?H0x044d00ce_MainLoop_18@CNpcBase@@QAEHABVCEntityEvent@@@Z 
?H0x044d00cf_MainLoop_19@CNpcBase@@QAEHABVCEntityEvent@@@Z 
?H0x044d00d0_MainLoop_20@CNpcBase@@QAEHABVCEntityEvent@@@Z 
?H0x044d00d1_MainLoop_21@CNpcBase@@QAEHABVCEntityEvent@@@Z 
?H0x044f0003_Active_01@CNpcWatcher@@QAEHABVCEntityEvent@@@Z 
?H0x044f0004_Active_02@CNpcWatcher@@QAEHABVCEntityEvent@@@Z 
?H0x044f0005_Active_03@CNpcWatcher@@QAEHABVCEntityEvent@@@Z 
?H0x044f0006_Active_04@CNpcWatcher@@QAEHABVCEntityEvent@@@Z 
?H0x044f0008_Inactive_01@CNpcWatcher@@QAEHABVCEntityEvent@@@Z 
?H0x044f0009_Inactive_02@CNpcWatcher@@QAEHABVCEntityEvent@@@Z 
?H0x044f000a_Main_01@CNpcWatcher@@QAEHABVCEntityEvent@@@Z 
?H0x044f000b_Main_02@CNpcWatcher@@QAEHABVCEntityEvent@@@Z 
?H0x05380001_Main_01@CPlayerAnimatorBase@@QAEHABVCEntityEvent@@@Z 
?H0x05380002_Main_02@CPlayerAnimatorBase@@QAEHABVCEntityEvent@@@Z 
?H0x053c0002_Main_01@CPlayerWeaponBase@@QAEHABVCEntityEvent@@@Z 
?H0x053c0003_Main_02@CPlayerWeaponBase@@QAEHABVCEntityEvent@@@Z 
?HandleCenterCamera@CPlayerView@@QAEXXZ 
?HandleEvent@CEnemyBase@@UAEHABVCEntityEvent@@@Z 
?HandleEvent@CNpcBase@@UAEHABVCEntityEvent@@@Z 
?HandleEvent@CPlayer@@UAEHABVCEntityEvent@@@Z 
?HandleMoving@CPlayerView@@QAEXXZ 
?HaveAdjustHeight@CNpcBase@@UAEHXZ 
?HeadmanBomberman@CProjectile@@QAEXXZ 
?HeadmanBombermanExplosion@CProjectile@@QAEXXZ 
?HeadmanFirecracker@CProjectile@@QAEXXZ 
?HeadmanRocketman@CProjectile@@QAEXXZ 
?HeadmanType_enum@@3VCEntityPropertyEnumType@@A 
?HeadmanType_values@@3PAVCEntityPropertyEnumValue@@A 
?HealthItemType_enum@@3VCEntityPropertyEnumType@@A 
?HealthItemType_values@@3PAVCEntityPropertyEnumValue@@A 
?HidePopupMsg@CPlayer@@QAEXXZ 
?HigherMass@CEnemyRunInto@@UAEHXZ 
?HimmelTowerWatch@CNpcWatcher@@QAEXXZ 
?Hit@CEnemyBase@@QAEHABVCEntityEvent@@@Z 
?Hit@CEnemyDive@@QAEHABVCEntityEvent@@@Z 
?Hit@CEnemyFly@@QAEHABVCEntityEvent@@@Z 
?Hit@CNpcBase@@QAEHABVCEntityEvent@@@Z 
?HoldAttack@CPlayer@@QAEXH@Z 
?IdleAnim@CNpcBase@@UAEMXZ 
?IdleSound@CEnemyBase@@UAEXXZ 
?IdleSound@CNpcBase@@UAEXXZ 
?IfTargetCrushed@CEnemyBase@@QAEHPAVCEntity@@ABV?$Vector@M$02@@@Z 
?InItHeartProjectile@CProjectile@@QAEXXZ 
?InRange@CPlayer@@QAEHMMM@Z 
?Inactive@CEnemyBase@@QAEHABVCEntityEvent@@@Z 
?Inactive@CNpcBase@@QAEHABVCEntityEvent@@@Z 
?Inactive@CNpcWatcher@@QAEHABVCEntityEvent@@@Z 
?Inactive@CWatcher@@QAEHABVCEntityEvent@@@Z 
?IncreaseChaosPoint@CPlayer@@QAEXH@Z 
?IncreaseChaosPoint@CPlayer@@QAEXJ@Z 
?IncreaseKickedMass@CEnemyRunInto@@QAEXPAVCEntity@@@Z 
?InformCreateNpcToSwitch@CNpcBase@@QAEXXZ 
?Init@CPlayerWeaponBase@@QAEXXZ 
?InitAmeliaDistanceShoot@CProjectile@@QAEXXZ 
?InitAnimator@CPlayer@@QAEXXZ 
?InitArachneShoot@CProjectile@@QAEXXZ 
?InitArchangelShoot@CProjectile@@QAEXXZ 
?InitArcherShoot@CProjectile@@QAEXXZ 
?InitArmorFlag@CPlayer@@QAEXXZ 
?InitArrowPoisonProjectile@CProjectile@@QAEXXZ 
?InitBead@CPlayer@@QAEXXZ 
?InitBerserkerWolfShoot@CProjectile@@QAEXXZ 
?InitBladeFlame@CPlayer@@QAEXXZ 
?InitBladeInfo@CPlayerWeaponBase@@QAEXXZ 
?InitCollisionObjects@CPlayer@@QAEXXZ 
?InitDeathKnightShoot@CProjectile@@QAEXXZ 
?InitDelayDistanceShoot@CProjectile@@QAEXVCTString@@M@Z 
?InitEnchantItemHalo@CPlayer@@QAEXXZ 
?InitEndRoundAwardPoint@CPlayer@@QAEXXZ 
?InitEquipmentSetEffect@CPlayer@@QAEXXZ 
?InitFallinCupidShoot@CProjectile@@QAEXH@Z 
?InitGargoyleShoot@CProjectile@@QAEXXZ 
?InitGoblinShoot@CProjectile@@QAEXXZ 
?InitGolemStoneProjectile@CProjectile@@QAEXXZ 
?InitGrimReaperShoot@CProjectile@@QAEXXZ 
?InitGrimReaperShootEffect@CProjectile@@QAEXXZ 
?InitHimmelGolemDistanceShoot@CProjectile@@QAEXVELaunchProjectile@@@Z 
?InitHimmelTowerDistanceShoot@CProjectile@@QAEXVELaunchProjectile@@@Z 
?InitHolyLight@CPlayer@@QAEXXZ 
?InitItemEffectProbability@CPlayer@@QAEXXZ 
?InitLogReceiveDamageTime@CPlayer@@QAEXXZ 
?InitLoversCupidArrow@CProjectile@@QAEXXZ 
?InitMageSpells@CPlayer@@QAEXXZ 
?InitMedusaShoot@CProjectile@@QAEXXZ 
?InitMovePatrolPathChangeClient@CNpcBase@@QAE_NXZ 
?InitNecromancyShoot@CProjectile@@QAEXXZ 
?InitParticles@@YAXXZ 
?InitPirateCaptainShoot@CProjectile@@QAEXXZ 
?InitPonytail@CPlayer@@QAEXXZ 
?InitPuppeteerShoot@CProjectile@@QAEXXZ 
?InitQuestSwitch@CLevelScriptor@@AAEXPAVCQstSwitch@@PAU_s_switch@@@Z 
?InitQuestTrigger@CLevelScriptor@@AAEXPAVCQstTrigger@@PAU_s_trigger@@@Z 
?InitShadowObjects@CNpcBase@@QAEXXZ 
?InitShadowObjects@CPlayer@@QAEXXZ 
?InitSilverDragonShoot@CProjectile@@QAEXXZ 
?InitSocketSpecialAbilityCurse@CPlayer@@QAEXXZ 
?InitSocketSpecialAbilityFear@CPlayer@@QAEXXZ 
?InitSocketSpecialAbilityFreeze@CPlayer@@QAEXXZ 
?InitSocketSpecialAbilitySlow@CPlayer@@QAEXXZ 
?InitSocketSpecialAbilitySucking@CPlayerWeaponBase@@QAEXXZ 
?InitSocketStageEffectItem@CPlayer@@QAEXXZ 
?InitSpearShoot@CProjectile@@QAEXXZ 
?InitSpread@CPlayerWeaponBase@@QAEXXZ 
?InitTest@CNavigationMarker@@QAEXXZ 
?InitTextures@CPlayer@@QAEXXZ 
?InitWeaponFlame@CPlayer@@QAEXXZ 
?InitWeapons@CPlayer@@QAEXXZ 
?InitYetiShoot@CProjectile@@QAEXXZ 
?Initialization@CBeginnersHelpData@@AAEXXZ 
?Initialization@CTreeBeginnersHelpData@@AAEXXZ 
?Initialize@CAbuseStr_Filter@@QAEHXZ 
?Initialize@CBuddyFishingDefense@@QAEHXZ 
?Initialize@CCharName_Filter@@QAEHXZ 
?Initialize@CConstAchievementData@@QAEKXZ 
?Initialize@CConstAlphabetData@@QAEKXZ 
?Initialize@CConstAttributeData@@QAEKXZ 
?Initialize@CConstAttributeObjectData@@QAEKXZ 
?Initialize@CConstAttributeOpenData@@QAEKXZ 
?Initialize@CConstAttributeReinforceData@@QAEKXZ 
?Initialize@CConstClanEmblemData@@QAEKXZ 
?Initialize@CConstCreatureBookCollectionData@@QAEKXZ 
?Initialize@CConstCreatureBookData@@QAEKXZ 
?Initialize@CConstCreatureSynthesisData@@QAEKXZ 
?Initialize@CConstEventKillCountData@@QAEKXZ 
?Initialize@CConstItemData@@QAEKXZ 
?Initialize@CConstNewGolemNpcData@@QAEKXZ 
?Initialize@CConstNewGolemPlayerData@@QAEKXZ 
?Initialize@CConstObjectToolTip@@QAEKXZ 
?Initialize@CConstPreloadCreatureData@@QAEKXZ 
?Initialize@CConstPreloadGameResource@@QAEKXZ 
?Initialize@CConstPremiumPack@@QAEKXZ 
?Initialize@CConstQuestData@@QAEKXZ 
?Initialize@CConstRageGaugeData@@QAEKXZ 
?Initialize@CConstSetEffectEquipmentData@@QAEKXZ 
?Initialize@CConstStageEffectItem@@QAEKXZ 
?Initialize@CConstTapMiniMapInfoData@@QAEKXZ 
?Initialize@CConstTutorialQuestData@@QAEKXZ 
?Initialize@CEmiter@@QAEXPAVCEntity@@@Z 
?Initialize@CExceptionMapCreatureList@@QAEKXZ 
?Initialize@CServantCreatureListData@@QAEKXZ 
?Initialize@ConstEventNoticeData@@QAEKXZ 
?Initialize@ConstGachaItemData@@QAEKXZ 
?Initialize@ConstLoginGaugeRewardData@@QAEKXZ 
?Initialize@ConstProduceItemData@@QAEKXZ 
?Initialize@ConstSpecialDiscountEventData@@QAEKXZ 
?Initialize@ConstStageRewardData@@QAEKXZ 
?InitializeAttack@CEnemyBase@@QAEHABVCEntityEvent@@@Z 
?InitializeAttack@CNpcBase@@QAEXXZ 
?InitializeCannonBall@CCannonBall@@QAEXXZ 
?InitializeFromNet@CCannonBall@@UAEXXZ 
?InitializeFromNet@CLarvaOffspring@@UAEXXZ 
?InitializeFromNet@CProjectile@@UAEXXZ 
?InitializeFromNet@CReminder@@UAEXXZ 
?InitializeFromNet@CSpinner@@UAEXXZ 
?InitializeItem@CItem@@QAEXXZ 
?InitializeParticle@CParticleEmitter@@QAEXXZ 
?InitializePlacement@CNpcBase@@UAEXXZ 
?InitializePlacement@CPlayer@@QAEXW4EReSpawnType@@V?$Vector@M$02@@@Z 
?InitializeProjectile@CLarvaOffspring@@QAEXXZ 
?InitializeProperties@CPlayer@@QAEXXZ 
?InitializeProperties@CPlayerAnimatorBase@@QAEXXZ 
?InitializeTactics@CEnemyBase@@QAEXXZ 
?InitializeTrail@CNpcBase@@UAEXXZ 
?InitializeVar@CNpcBase@@UAEXXZ 
?InitializeWeapons@CPlayerWeaponBase@@QAEXJJJM@Z 
?InsertStageGetItems@CPlayer@@QAEXXZ 
?InsertStageRankRewardText@CPlayer@@QAEXVCTString@@@Z 
?Instance@?1??GetInstance@CItemManager@@SAPAV2@XZ@4V2@A 
?InstanceTag@CBeginnersHelpData@@AAE?B_NW4_stat_flag@BeginnersHelp@@@Z 
?InstanceTag@CLevelScriptor@@QAEHW4_stat_flag@@@Z 
?InstanceTag@CTreeBeginnersHelpData@@AAE?B_NW4_stat_flag@TreeBeginnersHelp@@@Z 
?Insult@CPlayer@@QAEXPAV1@@Z 
?Interpreteword@CBeginnersHelpData@@AAE?AW4_tagstring_id@BeginnersHelp@@AAVCTString@@@Z 
?Interpreteword@CLevelScriptor@@QAE?AW4_tagstring_id@@AAVCTString@@@Z 
?Interpreteword@CTreeBeginnersHelpData@@AAE?AW4_tagstring_id@TreeBeginnersHelp@@AAVCTString@@@Z 
?Invincible@CPlayer@@QAEXVESpawnInvincible@@@Z 
?IsAlive@CNpcBase@@QAEHXZ 
?IsAlive@CPlayer@@QBEHXZ 
?IsAllTeamMemgerDead@CPlayer@@QAEHXZ 
?IsAnimationExist@CPlayerAnimatorBase@@QAEHAAVCTString@@@Z 
?IsArmorBroken@CPlayer@@QAEHJ@Z 
?IsAttacking@CPlayerAnimatorBase@@QAEHXZ 
?IsAttributeCreature@CConstAttributeObjectData@@QAE_NK@Z 
?IsBadFPS@CPlayer@@QAEHXZ 
?IsBadPing@CPlayer@@QAEHXZ 
?IsBattleMap@@YAHW4GAMETYPE@@@Z 
?IsBlackTeam@@YAHPBVCMovableEntity@@@Z 
?IsBladeFlagOn@CNpcBase@@QAEHXZ 
?IsBlueTeam@@YAHE@Z 
?IsBlueTeam@@YAHPBVCMovableEntity@@@Z 
?IsBoneFlagOn@CNpcBase@@QAEHVCTString@@@Z 
?IsBoneID@CPlayer@@QAEHVCTString@@@Z 
?IsBuyType@CSaleEvent@@QAE_NE@Z 
?IsCalcBoneMtx@CNpcBase@@QAEHXZ 
?IsChaosMaxPotion@CPlayer@@QAEHXZ 
?IsChargeChaosPoint@CPlayer@@QAEHXZ 
?IsClanWarMap@@YAHW4GAMETYPE@@@Z 
?IsConnected@CPlayer@@QAEHXZ 
?IsCurrentOnBuff@CNpcBase@@UAEHKPAVCEntity@@@Z 
?IsCurrentOnBuff@CPlayer@@UAEHKPAVCEntity@@@Z 
?IsDead@CNpcBase@@QAEHXZ 
?IsDead@CPlayer@@QBEHXZ 
?IsDownAnimation@CPlayer@@QAEHVCTString@@@Z 
?IsElemental@CPlayerWeaponBase@@QAE_NG@Z 
?IsEnemy@@YAHPBVCMovableEntity@@0@Z 
?IsFieldObserver@CPlayer@@QBE?AV?$xEncryptType@H@@XZ 
?IsFlagOn@CPlayer@@QAEHVCTString@@@Z 
?IsFlagOn@CPlayerAnimatorBase@@QAEHVCTString@@@Z 
?IsGMObserver@CPlayer@@QAEHXZ 
?IsGoldMasterGolem@CNpcBase@@QAEHPAVCEntity@@@Z 
?IsGrayTeam@@YAHPBVCMovableEntity@@@Z 
?IsHaveMasterPlayer@CNpcBase@@QAEHPAVCEntity@@AAE@Z 
?IsHitFlagOn@CPlayerWeaponBase@@QAEHXZ 
?IsHoldAttack@CPlayer@@QAEHXZ 
?IsInFront@CNpcBase@@QAEHPAVCEntity@@0@Z 
?IsInFront@CPlayer@@QAEHPAVCEntity@@0@Z 
?IsInFrustum@CEnemyBase@@QAEHPAVCEntity@@M@Z 
?IsInFrustum@CNpcBase@@QAEHPAVCEntity@@M@Z 
?IsInFrustum@CPlayer@@QAEHPAVCEntity@@M@Z 
?IsInPlaneFrustum@CEnemyBase@@QAEHPAVCEntity@@M@Z 
?IsInPlaneFrustum@CNpcBase@@QAEHPAVCEntity@@M@Z 
?IsInSector@CNpcBase@@QAEHPAVCEntity@@@Z 
?IsInVerticalFrustum@CNpcBase@@QAEHPAVCEntity@@M@Z 
?IsInclude_AbuseStr@CAbuseStr_Filter@@QAEHVCTString@@@Z 
?IsInclude_AbuseStr@CAbuseStr_Filter@@QAEPAUAbuseStr_t@@VCTString@@AAV3@1@Z 
?IsInvincible@CPlayer@@QAE_NXZ 
?IsItemType@CSaleEvent@@QAE_NE@Z 
?IsJumping@CPlayerAnimatorBase@@QAE_NXZ 
?IsLimitedSell@CItemManager@@QAEABW4OPEN_TYPE@CLimitedSell@@XZ 
?IsLimitedSell@CLimitedSell@@QAEABW4OPEN_TYPE@1@XZ 
?IsLimitedSellState@CItemManager@@QAEABW4SHOP_STATE@CLimitedSell@@XZ 
?IsLocalEntity@CPlayerAnimatorBase@@QAEHXZ 
?IsLocalEntity@CPlayerWeaponBase@@QAEHXZ 
?IsMage@CPlayer@@QBEHXZ 
?IsMarker@CNavigationMarker@@UBEHXZ 
?IsMasterClient@CPlayer@@QAEHXZ 
?IsMasterGolemDead@CPlayer@@QAEHXZ 
?IsMoveForEnemy@CNpcBase@@UAEHXZ 
?IsMoveForState@CNpcBase@@QAEHXZ 
?IsNotBuyItem@CItemManager@@QAE_NG@Z 
?IsNpc@CNpcBase@@UAEHXZ 
?IsOnePlusOneItem@CItemManager@@QAE_NQBU_StatusData@@@Z 
?IsPlayerFlagOff@CPlayer@@QAEHJ@Z 
?IsPlayerFlagOn@CPlayer@@QAEHJ@Z 
?IsPlayerOrNPCEntity@CPlayerWeaponBase@@QAE_NPAVCEntity@@@Z 
?IsPlayerReady@CPlayer@@QAEHXZ 
?IsRangeShooting@CPlayerAnimatorBase@@QAEHXZ 
?IsRedTeam@@YAHE@Z 
?IsRedTeam@@YAHPBVCMovableEntity@@@Z 
?IsReduceGauge@CPlayer@@QAEHXZ 
?IsRenderHalo@CPlayer@@QAE_NXZ 
?IsSale@CSaleEvent@@QBE_NXZ 
?IsSaleItem@CItemManager@@QAE_NQBU_StatusData@@@Z 
?IsSaleItemType@CItemManager@@QAE_NE@Z 
?IsSentOverNet@CNpcWatcher@@UBEHXZ 
?IsSentOverNet@CPlayerView@@UBEHXZ 
?IsSentOverNet@CWatcher@@UBEHXZ 
?IsSerVantCreature@CNpcBase@@UAEHGGJEE@Z 
?IsSpecialEffect@CPlayer@@QAE_NXZ 
?IsState@CLimitedSell@@QAEABW4SHOP_STATE@1@XZ 
?IsSummoning@CNpcBase@@QAEHXZ 
?IsSupportServer@@YAHHG@Z 
?IsTargetable@CEnemyBase@@UBEHXZ 
?IsTargetable@CItem@@UBEHXZ 
?IsTargetable@CNavigationMarker@@UBEHXZ 
?IsTargetable@CNpcBase@@UBEHXZ 
?IsTransparentPotion@CPlayer@@QAE_NXZ 
?IsUsable_CharName@CCharName_Filter@@QAEHVCTString@@@Z 
?IsValidForEnemy@CEnemyBase@@QAEHPAVCEntity@@@Z 
?IsValidForEnemy@CNpcBase@@QAEHPAVCEntity@@@Z 
?IsValidForTeam@CNpcBase@@QAEHPAVCEntity@@@Z 
?IsValidReceiveDamage@CNpcBase@@QAEHPAVCEntity@@@Z 
?IsValidReceiveDamage@CNpcBase@@QAEHPAVCEntity@@M@Z 
?IsVisible@CEnemyBase@@QAEHPAVCEntity@@@Z 
?IsVisible@CNpcBase@@QAEHPAVCEntity@@@Z 
?IsVisibleCheckAll@CEnemyBase@@QAEHPAVCEntity@@@Z 
?IsVisibleCheckAll@CNpcBase@@QAEHPAVCEntity@@@Z 
?IsVisibleCheckAllObject@CNpcBase@@QAEHPAVCEntity@@@Z 
?IsVisibleCheckAllObjectFixedY@CNpcBase@@QAEHPAVCEntity@@@Z 
?IsVisibleCheckAll_Entity@CNpcBase@@QAEPAVCEntity@@PAV2@@Z 
?IsWingPlay@CPlayer@@QAE_NXZ 
?IsZombieTeam@@YAHPBVCMovableEntity@@@Z 
?ItemCollected@CItem@@QAEHABVCEntityEvent@@@Z 
?ItemLoop@CItem@@QAEHABVCEntityEvent@@@Z 
?ItemProperty@CPlayer@@QAE?AVCTString@@H@Z 
?ItemProperty@CPlayerWeaponBase@@QAE?AVCTString@@H@Z 
?ItemPropertyBloodSucking@CPlayerWeaponBase@@QAE?AVCTString@@HAAG@Z 
?ItemPropertyBloodSuckingSocket@CPlayerWeaponBase@@QAE?AVCTString@@HHAAG@Z 
?ItemPropertySocket@CPlayer@@QAE?AVCTString@@HH@Z 
?ItemReceived@CItem@@QAEHABVCEntityEvent@@@Z 
?ItemSpecialAbilityCurse@CPlayer@@QAEXXZ 
?ItemSpecialAbilityFear@CPlayer@@QAEXXZ 
?ItemSpecialAbilityFreeze@CPlayer@@QAEXXZ 
?ItemSpecialAbilitySlow@CPlayer@@QAEXXZ 
?ItemSpecialAbilitySucking@CPlayerWeaponBase@@QAEXXZ 
?Item_Script@CPlayerWeaponBase@@QAE?AVCTString@@W4ECharInv_ItemClass@@@Z 
?JumpFromBouncer@@YAXPAVCEntity@@0@Z 
?KeyItemType_enum@@3VCEntityPropertyEnumType@@A 
?KeyItemType_values@@3PAVCEntityPropertyEnumValue@@A 
?KickEntity@@YAXPAVCEntity@@V?$Vector@M$02@@@Z 
?KickSpinEntity@@YAXPAVCEntity@@V?$Vector@M$02@@1@Z 
?KillMessage@CPlayer@@QAEXJHVCTFileName@@VCTString@@11@Z 
?KillMessageZombieMode@CPlayer@@QAEXXZ 
?KillSwitchPointer@CItem@@QAEXXZ 
?LacalEntityChangeArousedPhase@CNpcBase@@QAEHABVCEntityEvent@@@Z 
?LarvaOffspringGuidedSlide@CLarvaOffspring@@QAEHABVCEntityEvent@@@Z 
?LarvaPlasma@CProjectile@@QAEXXZ 
?LarvaPlasmaExplosion@CProjectile@@QAEXXZ 
?LarvaTailExplosion@CLarvaOffspring@@QAEXXZ 
?LarvaTarget_enum@@3VCEntityPropertyEnumType@@A 
?LarvaTarget_values@@3PAVCEntityPropertyEnumValue@@A 
?LaserType_enum@@3VCEntityPropertyEnumType@@A 
?LaserType_values@@3PAVCEntityPropertyEnumValue@@A 
?LaunchBullet@CBullet@@QAEXHHH@Z 
?LavaBall@CProjectile@@QAEXXZ 
?LavaBallExplosion@CProjectile@@QAEXXZ 
?LavaManBomb@CProjectile@@QAEXXZ 
?LavamanBombDebrisExplosion@CProjectile@@QAEXXZ 
?LavamanBombExplosion@CProjectile@@QAEXXZ 
?LeaveStain@CEnemyBase@@UAEXH@Z 
?LeaveStain@CNpcBase@@UAEXH@Z 
?LeaveStain@CPlayer@@UAEXH@Z 
?LensFlareType_enum@@3VCEntityPropertyEnumType@@A 
?LensFlareType_values@@3PAVCEntityPropertyEnumValue@@A 
?LerpPlacementsPrecise@@YA?AVCPlacement3D@@ABV1@0M@Z 
?LevelUp@CPlayer@@QAEXJ@Z 
?LightType_enum@@3VCEntityPropertyEnumType@@A 
?LightType_values@@3PAVCEntityPropertyEnumValue@@A 
?LimitedSellItemClear@CItemManager@@QAEXXZ 
?Linefeed@CBeginnersHelpData@@AAEJXZ 
?Linefeed@CLevelScriptor@@QAEJXZ 
?Linefeed@CTreeBeginnersHelpData@@AAEJXZ 
?LinkSwitch_Trigger@CLevelScriptor@@AAEXXZ 
?ListenFromEntity@CPlayer@@QAEXPAVCEntity@@ABVCPlacement3D@@@Z 
?LiveEntityTouched@CEnemyRunInto@@UAEXVETouch@@@Z 
?LoadAchievement@CConstAchievementData@@QAE_NPAVTiXmlDocument@@@Z 
?LoadAttribute@CConstAttributeData@@AAE_NPAVTiXmlDocument@@@Z 
?LoadAttributeOpen@CConstAttributeOpenData@@AAE_NPAVTiXmlDocument@@@Z 
?LoadAttributeStoneTexture@CNpcBase@@QAEXXZ 
?LoadCreature@CConstCreatureBookData@@AAE_NPAVTiXmlDocument@@@Z 
?LoadCreatureAttributeObject@CConstAttributeObjectData@@AAE_NPAVTiXmlDocument@@@Z 
?LoadCreatureBookCollection@CConstCreatureBookCollectionData@@AAE_NPAVTiXmlDocument@@@Z 
?LoadCreatureSynthesis@CConstCreatureSynthesisData@@AAE_NPAVTiXmlDocument@@@Z 
?LoadExceptionMapCreatureListOpen@CExceptionMapCreatureList@@AAE_NPAVTiXmlDocument@@@Z 
?LoadGameResourceFilePath@CConstPreloadGameResource@@QAE_NPAVTiXmlDocument@@@Z 
?LoadLevelFile@CLevelScriptor@@QAEPADPAD@Z 
?LoadLua@CPlayer@@QAE_NVCTString@@@Z 
?LoadLua@CPlayerWeaponBase@@QAE_NVCTString@@@Z 
?LoadObjectFilePath@CConstPreloadCreatureData@@QAE_NPAVTiXmlDocument@@@Z 
?LoadProduceItem@ConstEventNoticeData@@QAE_NPAVTiXmlDocument@@@Z 
?LoadProduceItem@ConstGachaItemData@@QAE_NPAVTiXmlDocument@@@Z 
?LoadProduceItem@ConstLoginGaugeRewardData@@QAE_NPAVTiXmlDocument@@@Z 
?LoadProduceItem@ConstProduceItemData@@QAE_NPAVTiXmlDocument@@@Z 
?LoadProduceItem@ConstSpecialDiscountEventData@@QAE_NPAVTiXmlDocument@@@Z 
?LoadProduceItem@ConstStageRewardData@@QAE_NPAVTiXmlDocument@@@Z 
?LoadQuest@CConstQuestData@@AAE_NPAVTiXmlDocument@@@Z 
?LoadQuest@CConstTutorialQuestData@@AAE_NPAVTiXmlDocument@@@Z 
?LoadReinforce@CConstAttributeReinforceData@@AAE_NPAVTiXmlDocument@@@Z 
?LoadReward@CConstQuestData@@AAE_NPAVTiXmlDocument@@@Z 
?LoadReward@CConstTutorialQuestData@@AAE_NPAVTiXmlDocument@@@Z 
?LoadServantCreatureListOpen@CServantCreatureListData@@AAE_NPAVTiXmlDocument@@@Z 
?LoadSetEffectEquipment@CConstSetEffectEquipmentData@@QAE_NPAVTiXmlDocument@@@Z 
?LoadSkaModel@@YAXAAVCModelInstance@@PAVCEntity@@J@Z 
?LoadTexture@CNpcBase@@UAEXXZ 
?LoadXML@CConstAchievementData@@QAE_NAAVTiXmlDocument@@HPAD@Z 
?LoadXML@CConstAchievementData@@QAE_NAAVTiXmlDocument@@PBD@Z 
?LoadXML@CConstAlphabetData@@AAE_NAAVTiXmlDocument@@HPAD@Z 
?LoadXML@CConstAlphabetData@@AAE_NAAVTiXmlDocument@@PBD@Z 
?LoadXML@CConstAttributeData@@AAE_NAAVTiXmlDocument@@HPAD@Z 
?LoadXML@CConstAttributeData@@AAE_NAAVTiXmlDocument@@PBD@Z 
?LoadXML@CConstAttributeObjectData@@AAE_NAAVTiXmlDocument@@HPAD@Z 
?LoadXML@CConstAttributeObjectData@@AAE_NAAVTiXmlDocument@@PBD@Z 
?LoadXML@CConstAttributeOpenData@@AAE_NAAVTiXmlDocument@@HPAD@Z 
?LoadXML@CConstAttributeOpenData@@AAE_NAAVTiXmlDocument@@PBD@Z 
?LoadXML@CConstAttributeReinforceData@@AAE_NAAVTiXmlDocument@@HPAD@Z 
?LoadXML@CConstAttributeReinforceData@@AAE_NAAVTiXmlDocument@@PBD@Z 
?LoadXML@CConstClanEmblemData@@QAE_NAAVTiXmlDocument@@HPAD@Z 
?LoadXML@CConstClanEmblemData@@QAE_NAAVTiXmlDocument@@PBD@Z 
?LoadXML@CConstCreatureBookCollectionData@@AAE_NAAVTiXmlDocument@@HPAD@Z 
?LoadXML@CConstCreatureBookCollectionData@@AAE_NAAVTiXmlDocument@@PBD@Z 
?LoadXML@CConstCreatureBookData@@AAE_NAAVTiXmlDocument@@HPAD@Z 
?LoadXML@CConstCreatureBookData@@AAE_NAAVTiXmlDocument@@PBD@Z 
?LoadXML@CConstCreatureSynthesisData@@AAE_NAAVTiXmlDocument@@HPAD@Z 
?LoadXML@CConstCreatureSynthesisData@@AAE_NAAVTiXmlDocument@@PBD@Z 
?LoadXML@CConstEventKillCountData@@QAE_NAAVTiXmlDocument@@HPAD@Z 
?LoadXML@CConstEventKillCountData@@QAE_NAAVTiXmlDocument@@PBD@Z 
?LoadXML@CConstNewGolemNpcData@@QAE_NAAVTiXmlDocument@@HPAD@Z 
?LoadXML@CConstNewGolemNpcData@@QAE_NAAVTiXmlDocument@@PBD@Z 
?LoadXML@CConstNewGolemPlayerData@@QAE_NAAVTiXmlDocument@@HPAD@Z 
?LoadXML@CConstNewGolemPlayerData@@QAE_NAAVTiXmlDocument@@PBD@Z 
?LoadXML@CConstObjectToolTip@@QAE_NAAVTiXmlDocument@@HPAD@Z 
?LoadXML@CConstObjectToolTip@@QAE_NAAVTiXmlDocument@@PBD@Z 
?LoadXML@CConstPreloadCreatureData@@QAE_NAAVTiXmlDocument@@HPAD@Z 
?LoadXML@CConstPreloadCreatureData@@QAE_NAAVTiXmlDocument@@PBD@Z 
?LoadXML@CConstPreloadGameResource@@QAE_NAAVTiXmlDocument@@HPAD@Z 
?LoadXML@CConstPreloadGameResource@@QAE_NAAVTiXmlDocument@@PBD@Z 
?LoadXML@CConstPremiumPack@@QAE_NAAVTiXmlDocument@@HPAD@Z 
?LoadXML@CConstPremiumPack@@QAE_NAAVTiXmlDocument@@PBD@Z 
?LoadXML@CConstQuestData@@AAE_NAAVTiXmlDocument@@HPAD@Z 
?LoadXML@CConstQuestData@@AAE_NAAVTiXmlDocument@@PBD@Z 
?LoadXML@CConstRageGaugeData@@QAE_NAAVTiXmlDocument@@HPAD@Z 
?LoadXML@CConstRageGaugeData@@QAE_NAAVTiXmlDocument@@PBD@Z 
?LoadXML@CConstSetEffectEquipmentData@@QAE_NAAVTiXmlDocument@@HPAD@Z 
?LoadXML@CConstSetEffectEquipmentData@@QAE_NAAVTiXmlDocument@@PBD@Z 
?LoadXML@CConstStageEffectItem@@QAE_NAAVTiXmlDocument@@HPAD@Z 
?LoadXML@CConstStageEffectItem@@QAE_NAAVTiXmlDocument@@PBD@Z 
?LoadXML@CConstTapMiniMapInfoData@@QAE_NAAVTiXmlDocument@@HPAD@Z 
?LoadXML@CConstTapMiniMapInfoData@@QAE_NAAVTiXmlDocument@@PBD@Z 
?LoadXML@CConstTutorialQuestData@@AAE_NAAVTiXmlDocument@@HPAD@Z 
?LoadXML@CConstTutorialQuestData@@AAE_NAAVTiXmlDocument@@PBD@Z 
?LoadXML@CExceptionMapCreatureList@@AAE_NAAVTiXmlDocument@@HPAD@Z 
?LoadXML@CExceptionMapCreatureList@@AAE_NAAVTiXmlDocument@@PBD@Z 
?LoadXML@CPartsEffect@@AAE_NAAVTiXmlDocument@@HPAD@Z 
?LoadXML@CPartsEffect@@AAE_NAAVTiXmlDocument@@PBD@Z 
?LoadXML@CServantCreatureListData@@AAE_NAAVTiXmlDocument@@HPAD@Z 
?LoadXML@CServantCreatureListData@@AAE_NAAVTiXmlDocument@@PBD@Z 
?LoadXML@CSetItemEffect@@AAE_NAAVTiXmlDocument@@HPAD@Z 
?LoadXML@CSetItemEffect@@AAE_NAAVTiXmlDocument@@PBD@Z 
?LoadXML@ConstEventNoticeData@@QAE_NAAVTiXmlDocument@@HPAD@Z 
?LoadXML@ConstEventNoticeData@@QAE_NAAVTiXmlDocument@@PBD@Z 
?LoadXML@ConstGachaItemData@@QAE_NAAVTiXmlDocument@@HPAD@Z 
?LoadXML@ConstGachaItemData@@QAE_NAAVTiXmlDocument@@PBD@Z 
?LoadXML@ConstLoginGaugeRewardData@@QAE_NAAVTiXmlDocument@@HPAD@Z 
?LoadXML@ConstLoginGaugeRewardData@@QAE_NAAVTiXmlDocument@@PBD@Z 
?LoadXML@ConstProduceItemData@@QAE_NAAVTiXmlDocument@@HPAD@Z 
?LoadXML@ConstProduceItemData@@QAE_NAAVTiXmlDocument@@PBD@Z 
?LoadXML@ConstSpecialDiscountEventData@@QAE_NAAVTiXmlDocument@@HPAD@Z 
?LoadXML@ConstSpecialDiscountEventData@@QAE_NAAVTiXmlDocument@@PBD@Z 
?LoadXML@ConstStageRewardData@@QAE_NAAVTiXmlDocument@@HPAD@Z 
?LoadXML@ConstStageRewardData@@QAE_NAAVTiXmlDocument@@PBD@Z 
?LoadXML_TiXmlDocument@CPartsEffect@@QAE_NVCTString@@@Z 
?LoadXML_TiXmlDocument@CSetItemEffect@@QAE_NHW4LOAD_XML_TYPE@1@@Z 
?Load_BoneEffectInfo@CPartsEffect@@AAE_NPAVTiXmlDocument@@@Z 
?Load_BoneEffectInfo@CSetItemEffect@@AAE_NPAVTiXmlDocument@@H@Z 
?Load_BoneEffectInfo@CSetItemEffect@@QAEXPAV?$vector@UsBoneEffectInfo@@V?$allocator@UsBoneEffectInfo@@@std@@@std@@@Z 
?Load_EventKillCountInfo@CConstEventKillCountData@@QAE_NPAVTiXmlDocument@@@Z 
?Load_ImageInfo@CConstAlphabetData@@AAE_NPAVTiXmlDocument@@@Z 
?Load_ImageInfo@CConstClanEmblemData@@QAE_NPAVTiXmlDocument@@@Z 
?Load_NewGolemNpcData@CConstNewGolemNpcData@@QAE_NPAVTiXmlDocument@@@Z 
?Load_NewGolemPlayerData@CConstNewGolemPlayerData@@QAE_NPAVTiXmlDocument@@@Z 
?Load_ObjectToolTipData@CConstObjectToolTip@@QAE_NPAVTiXmlDocument@@@Z 
?Load_PartsEffectInfo@CPartsEffect@@QAEXQBUS_USER_ITEM_INFO@@PAV?$vector@UsBoneEffectInfo@@V?$allocator@UsBoneEffectInfo@@@std@@@std@@@Z 
?Load_PreminumPack@CConstPremiumPack@@QAE_NPAVTiXmlDocument@@@Z 
?Load_RageInfo@CConstRageGaugeData@@QAE_NPAVTiXmlDocument@@@Z 
?Load_Scene@CConstAlphabetData@@AAE_NPAVTiXmlDocument@@PBDW4SCEND_MODE@@@Z 
?Load_SetItemInfo@CSetItemEffect@@AAE_NPAVTiXmlDocument@@H@Z 
?Load_StageEffectItemInfo@CConstStageEffectItem@@QAE_NPAVTiXmlDocument@@@Z 
?Load_TapMiniMapInfoData@CConstTapMiniMapInfoData@@QAE_NPAVTiXmlDocument@@@Z 
?Loadfile_stream@CLevelScriptor@@QAEPADPAU_iobuf@@K@Z 
?LocalEntityMain@CNpcBase@@QAEHABVCEntityEvent@@@Z 
?LockOnEnemy@CEnemyBase@@QAEHABVCEntityEvent@@@Z 
?LogReceiveDamageTime@CPlayer@@QAEXXZ 
?LookAroundAnim@CNpcBase@@UAEXXZ 
?Lua_Init@CPlayerWeaponBase@@QAEXXZ 
?Main@CBattleBowAnimator@@QAEHABVCEntityEvent@@@Z 
?Main@CBattleBowWeapon@@QAEHABVCEntityEvent@@@Z 
?Main@CBlackSmithAnimator@@QAEHABVCEntityEvent@@@Z 
?Main@CBlackSmithWeapon@@QAEHABVCEntityEvent@@@Z 
?Main@CBullet@@QAEHABVCEntityEvent@@@Z 
?Main@CCannonBall@@QAEHABVCEntityEvent@@@Z 
?Main@CDualistAnimator@@QAEHABVCEntityEvent@@@Z 
?Main@CDualistWeapon@@QAEHABVCEntityEvent@@@Z 
?Main@CEnemyBase@@QAEHABVCEntityEvent@@@Z 
?Main@CEnemyDive@@QAEHABVCEntityEvent@@@Z 
?Main@CEnemyFly@@QAEHABVCEntityEvent@@@Z 
?Main@CEnemyRunInto@@QAEHABVCEntityEvent@@@Z 
?Main@CLarvaOffspring@@QAEHABVCEntityEvent@@@Z 
?Main@CMageAnimator@@QAEHABVCEntityEvent@@@Z 
?Main@CMageWeapon@@QAEHABVCEntityEvent@@@Z 
?Main@CNavigationMarker@@QAEHABVCEntityEvent@@@Z 
?Main@CNinjaAnimator@@QAEHABVCEntityEvent@@@Z 
?Main@CNinjaWeapon@@QAEHABVCEntityEvent@@@Z 
?Main@CNpcBase@@QAEHABVCEntityEvent@@@Z 
?Main@CNpcWatcher@@QAEHABVCEntityEvent@@@Z 
?Main@CParticleEmitter@@QAEHABVCEntityEvent@@@Z 
?Main@CPlayer@@QAEHABVCEntityEvent@@@Z 
?Main@CPlayerAnimatorBase@@QAEHABVCEntityEvent@@@Z 
?Main@CPlayerView@@QAEHABVCEntityEvent@@@Z 
?Main@CPlayerWeaponBase@@QAEHABVCEntityEvent@@@Z 
?Main@CProjectile@@QAEHABVCEntityEvent@@@Z 
?Main@CReminder@@QAEHABVCEntityEvent@@@Z 
?Main@CSpinner@@QAEHABVCEntityEvent@@@Z 
?Main@CSwordManAnimator@@QAEHABVCEntityEvent@@@Z 
?Main@CSwordmanWeapon@@QAEHABVCEntityEvent@@@Z 
?Main@CWatcher@@QAEHABVCEntityEvent@@@Z 
?MainLoop@CEnemyBase@@QAEHABVCEntityEvent@@@Z 
?MainLoop@CEnemyDive@@QAEHABVCEntityEvent@@@Z 
?MainLoop@CEnemyFly@@QAEHABVCEntityEvent@@@Z 
?MainLoop@CEnemyRunInto@@QAEHABVCEntityEvent@@@Z 
?MainLoop@CNpcBase@@QAEHABVCEntityEvent@@@Z 
?MainLoop_internal@CEnemyBase@@QAEHABVCEntityEvent@@@Z 
?MakeCopy@CellPointinfo@@UAEPAVCEntityEvent@@XZ 
?MakeCopy@EAbuseEarnPoint@@UAEPAVCEntityEvent@@XZ 
?MakeCopy@EActivate@@UAEPAVCEntityEvent@@XZ 
?MakeCopy@EActivateBeam@@UAEPAVCEntityEvent@@XZ 
?MakeCopy@EActivateBlend@@UAEPAVCEntityEvent@@XZ 
?MakeCopy@EActivateSwitchPointer@@UAEPAVCEntityEvent@@XZ 
?MakeCopy@EActivatebySync@@UAEPAVCEntityEvent@@XZ 
?MakeCopy@EActivityBegin@@UAEPAVCEntityEvent@@XZ 
?MakeCopy@EAirElementalContinue@@UAEPAVCEntityEvent@@XZ 
?MakeCopy@EAmmoItem@@UAEPAVCEntityEvent@@XZ 
?MakeCopy@EAmmoPackItem@@UAEPAVCEntityEvent@@XZ 
?MakeCopy@EAnimatorInit@@UAEPAVCEntityEvent@@XZ 
?MakeCopy@EApproachEnemy@@UAEPAVCEntityEvent@@XZ 
?MakeCopy@EArchitectureDeath2@@UAEPAVCEntityEvent@@XZ 
?MakeCopy@EArchitectureDeath@@UAEPAVCEntityEvent@@XZ 
?MakeCopy@EArmor@@UAEPAVCEntityEvent@@XZ 
?MakeCopy@EAttackFire@@UAEPAVCEntityEvent@@XZ 
?MakeCopy@EAttackHit@@UAEPAVCEntityEvent@@XZ 
?MakeCopy@EBarrier@@UAEPAVCEntityEvent@@XZ 
?MakeCopy@EBatteryBlood@@UAEPAVCEntityEvent@@XZ 
?MakeCopy@EBatteryContinue@@UAEPAVCEntityEvent@@XZ 
?MakeCopy@EBatteryDamage@@UAEPAVCEntityEvent@@XZ 
?MakeCopy@EBatteryExplode@@UAEPAVCEntityEvent@@XZ 
?MakeCopy@EBeIdle@@UAEPAVCEntityEvent@@XZ 
?MakeCopy@EBead@@UAEPAVCEntityEvent@@XZ 
?MakeCopy@EBlackIceWind@@UAEPAVCEntityEvent@@XZ 
?MakeCopy@EBless@@UAEPAVCEntityEvent@@XZ 
?MakeCopy@EBlowUp@@UAEPAVCEntityEvent@@XZ 
?MakeCopy@EBombEffect@@UAEPAVCEntityEvent@@XZ 
?MakeCopy@EBonus@@UAEPAVCEntityEvent@@XZ 
?MakeCopy@EBossDamage@@UAEPAVCEntityEvent@@XZ 
?MakeCopy@EBrushDeath@@UAEPAVCEntityEvent@@XZ 
?MakeCopy@EBrushDestroyed@@UAEPAVCEntityEvent@@XZ 
?MakeCopy@EBrushDestroyedByDevil@@UAEPAVCEntityEvent@@XZ 
?MakeCopy@EBuff@@UAEPAVCEntityEvent@@XZ 
?MakeCopy@EBuffAction@@UAEPAVCEntityEvent@@XZ 
?MakeCopy@EBuffClear@@UAEPAVCEntityEvent@@XZ 
?MakeCopy@EBuffEvent@@UAEPAVCEntityEvent@@XZ 
?MakeCopy@EBulletInit@@UAEPAVCEntityEvent@@XZ 
?MakeCopy@ECameraStart@@UAEPAVCEntityEvent@@XZ 
?MakeCopy@ECameraStop@@UAEPAVCEntityEvent@@XZ 
?MakeCopy@ECenterMessage@@UAEPAVCEntityEvent@@XZ 
?MakeCopy@EChangeAnim@@UAEPAVCEntityEvent@@XZ 
?MakeCopy@EChangeCharaType@@UAEPAVCEntityEvent@@XZ 
?MakeCopy@EChangeGravity@@UAEPAVCEntityEvent@@XZ 
?MakeCopy@EChangeMode@@UAEPAVCEntityEvent@@XZ 
?MakeCopy@EChangeMusic@@UAEPAVCEntityEvent@@XZ 
?MakeCopy@EChangeStart@@UAEPAVCEntityEvent@@XZ 
?MakeCopy@EChangeState@@UAEPAVCEntityEvent@@XZ 
?MakeCopy@EChangeWeapon@@UAEPAVCEntityEvent@@XZ 
?MakeCopy@EChaosGuageFull@@UAEPAVCEntityEvent@@XZ 
?MakeCopy@EChargeAttack@@UAEPAVCEntityEvent@@XZ 
?MakeCopy@EChristmasBoxItemTouch@@UAEPAVCEntityEvent@@XZ 
?MakeCopy@EChristmasBoxReceive@@UAEPAVCEntityEvent@@XZ 
?MakeCopy@EChristmasDestroy@@UAEPAVCEntityEvent@@XZ 
?MakeCopy@EChristmasNoticeMessage@@UAEPAVCEntityEvent@@XZ 
?MakeCopy@EChristmasSetting@@UAEPAVCEntityEvent@@XZ 
?MakeCopy@ECloseAttack@@UAEPAVCEntityEvent@@XZ 
?MakeCopy@ECloseAttackKing@@UAEPAVCEntityEvent@@XZ 
?MakeCopy@ECloseQDoor@@UAEPAVCEntityEvent@@XZ 
?MakeCopy@ECollisionState@@UAEPAVCEntityEvent@@XZ 
?MakeCopy@EComputerMessage@@UAEPAVCEntityEvent@@XZ 
?MakeCopy@ECopierTrigger@@UAEPAVCEntityEvent@@XZ 
?MakeCopy@ECounterCount@@UAEPAVCEntityEvent@@XZ 
?MakeCopy@ECredits@@UAEPAVCEntityEvent@@XZ 
?MakeCopy@ECrush@@UAEPAVCEntityEvent@@XZ 
?MakeCopy@ECutSceneObj@@UAEPAVCEntityEvent@@XZ 
?MakeCopy@EDamageDiminution@@UAEPAVCEntityEvent@@XZ 
?MakeCopy@EDamageTypeNet@@UAEPAVCEntityEvent@@XZ 
?MakeCopy@EDeBuff@@UAEPAVCEntityEvent@@XZ 
?MakeCopy@EDeBuffClear@@UAEPAVCEntityEvent@@XZ 
?MakeCopy@EDeactivate@@UAEPAVCEntityEvent@@XZ 
?MakeCopy@EDeactivateBlend@@UAEPAVCEntityEvent@@XZ 
?MakeCopy@EDeactivateSwitchPointer@@UAEPAVCEntityEvent@@XZ 
?MakeCopy@EDestroyEventItem@@UAEPAVCEntityEvent@@XZ 
?MakeCopy@EDevilCommand@@UAEPAVCEntityEvent@@XZ 
?MakeCopy@EDevilContinue@@UAEPAVCEntityEvent@@XZ 
?MakeCopy@EDevilFireElectricity@@UAEPAVCEntityEvent@@XZ 
?MakeCopy@EDevilStopElectricity@@UAEPAVCEntityEvent@@XZ 
?MakeCopy@EDisappear@@UAEPAVCEntityEvent@@XZ 
?MakeCopy@EDisconnected@@UAEPAVCEntityEvent@@XZ 
?MakeCopy@EDistanceAttack@@UAEPAVCEntityEvent@@XZ 
?MakeCopy@EDropBoxItem@@UAEPAVCEntityEvent@@XZ 
?MakeCopy@EDropBoxItemDestroy@@UAEPAVCEntityEvent@@XZ 
?MakeCopy@EDropBoxItemTouch@@UAEPAVCEntityEvent@@XZ 
?MakeCopy@EDropKamikaze@@UAEPAVCEntityEvent@@XZ 
?MakeCopy@EEffectAttack@@UAEPAVCEntityEvent@@XZ 
?MakeCopy@EElectricityStart@@UAEPAVCEntityEvent@@XZ 
?MakeCopy@EElectricityStop@@UAEPAVCEntityEvent@@XZ 
?MakeCopy@EElementalGrow@@UAEPAVCEntityEvent@@XZ 
?MakeCopy@EEnd@@UAEPAVCEntityEvent@@XZ 
?MakeCopy@EEndRound@@UAEPAVCEntityEvent@@XZ 
?MakeCopy@EEnemyBaseDamage@@UAEPAVCEntityEvent@@XZ 
?MakeCopy@EEnemyBaseDeath@@UAEPAVCEntityEvent@@XZ 
?MakeCopy@EEnvironmentStart@@UAEPAVCEntityEvent@@XZ 
?MakeCopy@EEnvironmentStop@@UAEPAVCEntityEvent@@XZ 
?MakeCopy@EEventItemSetting@@UAEPAVCEntityEvent@@XZ 
?MakeCopy@EExplEffect@@UAEPAVCEntityEvent@@XZ 
?MakeCopy@EExplode@@UAEPAVCEntityEvent@@XZ 
?MakeCopy@EExplosion@@UAEPAVCEntityEvent@@XZ 
?MakeCopy@EFear@@UAEPAVCEntityEvent@@XZ 
?MakeCopy@EFearEffect@@UAEPAVCEntityEvent@@XZ 
?MakeCopy@EFlame@@UAEPAVCEntityEvent@@XZ 
?MakeCopy@EFlipTheSwitch@@UAEPAVCEntityEvent@@XZ 
?MakeCopy@EFloatingScore@@UAEPAVCEntityEvent@@XZ 
?MakeCopy@EForceExplode@@UAEPAVCEntityEvent@@XZ 
?MakeCopy@EForcePathMarker@@UAEPAVCEntityEvent@@XZ 
?MakeCopy@EForceWound@@UAEPAVCEntityEvent@@XZ 
?MakeCopy@EFreeze@@UAEPAVCEntityEvent@@XZ 
?MakeCopy@EGetEventItem@@UAEPAVCEntityEvent@@XZ 
?MakeCopy@EGoldGolemRebirth@@UAEPAVCEntityEvent@@XZ 
?MakeCopy@EGoldGolemRespawn@@UAEPAVCEntityEvent@@XZ 
?MakeCopy@EGoldSword@@UAEPAVCEntityEvent@@XZ 
?MakeCopy@EHarbor@@UAEPAVCEntityEvent@@XZ 
?MakeCopy@EHealth@@UAEPAVCEntityEvent@@XZ 
?MakeCopy@EHeart@@UAEPAVCEntityEvent@@XZ 
?MakeCopy@EHit@@UAEPAVCEntityEvent@@XZ 
?MakeCopy@EHitBySpaceShipBeam@@UAEPAVCEntityEvent@@XZ 
?MakeCopy@EHoldAttack@@UAEPAVCEntityEvent@@XZ 
?MakeCopy@EHolyLight@@UAEPAVCEntityEvent@@XZ 
?MakeCopy@EHudPicFX@@UAEPAVCEntityEvent@@XZ 
?MakeCopy@EIceWind@@UAEPAVCEntityEvent@@XZ 
?MakeCopy@EIdle@@UAEPAVCEntityEvent@@XZ 
?MakeCopy@EIndicatorCreate@@UAEPAVCEntityEvent@@XZ 
?MakeCopy@EInitDualistBomb@@UAEPAVCEntityEvent@@XZ 
?MakeCopy@EInitFreeFallModel@@UAEPAVCEntityEvent@@XZ 
?MakeCopy@EInitRangeWeapon@@UAEPAVCEntityEvent@@XZ 
?MakeCopy@EInvincible@@UAEPAVCEntityEvent@@XZ 
?MakeCopy@EKey@@UAEPAVCEntityEvent@@XZ 
?MakeCopy@EKillCount@@UAEPAVCEntityEvent@@XZ 
?MakeCopy@EKilledEnemy@@UAEPAVCEntityEvent@@XZ 
?MakeCopy@ELarvaArmDestroyed@@UAEPAVCEntityEvent@@XZ 
?MakeCopy@ELarvaContinue@@UAEPAVCEntityEvent@@XZ 
?MakeCopy@ELarvaFireLaser@@UAEPAVCEntityEvent@@XZ 
?MakeCopy@ELarvaHealth@@UAEPAVCEntityEvent@@XZ 
?MakeCopy@ELarvaRechargePose@@UAEPAVCEntityEvent@@XZ 
?MakeCopy@ELaserDestroy@@UAEPAVCEntityEvent@@XZ 
?MakeCopy@ELaserParam@@UAEPAVCEntityEvent@@XZ 
?MakeCopy@ELaserReadyDestroy@@UAEPAVCEntityEvent@@XZ 
?MakeCopy@ELaserReadyParam@@UAEPAVCEntityEvent@@XZ 
?MakeCopy@ELaunchCannonBall@@UAEPAVCEntityEvent@@XZ 
?MakeCopy@ELaunchLarvaOffspring@@UAEPAVCEntityEvent@@XZ 
?MakeCopy@ELaunchProjectile@@UAEPAVCEntityEvent@@XZ 
?MakeCopy@ELongBow@@UAEPAVCEntityEvent@@XZ 
?MakeCopy@EMageBarrier@@UAEPAVCEntityEvent@@XZ 
?MakeCopy@EMageBless@@UAEPAVCEntityEvent@@XZ 
?MakeCopy@EMageBomb@@UAEPAVCEntityEvent@@XZ 
?MakeCopy@EMageDispell@@UAEPAVCEntityEvent@@XZ 
?MakeCopy@EMageHold@@UAEPAVCEntityEvent@@XZ 
?MakeCopy@EMageMissile@@UAEPAVCEntityEvent@@XZ 
?MakeCopy@EMageSpell@@UAEPAVCEntityEvent@@XZ 
?MakeCopy@EMagicBomb@@UAEPAVCEntityEvent@@XZ 
?MakeCopy@EMagicMissile@@UAEPAVCEntityEvent@@XZ 
?MakeCopy@EMapItemBomb@@UAEPAVCEntityEvent@@XZ 
?MakeCopy@EMapItemReceive@@UAEPAVCEntityEvent@@XZ 
?MakeCopy@EMapItemRespawn@@UAEPAVCEntityEvent@@XZ 
?MakeCopy@EMapItemSpawnMapNpc@@UAEPAVCEntityEvent@@XZ 
?MakeCopy@EMapItemTouch@@UAEPAVCEntityEvent@@XZ 
?MakeCopy@EMarkPicked@@UAEPAVCEntityEvent@@XZ 
?MakeCopy@EMasterGolemDamage@@UAEPAVCEntityEvent@@XZ 
?MakeCopy@EMasterGolemRespawn@@UAEPAVCEntityEvent@@XZ 
?MakeCopy@EMasterNpcRespawn@@UAEPAVCEntityEvent@@XZ 
?MakeCopy@EMessageItem@@UAEPAVCEntityEvent@@XZ 
?MakeCopy@EModel2Activate@@UAEPAVCEntityEvent@@XZ 
?MakeCopy@EModel2Deactivate@@UAEPAVCEntityEvent@@XZ 
?MakeCopy@EModel3Activate@@UAEPAVCEntityEvent@@XZ 
?MakeCopy@EModel3Deactivate@@UAEPAVCEntityEvent@@XZ 
?MakeCopy@EModelDeath@@UAEPAVCEntityEvent@@XZ 
?MakeCopy@EModelForSequenceMarker@@UAEPAVCEntityEvent@@XZ 
?MakeCopy@EMoveToDestination@@UAEPAVCEntityEvent@@XZ 
?MakeCopy@EMovementAnimation@@UAEPAVCEntityEvent@@XZ 
?MakeCopy@EMovingBrushDeath@@UAEPAVCEntityEvent@@XZ 
?MakeCopy@EMusicChangerTrigger@@UAEPAVCEntityEvent@@XZ 
?MakeCopy@ENetChangeMusic@@UAEPAVCEntityEvent@@XZ 
?MakeCopy@ENetSpawnEntity@@UAEPAVCEntityEvent@@XZ 
?MakeCopy@ENetTrigger@@UAEPAVCEntityEvent@@XZ 
?MakeCopy@ENetTriggerPSS@@UAEPAVCEntityEvent@@XZ 
?MakeCopy@ENewGolemKillTypeBuff@@UAEPAVCEntityEvent@@XZ 
?MakeCopy@ENpcAcdPoison@@UAEPAVCEntityEvent@@XZ 
?MakeCopy@ENpcBaseDamage@@UAEPAVCEntityEvent@@XZ 
?MakeCopy@ENpcBaseDeath@@UAEPAVCEntityEvent@@XZ 
?MakeCopy@ENpcBuff@@UAEPAVCEntityEvent@@XZ 
?MakeCopy@ENpcCocoon@@UAEPAVCEntityEvent@@XZ 
?MakeCopy@ENpcDeadToSwitch@@UAEPAVCEntityEvent@@XZ 
?MakeCopy@ENpcDisappear@@UAEPAVCEntityEvent@@XZ 
?MakeCopy@ENpcExtraSet@@UAEPAVCEntityEvent@@XZ 
?MakeCopy@ENpcFear@@UAEPAVCEntityEvent@@XZ 
?MakeCopy@ENpcFreeze@@UAEPAVCEntityEvent@@XZ 
?MakeCopy@ENpcHP@@UAEPAVCEntityEvent@@XZ 
?MakeCopy@ENpcNoticeChangeMovePatrolState@@UAEPAVCEntityEvent@@XZ 
?MakeCopy@ENpcReconsiderBehavior@@UAEPAVCEntityEvent@@XZ 
?MakeCopy@ENpcSetDummy@@UAEPAVCEntityEvent@@XZ 
?MakeCopy@ENpcSetNormal@@UAEPAVCEntityEvent@@XZ 
?MakeCopy@ENpcStun@@UAEPAVCEntityEvent@@XZ 
?MakeCopy@ENpcTried@@UAEPAVCEntityEvent@@XZ 
?MakeCopy@ENpcWatch@@UAEPAVCEntityEvent@@XZ 
?MakeCopy@ENpcWatcherInit@@UAEPAVCEntityEvent@@XZ 
?MakeCopy@ENpcWeakening@@UAEPAVCEntityEvent@@XZ 
?MakeCopy@EObserver@@UAEPAVCEntityEvent@@XZ 
?MakeCopy@EOpenDoor@@UAEPAVCEntityEvent@@XZ 
?MakeCopy@EOpenQDoor@@UAEPAVCEntityEvent@@XZ 
?MakeCopy@EOverallAttack@@UAEPAVCEntityEvent@@XZ 
?MakeCopy@EParticlesActivate@@UAEPAVCEntityEvent@@XZ 
?MakeCopy@EParticlesDeactivate@@UAEPAVCEntityEvent@@XZ 
?MakeCopy@EPassiveCreate@@UAEPAVCEntityEvent@@XZ 
?MakeCopy@EPhaseCheck@@UAEPAVCEntityEvent@@XZ 
?MakeCopy@EPhaseState@@UAEPAVCEntityEvent@@XZ 
?MakeCopy@EPlayEndMenu@@UAEPAVCEntityEvent@@XZ 
?MakeCopy@EPlayIdleMenu@@UAEPAVCEntityEvent@@XZ 
?MakeCopy@EPlayReturnMenu@@UAEPAVCEntityEvent@@XZ 
?MakeCopy@EPlaySoundOnce@@UAEPAVCEntityEvent@@XZ 
?MakeCopy@EPlayStartMenu@@UAEPAVCEntityEvent@@XZ 
?MakeCopy@EPlayerAcdPoison@@UAEPAVCEntityEvent@@XZ 
?MakeCopy@EPlayerBouncedWall@@UAEPAVCEntityEvent@@XZ 
?MakeCopy@EPlayerDamage@@UAEPAVCEntityEvent@@XZ 
?MakeCopy@EPlayerDeath@@UAEPAVCEntityEvent@@XZ 
?MakeCopy@EPlayerRemainHP@@UAEPAVCEntityEvent@@XZ 
?MakeCopy@EPlayerReset_HP_AP@@UAEPAVCEntityEvent@@XZ 
?MakeCopy@EPowerUp@@UAEPAVCEntityEvent@@XZ 
?MakeCopy@EPrevClearedRank@@UAEPAVCEntityEvent@@XZ 
?MakeCopy@EPrizeValue@@UAEPAVCEntityEvent@@XZ 
?MakeCopy@EProjectileSpawnClient@@UAEPAVCEntityEvent@@XZ 
?MakeCopy@EProjectileSpawnParam@@UAEPAVCEntityEvent@@XZ 
?MakeCopy@EPyramidShipActivate@@UAEPAVCEntityEvent@@XZ 
?MakeCopy@EPyramidShipDeactivate@@UAEPAVCEntityEvent@@XZ 
?MakeCopy@EQMessage@@UAEPAVCEntityEvent@@XZ 
?MakeCopy@EQstSWReady@@UAEPAVCEntityEvent@@XZ 
?MakeCopy@EQstStatus@@UAEPAVCEntityEvent@@XZ 
?MakeCopy@EQstSwOn@@UAEPAVCEntityEvent@@XZ 
?MakeCopy@EQstSwRandom@@UAEPAVCEntityEvent@@XZ 
?MakeCopy@ERangeAttack@@UAEPAVCEntityEvent@@XZ 
?MakeCopy@ERangeAttackKing@@UAEPAVCEntityEvent@@XZ 
?MakeCopy@ERangeModelDestruction@@UAEPAVCEntityEvent@@XZ 
?MakeCopy@ERecallEffect@@UAEPAVCEntityEvent@@XZ 
?MakeCopy@EReceiveItem@@UAEPAVCEntityEvent@@XZ 
?MakeCopy@EReceiveScore@@UAEPAVCEntityEvent@@XZ 
?MakeCopy@EReceiveTotDamage@@UAEPAVCEntityEvent@@XZ 
?MakeCopy@EReconsiderBehavior@@UAEPAVCEntityEvent@@XZ 
?MakeCopy@ERegenerationImpuls@@UAEPAVCEntityEvent@@XZ 
?MakeCopy@EReminder@@UAEPAVCEntityEvent@@XZ 
?MakeCopy@EReminderInit@@UAEPAVCEntityEvent@@XZ 
?MakeCopy@EReportTargetforLeader@@UAEPAVCEntityEvent@@XZ 
?MakeCopy@ERequestHoldAttack@@UAEPAVCEntityEvent@@XZ 
?MakeCopy@ERequestJudge@@UAEPAVCEntityEvent@@XZ 
?MakeCopy@ERespawn@@UAEPAVCEntityEvent@@XZ 
?MakeCopy@ERestartAttack@@UAEPAVCEntityEvent@@XZ 
?MakeCopy@ERestartRound@@UAEPAVCEntityEvent@@XZ 
?MakeCopy@EReturnToEndPatrol@@UAEPAVCEntityEvent@@XZ 
?MakeCopy@EReversal@@UAEPAVCEntityEvent@@XZ 
?MakeCopy@ESaveGame@@UAEPAVCEntityEvent@@XZ 
?MakeCopy@EScorpmanWakeUp@@UAEPAVCEntityEvent@@XZ 
?MakeCopy@EScroll@@UAEPAVCEntityEvent@@XZ 
?MakeCopy@ESecretFound@@UAEPAVCEntityEvent@@XZ 
?MakeCopy@ESeriousBomb@@UAEPAVCEntityEvent@@XZ 
?MakeCopy@ESetFlyState@@UAEPAVCEntityEvent@@XZ 
?MakeCopy@ESetTargetAnim@@UAEPAVCEntityEvent@@XZ 
?MakeCopy@ESetTargetIndicator@@UAEPAVCEntityEvent@@XZ 
?MakeCopy@ESetTargetforGroup@@UAEPAVCEntityEvent@@XZ 
?MakeCopy@ESetType@@UAEPAVCEntityEvent@@XZ 
?MakeCopy@ESetViewer@@UAEPAVCEntityEvent@@XZ 
?MakeCopy@ESetWeapon@@UAEPAVCEntityEvent@@XZ 
?MakeCopy@EShootShuriken@@UAEPAVCEntityEvent@@XZ 
?MakeCopy@EShootWeapon@@UAEPAVCEntityEvent@@XZ 
?MakeCopy@EShortAttack@@UAEPAVCEntityEvent@@XZ 
?MakeCopy@EShortRangeAttack@@UAEPAVCEntityEvent@@XZ 
?MakeCopy@ESoulCannon@@UAEPAVCEntityEvent@@XZ 
?MakeCopy@ESoulCannonDestroy@@UAEPAVCEntityEvent@@XZ 
?MakeCopy@ESoulShot@@UAEPAVCEntityEvent@@XZ 
?MakeCopy@ESound@@UAEPAVCEntityEvent@@XZ 
?MakeCopy@ESpawnBead@@UAEPAVCEntityEvent@@XZ 
?MakeCopy@ESpawnBillBoardImage@@UAEPAVCEntityEvent@@XZ 
?MakeCopy@ESpawnBoneEffect@@UAEPAVCEntityEvent@@XZ 
?MakeCopy@ESpawnBoneEffectModel@@UAEPAVCEntityEvent@@XZ 
?MakeCopy@ESpawnBurning@@UAEPAVCEntityEvent@@XZ 
?MakeCopy@ESpawnCPEffect@@UAEPAVCEntityEvent@@XZ 
?MakeCopy@ESpawnChristmasBox@@UAEPAVCEntityEvent@@XZ 
?MakeCopy@ESpawnCocoon@@UAEPAVCEntityEvent@@XZ 
?MakeCopy@ESpawnDebris@@UAEPAVCEntityEvent@@XZ 
?MakeCopy@ESpawnDebrisSka@@UAEPAVCEntityEvent@@XZ 
?MakeCopy@ESpawnDropBoxItem@@UAEPAVCEntityEvent@@XZ 
?MakeCopy@ESpawnEffect@@UAEPAVCEntityEvent@@XZ 
?MakeCopy@ESpawnEffector@@UAEPAVCEntityEvent@@XZ 
?MakeCopy@ESpawnEventItem@@UAEPAVCEntityEvent@@XZ 
?MakeCopy@ESpawnFlame@@UAEPAVCEntityEvent@@XZ 
?MakeCopy@ESpawnFreeze@@UAEPAVCEntityEvent@@XZ 
?MakeCopy@ESpawnInvincible@@UAEPAVCEntityEvent@@XZ 
?MakeCopy@ESpawnMessage@@UAEPAVCEntityEvent@@XZ 
?MakeCopy@ESpawnNpc@@UAEPAVCEntityEvent@@XZ 
?MakeCopy@ESpawnNpcEffect@@UAEPAVCEntityEvent@@XZ 
?MakeCopy@ESpawnPassive@@UAEPAVCEntityEvent@@XZ 
?MakeCopy@ESpawnPoison@@UAEPAVCEntityEvent@@XZ 
?MakeCopy@ESpawnQstNpc@@UAEPAVCEntityEvent@@XZ 
?MakeCopy@ESpawnReversal@@UAEPAVCEntityEvent@@XZ 
?MakeCopy@ESpawnSpray@@UAEPAVCEntityEvent@@XZ 
?MakeCopy@ESpawnStun@@UAEPAVCEntityEvent@@XZ 
?MakeCopy@ESpawnTried@@UAEPAVCEntityEvent@@XZ 
?MakeCopy@ESpawnWeakening@@UAEPAVCEntityEvent@@XZ 
?MakeCopy@ESpawnerProjectile@@UAEPAVCEntityEvent@@XZ 
?MakeCopy@ESpecialAttackHit@@UAEPAVCEntityEvent@@XZ 
?MakeCopy@ESpinnerInit@@UAEPAVCEntityEvent@@XZ 
?MakeCopy@EStand@@UAEPAVCEntityEvent@@XZ 
?MakeCopy@EStart@@UAEPAVCEntityEvent@@XZ 
?MakeCopy@EStartAttack@@UAEPAVCEntityEvent@@XZ 
?MakeCopy@EStartCounter@@UAEPAVCEntityEvent@@XZ 
?MakeCopy@EStartDrawImage@@UAEPAVCEntityEvent@@XZ 
?MakeCopy@EStartRound@@UAEPAVCEntityEvent@@XZ 
?MakeCopy@EStartSounds@@UAEPAVCEntityEvent@@XZ 
?MakeCopy@EStop@@UAEPAVCEntityEvent@@XZ 
?MakeCopy@EStopAttack@@UAEPAVCEntityEvent@@XZ 
?MakeCopy@EStopBlindness@@UAEPAVCEntityEvent@@XZ 
?MakeCopy@EStopCounter@@UAEPAVCEntityEvent@@XZ 
?MakeCopy@EStopDeafness@@UAEPAVCEntityEvent@@XZ 
?MakeCopy@EStopFlaming@@UAEPAVCEntityEvent@@XZ 
?MakeCopy@EStopSounds@@UAEPAVCEntityEvent@@XZ 
?MakeCopy@EStormEnvironmentStart@@UAEPAVCEntityEvent@@XZ 
?MakeCopy@EStormStart@@UAEPAVCEntityEvent@@XZ 
?MakeCopy@EStormStop@@UAEPAVCEntityEvent@@XZ 
?MakeCopy@ESucking@@UAEPAVCEntityEvent@@XZ 
?MakeCopy@ESummonAttack@@UAEPAVCEntityEvent@@XZ 
?MakeCopy@ESummonEffect@@UAEPAVCEntityEvent@@XZ 
?MakeCopy@ESummonEffectOption@@UAEPAVCEntityEvent@@XZ 
?MakeCopy@ESummonerContinue@@UAEPAVCEntityEvent@@XZ 
?MakeCopy@ESummonerMaterialize@@UAEPAVCEntityEvent@@XZ 
?MakeCopy@ESummonerTeleport@@UAEPAVCEntityEvent@@XZ 
?MakeCopy@ETapMiniMapPickIndex@@UAEPAVCEntityEvent@@XZ 
?MakeCopy@ETeleportActivate@@UAEPAVCEntityEvent@@XZ 
?MakeCopy@ETeleportDeactivate@@UAEPAVCEntityEvent@@XZ 
?MakeCopy@ETeleportMovingBrush@@UAEPAVCEntityEvent@@XZ 
?MakeCopy@ETextFX@@UAEPAVCEntityEvent@@XZ 
?MakeCopy@ETouchSendedByRemote@@UAEPAVCEntityEvent@@XZ 
?MakeCopy@ETreasureItem@@UAEPAVCEntityEvent@@XZ 
?MakeCopy@ETried@@UAEPAVCEntityEvent@@XZ 
?MakeCopy@ETrigger@@UAEPAVCEntityEvent@@XZ 
?MakeCopy@ETriggerEffector@@UAEPAVCEntityEvent@@XZ 
?MakeCopy@ETriggerLightning@@UAEPAVCEntityEvent@@XZ 
?MakeCopy@ETwister@@UAEPAVCEntityEvent@@XZ 
?MakeCopy@EUsePotion@@UAEPAVCEntityEvent@@XZ 
?MakeCopy@EViewInit@@UAEPAVCEntityEvent@@XZ 
?MakeCopy@EVoiceMessage@@UAEPAVCEntityEvent@@XZ 
?MakeCopy@EWatch@@UAEPAVCEntityEvent@@XZ 
?MakeCopy@EWatcherInit@@UAEPAVCEntityEvent@@XZ 
?MakeCopy@EWeakening@@UAEPAVCEntityEvent@@XZ 
?MakeCopy@EWeaponItem@@UAEPAVCEntityEvent@@XZ 
?MakeCopy@EWeaponsInit@@UAEPAVCEntityEvent@@XZ 
?MakeCopy@EWeatherStart@@UAEPAVCEntityEvent@@XZ 
?MakeCopy@EWeatherStop@@UAEPAVCEntityEvent@@XZ 
?MakeCopy@EWingDestroy@@UAEPAVCEntityEvent@@XZ 
?MakeCopy@Effect_AdditionCriticalDamage@@UAEPAVCEntityEvent@@XZ 
?MakeCopy@Effect_AttackSpeed@@UAEPAVCEntityEvent@@XZ 
?MakeCopy@Effect_DecreasePerCritical@@UAEPAVCEntityEvent@@XZ 
?MakeCopy@Effect_DiminishRecvDamage@@UAEPAVCEntityEvent@@XZ 
?MakeCopy@Effect_Heal@@UAEPAVCEntityEvent@@XZ 
?MakeCopy@Effect_HitCreature@@UAEPAVCEntityEvent@@XZ 
?MakeCopy@Effect_HitDistance@@UAEPAVCEntityEvent@@XZ 
?MakeCopy@Effect_HitHold@@UAEPAVCEntityEvent@@XZ 
?MakeCopy@Effect_HitNormal@@UAEPAVCEntityEvent@@XZ 
?MakeCopy@Effect_HitSpecial@@UAEPAVCEntityEvent@@XZ 
?MakeCopy@Effect_Invincible@@UAEPAVCEntityEvent@@XZ 
?MakeCopy@Effect_MoveSpeed@@UAEPAVCEntityEvent@@XZ 
?MakeCopy@Effect_RandomEffect@@UAEPAVCEntityEvent@@XZ 
?MakeCopy@Effect_ReturnDamage@@UAEPAVCEntityEvent@@XZ 
?MakeCopy@arrtail@@UAEPAVCEntityEvent@@XZ 
?MakeCopy@eSpikeSet@@UAEPAVCEntityEvent@@XZ 
?MakeCopy@eSpineInit@@UAEPAVCEntityEvent@@XZ 
?MakeCopy@eSpineSet@@UAEPAVCEntityEvent@@XZ 
?MakeCopy@tail@@UAEPAVCEntityEvent@@XZ 
?MakePTBoneName@CPlayer@@QAE?AVCTString@@JJ@Z 
?MarkPickedBy@CItem@@QAEHPAVCEntity@@@Z 
?MarkRecentlyPickedBy@CItem@@QAEHPAVCEntity@@@Z 
?MayMoveToAttack@CEnemyBase@@UAEHXZ 
?MayMoveToAttack@CEnemyDive@@UAEHXZ 
?MaybeSwitchToAnotherPlayer@CEnemyBase@@QAEXXZ 
?MdlHitEffect@CNpcBase@@QAEXV?$Vector@M$02@@@Z 
?MemoryClear@CBeginnersHelpData@@AAEXXZ 
?MemoryClear@CTreeBeginnersHelpData@@AAEXXZ 
?MenuControllerState_enum@@3VCEntityPropertyEnumType@@A 
?MenuControllerState_values@@3PAVCEntityPropertyEnumValue@@A 
?MessageSound_enum@@3VCEntityPropertyEnumType@@A 
?MessageSound_values@@3PAVCEntityPropertyEnumValue@@A 
?MessageState_enum@@3VCEntityPropertyEnumType@@A 
?MessageState_values@@3PAVCEntityPropertyEnumValue@@A 
?Meteor@CProjectile@@QAEXXZ 
?MeteorExplosion@CProjectile@@QAEXXZ 
?ModelForSequenceCommand_enum@@3VCEntityPropertyEnumType@@A 
?ModelForSequenceCommand_values@@3PAVCEntityPropertyEnumValue@@A 
?MovePathJudgment@CNpcBase@@QAE_NXZ 
?MovePatrol@CNpcBase@@QAEHABVCEntityEvent@@@Z 
?MoveThroughMarkers@CEnemyBase@@QAEHABVCEntityEvent@@@Z 
?MoveToDestination@CEnemyBase@@QAEHABVCEntityEvent@@@Z 
?MoveToDestination@CNpcBase@@QAEHABVCEntityEvent@@@Z 
?MoveToDestinationEntity@CNpcBase@@QAEHABVCEntityEvent@@@Z 
?MoveToDestinationEntity_Navigation@CNpcBase@@QAEHABVCEntityEvent@@@Z 
?MoveToRandomPatrolPosition@CEnemyBase@@QAEHABVCEntityEvent@@@Z 
?MovementAnimation@CEnemyBase@@UAEXK@Z 
?MovementAnimation@CNpcBase@@UAEXK@Z 
?MovesByTargetedRoute@CEnemyBase@@UBEHAAVCTString@@@Z 
?MovesByTargetedRoute@CNavigationMarker@@UBEHAAVCTString@@@Z 
?MusicType_enum@@3VCEntityPropertyEnumType@@A 
?MusicType_values@@3PAVCEntityPropertyEnumValue@@A 
?NewEnemySpotted@CEnemyBase@@QAEHABVCEntityEvent@@@Z 
?NewMessage@CCompMessageID@@QAEXABVCTFileName@@@Z 
?NinjaExplode@CNinjaWeapon@@UAEXJ@Z 
?NinjaExplode@CPlayerWeaponBase@@UAEXJ@Z 
?NominatePlayer@CPlayer@@QAEXVEEndRound@@@Z 
?NorthSoulAttack@CPlayerWeaponBase@@QAE_NPAVCEntity@@AAUDamageInfo@@@Z 
?NpcBasicEffectType_enum@@3VCEntityPropertyEnumType@@A 
?NpcBasicEffectType_values@@3PAVCEntityPropertyEnumValue@@A 
?NpcProjectileMovingType_enum@@3VCEntityPropertyEnumType@@A 
?NpcProjectileMovingType_values@@3PAVCEntityPropertyEnumValue@@A 
?NpcProjectileType_enum@@3VCEntityPropertyEnumType@@A 
?NpcProjectileType_values@@3PAVCEntityPropertyEnumValue@@A 
?OnEnd@CEnemyBase@@UAEXXZ 
?OnEnd@CLarvaOffspring@@UAEXXZ 
?OnEnd@CNpcBase@@UAEXXZ 
?OnEnd@CPlayer@@UAEXXZ 
?OnEnd@CProjectile@@UAEXXZ 
?OnEvent_ReceiveDamage@CPlayerWeaponBase@@QAEHXZ 
?OnInitialize@CEnemyBase@@UAEXABVCEntityEvent@@@Z 
?OnInitialize@CLarvaOffspring@@UAEXABVCEntityEvent@@@Z 
?OnInitialize@CNpcBase@@UAEXABVCEntityEvent@@@Z 
?OnInitialize@CPlayerWeaponBase@@UAEXABVCEntityEvent@@@Z 
?OnInitialize@CProjectile@@UAEXABVCEntityEvent@@@Z 
?OutputDebugLua@CPlayerWeaponBase@@QAEXPAD@Z 
?OverallAttack01@CNpcBase@@QAEHABVCEntityEvent@@@Z 
?OverallAttack02@CNpcBase@@QAEHABVCEntityEvent@@@Z 
?OverallAttack03@CNpcBase@@QAEHABVCEntityEvent@@@Z 
?PATH_FindFirstMarker@@YAXPAVCEntity@@ABV?$Vector@M$02@@1AAPAV1@AAV2@@Z 
?PATH_FindNextMarker@@YAXPAVCEntity@@ABV?$Vector@M$02@@1AAPAV1@AAV2@@Z 
?PLAY_WEAPON_SOUND_TYPE_enum@@3VCEntityPropertyEnumType@@A 
?PLAY_WEAPON_SOUND_TYPE_values@@3PAVCEntityPropertyEnumValue@@A 
?PSSState_enum@@3VCEntityPropertyEnumType@@A 
?PSSState_values@@3PAVCEntityPropertyEnumValue@@A 
?Parse@CLevelScriptor@@QAEHH@Z 
?ParticleTexture_enum@@3VCEntityPropertyEnumType@@A 
?ParticleTexture_values@@3PAVCEntityPropertyEnumValue@@A 
?ParticlesHolderType_enum@@3VCEntityPropertyEnumType@@A 
?ParticlesHolderType_values@@3PAVCEntityPropertyEnumValue@@A 
?Particles_AfterBurner@@YAXPAVCEntity@@MMJ@Z 
?Particles_AfterBurner_Prepare@@YAXPAVCEntity@@@Z 
?Particles_AirElemental@@YAXPAVCEntity@@MMMKV?$Vector@M$02@@@Z 
?Particles_AirElementalBlow@@YAXAAVCEmiter@@@Z 
?Particles_AirElemental_Comp@@YAXPAVCModelInstance@@MMVCPlacement3D@@@Z 
?Particles_Appearing@@YAXPAVCEntity@@M@Z 
?Particles_Atomic@@YAXPAVCEntity@@MMW4ParticleTexture@@J@Z 
?Particles_AutoAiming@@YAXPAVCEntity@@0@Z 
?Particles_BeastBigProjectileTrail@@YAXPAVCEntity@@MMMJ@Z 
?Particles_BeastBigProjectileTrail_Prepare@@YAXPAVCEntity@@@Z 
?Particles_BeastProjectileDebrisTrail@@YAXPAVCEntity@@M@Z 
?Particles_BeastProjectileDebrisTrail_Prepare@@YAXPAVCEntity@@@Z 
?Particles_BeastProjectileTrail@@YAXPAVCEntity@@MMJ@Z 
?Particles_BeastProjectileTrail_Prepare@@YAXPAVCEntity@@@Z 
?Particles_BlazerPrtTrail@@YAXAAV?$Vector@M$02@@00AAK@Z 
?Particles_BloodSpray@@YAXPAVCEntity@@W4SprayParticlesType@@V?$Vector@M$02@@2MV?$AABBox@M$02@@2MMK@Z 
?Particles_BloodTrail@@YAXPAVCEntity@@@Z 
?Particles_BombFuse@@YAXPAVCEntity@@V?$Vector@M$02@@@Z 
?Particles_BombTrail@@YAXPAVCEntity@@@Z 
?Particles_BombTrail_Prepare@@YAXPAVCEntity@@@Z 
?Particles_BrushBurning@@YAXPAVCEntity@@QAV?$Vector@M$02@@JV2@MM@Z 
?Particles_BulletSpray@@YAXPAVCEntity@@JV?$Vector@M$02@@1W4EffectParticlesType@@M1M@Z 
?Particles_Burning@@YAXPAVCEntity@@MM@Z 
?Particles_Burning_Comp@@YAXPAVCModelInstance@@MVCPlacement3D@@@Z 
?Particles_CannonBall@@YAXPAVCEntity@@M@Z 
?Particles_CannonBall_Prepare@@YAXPAVCEntity@@@Z 
?Particles_ChimneySmoke@@YAXPAVCEntity@@JMM@Z 
?Particles_CollectEnergy@@YAXPAVCEntity@@MMH@Z 
?Particles_ColoredStarsTrail@@YAXPAVCEntity@@@Z 
?Particles_DamageSmoke@@YAXPAVCEntity@@MV?$AABBox@M$02@@M@Z 
?Particles_Death00@@YAXPAVCEntity@@MV?$Vector@M$02@@@Z 
?Particles_Death@@YAXPAVCEntity@@M@Z 
?Particles_DestroyingObelisk@@YAXPAVCEntity@@M@Z 
?Particles_DestroyingPylon@@YAXPAVCEntity@@V?$Vector@M$02@@M@Z 
?Particles_DisappearDust@@YAXPAVCEntity@@MM@Z 
?Particles_DivineSwordPrtTrail@@YAXAAV?$Vector@M$02@@00@Z 
?Particles_DustFall@@YAXPAVCEntity@@MV?$Vector@M$02@@@Z 
?Particles_ElectricitySparks@@YAXPAVCEntity@@MMMJ@Z 
?Particles_Emanate@@YAXPAVCEntity@@MMW4ParticleTexture@@JM@Z 
?Particles_EmanatePlane@@YAXPAVCEntity@@MMMMMMW4ParticleTexture@@JM@Z 
?Particles_EmptyShells@@YAXPAVCEntity@@PAUShellLaunchData@@@Z 
?Particles_ExotechLarvaLaser@@YAXPAVCEntity@@V?$Vector@M$02@@1@Z 
?Particles_ExplosionDebris1@@YAXPAVCEntity@@MV?$Vector@M$02@@K@Z 
?Particles_ExplosionDebris1_New@@YAXPAVCEntity@@MV?$Vector@M$02@@K@Z 
?Particles_ExplosionDebris2@@YAXPAVCEntity@@MV?$Vector@M$02@@K@Z 
?Particles_ExplosionDebris2_New@@YAXPAVCEntity@@MV?$Vector@M$02@@K@Z 
?Particles_ExplosionDebris3@@YAXPAVCEntity@@MV?$Vector@M$02@@K@Z 
?Particles_ExplosionDebris3_New@@YAXPAVCEntity@@MV?$Vector@M$02@@K@Z 
?Particles_ExplosionSmoke@@YAXPAVCEntity@@MV?$Vector@M$02@@K@Z 
?Particles_FireBreath@@YAJPAVCEntity@@V?$Vector@M$02@@1MM@Z 
?Particles_Fireball01Trail@@YAXPAVCEntity@@@Z 
?Particles_Fireball01Trail_Prepare@@YAXPAVCEntity@@@Z 
?Particles_FirecrackerTrail@@YAXPAVCEntity@@@Z 
?Particles_FirecrackerTrail_Prepare@@YAXPAVCEntity@@@Z 
?Particles_Fireworks01@@YAXAAVCEmiter@@@Z 
?Particles_FlameThrower@@YAXPAVCTextureData@@MABVCPlacement3D@@1V?$Vector@M$02@@2MMJHW4PredefinedBlendType@@@Z 
?Particles_FlameThrowerStart@@YAXABVCPlacement3D@@MM@Z 
?Particles_FloatingScore@@YAXPAVCEntity@@MJM@Z 
?Particles_Fountain@@YAXPAVCEntity@@MMW4ParticleTexture@@J@Z 
?Particles_Ghostbuster@@YAXABV?$Vector@M$02@@0JMMM@Z 
?Particles_GrenadeTrail@@YAXPAVCEntity@@@Z 
?Particles_GrenadeTrail_Prepare@@YAXPAVCEntity@@@Z 
?Particles_GrowingSwirl@@YAXPAVCEntity@@MM@Z 
?Particles_Growth@@YAXPAVCEntity@@PAVCTextureData@@AAV?$AABBox@M$02@@0J@Z 
?Particles_HitGround@@YAXPAVCEntity@@MM@Z 
?Particles_IceDebris@@YAXPAVCEntity@@MV?$Vector@M$02@@K@Z 
?Particles_IceSpark@@YAXPAVCEntity@@MV?$Vector@M$02@@K@Z 
?Particles_LarvaEnergy@@YAXPAVCEntity@@V?$Vector@M$02@@@Z 
?Particles_LavaBombTrail@@YAXPAVCEntity@@M@Z 
?Particles_LavaBombTrail_Prepare@@YAXPAVCEntity@@@Z 
?Particles_LavaErupting@@YAXPAVCEntity@@MMMMMM@Z 
?Particles_LavaFlow@@YAXPAVCEntity@@MMMMMJ@Z 
?Particles_LavaTrail@@YAXPAVCEntity@@@Z 
?Particles_LavaTrail_Prepare@@YAXPAVCEntity@@@Z 
?Particles_Leaves@@YAXPAVCEntity@@V?$AABBox@M$02@@V?$Vector@M$02@@MM2MMK@Z 
?Particles_Lightning@@YAXV?$Vector@M$02@@0M@Z 
?Particles_MetalParts@@YAXPAVCEntity@@MV?$AABBox@M$02@@M@Z 
?Particles_MeteorTrail@@YAXPAVCEntity@@MMV?$Vector@M$02@@@Z 
?Particles_ModelGlow@@YAXPAVCEntity@@MW4ParticleTexture@@MMMK@Z 
?Particles_NpcFireBall_CollectEnergy@@YAXPAVCEntity@@MMH@Z 
?Particles_NpcFireballExplosionSmoke@@YAXPAVCEntity@@MV?$Vector@M$02@@K@Z 
?Particles_NpcIceballSmoke@@YAXPAVCEntity@@MV?$Vector@M$02@@K@Z 
?Particles_OneParticle@@YAXPAVCEntity@@V?$Vector@M$02@@MK@Z 
?Particles_PowerUpIndicator@@YAXPAVCEntity@@W4ParticleTexture@@MMMJJ@Z 
?Particles_Powerup@@YAXPAVCEntity@@MMK@Z 
?Particles_Rain@@YAXPAVCEntity@@MJMPAVCTextureData@@AAV?$AABBox@M$02@@@Z 
?Particles_Regeneration@@YAJPAVCEntity@@MMMH@Z 
?Particles_Rising@@YAXPAVCEntity@@MMMMMMMW4ParticleTexture@@J@Z 
?Particles_RocketMotorBurning@@YAXPAVCEntity@@MV?$Vector@M$02@@MM@Z 
?Particles_RocketTrail@@YAXPAVCEntity@@M@Z 
?Particles_RocketTrail_Prepare@@YAXPAVCEntity@@@Z 
?Particles_RomboidTrail@@YAXPAVCEntity@@@Z 
?Particles_RunAfterBurner@@YAXPAVCEntity@@MMJ@Z 
?Particles_RunningDust@@YAXPAVCEntity@@@Z 
?Particles_RunningDust_Prepare@@YAXPAVCEntity@@@Z 
?Particles_SandFlow@@YAXPAVCEntity@@MMMMMJ@Z 
?Particles_ShooterFlame@@YAXABVCPlacement3D@@0MM@Z 
?Particles_Smoke@@YAXPAVCEntity@@V?$Vector@M$02@@JMMMM@Z 
?Particles_SniperResidue@@YAXPAVCEntity@@V?$Vector@M$02@@1@Z 
?Particles_Snow@@YAXPAVCEntity@@MJMPAVCTextureData@@AAV?$AABBox@M$02@@M@Z 
?Particles_Spiral@@YAXPAVCEntity@@MMW4ParticleTexture@@J@Z 
?Particles_SpiralTrail@@YAXPAVCEntity@@@Z 
?Particles_Stardust@@YAXPAVCEntity@@MMW4ParticleTexture@@J@Z 
?Particles_SummonerDisappear@@YAXPAVCEntity@@M@Z 
?Particles_SummonerExplode@@YAXPAVCEntity@@V?$Vector@M$02@@MMMM@Z 
?Particles_SummonerProjectileExplode@@YAXPAVCEntity@@MMMM@Z 
?Particles_SummonerStaff@@YAXAAVCEmiter@@@Z 
?Particles_TextureFlameThrower@@YAXMABVCPlacement3D@@0V?$Vector@M$02@@1MMJHW4PredefinedBlendType@@K@Z 
?Particles_Twister@@YAXPAVCEntity@@MMMM@Z 
?Particles_ViewerLocal@@YAXPAVCEntity@@@Z 
?Particles_WaterFlow@@YAXPAVCEntity@@MMMMMJ@Z 
?Particles_WaterSplash@@YAXPAVCEntity@@JMMMMMMK@Z 
?Particles_WaterSplashDrops@@YAXPAVCEntity@@JMMMMMMK@Z 
?Particles_Waterfall@@YAXPAVCEntity@@JMMMMMMM@Z 
?Particles_WaterfallFoam@@YAXPAVCEntity@@MMMMMMMJ@Z 
?Particles_WhiteLineTrail@@YAXPAVCEntity@@@Z 
?Particles_Windblast@@YAXPAVCEntity@@MM@Z 
?PerformAttack@CEnemyBase@@QAEHABVCEntityEvent@@@Z 
?PerformAttack@CNpcBase@@QAEHABVCEntityEvent@@@Z 
?PerformSkyAttack@CNpcBase@@QAEHABVCEntityEvent@@@Z 
?PersonalStopAttack@CNpcBase@@UAEHXZ 
?PhaseCheck@CNpcBase@@QAEHABVCEntityEvent@@@Z 
?PhaseSkillState_enum@@3VCEntityPropertyEnumType@@A 
?PhaseSkillState_values@@3PAVCEntityPropertyEnumValue@@A 
?PlayAttackSKillSound@CNpcBase@@UAEXW4ENpcSkillNum@@@Z 
?PlayBGSound@CPlayer@@QAEXABVCTFileName@@J@Z 
?PlayBeAttackedSound@CNpcBase@@UAEXXZ 
?PlayCreatureSound@CNpcBase@@QAEXAAVCSoundObject@@ABVCTString@@J@Z 
?PlayLightAnim@CPlayer@@QAEXJ@Z 
?PlayLightAnim@CPlayerWeaponBase@@QAEXJK@Z 
?PlayMessageSound@CPlayer@@QAEXABVCTFileName@@@Z 
?PlayNextBGSound@CPlayer@@QAEXXZ 
?PlaySoundA@CPlayer@@QAEXAAVCSoundObject@@ABVCTFileName@@J@Z 
?PlaySoundA@CPlayer@@QAEXAAVCSoundObject@@JJ@Z 
?PlaySoundBlazerFireBall@CProjectile@@QAEXXZ 
?PlaySoundDie@CNpcBase@@UAEXXZ 
?PlaySoundGolemDie@CNpcBase@@QAEXXZ 
?PlaySoundGolemSwingHand@CNpcBase@@QAEXXZ 
?PlaySoundHeart@CProjectile@@QAEXXZ 
?PlaySoundSummon@CNpcBase@@UAEXXZ 
?PlaySoundWeapon@CNpcBase@@QAEXXZ 
?PlaySound_Mouth@CPlayerAnimatorBase@@QAEXABVCTFileName@@@Z 
?PlaySound_Mouth@CPlayerWeaponBase@@QAEXABVCTFileName@@@Z 
?PlaySound_Move@CNpcBase@@UAEXXZ 
?PlaySound_Weapon01@CPlayerAnimatorBase@@QAEXABVCTFileName@@@Z 
?PlaySound_Weapon01@CPlayerWeaponBase@@QAEXABVCTFileName@@@Z 
?PlaySound_Weapon02@CPlayerAnimatorBase@@QAEXABVCTFileName@@@Z 
?PlaySound_Weapon02@CPlayerWeaponBase@@QAEXABVCTFileName@@@Z 
?PlayWalkingSound@CPlayer@@QAEXXZ 
?PlayerActionState_enum@@3VCEntityPropertyEnumType@@A 
?PlayerActionState_values@@3PAVCEntityPropertyEnumValue@@A 
?PlayerDestinationPos@CEnemyBase@@UAE?AV?$Vector@M$02@@XZ 
?PlayerDestinationPos@CEnemyFly@@UAE?AV?$Vector@M$02@@XZ 
?PlayerFlame@CProjectile@@QAEXXZ 
?PlayerGrenade@CProjectile@@QAEXXZ 
?PlayerGrenadeExplosion@CProjectile@@QAEXXZ 
?PlayerLaserRay@CProjectile@@QAEXXZ 
?PlayerLaserWave@CProjectile@@QAEXXZ 
?PlayerRocket@CProjectile@@QAEXXZ 
?PlayerRocketExplosion@CProjectile@@QAEXXZ 
?PointerType_enum@@3VCEntityPropertyEnumType@@A 
?PointerType_values@@3PAVCEntityPropertyEnumValue@@A 
?PopGameMessage@CPlayer@@QAEXVCTString@@HKW4EPlayerMsgSndType@@@Z 
?PopMessage@CPlayer@@QAEXVCTFileName@@0VCTString@@@Z 
?PopMessage@CPlayer@@QAEXVCTFileName@@0VCTString@@W4EPlayerMsgSndType@@@Z 
?PopupMsg@CPlayer@@QAEXEMAAV?$CDynamicArray@VCTString@@@@@Z 
?PopupMsg@CPlayer@@QAEXEMVCTString@@@Z 
?PositionErrorCheck@CPlayer@@QAEXXZ 
?PostMoving@CCannonBall@@UAEXXZ 
?PostMoving@CEnemyDive@@UAEXXZ 
?PostMoving@CNpcBase@@UAEXXZ 
?PostMoving@CPlayer@@UAEXXZ 
?PostMoving@CPlayerView@@UAEXXZ 
?PostMoving@CProjectile@@UAEXXZ 
?PostMoving_BoneEffect@CPlayer@@QAEXXZ 
?PostRunAwayFromEnemy@CEnemyRunInto@@QAEHABVCEntityEvent@@@Z 
?PowerUpItemType_enum@@3VCEntityPropertyEnumType@@A 
?PowerUpItemType_values@@3PAVCEntityPropertyEnumValue@@A 
?PreMainLoop@CEnemyBase@@QAEHABVCEntityEvent@@@Z 
?PreMoving@CCannonBall@@UAEXXZ 
?PreMoving@CLarvaOffspring@@UAEXXZ 
?PreMoving@CNpcBase@@UAEXXZ 
?PreMoving@CPlayer@@UAEXXZ 
?PreMoving@CPlayerView@@UAEXXZ 
?PreMoving@CProjectile@@UAEXXZ 
?Precache@CEnemyBase@@UAEXXZ 
?Precache@CEnemyFly@@UAEXXZ 
?Precache@CItem@@UAEXXZ 
?Precache@CNpcBase@@UAEXXZ 
?Precache@CPlayerAnimatorBase@@UAEXXZ 
?Precache@CPlayerWeaponBase@@UAEXXZ 
?PrecachePlayerModels@CPlayer@@QAEXXZ 
?PrecacheWeaponModels@CPlayerAnimatorBase@@QAEXXZ 
?PreloadSoundCharacter@@YAXXZ 
?PrepareFreeFlyingProjectile@CEnemyBase@@QAEXAAVCPlacement3D@@V?$Vector@M$02@@AAV3@2@Z 
?PrepareFreeFlyingProjectile@CNpcBase@@QAEXAAVCPlacement3D@@V?$Vector@M$02@@AAV3@2@Z 
?PreparePropelledProjectile@CEnemyBase@@QAEXAAVCPlacement3D@@V?$Vector@M$02@@AAV3@2@Z 
?PreparePropelledProjectile@CNpcBase@@QAEXAAVCPlacement3D@@V?$Vector@M$02@@AAV3@2@Z 
?PrintCenterMessage@@YAXPAVCEntity@@0ABVCTString@@MW4MessageSound@@@Z 
?PrintConsole@@YAPBDXZ 
?PrintKillCountEventCompleteGrade@CPlayer@@QAEXXZ 
?PrintMessage@CPlayer@@QAEXVCTString@@00@Z 
?PrintStack@@YAPBDPAVCEntity@@@Z 
?ProbabilityFear@CPlayer@@QAEXXZ 
?ProjectileFly@CProjectile@@QAEHABVCEntityEvent@@@Z 
?ProjectileFlyRebounding@CProjectile@@QAEHABVCEntityEvent@@@Z 
?ProjectileGuidedFastFly@CProjectile@@QAEHABVCEntityEvent@@@Z 
?ProjectileGuidedFly@CProjectile@@QAEHABVCEntityEvent@@@Z 
?ProjectileGuidedSlide@CProjectile@@QAEHABVCEntityEvent@@@Z 
?ProjectileHit@CLarvaOffspring@@QAEXXZ 
?ProjectileHit@CProjectile@@QAEXXZ 
?ProjectileMovingType_enum@@3VCEntityPropertyEnumType@@A 
?ProjectileMovingType_values@@3PAVCEntityPropertyEnumValue@@A 
?ProjectileSlide@CProjectile@@QAEHABVCEntityEvent@@@Z 
?ProjectileTouch@CLarvaOffspring@@QAEXVCEntityPointer@@@Z 
?ProjectileTouch@CProjectile@@QAEXVCEntityPointer@@@Z 
?ProjectileType_enum@@3VCEntityPropertyEnumType@@A 
?ProjectileType_values@@3PAVCEntityPropertyEnumValue@@A 
?PushCameraFromWall@CPlayerView@@QAEXM@Z 
?RangeAttack01@CNpcBase@@QAEHABVCEntityEvent@@@Z 
?RangeAttack02@CNpcBase@@QAEHABVCEntityEvent@@@Z 
?RangeAttack03@CNpcBase@@QAEHABVCEntityEvent@@@Z 
?RangeAttack04@CNpcBase@@QAEHABVCEntityEvent@@@Z 
?RangeBuff01@CNpcBase@@QAEHABVCEntityEvent@@@Z 
?RangeBuff02@CNpcBase@@QAEHABVCEntityEvent@@@Z 
?RangeBuff03@CNpcBase@@QAEHABVCEntityEvent@@@Z 
?RangeDamage@CCannonBall@@QAEXXZ 
?RangeDamage@CNpcBase@@UAEXAAV?$Vector@M$02@@0M@Z 
?ReadAchievementDataFromFile@@YAHXZ 
?ReadAlphabetDataFromFile@@YAHXZ 
?ReadAttributeDataFromFile@@YAHXZ 
?ReadAttributeObjectDataFromFile@@YAHXZ 
?ReadAttributeOpenDataFromFile@@YAHXZ 
?ReadAttributeReinforceDataFromFile@@YAHXZ 
?ReadBeginnersHelp@@YAPBU_s_BeginnersHelp@@VCTFileName@@@Z 
?ReadClanEmblemImgDataFromFile@@YAHXZ 
?ReadCreaturBookCollectionDataFromFile@@YAHXZ 
?ReadCreatureBookDataFromFile@@YAHXZ 
?ReadCreatureListFile@@YAXXZ 
?ReadCreatureSynthesisDataFromFile@@YAHXZ 
?ReadDiscountItemDataFromFile@@YAHXZ 
?ReadEventKillCountDataFromFile@@YAHXZ 
?ReadEventNoticeImgDataFromFile@@YAHXZ 
?ReadExceptionMapCreatureList@@YAHXZ 
?ReadGachaItemDataFromFile@@YAHXZ 
?ReadItemDataFromFile@@YAHXZ 
?ReadLanguageFile@@YAXXZ 
?ReadLevelDataFromFile@@YAXXZ 
?ReadLevelDescription@@YAHAAVCTFileName@@@Z 
?ReadLevelDescription@CLevelScriptor@@QAEHPAD@Z 
?ReadLevelSriptor@@YAHAAVCTFileName@@@Z 
?ReadLevelSriptor@@YAHPAD@Z 
?ReadLoginGaugeRewardDataFromFile@@YAHXZ 
?ReadMacroTextFile@@YAXXZ 
?ReadNationCodeFile@@YAXXZ 
?ReadNewGolemNpcDataFromFile@@YAHXZ 
?ReadNewGolemPlayerDataFromFile@@YAHXZ 
?ReadNpcDataFromFile@@YAHXZ 
?ReadObjectToolTipDataFromFile@@YAHXZ 
?ReadPlayerDataFromFile@@YAHXZ 
?ReadPreLoadSMCFile@@YAXXZ 
?ReadPreloadCreatureDataFilePathFromFile@@YAHXZ 
?ReadPreloadGameResourceFromFile@@YAHXZ 
?ReadPremiumPackDataFronFile@@YAHXZ 
?ReadProduceItemDataFromFile@@YAHXZ 
?ReadQuestDataFromFile@@YAHXZ 
?ReadRageGaugeDataFromFile@@YAHXZ 
?ReadServantCreatureList@@YAHXZ 
?ReadSetEffectEquipmentDataFromFile@@YAHXZ 
?ReadStageEffectItemDataFromFile@@YAHXZ 
?ReadStageRewardDataFromFile@@YAHXZ 
?ReadSupportNationFile@@YAXXZ 
?ReadTapMiniMapInfoDataFromFile@@YAHXZ 
?ReadTreeBeginnersHelpData@@YAXXZ 
?ReadTutorialQuestDataFromFile@@YAHXZ 
?ReadUnusableCharNameFromFile@@YAHXZ 
?Read_AbuseString_FromFile@@YAHXZ 
?Read_BuddyFishingDefense_FromFile@@YAHXZ 
?Read_t@CCannonBall@@UAEXPAVCTStream@@H@Z 
?Read_t@CCompMessageID@@QAEXAAVCTStream@@@Z 
?Read_t@CEmiter@@QAEXAAVCTStream@@H@Z 
?Read_t@CEmittedParticle@@QAEXAAVCTStream@@H@Z 
?Read_t@CEnemyBase@@UAEXPAVCTStream@@H@Z 
?Read_t@CItem@@UAEXPAVCTStream@@H@Z 
?Read_t@CLarvaOffspring@@UAEXPAVCTStream@@H@Z 
?Read_t@CNavigationMarker@@UAEXPAVCTStream@@H@Z 
?Read_t@CNpcBase@@UAEXPAVCTStream@@H@Z 
?Read_t@CPlayerWeaponBase@@UAEXPAVCTStream@@H@Z 
?Read_t@CProjectile@@UAEXPAVCTStream@@H@Z 
?Readword@CBeginnersHelpData@@AAEJAAVCTString@@@Z 
?Readword@CLevelScriptor@@QAEJAAVCTString@@@Z 
?Readword@CTreeBeginnersHelpData@@AAEJAAVCTString@@@Z 
?ReceiveDamage@CEnemyBase@@UAEXPAVCEntity@@W4DamageType@@MABV?$Vector@M$02@@2@Z 
?ReceiveDamage@CNpcBase@@UAEXPAVCEntity@@PBUDamageInfo@@@Z 
?ReceiveDamage@CNpcBase@@UAEXPAVCEntity@@W4DamageType@@MABV?$Vector@M$02@@2@Z 
?ReceiveDamage@CPlayer@@UAEXPAVCEntity@@PBUDamageInfo@@@Z 
?ReceiveDamage@CPlayer@@UAEXPAVCEntity@@W4DamageType@@MABV?$Vector@M$02@@2@Z 
?ReceiveDamage@CProjectile@@UAEXPAVCEntity@@W4DamageType@@MABV?$Vector@M$02@@2@Z 
?ReceiveDamageStageEffect@CNpcBase@@QAEXEGKUDamageInfo@@K@Z 
?ReceiveDamage_OnGuard@CPlayer@@QAEXPBUDamageInfo@@PAVCEntity@@H@Z 
?ReceiveHoldAttack@CPlayer@@QAEXHPAVCEntity@@@Z 
?ReceiveItem@CPlayer@@UAEHABVCEntityEvent@@@Z 
?ReceiveReturnDamage@CNpcBase@@QAEXEGKMK@Z 
?RecvDestroyBrush_Response@CPlayer@@QAEXAAVCNetMessage@@@Z 
?ReduceAP@CPlayer@@UAEXM@Z 
?ReduceApplyStageEffectItemData@CPlayer@@QAEXE@Z 
?ReduceCP@CPlayer@@QAEXM@Z 
?ReduceGaugeEffect@CPlayer@@QAEXMMAAM0AAV?$Vector@M$02@@111AAK@Z 
?ReduceHP@CPlayer@@UAEXM@Z 
?ReleaseKeyCmd@CPlayerAnimatorBase@@QAEXXZ 
?ReleaseLockon@CBattleBowAnimator@@UAEXXZ 
?ReleaseLockon@CBlackSmithAnimator@@UAEXXZ 
?ReleaseLockon@CDualistAnimator@@UAEXXZ 
?ReleaseLockon@CMageAnimator@@UAEXXZ 
?ReleaseLockon@CNinjaAnimator@@UAEXXZ 
?ReleaseLockon@CPlayerAnimatorBase@@UAEXXZ 
?ReleaseLockon@CSwordManAnimator@@UAEXXZ 
?RemoteEntityMain@CNpcBase@@QAEHABVCEntityEvent@@@Z 
?RemoveAllArmors@CPlayer@@QAEXXZ 
?RemoveAllWeapons@CPlayerAnimatorBase@@QAEXXZ 
?RemoveAttachmentFromModel@@YAXAAVCModelObject@@J@Z 
?RemoveChild@CPlayer@@QAEXVCTString@@@Z 
?RemoveFromFuss@CEnemyBase@@QAEXXZ 
?RemoveSkaChild@@YAHPAVCEntity@@J@Z 
?RemoveSkaChild@@YAHPAVCEntity@@VCTString@@@Z 
?RemoveSkaChild@@YAHPAVCModelInstance@@VCTString@@@Z 
?RemoveSkaChildren@@YAXPAVCModelInstance@@@Z 
?RenderBladeEffects@CPlayer@@QAEXXZ 
?RenderBladeTrail@CNpcBase@@QAEXXZ 
?RenderBladeTrail@CPlayer@@QAEXXZ 
?RenderBossHP@CPlayer@@QAEXPAVCDrawPort@@@Z 
?RenderBuffState@CPlayer@@QAEXPAVCDrawPort@@@Z 
?RenderCameraView@CPlayer@@QAEXPAVCDrawPort@@H@Z 
?RenderCredits@CPlayer@@QAEXPAVCDrawPort@@@Z 
?RenderCrosshair@CPlayerWeaponBase@@UAEXAAVCProjection3D@@PAVCDrawPort@@AAVCPlacement3D@@@Z 
?RenderDebrisParticles@CPlayer@@QAEXH@Z 
?RenderDebugFont@CPlayer@@QAEXPAVCDrawPort@@@Z 
?RenderDummyView@CPlayer@@QAEXPAVCDrawPort@@@Z 
?RenderEventTime@CPlayer@@QAEXPAVCDrawPort@@PAJM@Z 
?RenderGameMessage@CPlayer@@QAEXPAVCDrawPort@@@Z 
?RenderGameView@CNpcBase@@UAEXPAVCDrawPort@@PAX@Z 
?RenderGameView@CPlayer@@UAEXPAVCDrawPort@@PAX@Z 
?RenderHUD@CPlayer@@QAEXAAVCPerspectiveProjection3D@@PAVCDrawPort@@V?$Vector@M$02@@KKH@Z 
?RenderHalo@CNpcBase@@UAEXXZ 
?RenderHalo@CPlayer@@QAEXXZ 
?RenderHalo_ArmorShoulder@CPlayer@@QAEXXZ 
?RenderHalo_ArmorWrist@CPlayer@@QAEXXZ 
?RenderHalo_Body@CPlayer@@QAEXXZ 
?RenderHalo_Helmet@CPlayer@@QAEXXZ 
?RenderHalo_MainWeapon@CPlayer@@QAEXXZ 
?RenderHalo_SubWeapon@CPlayer@@QAEXXZ 
?RenderHitDisplay@CPlayer@@QAEXPAVCDrawPort@@@Z 
?RenderHudPicFX@CPlayer@@QAEXPAVCDrawPort@@@Z 
?RenderImageNumber@CPlayer@@QAEJJPBDPAVCDrawPort@@PAVCTextureObject@@JJJJJJJJKK@Z 
?RenderLifeLimit@CPlayer@@QAEXPAVCDrawPort@@@Z 
?RenderMasterGolemHP@CPlayer@@QAEXPAVCDrawPort@@@Z 
?RenderNpcIndex@CNpcBase@@QAEXXZ 
?RenderNpcKillCount@CPlayer@@QAEXPAVCDrawPort@@J@Z 
?RenderParticles@CCannonBall@@UAEXXZ 
?RenderParticles@CEmiter@@QAEXXZ 
?RenderParticles@CEnemyBase@@UAEXXZ 
?RenderParticles@CNpcBase@@UAEXXZ 
?RenderParticles@CParticleEmitter@@UAEXXZ 
?RenderParticles@CPlayer@@UAEXXZ 
?RenderParticles@CPlayerView@@UAEXXZ 
?RenderParticles@CProjectile@@UAEXXZ 
?RenderPkInfo@CPlayer@@QAEXPAVCDrawPort@@@Z 
?RenderPlayerView@CPlayer@@QAEXPAVCDrawPort@@@Z 
?RenderPopupMsg@CPlayer@@QAEXPAVCDrawPort@@@Z 
?RenderRadar@CPlayer@@QAEXPAVCDrawPort@@@Z 
?RenderReadyMessage@CPlayer@@QAEXPAVCDrawPort@@@Z 
?RenderResult@CPlayer@@QAEXPAVCDrawPort@@@Z 
?RenderReturnCancelTimeGauge@CPlayer@@QAEXPAVCDrawPort@@@Z 
?RenderReturnTimeGauge@CPlayer@@QAEXPAVCDrawPort@@@Z 
?RenderRudolfNose@CPlayer@@QAEXXZ 
?RenderScroll@CPlayer@@QAEXPAVCDrawPort@@@Z 
?RenderStatusBar@CNpcBase@@QAEXXZ 
?RenderStatusBar@CPlayer@@QAEXXZ 
?RenderSuccSign@CPlayer@@QAEXPAVCDrawPort@@@Z 
?RenderTextFX@CPlayer@@QAEXPAVCDrawPort@@@Z 
?RenderTheme@CPlayer@@QAEXPAVCDrawPort@@PAJAAM@Z 
?RenderThemeTime@CPlayer@@QAEXPAVCDrawPort@@PAJAAM@Z 
?RenderTrail@CNpcBase@@UAEXXZ 
?RenderVeil@CPlayer@@QAEXPAVCDrawPort@@@Z 
?RenderWeaponFlame@CPlayer@@QAEXXZ 
?RequestShootWeapon@CDualistWeapon@@UAEXMEPAVCEntity@@J@Z 
?RequestShootWeapon@CMageWeapon@@UAEXMEPAVCEntity@@J@Z 
?RequestShootWeapon@CNinjaWeapon@@UAEXJV?$Vector@M$02@@0@Z 
?RequestShootWeapon@CPlayerWeaponBase@@UAEXJV?$Vector@M$02@@0@Z 
?RequestShootWeapon@CPlayerWeaponBase@@UAEXMEPAVCEntity@@J@Z 
?ResetAnimationFlags@CPlayer@@QAEXXZ 
?ResetBuffState@CPlayer@@QAEXXZ 
?ResetGoldSwordForAllPlayers@CNpcBase@@QAEXXZ 
?ResetMageSpells@CPlayer@@QAEXXZ 
?ResetPlayerCell@CPlayer@@QAEXXZ 
?ResetTapMiniMapPickTime@CPlayer@@QAEXE@Z 
?ResetUseTransparentPotion@CPlayer@@QAEXXZ 
?Respawn@CNpcBase@@UAEXXZ 
?Respawn@CPlayer@@QAEXW4EReSpawnType@@V?$Vector@M$02@@@Z 
?RespawnNPCs@CPlayer@@QAEXXZ 
?RespawnPlayers@CPlayer@@QAEXXZ 
?RespawnWork@CPlayer@@QAEXXZ 
?RestartRound@CPlayer@@QAEXVERestartRound@@@Z 
?RestoreGoldSword@CPlayer@@QAEXXZ 
?ReturnCP@CNpcBase@@UAEXXZ 
?ReturnToStartPosition@CEnemyBase@@QAEHABVCEntityEvent@@@Z 
?ReturnToStartPosition@CEnemyFly@@QAEHABVCEntityEvent@@@Z 
?ReturnToStartPosition@CNpcBase@@QAEHABVCEntityEvent@@@Z 
?Reversal@CPlayer@@QAEXVESpawnReversal@@@Z 
?Rival@CPlayer@@QAE_NPAV1@@Z 
?RotateToEnemy@CEnemyRunInto@@QAEHABVCEntityEvent@@@Z 
?RotateToStartDirection@CNpcBase@@QAEHABVCEntityEvent@@@Z 
?RotatingAnim@CEnemyBase@@UAEXXZ 
?RotatingAnim@CNpcBase@@UAEXXZ 
?RoundViewPitch@CPlayerView@@QAEXMM@Z 
?RunAwayFromEnemy@CEnemyRunInto@@QAEHABVCEntityEvent@@@Z 
?RunIntoEnemy@CEnemyRunInto@@QAEHABVCEntityEvent@@@Z 
?RunningAnim@CEnemyBase@@UAEXXZ 
?RunningAnim@CNpcBase@@UAEXXZ 
?SE_SetEntitiesMPData@@YAXPAX@Z 
?ScorpmanType_enum@@3VCEntityPropertyEnumType@@A 
?ScorpmanType_values@@3PAVCEntityPropertyEnumValue@@A 
?SearchOpenEnable@CConstAttributeOpenData@@QAE?BHG@Z 
?Search_FishingStr@CBuddyFishingDefense@@QAE?AVCTString@@V2@@Z 
?SeeEntity@CEnemyBase@@QAEHPAVCEntity@@M@Z 
?SeeEntity@CNpcBase@@QAEHPAVCEntity@@M@Z 
?SeeEntityInPlane@CEnemyBase@@QAEHPAVCEntity@@M@Z 
?SeeEntityInPlane@CNpcBase@@QAEHPAVCEntity@@M@Z 
?SeeNotify@CEnemyBase@@QAEXXZ 
?SeeNotify@CNpcBase@@QAEXXZ 
?SelectSpeedToDesiredPosition@CNpcBase@@QAEXABV?$Vector@M$02@@@Z 
?SendAOTInfo@CPlayer@@QAEXXZ 
?SendBuffEvent@CNpcBase@@QAEXE@Z 
?SendChangeData@CPlayer@@QAEXXZ 
?SendCreatureEnd@CNpcBase@@QAEXXZ 
?SendDestroyBrush@CPlayer@@QAEXXZ 
?SendDestroyBrush_Response@CPlayer@@QAEXAAVCNetMessage@@@Z 
?SendEAttackEvent@CNpcBase@@QAEXE@Z 
?SendEAttackFireEvent@CNpcBase@@QAEXXZ 
?SendEAttackHitEvent@CNpcBase@@QAEXXZ 
?SendEAttackSpecialHitEvent@CNpcBase@@QAEXXZ 
?SendEChargeAttackEvent@CNpcBase@@QAEXE@Z 
?SendEEffectAttackEvent@CNpcBase@@QAEXE@Z 
?SendELongDistanceAttackEvent@CNpcBase@@QAEXE@Z 
?SendEMovementAnim@CNpcBase@@QAEXK@Z 
?SendEOverallAttackEvent@CNpcBase@@QAEXE@Z 
?SendEPhaseCheckEvent@CNpcBase@@QAEXE@Z 
?SendERangeAttackEvent@CNpcBase@@QAEXE@Z 
?SendESummonAttackEvent@CNpcBase@@QAEXE@Z 
?SendETouchSendedByRemoteEvent@CNpcBase@@QAEXVETouch@@@Z 
?SendEvent@CPlayerAnimatorBase@@QAEXABVCEntityEvent@@H@Z 
?SendEvent@CPlayerWeaponBase@@QAEXABVCEntityEvent@@H@Z 
?SendEventToAllPlayers@CPlayer@@QAEXABVCEntityEvent@@H@Z 
?SendHP@CNpcBase@@QAEXXZ 
?SendInRange@@YAXPAVCEntity@@W4EventEType@@ABV?$AABBox@M$02@@@Z 
?SendNpcAction@CNpcBase@@UAEXXZ 
?SendScore@CPlayer@@QAEXXZ 
?SendShootWeapon@CBattleBowWeapon@@UAEXV?$Vector@M$02@@0PAVCEntity@@J@Z 
?SendShootWeapon@CPlayerWeaponBase@@UAEXV?$Vector@M$02@@0PAVCEntity@@J@Z 
?SendToTarget@@YAXPAVCEntity@@W4EventEType@@0@Z 
?SendWatchEvent@CNpcWatcher@@QAEXPAVCEntity@@@Z 
?SendWatchEvent@CWatcher@@QAEXPAVCEntity@@@Z 
?Send_HP_AP@CPlayer@@QAEXXZ 
?SetAP@CNpcBase@@UAEXM@Z 
?SetAP@CPlayer@@UAEXM@Z 
?SetAbuseStr_Count@CAbuseStr_Filter@@QAEXXZ 
?SetAccessariesOn@CPlayer@@QAEXXZ 
?SetActive@CParticleEmitter@@QAEXH@Z 
?SetAlive@CPlayer@@QAEXXZ 
?SetAllyBuffTarget@CNpcBase@@QAEHPAVCEntity@@@Z 
?SetAllyBuffTargetNone@CNpcBase@@QAEXXZ 
?SetArmor@CPlayer@@QAEXXZ 
?SetArmorGuage@CPlayer@@QAEXJ@Z 
?SetArmorOff@CPlayer@@QAEXJ@Z 
?SetArmorOff@CPlayer@@QAEXVCTString@@@Z 
?SetArmorOn@CPlayer@@QAEXJ@Z 
?SetArmorOn@CPlayer@@QAEXVCTString@@@Z 
?SetAttackState@CPlayerAnimatorBase@@QAEXXZ 
?SetAttributeObject@CNpcBase@@QAEXXZ 
?SetAwardFlag@CPlayer@@QAEXW4EPlayerResult@@@Z 
?SetBadFPS@CPlayer@@QAEXH@Z 
?SetBadPing@CPlayer@@QAEXH@Z 
?SetBeAttackedAnimID@CNpcBase@@UAEXPAVCEntity@@W4DamageType@@ABV?$Vector@M$02@@2@Z 
?SetBead@CPlayer@@QAEHPAVCEntity@@W4DamageType@@@Z 
?SetBoneMatrixAbs@CPlayer@@QAEXJAAY0M@M@Z 
?SetBoolFromBoolEType@@YAXAAHW4BoolEType@@@Z 
?SetBossCameraPosition@CPlayerView@@QAEXXZ 
?SetBroadcasting_Observer@CPlayer@@QAEXXZ 
?SetCP@CPlayer@@QAEXM@Z 
?SetCameraPosition@CPlayerView@@QAEXXZ 
?SetChangeZombieHost@CPlayer@@QAEXXZ 
?SetChaosPoint@CNpcBase@@QAEXJ@Z 
?SetCharaType@CPlayer@@QAEXK@Z 
?SetCharacterMode@CPlayer@@QAEXW4ECharacterMode@@@Z 
?SetChristmasBox@CPlayer@@QAEXEV?$Vector@M$02@@@Z 
?SetChristmasEventPoint@CPlayer@@QAEXEGEGE@Z 
?SetClientIndex@CPlayer@@QAEXJ@Z 
?SetComponents@@YAXPAVCEntity@@AAVCModelObject@@KKKKK@Z 
?SetConnected@CPlayer@@QAEXXZ 
?SetContribution@CPlayer@@QAEXK@Z 
?SetCostumeAcc@CPlayer@@QAEXXZ 
?SetCreated@CPlayer@@QAEXXZ 
?SetCurse@CPlayerWeaponBase@@QAE_NPAVCEntity@@AAUDamageInfo@@@Z 
?SetCutSceneState@CPlayer@@QAEXH@Z 
?SetDamage@CBullet@@QAEXM@Z 
?SetDamageDirection@CPlayer@@QAEXV?$Vector@M$02@@@Z 
?SetDamageEffect@CPlayer@@QAEXPAVCEntity@@W4DamageType@@MM@Z 
?SetDamageState@CPlayerAnimatorBase@@QAEXXZ 
?SetDataPointer@CBeginnersHelpData@@AAE?B_NW4_tagstring_id@BeginnersHelp@@@Z 
?SetDataPointer@CTreeBeginnersHelpData@@AAE?B_NW4_tagstring_id@TreeBeginnersHelp@@@Z 
?SetDataPointer_BeginnersHelp@CBeginnersHelpData@@AAE?B_NW4_tagstring_id@BeginnersHelp@@@Z 
?SetDataPointer_TreeInfo@CTreeBeginnersHelpData@@AAE?B_NW4_tagstring_id@TreeBeginnersHelp@@@Z 
?SetDead@CPlayer@@QAEXXZ 
?SetDefaultProperties@CAcidPoison@@UAEXXZ 
?SetDefaultProperties@CAirElemental@@UAEXXZ 
?SetDefaultProperties@CAmmoItem@@UAEXXZ 
?SetDefaultProperties@CAmmoPack@@UAEXXZ 
?SetDefaultProperties@CAnimationChanger@@UAEXXZ 
?SetDefaultProperties@CAnimationHub@@UAEXXZ 
?SetDefaultProperties@CAreaMarker@@UAEXXZ 
?SetDefaultProperties@CArmorDebris@@UAEXXZ 
?SetDefaultProperties@CArmorItem@@UAEXXZ 
?SetDefaultProperties@CBackgroundViewer@@UAEXXZ 
?SetDefaultProperties@CBarrier@@UAEXXZ 
?SetDefaultProperties@CBasePoison@@UAEXXZ 
?SetDefaultProperties@CBasicEffect@@UAEXXZ 
?SetDefaultProperties@CBattleBowAnimator@@UAEXXZ 
?SetDefaultProperties@CBattleBowWeapon@@UAEXXZ 
?SetDefaultProperties@CBattlebow@@UAEXXZ 
?SetDefaultProperties@CBeast@@UAEXXZ 
?SetDefaultProperties@CBigHead@@UAEXXZ 
?SetDefaultProperties@CBillBoardImage@@UAEXXZ 
?SetDefaultProperties@CBlackIceWind@@UAEXXZ 
?SetDefaultProperties@CBlackSmithAnimator@@UAEXXZ 
?SetDefaultProperties@CBlackSmithWeapon@@UAEXXZ 
?SetDefaultProperties@CBlendController@@UAEXXZ 
?SetDefaultProperties@CBlessBall@@UAEXXZ 
?SetDefaultProperties@CBloodEmitter@@UAEXXZ 
?SetDefaultProperties@CBloodSpray@@UAEXXZ 
?SetDefaultProperties@CBloodStain@@UAEXXZ 
?SetDefaultProperties@CBloodSucking@@UAEXXZ 
?SetDefaultProperties@CBoneEffect@@UAEXXZ 
?SetDefaultProperties@CBoneEffectModel@@UAEXXZ 
?SetDefaultProperties@CBoneman@@UAEXXZ 
?SetDefaultProperties@CBouncer@@UAEXXZ 
?SetDefaultProperties@CBoxItem@@UAEXXZ 
?SetDefaultProperties@CBullet@@UAEXXZ 
?SetDefaultProperties@CCPEffect@@UAEXXZ 
?SetDefaultProperties@CCamera@@UAEXXZ 
?SetDefaultProperties@CCameraMarker@@UAEXXZ 
?SetDefaultProperties@CCannonBall@@UAEXXZ 
?SetDefaultProperties@CCannonRotating@@UAEXXZ 
?SetDefaultProperties@CCannonStatic@@UAEXXZ 
?SetDefaultProperties@CChainsawFreak@@UAEXXZ 
?SetDefaultProperties@CChristmasBoxItem@@UAEXXZ 
?SetDefaultProperties@CCocoon@@UAEXXZ 
?SetDefaultProperties@CCopier@@UAEXXZ 
?SetDefaultProperties@CCounter@@UAEXXZ 
?SetDefaultProperties@CCrateBus@@UAEXXZ 
?SetDefaultProperties@CCrateRider@@UAEXXZ 
?SetDefaultProperties@CCreditsHolder@@UAEXXZ 
?SetDefaultProperties@CCutSceneObject@@UAEXXZ 
?SetDefaultProperties@CDamager@@UAEXXZ 
?SetDefaultProperties@CDebris@@UAEXXZ 
?SetDefaultProperties@CDebrisSka@@UAEXXZ 
?SetDefaultProperties@CDemon@@UAEXXZ 
?SetDefaultProperties@CDestroyableArchitecture2@@UAEXXZ 
?SetDefaultProperties@CDestroyableArchitecture@@UAEXXZ 
?SetDefaultProperties@CDevil@@UAEXXZ 
?SetDefaultProperties@CDevilMarker@@UAEXXZ 
?SetDefaultProperties@CDoorController@@UAEXXZ 
?SetDefaultProperties@CDropBoxItem@@UAEXXZ 
?SetDefaultProperties@CDualistAnimator@@UAEXXZ 
?SetDefaultProperties@CDualistBomb@@UAEXXZ 
?SetDefaultProperties@CDualistWeapon@@UAEXXZ 
?SetDefaultProperties@CEffectMarker@@UAEXXZ 
?SetDefaultProperties@CEffector@@UAEXXZ 
?SetDefaultProperties@CElemental@@UAEXXZ 
?SetDefaultProperties@CEnemyBase@@UAEXXZ 
?SetDefaultProperties@CEnemyCounter@@UAEXXZ 
?SetDefaultProperties@CEnemyDive@@UAEXXZ 
?SetDefaultProperties@CEnemyFly@@UAEXXZ 
?SetDefaultProperties@CEnemyMarker@@UAEXXZ 
?SetDefaultProperties@CEnemyRunInto@@UAEXXZ 
?SetDefaultProperties@CEnemySpawner@@UAEXXZ 
?SetDefaultProperties@CEntityStateDisplay@@UAEXXZ 
?SetDefaultProperties@CEnvironmentBase@@UAEXXZ 
?SetDefaultProperties@CEnvironmentMarker@@UAEXXZ 
?SetDefaultProperties@CEnvironmentParticlesHolder@@UAEXXZ 
?SetDefaultProperties@CEruptor@@UAEXXZ 
?SetDefaultProperties@CEventItem@@UAEXXZ 
?SetDefaultProperties@CExotechLarva@@UAEXXZ 
?SetDefaultProperties@CExotechLarvaBattery@@UAEXXZ 
?SetDefaultProperties@CExotechLarvaCharger@@UAEXXZ 
?SetDefaultProperties@CExplEffect@@UAEXXZ 
?SetDefaultProperties@CEyeman@@UAEXXZ 
?SetDefaultProperties@CFireEff@@UAEXXZ 
?SetDefaultProperties@CFireworks@@UAEXXZ 
?SetDefaultProperties@CFish@@UAEXXZ 
?SetDefaultProperties@CFlame@@UAEXXZ 
?SetDefaultProperties@CFloatingScore@@UAEXXZ 
?SetDefaultProperties@CFogMarker@@UAEXXZ 
?SetDefaultProperties@CFreeFallModel@@UAEXXZ 
?SetDefaultProperties@CFreeze@@UAEXXZ 
?SetDefaultProperties@CGameMessageManager@@UAEXXZ 
?SetDefaultProperties@CGizmo@@UAEXXZ 
?SetDefaultProperties@CGlobal@@UAEXXZ 
?SetDefaultProperties@CGradientMarker@@UAEXXZ 
?SetDefaultProperties@CGravityMarker@@UAEXXZ 
?SetDefaultProperties@CGravityRouter@@UAEXXZ 
?SetDefaultProperties@CGrunt@@UAEXXZ 
?SetDefaultProperties@CGuffy@@UAEXXZ 
?SetDefaultProperties@CHazeMarker@@UAEXXZ 
?SetDefaultProperties@CHeadman@@UAEXXZ 
?SetDefaultProperties@CHealthItem@@UAEXXZ 
?SetDefaultProperties@CHoming@@UAEXXZ 
?SetDefaultProperties@CHomingBlazer@@UAEXXZ 
?SetDefaultProperties@CHudPicHolder@@UAEXXZ 
?SetDefaultProperties@CIceWind@@UAEXXZ 
?SetDefaultProperties@CIndicator@@UAEXXZ 
?SetDefaultProperties@CInvincible@@UAEXXZ 
?SetDefaultProperties@CItem@@UAEXXZ 
?SetDefaultProperties@CKeyItem@@UAEXXZ 
?SetDefaultProperties@CKingSkeletonEffect@@UAEXXZ 
?SetDefaultProperties@CLarvaOffspring@@UAEXXZ 
?SetDefaultProperties@CLaser@@UAEXXZ 
?SetDefaultProperties@CLaserReady@@UAEXXZ 
?SetDefaultProperties@CLight@@UAEXXZ 
?SetDefaultProperties@CLightning@@UAEXXZ 
?SetDefaultProperties@CLongBow@@UAEXXZ 
?SetDefaultProperties@CMageAnimator@@UAEXXZ 
?SetDefaultProperties@CMageHold@@UAEXXZ 
?SetDefaultProperties@CMageWeapon@@UAEXXZ 
?SetDefaultProperties@CMagicBomb@@UAEXXZ 
?SetDefaultProperties@CMagicMissile@@UAEXXZ 
?SetDefaultProperties@CMapItem@@UAEXXZ 
?SetDefaultProperties@CMapNpc@@UAEXXZ 
?SetDefaultProperties@CMarker@@UAEXXZ 
?SetDefaultProperties@CMenuController@@UAEXXZ 
?SetDefaultProperties@CMessageHolder@@UAEXXZ 
?SetDefaultProperties@CMessageItem@@UAEXXZ 
?SetDefaultProperties@CMessageManager@@UAEXXZ 
?SetDefaultProperties@CMeteorShower@@UAEXXZ 
?SetDefaultProperties@CMirrorMarker@@UAEXXZ 
?SetDefaultProperties@CModelDestruction@@UAEXXZ 
?SetDefaultProperties@CModelForSequence@@UAEXXZ 
?SetDefaultProperties@CModelForSequenceMarker@@UAEXXZ 
?SetDefaultProperties@CModelHolder2@@UAEXXZ 
?SetDefaultProperties@CModelHolder3@@UAEXXZ 
?SetDefaultProperties@CModelHolder@@UAEXXZ 
?SetDefaultProperties@CMovingBrush@@UAEXXZ 
?SetDefaultProperties@CMovingBrushMarker@@UAEXXZ 
?SetDefaultProperties@CMusicChanger@@UAEXXZ 
?SetDefaultProperties@CMusicHolder@@UAEXXZ 
?SetDefaultProperties@CNavigationMarker@@UAEXXZ 
?SetDefaultProperties@CNinjaAnimator@@UAEXXZ 
?SetDefaultProperties@CNinjaWeapon@@UAEXXZ 
?SetDefaultProperties@CNpcAlistar@@UAEXXZ 
?SetDefaultProperties@CNpcAmelia@@UAEXXZ 
?SetDefaultProperties@CNpcAmeliaAttribute@@UAEXXZ 
?SetDefaultProperties@CNpcAmeliaBase@@UAEXXZ 
?SetDefaultProperties@CNpcAngelKnight1@@UAEXXZ 
?SetDefaultProperties@CNpcAngelKnight2@@UAEXXZ 
?SetDefaultProperties@CNpcAngelKnightBase@@UAEXXZ 
?SetDefaultProperties@CNpcArachne2@@UAEXXZ 
?SetDefaultProperties@CNpcArachne3@@UAEXXZ 
?SetDefaultProperties@CNpcArachne3Attribute@@UAEXXZ 
?SetDefaultProperties@CNpcArachne@@UAEXXZ 
?SetDefaultProperties@CNpcArachneBase@@UAEXXZ 
?SetDefaultProperties@CNpcArachneYellowAttribute@@UAEXXZ 
?SetDefaultProperties@CNpcArchangel@@UAEXXZ 
?SetDefaultProperties@CNpcArchangelAttribute@@UAEXXZ 
?SetDefaultProperties@CNpcArchangelBase@@UAEXXZ 
?SetDefaultProperties@CNpcBase@@UAEXXZ 
?SetDefaultProperties@CNpcBasicEffects@@UAEXXZ 
?SetDefaultProperties@CNpcBerserkerWolf@@UAEXXZ 
?SetDefaultProperties@CNpcBerserkerWolfBase@@UAEXXZ 
?SetDefaultProperties@CNpcBlackDiablo@@UAEXXZ 
?SetDefaultProperties@CNpcBlackstar@@UAEXXZ 
?SetDefaultProperties@CNpcBlazer1@@UAEXXZ 
?SetDefaultProperties@CNpcBlazer2@@UAEXXZ 
?SetDefaultProperties@CNpcBlazer3@@UAEXXZ 
?SetDefaultProperties@CNpcBlazer4@@UAEXXZ 
?SetDefaultProperties@CNpcBlazerAttribute@@UAEXXZ 
?SetDefaultProperties@CNpcBlazerBase@@UAEXXZ 
?SetDefaultProperties@CNpcBlueDiablo@@UAEXXZ 
?SetDefaultProperties@CNpcBlueDragon2@@UAEXXZ 
?SetDefaultProperties@CNpcBlueDragon@@UAEXXZ 
?SetDefaultProperties@CNpcBlueDragonAttribute@@UAEXXZ 
?SetDefaultProperties@CNpcBlueDragonBase@@UAEXXZ 
?SetDefaultProperties@CNpcBombNak@@UAEXXZ 
?SetDefaultProperties@CNpcBombNakBase@@UAEXXZ 
?SetDefaultProperties@CNpcBull1@@UAEXXZ 
?SetDefaultProperties@CNpcBull2@@UAEXXZ 
?SetDefaultProperties@CNpcBull3@@UAEXXZ 
?SetDefaultProperties@CNpcBull4@@UAEXXZ 
?SetDefaultProperties@CNpcBullBase@@UAEXXZ 
?SetDefaultProperties@CNpcChick1@@UAEXXZ 
?SetDefaultProperties@CNpcChocolateCake@@UAEXXZ 
?SetDefaultProperties@CNpcCrossBow1@@UAEXXZ 
?SetDefaultProperties@CNpcCrossBow2@@UAEXXZ 
?SetDefaultProperties@CNpcCrossBow3@@UAEXXZ 
?SetDefaultProperties@CNpcCrossBow4@@UAEXXZ 
?SetDefaultProperties@CNpcCrossBowBase@@UAEXXZ 
?SetDefaultProperties@CNpcDaemonAmelia@@UAEXXZ 
?SetDefaultProperties@CNpcDaemonAmeliaAttribute@@UAEXXZ 
?SetDefaultProperties@CNpcDaemonAmeliaBase@@UAEXXZ 
?SetDefaultProperties@CNpcDeathKnight@@UAEXXZ 
?SetDefaultProperties@CNpcDeathKnightBase@@UAEXXZ 
?SetDefaultProperties@CNpcDeathKnightKing@@UAEXXZ 
?SetDefaultProperties@CNpcDemolition1@@UAEXXZ 
?SetDefaultProperties@CNpcDemolition2@@UAEXXZ 
?SetDefaultProperties@CNpcDemolition3@@UAEXXZ 
?SetDefaultProperties@CNpcDemolitionBase@@UAEXXZ 
?SetDefaultProperties@CNpcDesertHound2@@UAEXXZ 
?SetDefaultProperties@CNpcDesertHound@@UAEXXZ 
?SetDefaultProperties@CNpcDesertHoundBase@@UAEXXZ 
?SetDefaultProperties@CNpcDestroyer2@@UAEXXZ 
?SetDefaultProperties@CNpcDestroyer3@@UAEXXZ 
?SetDefaultProperties@CNpcDestroyer@@UAEXXZ 
?SetDefaultProperties@CNpcDestroyerBase@@UAEXXZ 
?SetDefaultProperties@CNpcDiablo@@UAEXXZ 
?SetDefaultProperties@CNpcDiabloBase@@UAEXXZ 
?SetDefaultProperties@CNpcDiabloBlackAttribute@@UAEXXZ 
?SetDefaultProperties@CNpcDiabloBlueAttribute@@UAEXXZ 
?SetDefaultProperties@CNpcDiabloYellowAttribute@@UAEXXZ 
?SetDefaultProperties@CNpcDragon1@@UAEXXZ 
?SetDefaultProperties@CNpcDragon2@@UAEXXZ 
?SetDefaultProperties@CNpcDragon3@@UAEXXZ 
?SetDefaultProperties@CNpcDragon4@@UAEXXZ 
?SetDefaultProperties@CNpcDragonBase@@UAEXXZ 
?SetDefaultProperties@CNpcDragonHuman2@@UAEXXZ 
?SetDefaultProperties@CNpcDragonHuman@@UAEXXZ 
?SetDefaultProperties@CNpcDragonHumanBase@@UAEXXZ 
?SetDefaultProperties@CNpcDragonHumanKing@@UAEXXZ 
?SetDefaultProperties@CNpcEventDefaultBase@@UAEXXZ 
?SetDefaultProperties@CNpcFallenAmeliaBase@@UAEXXZ 
?SetDefaultProperties@CNpcFallenAmeliaBoss@@UAEXXZ 
?SetDefaultProperties@CNpcFallenAmeliaNormal@@UAEXXZ 
?SetDefaultProperties@CNpcFallenAmeliaNormalAttribute@@UAEXXZ 
?SetDefaultProperties@CNpcFallinCupid2@@UAEXXZ 
?SetDefaultProperties@CNpcFallinCupid@@UAEXXZ 
?SetDefaultProperties@CNpcFallinCupidBase@@UAEXXZ 
?SetDefaultProperties@CNpcFireBird2@@UAEXXZ 
?SetDefaultProperties@CNpcFireBird@@UAEXXZ 
?SetDefaultProperties@CNpcFireBirdBase@@UAEXXZ 
?SetDefaultProperties@CNpcFireBirdHuman2@@UAEXXZ 
?SetDefaultProperties@CNpcFireBirdHuman@@UAEXXZ 
?SetDefaultProperties@CNpcFireBirdHumanBase@@UAEXXZ 
?SetDefaultProperties@CNpcFireBirdHumanKing@@UAEXXZ 
?SetDefaultProperties@CNpcGargoyle@@UAEXXZ 
?SetDefaultProperties@CNpcGargoyleBase@@UAEXXZ 
?SetDefaultProperties@CNpcGoblin@@UAEXXZ 
?SetDefaultProperties@CNpcGoblinBase@@UAEXXZ 
?SetDefaultProperties@CNpcGoldGolem@@UAEXXZ 
?SetDefaultProperties@CNpcGoldenWolf@@UAEXXZ 
?SetDefaultProperties@CNpcGolem1@@UAEXXZ 
?SetDefaultProperties@CNpcGolem2@@UAEXXZ 
?SetDefaultProperties@CNpcGolem3@@UAEXXZ 
?SetDefaultProperties@CNpcGolem4@@UAEXXZ 
?SetDefaultProperties@CNpcGolemBase@@UAEXXZ 
?SetDefaultProperties@CNpcGolemStoneDebris@@UAEXXZ 
?SetDefaultProperties@CNpcGrimReaper2@@UAEXXZ 
?SetDefaultProperties@CNpcGrimReaper2Attribute@@UAEXXZ 
?SetDefaultProperties@CNpcGrimReaper@@UAEXXZ 
?SetDefaultProperties@CNpcGrimReaperBase@@UAEXXZ 
?SetDefaultProperties@CNpcHimmelArcher@@UAEXXZ 
?SetDefaultProperties@CNpcHimmelArcherAttribute@@UAEXXZ 
?SetDefaultProperties@CNpcHimmelArcherBase@@UAEXXZ 
?SetDefaultProperties@CNpcHimmelGoldGolem@@UAEXXZ 
?SetDefaultProperties@CNpcHimmelGolemBase@@UAEXXZ 
?SetDefaultProperties@CNpcHimmelMasterGolemBlue@@UAEXXZ 
?SetDefaultProperties@CNpcHimmelMasterGolemRed@@UAEXXZ 
?SetDefaultProperties@CNpcHimmelNecromancy@@UAEXXZ 
?SetDefaultProperties@CNpcHimmelNecromancyAttribute@@UAEXXZ 
?SetDefaultProperties@CNpcHimmelNecromancyBase@@UAEXXZ 
?SetDefaultProperties@CNpcHimmelNecromancySummon2@@UAEXXZ 
?SetDefaultProperties@CNpcHimmelNecromancySummon2Attribute@@UAEXXZ 
?SetDefaultProperties@CNpcHimmelNecromancySummon@@UAEXXZ 
?SetDefaultProperties@CNpcHimmelNecromancySummonAttribute@@UAEXXZ 
?SetDefaultProperties@CNpcHimmelNecromancySummonBase@@UAEXXZ 
?SetDefaultProperties@CNpcHimmelWarrior@@UAEXXZ 
?SetDefaultProperties@CNpcHimmelWarriorAttribute@@UAEXXZ 
?SetDefaultProperties@CNpcHimmelWarriorBase@@UAEXXZ 
?SetDefaultProperties@CNpcHumanMonster@@UAEXXZ 
?SetDefaultProperties@CNpcHumanMonsterBase@@UAEXXZ 
?SetDefaultProperties@CNpcIceWind1@@UAEXXZ 
?SetDefaultProperties@CNpcIceWind2@@UAEXXZ 
?SetDefaultProperties@CNpcIceWind3@@UAEXXZ 
?SetDefaultProperties@CNpcIceWind4@@UAEXXZ 
?SetDefaultProperties@CNpcIceWindBase@@UAEXXZ 
?SetDefaultProperties@CNpcLeopardNewSoccerArg@@UAEXXZ 
?SetDefaultProperties@CNpcLeopardNewSoccerArgAttribute@@UAEXXZ 
?SetDefaultProperties@CNpcLeopardNewSoccerBase@@UAEXXZ 
?SetDefaultProperties@CNpcLeopardNewSoccerCopa@@UAEXXZ 
?SetDefaultProperties@CNpcLeopardNewSoccerPer@@UAEXXZ 
?SetDefaultProperties@CNpcLeopardNewSoccerPerAttribute@@UAEXXZ 
?SetDefaultProperties@CNpcLeopardSoccer@@UAEXXZ 
?SetDefaultProperties@CNpcLeopardSoccerBase@@UAEXXZ 
?SetDefaultProperties@CNpcLeopardSoccerKing@@UAEXXZ 
?SetDefaultProperties@CNpcLeopardSoccerWinner@@UAEXXZ 
?SetDefaultProperties@CNpcLizardMan@@UAEXXZ 
?SetDefaultProperties@CNpcLizardManBase@@UAEXXZ 
?SetDefaultProperties@CNpcLongBow1@@UAEXXZ 
?SetDefaultProperties@CNpcLongBow2@@UAEXXZ 
?SetDefaultProperties@CNpcLongBow3@@UAEXXZ 
?SetDefaultProperties@CNpcLongBow4@@UAEXXZ 
?SetDefaultProperties@CNpcLongBowBase@@UAEXXZ 
?SetDefaultProperties@CNpcLoversCupid2@@UAEXXZ 
?SetDefaultProperties@CNpcLoversCupid@@UAEXXZ 
?SetDefaultProperties@CNpcLoversCupidBase@@UAEXXZ 
?SetDefaultProperties@CNpcMadSnowMan@@UAEXXZ 
?SetDefaultProperties@CNpcMasterGolem@@UAEXXZ 
?SetDefaultProperties@CNpcMasterNak@@UAEXXZ 
?SetDefaultProperties@CNpcMedusa@@UAEXXZ 
?SetDefaultProperties@CNpcMedusaBase@@UAEXXZ 
?SetDefaultProperties@CNpcNak1@@UAEXXZ 
?SetDefaultProperties@CNpcNak2@@UAEXXZ 
?SetDefaultProperties@CNpcNak3@@UAEXXZ 
?SetDefaultProperties@CNpcNak4@@UAEXXZ 
?SetDefaultProperties@CNpcNakBase@@UAEXXZ 
?SetDefaultProperties@CNpcOldStoneSoldier@@UAEXXZ 
?SetDefaultProperties@CNpcOldStoneSoldierKing@@UAEXXZ 
?SetDefaultProperties@CNpcPanzer1@@UAEXXZ 
?SetDefaultProperties@CNpcPanzer2@@UAEXXZ 
?SetDefaultProperties@CNpcPanzer3@@UAEXXZ 
?SetDefaultProperties@CNpcPanzer4@@UAEXXZ 
?SetDefaultProperties@CNpcPanzerBase@@UAEXXZ 
?SetDefaultProperties@CNpcPirateCaptain@@UAEXXZ 
?SetDefaultProperties@CNpcPirateCaptainBase@@UAEXXZ 
?SetDefaultProperties@CNpcProjectile@@UAEXXZ 
?SetDefaultProperties@CNpcPumpkin1@@UAEXXZ 
?SetDefaultProperties@CNpcPuppet@@UAEXXZ 
?SetDefaultProperties@CNpcPuppetBase@@UAEXXZ 
?SetDefaultProperties@CNpcPuppeteer@@UAEXXZ 
?SetDefaultProperties@CNpcPuppeteerBase@@UAEXXZ 
?SetDefaultProperties@CNpcRedBirdAttribute@@UAEXXZ 
?SetDefaultProperties@CNpcReindeer1@@UAEXXZ 
?SetDefaultProperties@CNpcReindeer2@@UAEXXZ 
?SetDefaultProperties@CNpcReindeer3@@UAEXXZ 
?SetDefaultProperties@CNpcReindeerBase@@UAEXXZ 
?SetDefaultProperties@CNpcSilverDragon@@UAEXXZ 
?SetDefaultProperties@CNpcSilverDragonBase@@UAEXXZ 
?SetDefaultProperties@CNpcSkeletonMusketeer1@@UAEXXZ 
?SetDefaultProperties@CNpcSkeletonMusketeer2@@UAEXXZ 
?SetDefaultProperties@CNpcSkeletonMusketeer3@@UAEXXZ 
?SetDefaultProperties@CNpcSkeletonMusketeer4@@UAEXXZ 
?SetDefaultProperties@CNpcSkeletonMusketeerBase@@UAEXXZ 
?SetDefaultProperties@CNpcSkeletonSamurai1@@UAEXXZ 
?SetDefaultProperties@CNpcSkeletonSamurai2@@UAEXXZ 
?SetDefaultProperties@CNpcSkeletonSamurai3@@UAEXXZ 
?SetDefaultProperties@CNpcSkeletonSamurai4@@UAEXXZ 
?SetDefaultProperties@CNpcSkeletonSamuraiBase@@UAEXXZ 
?SetDefaultProperties@CNpcSnowMan1@@UAEXXZ 
?SetDefaultProperties@CNpcSnowMan2@@UAEXXZ 
?SetDefaultProperties@CNpcSnowMan3@@UAEXXZ 
?SetDefaultProperties@CNpcSnowManBase@@UAEXXZ 
?SetDefaultProperties@CNpcSnowManStoneDebris@@UAEXXZ 
?SetDefaultProperties@CNpcSoulCannon1@@UAEXXZ 
?SetDefaultProperties@CNpcSoulCannon2@@UAEXXZ 
?SetDefaultProperties@CNpcSoulCannon3@@UAEXXZ 
?SetDefaultProperties@CNpcSoulCannon4@@UAEXXZ 
?SetDefaultProperties@CNpcSoulCannonBase@@UAEXXZ 
?SetDefaultProperties@CNpcSpear@@UAEXXZ 
?SetDefaultProperties@CNpcSpearBase@@UAEXXZ 
?SetDefaultProperties@CNpcStoneHorse1@@UAEXXZ 
?SetDefaultProperties@CNpcStoneHorse2@@UAEXXZ 
?SetDefaultProperties@CNpcStoneHorse3@@UAEXXZ 
?SetDefaultProperties@CNpcStoneHorse4@@UAEXXZ 
?SetDefaultProperties@CNpcStoneHorseBase@@UAEXXZ 
?SetDefaultProperties@CNpcStoneSoldier@@UAEXXZ 
?SetDefaultProperties@CNpcStoneSoldierBase@@UAEXXZ 
?SetDefaultProperties@CNpcStoneSoldierKing@@UAEXXZ 
?SetDefaultProperties@CNpcStrawberryCake@@UAEXXZ 
?SetDefaultProperties@CNpcSuccubus1@@UAEXXZ 
?SetDefaultProperties@CNpcSuccubus2@@UAEXXZ 
?SetDefaultProperties@CNpcSuccubusBase@@UAEXXZ 
?SetDefaultProperties@CNpcTaurus1@@UAEXXZ 
?SetDefaultProperties@CNpcTaurus2@@UAEXXZ 
?SetDefaultProperties@CNpcTaurus3@@UAEXXZ 
?SetDefaultProperties@CNpcTaurus4@@UAEXXZ 
?SetDefaultProperties@CNpcTaurusAttribute@@UAEXXZ 
?SetDefaultProperties@CNpcTaurusBase@@UAEXXZ 
?SetDefaultProperties@CNpcTowerBase@@UAEXXZ 
?SetDefaultProperties@CNpcTowerBlueFront@@UAEXXZ 
?SetDefaultProperties@CNpcTowerBlueRear@@UAEXXZ 
?SetDefaultProperties@CNpcTowerRedFront@@UAEXXZ 
?SetDefaultProperties@CNpcTowerRedRear@@UAEXXZ 
?SetDefaultProperties@CNpcTurkey1@@UAEXXZ 
?SetDefaultProperties@CNpcTurtle2@@UAEXXZ 
?SetDefaultProperties@CNpcTurtle@@UAEXXZ 
?SetDefaultProperties@CNpcTurtleBase@@UAEXXZ 
?SetDefaultProperties@CNpcTurtleHuman2@@UAEXXZ 
?SetDefaultProperties@CNpcTurtleHuman@@UAEXXZ 
?SetDefaultProperties@CNpcTurtleHumanAttrlbute@@UAEXXZ 
?SetDefaultProperties@CNpcTurtleHumanBase@@UAEXXZ 
?SetDefaultProperties@CNpcTurtleHumanKing@@UAEXXZ 
?SetDefaultProperties@CNpcTurtleStoneAttribute@@UAEXXZ 
?SetDefaultProperties@CNpcTwinHeadDragon@@UAEXXZ 
?SetDefaultProperties@CNpcTwinHeadDragonBase@@UAEXXZ 
?SetDefaultProperties@CNpcValentineBox@@UAEXXZ 
?SetDefaultProperties@CNpcVanillaCake@@UAEXXZ 
?SetDefaultProperties@CNpcWatcher@@UAEXXZ 
?SetDefaultProperties@CNpcWhiteTiger2@@UAEXXZ 
?SetDefaultProperties@CNpcWhiteTiger@@UAEXXZ 
?SetDefaultProperties@CNpcWhiteTigerBase@@UAEXXZ 
?SetDefaultProperties@CNpcWhiteTigerHuman2@@UAEXXZ 
?SetDefaultProperties@CNpcWhiteTigerHuman@@UAEXXZ 
?SetDefaultProperties@CNpcWhiteTigerHumanBase@@UAEXXZ 
?SetDefaultProperties@CNpcWhiteTigerHumanKing@@UAEXXZ 
?SetDefaultProperties@CNpcWhiteWolf@@UAEXXZ 
?SetDefaultProperties@CNpcWolfBase@@UAEXXZ 
?SetDefaultProperties@CNpcYellowDiablo@@UAEXXZ 
?SetDefaultProperties@CNpcYeti2@@UAEXXZ 
?SetDefaultProperties@CNpcYeti@@UAEXXZ 
?SetDefaultProperties@CNpcYetiBase@@UAEXXZ 
?SetDefaultProperties@CParticleEmitter@@UAEXXZ 
?SetDefaultProperties@CParticleMessage@@UAEXXZ 
?SetDefaultProperties@CParticleSeed@@UAEXXZ 
?SetDefaultProperties@CParticlesHolder@@UAEXXZ 
?SetDefaultProperties@CPassive@@UAEXXZ 
?SetDefaultProperties@CPendulum@@UAEXXZ 
?SetDefaultProperties@CPhotoAlbum@@UAEXXZ 
?SetDefaultProperties@CPlayer@@UAEXXZ 
?SetDefaultProperties@CPlayerAnimatorBase@@UAEXXZ 
?SetDefaultProperties@CPlayerMarker@@UAEXXZ 
?SetDefaultProperties@CPlayerView@@UAEXXZ 
?SetDefaultProperties@CPlayerWeaponBase@@UAEXXZ 
?SetDefaultProperties@CPowerUpItem@@UAEXXZ 
?SetDefaultProperties@CProjectile@@UAEXXZ 
?SetDefaultProperties@CPyramidSpaceShip@@UAEXXZ 
?SetDefaultProperties@CPyramidSpaceShipMarker@@UAEXXZ 
?SetDefaultProperties@CQMarker@@UAEXXZ 
?SetDefaultProperties@CQstJudge@@UAEXXZ 
?SetDefaultProperties@CQstNpcSpawn@@UAEXXZ 
?SetDefaultProperties@CQstSwitch@@UAEXXZ 
?SetDefaultProperties@CQstTrigger@@UAEXXZ 
?SetDefaultProperties@CRangeWeapon@@UAEXXZ 
?SetDefaultProperties@CReminder@@UAEXXZ 
?SetDefaultProperties@CReversal@@UAEXXZ 
?SetDefaultProperties@CRollingStone@@UAEXXZ 
?SetDefaultProperties@CSanta@@UAEXXZ 
?SetDefaultProperties@CSaveGameBooth@@UAEXXZ 
?SetDefaultProperties@CScorpman@@UAEXXZ 
?SetDefaultProperties@CScrollHolder@@UAEXXZ 
?SetDefaultProperties@CSeriousBomb@@UAEXXZ 
?SetDefaultProperties@CShip@@UAEXXZ 
?SetDefaultProperties@CShipMarker@@UAEXXZ 
?SetDefaultProperties@CShooter@@UAEXXZ 
?SetDefaultProperties@CSoulCannon@@UAEXXZ 
?SetDefaultProperties@CSoulCharge@@UAEXXZ 
?SetDefaultProperties@CSoundHolder@@UAEXXZ 
?SetDefaultProperties@CSpawnerProjectile@@UAEXXZ 
?SetDefaultProperties@CSpikeObject@@UAEXXZ 
?SetDefaultProperties@CSpine@@UAEXXZ 
?SetDefaultProperties@CSpineJut@@UAEXXZ 
?SetDefaultProperties@CSpinner@@UAEXXZ 
?SetDefaultProperties@CStormController@@UAEXXZ 
?SetDefaultProperties@CStun@@UAEXXZ 
?SetDefaultProperties@CSummoner@@UAEXXZ 
?SetDefaultProperties@CSummonerMarker@@UAEXXZ 
?SetDefaultProperties@CSwitch@@UAEXXZ 
?SetDefaultProperties@CSwitchPointer@@UAEXXZ 
?SetDefaultProperties@CSwordManAnimator@@UAEXXZ 
?SetDefaultProperties@CSwordmanWeapon@@UAEXXZ 
?SetDefaultProperties@CTacticsChanger@@UAEXXZ 
?SetDefaultProperties@CTacticsHolder@@UAEXXZ 
?SetDefaultProperties@CTeleport@@UAEXXZ 
?SetDefaultProperties@CTerrainEntity@@UAEXXZ 
?SetDefaultProperties@CTextFXHolder@@UAEXXZ 
?SetDefaultProperties@CTimeController@@UAEXXZ 
?SetDefaultProperties@CTouchField@@UAEXXZ 
?SetDefaultProperties@CTreasureItem@@UAEXXZ 
?SetDefaultProperties@CTried@@UAEXXZ 
?SetDefaultProperties@CTrigger@@UAEXXZ 
?SetDefaultProperties@CTwister@@UAEXXZ 
?SetDefaultProperties@CVideoHolder@@UAEXXZ 
?SetDefaultProperties@CVoiceHolder@@UAEXXZ 
?SetDefaultProperties@CWalker@@UAEXXZ 
?SetDefaultProperties@CWatchPlayers@@UAEXXZ 
?SetDefaultProperties@CWatcher@@UAEXXZ 
?SetDefaultProperties@CWeakening@@UAEXXZ 
?SetDefaultProperties@CWeaponEffect@@UAEXXZ 
?SetDefaultProperties@CWeaponEffectBase@@UAEXXZ 
?SetDefaultProperties@CWeaponEffectEmitter@@UAEXXZ 
?SetDefaultProperties@CWeaponEffectKit@@UAEXXZ 
?SetDefaultProperties@CWeaponEffectSkeleton@@UAEXXZ 
?SetDefaultProperties@CWeaponEffectTrail@@UAEXXZ 
?SetDefaultProperties@CWeaponItem@@UAEXXZ 
?SetDefaultProperties@CWerebull@@UAEXXZ 
?SetDefaultProperties@CWing@@UAEXXZ 
?SetDefaultProperties@CWoman@@UAEXXZ 
?SetDefaultProperties@CWorldBase@@UAEXXZ 
?SetDefaultProperties@CWorldLink@@UAEXXZ 
?SetDefaultProperties@CWorldSettingsController@@UAEXXZ 
?SetDesiredMovement@CEnemyBase@@UAEKXZ 
?SetDesiredMovement@CEnemyDive@@UAEKXZ 
?SetDesiredMovement@CEnemyFly@@UAEKXZ 
?SetDesiredMovement@CNpcBase@@UAEKXZ 
?SetDropItemBox@CNpcBase@@QAEXH@Z 
?SetDropItemBox@CPlayer@@QAEXKV?$Vector@M$02@@@Z 
?SetEAttackFireEvent@CNpcBase@@QAEHVEAttackFire@@@Z 
?SetEAttackHitEvent@CNpcBase@@QAEHVEAttackHit@@@Z 
?SetESpecialAttackHitEvent@CNpcBase@@QAEHVESpecialAttackHit@@@Z 
?SetETouchSendedByRemoteEvent@CNpcBase@@QAEHVETouchSendedByRemote@@@Z 
?SetEffectColor@CParticleEmitter@@QAEXK@Z 
?SetEffectColor@CProjectile@@QAEXK@Z 
?SetEntityInfo@CNpcBase@@QAEXXZ 
?SetEntityPosition@CEnemyDive@@QAEXXZ 
?SetEntityPosition@CEnemyFly@@QAEXXZ 
?SetEventItem@CNpcBase@@QAEXH@Z 
?SetEventItem@CPlayer@@QAEXABE0V?$Vector@M$02@@E@Z 
?SetExtraStyle@CNpcBase@@QAEXVENpcExtraSet@@@Z 
?SetFileDataSetUp@CBeginnersHelpData@@AAE?B_NXZ 
?SetFileDataSetUp@CTreeBeginnersHelpData@@AAE?B_NXZ 
?SetFindNearPathTarget@CNpcBase@@QAEXXZ 
?SetFlag@CBeginnersHelpData@@AAE?B_NW4_stat_flag@BeginnersHelp@@@Z 
?SetFlag@CLevelScriptor@@QAEHW4_stat_flag@@@Z 
?SetFlag@CTreeBeginnersHelpData@@AAE?B_NW4_stat_flag@TreeBeginnersHelp@@@Z 
?SetGoldSwordModeForPlayer@CNpcBase@@QAEXABVEGoldSword@@@Z 
?SetGrow@CParticleEmitter@@QAEXH@Z 
?SetHP@CNpcBase@@UAEXM@Z 
?SetHP@CPlayer@@UAEXM@Z 
?SetInitInformation@CNpcBase@@UAEHUsSummonCreatureData@@H@Z 
?SetItemType@CItem@@UAEXJ@Z 
?SetKeyCmd@CPlayerAnimatorBase@@QAEXJ@Z 
?SetKillCount_InRound@CPlayer@@QAEXK@Z 
?SetKillCount_InRound@CPlayer@@QAEXKH@Z 
?SetLevel@CNpcBase@@QAEXJ@Z 
?SetLimitedSell@CItemManager@@QAEXE@Z 
?SetLimitedSell@CLimitedSell@@QAEXE@Z 
?SetLimitedSellItem@CItemManager@@QAEXAAULIMITED_SELL_ITEM_INFO@@@Z 
?SetLimitedSellReCount@CItemManager@@QAEXGG@Z 
?SetLimitedSellState@CItemManager@@QAEXEK@Z 
?SetMachuPicchu@CPlayerWeaponBase@@QAE_NPAVCEntity@@AAUDamageInfo@@@Z 
?SetMapNpcPatrolMoveInfo@CNpcBase@@QAEXAAUS_MAPNPC_MOVE_INFO@@@Z 
?SetMaxAP@CPlayer@@QAEXG@Z 
?SetMaxCP@CPlayer@@QAEXG@Z 
?SetMaxHP@CNpcBase@@QAEXM@Z 
?SetMaxHP@CPlayer@@QAEXG@Z 
?SetMinimapScale@CPlayer@@QAEXM@Z 
?SetModeModel@CPlayer@@QAEXXZ 
?SetModelsColor@CPlayer@@QAEXK@Z 
?SetModelsColor@CPlayer@@QAEXKM@Z 
?SetModelsOriginalColor@CPlayer@@QAEXXZ 
?SetMovePathSpeedToDesiredPosition@CNpcBase@@QAEXABV?$Vector@M$02@@PAVCEntity@@@Z 
?SetNextPlacement@CPlayerView@@QAEXVCPlacement3D@@@Z 
?SetNotBuyItem@CItemManager@@QAEXG@Z 
?SetNpcName@CNpcBase@@QAEXAAVCTString@@@Z 
?SetObserver@CPlayer@@QAEXH@Z 
?SetOnePlusOne@CItemManager@@QAEXE@Z 
?SetOpacity_Creature@CNpcBase@@QAEXXZ 
?SetPlayerActionState@CPlayerAnimatorBase@@QAEXW4ePlayerAction@@@Z 
?SetPlayerAttribute@CPlayer@@QAEXXZ 
?SetPlayerAttribute_WorldEditorApp@CPlayer@@QAEXXZ 
?SetPlayerFlagOff@CPlayer@@QAEXJ@Z 
?SetPlayerFlagOn@CPlayer@@QAEXJ@Z 
?SetPlayerModel@CPlayer@@QAEXXZ 
?SetPlayerName@CPlayer@@QAEXVCTString@@@Z 
?SetPlayerReturnStartPosition@CPlayer@@QAEXHH@Z 
?SetPredictionPair@CLarvaOffspring@@UAEXPAVCEntity@@@Z 
?SetPredictionPair@CNpcWatcher@@UAEXPAVCEntity@@@Z 
?SetPredictionPair@CPlayerAnimatorBase@@UAEXPAVCEntity@@@Z 
?SetPredictionPair@CPlayerView@@UAEXPAVCEntity@@@Z 
?SetPredictionPair@CProjectile@@UAEXPAVCEntity@@@Z 
?SetPredictionPair@CWatcher@@UAEXPAVCEntity@@@Z 
?SetPriorTarget@CNpcBase@@QAEXPAVCEntity@@@Z 
?SetRankVar@CPlayer@@QAEXXZ 
?SetReduceGauge@CPlayer@@QAEXH@Z 
?SetReversal@CPlayerWeaponBase@@QAE_NPAVCEntity@@AAUDamageInfo@@@Z 
?SetReversalItem@CPlayer@@QAEXXZ 
?SetRival@CPlayer@@QAEXEPAV1@@Z 
?SetRkTexture@@YAHVCTFileName@@AAVCTextureObject@@@Z 
?SetRotation@CPlayer@@QAEXAAJM@Z 
?SetSaleEventInfo@CItemManager@@QAEXEEKE@Z 
?SetSector@CNpcBase@@QAEXXZ 
?SetSetItemBoneEffect@CNpcBase@@QAEXXZ 
?SetSetItemBoneEffect@CPlayer@@QAEXXZ 
?SetShopItemClass@CItemManager@@QAEXW4EShopItemClass@@@Z 
?SetShowUI@CNpcBase@@QAEXH@Z 
?SetSpawnVariable@CNpcBase@@UAEXVESpawnNpc@@@Z 
?SetSpeechBubble@CPlayer@@QAEXPBDM@Z 
?SetSpeedsToDesiredPosition@CEnemyBase@@UAEXABV?$Vector@M$02@@MH@Z 
?SetSpeedsToDesiredPosition@CNpcBase@@UAEXABV?$Vector@M$02@@M@Z 
?SetStageParameter@CLevelScriptor@@AAEXXZ 
?SetStartBeIdleTime@CNpcBase@@QAEXXZ 
?SetState@CLimitedSell@@QAEXEK@Z 
?SetStateData@CNpcBase@@QAEXXZ 
?SetSummoner@CNpcBase@@UAEXPAV1@@Z 
?SetTapMiniMapPick@CPlayer@@QAEXE@Z 
?SetTarget@CNpcBase@@QAEHPAVCEntity@@@Z 
?SetTargetAnimation@CNpcBase@@UAEXXZ 
?SetTargetBuffAtionEvent@CNpcBase@@QAEHVEBuffAction@@@Z 
?SetTargetChargeAttackEvent@CNpcBase@@QAEHVEChargeAttack@@@Z 
?SetTargetDistanceAttackEvent@CNpcBase@@QAEHVEDistanceAttack@@@Z 
?SetTargetEffectAttackEvent@CNpcBase@@QAEHVEEffectAttack@@@Z 
?SetTargetHard@CEnemyBase@@QAEHPAVCEntity@@@Z 
?SetTargetHardForce@CEnemyBase@@QAEHPAVCEntity@@@Z 
?SetTargetIndicator@CNpcBase@@UAEXH@Z 
?SetTargetIndicator@CPlayer@@QAEXH@Z 
?SetTargetNone@CEnemyBase@@QAEXXZ 
?SetTargetNone@CNpcBase@@QAEXXZ 
?SetTargetOverallAttackEvent@CNpcBase@@QAEHVEOverallAttack@@@Z 
?SetTargetPhaseCheckEvent@CNpcBase@@QAEHVEPhaseCheck@@@Z 
?SetTargetShortAttackEvent@CNpcBase@@QAEHVEShortAttack@@@Z 
?SetTargetShortRangeAttackEvent@CNpcBase@@QAEHVEShortRangeAttack@@@Z 
?SetTargetSoft@CEnemyBase@@QAEHPAVCEntity@@@Z 
?SetTargetSummonAttackEvent@CNpcBase@@QAEHVESummonAttack@@@Z 
?SetTextureFlameThrower@@YAXVCTFileName@@@Z 
?SetUnconnected@CPlayer@@QAEXXZ 
?SetUnusable_CharName_Count@CCharName_Filter@@QAEXXZ 
?SetWatchDelays@CNpcWatcher@@QAEXXZ 
?SetWatchDelays@CWatcher@@QAEXXZ 
?SetWeapon@CBattleBowAnimator@@UAEXXZ 
?SetWeapon@CBlackSmithAnimator@@UAEXXZ 
?SetWeapon@CDualistAnimator@@UAEXXZ 
?SetWeapon@CMageAnimator@@UAEXXZ 
?SetWeapon@CNinjaAnimator@@UAEXXZ 
?SetWeapon@CPlayerAnimatorBase@@QAEXVESetWeapon@@@Z 
?SetWeapon@CPlayerAnimatorBase@@UAEXXZ 
?SetWeapon@CSwordManAnimator@@UAEXXZ 
?SetWeaponAndAnimator@CPlayer@@UAEXXZ 
?SetWeaponFlameBone@CPlayer@@QAEJPAVCModelInstance@@AAV?$CDynamicArray@J@@@Z 
?SetWeaponOff@CBattleBowAnimator@@UAEXJ@Z 
?SetWeaponOff@CBlackSmithAnimator@@UAEXJ@Z 
?SetWeaponOff@CDualistAnimator@@UAEXJ@Z 
?SetWeaponOff@CMageAnimator@@UAEXJ@Z 
?SetWeaponOff@CNinjaAnimator@@UAEXJ@Z 
?SetWeaponOff@CPlayerAnimatorBase@@UAEXJ@Z 
?SetWeaponOff@CSwordManAnimator@@UAEXJ@Z 
?SetWeaponOn@CBattleBowAnimator@@UAEXJ@Z 
?SetWeaponOn@CBlackSmithAnimator@@UAEXJ@Z 
?SetWeaponOn@CDualistAnimator@@UAEXJ@Z 
?SetWeaponOn@CMageAnimator@@UAEXJ@Z 
?SetWeaponOn@CNinjaAnimator@@UAEXJ@Z 
?SetWeaponOn@CPlayerAnimatorBase@@UAEXJ@Z 
?SetWeaponOn@CSwordManAnimator@@UAEXJ@Z 
?Set_Gold_Master_Golem_Level@CNpcBase@@QAEXXZ 
?SetupDamageInfo@CPlayerWeaponBase@@QAEXW4EEntityClassType@@PAUDamageInfo@@JV?$Vector@M$02@@2@Z 
?SetupDownState@CPlayer@@QAEXJ@Z 
?SetupDownState_DMT@CPlayer@@QAEXJ@Z 
?SetupLightSource@CPlayer@@QAEXXZ 
?SetupLightSource@CProjectile@@QAEXH@Z 
?SetupView@CPlayer@@QAEXPAVCDrawPort@@AAVCAnyProjection3D@@AAPAVCEntity@@AAVCPlacement3D@@AAKH@Z 
?ShadowType_enum@@3VCEntityPropertyEnumType@@A 
?ShadowType_values@@3PAVCEntityPropertyEnumValue@@A 
?ShootArrow@CProjectile@@QAEXXZ 
?ShootPredictedProjectile@CEnemyBase@@QAEXW4ProjectileType@@V?$Vector@M$02@@AAV3@2@Z 
?ShootPredictedProjectile@CNpcBase@@QAEXW4ProjectileType@@V?$Vector@M$02@@AAV3@2@Z 
?ShootProjectile@CEnemyBase@@QAEXW4ProjectileType@@AAV?$Vector@M$02@@1@Z 
?ShootProjectile@CNpcBase@@QAEPAVCEntityPointer@@W4ProjectileType@@AAV?$Vector@M$02@@1MJW4DamageType@@M@Z 
?ShootProjectile@CNpcBase@@QAEXW4ProjectileType@@AAV?$Vector@M$02@@11@Z 
?ShootProjectile@CNpcBase@@QAEXW4ProjectileType@@AAV?$Vector@M$02@@11M@Z 
?ShootProjectile@CNpcBase@@QAEXW4ProjectileType@@AAV?$Vector@M$02@@1AAVCEntityPointer@@MJW4DamageType@@MMVCTString@@HM@Z 
?ShootProjectile@CNpcBase@@QAEXW4ProjectileType@@AAV?$Vector@M$02@@1MJK@Z 
?ShootProjectile@CNpcBase@@UAEXW4ProjectileType@@AAV?$Vector@M$02@@1MJ@Z 
?ShootProjectileAt@CEnemyBase@@QAEXV?$Vector@M$02@@W4ProjectileType@@AAV2@2@Z 
?ShootProjectileAt@CNpcBase@@QAEXV?$Vector@M$02@@W4ProjectileType@@AAV2@2@Z 
?ShootProjectileCustomTarget@CNpcBase@@QAEXW4ProjectileType@@AAVCEntityPointer@@AAV?$Vector@M$02@@2MJM@Z 
?ShootProjectile_Guied@CNpcBase@@UAEXAAV?$Vector@M$02@@0AAVCEntityPointer@@MJW4DamageType@@MMVCTString@@W4BasicEffectType@@@Z 
?ShootShuriken@CNinjaWeapon@@UAEXVEShootShuriken@@@Z 
?ShootShuriken@CPlayerWeaponBase@@UAEXVEShootShuriken@@@Z 
?ShootWeapon@CBattleBowWeapon@@UAEXVEShootWeapon@@@Z 
?ShootWeapon@CBlackSmithWeapon@@UAEXVEShootWeapon@@@Z 
?ShootWeapon@CDualistWeapon@@UAEXVEShootWeapon@@@Z 
?ShootWeapon@CNinjaWeapon@@UAEXVEShootWeapon@@@Z 
?ShootWeapon@CPlayerWeaponBase@@UAEXVEShootWeapon@@@Z 
?ShootWeapon@CSwordmanWeapon@@UAEXVEShootWeapon@@@Z 
?ShooterFireball@CProjectile@@QAEXXZ 
?ShooterFireballExplosion@CProjectile@@QAEXXZ 
?ShooterFlame@CProjectile@@QAEXXZ 
?ShooterWoodenDart@CProjectile@@QAEXXZ 
?ShooterWoodenDartExplosion@CProjectile@@QAEXXZ 
?ShouldBlowUp@CEnemyBase@@UAEHXZ 
?ShouldCeaseAttack@CEnemyBase@@QAEHXZ 
?ShouldCeaseAttack@CNpcBase@@QAEHXZ 
?ShowItemParticles@CItem@@QAEHXZ 
?ShowSuccSign@CPlayer@@QAEXM@Z 
?SightSound@CEnemyBase@@UAEXXZ 
?SightSound@CNpcBase@@UAEXXZ 
?SingleBuff01@CNpcBase@@QAEHABVCEntityEvent@@@Z 
?SingleBuff02@CNpcBase@@QAEHABVCEntityEvent@@@Z 
?SingleBuff03@CNpcBase@@QAEHABVCEntityEvent@@@Z 
?SizeModel@CEnemyBase@@UAEXXZ 
?SizeModel@CNpcBase@@UAEXXZ 
?SkeletonBlood@CPlayerWeaponBase@@QAE_NV?$Vector@M$02@@H@Z 
?SkipEmptySpace@CBeginnersHelpData@@AAEJXZ 
?SkipEmptySpace@CLevelScriptor@@QAEJXZ 
?SkipEmptySpace@CTreeBeginnersHelpData@@AAEJXZ 
?SoundType_enum@@3VCEntityPropertyEnumType@@A 
?SoundType_values@@3PAVCEntityPropertyEnumValue@@A 
?SpawnBlood_client@CEnemyBase@@QAEXVEEnemyBaseDamage@@@Z 
?SpawnBlood_client@CNpcBase@@QAEXVENpcBaseDamage@@@Z 
?SpawnBubbles@CPlayer@@QAEXJ@Z 
?SpawnEffect@CCannonBall@@QAEXABVCPlacement3D@@ABVESpawnEffect@@@Z 
?SpawnEffect@CLarvaOffspring@@QAEXABVCPlacement3D@@ABVESpawnEffect@@@Z 
?SpawnEffect@CNpcBase@@QAEXABVCPlacement3D@@ABVESpawnEffect@@@Z 
?SpawnEffect@CProjectile@@QAEXABVCPlacement3D@@ABVESpawnEffect@@@Z 
?SpawnFlame@@YA?AVCEntityPointer@@PAVCEntity@@0ABV?$Vector@M$02@@@Z 
?SpawnNPC_n@CPlayer@@UAEXPAUCellInfo@@PAV1@H@Z 
?SpawnRangeSound@@YAXPAVCEntity@@0W4SoundType@@M@Z 
?SpawnReminder@@YA?AVCEntityPointer@@PAVCEntity@@MJ@Z 
?SpawnTeleportEffect@CPlayer@@QAEXXZ 
?SpawnTrail@CBullet@@QAEXXZ 
?SpecialEffectDamage@CPlayerWeaponBase@@QAE_NPAVCEntity@@AAUDamageInfo@@@Z 
?SpecialHit@CNpcBase@@QAEHABVCEntityEvent@@@Z 
?SpecificViewCamera@CPlayer@@QAEXXZ 
?SprayParticlesType_enum@@3VCEntityPropertyEnumType@@A 
?SprayParticlesType_values@@3PAVCEntityPropertyEnumValue@@A 
?StandardBehavior@CEnemyBase@@QAEHABVCEntityEvent@@@Z 
?StandingAnim@CEnemyBase@@UAEXXZ 
?StandingAnim@CNpcBase@@UAEXXZ 
?StandingAnimFight@CEnemyBase@@UAEXXZ 
?StandingAnimFight@CNpcBase@@UAEXXZ 
?StartDebugTrigger@@YAXPAVCEntity@@@Z 
?StartPathFinding@CEnemyBase@@UAEXXZ 
?StartPathFinding@CEnemyDive@@UAEXXZ 
?StartPathFinding@CEnemyFly@@UAEXXZ 
?StartPathFinding@CNpcBase@@QAEXXZ 
?StartRound@CPlayer@@QAEXVEStartRound@@@Z 
?StartSkaAnim@@YAXPAVCEntity@@JKJM@Z 
?StartSkaAnimStr@@YAXPAVCModelInstance@@VCTString@@KJM@Z 
?StartTacticsNow@CEnemyBase@@QAEXXZ 
?StartTransRootMoving@CNpcBase@@QAEXXZ 
?StopAttack@CEnemyBase@@QAEHABVCEntityEvent@@@Z 
?StopAttack@CNpcBase@@QAEXXZ 
?StopMoving@CEnemyBase@@QAEXXZ 
?StopMoving@CNpcBase@@QAEXXZ 
?StopRotating@CEnemyBase@@QAEXXZ 
?StopRotating@CNpcBase@@QAEXXZ 
?StopTranslating@CEnemyBase@@QAEXXZ 
?StopTranslating@CNpcBase@@QAEXXZ 
?StopWatcher@CNpcBase@@QAEXXZ 
?StoreLast@CPlayerAnimatorBase@@QAEXXZ 
?StretchChildren@CItem@@QAEXV?$Vector@M$02@@@Z 
?StretchModel@CEnemyBase@@QAEXV?$Vector@M$02@@@Z 
?StretchModel@CNpcBase@@QAEXV?$Vector@M$02@@@Z 
?StretchSingleModel@CEnemyBase@@QAEXV?$Vector@M$02@@@Z 
?StretchSingleModel@CNpcBase@@QAEXV?$Vector@M$02@@@Z 
?Stun@CNpcBase@@QAEXXZ 
?Stun@CPlayer@@QAEXVESpawnStun@@@Z 
?SubtractionAttributePower@CNpcBase@@QAEXXZ 
?SumRoundExp@CPlayer@@QAEHK@Z 
?SummonAttack01@CNpcBase@@QAEHABVCEntityEvent@@@Z 
?SummonCreaturePlayer@CNpcBase@@QAEPAV1@AAVCEntityPointer@@JAAVCPlacement3D@@HW4ECellType@@W4EEntityClassType@@W4EAttributeStone_Type@@E@Z 
?SummonEffectType_enum@@3VCEntityPropertyEnumType@@A 
?SummonEffectType_values@@3PAVCEntityPropertyEnumValue@@A 
?SummonMapCreature@CNpcBase@@QAEPAV1@JAAVCPlacement3D@@HW4ECellType@@W4EEntityClassType@@JW4EAttributeStone_Type@@E@Z 
?SummonServant@CNpcBase@@QAEXVCTString@@W4ECellType@@W4EEntityClassType@@HW4EAttributeStone_Type@@E@Z 
?SwingShotTimeResetRing@CPlayer@@QAEXXZ 
?SwitchType_enum@@3VCEntityPropertyEnumType@@A 
?SwitchType_values@@3PAVCEntityPropertyEnumValue@@A 
?TacticType_enum@@3VCEntityPropertyEnumType@@A 
?TacticType_values@@3PAVCEntityPropertyEnumValue@@A 
?Target@CNavigationMarker@@QAEAAV1@J@Z 
?TargetPointer@CNavigationMarker@@QAEAAVCEntityPointer@@J@Z 
?TargetType_enum@@3VCEntityPropertyEnumType@@A 
?TargetType_values@@3PAVCEntityPropertyEnumValue@@A 
?TestSpark2@CPlayer@@QAEXV?$Vector@M$02@@@Z 
?TestSpark3@CPlayer@@QAEXV?$Vector@M$02@@@Z 
?TestSpark4@CPlayer@@QAEXV?$Vector@M$02@@@Z 
?TestSpark5@CPlayer@@QAEXV?$Vector@M$02@@@Z 
?TestSpark6@CPlayer@@QAEXV?$Vector@M$02@@0@Z 
?TestSpark@CPlayer@@QAEXV?$Vector@M$02@@@Z 
?TestWeaponEffect@CPlayerWeaponBase@@QAEXXZ 
?TextMessageState_enum@@3VCEntityPropertyEnumType@@A 
?TextMessageState_values@@3PAVCEntityPropertyEnumValue@@A 
?TouchOrDamageEvent_enum@@3VCEntityPropertyEnumType@@A 
?TouchOrDamageEvent_values@@3PAVCEntityPropertyEnumValue@@A 
?TransitChangeView_Console@CPlayer@@QAEXXZ 
?TransitChangeView_FPS@CPlayer@@QAEXXZ 
?TreasureItemType_enum@@3VCEntityPropertyEnumType@@A 
?TreasureItemType_values@@3PAVCEntityPropertyEnumValue@@A 
?Tried@CNpcBase@@QAEXM@Z 
?Tried@CPlayer@@QAEXVESpawnTried@@@Z 
?Update@CNpcBase@@UAEXXZ 
?Update@CParticleEmitter@@UAEXXZ 
?Update@CPlayer@@UAEXXZ 
?UpdateAppearance@CPlayer@@QAEXXZ 
?UpdateApplyStageEffectItem@CPlayer@@QAEXXZ 
?UpdateAttackStateChangeAnimationChild@CBattleBowAnimator@@UAEHJM@Z 
?UpdateAttackStateChangeAnimationChild@CBlackSmithAnimator@@UAEHJM@Z 
?UpdateAttackStateChangeAnimationChild@CDualistAnimator@@UAEHJM@Z 
?UpdateAttackStateChangeAnimationChild@CMageAnimator@@UAEHJM@Z 
?UpdateAttackStateChangeAnimationChild@CNinjaAnimator@@UAEHJM@Z 
?UpdateAttackStateChangeAnimationChild@CPlayerAnimatorBase@@UAEHJM@Z 
?UpdateAttackStateChangeAnimationChild@CSwordManAnimator@@UAEHJM@Z 
?UpdateAttackStateSound@CBattleBowAnimator@@UAEHJ@Z 
?UpdateAttackStateSound@CBlackSmithAnimator@@UAEHJ@Z 
?UpdateAttackStateSound@CDualistAnimator@@UAEHJ@Z 
?UpdateAttackStateSound@CMageAnimator@@UAEHJ@Z 
?UpdateAttackStateSound@CNinjaAnimator@@UAEHJ@Z 
?UpdateAttackStateSound@CPlayerAnimatorBase@@UAEHJ@Z 
?UpdateAttackStateSound@CSwordManAnimator@@UAEHJ@Z 
?UpdateBladeFlame@CPlayer@@QAEXXZ 
?UpdateBladeInfo@CPlayerWeaponBase@@QAEXXZ 
?UpdateBladeTrail@CPlayer@@QAEXXZ 
?UpdateDamage_HoldAttack@CPlayer@@QAEXXZ 
?UpdateNewGolemBattleMapNpcData@CPlayer@@QAEXXZ 
?UpdateNinjaBladeInfo@CDualistWeapon@@UAEXXZ 
?UpdateNinjaBladeInfo@CNinjaWeapon@@UAEXXZ 
?UpdateNinjaBladeInfo@CPlayerWeaponBase@@UAEXXZ 
?UpdateNpcDisappear@CNpcBase@@QAEHXZ 
?UpdatePlacement@CNpcBase@@UAEXV?$Vector@M$02@@0@Z 
?UpdatePlacement@CPlayer@@UAEXABVCPlayerAction@@@Z 
?UpdatePlacement@CPlayerView@@UAEXV?$Vector@M$02@@0@Z 
?UpdatePonytail@CPlayer@@QAEXM@Z 
?UpdateRender@CPlayer@@UAEXXZ 
?UpdateReportUser@CPlayer@@QAEXM@Z 
?UpdateStateManager@CNpcBase@@QAEXXZ 
?UpdateStateManager@CPlayer@@QAEXXZ 
?UpdateTick_First@CNpcBase@@UAEXXZ 
?UpdateTick_Last@CNpcBase@@UAEXXZ 
?UpdateTransLock@CPlayer@@QAEXXZ 
?UpdateWeaponChange@CPlayerAnimatorBase@@QAEXXZ 
?UpdateWeaponChangeException@CBattleBowAnimator@@UAEXXZ 
?UpdateWeaponChangeException@CBlackSmithAnimator@@UAEXXZ 
?UpdateWeaponChangeException@CDualistAnimator@@UAEXXZ 
?UpdateWeaponChangeException@CMageAnimator@@UAEXXZ 
?UpdateWeaponChangeException@CNinjaAnimator@@UAEXXZ 
?UpdateWeaponChangeException@CPlayerAnimatorBase@@UAEXXZ 
?UpdateWeaponChangeException@CSwordManAnimator@@UAEXXZ 
?UpdateWeaponHandBladeInfo@CPlayerWeaponBase@@UAEXXZ 
?UpdateWeaponHit@CBlackSmithWeapon@@UAEXXZ 
?UpdateWeaponHit@CDualistWeapon@@UAEXXZ 
?UpdateWeaponHit@CNinjaWeapon@@UAEXXZ 
?UpdateWeaponHit@CPlayerWeaponBase@@UAEXXZ 
?UpdateWeaponHit@CSwordmanWeapon@@UAEXXZ 
?UpdateWeaponShoot@CPlayerAnimatorBase@@QAEXXZ 
?UseAPPotion@CPlayer@@QAEXXZ 
?UseBronzePotion@CPlayer@@QAEXXZ 
?UseCPPotion@CPlayer@@QAEXXZ 
?UseChaosPotion@CPlayer@@QAEXJ@Z 
?UseClanRespawnPotion@CPlayer@@QAEXXZ 
?UseFear@CNpcBase@@UAEXXZ 
?UseFearType1@CPlayer@@QAEXXZ 
?UseFearType2@CPlayer@@QAEXXZ 
?UseGoldPotion@CPlayer@@QAEXXZ 
?UseHPPotion@CPlayer@@QAEXXZ 
?UseHorroPotion1@CPlayer@@QAEXXZ 
?UseHorroPotion2@CPlayer@@QAEXXZ 
?UseInvinciblePotion@CPlayer@@QAEXK@Z 
?UseMaxChaosPotion@CPlayer@@QAEXXZ 
?UseScouterPotion@CPlayer@@QAEXXZ 
?UseSilverPotion@CPlayer@@QAEXXZ 
?UseSteamPotion@CPlayer@@QAEXXZ 
?UseTransparentPotion@CPlayer@@QAEXXZ 
?UseWingPotion@CPlayer@@QAEXPADM@Z 
?VectorRotationY@CNpcBase@@QAEXAAV?$Vector@M$02@@V2@M@Z 
?ViewType_enum@@3VCEntityPropertyEnumType@@A 
?ViewType_values@@3PAVCEntityPropertyEnumValue@@A 
?VisibilityBits_enum@@3VCEntityPropertyEnumType@@A 
?VisibilityBits_values@@3PAVCEntityPropertyEnumValue@@A 
?WaitActions@CPlayer@@QAEXABVCPlayerAction@@@Z 
?WaitActionsNormal@CPlayer@@QAEXVCTString@@@Z 
?WaitActionsZombieMode@CPlayer@@QAEXVCTString@@@Z 
?WaitForDust@CEnemyBase@@UAEMAAV?$Vector@M$02@@@Z 
?WaitForDust@CNpcBase@@UAEMAAV?$Vector@M$02@@@Z 
?WalkerBladeVigor@CProjectile@@QAEXXZ 
?WalkerBlazerFireBall@CProjectile@@QAEXXZ 
?WalkerChar_enum@@3VCEntityPropertyEnumType@@A 
?WalkerChar_values@@3PAVCEntityPropertyEnumValue@@A 
?WalkerRocket@CProjectile@@QAEXXZ 
?WalkerRocketExplosion@CProjectile@@QAEXXZ 
?WalkingAnim@CEnemyBase@@UAEXXZ 
?WalkingAnim@CNpcBase@@UAEXXZ 
?WarpRotation_enum@@3VCEntityPropertyEnumType@@A 
?WarpRotation_values@@3PAVCEntityPropertyEnumValue@@A 
?WasPickedBy@CItem@@QAEHPAVCEntity@@@Z 
?WasRecentlyPickedBy@CItem@@QAEHPAVCEntity@@@Z 
?Watch@CNpcWatcher@@QAEXXZ 
?Watch@CWatcher@@QAEXXZ 
?Weakening@CNpcBase@@QAEXMM@Z 
?Weakening@CPlayer@@QAEXVESpawnWeakening@@@Z 
?WeaponItemType_enum@@3VCEntityPropertyEnumType@@A 
?WeaponItemType_values@@3PAVCEntityPropertyEnumValue@@A 
?WeaponState_enum@@3VCEntityPropertyEnumType@@A 
?WeaponState_values@@3PAVCEntityPropertyEnumValue@@A 
?WindBlast@CProjectile@@QAEXXZ 
?WingAnlge@CPlayer@@QAEXMMM@Z 
?WingDestroy@CPlayer@@QAEXXZ 
?WingPos@CPlayer@@QAEXMMM@Z 
?WomanProjectile@CProjectile@@QAEXXZ 
?WorkReduce_HP_AP@CPlayer@@QAEXMM@Z 
?WorldLinkType_enum@@3VCEntityPropertyEnumType@@A 
?WorldLinkType_values@@3PAVCEntityPropertyEnumValue@@A 
?WouldNotLeaveAttackRadius@CEnemyBase@@QAEHXZ 
?WoundSound@CEnemyBase@@UAEXXZ 
?WoundSound@CNpcBase@@UAEXXZ 
?WoundedNotify@CEnemyBase@@QAEXABVEEnemyBaseDamage@@@Z 
?WoundedNotify@CNpcBase@@QAEXXZ 
?WoundedNotify@CPlayer@@QAEXPAVCEntity@@@Z 
?Write_t@CCompMessageID@@QAEXAAVCTStream@@@Z 
?Write_t@CEmiter@@QAEXAAVCTStream@@H@Z 
?Write_t@CEmittedParticle@@QAEXAAVCTStream@@H@Z 
?YetiSnowbollEffect@CProjectile@@QAEXXZ 
?_bSkipRangeShoot@@3HA 
?_fCameraSpeed@@3MA 
?ctl_ComposeActionPacket@@YAXABVCPlayerCharacter@@AAVCPlayerAction@@H@Z 
?ctl_pvPlayerControls@@3PAXA 
?ctl_pvPlayerControlsResv@@3PAXA 
?ctl_slPlayerControlsSize@@3JB 
?decideindicatortype@CLevelScriptor@@AAE?AW4INDICATOR_TYPE@@AAVCTString@@@Z 
?decidenpcclass@CLevelScriptor@@AAEEAAVCTString@@@Z 
?decideswtype@CLevelScriptor@@AAE?AW4SWCONDTYPE@@AAVCTString@@@Z 
?decidetriggertype@CLevelScriptor@@AAE?AW4TRGEXECTYPE@@AAVCTString@@@Z 
?eNpcHPState_enum@@3VCEntityPropertyEnumType@@A 
?eNpcHPState_values@@3PAVCEntityPropertyEnumValue@@A 
?eNpc_State_enum@@3VCEntityPropertyEnumType@@A 
?eNpc_State_values@@3PAVCEntityPropertyEnumValue@@A 
?ePlayerAction_enum@@3VCEntityPropertyEnumType@@A 
?ePlayerAction_values@@3PAVCEntityPropertyEnumValue@@A 
?eSpineType_enum@@3VCEntityPropertyEnumType@@A 
?eSpineType_values@@3PAVCEntityPropertyEnumValue@@A 
?evaluate@CNpcWatcher@@QAEHMM@Z 
?g_EffectLevel@@3JA 
?getSize@ConstLoginGaugeRewardData@@QAEHXZ 
?getSize@ConstProduceItemData@@QAEHXZ 
?getSize@ConstStageRewardData@@QAEHXZ 
?getSummoner@CNpcBase@@UAEPAV1@XZ 
?instanceentities@CLevelScriptor@@AAEHXZ 
?plr_bLevelRestart@@3HA 
?pwOffsetBone@CPlayer@@QAEHVCTString@@V?$Vector@M$02@@@Z 
?pwRotateBone@CPlayer@@QAEHVCTString@@V?$Vector@M$02@@@Z 
?qsortCompareDMRank@@YAHPBX0@Z 
?qsortCompareExp_Kill@@YAHPBX0@Z 
?qsortCompareKill_Exp@@YAHPBX0@Z 
?readproperty@CBeginnersHelpData@@EAEJXZ 
?readproperty@CLevelScriptor@@EAEJXZ 
?readproperty@CTreeBeginnersHelpData@@EAEJXZ 
?setdatapointer@CLevelScriptor@@AAEHW4_tagstring_id@@@Z 
?setdatapointer_t@CBeginnersHelpData@@AAEXPAXW4_data_type@BeginnersHelp@@@Z 
?setdatapointer_t@CLevelScriptor@@AAEXPAXW4_data_type@@@Z 
?setdatapointer_t@CTreeBeginnersHelpData@@AAEXPAXW4_data_type@TreeBeginnersHelp@@@Z 
CAcidPoison_DLLClass 
CAirElemental_DLLClass 
CAmmoItem_DLLClass 
CAmmoPack_DLLClass 
CAnimationChanger_DLLClass 
CAnimationHub_DLLClass 
CAreaMarker_DLLClass 
CArmorDebris_DLLClass 
CArmorItem_DLLClass 
CBackgroundViewer_DLLClass 
CBarrier_DLLClass 
CBasePoison_DLLClass 
CBasicEffect_DLLClass 
CBattleBowAnimator_DLLClass 
CBattleBowWeapon_DLLClass 
CBattlebow_DLLClass 
CBeast_DLLClass 
CBigHead_DLLClass 
CBillBoardImage_DLLClass 
CBlackIceWind_DLLClass 
CBlackSmithAnimator_DLLClass 
CBlackSmithWeapon_DLLClass 
CBlendController_DLLClass 
CBlessBall_DLLClass 
CBloodEmitter_DLLClass 
CBloodSpray_DLLClass 
CBloodStain_DLLClass 
CBloodSucking_DLLClass 
CBoneEffectModel_DLLClass 
CBoneEffect_DLLClass 
CBoneman_DLLClass 
CBouncer_DLLClass 
CBoxItem_DLLClass 
CBullet_DLLClass 
CCPEffect_DLLClass 
CCameraMarker_DLLClass 
CCamera_DLLClass 
CCannonBall_DLLClass 
CCannonRotating_DLLClass 
CCannonStatic_DLLClass 
CChainsawFreak_DLLClass 
CChristmasBoxItem_DLLClass 
CCocoon_DLLClass 
CCopier_DLLClass 
CCounter_DLLClass 
CCrateBus_DLLClass 
CCrateRider_DLLClass 
CCreditsHolder_DLLClass 
CCutSceneObject_DLLClass 
CDamager_DLLClass 
CDebrisSka_DLLClass 
CDebris_DLLClass 
CDemon_DLLClass 
CDestroyableArchitecture2_DLLClass 
CDestroyableArchitecture_DLLClass 
CDevilMarker_DLLClass 
CDevil_DLLClass 
CDoorController_DLLClass 
CDropBoxItem_DLLClass 
CDualistAnimator_DLLClass 
CDualistBomb_DLLClass 
CDualistWeapon_DLLClass 
CEffectMarker_DLLClass 
CEffector_DLLClass 
CElemental_DLLClass 
CEnemyBase_DLLClass 
CEnemyCounter_DLLClass 
CEnemyDive_DLLClass 
CEnemyFly_DLLClass 
CEnemyMarker_DLLClass 
CEnemyRunInto_DLLClass 
CEnemySpawner_DLLClass 
CEntityStateDisplay_DLLClass 
CEnvironmentBase_DLLClass 
CEnvironmentMarker_DLLClass 
CEnvironmentParticlesHolder_DLLClass 
CEruptor_DLLClass 
CEventItem_DLLClass 
CExotechLarvaBattery_DLLClass 
CExotechLarvaCharger_DLLClass 
CExotechLarva_DLLClass 
CExplEffect_DLLClass 
CEyeman_DLLClass 
CFireEff_DLLClass 
CFireworks_DLLClass 
CFish_DLLClass 
CFlame_DLLClass 
CFloatingScore_DLLClass 
CFogMarker_DLLClass 
CFreeFallModel_DLLClass 
CFreeze_DLLClass 
CGameMessageManager_DLLClass 
CGizmo_DLLClass 
CGlobal_DLLClass 
CGradientMarker_DLLClass 
CGravityMarker_DLLClass 
CGravityRouter_DLLClass 
CGrunt_DLLClass 
CGuffy_DLLClass 
CHazeMarker_DLLClass 
CHeadman_DLLClass 
CHealthItem_DLLClass 
CHomingBlazer_DLLClass 
CHoming_DLLClass 
CHudPicHolder_DLLClass 
CIceWind_DLLClass 
CIndicator_DLLClass 
CInvincible_DLLClass 
CItem_DLLClass 
CKeyItem_DLLClass 
CKingSkeletonEffect_DLLClass 
CLarvaOffspring_DLLClass 
CLaserReady_DLLClass 
CLaser_DLLClass 
CLight_DLLClass 
CLightning_DLLClass 
CLongBow_DLLClass 
CMageAnimator_DLLClass 
CMageHold_DLLClass 
CMageWeapon_DLLClass 
CMagicBomb_DLLClass 
CMagicMissile_DLLClass 
CMapItem_DLLClass 
CMapNpc_DLLClass 
CMarker_DLLClass 
CMenuController_DLLClass 
CMessageHolder_DLLClass 
CMessageItem_DLLClass 
CMessageManager_DLLClass 
CMeteorShower_DLLClass 
CMirrorMarker_DLLClass 
CModelDestruction_DLLClass 
CModelForSequenceMarker_DLLClass 
CModelForSequence_DLLClass 
CModelHolder2_DLLClass 
CModelHolder3_DLLClass 
CModelHolder_DLLClass 
CMovingBrushMarker_DLLClass 
CMovingBrush_DLLClass 
CMusicChanger_DLLClass 
CMusicHolder_DLLClass 
CNavigationMarker_DLLClass 
CNinjaAnimator_DLLClass 
CNinjaWeapon_DLLClass 
CNpcAlistar_DLLClass 
CNpcAmeliaAttribute_DLLClass 
CNpcAmeliaBase_DLLClass 
CNpcAmelia_DLLClass 
CNpcAngelKnight1_DLLClass 
CNpcAngelKnight2_DLLClass 
CNpcAngelKnightBase_DLLClass 
CNpcArachne2_DLLClass 
CNpcArachne3Attribute_DLLClass 
CNpcArachne3_DLLClass 
CNpcArachneBase_DLLClass 
CNpcArachneYellowAttribute_DLLClass 
CNpcArachne_DLLClass 
CNpcArchangelAttribute_DLLClass 
CNpcArchangelBase_DLLClass 
CNpcArchangel_DLLClass 
CNpcBase_DLLClass 
CNpcBasicEffects_DLLClass 
CNpcBerserkerWolfBase_DLLClass 
CNpcBerserkerWolf_DLLClass 
CNpcBlackDiablo_DLLClass 
CNpcBlackstar_DLLClass 
CNpcBlazer1_DLLClass 
CNpcBlazer2_DLLClass 
CNpcBlazer3_DLLClass 
CNpcBlazer4_DLLClass 
CNpcBlazerAttribute_DLLClass 
CNpcBlazerBase_DLLClass 
CNpcBlueDiablo_DLLClass 
CNpcBlueDragon2_DLLClass 
CNpcBlueDragonAttribute_DLLClass 
CNpcBlueDragonBase_DLLClass 
CNpcBlueDragon_DLLClass 
CNpcBombNakBase_DLLClass 
CNpcBombNak_DLLClass 
CNpcBull1_DLLClass 
CNpcBull2_DLLClass 
CNpcBull3_DLLClass 
CNpcBull4_DLLClass 
CNpcBullBase_DLLClass 
CNpcChick1_DLLClass 
CNpcChocolateCake_DLLClass 
CNpcCrossBow1_DLLClass 
CNpcCrossBow2_DLLClass 
CNpcCrossBow3_DLLClass 
CNpcCrossBow4_DLLClass 
CNpcCrossBowBase_DLLClass 
CNpcDaemonAmeliaAttribute_DLLClass 
CNpcDaemonAmeliaBase_DLLClass 
CNpcDaemonAmelia_DLLClass 
CNpcDeathKnightBase_DLLClass 
CNpcDeathKnightKing_DLLClass 
CNpcDeathKnight_DLLClass 
CNpcDemolition1_DLLClass 
CNpcDemolition2_DLLClass 
CNpcDemolition3_DLLClass 
CNpcDemolitionBase_DLLClass 
CNpcDesertHound2_DLLClass 
CNpcDesertHoundBase_DLLClass 
CNpcDesertHound_DLLClass 
CNpcDestroyer2_DLLClass 
CNpcDestroyer3_DLLClass 
CNpcDestroyerBase_DLLClass 
CNpcDestroyer_DLLClass 
CNpcDiabloBase_DLLClass 
CNpcDiabloBlackAttribute_DLLClass 
CNpcDiabloBlueAttribute_DLLClass 
CNpcDiabloYellowAttribute_DLLClass 
CNpcDiablo_DLLClass 
CNpcDragon1_DLLClass 
CNpcDragon2_DLLClass 
CNpcDragon3_DLLClass 
CNpcDragon4_DLLClass 
CNpcDragonBase_DLLClass 
CNpcDragonHuman2_DLLClass 
CNpcDragonHumanBase_DLLClass 
CNpcDragonHumanKing_DLLClass 
CNpcDragonHuman_DLLClass 
CNpcEventDefaultBase_DLLClass 
CNpcFallenAmeliaBase_DLLClass 
CNpcFallenAmeliaBoss_DLLClass 
CNpcFallenAmeliaNormalAttribute_DLLClass 
CNpcFallenAmeliaNormal_DLLClass 
CNpcFallinCupid2_DLLClass 
CNpcFallinCupidBase_DLLClass 
CNpcFallinCupid_DLLClass 
CNpcFireBird2_DLLClass 
CNpcFireBirdBase_DLLClass 
CNpcFireBirdHuman2_DLLClass 
CNpcFireBirdHumanBase_DLLClass 
CNpcFireBirdHumanKing_DLLClass 
CNpcFireBirdHuman_DLLClass 
CNpcFireBird_DLLClass 
CNpcGargoyleBase_DLLClass 
CNpcGargoyle_DLLClass 
CNpcGoblinBase_DLLClass 
CNpcGoblin_DLLClass 
CNpcGoldGolem_DLLClass 
CNpcGoldenWolf_DLLClass 
CNpcGolem1_DLLClass 
CNpcGolem2_DLLClass 
CNpcGolem3_DLLClass 
CNpcGolem4_DLLClass 
CNpcGolemBase_DLLClass 
CNpcGolemStoneDebris_DLLClass 
CNpcGrimReaper2Attribute_DLLClass 
CNpcGrimReaper2_DLLClass 
CNpcGrimReaperBase_DLLClass 
CNpcGrimReaper_DLLClass 
CNpcHimmelArcherAttribute_DLLClass 
CNpcHimmelArcherBase_DLLClass 
CNpcHimmelArcher_DLLClass 
CNpcHimmelGoldGolem_DLLClass 
CNpcHimmelGolemBase_DLLClass 
CNpcHimmelMasterGolemBlue_DLLClass 
CNpcHimmelMasterGolemRed_DLLClass 
CNpcHimmelNecromancyAttribute_DLLClass 
CNpcHimmelNecromancyBase_DLLClass 
CNpcHimmelNecromancySummon2Attribute_DLLClass 
CNpcHimmelNecromancySummon2_DLLClass 
CNpcHimmelNecromancySummonAttribute_DLLClass 
CNpcHimmelNecromancySummonBase_DLLClass 
CNpcHimmelNecromancySummon_DLLClass 
CNpcHimmelNecromancy_DLLClass 
CNpcHimmelWarriorAttribute_DLLClass 
CNpcHimmelWarriorBase_DLLClass 
CNpcHimmelWarrior_DLLClass 
CNpcHumanMonsterBase_DLLClass 
CNpcHumanMonster_DLLClass 
CNpcIceWind1_DLLClass 
CNpcIceWind2_DLLClass 
CNpcIceWind3_DLLClass 
CNpcIceWind4_DLLClass 
CNpcIceWindBase_DLLClass 
CNpcLeopardNewSoccerArgAttribute_DLLClass 
CNpcLeopardNewSoccerArg_DLLClass 
CNpcLeopardNewSoccerBase_DLLClass 
CNpcLeopardNewSoccerCopa_DLLClass 
CNpcLeopardNewSoccerPerAttribute_DLLClass 
CNpcLeopardNewSoccerPer_DLLClass 
CNpcLeopardSoccerBase_DLLClass 
CNpcLeopardSoccerKing_DLLClass 
CNpcLeopardSoccerWinner_DLLClass 
CNpcLeopardSoccer_DLLClass 
CNpcLizardManBase_DLLClass 
CNpcLizardMan_DLLClass 
CNpcLongBow1_DLLClass 
CNpcLongBow2_DLLClass 
CNpcLongBow3_DLLClass 
CNpcLongBow4_DLLClass 
CNpcLongBowBase_DLLClass 
CNpcLoversCupid2_DLLClass 
CNpcLoversCupidBase_DLLClass 
CNpcLoversCupid_DLLClass 
CNpcMadSnowMan_DLLClass 
CNpcMasterGolem_DLLClass 
CNpcMasterNak_DLLClass 
CNpcMedusaBase_DLLClass 
CNpcMedusa_DLLClass 
CNpcNak1_DLLClass 
CNpcNak2_DLLClass 
CNpcNak3_DLLClass 
CNpcNak4_DLLClass 
CNpcNakBase_DLLClass 
CNpcOldStoneSoldierKing_DLLClass 
CNpcOldStoneSoldier_DLLClass 
CNpcPanzer1_DLLClass 
CNpcPanzer2_DLLClass 
CNpcPanzer3_DLLClass 
CNpcPanzer4_DLLClass 
CNpcPanzerBase_DLLClass 
CNpcPirateCaptainBase_DLLClass 
CNpcPirateCaptain_DLLClass 
CNpcProjectile_DLLClass 
CNpcPumpkin1_DLLClass 
CNpcPuppetBase_DLLClass 
CNpcPuppet_DLLClass 
CNpcPuppeteerBase_DLLClass 
CNpcPuppeteer_DLLClass 
CNpcRedBirdAttribute_DLLClass 
CNpcReindeer1_DLLClass 
CNpcReindeer2_DLLClass 
CNpcReindeer3_DLLClass 
CNpcReindeerBase_DLLClass 
CNpcSilverDragonBase_DLLClass 
CNpcSilverDragon_DLLClass 
CNpcSkeletonMusketeer1_DLLClass 
CNpcSkeletonMusketeer2_DLLClass 
CNpcSkeletonMusketeer3_DLLClass 
CNpcSkeletonMusketeer4_DLLClass 
CNpcSkeletonMusketeerBase_DLLClass 
CNpcSkeletonSamurai1_DLLClass 
CNpcSkeletonSamurai2_DLLClass 
CNpcSkeletonSamurai3_DLLClass 
CNpcSkeletonSamurai4_DLLClass 
CNpcSkeletonSamuraiBase_DLLClass 
CNpcSnowMan1_DLLClass 
CNpcSnowMan2_DLLClass 
CNpcSnowMan3_DLLClass 
CNpcSnowManBase_DLLClass 
CNpcSnowManStoneDebris_DLLClass 
CNpcSoulCannon1_DLLClass 
CNpcSoulCannon2_DLLClass 
CNpcSoulCannon3_DLLClass 
CNpcSoulCannon4_DLLClass 
CNpcSoulCannonBase_DLLClass 
CNpcSpearBase_DLLClass 
CNpcSpear_DLLClass 
CNpcStoneHorse1_DLLClass 
CNpcStoneHorse2_DLLClass 
CNpcStoneHorse3_DLLClass 
CNpcStoneHorse4_DLLClass 
CNpcStoneHorseBase_DLLClass 
CNpcStoneSoldierBase_DLLClass 
CNpcStoneSoldierKing_DLLClass 
CNpcStoneSoldier_DLLClass 
CNpcStrawberryCake_DLLClass 
CNpcSuccubus1_DLLClass 
CNpcSuccubus2_DLLClass 
CNpcSuccubusBase_DLLClass 
CNpcTaurus1_DLLClass 
CNpcTaurus2_DLLClass 
CNpcTaurus3_DLLClass 
CNpcTaurus4_DLLClass 
CNpcTaurusAttribute_DLLClass 
CNpcTaurusBase_DLLClass 
CNpcTowerBase_DLLClass 
CNpcTowerBlueFront_DLLClass 
CNpcTowerBlueRear_DLLClass 
CNpcTowerRedFront_DLLClass 
CNpcTowerRedRear_DLLClass 
CNpcTurkey1_DLLClass 
CNpcTurtle2_DLLClass 
CNpcTurtleBase_DLLClass 
CNpcTurtleHuman2_DLLClass 
CNpcTurtleHumanAttrlbute_DLLClass 
CNpcTurtleHumanBase_DLLClass 
CNpcTurtleHumanKing_DLLClass 
CNpcTurtleHuman_DLLClass 
CNpcTurtleStoneAttribute_DLLClass 
CNpcTurtle_DLLClass 
CNpcTwinHeadDragonBase_DLLClass 
CNpcTwinHeadDragon_DLLClass 
CNpcValentineBox_DLLClass 
CNpcVanillaCake_DLLClass 
CNpcWatcher_DLLClass 
CNpcWhiteTiger2_DLLClass 
CNpcWhiteTigerBase_DLLClass 
CNpcWhiteTigerHuman2_DLLClass 
CNpcWhiteTigerHumanBase_DLLClass 
CNpcWhiteTigerHumanKing_DLLClass 
CNpcWhiteTigerHuman_DLLClass 
CNpcWhiteTiger_DLLClass 
CNpcWhiteWolf_DLLClass 
CNpcWolfBase_DLLClass 
CNpcYellowDiablo_DLLClass 
CNpcYeti2_DLLClass 
CNpcYetiBase_DLLClass 
CNpcYeti_DLLClass 
CParticleEmitter_DLLClass 
CParticleMessage_DLLClass 
CParticleSeed_DLLClass 
CParticlesHolder_DLLClass 
CPassive_DLLClass 
CPendulum_DLLClass 
CPhotoAlbum_DLLClass 
CPlayerAnimatorBase_DLLClass 
CPlayerMarker_DLLClass 
CPlayerView_DLLClass 
CPlayerWeaponBase_DLLClass 
CPlayer_DLLClass 
CPowerUpItem_DLLClass 
CProjectile_DLLClass 
CPyramidSpaceShipMarker_DLLClass 
CPyramidSpaceShip_DLLClass 
CQMarker_DLLClass 
CQstJudge_DLLClass 
CQstNpcSpawn_DLLClass 
CQstSwitch_DLLClass 
CQstTrigger_DLLClass 
CRangeWeapon_DLLClass 
CReminder_DLLClass 
CReversal_DLLClass 
CRollingStone_DLLClass 
CSanta_DLLClass 
CSaveGameBooth_DLLClass 
CScorpman_DLLClass 
CScrollHolder_DLLClass 
CSeriousBomb_DLLClass 
CShipMarker_DLLClass 
CShip_DLLClass 
CShooter_DLLClass 
CSoulCannon_DLLClass 
CSoulCharge_DLLClass 
CSoundHolder_DLLClass 
CSpawnerProjectile_DLLClass 
CSpikeObject_DLLClass 
CSpineJut_DLLClass 
CSpine_DLLClass 
CSpinner_DLLClass 
CStormController_DLLClass 
CStun_DLLClass 
CSummonerMarker_DLLClass 
CSummoner_DLLClass 
CSwitchPointer_DLLClass 
CSwitch_DLLClass 
CSwordManAnimator_DLLClass 
CSwordmanWeapon_DLLClass 
CTacticsChanger_DLLClass 
CTacticsHolder_DLLClass 
CTeleport_DLLClass 
CTerrainEntity_DLLClass 
CTextFXHolder_DLLClass 
CTimeController_DLLClass 
CTouchField_DLLClass 
CTreasureItem_DLLClass 
CTried_DLLClass 
CTrigger_DLLClass 
CTwister_DLLClass 
CVideoHolder_DLLClass 
CVoiceHolder_DLLClass 
CWalker_DLLClass 
CWatchPlayers_DLLClass 
CWatcher_DLLClass 
CWeakening_DLLClass 
CWeaponEffectBase_DLLClass 
CWeaponEffectEmitter_DLLClass 
CWeaponEffectKit_DLLClass 
CWeaponEffectSkeleton_DLLClass 
CWeaponEffectTrail_DLLClass 
CWeaponEffect_DLLClass 
CWeaponItem_DLLClass 
CWerebull_DLLClass 
CWing_DLLClass 
CWoman_DLLClass 
CWorldBase_DLLClass 
CWorldLink_DLLClass 
CWorldSettingsController_DLLClass 
