Microsoft (R) COFF/PE Dumper Version 10.00.30319.01
Copyright (C) Microsoft Corporation.  All rights reserved.


Dump of file Engine.dll

File Type: DLL

  Section contains the following exports for Engine.dll

    00000000 characteristics
    3F978E9E time date stamp Thu Oct 23 11:17:34 2003
        0.00 version
           1 ordinal base
        4328 number of functions
        4328 number of names

    ordinal hint RVA      name

          1    0 00010F20 ??0CAnimData@@QAE@XZ
          2    1 00011870 ??0CAnimObject@@QAE@XZ
          3    2 00010CE0 ??0CAnimSet@@QAE@ABV0@@Z
          4    3 001482C0 ??0CAnimSet@@QAE@XZ
          5    4 0000AC50 ??0CAnyProjection3D@@QAE@ABV0@@Z
          6    5 0000AC00 ??0CAnyProjection3D@@QAE@XZ
          7    6 000976E0 ??0CAttachedModel@@QAE@ABV0@@Z
          8    7 00097BB0 ??0CAttachedModel@@QAE@XZ
          9    8 000A6180 ??0CAttachedModelPosition@@QAE@XZ
         10    9 00097830 ??0CAttachedSound@@QAE@ABV0@@Z
         11    A 00097CE0 ??0CAttachedSound@@QAE@XZ
         12    B 0001F950 ??0CAttachmentModelObject@@QAE@ABV0@@Z
         13    C 00022EC0 ??0CAttachmentModelObject@@QAE@XZ
         14    D 00119B50 ??0CAutoPrecacheModel@@QAE@XZ
         15    E 001199C0 ??0CAutoPrecacheSound@@QAE@XZ
         16    F 00119C10 ??0CAutoPrecacheTexture@@QAE@XZ
         17   10 00003F50 ??0CBoolDefaultFalse@@QAE@XZ
         18   11 0000AEE0 ??0CBrush3D@@QAE@ABV0@@Z
         19   12 00129DF0 ??0CBrush3D@@QAE@XZ
         20   13 000BE520 ??0CBrushArchive@@QAE@AAV0@@Z
         21   14 000BE0B0 ??0CBrushArchive@@QAE@XZ
         22   15 000035F0 ??0CBrushBase@@QAE@ABV0@@Z
         23   16 000035E0 ??0CBrushBase@@QAE@XZ
         24   17 000036E0 ??0CBrushEdge@@QAE@PAVCBrushVertex@@0@Z
         25   18 000036D0 ??0CBrushEdge@@QAE@XZ
         26   19 00003E30 ??0CBrushMip@@QAE@AAV0@@Z
         27   1A 0012E010 ??0CBrushMip@@QAE@XZ
         28   1B 0000AED0 ??0CBrushPlane@@QAE@XZ
         29   1C 0000CD40 ??0CBrushPolygon@@QAE@ABV0@@Z
         30   1D 0000CB80 ??0CBrushPolygon@@QAE@XZ
         31   1E 00003B70 ??0CBrushPolygonTexture@@QAE@ABV0@@Z
         32   1F 00003AB0 ??0CBrushPolygonTexture@@QAE@XZ
         33   20 001314A0 ??0CBrushSector@@QAE@ABV0@@Z
         34   21 001315C0 ??0CBrushSector@@QAE@XZ
         35   22 00003970 ??0CBrushShadowLayer@@QAE@ABV0@@Z
         36   23 00135370 ??0CBrushShadowLayer@@QAE@XZ
         37   24 00003A40 ??0CBrushShadowMap@@QAE@ABV0@@Z
         38   25 001353D0 ??0CBrushShadowMap@@QAE@XZ
         39   26 0000AEC0 ??0CBrushVertex@@QAE@XZ
         40   27 000CEDA0 ??0CCastRay@@QAE@PAVCEntity@@ABV?$Vector@M$02@@1@Z
         41   28 000CECE0 ??0CCastRay@@QAE@PAVCEntity@@ABVCPlacement3D@@@Z
         42   29 000CED40 ??0CCastRay@@QAE@PAVCEntity@@ABVCPlacement3D@@M@Z
         43   2A 00016240 ??0CChangeable@@QAE@XZ
         44   2B 00016290 ??0CChangeableRT@@QAE@XZ
         45   2C 00002100 ??0CChunkID@@QAE@PBD@Z
         46   2D 00177BF0 ??0CCmd@@QAE@ABV0@@Z
         47   2E 00180CF0 ??0CCmd@@QAE@XZ
         48   2F 001787B0 ??0CCmdAvoid@@QAE@ABV0@@Z
         49   30 00183B40 ??0CCmdAvoid@@QAE@PAVCPDomain@@MMM@Z
         50   31 00183AC0 ??0CCmdAvoid@@QAE@XZ
         51   32 001788C0 ??0CCmdBounce@@QAE@ABV0@@Z
         52   33 00182170 ??0CCmdBounce@@QAE@PAVCPDomain@@MMM@Z
         53   34 001820F0 ??0CCmdBounce@@QAE@XZ
         54   35 00177DC0 ??0CCmdColor@@QAE@ABV0@@Z
         55   36 00180EF0 ??0CCmdColor@@QAE@MMMM@Z
         56   37 00180E70 ??0CCmdColor@@QAE@XZ
         57   38 00177ED0 ??0CCmdColorDomain@@QAE@ABV0@@Z
         58   39 00181160 ??0CCmdColorDomain@@QAE@PAVCPDomain@@M@Z
         59   3A 001810D0 ??0CCmdColorDomain@@QAE@XZ
         60   3B 001789D0 ??0CCmdCopyVertexB@@QAE@ABV0@@Z
         61   3C 00183990 ??0CCmdCopyVertexB@@QAE@HH@Z
         62   3D 00183910 ??0CCmdCopyVertexB@@QAE@XZ
         63   3E 00178AD0 ??0CCmdDamping@@QAE@ABV0@@Z
         64   3F 00185270 ??0CCmdDamping@@QAE@V?$Vector@M$02@@MM@Z
         65   40 00185250 ??0CCmdDamping@@QAE@XZ
         66   41 00178C00 ??0CCmdExplosion@@QAE@ABV0@@Z
         67   42 00184FB0 ??0CCmdExplosion@@QAE@V?$Vector@M$02@@MMMMM@Z
         68   43 00184F90 ??0CCmdExplosion@@QAE@XZ
         69   44 00178D50 ??0CCmdFollow@@QAE@ABV0@@Z
         70   45 001836A0 ??0CCmdFollow@@QAE@MMM@Z
         71   46 00183620 ??0CCmdFollow@@QAE@XZ
         72   47 00178E60 ??0CCmdGravitate@@QAE@ABV0@@Z
         73   48 00183470 ??0CCmdGravitate@@QAE@MMM@Z
         74   49 001833F0 ??0CCmdGravitate@@QAE@XZ
         75   4A 00178F70 ??0CCmdGravity@@QAE@ABV0@@Z
         76   4B 00184DE0 ??0CCmdGravity@@QAE@V?$Vector@M$02@@@Z
         77   4C 00184DC0 ??0CCmdGravity@@QAE@XZ
         78   4D 00179080 ??0CCmdJet@@QAE@ABV0@@Z
         79   4E 00184B80 ??0CCmdJet@@QAE@V?$Vector@M$02@@MMM@Z
         80   4F 00184B60 ??0CCmdJet@@QAE@XZ
         81   50 001791C0 ??0CCmdKillOld@@QAE@ABV0@@Z
         82   51 001831C0 ??0CCmdKillOld@@QAE@MH@Z
         83   52 00183140 ??0CCmdKillOld@@QAE@XZ
         84   53 001792C0 ??0CCmdMatchVelocity@@QAE@ABV0@@Z
         85   54 00182F90 ??0CCmdMatchVelocity@@QAE@MMM@Z
         86   55 00182F10 ??0CCmdMatchVelocity@@QAE@XZ
         87   56 00177CD0 ??0CCmdMaxParticles@@QAE@ABV0@@Z
         88   57 00180D40 ??0CCmdMaxParticles@@QAE@J@Z
         89   58 00180D10 ??0CCmdMaxParticles@@QAE@XZ
         90   59 001793D0 ??0CCmdMove@@QAE@ABV0@@Z
         91   5A 00182590 ??0CCmdMove@@QAE@XZ
         92   5B 001794C0 ??0CCmdOrbitLine@@QAE@ABV0@@Z
         93   5C 00184880 ??0CCmdOrbitLine@@QAE@V?$Vector@M$02@@0MMM@Z
         94   5D 00184860 ??0CCmdOrbitLine@@QAE@XZ
         95   5E 00179630 ??0CCmdOrbitPoint@@QAE@ABV0@@Z
         96   5F 00184620 ??0CCmdOrbitPoint@@QAE@V?$Vector@M$02@@MMM@Z
         97   60 00184600 ??0CCmdOrbitPoint@@QAE@XZ
         98   61 00179770 ??0CCmdRandomAccel@@QAE@ABV0@@Z
         99   62 00182CD0 ??0CCmdRandomAccel@@QAE@PAVCPDomain@@@Z
        100   63 00182C50 ??0CCmdRandomAccel@@QAE@XZ
        101   64 00179860 ??0CCmdRandomDisplace@@QAE@ABV0@@Z
        102   65 00182AD0 ??0CCmdRandomDisplace@@QAE@PAVCPDomain@@@Z
        103   66 00182A50 ??0CCmdRandomDisplace@@QAE@XZ
        104   67 00179950 ??0CCmdRandomVelocity@@QAE@ABV0@@Z
        105   68 001828D0 ??0CCmdRandomVelocity@@QAE@PAVCPDomain@@@Z
        106   69 00182850 ??0CCmdRandomVelocity@@QAE@XZ
        107   6A 00179C20 ??0CCmdRestore@@QAE@ABV0@@Z
        108   6B 00183D60 ??0CCmdRestore@@QAE@M@Z
        109   6C 00183CE0 ??0CCmdRestore@@QAE@XZ
        110   6D 00179B30 ??0CCmdSink@@QAE@ABV0@@Z
        111   6E 00182710 ??0CCmdSink@@QAE@PAVCPDomain@@H@Z
        112   6F 00182690 ??0CCmdSink@@QAE@XZ
        113   70 00179D10 ??0CCmdSinkVelocity@@QAE@ABV0@@Z
        114   71 00183F10 ??0CCmdSinkVelocity@@QAE@PAVCPDomain@@H@Z
        115   72 00183E90 ??0CCmdSinkVelocity@@QAE@XZ
        116   73 001781C0 ??0CCmdSize@@QAE@ABV0@@Z
        117   74 00184450 ??0CCmdSize@@QAE@V?$Vector@M$02@@@Z
        118   75 00184420 ??0CCmdSize@@QAE@XZ
        119   76 001782D0 ??0CCmdSizeDomain@@QAE@ABV0@@Z
        120   77 001817E0 ??0CCmdSizeDomain@@QAE@PAVCPDomain@@@Z
        121   78 00181750 ??0CCmdSizeDomain@@QAE@XZ
        122   79 00179A40 ??0CCmdSource@@QAE@ABV0@@Z
        123   7A 001823F0 ??0CCmdSource@@QAE@PAVCPDomain@@M_N@Z
        124   7B 00182370 ??0CCmdSource@@QAE@XZ
        125   7C 00179E00 ??0CCmdSpeedLimit@@QAE@ABV0@@Z
        126   7D 00184130 ??0CCmdSpeedLimit@@QAE@MM@Z
        127   7E 001840B0 ??0CCmdSpeedLimit@@QAE@XZ
        128   7F 001785C0 ??0CCmdStartingAge@@QAE@ABV0@@Z
        129   80 00181DD0 ??0CCmdStartingAge@@QAE@MM@Z
        130   81 00181D40 ??0CCmdStartingAge@@QAE@XZ
        131   82 00179F00 ??0CCmdTargetColor@@QAE@ABV0@@Z
        132   83 001854A0 ??0CCmdTargetColor@@QAE@V?$Vector@M$02@@MM@Z
        133   84 00185480 ??0CCmdTargetColor@@QAE@XZ
        134   85 0017A030 ??0CCmdTargetSize@@QAE@ABV0@@Z
        135   86 001856D0 ??0CCmdTargetSize@@QAE@V?$Vector@M$02@@MMM@Z
        136   87 001856B0 ??0CCmdTargetSize@@QAE@XZ
        137   88 0017A170 ??0CCmdTargetVelocity@@QAE@ABV0@@Z
        138   89 00185930 ??0CCmdTargetVelocity@@QAE@V?$Vector@M$02@@M@Z
        139   8A 00185910 ??0CCmdTargetVelocity@@QAE@XZ
        140   8B 001786C0 ??0CCmdTimeStep@@QAE@ABV0@@Z
        141   8C 00181FC0 ??0CCmdTimeStep@@QAE@M@Z
        142   8D 00181F30 ??0CCmdTimeStep@@QAE@XZ
        143   8E 00177FC0 ??0CCmdVelocity@@QAE@ABV0@@Z
        144   8F 00181330 ??0CCmdVelocity@@QAE@MMM@Z
        145   90 001812A0 ??0CCmdVelocity@@QAE@XZ
        146   91 001780D0 ??0CCmdVelocityDomain@@QAE@ABV0@@Z
        147   92 00181570 ??0CCmdVelocityDomain@@QAE@PAVCPDomain@@@Z
        148   93 001814E0 ??0CCmdVelocityDomain@@QAE@XZ
        149   94 001783C0 ??0CCmdVertexB@@QAE@ABV0@@Z
        150   95 001819F0 ??0CCmdVertexB@@QAE@MMM@Z
        151   96 00181960 ??0CCmdVertexB@@QAE@XZ
        152   97 001784D0 ??0CCmdVertexBDomain@@QAE@ABV0@@Z
        153   98 00181C20 ??0CCmdVertexBDomain@@QAE@PAVCPDomain@@@Z
        154   99 00181B90 ??0CCmdVertexBDomain@@QAE@XZ
        155   9A 0017A2A0 ??0CCmdVortex@@QAE@ABV0@@Z
        156   9B 00185B30 ??0CCmdVortex@@QAE@V?$Vector@M$02@@0MMM@Z
        157   9C 00185B10 ??0CCmdVortex@@QAE@XZ
        158   9D 00121840 ??0CCollisionInfo@@QAE@ABV0@@Z
        159   9E 000C8BC0 ??0CCollisionInfo@@QAE@XZ
        160   9F 0000B170 ??0CCommunicationInterface@@QAE@ABV0@@Z
        161   A0 000F3030 ??0CCommunicationInterface@@QAE@XZ
        162   A1 0008E7D0 ??0CContentType@@QAE@ABV0@@Z
        163   A2 0008E770 ??0CContentType@@QAE@XZ
        164   A3 000105C0 ??0CDVBlendShader@@QAE@ABV0@@Z
        165   A4 000B7B80 ??0CDVBlendShader@@QAE@XZ
        166   A5 00010560 ??0CDVScrollShader@@QAE@ABV0@@Z
        167   A6 000B7B50 ??0CDVScrollShader@@QAE@XZ
        168   A7 000B7510 ??0CDVWaveMod@@QAE@XZ
        169   A8 000104F0 ??0CDVWorldShader@@QAE@ABV0@@Z
        170   A9 00010440 ??0CDVWorldShader@@QAE@XZ
        171   AA 0001E9E0 ??0CDisableAsyncProgress@@QAE@XZ
        172   AB 000524E0 ??0CDisplayMode@@QAE@XZ
        173   AC 00054A80 ??0CDrawPort@@QAE@PAV0@ABV?$AABBox@J$01@@@Z
        174   AD 00054AF0 ??0CDrawPort@@QAE@PAV0@J@Z
        175   AE 00054A40 ??0CDrawPort@@QAE@PAV0@NNNN@Z
        176   AF 00052800 ??0CDrawPort@@QAE@PBV0@@Z
        177   B0 000527A0 ??0CDrawPort@@QAE@XZ
        178   B1 000A1D90 ??0CEditModel@@QAE@AAV0@@Z
        179   B2 0009C800 ??0CEditModel@@QAE@XZ
        180   B3 0017F690 ??0CEffect@@QAE@ABV0@@Z
        181   B4 0017CAF0 ??0CEffect@@QAE@XZ
        182   B5 0000AF90 ??0CEntity@@QAE@ABV0@@Z
        183   B6 0011B190 ??0CEntity@@QAE@XZ
        184   B7 000061D0 ??0CEntityClass@@QAE@ABV0@@Z
        185   B8 00125780 ??0CEntityClass@@QAE@PAVCDLLEntityClass@@@Z
        186   B9 00125700 ??0CEntityClass@@QAE@XZ
        187   BA 00005FE0 ??0CEntityComponent@@QAE@ABV0@@Z
        188   BB 00005F60 ??0CEntityComponent@@QAE@W4EntityComponentType@@KKPAD@Z
        189   BC 00005FA0 ??0CEntityComponent@@QAE@XZ
        190   BD 00003FC0 ??0CEntityEvent@@QAE@ABV0@@Z
        191   BE 00003F70 ??0CEntityEvent@@QAE@J@Z
        192   BF 00118610 ??0CEntityID@@QAE@ABV0@@Z
        193   C0 00118640 ??0CEntityID@@QAE@PAVCEntity@@@Z
        194   C1 00118600 ??0CEntityID@@QAE@XZ
        195   C2 000052C0 ??0CEntityMessage@@QAE@ABV0@@Z
        196   C3 000052A0 ??0CEntityMessage@@QAE@XZ
        197   C4 00005EF0 ??0CEntityProperty@@QAE@W4PropertyType@0@PAVCEntityPropertyEnumType@@KJPADDKK@Z
        198   C5 00005F30 ??0CEntityProperty@@QAE@XZ
        199   C6 0008E8F0 ??0CEnvironmentType@@QAE@ABV0@@Z
        200   C7 0008E8C0 ??0CEnvironmentType@@QAE@XZ
        201   C8 00108360 ??0CFieldSettings@@QAE@ABV0@@Z
        202   C9 00108340 ??0CFieldSettings@@QAE@XZ
        203   CA 00003100 ??0CFileNameNode@@QAE@ABV0@@Z
        204   CB 00010EB0 ??0CFileNameNode@@QAE@PBDPAVCListHead@@@Z
        205   CC 0005D750 ??0CFontCharData@@QAE@XZ
        206   CD 00001E80 ??0CFontData@@QAE@ABV0@@Z
        207   CE 0005DBB0 ??0CFontData@@QAE@XZ
        208   CF 0000C550 ??0CGfxLibrary@@QAE@ABV0@@Z
        209   D0 00060320 ??0CGfxLibrary@@QAE@XZ
        210   D1 0008E980 ??0CIlluminationType@@QAE@ABV0@@Z
        211   D2 0008E950 ??0CIlluminationType@@QAE@XZ
        212   D3 00079430 ??0CImageInfo@@QAE@XZ
        213   D4 0001C880 ??0CInput@@QAE@XZ
        214   D5 0000EBE0 ??0CInputDevice@@QAE@ABV0@@Z
        215   D6 0001C0A0 ??0CInputDevice@@QAE@XZ
        216   D7 00044FB0 ??0CIntersector@@QAE@MM@Z
        217   D8 00002AC0 ??0CIsometricProjection3D@@QAE@ABV0@@Z
        218   D9 00002AA0 ??0CIsometricProjection3D@@QAE@XZ
        219   DA 00128E30 ??0CLastPositions@@QAE@ABV0@@Z
        220   DB 000EF4F0 ??0CLastPositions@@QAE@XZ
        221   DC 001166B0 ??0CLensFlareType@@QAE@XZ
        222   DD 000B8EA0 ??0CLightSource@@QAE@ABV0@@Z
        223   DE 0013C680 ??0CLightSource@@QAE@XZ
        224   DF 00001170 ??0CListHead@@QAE@ABV0@@Z
        225   E0 00001160 ??0CListHead@@QAE@XZ
        226   E1 000011A0 ??0CListNode@@QAE@ABV0@@Z
        227   E2 00001190 ??0CListNode@@QAE@XZ
        228   E3 0000B140 ??0CLiveEntity@@QAE@ABV0@@Z
        229   E4 001201F0 ??0CLiveEntity@@QAE@XZ
        230   E5 000015A0 ??0CLogStats@@QAE@XZ
        231   E6 00002400 ??0CMappingDefinition@@QAE@XZ
        232   E7 000975E0 ??0CMappingUndo@@QAE@ABV0@@Z
        233   E8 000A0AB0 ??0CMappingUndo@@QAE@XZ
        234   E9 0000AB60 ??0CMappingVectors@@QAE@XZ
        235   EA 0000F1E0 ??0CMesh@@QAE@ABV0@@Z
        236   EB 0014E5A0 ??0CMesh@@QAE@XZ
        237   EC 000055A0 ??0CMessageDispatcher@@QAE@ABV0@@Z
        238   ED 000FA2F0 ??0CMessageDispatcher@@QAE@XZ
        239   EE 00005C40 ??0CModelCollisionBox@@QAE@ABV0@@Z
        240   EF 000A60B0 ??0CModelCollisionBox@@QAE@XZ
        241   F0 000A8FC0 ??0CModelData@@QAE@ABV0@@Z
        242   F1 000A90B0 ??0CModelData@@QAE@XZ
        243   F2 00005D60 ??0CModelInfo@@QAE@ABV0@@Z
        244   F3 0000B550 ??0CModelInfo@@QAE@XZ
        245   F4 00153BA0 ??0CModelInstance@@QAE@AAV0@@Z
        246   F5 00153D10 ??0CModelInstance@@QAE@XZ
        247   F6 00006720 ??0CModelInstanceSerial@@QAE@ABV0@@Z
        248   F7 00152090 ??0CModelInstanceSerial@@QAE@XZ
        249   F8 0001F7A0 ??0CModelObject@@QAE@ABV0@@Z
        250   F9 000A6860 ??0CModelObject@@QAE@XZ
        251   FA 00005AA0 ??0CModelPatch@@QAE@ABV0@@Z
        252   FB 000A5660 ??0CModelPatch@@QAE@XZ
        253   FC 000A3AA0 ??0CModelRenderPrefs@@QAE@XZ
        254   FD 00096B40 ??0CMovableBrushEntity@@QAE@ABV0@@Z
        255   FE 00092D30 ??0CMovableBrushEntity@@QAE@XZ
        256   FF 00096740 ??0CMovableEntity@@QAE@ABV0@@Z
        257  100 00199BB0 ??0CMovableEntity@@QAE@XZ
        258  101 00096B00 ??0CMovableModelEntity@@QAE@ABV0@@Z
        259  102 00092C80 ??0CMovableModelEntity@@QAE@XZ
        260  103 000C3290 ??0CMovingSphere@@QAE@XZ
        261  104 000E9A00 ??0CNetworkLibrary@@QAE@XZ
        262  105 000FAE30 ??0CNetworkMessage@@QAE@ABV0@@Z
        263  106 000FAE00 ??0CNetworkMessage@@QAE@W4NetworkMessageType@@@Z
        264  107 000FADD0 ??0CNetworkMessage@@QAE@XZ
        265  108 00005540 ??0CNetworkProvider@@QAE@ABV0@@Z
        266  109 000F9A40 ??0CNetworkProvider@@QAE@XZ
        267  10A 000056A0 ??0CNetworkSession@@QAE@ABV0@@Z
        268  10B 000F9B20 ??0CNetworkSession@@QAE@ABVCTString@@@Z
        269  10C 000F9A70 ??0CNetworkSession@@QAE@XZ
        270  10D 0003A1C0 ??0CObject3D@@QAE@AAV0@@Z
        271  10E 00038F70 ??0CObject3D@@QAE@XZ
        272  10F 0003A140 ??0CObjectPolygon@@QAE@AAV0@@Z
        273  110 0003A0D0 ??0CObjectPolygon@@QAE@XZ
        274  111 000386E0 ??0CObjectPolygonEdge@@QAE@PAVCObjectEdge@@@Z
        275  112 00038700 ??0CObjectPolygonEdge@@QAE@PAVCObjectEdge@@H@Z
        276  113 000386D0 ??0CObjectPolygonEdge@@QAE@XZ
        277  114 00041F70 ??0CObjectSector@@QAE@XZ
        278  115 001083B0 ??0COneLensFlare@@QAE@ABV0@@Z
        279  116 00108390 ??0COneLensFlare@@QAE@XZ
        280  117 0017B210 ??0CPDBlob@@QAE@ABV0@@Z
        281  118 001873D0 ??0CPDBlob@@QAE@ABV?$Vector@M$02@@M@Z
        282  119 001873C0 ??0CPDBlob@@QAE@XZ
        283  11A 0017AC50 ??0CPDBox@@QAE@ABV0@@Z
        284  11B 00186DA0 ??0CPDBox@@QAE@ABV?$Vector@M$02@@0@Z
        285  11C 00189090 ??0CPDBox@@QAE@XZ
        286  11D 0017B060 ??0CPDCone@@QAE@ABV0@@Z
        287  11E 0018A4A0 ??0CPDCone@@QAE@ABV?$Vector@M$02@@0MM@Z
        288  11F 0018A3D0 ??0CPDCone@@QAE@XZ
        289  120 0017AEB0 ??0CPDCylinder@@QAE@ABV0@@Z
        290  121 00189930 ??0CPDCylinder@@QAE@ABV?$Vector@M$02@@0MM@Z
        291  122 00189860 ??0CPDCylinder@@QAE@XZ
        292  123 0017AAB0 ??0CPDDisc@@QAE@ABV0@@Z
        293  124 00189250 ??0CPDDisc@@QAE@ABV?$Vector@M$02@@0MM@Z
        294  125 00189170 ??0CPDDisc@@QAE@XZ
        295  126 0017A6A0 ??0CPDLine@@QAE@ABV0@@Z
        296  127 00187AF0 ??0CPDLine@@QAE@ABV?$Vector@M$02@@0@Z
        297  128 00187A70 ??0CPDLine@@QAE@XZ
        298  129 0017A980 ??0CPDPlane@@QAE@ABV0@@Z
        299  12A 00188F90 ??0CPDPlane@@QAE@ABV?$Vector@M$02@@0@Z
        300  12B 00188F10 ??0CPDPlane@@QAE@XZ
        301  12C 0017A5B0 ??0CPDPoint@@QAE@ABV0@@Z
        302  12D 00186AD0 ??0CPDPoint@@QAE@ABV?$Vector@M$02@@@Z
        303  12E 001879E0 ??0CPDPoint@@QAE@XZ
        304  12F 0017B320 ??0CPDRectangle@@QAE@ABV0@@Z
        305  130 00188830 ??0CPDRectangle@@QAE@ABV?$Vector@M$02@@00@Z
        306  131 00188780 ??0CPDRectangle@@QAE@XZ
        307  132 0017AD80 ??0CPDSphere@@QAE@ABV0@@Z
        308  133 00187310 ??0CPDSphere@@QAE@ABV?$Vector@M$02@@MM@Z
        309  134 0018AF80 ??0CPDSphere@@QAE@XZ
        310  135 0017A7D0 ??0CPDTriangle@@QAE@ABV0@@Z
        311  136 00187E30 ??0CPDTriangle@@QAE@ABV?$Vector@M$02@@00@Z
        312  137 00187D80 ??0CPDTriangle@@QAE@XZ
        313  138 0017A4F0 ??0CPDomain@@QAE@ABV0@@Z
        314  139 0017A4E0 ??0CPDomain@@QAE@XZ
        315  13A 001809F0 ??0CPGroup@@QAE@ABV0@@Z
        316  13B 00194550 ??0CPGroup@@QAE@XZ
        317  13C 00002B20 ??0CParallelProjection3D@@QAE@ABV0@@Z
        318  13D 0000ABE0 ??0CParallelProjection3D@@QAE@XZ
        319  13E 0018CD00 ??0CParticle@@QAE@XZ
        320  13F 0018B9D0 ??0CParticleFX@@QAE@PBD@Z
        321  140 00002990 ??0CPerspectiveProjection3D@@QAE@ABV0@@Z
        322  141 00048270 ??0CPerspectiveProjection3D@@QAE@XZ
        323  142 00002460 ??0CPlacement3D@@QAE@ABV?$Vector@M$02@@0@Z
        324  143 0000AB70 ??0CPlacement3D@@QAE@XZ
        325  144 000FB300 ??0CPlayerAction@@QAE@XZ
        326  145 00092AE0 ??0CPlayerCharacter@@QAE@ABV0@@Z
        327  146 001295B0 ??0CPlayerCharacter@@QAE@ABVCTString@@@Z
        328  147 00129530 ??0CPlayerCharacter@@QAE@XZ
        329  148 00096B60 ??0CPlayerEntity@@QAE@ABV0@@Z
        330  149 00095CA0 ??0CPlayerEntity@@QAE@XZ
        331  14A 000E6000 ??0CPlayerSource@@QAE@ABV0@@Z
        332  14B 000FC2C0 ??0CPlayerSource@@QAE@XZ
        333  14C 00097AB0 ??0CProgressRoutines@@QAE@XZ
        334  14D 000024D0 ??0CProjection3D@@QAE@ABV0@@Z
        335  14E 00044ED0 ??0CProjection3D@@QAE@XZ
        336  14F 0000D8A0 ??0CRationalEntity@@QAE@ABV0@@Z
        337  150 00121800 ??0CRationalEntity@@QAE@XZ
        338  151 0001F4A0 ??0CRelationDst@@QAE@XZ
        339  152 0001F490 ??0CRelationSrc@@QAE@XZ
        340  153 000AB930 ??0CRenderModel@@QAE@XZ
        341  154 00001C50 ??0CSerial@@QAE@ABV0@@Z
        342  155 000239A0 ??0CSerial@@QAE@XZ
        343  156 00096610 ??0CServer@@QAE@ABV0@@Z
        344  157 00100890 ??0CServer@@QAE@XZ
        345  158 00096030 ??0CSessionState@@QAE@ABV0@@Z
        346  159 00102240 ??0CSessionState@@QAE@XZ
        347  15A 00037540 ??0CSetFPUPrecision@@QAE@W4FPUPrecisionType@@@Z
        348  15B 0000DC50 ??0CShader@@QAE@ABV0@@Z
        349  15C 0000DB40 ??0CShader@@QAE@P6AXXZP6AXAAUShaderDesc@@@ZP6AXAAVCTString@@J@ZP6AX3JW4FOGTYPE@@@Z@Z
        350  15D 0000DB10 ??0CShader@@QAE@XZ
        351  15E 000E6170 ??0CShadingInfo@@QAE@ABV0@@Z
        352  15F 000EF2C0 ??0CShadingInfo@@QAE@XZ
        353  160 00003450 ??0CShadowMap@@QAE@ABV0@@Z
        354  161 000819F0 ??0CShadowMap@@QAE@XZ
        355  162 00001670 ??0CShell@@QAE@AAV0@@Z
        356  163 00025AE0 ??0CShell@@QAE@XZ
        357  164 00002C20 ??0CSimpleProjection3D@@QAE@ABV0@@Z
        358  165 00002C00 ??0CSimpleProjection3D@@QAE@XZ
        359  166 0004AB50 ??0CSimpleProjection3D_DOUBLE@@QAE@XZ
        360  167 0000FF50 ??0CSkeleton@@QAE@ABV0@@Z
        361  168 00166A50 ??0CSkeleton@@QAE@XZ
        362  169 0000DD60 ??0CSmallScriptShader@@QAE@ABV0@@Z
        363  16A 0007F120 ??0CSmallScriptShader@@QAE@XZ
        364  16B 00005870 ??0CSoundData@@QAE@ABV0@@Z
        365  16C 0008CAA0 ??0CSoundData@@QAE@XZ
        366  16D 000901F0 ??0CSoundLibrary@@QAE@XZ
        367  16E 0001FAA0 ??0CSoundObject@@QAE@ABV0@@Z
        368  16F 000930B0 ??0CSoundObject@@QAE@XZ
        369  170 0008E6C0 ??0CSurfaceType@@QAE@ABV0@@Z
        370  171 0008E660 ??0CSurfaceType@@QAE@XZ
        371  172 0002F610 ??0CTCriticalSection@@QAE@XZ
        372  173 000017F0 ??0CTFileName@@QAE@ABV0@@Z
        373  174 00001740 ??0CTFileName@@QAE@ABVCTString@@@Z
        374  175 00001700 ??0CTFileName@@QAE@PBD@Z
        375  176 00001770 ??0CTFileName@@QAE@PBDH@Z
        376  177 00001720 ??0CTFileName@@QAE@XZ
        377  178 0000AAF0 ??0CTFileStream@@QAE@AAV0@@Z
        378  179 0002D240 ??0CTFileStream@@QAE@XZ
        379  17A 0000AB30 ??0CTMemoryStream@@QAE@AAV0@@Z
        380  17B 0002D8E0 ??0CTMemoryStream@@QAE@PAXJW4OpenMode@CTStream@@@Z
        381  17C 0002D800 ??0CTMemoryStream@@QAE@XZ
        382  17D 0002F790 ??0CTSingleLock@@QAE@PAVCTCriticalSection@@H@Z
        383  17E 0000AA40 ??0CTStream@@QAE@AAV0@@Z
        384  17F 0002D070 ??0CTStream@@QAE@XZ
        385  180 000010B0 ??0CTString@@QAA@JPBDZZ
        386  181 00001050 ??0CTString@@QAE@ABV0@@Z
        387  182 00001070 ??0CTString@@QAE@PBD@Z
        388  183 00001090 ??0CTString@@QAE@PBG@Z
        389  184 00001030 ??0CTString@@QAE@XZ
        390  185 00015F40 ??0CTWString@@QAE@ABV0@@Z
        391  186 00015F80 ??0CTWString@@QAE@PBD@Z
        392  187 00015F60 ??0CTWString@@QAE@PBG@Z
        393  188 00015F20 ??0CTWString@@QAE@XZ
        394  189 0005DF90 ??0CTerrain@@QAE@ABV0@@Z
        395  18A 00174FE0 ??0CTerrain@@QAE@XZ
        396  18B 000BE5C0 ??0CTerrainArchive@@QAE@AAV0@@Z
        397  18C 000BE2A0 ??0CTerrainArchive@@QAE@XZ
        398  18D 00118490 ??0CTerrainLayer@@QAE@ABV0@@Z
        399  18E 0016B4A0 ??0CTerrainLayer@@QAE@XZ
        400  18F 0008E5F0 ??0CTextureBlending@@QAE@ABV0@@Z
        401  190 000B8FE0 ??0CTextureBlending@@QAE@XZ
        402  191 0000ACF0 ??0CTextureData@@QAE@ABV0@@Z
        403  192 00084030 ??0CTextureData@@QAE@XZ
        404  193 00097510 ??0CTextureDataInfo@@QAE@ABV0@@Z
        405  194 00097450 ??0CTextureDataInfo@@QAE@XZ
        406  195 00003400 ??0CTextureObject@@QAE@ABV0@@Z
        407  196 000839E0 ??0CTextureObject@@QAE@XZ
        408  197 0008E570 ??0CTextureTransformation@@QAE@ABV0@@Z
        409  198 000B8F60 ??0CTextureTransformation@@QAE@XZ
        410  199 000978D0 ??0CThumbnailSettings@@QAE@ABV0@@Z
        411  19A 00098470 ??0CThumbnailSettings@@QAE@XZ
        412  19B 00001390 ??0CTimer@@QAE@ABV0@@Z
        413  19C 0002FFE0 ??0CTimer@@QAE@H@Z
        414  19D 00033AC0 ??0CUpdateable@@QAE@XZ
        415  19E 00033B00 ??0CUpdateableRT@@QAE@XZ
        416  19F 0001CAD0 ??0CViewPort@@QAE@ABV0@@Z
        417  1A0 0008C790 ??0CViewPort@@QAE@JJPAUHWND__@@@Z
        418  1A1 000BA980 ??0CWorld@@QAE@XZ
        419  1A2 00108560 ??0CWorldRenderPrefs@@QAE@XZ
        420  1A3 000373A0 ??0CubicSpline@@QAE@ABV0@@Z
        421  1A4 00035500 ??0CubicSpline@@QAE@IPBM0MM@Z
        422  1A5 00037090 ??0CubicSpline@@QAE@XZ
        423  1A6 00004320 ??0EBegin@@QAE@ABV0@@Z
        424  1A7 00195670 ??0EBegin@@QAE@XZ
        425  1A8 0000D2B0 ??0EBlock@@QAE@ABV0@@Z
        426  1A9 00195F90 ??0EBlock@@QAE@XZ
        427  1AA 00004990 ??0EComboFall@@QAE@ABV0@@Z
        428  1AB 00195960 ??0EComboFall@@QAE@XZ
        429  1AC 0000D4A0 ??0EDamage@@QAE@ABV0@@Z
        430  1AD 00195D70 ??0EDamage@@QAE@XZ
        431  1AE 0000D6E0 ??0EDeath@@QAE@ABV0@@Z
        432  1AF 00196030 ??0EDeath@@QAE@XZ
        433  1B0 000048A0 ??0EFirstWorldBase@@QAE@ABV0@@Z
        434  1B1 001958D0 ??0EFirstWorldBase@@QAE@XZ
        435  1B2 00004080 ??0EInternal@@QAE@ABV0@@Z
        436  1B3 00195580 ??0EInternal@@QAE@XZ
        437  1B4 0000D0D0 ??0EPass@@QAE@ABV0@@Z
        438  1B5 00195C00 ??0EPass@@QAE@XZ
        439  1B6 00004B90 ??0EPlayerInit@@QAE@ABV0@@Z
        440  1B7 00195A20 ??0EPlayerInit@@QAE@XZ
        441  1B8 000047A0 ??0EPostLevelChange@@QAE@ABV0@@Z
        442  1B9 00195870 ??0EPostLevelChange@@QAE@XZ
        443  1BA 000046A0 ??0EPreLevelChange@@QAE@ABV0@@Z
        444  1BB 00195810 ??0EPreLevelChange@@QAE@XZ
        445  1BC 00004240 ??0EReturn@@QAE@ABV0@@Z
        446  1BD 00195620 ??0EReturn@@QAE@XZ
        447  1BE 00004A90 ??0ETakingBreath@@QAE@ABV0@@Z
        448  1BF 001959C0 ??0ETakingBreath@@QAE@XZ
        449  1C0 000045C0 ??0ETeleport@@QAE@ABV0@@Z
        450  1C1 001957C0 ??0ETeleport@@QAE@XZ
        451  1C2 00004400 ??0ETimer@@QAE@ABV0@@Z
        452  1C3 001956C0 ??0ETimer@@QAE@XZ
        453  1C4 0000CEE0 ??0ETouch@@QAE@ABV0@@Z
        454  1C5 00195EE0 ??0ETouch@@QAE@XZ
        455  1C6 00004160 ??0EVoid@@QAE@ABV0@@Z
        456  1C7 001955D0 ??0EVoid@@QAE@XZ
        457  1C8 000044E0 ??0EWouldFall@@QAE@ABV0@@Z
        458  1C9 00195770 ??0EWouldFall@@QAE@XZ
        459  1CA 0000D9C0 ??0MappingSurface@@QAE@ABU0@@Z
        460  1CB 000A6810 ??0MappingSurface@@QAE@XZ
        461  1CC 0000FE20 ??0MeshLOD@@QAE@ABU0@@Z
        462  1CD 0014C130 ??0MeshLOD@@QAE@XZ
        463  1CE 0000DEF0 ??0MeshMorphMap@@QAE@XZ
        464  1CF 0014A3A0 ??0MeshSurface@@QAE@XZ
        465  1D0 0000DE60 ??0MeshUVMap@@QAE@XZ
        466  1D1 0000DEB0 ??0MeshWeightMap@@QAE@XZ
        467  1D2 0000D990 ??0ModelFrameInfo@@QAE@XZ
        468  1D3 0000B530 ??0ModelFrameVertex16@@QAE@XZ
        469  1D4 0000B520 ??0ModelFrameVertex16_old@@QAE@XZ
        470  1D5 0000B510 ??0ModelFrameVertex8@@QAE@XZ
        471  1D6 000A8E00 ??0ModelMipInfo@@QAE@XZ
        472  1D7 000A6700 ??0ModelPolygon@@QAE@XZ
        473  1D8 000A4320 ??0ModelTextureVertex@@QAE@XZ
        474  1D9 0000DAC0 ??0PolygonsPerPatch@@QAE@XZ
        475  1DA 0000E080 ??0SkeletonBone@@QAE@XZ
        476  1DB 0000E010 ??0SkeletonLOD@@QAE@ABU0@@Z
        477  1DC 0000DF30 ??0SkeletonLOD@@QAE@XZ
        478  1DD 0000B540 ??0TransformedVertexData@@QAE@XZ
        479  1DE 00012390 ??1CAnimData@@UAE@XZ
        480  1DF 000118A0 ??1CAnimObject@@QAE@XZ
        481  1E0 001484F0 ??1CAnimSet@@UAE@XZ
        482  1E1 000986F0 ??1CAttachedModel@@QAE@XZ
        483  1E2 00097820 ??1CAttachedSound@@QAE@XZ
        484  1E3 0001F8F0 ??1CAttachmentModelObject@@QAE@XZ
        485  1E4 00119B60 ??1CAutoPrecacheModel@@QAE@XZ
        486  1E5 001199D0 ??1CAutoPrecacheSound@@QAE@XZ
        487  1E6 00119C20 ??1CAutoPrecacheTexture@@QAE@XZ
        488  1E7 00129C70 ??1CBrush3D@@QAE@XZ
        489  1E8 000BE120 ??1CBrushArchive@@UAE@XZ
        490  1E9 00003DD0 ??1CBrushMip@@QAE@XZ
        491  1EA 0000CC80 ??1CBrushPolygon@@QAE@XZ
        492  1EB 00003B60 ??1CBrushPolygonTexture@@QAE@XZ
        493  1EC 001316F0 ??1CBrushSector@@QAE@XZ
        494  1ED 00135480 ??1CBrushShadowLayer@@QAE@XZ
        495  1EE 00135920 ??1CBrushShadowMap@@QAE@XZ
        496  1EF 000CEE20 ??1CCastRay@@QAE@XZ
        497  1F0 00180D00 ??1CCmd@@UAE@XZ
        498  1F1 00183AE0 ??1CCmdAvoid@@UAE@XZ
        499  1F2 00182110 ??1CCmdBounce@@UAE@XZ
        500  1F3 00180E90 ??1CCmdColor@@UAE@XZ
        501  1F4 00181100 ??1CCmdColorDomain@@UAE@XZ
        502  1F5 00183930 ??1CCmdCopyVertexB@@UAE@XZ
        503  1F6 001838B0 ??1CCmdDamping@@UAE@XZ
        504  1F7 00183850 ??1CCmdExplosion@@UAE@XZ
        505  1F8 00183640 ??1CCmdFollow@@UAE@XZ
        506  1F9 00183410 ??1CCmdGravitate@@UAE@XZ
        507  1FA 00183390 ??1CCmdGravity@@UAE@XZ
        508  1FB 00183330 ??1CCmdJet@@UAE@XZ
        509  1FC 00183160 ??1CCmdKillOld@@UAE@XZ
        510  1FD 00182F30 ??1CCmdMatchVelocity@@UAE@XZ
        511  1FE 00180D30 ??1CCmdMaxParticles@@UAE@XZ
        512  1FF 001825B0 ??1CCmdMove@@UAE@XZ
        513  200 00182EB0 ??1CCmdOrbitLine@@UAE@XZ
        514  201 00182E50 ??1CCmdOrbitPoint@@UAE@XZ
        515  202 00182C70 ??1CCmdRandomAccel@@UAE@XZ
        516  203 00182A70 ??1CCmdRandomDisplace@@UAE@XZ
        517  204 00182870 ??1CCmdRandomVelocity@@UAE@XZ
        518  205 00183D00 ??1CCmdRestore@@UAE@XZ
        519  206 001826B0 ??1CCmdSink@@UAE@XZ
        520  207 00183EB0 ??1CCmdSinkVelocity@@UAE@XZ
        521  208 001816F0 ??1CCmdSize@@UAE@XZ
        522  209 00181780 ??1CCmdSizeDomain@@UAE@XZ
        523  20A 00182390 ??1CCmdSource@@UAE@XZ
        524  20B 001840D0 ??1CCmdSpeedLimit@@UAE@XZ
        525  20C 00181D70 ??1CCmdStartingAge@@UAE@XZ
        526  20D 001842A0 ??1CCmdTargetColor@@UAE@XZ
        527  20E 00184300 ??1CCmdTargetSize@@UAE@XZ
        528  20F 00184360 ??1CCmdTargetVelocity@@UAE@XZ
        529  210 00181F60 ??1CCmdTimeStep@@UAE@XZ
        530  211 001812D0 ??1CCmdVelocity@@UAE@XZ
        531  212 00181510 ??1CCmdVelocityDomain@@UAE@XZ
        532  213 00181990 ??1CCmdVertexB@@UAE@XZ
        533  214 00181BC0 ??1CCmdVertexBDomain@@UAE@XZ
        534  215 001843C0 ??1CCmdVortex@@UAE@XZ
        535  216 000C8C30 ??1CCollisionInfo@@QAE@XZ
        536  217 000050B0 ??1CCommunicationInterface@@QAE@XZ
        537  218 0008E7C0 ??1CContentType@@QAE@XZ
        538  219 000105B0 ??1CDVBlendShader@@QAE@XZ
        539  21A 00010550 ??1CDVScrollShader@@QAE@XZ
        540  21B 00010490 ??1CDVWorldShader@@QAE@XZ
        541  21C 0001EA00 ??1CDisableAsyncProgress@@QAE@XZ
        542  21D 00053840 ??1CDrawPort@@QAE@XZ
        543  21E 0009C900 ??1CEditModel@@UAE@XZ
        544  21F 0017CB20 ??1CEffect@@QAE@XZ
        545  220 0011CEF0 ??1CEntity@@UAE@XZ
        546  221 00125C00 ??1CEntityClass@@UAE@XZ
        547  222 00005FD0 ??1CEntityComponent@@QAE@XZ
        548  223 00003F90 ??1CEntityEvent@@UAE@XZ
        549  224 00122C20 ??1CEntityID@@QAE@XZ
        550  225 000052B0 ??1CEntityMessage@@QAE@XZ
        551  226 0008E8E0 ??1CEnvironmentType@@QAE@XZ
        552  227 00108350 ??1CFieldSettings@@QAE@XZ
        553  228 000030E0 ??1CFileNameNode@@QAE@XZ
        554  229 0005DC80 ??1CFontData@@UAE@XZ
        555  22A 00063A40 ??1CGfxLibrary@@QAE@XZ
        556  22B 0008E970 ??1CIlluminationType@@QAE@XZ
        557  22C 00079440 ??1CImageInfo@@QAE@XZ
        558  22D 0001C950 ??1CInput@@QAE@XZ
        559  22E 0001C110 ??1CInputDevice@@QAE@XZ
        560  22F 000EF500 ??1CLastPositions@@QAE@XZ
        561  230 001166C0 ??1CLensFlareType@@QAE@XZ
        562  231 0013DA40 ??1CLightSource@@QAE@XZ
        563  232 000011C0 ??1CListNode@@QAE@XZ
        564  233 00004FD0 ??1CLiveEntity@@UAE@XZ
        565  234 000975C0 ??1CMappingUndo@@QAE@XZ
        566  235 00150070 ??1CMesh@@UAE@XZ
        567  236 000FA350 ??1CMessageDispatcher@@QAE@XZ
        568  237 00005C30 ??1CModelCollisionBox@@QAE@XZ
        569  238 000A9220 ??1CModelData@@UAE@XZ
        570  239 00005D40 ??1CModelInfo@@QAE@XZ
        571  23A 00153A70 ??1CModelInstance@@QAE@XZ
        572  23B 001544A0 ??1CModelInstanceSerial@@UAE@XZ
        573  23C 000A6940 ??1CModelObject@@QAE@XZ
        574  23D 00005A50 ??1CModelPatch@@QAE@XZ
        575  23E 00092D50 ??1CMovableBrushEntity@@UAE@XZ
        576  23F 00199C60 ??1CMovableEntity@@UAE@XZ
        577  240 00092CA0 ??1CMovableModelEntity@@UAE@XZ
        578  241 000E9C90 ??1CNetworkLibrary@@QAE@XZ
        579  242 000FA570 ??1CNetworkMessage@@QAE@XZ
        580  243 000054E0 ??1CNetworkProvider@@QAE@XZ
        581  244 000055F0 ??1CNetworkSession@@QAE@XZ
        582  245 00038F80 ??1CObject3D@@QAE@XZ
        583  246 0003A130 ??1CObjectPolygon@@QAE@XZ
        584  247 00042020 ??1CObjectSector@@QAE@XZ
        585  248 001083A0 ??1COneLensFlare@@QAE@XZ
        586  249 001869A0 ??1CPDBlob@@UAE@XZ
        587  24A 001868E0 ??1CPDBox@@UAE@XZ
        588  24B 00186960 ??1CPDCone@@UAE@XZ
        589  24C 00186940 ??1CPDCylinder@@UAE@XZ
        590  24D 00186900 ??1CPDDisc@@UAE@XZ
        591  24E 001867E0 ??1CPDLine@@UAE@XZ
        592  24F 001868A0 ??1CPDPlane@@UAE@XZ
        593  250 00186780 ??1CPDPoint@@UAE@XZ
        594  251 00186860 ??1CPDRectangle@@UAE@XZ
        595  252 00186980 ??1CPDSphere@@UAE@XZ
        596  253 00186820 ??1CPDTriangle@@UAE@XZ
        597  254 00186770 ??1CPDomain@@UAE@XZ
        598  255 00194630 ??1CPGroup@@UAE@XZ
        599  256 0018CA70 ??1CParticle@@QAE@XZ
        600  257 0018BCB0 ??1CParticleFX@@QAE@XZ
        601  258 00092A80 ??1CPlayerCharacter@@QAE@XZ
        602  259 00092DE0 ??1CPlayerEntity@@UAE@XZ
        603  25A 000FC350 ??1CPlayerSource@@QAE@XZ
        604  25B 0000D810 ??1CRationalEntity@@UAE@XZ
        605  25C 0001F6C0 ??1CRelationDst@@QAE@XZ
        606  25D 0001F6D0 ??1CRelationSrc@@QAE@XZ
        607  25E 000AC180 ??1CRenderModel@@QAE@XZ
        608  25F 000239E0 ??1CSerial@@UAE@XZ
        609  260 000FE870 ??1CServer@@QAE@XZ
        610  261 00102380 ??1CSessionState@@QAE@XZ
        611  262 00037570 ??1CSetFPUPrecision@@QAE@XZ
        612  263 0000DBC0 ??1CShader@@UAE@XZ
        613  264 000E6150 ??1CShadingInfo@@QAE@XZ
        614  265 00081A50 ??1CShadowMap@@QAE@XZ
        615  266 00025B40 ??1CShell@@QAE@XZ
        616  267 00166A70 ??1CSkeleton@@UAE@XZ
        617  268 0007F1C0 ??1CSmallScriptShader@@UAE@XZ
        618  269 0008CCD0 ??1CSoundData@@UAE@XZ
        619  26A 00090DB0 ??1CSoundLibrary@@QAE@XZ
        620  26B 000938D0 ??1CSoundObject@@QAE@XZ
        621  26C 0008E6B0 ??1CSurfaceType@@QAE@XZ
        622  26D 0002F630 ??1CTCriticalSection@@QAE@XZ
        623  26E 000017E0 ??1CTFileName@@QAE@XZ
        624  26F 0002E2A0 ??1CTFileStream@@UAE@XZ
        625  270 0002D9F0 ??1CTMemoryStream@@UAE@XZ
        626  271 0002F7C0 ??1CTSingleLock@@QAE@XZ
        627  272 0002D160 ??1CTStream@@UAE@XZ
        628  273 000010E0 ??1CTString@@QAE@XZ
        629  274 00015FA0 ??1CTWString@@QAE@XZ
        630  275 001750A0 ??1CTerrain@@QAE@XZ
        631  276 000BE2F0 ??1CTerrainArchive@@UAE@XZ
        632  277 0016B740 ??1CTerrainLayer@@QAE@XZ
        633  278 0008E5E0 ??1CTextureBlending@@QAE@XZ
        634  279 00086900 ??1CTextureData@@UAE@XZ
        635  27A 000974B0 ??1CTextureDataInfo@@QAE@XZ
        636  27B 000033F0 ??1CTextureObject@@QAE@XZ
        637  27C 0008E560 ??1CTextureTransformation@@QAE@XZ
        638  27D 000978C0 ??1CThumbnailSettings@@QAE@XZ
        639  27E 0002FBB0 ??1CTimer@@QAE@XZ
        640  27F 0008C580 ??1CViewPort@@QAE@XZ
        641  280 000BB5B0 ??1CWorld@@QAE@XZ
        642  281 00035390 ??1CubicSpline@@QAE@XZ
        643  282 00004310 ??1EBegin@@UAE@XZ
        644  283 0000D260 ??1EBlock@@UAE@XZ
        645  284 00004980 ??1EComboFall@@UAE@XZ
        646  285 0000D450 ??1EDamage@@UAE@XZ
        647  286 0000D670 ??1EDeath@@UAE@XZ
        648  287 00004890 ??1EFirstWorldBase@@UAE@XZ
        649  288 00004070 ??1EInternal@@UAE@XZ
        650  289 0000D080 ??1EPass@@UAE@XZ
        651  28A 00004B80 ??1EPlayerInit@@UAE@XZ
        652  28B 00004790 ??1EPostLevelChange@@UAE@XZ
        653  28C 00004690 ??1EPreLevelChange@@UAE@XZ
        654  28D 00004230 ??1EReturn@@UAE@XZ
        655  28E 00004A80 ??1ETakingBreath@@UAE@XZ
        656  28F 000045B0 ??1ETeleport@@UAE@XZ
        657  290 000043F0 ??1ETimer@@UAE@XZ
        658  291 0000CE90 ??1ETouch@@UAE@XZ
        659  292 00004150 ??1EVoid@@UAE@XZ
        660  293 000044D0 ??1EWouldFall@@UAE@XZ
        661  294 000A6790 ??1MappingSurface@@QAE@XZ
        662  295 0014C1D0 ??1MeshLOD@@QAE@XZ
        663  296 0000DF00 ??1MeshMorphMap@@QAE@XZ
        664  297 0014A3E0 ??1MeshSurface@@QAE@XZ
        665  298 0000DE80 ??1MeshUVMap@@QAE@XZ
        666  299 0000DEC0 ??1MeshWeightMap@@QAE@XZ
        667  29A 000A8E50 ??1ModelMipInfo@@QAE@XZ
        668  29B 000A6710 ??1ModelPolygon@@QAE@XZ
        669  29C 0000EF00 ??1PolygonsPerPatch@@QAE@XZ
        670  29D 0000DF90 ??1SkeletonLOD@@QAE@XZ
        671  29E 00010D50 ??4CAnimSet@@QAEAAV0@ABV0@@Z
        672  29F 00002FA0 ??4CAnyProjection3D@@QAEXABV0@@Z
        673  2A0 00003050 ??4CAnyProjection3D@@QAEXABVCIsometricProjection3D@@@Z
        674  2A1 000030B0 ??4CAnyProjection3D@@QAEXABVCParallelProjection3D@@@Z
        675  2A2 00003080 ??4CAnyProjection3D@@QAEXABVCPerspectiveProjection3D@@@Z
        676  2A3 00003030 ??4CAnyProjection3D@@QAEXABVCSimpleProjection3D@@@Z
        677  2A4 00097750 ??4CAttachedModel@@QAEAAV0@ABV0@@Z
        678  2A5 00005D00 ??4CAttachedModelPosition@@QAEAAV0@ABV0@@Z
        679  2A6 00097870 ??4CAttachedSound@@QAEAAV0@ABV0@@Z
        680  2A7 0001F9D0 ??4CAttachmentModelObject@@QAEAAV0@ABV0@@Z
        681  2A8 000B8E20 ??4CAutoPrecacheModel@@QAEAAV0@ABV0@@Z
        682  2A9 000B8E10 ??4CAutoPrecacheSound@@QAEAAV0@ABV0@@Z
        683  2AA 000B8E30 ??4CAutoPrecacheTexture@@QAEAAV0@ABV0@@Z
        684  2AB 00003F60 ??4CBoolDefaultFalse@@QAEAAV0@ABV0@@Z
        685  2AC 00003EE0 ??4CBrush3D@@QAEAAV0@ABV0@@Z
        686  2AD 000BE1A0 ??4CBrushArchive@@QAEAAV0@AAV0@@Z
        687  2AE 00003600 ??4CBrushBase@@QAEAAV0@ABV0@@Z
        688  2AF 00003720 ??4CBrushEdge@@QAEAAV0@ABV0@@Z
        689  2B0 00003E80 ??4CBrushMip@@QAEAAV0@AAV0@@Z
        690  2B1 000036B0 ??4CBrushPlane@@QAEAAV0@ABV0@@Z
        691  2B2 0000EC60 ??4CBrushPolygon@@QAEAAV0@ABV0@@Z
        692  2B3 00003950 ??4CBrushPolygonEdge@@QAEAAV0@ABV0@@Z
        693  2B4 00003BB0 ??4CBrushPolygonTexture@@QAEAAV0@ABV0@@Z
        694  2B5 00130950 ??4CBrushSector@@QAEAAV0@ABV0@@Z
        695  2B6 000039D0 ??4CBrushShadowLayer@@QAEAAV0@ABV0@@Z
        696  2B7 00003A80 ??4CBrushShadowMap@@QAEAAV0@ABV0@@Z
        697  2B8 00003670 ??4CBrushVertex@@QAEAAV0@ABV0@@Z
        698  2B9 0007A240 ??4CCastRay@@QAEAAV0@ABV0@@Z
        699  2BA 00001C10 ??4CChangeable@@QAEAAV0@ABV0@@Z
        700  2BB 00016210 ??4CChangeableRT@@QAEAAV0@ABV0@@Z
        701  2BC 000020E0 ??4CChunkID@@QAEAAV0@ABV0@@Z
        702  2BD 00177C20 ??4CCmd@@QAEAAV0@ABV0@@Z
        703  2BE 00178800 ??4CCmdAvoid@@QAEAAV0@ABV0@@Z
        704  2BF 00178910 ??4CCmdBounce@@QAEAAV0@ABV0@@Z
        705  2C0 00177E10 ??4CCmdColor@@QAEAAV0@ABV0@@Z
        706  2C1 00177F10 ??4CCmdColorDomain@@QAEAAV0@ABV0@@Z
        707  2C2 00178A10 ??4CCmdCopyVertexB@@QAEAAV0@ABV0@@Z
        708  2C3 00178B30 ??4CCmdDamping@@QAEAAV0@ABV0@@Z
        709  2C4 00178C70 ??4CCmdExplosion@@QAEAAV0@ABV0@@Z
        710  2C5 00178DA0 ??4CCmdFollow@@QAEAAV0@ABV0@@Z
        711  2C6 00178EB0 ??4CCmdGravitate@@QAEAAV0@ABV0@@Z
        712  2C7 00178FC0 ??4CCmdGravity@@QAEAAV0@ABV0@@Z
        713  2C8 001790E0 ??4CCmdJet@@QAEAAV0@ABV0@@Z
        714  2C9 00179200 ??4CCmdKillOld@@QAEAAV0@ABV0@@Z
        715  2CA 00179310 ??4CCmdMatchVelocity@@QAEAAV0@ABV0@@Z
        716  2CB 00177D10 ??4CCmdMaxParticles@@QAEAAV0@ABV0@@Z
        717  2CC 00179410 ??4CCmdMove@@QAEAAV0@ABV0@@Z
        718  2CD 00179540 ??4CCmdOrbitLine@@QAEAAV0@ABV0@@Z
        719  2CE 00179690 ??4CCmdOrbitPoint@@QAEAAV0@ABV0@@Z
        720  2CF 001797B0 ??4CCmdRandomAccel@@QAEAAV0@ABV0@@Z
        721  2D0 001798A0 ??4CCmdRandomDisplace@@QAEAAV0@ABV0@@Z
        722  2D1 00179990 ??4CCmdRandomVelocity@@QAEAAV0@ABV0@@Z
        723  2D2 00179C60 ??4CCmdRestore@@QAEAAV0@ABV0@@Z
        724  2D3 00179B70 ??4CCmdSink@@QAEAAV0@ABV0@@Z
        725  2D4 00179D50 ??4CCmdSinkVelocity@@QAEAAV0@ABV0@@Z
        726  2D5 00178210 ??4CCmdSize@@QAEAAV0@ABV0@@Z
        727  2D6 00178310 ??4CCmdSizeDomain@@QAEAAV0@ABV0@@Z
        728  2D7 00179A80 ??4CCmdSource@@QAEAAV0@ABV0@@Z
        729  2D8 00179E40 ??4CCmdSpeedLimit@@QAEAAV0@ABV0@@Z
        730  2D9 00178600 ??4CCmdStartingAge@@QAEAAV0@ABV0@@Z
        731  2DA 00179F60 ??4CCmdTargetColor@@QAEAAV0@ABV0@@Z
        732  2DB 0017A090 ??4CCmdTargetSize@@QAEAAV0@ABV0@@Z
        733  2DC 0017A1D0 ??4CCmdTargetVelocity@@QAEAAV0@ABV0@@Z
        734  2DD 00178700 ??4CCmdTimeStep@@QAEAAV0@ABV0@@Z
        735  2DE 00178010 ??4CCmdVelocity@@QAEAAV0@ABV0@@Z
        736  2DF 00178110 ??4CCmdVelocityDomain@@QAEAAV0@ABV0@@Z
        737  2E0 00178410 ??4CCmdVertexB@@QAEAAV0@ABV0@@Z
        738  2E1 00178510 ??4CCmdVertexBDomain@@QAEAAV0@ABV0@@Z
        739  2E2 0017A320 ??4CCmdVortex@@QAEAAV0@ABV0@@Z
        740  2E3 000C8E40 ??4CCollisionInfo@@QAEAAV0@ABV0@@Z
        741  2E4 0000B210 ??4CCommunicationInterface@@QAEAAV0@ABV0@@Z
        742  2E5 0008E840 ??4CContentType@@QAEAAV0@ABV0@@Z
        743  2E6 000060D0 ??4CDLLEntityClass@@QAEAAV0@ABV0@@Z
        744  2E7 000060B0 ??4CDLLEntityEvent@@QAEAAV0@ABV0@@Z
        745  2E8 00010980 ??4CDVBlendShader@@QAEAAV0@ABV0@@Z
        746  2E9 00010920 ??4CDVScrollShader@@QAEAAV0@ABV0@@Z
        747  2EA 000054C0 ??4CDVWaveMod@@QAEAAV0@ABV0@@Z
        748  2EB 000108F0 ??4CDVWorldShader@@QAEAAV0@ABV0@@Z
        749  2EC 00001850 ??4CDisableAsyncProgress@@QAEAAV0@ABV0@@Z
        750  2ED 000018F0 ??4CDisplayMode@@QAEAAV0@ABV0@@Z
        751  2EE 00053850 ??4CDrawPort@@QAEAAV0@AAV0@@Z
        752  2EF 000A1AF0 ??4CEditModel@@QAEAAV0@AAV0@@Z
        753  2F0 0017FB80 ??4CEffect@@QAEAAV0@ABV0@@Z
        754  2F1 00004CC0 ??4CEntity@@UAEAAV0@AAV0@@Z
        755  2F2 00006270 ??4CEntityClass@@QAEAAV0@ABV0@@Z
        756  2F3 00006040 ??4CEntityComponent@@QAEAAV0@ABV0@@Z
        757  2F4 00003FE0 ??4CEntityEvent@@QAEAAV0@ABV0@@Z
        758  2F5 00122C90 ??4CEntityID@@QAEABV0@AAV0@@Z
        759  2F6 00122CD0 ??4CEntityID@@QAEABV0@K@Z
        760  2F7 00122C40 ??4CEntityID@@QAEABV0@PAVCEntity@@@Z
        761  2F8 00005300 ??4CEntityMessage@@QAEAAV0@ABV0@@Z
        762  2F9 00005F40 ??4CEntityProperty@@QAEAAV0@ABV0@@Z
        763  2FA 0008E920 ??4CEnvironmentType@@QAEAAV0@ABV0@@Z
        764  2FB 00108380 ??4CFieldSettings@@QAEAAV0@ABV0@@Z
        765  2FC 00003130 ??4CFileNameNode@@QAEAAV0@ABV0@@Z
        766  2FD 00001D60 ??4CFontCharData@@QAEAAV0@ABV0@@Z
        767  2FE 00001F60 ??4CFontData@@QAEAAV0@ABV0@@Z
        768  2FF 0000C830 ??4CGfxLibrary@@QAEAAV0@ABV0@@Z
        769  300 0008E9A0 ??4CIlluminationType@@QAEAAV0@ABV0@@Z
        770  301 00052670 ??4CImageInfo@@QAEAAV0@ABV0@@Z
        771  302 000103B0 ??4CInput@@QAEAAV0@ABV0@@Z
        772  303 0000F810 ??4CInputDevice@@QAEAAV0@ABV0@@Z
        773  304 00045000 ??4CIntersector@@QAEAAV0@ABV0@@Z
        774  305 00002AF0 ??4CIsometricProjection3D@@QAEAAV0@ABV0@@Z
        775  306 000EF540 ??4CLastPositions@@QAEAAV0@ABV0@@Z
        776  307 00116E20 ??4CLensFlareType@@QAEAAV0@ABV0@@Z
        777  308 000B8F00 ??4CLightSource@@QAEAAV0@ABV0@@Z
        778  309 00001180 ??4CListHead@@QAEXABV0@@Z
        779  30A 000011E0 ??4CListNode@@QAEAAV0@ABV0@@Z
        780  30B 00004FE0 ??4CLiveEntity@@QAEAAV0@AAV0@@Z
        781  30C 00001650 ??4CLogStats@@QAEAAV0@ABV0@@Z
        782  30D 00002420 ??4CMappingDefinition@@QAEAAV0@ABV0@@Z
        783  30E 000023C0 ??4CMappingDefinitionUI@@QAEAAV0@ABV0@@Z
        784  30F 00097660 ??4CMappingUndo@@QAEAAV0@ABV0@@Z
        785  310 000023E0 ??4CMappingVectors@@QAEAAV0@ABV0@@Z
        786  311 0000F8B0 ??4CMesh@@QAEAAV0@ABV0@@Z
        787  312 000055C0 ??4CMessageDispatcher@@QAEAAV0@ABV0@@Z
        788  313 00005D20 ??4CMipInfo@@QAEAAV0@ABV0@@Z
        789  314 00005C90 ??4CModelCollisionBox@@QAEAAV0@ABV0@@Z
        790  315 000A3A70 ??4CModelData@@QAEAAV0@ABV0@@Z
        791  316 00005E00 ??4CModelInfo@@QAEAAV0@ABV0@@Z
        792  317 00151E50 ??4CModelInstance@@QAEXAAV0@@Z
        793  318 00006770 ??4CModelInstanceSerial@@QAEAAV0@ABV0@@Z
        794  319 0001F880 ??4CModelObject@@QAEAAV0@ABV0@@Z
        795  31A 00005B10 ??4CModelPatch@@QAEAAV0@ABV0@@Z
        796  31B 000973F0 ??4CModelRenderPrefs@@QAEAAV0@ABV0@@Z
        797  31C 00097260 ??4CMovableBrushEntity@@QAEAAV0@AAV0@@Z
        798  31D 00096E20 ??4CMovableEntity@@QAEAAV0@AAV0@@Z
        799  31E 00097230 ??4CMovableModelEntity@@QAEAAV0@AAV0@@Z
        800  31F 000C2990 ??4CMovingSphere@@QAEAAV0@ABV0@@Z
        801  320 000FA500 ??4CNetworkMessage@@QAEXABV0@@Z
        802  321 00005570 ??4CNetworkProvider@@QAEAAV0@ABV0@@Z
        803  322 00005770 ??4CNetworkSession@@QAEAAV0@ABV0@@Z
        804  323 00038F50 ??4CObject3D@@QAEAAV0@AAV0@@Z
        805  324 00039EE0 ??4CObjectPolygon@@QAEAAV0@AAV0@@Z
        806  325 00038730 ??4CObjectPolygonEdge@@QAEAAV0@ABV0@@Z
        807  326 00041D60 ??4CObjectSector@@QAEAAV0@AAV0@@Z
        808  327 00108400 ??4COneLensFlare@@QAEAAV0@ABV0@@Z
        809  328 0017B260 ??4CPDBlob@@QAEAAV0@ABV0@@Z
        810  329 0017ACB0 ??4CPDBox@@QAEAAV0@ABV0@@Z
        811  32A 0017B100 ??4CPDCone@@QAEAAV0@ABV0@@Z
        812  32B 0017AF50 ??4CPDCylinder@@QAEAAV0@ABV0@@Z
        813  32C 0017AB40 ??4CPDDisc@@QAEAAV0@ABV0@@Z
        814  32D 0017A700 ??4CPDLine@@QAEAAV0@ABV0@@Z
        815  32E 0017A9E0 ??4CPDPlane@@QAEAAV0@ABV0@@Z
        816  32F 0017A5F0 ??4CPDPoint@@QAEAAV0@ABV0@@Z
        817  330 0017B3F0 ??4CPDRectangle@@QAEAAV0@ABV0@@Z
        818  331 0017ADE0 ??4CPDSphere@@QAEAAV0@ABV0@@Z
        819  332 0017A870 ??4CPDTriangle@@QAEAAV0@ABV0@@Z
        820  333 0017A510 ??4CPDomain@@QAEAAV0@ABV0@@Z
        821  334 00180B10 ??4CPGroup@@QAEAAV0@ABV0@@Z
        822  335 00002B90 ??4CParallelProjection3D@@QAEAAV0@ABV0@@Z
        823  336 0017A440 ??4CParticle@@QAEAAV0@ABV0@@Z
        824  337 0018B6D0 ??4CParticleFX@@QAEAAV0@ABV0@@Z
        825  338 00002A20 ??4CPerspectiveProjection3D@@QAEAAV0@ABV0@@Z
        826  339 00002440 ??4CPlacement3D@@QAEAAV0@ABV0@@Z
        827  33A 00005280 ??4CPlayerAction@@QAEAAV0@ABV0@@Z
        828  33B 001298A0 ??4CPlayerCharacter@@QAEAAV0@ABV0@@Z
        829  33C 00097280 ??4CPlayerEntity@@QAEAAV0@AAV0@@Z
        830  33D 000E6050 ??4CPlayerSource@@QAEAAV0@ABV0@@Z
        831  33E 00097430 ??4CProgressRoutines@@QAEAAV0@ABV0@@Z
        832  33F 00002730 ??4CProjection3D@@QAEAAV0@ABV0@@Z
        833  340 0000EDD0 ??4CRationalEntity@@QAEAAV0@AAV0@@Z
        834  341 00097410 ??4CRenderModel@@QAEAAV0@ABV0@@Z
        835  342 00001C90 ??4CSerial@@QAEAAV0@ABV0@@Z
        836  343 00096D20 ??4CServer@@QAEAAV0@ABV0@@Z
        837  344 00096250 ??4CSessionState@@QAEAAV0@ABV0@@Z
        838  345 000374A0 ??4CSetFPUPrecision@@QAEAAV0@ABV0@@Z
        839  346 0000EFD0 ??4CShader@@QAEAAV0@ABV0@@Z
        840  347 000E61D0 ??4CShadingInfo@@QAEAAV0@ABV0@@Z
        841  348 00003510 ??4CShadowMap@@QAEAAV0@ABV0@@Z
        842  349 000016D0 ??4CShell@@QAEAAV0@AAV0@@Z
        843  34A 00002C40 ??4CSimpleProjection3D@@QAEAAV0@ABV0@@Z
        844  34B 000387B0 ??4CSimpleProjection3D_DOUBLE@@QAEAAV0@ABV0@@Z
        845  34C 00010A70 ??4CSkeleton@@QAEAAV0@ABV0@@Z
        846  34D 0000F060 ??4CSmallScriptShader@@QAEAAV0@ABV0@@Z
        847  34E 00005920 ??4CSoundData@@QAEAAV0@ABV0@@Z
        848  34F 0001FBF0 ??4CSoundObject@@QAEAAV0@ABV0@@Z
        849  350 0008E710 ??4CSurfaceType@@QAEAAV0@ABV0@@Z
        850  351 00001820 ??4CTFileName@@QAEAAV0@ABV0@@Z
        851  352 00017AF0 ??4CTFileName@@QAEAAV0@PBD@Z
        852  353 000017A0 ??4CTFileName@@QAEXABVCTString@@@Z
        853  354 00001130 ??4CTString@@QAEAAV0@ABV0@@Z
        854  355 00001100 ??4CTString@@QAEAAV0@PBD@Z
        855  356 00015FB0 ??4CTWString@@QAEAAV0@ABV0@@Z
        856  357 00016010 ??4CTWString@@QAEAAV0@PBD@Z
        857  358 00015FE0 ??4CTWString@@QAEAAV0@PBG@Z
        858  359 0005DFD0 ??4CTerrain@@QAEAAV0@ABV0@@Z
        859  35A 000BE340 ??4CTerrainArchive@@QAEAAV0@AAV0@@Z
        860  35B 0016B5B0 ??4CTerrainLayer@@QAEAAV0@ABV0@@Z
        861  35C 0008E620 ??4CTextureBlending@@QAEAAV0@ABV0@@Z
        862  35D 0000ADE0 ??4CTextureData@@QAEAAV0@ABV0@@Z
        863  35E 00097570 ??4CTextureDataInfo@@QAEAAV0@ABV0@@Z
        864  35F 00003410 ??4CTextureObject@@QAEAAV0@ABV0@@Z
        865  360 0008E5A0 ??4CTextureTransformation@@QAEAAV0@ABV0@@Z
        866  361 00097980 ??4CThumbnailSettings@@QAEAAV0@ABV0@@Z
        867  362 000013F0 ??4CTimer@@QAEAAV0@ABV0@@Z
        868  363 00016220 ??4CUpdateable@@QAEAAV0@ABV0@@Z
        869  364 00016230 ??4CUpdateableRT@@QAEAAV0@ABV0@@Z
        870  365 0001CB20 ??4CViewPort@@QAEAAV0@AAV0@@Z
        871  366 000BEA70 ??4CWorldRenderPrefs@@QAEAAV0@ABV0@@Z
        872  367 00037430 ??4CubicSpline@@QAEAAV0@ABV0@@Z
        873  368 00004340 ??4EBegin@@QAEAAV0@ABV0@@Z
        874  369 0000D300 ??4EBlock@@QAEAAV0@ABV0@@Z
        875  36A 000049C0 ??4EComboFall@@QAEAAV0@ABV0@@Z
        876  36B 0000D510 ??4EDamage@@QAEAAV0@ABV0@@Z
        877  36C 0000D710 ??4EDeath@@QAEAAV0@ABV0@@Z
        878  36D 000048C0 ??4EFirstWorldBase@@QAEAAV0@ABV0@@Z
        879  36E 000040A0 ??4EInternal@@QAEAAV0@ABV0@@Z
        880  36F 0000D100 ??4EPass@@QAEAAV0@ABV0@@Z
        881  370 00004BD0 ??4EPlayerInit@@QAEAAV0@ABV0@@Z
        882  371 000047D0 ??4EPostLevelChange@@QAEAAV0@ABV0@@Z
        883  372 000046D0 ??4EPreLevelChange@@QAEAAV0@ABV0@@Z
        884  373 00004260 ??4EReturn@@QAEAAV0@ABV0@@Z
        885  374 00004AC0 ??4ETakingBreath@@QAEAAV0@ABV0@@Z
        886  375 000045E0 ??4ETeleport@@QAEAAV0@ABV0@@Z
        887  376 00004420 ??4ETimer@@QAEAAV0@ABV0@@Z
        888  377 0000CF30 ??4ETouch@@QAEAAV0@ABV0@@Z
        889  378 00004180 ??4EVoid@@QAEAAV0@ABV0@@Z
        890  379 00004500 ??4EWouldFall@@QAEAAV0@ABV0@@Z
        891  37A 0000EE20 ??4MappingSurface@@QAEAAU0@ABU0@@Z
        892  37B 0014E130 ??4MeshLOD@@QAEXABU0@@Z
        893  37C 0000F1B0 ??4MeshMorphMap@@QAEAAU0@ABU0@@Z
        894  37D 000064A0 ??4MeshNormal@@QAEAAU0@ABU0@@Z
        895  37E 0014C370 ??4MeshSurface@@QAEXABU0@@Z
        896  37F 000064E0 ??4MeshTexCoord@@QAEAAU0@ABU0@@Z
        897  380 00006500 ??4MeshTriangle@@QAEAAU0@ABU0@@Z
        898  381 0000F160 ??4MeshUVMap@@QAEAAU0@ABU0@@Z
        899  382 00006480 ??4MeshVertex@@QAEAAU0@ABU0@@Z
        900  383 00006540 ??4MeshVertexMorph@@QAEAAU0@ABU0@@Z
        901  384 00006520 ??4MeshVertexWeight@@QAEAAU0@ABU0@@Z
        902  385 000064C0 ??4MeshVertexWeightInfo@@QAEAAU0@ABU0@@Z
        903  386 0000F190 ??4MeshWeightMap@@QAEAAU0@ABU0@@Z
        904  387 00005BA0 ??4ModelFrameInfo@@QAEAAU0@ABU0@@Z
        905  388 00005B80 ??4ModelFrameVertex16@@QAEAAU0@ABU0@@Z
        906  389 00005B60 ??4ModelFrameVertex16_old@@QAEAAU0@ABU0@@Z
        907  38A 00005B50 ??4ModelFrameVertex8@@QAEAAU0@ABU0@@Z
        908  38B 000109D0 ??4ModelMipInfo@@QAEAAU0@ABU0@@Z
        909  38C 0000F870 ??4ModelPolygon@@QAEAAU0@ABU0@@Z
        910  38D 00005BE0 ??4ModelPolygonVertex@@QAEAAU0@ABU0@@Z
        911  38E 00005BC0 ??4ModelTextureVertex@@QAEAAU0@ABU0@@Z
        912  38F 0000EF50 ??4PolygonsPerPatch@@QAEAAU0@ABU0@@Z
        913  390 000065F0 ??4SkeletonBone@@QAEAAU0@ABU0@@Z
        914  391 0000FF00 ??4SkeletonLOD@@QAEAAU0@ABU0@@Z
        915  392 00005C00 ??4TransformedVertexData@@QAEAAU0@ABU0@@Z
        916  393 0004BB70 ??5@YAAAVCTStream@@AAV0@AAVCMappingDefinition@@@Z
        917  394 00044350 ??5@YAAAVCTStream@@AAV0@AAVCPlacement3D@@@Z
        918  395 00129AB0 ??5@YAAAVCTStream@@AAV0@AAVCPlayerCharacter@@@Z
        919  396 00017EC0 ??5@YAAAVCTStream@@AAV0@AAVCTFileName@@@Z
        920  397 000154C2 ??5@YAAAVCTStream@@AAV0@AAVCTString@@@Z
        921  398 0000B390 ??5CNetworkMessage@@QAEAAV0@AAC@Z
        922  399 0000B330 ??5CNetworkMessage@@QAEAAV0@AAE@Z
        923  39A 0000B370 ??5CNetworkMessage@@QAEAAV0@AAF@Z
        924  39B 0000B310 ??5CNetworkMessage@@QAEAAV0@AAG@Z
        925  39C 0000B350 ??5CNetworkMessage@@QAEAAV0@AAJ@Z
        926  39D 0000B2F0 ??5CNetworkMessage@@QAEAAV0@AAK@Z
        927  39E 0000B2B0 ??5CNetworkMessage@@QAEAAV0@AAM@Z
        928  39F 0000B2D0 ??5CNetworkMessage@@QAEAAV0@AAN@Z
        929  3A0 000FA690 ??5CNetworkMessage@@QAEAAV0@AAVCTString@@@Z
        930  3A1 0000B3B0 ??5CNetworkMessage@@QAEAAV0@AAW4NetworkMessageType@@@Z
        931  3A2 0000A8E0 ??5CTStream@@QAEAAV0@AAC@Z
        932  3A3 0000A880 ??5CTStream@@QAEAAV0@AAE@Z
        933  3A4 0000A8C0 ??5CTStream@@QAEAAV0@AAF@Z
        934  3A5 0000A860 ??5CTStream@@QAEAAV0@AAG@Z
        935  3A6 0000A900 ??5CTStream@@QAEAAV0@AAH@Z
        936  3A7 0000A8A0 ??5CTStream@@QAEAAV0@AAJ@Z
        937  3A8 0000A840 ??5CTStream@@QAEAAV0@AAK@Z
        938  3A9 0000A800 ??5CTStream@@QAEAAV0@AAM@Z
        939  3AA 0000A820 ??5CTStream@@QAEAAV0@AAN@Z
        940  3AB 00129A90 ??6@YAAAVCTStream@@AAV0@AAVCPlayerCharacter@@@Z
        941  3AC 0004BB90 ??6@YAAAVCTStream@@AAV0@ABVCMappingDefinition@@@Z
        942  3AD 00044370 ??6@YAAAVCTStream@@AAV0@ABVCPlacement3D@@@Z
        943  3AE 000182F0 ??6@YAAAVCTStream@@AAV0@ABVCTFileName@@@Z
        944  3AF 000155A2 ??6@YAAAVCTStream@@AAV0@ABVCTString@@@Z
        945  3B0 0000B4B0 ??6CNetworkMessage@@QAEAAV0@ABC@Z
        946  3B1 0000B450 ??6CNetworkMessage@@QAEAAV0@ABE@Z
        947  3B2 0000B490 ??6CNetworkMessage@@QAEAAV0@ABF@Z
        948  3B3 0000B430 ??6CNetworkMessage@@QAEAAV0@ABG@Z
        949  3B4 0000B470 ??6CNetworkMessage@@QAEAAV0@ABJ@Z
        950  3B5 0000B410 ??6CNetworkMessage@@QAEAAV0@ABK@Z
        951  3B6 0000B3D0 ??6CNetworkMessage@@QAEAAV0@ABM@Z
        952  3B7 0000B3F0 ??6CNetworkMessage@@QAEAAV0@ABN@Z
        953  3B8 000FA750 ??6CNetworkMessage@@QAEAAV0@ABVCTString@@@Z
        954  3B9 0000B4D0 ??6CNetworkMessage@@QAEAAV0@ABW4NetworkMessageType@@@Z
        955  3BA 0000AA00 ??6CTStream@@QAEAAV0@ABC@Z
        956  3BB 0000A9A0 ??6CTStream@@QAEAAV0@ABE@Z
        957  3BC 0000A9E0 ??6CTStream@@QAEAAV0@ABF@Z
        958  3BD 0000A980 ??6CTStream@@QAEAAV0@ABG@Z
        959  3BE 0000AA20 ??6CTStream@@QAEAAV0@ABH@Z
        960  3BF 0000A9C0 ??6CTStream@@QAEAAV0@ABJ@Z
        961  3C0 0000A960 ??6CTStream@@QAEAAV0@ABK@Z
        962  3C1 0000A920 ??6CTStream@@QAEAAV0@ABM@Z
        963  3C2 0000A940 ??6CTStream@@QAEAAV0@ABN@Z
        964  3C3 00014610 ??8@YAHPBDABVCTString@@@Z
        965  3C4 00002120 ??8CChunkID@@QBEHABV0@@Z
        966  3C5 0000AB80 ??8CPlacement3D@@QBEHABV0@@Z
        967  3C6 00129920 ??8CPlayerCharacter@@QBEHABV0@@Z
        968  3C7 000145D0 ??8CTString@@QBEHABV0@@Z
        969  3C8 000145F0 ??8CTString@@QBEHPBD@Z
        970  3C9 00016040 ??8CTWString@@QBEHABV0@@Z
        971  3CA 00016060 ??8CTWString@@QBEHPBG@Z
        972  3CB 000A3D20 ??8MappingSurface@@QBEHABU0@@Z
        973  3CC 00014660 ??9@YAHPBDABVCTString@@@Z
        974  3CD 00038200 ??9@YAXAAV?$Matrix@N$02$02@@ABV?$Vector@M$02@@@Z
        975  3CE 00002130 ??9CChunkID@@QBEHABV0@@Z
        976  3CF 00014620 ??9CTString@@QBEHABV0@@Z
        977  3D0 00014640 ??9CTString@@QBEHPBD@Z
        978  3D1 00016080 ??9CTWString@@QBEHABV0@@Z
        979  3D2 000160A0 ??9CTWString@@QBEHPBG@Z
        980  3D3 00002F90 ??BCAnyProjection3D@@QAEPAVCProjection3D@@XZ
        981  3D4 000020D0 ??BCChunkID@@QAEPADXZ
        982  3D5 000020C0 ??BCChunkID@@QBEPBDXZ
        983  3D6 00118680 ??BCEntityID@@QBEPAVCEntity@@XZ
        984  3D7 000010F0 ??BCTString@@QBEPBDXZ
        985  3D8 00015DA0 ??BCTWString@@QBEPBGXZ
        986  3D9 00002F80 ??CCAnyProjection3D@@QAEPAVCProjection3D@@XZ
        987  3DA 00118670 ??CCEntityID@@QAEPAVCEntity@@XZ
        988  3DB 00118690 ??DCEntityID@@QAEAAVCEntity@@XZ
        989  3DC 00015192 ??H@YA?AVCTString@@PBDABV0@@Z
        990  3DD 00015102 ??HCTString@@QBE?AV0@ABV0@@Z
        991  3DE 00016110 ??HCTWString@@QBE?AV0@ABV0@@Z
        992  3DF 00014680 ??YCTString@@QAEAAV0@ABV0@@Z
        993  3E0 000160C0 ??YCTWString@@QAEAAV0@ABV0@@Z
        994  3E1 00038030 ??_6@YAXAAV?$Matrix@N$02$02@@ABV?$Vector@M$02@@@Z
        995  3E2 000383D0 ??_6@YAXAAV?$Vector@M$02@@ABV?$Matrix@N$02$02@@@Z
        996  3E3 0020BF44 ??_7CAnimSet@@6B@
        997  3E4 0020BAB0 ??_7CBrush3D@@6B@
        998  3E5 0020D058 ??_7CBrushArchive@@6B@
        999  3E6 0020B868 ??_7CBrushBase@@6B@
       1000  3E7 0020B870 ??_7CBrushShadowMap@@6B@
       1001  3E8 0020E0B8 ??_7CCmd@@6B@
       1002  3E9 0020E178 ??_7CCmdAvoid@@6B@
       1003  3EA 0020E188 ??_7CCmdBounce@@6B@
       1004  3EB 0020E0D8 ??_7CCmdColor@@6B@
       1005  3EC 0020E0E8 ??_7CCmdColorDomain@@6B@
       1006  3ED 0020E198 ??_7CCmdCopyVertexB@@6B@
       1007  3EE 0020E1A8 ??_7CCmdDamping@@6B@
       1008  3EF 0020E1B8 ??_7CCmdExplosion@@6B@
       1009  3F0 0020E1C8 ??_7CCmdFollow@@6B@
       1010  3F1 0020E1D8 ??_7CCmdGravitate@@6B@
       1011  3F2 0020E1E8 ??_7CCmdGravity@@6B@
       1012  3F3 0020E1F8 ??_7CCmdJet@@6B@
       1013  3F4 0020E208 ??_7CCmdKillOld@@6B@
       1014  3F5 0020E218 ??_7CCmdMatchVelocity@@6B@
       1015  3F6 0020E0C8 ??_7CCmdMaxParticles@@6B@
       1016  3F7 0020E228 ??_7CCmdMove@@6B@
       1017  3F8 0020E238 ??_7CCmdOrbitLine@@6B@
       1018  3F9 0020E248 ??_7CCmdOrbitPoint@@6B@
       1019  3FA 0020E258 ??_7CCmdRandomAccel@@6B@
       1020  3FB 0020E268 ??_7CCmdRandomDisplace@@6B@
       1021  3FC 0020E278 ??_7CCmdRandomVelocity@@6B@
       1022  3FD 0020E2A8 ??_7CCmdRestore@@6B@
       1023  3FE 0020E298 ??_7CCmdSink@@6B@
       1024  3FF 0020E2B8 ??_7CCmdSinkVelocity@@6B@
       1025  400 0020E118 ??_7CCmdSize@@6B@
       1026  401 0020E128 ??_7CCmdSizeDomain@@6B@
       1027  402 0020E288 ??_7CCmdSource@@6B@
       1028  403 0020E2C8 ??_7CCmdSpeedLimit@@6B@
       1029  404 0020E158 ??_7CCmdStartingAge@@6B@
       1030  405 0020E2D8 ??_7CCmdTargetColor@@6B@
       1031  406 0020E2E8 ??_7CCmdTargetSize@@6B@
       1032  407 0020E2F8 ??_7CCmdTargetVelocity@@6B@
       1033  408 0020E168 ??_7CCmdTimeStep@@6B@
       1034  409 0020E0F8 ??_7CCmdVelocity@@6B@
       1035  40A 0020E108 ??_7CCmdVelocityDomain@@6B@
       1036  40B 0020E138 ??_7CCmdVertexB@@6B@
       1037  40C 0020E148 ??_7CCmdVertexBDomain@@6B@
       1038  40D 0020E308 ??_7CCmdVortex@@6B@
       1039  40E 0020BF3C ??_7CDVBlendShader@@6B@
       1040  40F 0020BF34 ??_7CDVScrollShader@@6B@
       1041  410 0020BF2C ??_7CDVWorldShader@@6B@
       1042  411 0020CF50 ??_7CEditModel@@6B@
       1043  412 0020BABC ??_7CEntity@@6B@
       1044  413 0020B9E4 ??_7CEntityClass@@6B@
       1045  414 0020B88C ??_7CEntityEvent@@6B@
       1046  415 0020B670 ??_7CFontData@@6B@
       1047  416 0020B734 ??_7CIsometricProjection3D@@6B@
       1048  417 0020BBC4 ??_7CLiveEntity@@6B@
       1049  418 0020BEE4 ??_7CMesh@@6B@
       1050  419 0020CF94 ??_7CModelData@@6B@
       1051  41A 0020BA08 ??_7CModelInstanceSerial@@6B@
       1052  41B 0020CB0C ??_7CMovableBrushEntity@@6B@
       1053  41C 0020CE04 ??_7CMovableEntity@@6B@
       1054  41D 0020C9C4 ??_7CMovableModelEntity@@6B@
       1055  41E 0020E48C ??_7CPDBlob@@6B@
       1056  41F 0020E3FC ??_7CPDBox@@6B@
       1057  420 0020E468 ??_7CPDCone@@6B@
       1058  421 0020E444 ??_7CPDCylinder@@6B@
       1059  422 0020E3D8 ??_7CPDDisc@@6B@
       1060  423 0020E36C ??_7CPDLine@@6B@
       1061  424 0020E3B4 ??_7CPDPlane@@6B@
       1062  425 0020E348 ??_7CPDPoint@@6B@
       1063  426 0020E4B0 ??_7CPDRectangle@@6B@
       1064  427 0020E420 ??_7CPDSphere@@6B@
       1065  428 0020E390 ??_7CPDTriangle@@6B@
       1066  429 0020E324 ??_7CPDomain@@6B@
       1067  42A 0020E550 ??_7CPGroup@@6B@
       1068  42B 0020B784 ??_7CParallelProjection3D@@6B@
       1069  42C 0020B6E4 ??_7CPerspectiveProjection3D@@6B@
       1070  42D 0020CC6C ??_7CPlayerEntity@@6B@
       1071  42E 0020B694 ??_7CProjection3D@@6B@
       1072  42F 0020BD5C ??_7CRationalEntity@@6B@
       1073  430 0020B64C ??_7CSerial@@6B@
       1074  431 0020BE74 ??_7CShader@@6B@
       1075  432 0020B84C ??_7CShadowMap@@6B@
       1076  433 0020B7D4 ??_7CSimpleProjection3D@@6B@
       1077  434 0020BF08 ??_7CSkeleton@@6B@
       1078  435 0020BEAC ??_7CSmallScriptShader@@6B@
       1079  436 0020B9C0 ??_7CSoundData@@6B@
       1080  437 0020BA50 ??_7CTFileStream@@6B@
       1081  438 0020BA6C ??_7CTMemoryStream@@6B@
       1082  439 0020BA34 ??_7CTStream@@6B@
       1083  43A 0020C360 ??_7CTerrain@@6B@
       1084  43B 0020D07C ??_7CTerrainArchive@@6B@
       1085  43C 0020BA88 ??_7CTextureData@@6B@
       1086  43D 0020B8DC ??_7EBegin@@6B@
       1087  43E 0020BD20 ??_7EBlock@@6B@
       1088  43F 0020B968 ??_7EComboFall@@6B@
       1089  440 0020BD34 ??_7EDamage@@6B@
       1090  441 0020BD48 ??_7EDeath@@6B@
       1091  442 0020B954 ??_7EFirstWorldBase@@6B@
       1092  443 0020B8A0 ??_7EInternal@@6B@
       1093  444 0020BD0C ??_7EPass@@6B@
       1094  445 0020B990 ??_7EPlayerInit@@6B@
       1095  446 0020B940 ??_7EPostLevelChange@@6B@
       1096  447 0020B92C ??_7EPreLevelChange@@6B@
       1097  448 0020B8C8 ??_7EReturn@@6B@
       1098  449 0020B97C ??_7ETakingBreath@@6B@
       1099  44A 0020B918 ??_7ETeleport@@6B@
       1100  44B 0020B8F0 ??_7ETimer@@6B@
       1101  44C 0020BCF8 ??_7ETouch@@6B@
       1102  44D 0020B8B4 ??_7EVoid@@6B@
       1103  44E 0020B904 ??_7EWouldFall@@6B@
       1104  44F 0000A7E0 ??_FCChunkID@@QAEXXZ
       1105  450 00045020 ??_FCIntersector@@QAEXXZ
       1106  451 00001450 ??_FCTimer@@QAEXXZ
       1107  452 00044A80 ?AbsoluteToRelative@CPlacement3D@@QAEXABV1@@Z
       1108  453 00044B30 ?AbsoluteToRelativeSmooth@CPlacement3D@@QAEXABV1@@Z
       1109  454 00098CE0 ?ActivateNextCollisionBox@CEditModel@@QAEXXZ
       1110  455 00098CD0 ?ActivatePreviousCollisionBox@CEditModel@@QAEXXZ
       1111  456 000FE7D0 ?ActiveRemoteSessions@CServer@@QAEJXZ
       1112  457 0001CCE0 ?AddAfter@CListNode@@QAEXAAV1@@Z
       1113  458 000CFD70 ?AddAllSectorsOfBrush@CCastRay@@QAEXPAVCBrush3D@@@Z
       1114  459 00077290 ?AddAlphaChannel@@YAXPAEPAKJ0@Z
       1115  45A 001536F0 ?AddAnimSet_t@CModelInstance@@QAEXABVCTFileName@@@Z
       1116  45B 00011430 ?AddAnimation@CAnimData@@QAEXXZ
       1117  45C 001482E0 ?AddAnimation@CAnimSet@@QAEXPAUAnimation@@@Z
       1118  45D 00118CD0 ?AddAnimation@CEntity@@QAEXJKMJJM@Z
       1119  45E 00154140 ?AddAnimation@CModelInstance@@QAEXJKMJMM@Z
       1120  45F 00118E20 ?AddAnimationBoth@CEntity@@QAEXJJKMJJM@Z
       1121  460 00118F70 ?AddAnimationNew@CEntity@@QAEXJKMJMJ@Z
       1122  461 0011AF60 ?AddAttachment@CEntity@@QAEXJKK@Z
       1123  462 00119730 ?AddAttachment@CEntity@@QAEXJVCTFileName@@0@Z
       1124  463 000A7920 ?AddAttachmentModel@CModelObject@@QAEPAVCAttachmentModelObject@@J@Z
       1125  464 000EC450 ?AddBandwidthGraphValue@CNetworkLibrary@@QAEXK@Z
       1126  465 0001CD00 ?AddBefore@CListNode@@QAEXAAV1@@Z
       1127  466 001536C0 ?AddChild@CModelInstance@@QAEXPAV1@J@Z
       1128  467 0017CBB0 ?AddCmd@CEffect@@QAEXPAVCCmd@@@Z
       1129  468 00152870 ?AddColisionBox@CModelInstance@@QAEXVCTString@@V?$Vector@M$02@@1@Z
       1130  469 0009C770 ?AddCollisionBox@CEditModel@@QAEXXZ
       1131  46A 000500D0 ?AddColors@@YAKKK@Z
       1132  46B 0001C030 ?AddDevice@CInput@@QAEHW4DeviceType@@J@Z
       1133  46C 00045030 ?AddEdge@CIntersector@@QAEXMMMM@Z
       1134  46D 0008B820 ?AddEffectSource@CTextureEffectGlobal@@QAEXKJJJJ@Z
       1135  46E 000C9390 ?AddEntityToCollisionGrid@CWorld@@QAEXPAVCEntity@@ABV?$AABBox@M$02@@@Z
       1136  46F 0006A790 ?AddExtension_OGL@CGfxLibrary@@AAEXKPBD@Z
       1137  470 0005DF40 ?AddFlag@CTerrain@@QAEXK@Z
       1138  471 00152FE0 ?AddFlagsToPlayingAnim@CModelInstance@@QAEHJK@Z
       1139  472 00084150 ?AddFrame_t@CTextureData@@QAEXPBVCImageInfo@@@Z
       1140  473 0012D810 ?AddFromObject3D_t@CBrushMip@@QAEPAVCBrushSector@@AAVCObject3D@@@Z
       1141  474 0002FBE0 ?AddHandler@CTimer@@QAEXPAVCTimerHandler@@@Z
       1142  475 0001CC10 ?AddHead@CListHead@@QAEXAAVCListNode@@@Z
       1143  476 0013C720 ?AddLayer@CLightSource@@QAEXAAVCBrushPolygon@@@Z
       1144  477 00150100 ?AddMeshLod@CMesh@@QAEXAAUMeshLOD@@@Z
       1145  478 00153760 ?AddMesh_t@CModelInstance@@QAEXABVCTFileName@@@Z
       1146  479 0012D8E0 ?AddMipBrushFromObject3D_t@CBrush3D@@QAEXAAVCObject3D@@M@Z
       1147  47A 00099F00 ?AddMipModel@CEditModel@@AAEXPAVCObject3D@@@Z
       1148  47B 000EC370 ?AddNetGraphValue@CNetworkLibrary@@QAEXW4NetGraphEntryType@@M@Z
       1149  47C 000BEAD0 ?AddObjectToBrush@CWorld@@QAEXAAVCObject3D@@AAVCEntity@@@Z
       1150  47D 001946C0 ?AddParticle@CPGroup@@QAEXABVCParticle@@@Z
       1151  47E 001040D0 ?AddPlayer@CSessionState@@QAEXJAAVCPlayerCharacter@@AAK111J@Z
       1152  47F 000FF5D0 ?AddPlayerUpdate@CServer@@QAEHJAAV?$Vector@M$02@@H@Z
       1153  480 000EC220 ?AddPlayer_t@CNetworkLibrary@@QAEPAVCPlayerSource@@AAVCPlayerCharacter@@@Z
       1154  481 00128DA0 ?AddPosition@CLastPositions@@QAEXABV?$Vector@M$02@@@Z
       1155  482 00004F80 ?AddReference@CEntity@@QAEXXZ
       1156  483 00124F20 ?AddReference@CEntityClass@@QAEXXZ
       1157  484 0008CCA0 ?AddReference@CSoundData@@QAEXXZ
       1158  485 0001F570 ?AddRelationPair@@YAXAAVCRelationSrc@@AAVCRelationDst@@@Z
       1159  486 0001F610 ?AddRelationPairHeadHead@@YAXAAVCRelationSrc@@AAVCRelationDst@@@Z
       1160  487 0001F5C0 ?AddRelationPairTailTail@@YAXAAVCRelationSrc@@AAVCRelationDst@@@Z
       1161  488 000D1160 ?AddSector@CCastRay@@QAEXPAVCBrushSector@@@Z
       1162  489 000CFE00 ?AddSectorsAroundEntity@CCastRay@@QAEXPAVCEntity@@@Z
       1163  48A 001527D0 ?AddSimpleShadow@CModelInstance@@QAEXMABV?$Plane@M$02@@@Z
       1164  48B 000ACF20 ?AddSimpleShadow@CModelObject@@QAEXAAVCRenderModel@@MABV?$Plane@M$02@@@Z
       1165  48C 000B4B50 ?AddSimpleShadow_View@CModelObject@@AAEXAAVCRenderModel@@MABV?$Plane@M$02@@@Z
       1166  48D 00151F20 ?AddSkeleton_t@CModelInstance@@QAEXABVCTFileName@@@Z
       1167  48E 00166BA0 ?AddSkletonLod@CSkeleton@@QAEXAAUSkeletonLOD@@@Z
       1168  48F 0001CC30 ?AddTail@CListHead@@QAEXAAVCListNode@@@Z
       1169  490 00056230 ?AddTexture@CDrawPort@@QBEXMMMMK@Z
       1170  491 00056AC0 ?AddTexture@CDrawPort@@QBEXMMMMKMMMMKMMMMKMMMMK@Z
       1171  492 000566B0 ?AddTexture@CDrawPort@@QBEXMMMMMMMMK@Z
       1172  493 00056460 ?AddTextureAtZ@CDrawPort@@QBEXMMMMMMMMMK@Z
       1173  494 00097AC0 ?AddTexture_t@CEditModel@@QAEPAVCTextureDataInfo@@ABVCTFileName@@JJ@Z
       1174  495 001534D0 ?AddTexture_t@CModelInstance@@QAEXABVCTFileName@@JPAUMeshInstance@@@Z
       1175  496 00153550 ?AddTexture_t@CModelInstance@@QAEXABVCTFileName@@VCTString@@PAUMeshInstance@@@Z
       1176  497 000B91B0 ?AddTimer@CWorld@@QAEXPAVCRationalEntity@@@Z
       1177  498 00125CB0 ?AddToCRCTable@CEntityClass@@UAEXXZ
       1178  499 00127BF0 ?AddToCRCTable@CEntityComponent@@QAEXXZ
       1179  49A 00023CE0 ?AddToCRCTable@CSerial@@UAEXXZ
       1180  49B 00196440 ?AddToMovers@CMovableEntity@@QAEXXZ
       1181  49C 001964B0 ?AddToMoversDuringMoving@CMovableEntity@@QAEXXZ
       1182  49D 0008F480 ?AddToPendingList@CSoundLibrary@@QAEXAAVCSoundObject@@@Z
       1183  49E 00030A10 ?AddTranslationTable_t@@YAXABVCTFileName@@@Z
       1184  49F 00030A30 ?AddTranslationTablesDir_t@@YAXABVCTFileName@@0@Z
       1185  4A0 000568F0 ?AddTriangle@CDrawPort@@QBEXMMMMMMK@Z
       1186  4A1 00056D40 ?AddWaveGrid@CDrawPort@@QAEXHHMMK@Z
       1187  4A2 000F1B90 ?AddressToString@@YA?AVCTString@@K@Z
       1188  4A3 00077BA0 ?AdjustBitmapColor@@YAXPAK0JJJJ@Z
       1189  4A4 00119950 ?AdjustBones@CEntity@@UAEXXZ
       1190  4A5 00050550 ?AdjustColor@@YAKKJJ@Z
       1191  4A6 00199B50 ?AdjustDeadReckoning@CMovableEntity@@QAEXVCPlacement3D@@0M@Z
       1192  4A7 00050650 ?AdjustGamma@@YAKKM@Z
       1193  4A8 000B9210 ?AdjustLateTimers@CWorld@@QAEXM@Z
       1194  4A9 001034E0 ?AdjustLocalTime@CSessionState@@QAEXXZ
       1195  4AA 001188B0 ?AdjustMipFactor@CEntity@@UAEXAAM@Z
       1196  4AB 00119960 ?AdjustShaderParams@CEntity@@UAEXJPAVCShader@@AAUShaderParams@@@Z
       1197  4AC 001188A0 ?AdjustShadingParameters@CEntity@@UAEHAAV?$Vector@M$02@@AAK1@Z
       1198  4AD 0001CFD0 ?AllocMemory@@YAPAXJ@Z
       1199  4AE 0001D060 ?AllocMemoryAligned@@YAPAXJJ@Z
       1200  4AF 0002B100 ?AllocateVirtualMemory@CTStream@@QAEXK@Z
       1201  4B0 00196530 ?AllowForGroundPolygon@CMovableEntity@@UAEHPAVCBrushPolygon@@@Z
       1202  4B1 00037EE0 ?AnglesToDirectionVector@@YAXABV?$Vector@M$02@@AAV1@@Z
       1203  4B2 001A1430 ?ApplyAction@CPlayerEntity@@UAEXABVCPlayerAction@@M@Z
       1204  4B3 000FC920 ?ApplyActionLocally@CPlayerSource@@QAEXABVCPlayerAction@@@Z
       1205  4B4 00199830 ?ApplyDeadReckoning@CMovableEntity@@QAEXXZ
       1206  4B5 000FCA70 ?ApplyNewerActions@CPlayerSource@@QAEXK@Z
       1207  4B6 000A8180 ?ApplySurfaceToPolygon@CModelObject@@QAEXPAVCDrawPort@@PAVCProjection3D@@JJJK@Z
       1208  4B7 000A7590 ?ApplySurfaceToPolygonsInRegion@CModelObject@@QAEXPAVCDrawPort@@PAVCProjection3D@@V?$AABBox@J$01@@JK@Z
       1209  4B8 00038810 ?ArePolygonsPlanar@CObject3D@@QAEHXZ
       1210  4B9 00002D40 ?AspectRatioL@CProjection3D@@QAEAAMXZ
       1211  4BA 00002D50 ?AspectRatioR@CProjection3D@@QBEABMXZ
       1212  4BB 0002A630 ?AtEOF@CTStream@@QAEHXZ
       1213  4BC 00078D50 ?Attach@CImageInfo@@QAEXPAEJJJ@Z
       1214  4BD 000A3F00 ?AutoMipModelingOff@CModelObject@@QAEXXZ
       1215  4BE 000A3EF0 ?AutoMipModelingOn@CModelObject@@QAEXXZ
       1216  4BF 000A8910 ?AutoSetAttachments@CModelObject@@QAEXXZ
       1217  4C0 000A5180 ?AutoSetTextures@CModelObject@@QAEXXZ
       1218  4C1 0018FBE0 ?Avoid@CPGroup@@QAEXPAVCPDomain@@MMM@Z
       1219  4C2 000A3BD0 ?BBoxAllShow@CModelRenderPrefs@@QAEXH@Z
       1220  4C3 000A3BC0 ?BBoxAllVisible@CModelRenderPrefs@@QAEHXZ
       1221  4C4 000A3BB0 ?BBoxFrameShow@CModelRenderPrefs@@QAEXH@Z
       1222  4C5 000A3BA0 ?BBoxFrameVisible@CModelRenderPrefs@@QAEHXZ
       1223  4C6 0003C1B0 ?BatchLoading_t@CObject3D@@SAXH@Z
       1224  4C7 00002EE0 ?BeIsometric@CAnyProjection3D@@QAEXXZ
       1225  4C8 00002F00 ?BeParallel@CAnyProjection3D@@QAEXXZ
       1226  4C9 00002EF0 ?BePerspective@CAnyProjection3D@@QAEXXZ
       1227  4CA 00002ED0 ?BeSimple@CAnyProjection3D@@QAEXXZ
       1228  4CB 00083870 ?BeginAsCurrentRenderTarget@CTextureData@@QAEXII@Z
       1229  4CC 000AB880 ?BeginModelRenderingMask@@YAXAAVCAnyProjection3D@@PAEJJ@Z
       1230  4CD 000AC030 ?BeginModelRenderingView@@YAXAAVCAnyProjection3D@@PAVCDrawPort@@@Z
       1231  4CE 0004E9A0 ?Benchmark@CGfxLibrary@@QAEXPAVCViewPort@@PAVCDrawPort@@@Z
       1232  4CF 000F3160 ?Bind_t@CCommunicationInterface@@QAEXKK@Z
       1233  4D0 000571A0 ?BlendScreen@CDrawPort@@QAEXXZ
       1234  4D1 00192100 ?Bounce@CPGroup@@QAEXPAVCPDomain@@MMM@Z
       1235  4D2 000F2160 ?Broadcast_Receive@CCommunicationInterface@@QAEHPAXAAJAAVCAddress@@@Z
       1236  4D3 000F20D0 ?Broadcast_Send@CCommunicationInterface@@QAEXPBXJAAVCAddress@@@Z
       1237  4D4 000F21E0 ?Broadcast_Update_t@CCommunicationInterface@@QAEXXZ
       1238  4D5 00016600 ?CON_DiscardLastLineTimes@@YAXXZ
       1239  4D6 00016610 ?CON_GetBuffer@@YAPBDXZ
       1240  4D7 00016630 ?CON_GetBufferSize@@YAJXZ
       1241  4D8 000165C0 ?CON_GetLastLine@@YA?AVCTString@@J@Z
       1242  4D9 00016940 ?CON_NumberOfLinesAfter@@YAJM@Z
       1243  4DA 000168A0 ?CPrintF@@YAXPBDZZ
       1244  4DB 000165B0 ?CPrintFD@@YAXPBD0ZZ
       1245  4DC 000165A0 ?CPrintFD@@YAXPBDZZ
       1246  4DD 00016920 ?CPutString@@YAXPBD@Z
       1247  4DE 000C04A0 ?CSGAdd@CWorld@@QAEXAAVCEntity@@AAV1@0ABVCPlacement3D@@@Z
       1248  4DF 0003B5D0 ?CSGAddMaterial@CObject3D@@QAEXAAV1@0@Z
       1249  4E0 0003B650 ?CSGAddMaterialReverse@CObject3D@@QAEXAAV1@0@Z
       1250  4E1 000C0500 ?CSGAddReverse@CWorld@@QAEXAAVCEntity@@AAV1@0ABVCPlacement3D@@@Z
       1251  4E2 0003B550 ?CSGAddRooms@CObject3D@@QAEXAAV1@0@Z
       1252  4E3 0003B7D0 ?CSGJoinSectors@CObject3D@@QAEXAAV1@0@Z
       1253  4E4 000C1200 ?CSGRemove@CWorld@@QAEXAAVCEntity@@AAV1@0ABVCPlacement3D@@@Z
       1254  4E5 0003B6D0 ?CSGRemoveMaterial@CObject3D@@QAEXAAV1@0@Z
       1255  4E6 0003B850 ?CSGSplitPolygons@CObject3D@@QAEXAAV1@0@Z
       1256  4E7 0003B750 ?CSGSplitSectors@CObject3D@@QAEXAAV1@0@Z
       1257  4E8 0002DD60 ?CTDeleteFile@@YAHABVCTFileName@@@Z
       1258  4E9 0002DE10 ?CTMoveFile@@YAHABVCTFileName@@0@Z
       1259  4EA 00081AB0 ?Cache@CShadowMap@@QAEXJ@Z
       1260  4EB 0012A7F0 ?CacheAllShadowmaps@CBrushArchive@@QAEXXZ
       1261  4EC 001965D0 ?CacheNearPolygons@CMovableEntity@@QAEXXZ
       1262  4ED 000CEE30 ?CalcParams@CCastRay@@QAEXPAVCEntity@@ABV?$Vector@M$02@@1@Z
       1263  4EE 00166680 ?CalculateAbsoluteTransformations@CSkeleton@@QAEXJ@Z
       1264  4EF 0012F030 ?CalculateArea@CBrushPolygon@@QAENXZ
       1265  4F0 0012ECF0 ?CalculateBoundingBox@CBrushPolygon@@QAEXXZ
       1266  4F1 0012A190 ?CalculateBoundingBoxes@CBrush3D@@QAEXXZ
       1267  4F2 0012A400 ?CalculateBoundingBoxes@CBrushArchive@@QAEXXZ
       1268  4F3 0012DC70 ?CalculateBoundingBoxes@CBrushMip@@QAEXAAVCSimpleProjection3D_DOUBLE@@@Z
       1269  4F4 00132530 ?CalculateBoundingBoxes@CBrushSector@@QAEXAAVCSimpleProjection3D_DOUBLE@@@Z
       1270  4F5 00129FD0 ?CalculateBoundingBoxesForOneMip@CBrush3D@@QAEXPAVCBrushMip@@@Z
       1271  4F6 000B92D0 ?CalculateDirectionalShadows@CWorld@@QAEXXZ
       1272  4F7 00163560 ?CalculateFadeFactor@@YAMABUAnimList@@@Z
       1273  4F8 0009AA10 ?CalculateMappingForMips@CEditModel@@QAEXXZ
       1274  4F9 000B9390 ?CalculateNonDirectionalShadows@CWorld@@QAEXXZ
       1275  4FA 0009E340 ?CalculatePatchesPerPolygon@CEditModel@@QAEXXZ
       1276  4FB 0009A6E0 ?CalculateUnwrappedMapping@CEditModel@@QAEXAAVCObject3D@@00@Z
       1277  4FC 00130C40 ?CalculateVolume@CBrushSector@@QAENXZ
       1278  4FD 00004CF0 ?Call@CEntity@@QAEXJJHABVCEntityEvent@@@Z
       1279  4FE 00120340 ?Call@CRationalEntity@@QAEXJJHABVCEntityEvent@@@Z
       1280  4FF 0001EBF0 ?CallProgressHook_t@@YAXM@Z
       1281  500 000BEE80 ?CanCopySectors@CWorld@@QAEHAAV?$CSelection@VCBrushSector@@$00@@@Z
       1282  501 000BEB70 ?CanJoinAllPossiblePolygons@CWorld@@QAEHAAV?$CSelection@VCBrushPolygon@@$0BAA@@@@Z
       1283  502 000BEE00 ?CanJoinPolygons@CWorld@@QAEHAAV?$CSelection@VCBrushPolygon@@$0BAA@@@@Z
       1284  503 000BEDA0 ?CanJoinSectors@CWorld@@QAEHAAV?$CSelection@VCBrushSector@@$00@@@Z
       1285  504 000D0AF0 ?Cast@CCastRay@@QAEXPAVCWorld@@@Z
       1286  505 000D0E50 ?CastRay@CWorld@@QAEXAAVCCastRay@@@Z
       1287  506 0004CDA0 ?Center@CMappingDefinition@@QAEXABVCMappingVectors@@ABV?$Vector@M$02@@@Z
       1288  507 000FC7A0 ?ChangeCharacter@CPlayerSource@@QAEXAAVCPlayerCharacter@@@Z
       1289  508 0019EED0 ?ChangeCollisionBoxIndexNow@CMovableModelEntity@@QAEHJ@Z
       1290  509 0019EE60 ?ChangeCollisionBoxIndexNow@CMovableModelEntity@@QAEHJPAPAVCEntity@@@Z
       1291  50A 0019EF30 ?ChangeCollisionBoxIndexWhenPossible@CMovableModelEntity@@QAEXJ@Z
       1292  50B 000E6FD0 ?ChangeLevel@CNetworkLibrary@@QAEXABVCTFileName@@HJ@Z
       1293  50C 000ECE20 ?ChangeLevel_client_internal_t@CNetworkLibrary@@QAEXXZ
       1294  50D 000ED1F0 ?ChangeLevel_internal@CNetworkLibrary@@QAEXXZ
       1295  50E 00153710 ?ChangeParent@CModelInstance@@QAEXPAV1@0@Z
       1296  50F 00003220 ?ChangeSize@CTextureData@@QAEXJ@Z
       1297  510 0014C460 ?ChangeSurfaceShader_t@@YAXAAUMeshSurface@@VCTString@@@Z
       1298  511 001A1450 ?CharacterChanged@CPlayerEntity@@UAEXABVCPlayerCharacter@@@Z
       1299  512 000FEAE0 ?CharacterNameIsUsed@CServer@@QAEHAAVCPlayerCharacter@@@Z
       1300  513 00124F50 ?CheckClassProperties@CEntityClass@@QAEXXZ
       1301  514 0019EE40 ?CheckForCollisionNow@CMovableModelEntity@@QAEHJPAPAVCEntity@@@Z
       1302  515 00003FB0 ?CheckIDs@CEntityEvent@@UAEHXZ
       1303  516 00195680 ?CheckIDs@EBegin@@UAEHXZ
       1304  517 00195730 ?CheckIDs@EBlock@@UAEHXZ
       1305  518 00195980 ?CheckIDs@EComboFall@@UAEHXZ
       1306  519 00195900 ?CheckIDs@EDamage@@UAEHXZ
       1307  51A 00195920 ?CheckIDs@EDeath@@UAEHXZ
       1308  51B 001958E0 ?CheckIDs@EFirstWorldBase@@UAEHXZ
       1309  51C 00195590 ?CheckIDs@EInternal@@UAEHXZ
       1310  51D 00195710 ?CheckIDs@EPass@@UAEHXZ
       1311  51E 00195A50 ?CheckIDs@EPlayerInit@@UAEHXZ
       1312  51F 00195890 ?CheckIDs@EPostLevelChange@@UAEHXZ
       1313  520 00195830 ?CheckIDs@EPreLevelChange@@UAEHXZ
       1314  521 00195630 ?CheckIDs@EReturn@@UAEHXZ
       1315  522 001959E0 ?CheckIDs@ETakingBreath@@UAEHXZ
       1316  523 001957D0 ?CheckIDs@ETeleport@@UAEHXZ
       1317  524 001956D0 ?CheckIDs@ETimer@@UAEHXZ
       1318  525 001956F0 ?CheckIDs@ETouch@@UAEHXZ
       1319  526 001955E0 ?CheckIDs@EVoid@@UAEHXZ
       1320  527 00195780 ?CheckIDs@EWouldFall@@UAEHXZ
       1321  528 001359B0 ?CheckLayersUpToDate@CBrushShadowMap@@UAEXXZ
       1322  529 000816A0 ?CheckLayersUpToDate@CShadowMap@@UAEXXZ
       1323  52A 000E8450 ?CheckVersion_t@CNetworkLibrary@@QAEXAAVCTStream@@HAAH@Z
       1324  52B 0018B5D0 ?CheckWithIn@CPDBlob@@UBE_NABV?$Matrix@M$02$02@@ABV?$Vector@M$02@@1@Z
       1325  52C 0018B530 ?CheckWithIn@CPDBlob@@UBE_NABV?$Vector@M$02@@@Z
       1326  52D 00187030 ?CheckWithIn@CPDBox@@UBE_NABV?$Matrix@M$02$02@@ABV?$Vector@M$02@@1@Z
       1327  52E 00186FD0 ?CheckWithIn@CPDBox@@UBE_NABV?$Vector@M$02@@@Z
       1328  52F 0018AD30 ?CheckWithIn@CPDCone@@UBE_NABV?$Matrix@M$02$02@@ABV?$Vector@M$02@@1@Z
       1329  530 0018ABE0 ?CheckWithIn@CPDCone@@UBE_NABV?$Vector@M$02@@@Z
       1330  531 0018A190 ?CheckWithIn@CPDCylinder@@UBE_NABV?$Matrix@M$02$02@@ABV?$Vector@M$02@@1@Z
       1331  532 0018A050 ?CheckWithIn@CPDCylinder@@UBE_NABV?$Vector@M$02@@@Z
       1332  533 00186920 ?CheckWithIn@CPDDisc@@UBE_NABV?$Matrix@M$02$02@@ABV?$Vector@M$02@@1@Z
       1333  534 00186910 ?CheckWithIn@CPDDisc@@UBE_NABV?$Vector@M$02@@@Z
       1334  535 00186800 ?CheckWithIn@CPDLine@@UBE_NABV?$Matrix@M$02$02@@ABV?$Vector@M$02@@1@Z
       1335  536 001867F0 ?CheckWithIn@CPDLine@@UBE_NABV?$Vector@M$02@@@Z
       1336  537 00186CE0 ?CheckWithIn@CPDPlane@@UBE_NABV?$Matrix@M$02$02@@ABV?$Vector@M$02@@1@Z
       1337  538 00186CA0 ?CheckWithIn@CPDPlane@@UBE_NABV?$Vector@M$02@@@Z
       1338  539 001867B0 ?CheckWithIn@CPDPoint@@UBE_NABV?$Matrix@M$02$02@@ABV?$Vector@M$02@@1@Z
       1339  53A 001867C0 ?CheckWithIn@CPDPoint@@UBE_NABV?$Vector@M$02@@@Z
       1340  53B 00186880 ?CheckWithIn@CPDRectangle@@UBE_NABV?$Matrix@M$02$02@@ABV?$Vector@M$02@@1@Z
       1341  53C 00186870 ?CheckWithIn@CPDRectangle@@UBE_NABV?$Vector@M$02@@@Z
       1342  53D 0018B420 ?CheckWithIn@CPDSphere@@UBE_NABV?$Matrix@M$02$02@@ABV?$Vector@M$02@@1@Z
       1343  53E 0018B3B0 ?CheckWithIn@CPDSphere@@UBE_NABV?$Vector@M$02@@@Z
       1344  53F 00186840 ?CheckWithIn@CPDTriangle@@UBE_NABV?$Matrix@M$02$02@@ABV?$Vector@M$02@@1@Z
       1345  540 00186830 ?CheckWithIn@CPDTriangle@@UBE_NABV?$Vector@M$02@@@Z
       1346  541 000840F0 ?ClampMipLevel@CTextureData@@QBEJM@Z
       1347  542 000783F0 ?ClampTextureSize@@YAJJJJJ@Z
       1348  543 00011DF0 ?Clear@CAnimData@@UAEXXZ
       1349  544 00148320 ?Clear@CAnimSet@@UAEXXZ
       1350  545 00097C40 ?Clear@CAttachedModel@@QAEXXZ
       1351  546 00005CF0 ?Clear@CAttachedModelPosition@@QAEXXZ
       1352  547 000977A0 ?Clear@CAttachedSound@@QAEXXZ
       1353  548 0012A0C0 ?Clear@CBrush3D@@QAEXXZ
       1354  549 00003700 ?Clear@CBrushEdge@@QAEXXZ
       1355  54A 0012DF80 ?Clear@CBrushMip@@QAEXXZ
       1356  54B 00003690 ?Clear@CBrushPlane@@QAEXXZ
       1357  54C 0012EDE0 ?Clear@CBrushPolygon@@QAEXXZ
       1358  54D 00003740 ?Clear@CBrushPolygonEdge@@QAEXXZ
       1359  54E 00003B40 ?Clear@CBrushPolygonTexture@@QAEXXZ
       1360  54F 00131AC0 ?Clear@CBrushSector@@QAEXXZ
       1361  550 00003610 ?Clear@CBrushVertex@@QAEXXZ
       1362  551 000C32C0 ?Clear@CCollisionInfo@@QAEXXZ
       1363  552 00004D50 ?Clear@CEntity@@QAEXXZ
       1364  553 00125800 ?Clear@CEntityClass@@UAEXXZ
       1365  554 0005D760 ?Clear@CFontData@@UAEXXZ
       1366  555 00078D80 ?Clear@CImageInfo@@QAEXXZ
       1367  556 00044FD0 ?Clear@CIntersector@@QAEXXZ
       1368  557 0001CBD0 ?Clear@CListHead@@QAEXXZ
       1369  558 00150000 ?Clear@CMesh@@UAEXXZ
       1370  559 00005C20 ?Clear@CModelCollisionBox@@QAEXXZ
       1371  55A 000A8C40 ?Clear@CModelData@@UAEXXZ
       1372  55B 001542D0 ?Clear@CModelInstance@@QAEXXZ
       1373  55C 001520C0 ?Clear@CModelInstanceSerial@@UAEXXZ
       1374  55D 00038F40 ?Clear@CObject3D@@QAEXXZ
       1375  55E 00039ED0 ?Clear@CObjectPolygon@@QAEXXZ
       1376  55F 00038720 ?Clear@CObjectPolygonEdge@@QAEXXZ
       1377  560 00194670 ?Clear@CPGroup@@QAEXXZ
       1378  561 0018BC70 ?Clear@CParticleFX@@QAEXXZ
       1379  562 000FB260 ?Clear@CPlayerAction@@QAEXXZ
       1380  563 000AB960 ?Clear@CRenderModel@@QAEXXZ
       1381  564 00023CF0 ?Clear@CSerial@@UAEXXZ
       1382  565 0007D7A0 ?Clear@CShader@@UAEXXZ
       1383  566 000815F0 ?Clear@CShadowMap@@QAEXXZ
       1384  567 00166B00 ?Clear@CSkeleton@@UAEXXZ
       1385  568 0007CA00 ?Clear@CSmallScriptShader@@UAEXXZ
       1386  569 0008CC40 ?Clear@CSoundData@@UAEXXZ
       1387  56A 000908A0 ?Clear@CSoundLibrary@@QAEXXZ
       1388  56B 0000A5D0 ?Clear@CTString@@QAEXXZ
       1389  56C 00016100 ?Clear@CTWString@@QAEXXZ
       1390  56D 00175090 ?Clear@CTerrain@@QAEXXZ
       1391  56E 00086850 ?Clear@CTextureData@@UAEXXZ
       1392  56F 000BAF90 ?Clear@CWorld@@QAEXXZ
       1393  570 000A8800 ?Clear@ModelMipInfo@@QAEXXZ
       1394  571 0000DA90 ?Clear@PolygonsPerPatch@@QAEXXZ
       1395  572 001963B0 ?ClearActionApplied@CMovableEntity@@UAEXXZ
       1396  573 000A56F0 ?ClearAnimations@CModelData@@QAEXXZ
       1397  574 0008CAE0 ?ClearBuffer@CSoundData@@QAEXXZ
       1398  575 000C9380 ?ClearCollisionGrid@CWorld@@QAEXXZ
       1399  576 0001A010 ?ClearControlsValue@CInputDevice@@QAEXXZ
       1400  577 000199F0 ?ClearInput@CInput@@QAEXXZ
       1401  578 00090180 ?ClearLibrary@CSoundLibrary@@QAEXXZ
       1402  579 000B9F10 ?ClearMarkedForUseFlag@CWorld@@QAEXXZ
       1403  57A 00196580 ?ClearMovingTemp@CMovableEntity@@UAEXXZ
       1404  57B 0011A180 ?ClearMovingTemp@CRationalEntity@@UAEXXZ
       1405  57C 00196550 ?ClearNextPosition@CMovableEntity@@QAEXXZ
       1406  57D 00196400 ?ClearReapplyingActions@CMovableEntity@@UAEXXZ
       1407  57E 000CE800 ?ClearSectorList@CCastRay@@QAEXXZ
       1408  57F 001977C0 ?ClearTemporaryData@CMovableEntity@@QAEXXZ
       1409  580 00006120 ?ClearToDefault@@YAXAAC@Z
       1410  581 00006110 ?ClearToDefault@@YAXAAE@Z
       1411  582 00006140 ?ClearToDefault@@YAXAAF@Z
       1412  583 00006130 ?ClearToDefault@@YAXAAG@Z
       1413  584 00006150 ?ClearToDefault@@YAXAAH@Z
       1414  585 00006100 ?ClearToDefault@@YAXAAJ@Z
       1415  586 00006190 ?ClearToDefault@@YAXAAK@Z
       1416  587 000060F0 ?ClearToDefault@@YAXAAM@Z
       1417  588 000061A0 ?ClearToDefault@@YAXAAPAVCModelData@@@Z
       1418  589 000061B0 ?ClearToDefault@@YAXAAPAVCTextureData@@@Z
       1419  58A 0000EF80 ?ClearToDefault@@YAXAAV?$Plane@M$02@@@Z
       1420  58B 0000DAD0 ?ClearToDefault@@YAXAAV?$Vector@M$02@@@Z
       1421  58C 000061C0 ?ClearToDefault@@YAXAAVCEntityID@@@Z
       1422  58D 0000B580 ?ClearToDefault@@YAXAAVCEntityPointer@@@Z
       1423  58E 00006160 ?ClearToDefault@@YAXAAVCTString@@@Z
       1424  58F 000043D0 ?ClearToDefault@@YAXAAVEBegin@@@Z
       1425  590 0000D3E0 ?ClearToDefault@@YAXAAVEBlock@@@Z
       1426  591 00004A60 ?ClearToDefault@@YAXAAVEComboFall@@@Z
       1427  592 0000D600 ?ClearToDefault@@YAXAAVEDamage@@@Z
       1428  593 0000D7B0 ?ClearToDefault@@YAXAAVEDeath@@@Z
       1429  594 00004950 ?ClearToDefault@@YAXAAVEFirstWorldBase@@@Z
       1430  595 00004130 ?ClearToDefault@@YAXAAVEInternal@@@Z
       1431  596 0000D1C0 ?ClearToDefault@@YAXAAVEPass@@@Z
       1432  597 00004C80 ?ClearToDefault@@YAXAAVEPlayerInit@@@Z
       1433  598 00004870 ?ClearToDefault@@YAXAAVEPostLevelChange@@@Z
       1434  599 00004770 ?ClearToDefault@@YAXAAVEPreLevelChange@@@Z
       1435  59A 000042F0 ?ClearToDefault@@YAXAAVEReturn@@@Z
       1436  59B 00004B60 ?ClearToDefault@@YAXAAVETakingBreath@@@Z
       1437  59C 00004670 ?ClearToDefault@@YAXAAVETeleport@@@Z
       1438  59D 000044B0 ?ClearToDefault@@YAXAAVETimer@@@Z
       1439  59E 0000D010 ?ClearToDefault@@YAXAAVETouch@@@Z
       1440  59F 00004210 ?ClearToDefault@@YAXAAVEVoid@@@Z
       1441  5A0 00004590 ?ClearToDefault@@YAXAAVEWouldFall@@@Z
       1442  5A1 00004970 ?ClearToDefault@@YAXAAW4DamageType@@@Z
       1443  5A2 001996B0 ?ClientCacheNearPolygons@CMovableEntity@@QAEXXZ
       1444  5A3 000F2950 ?Client_Clear@CCommunicationInterface@@QAEXXZ
       1445  5A4 000F3D40 ?Client_Close@CCommunicationInterface@@QAEXXZ
       1446  5A5 000F41C0 ?Client_Init_t@CCommunicationInterface@@QAEXK@Z
       1447  5A6 000F4270 ?Client_Init_t@CCommunicationInterface@@QAEXPAD@Z
       1448  5A7 000F29B0 ?Client_IsConnected@CCommunicationInterface@@QAEHXZ
       1449  5A8 000F28C0 ?Client_OpenLocal@CCommunicationInterface@@QAEXXZ
       1450  5A9 000F3E00 ?Client_OpenNet_t@CCommunicationInterface@@QAEXK@Z
       1451  5AA 000F2AC0 ?Client_PeekSize_Reliable@CCommunicationInterface@@QAEXAAJ0@Z
       1452  5AB 000F2A50 ?Client_Receive_Reliable@CCommunicationInterface@@QAEHAAVCTStream@@@Z
       1453  5AC 000F29E0 ?Client_Receive_Reliable@CCommunicationInterface@@QAEHPAXAAJ@Z
       1454  5AD 000F2AF0 ?Client_Receive_Unreliable@CCommunicationInterface@@QAEHPAXAAJ@Z
       1455  5AE 000F4010 ?Client_Send_Reliable@CCommunicationInterface@@QAEXPBXJ@Z
       1456  5AF 000F40A0 ?Client_Send_Unreliable@CCommunicationInterface@@QAEXPBXJ@Z
       1457  5B0 000F36A0 ?Client_Update@CCommunicationInterface@@QAEHXZ
       1458  5B1 00045220 ?ClipLine@CIsometricProjection3D@@UBEKAAV?$Vector@M$02@@0@Z
       1459  5B2 00046DC0 ?ClipLine@CParallelProjection3D@@UBEKAAV?$Vector@M$02@@0@Z
       1460  5B3 00047E00 ?ClipLine@CPerspectiveProjection3D@@UBEKAAV?$Vector@M$02@@0@Z
       1461  5B4 000499D0 ?ClipLine@CSimpleProjection3D@@UBEKAAV?$Vector@M$02@@0@Z
       1462  5B5 000C7EB0 ?ClipMove@CWorld@@QAEXAAVCClipMove@@@Z
       1463  5B6 00187930 ?Clone@CPDBlob@@UBEPAVCPDomain@@XZ
       1464  5B7 00189110 ?Clone@CPDBox@@UBEPAVCPDomain@@XZ
       1465  5B8 0018AEE0 ?Clone@CPDCone@@UBEPAVCPDomain@@XZ
       1466  5B9 0018A330 ?Clone@CPDCylinder@@UBEPAVCPDomain@@XZ
       1467  5BA 001897D0 ?Clone@CPDDisc@@UBEPAVCPDomain@@XZ
       1468  5BB 00187D20 ?Clone@CPDLine@@UBEPAVCPDomain@@XZ
       1469  5BC 00189030 ?Clone@CPDPlane@@UBEPAVCPDomain@@XZ
       1470  5BD 00187A30 ?Clone@CPDPoint@@UBEPAVCPDomain@@XZ
       1471  5BE 00188E70 ?Clone@CPDRectangle@@UBEPAVCPDomain@@XZ
       1472  5BF 0018B4D0 ?Clone@CPDSphere@@UBEPAVCPDomain@@XZ
       1473  5C0 001886E0 ?Clone@CPDTriangle@@UBEPAVCPDomain@@XZ
       1474  5C1 000F4130 ?Close@CCommunicationInterface@@QAEXXZ
       1475  5C2 0002D6F0 ?Close@CTFileStream@@QAEXXZ
       1476  5C3 0008C420 ?CloseCanvas@CViewPort@@QAEXXZ
       1477  5C4 000FE740 ?CloseClient@CServer@@QAEXJ@Z
       1478  5C5 00027F00 ?CloseExceptionHandler@@YAXXZ
       1479  5C6 0018CDB0 ?Color@CPGroup@@QAEXMMMM@Z
       1480  5C7 0018CAA0 ?ColorDomain@CPGroup@@QAEXPAVCPDomain@@M@Z
       1481  5C8 00050280 ?ColorToHSV@@YAXKAAE00@Z
       1482  5C9 000A80A0 ?ColorizePolygon@CModelObject@@QAEXPAVCDrawPort@@PAVCProjection3D@@JJJH@Z
       1483  5CA 000A73D0 ?ColorizeRegion@CModelObject@@QAEXPAVCDrawPort@@PAVCProjection3D@@V?$AABBox@J$01@@JH@Z
       1484  5CB 0002B1A0 ?CommitPage@CTStream@@QAEXJ@Z
       1485  5CC 0008F850 ?CommitPlayingBuffer@CSoundLibrary@@AAEJAAVCSoundObject@@AAH@Z
       1486  5CD 000503A0 ?CompareChroma@@YAHKK@Z
       1487  5CE 001253B0 ?ComponentForPointer@CDLLEntityClass@@QAEPAVCEntityComponent@@PAX@Z
       1488  5CF 00125BA0 ?ComponentForPointer@CEntityClass@@QAEPAVCEntityComponent@@PAX@Z
       1489  5D0 00125350 ?ComponentForTypeAndID@CDLLEntityClass@@QAEPAVCEntityComponent@@W4EntityComponentType@@J@Z
       1490  5D1 0011A0F0 ?ComponentForTypeAndID@CEntity@@QAEPAVCEntityComponent@@KK@Z
       1491  5D2 00125B90 ?ComponentForTypeAndID@CEntityClass@@QAEPAVCEntityComponent@@W4EntityComponentType@@J@Z
       1492  5D3 000835A0 ?Compress@CTextureData@@QAEPAEAAJH@Z
       1493  5D4 0014B020 ?ComputeTangents@MeshLOD@@QAEXXZ
       1494  5D5 000FE260 ?ConnectLocalSessionState@CServer@@QAEXJAAVCNetworkMessage@@@Z
       1495  5D6 000FEB80 ?ConnectRemoteSessionState@CServer@@QAEXJAAVCNetworkMessage@@@Z
       1496  5D7 00011910 ?ContinueAnim@CAnimObject@@QAEXXZ
       1497  5D8 000D0DA0 ?ContinueCast@CCastRay@@QAEXPAVCWorld@@@Z
       1498  5D9 000D0E60 ?ContinueCast@CWorld@@QAEXAAVCCastRay@@@Z
       1499  5DA 0003D640 ?ConvertArraysToO3D@CObject3D@@QAEXXZ
       1500  5DB 000124A0 ?Copy@CAnimObject@@QAEXAAV1@@Z
       1501  5DC 0012A0F0 ?Copy@CBrush3D@@QAEXAAV1@MH@Z
       1502  5DD 0012E390 ?Copy@CBrushMip@@QAEXAAV1@MH@Z
       1503  5DE 00127260 ?Copy@CEntity@@UAEXAAV1@K@Z
       1504  5DF 0011A150 ?Copy@CLiveEntity@@UAEXAAVCEntity@@K@Z
       1505  5E0 001545E0 ?Copy@CModelInstance@@QAEXAAV1@@Z
       1506  5E1 000A7EB0 ?Copy@CModelObject@@QAEXAAV1@@Z
       1507  5E2 00199EA0 ?Copy@CMovableEntity@@UAEXAAVCEntity@@K@Z
       1508  5E3 000F9BF0 ?Copy@CNetworkSession@@QAEXABV1@@Z
       1509  5E4 001A1340 ?Copy@CPlayerEntity@@UAEXAAVCEntity@@K@Z
       1510  5E5 00120210 ?Copy@CRationalEntity@@UAEXAAVCEntity@@K@Z
       1511  5E6 00095730 ?Copy@CSoundObject@@QAEXAAV1@@Z
       1512  5E7 000839F0 ?Copy@CTextureObject@@QAEXAAV1@@Z
       1513  5E8 00127950 ?CopyAllEntitiesExceptOne@CWorld@@QAEXAAV1@AAVCEntity@@ABVCPlacement3D@@@Z
       1514  5E9 00121900 ?CopyCollisionInfo@CEntity@@QAEXAAV1@@Z
       1515  5EA 0002CCE0 ?CopyDictionary@CTStream@@QAEXAAV1@@Z
       1516  5EB 00127580 ?CopyEntities@CWorld@@QAEXAAV1@AAV?$CDynamicContainer@VCEntity@@@@AAV?$CSelection@VCEntity@@$00@@ABVCPlacement3D@@@Z
       1517  5EC 00126AC0 ?CopyEntityInWorld@CWorld@@QAEPAVCEntity@@AAV2@ABVCPlacement3D@@HKH@Z
       1518  5ED 00127200 ?CopyEntityProperties@CEntity@@QAEXAAV1@K@Z
       1519  5EE 0012EE60 ?CopyFromSameSector@CBrushPolygon@@QAEXAAV1@@Z
       1520  5EF 001537B0 ?CopyMeshInstance@CModelInstance@@QAEXAAV1@@Z
       1521  5F0 0008F630 ?CopyMixerBuffer_dsound@CSoundLibrary@@AAEXJ@Z
       1522  5F1 0008F6D0 ?CopyMixerBuffer_waveout@CSoundLibrary@@AAEXXZ
       1523  5F2 00127870 ?CopyOneEntity@CWorld@@QAEPAVCEntity@@AAV2@ABVCPlacement3D@@@Z
       1524  5F3 00126F20 ?CopyOneProperty@CEntity@@QAEXAAVCEntityProperty@@0AAV1@K@Z
       1525  5F4 0012FE60 ?CopyPolygon@CBrushPolygon@@QAEAAV1@AAV1@@Z
       1526  5F5 000BEFB0 ?CopyPolygonInWorld@CWorld@@QAEXAAVCBrushPolygon@@AAVCBrushSector@@JAAJ2@Z
       1527  5F6 000BF490 ?CopyPolygonsToBrush@CWorld@@QAEXAAV?$CSelection@VCBrushPolygon@@$0BAA@@@PAVCEntity@@@Z
       1528  5F7 0012E6F0 ?CopyProperties@CBrushPolygon@@QAEAAV1@AAV1@H@Z
       1529  5F8 0012E8F0 ?CopyPropertiesWithoutTexture@CBrushPolygon@@QAEAAV1@AAV1@@Z
       1530  5F9 000C1560 ?CopySectors@CWorld@@QAEXAAV?$CSelection@VCBrushSector@@$00@@PAVCEntity@@H@Z
       1531  5FA 000BEBC0 ?CopySourceBrushSectorsToObject@CWorld@@QAEXAAVCEntity@@AAV?$CSelection@VCBrushSector@@$03@@ABVCPlacement3D@@AAVCObject3D@@2AAV?$AABBox@N$02@@@Z
       1532  5FB 00003AF0 ?CopyTextureProperties@CBrushPolygonTexture@@QAEAAV1@AAV1@H@Z
       1533  5FC 0012E950 ?CopyTextures@CBrushPolygon@@QAEAAV1@AAV1@@Z
       1534  5FD 00193F20 ?CopyVertexB@CPGroup@@QAEXHH@Z
       1535  5FE 0009BB20 ?CorrectCollisionBoxSize@CEditModel@@QAEXXZ
       1536  5FF 000376F0 ?Cos@@YAMM@Z
       1537  600 000018B0 ?CosFast@@YAMM@Z
       1538  601 0001CD80 ?Count@CListHead@@QBEJXZ
       1539  602 000983D0 ?CountPatches@CEditModel@@QAEJXZ
       1540  603 00010FC0 ?CreateAnimations@CAnimData@@QAEXJVCTString@@JM@Z
       1541  604 000ACF90 ?CreateAttachment@CModelObject@@QAEHAAVCRenderModel@@AAVCAttachmentModelObject@@@Z
       1542  605 0012FF40 ?CreateBSPPolygon@CBrushPolygon@@QAEXAAV?$BSPPolygon@N$02@@@Z
       1543  606 00130050 ?CreateBSPPolygonNonPrecise@CBrushPolygon@@QAEXAAV?$BSPPolygon@N$02@@@Z
       1544  607 0006A880 ?CreateContext_OGL@CGfxLibrary@@AAEHPAUHDC__@@@Z
       1545  608 00082FF0 ?CreateEffectTexture@CTextureData@@QAEXJJJPAV1@K@Z
       1546  609 00099C60 ?CreateEmptyAttachingSounds@CEditModel@@QAEXXZ
       1547  60A 0011A110 ?CreateEntity@CEntity@@QAEPAV1@ABVCPlacement3D@@JKH@Z
       1548  60B 000BA020 ?CreateEntity@CWorld@@QAEPAVCEntity@@ABVCPlacement3D@@PAVCEntityClass@@KH@Z
       1549  60C 000BA160 ?CreateEntity_t@CWorld@@QAEPAVCEntity@@ABVCPlacement3D@@ABVCTFileName@@KH@Z
       1550  60D 0009E1A0 ?CreateMipModels_t@CEditModel@@QAEXAAVCObject3D@@0JJ@Z
       1551  60E 00154010 ?CreateModelInstance@@YAPAVCModelInstance@@VCTString@@@Z
       1552  60F 00041510 ?CreatePolygon@CObjectSector@@QAEPAVCObjectPolygon@@JQAJAAVCObjectMaterial@@KH@Z
       1553  610 00040B10 ?CreatePolygon@CObjectSector@@QAEPAVCObjectPolygon@@JQAV?$Vector@N$02@@AAVCObjectMaterial@@KH@Z
       1554  611 000BF640 ?CreatePolygon@CWorld@@QAEXAAV?$CSelection@VCBrushVertex@@$01@@@Z
       1555  612 00097D80 ?CreateScriptFile_t@CEditModel@@QAEXAAVCTFileName@@@Z
       1556  613 00038C40 ?CreateSectorBSPs@CObject3D@@QAEXXZ
       1557  614 000387E0 ?CreateSectorIndices@CObject3D@@QAEXXZ
       1558  615 000F30D0 ?CreateSocket_t@CCommunicationInterface@@QAEXXZ
       1559  616 00054800 ?CreateSubDrawPort@CDrawPort@@QAE?AV1@ABV?$AABBox@J$01@@@Z
       1560  617 000548C0 ?CreateSubDrawPortRatio@CDrawPort@@QAE?AV1@ABV?$AABBox@M$01@@@Z
       1561  618 00086F50 ?CreateTexture_t@@YAXABVCTFileName@@0JJK@Z
       1562  619 000870F0 ?CreateTexture_t@@YAXABVCTFileName@@JJK@Z
       1563  61A 0005F4B0 ?CreateWindowCanvas@CGfxLibrary@@QAEXPAXPAPAVCViewPort@@PAPAVCDrawPort@@@Z
       1564  61B 0005F560 ?CreateWorkCanvas@CGfxLibrary@@QAEXJJPAPAVCDrawPort@@@Z
       1565  61C 0002D550 ?Create_t@CTFileStream@@QAEXABVCTFileName@@W4CreateMode@CTStream@@@Z
       1566  61D 000842E0 ?Create_t@CTextureData@@QAEXPBVCImageInfo@@JJK@Z
       1567  61E 00001320 ?CurrentTick@CTimer@@QBE?BMXZ
       1568  61F 0008EB80 ?DSFail@CSoundLibrary@@AAEHPAD@Z
       1569  620 0008EBB0 ?DSLockBuffer@CSoundLibrary@@AAEHPAUIDirectSoundBuffer@@JAAPAXAAK@Z
       1570  621 0008EC50 ?DSPlayMainBuffers@CSoundLibrary@@AAEXXZ
       1571  622 00289998 ?DamageType_enum@@3VCEntityPropertyEnumType@@A
       1572  623 00289848 ?DamageType_values@@3PAVCEntityPropertyEnumValue@@A
       1573  624 00193DA0 ?Damping@CPGroup@@QAEXV?$Vector@M$02@@MM@Z
       1574  625 000387D0 ?DebugDump@CObject3D@@QAEXXZ
       1575  626 000E7EA0 ?DebugSave@CNetworkLibrary@@QAEXXZ
       1576  627 0018D3C0 ?Decal@CPGroup@@QAEXMABV?$Plane@M$02@@@Z
       1577  628 0018D0B0 ?Decal@CPGroup@@QAEXMPBVCEntity@@@Z
       1578  629 00025DC0 ?DeclareSymbol@CShell@@QAEXABVCTString@@PAX@Z
       1579  62A 0002B260 ?DecommitPage@CTStream@@QAEXJ@Z
       1580  62B 00037EA0 ?DecomposeRotationMatrix@@YAXAAV?$Vector@M$02@@ABV?$Matrix@M$02$02@@@Z
       1581  62C 00037DB0 ?DecomposeRotationMatrixNoSnap@@YAXAAV?$Vector@M$02@@ABV?$Matrix@M$02$02@@@Z
       1582  62D 00011140 ?DefaultAnimation@CAnimData@@QAEXXZ
       1583  62E 001540E0 ?DeleteAllChildren@CModelInstance@@QAEXH@Z
       1584  62F 0017CA80 ?DeleteAllCmds@CEffect@@QAEXXZ
       1585  630 00011610 ?DeleteAnimation@CAnimData@@QAEXJ@Z
       1586  631 0012A2D0 ?DeleteBrushMip@CBrush3D@@QAEXPAVCBrushMip@@@Z
       1587  632 00014DC2 ?DeleteChar@CTString@@QAEXJ@Z
       1588  633 00014EB2 ?DeleteChars@CTString@@QAEXJJ@Z
       1589  634 001540C0 ?DeleteChild@CModelInstance@@QAEXPAV1@@Z
       1590  635 0009BAE0 ?DeleteCurrentCollisionBox@CEditModel@@QAEXXZ
       1591  636 0007D6F0 ?DeleteHandles@CShader@@QAEXXZ
       1592  637 00154090 ?DeleteModelInstance@@YAXPAVCModelInstance@@@Z
       1593  638 000C1030 ?DeletePolygons@CWorld@@QAEXAAV?$CDynamicContainer@VCBrushPolygon@@@@@Z
       1594  639 000BEEE0 ?DeleteSectors@CWorld@@QAEXAAV?$CSelection@VCBrushSector@@$00@@H@Z
       1595  63A 0012DF90 ?DeleteSelectedSectors@CBrushMip@@QAEXAAV?$CSelection@VCBrushSector@@$03@@@Z
       1596  63B 00122BF0 ?DeleteSelf@CEntity@@QAEXXZ
       1597  63C 00002E70 ?DepthBufferFarL@CProjection3D@@QAEAAMXZ
       1598  63D 00002E80 ?DepthBufferFarR@CProjection3D@@QBEABMXZ
       1599  63E 00002E50 ?DepthBufferNearL@CProjection3D@@QAEAAMXZ
       1600  63F 00002E60 ?DepthBufferNearR@CProjection3D@@QBEABMXZ
       1601  640 000524F0 ?DepthString@CDisplayMode@@QBE?AVCTString@@XZ
       1602  641 00050510 ?DesaturateColor@@YAKK@Z
       1603  642 00003C40 ?Deselect@CBrushPolygon@@QAEXK@Z
       1604  643 00003CB0 ?Deselect@CBrushSector@@QAEXK@Z
       1605  644 00003630 ?Deselect@CBrushVertex@@QAEXK@Z
       1606  645 00004D70 ?Deselect@CEntity@@QAEXK@Z
       1607  646 000A3B70 ?DesreaseShadowQuality@CModelRenderPrefs@@QAEXXZ
       1608  647 00122AB0 ?Destroy@CEntity@@QAEXH@Z
       1609  648 000C9890 ?DestroyCollisionGrid@CWorld@@QAEXXZ
       1610  649 000BA1B0 ?DestroyEntities@CWorld@@QAEXAAV?$CSelection@VCEntity@@$00@@@Z
       1611  64A 000B9FF0 ?DestroyOneEntity@CWorld@@QAEXPAVCEntity@@@Z
       1612  64B 0005F390 ?DestroyWindowCanvas@CGfxLibrary@@QAEXPAVCViewPort@@@Z
       1613  64C 0005F3B0 ?DestroyWorkCanvas@CGfxLibrary@@QAEXPAVCDrawPort@@@Z
       1614  64D 00078D70 ?Detach@CImageInfo@@QAEXXZ
       1615  64E 0002DF10 ?DictionaryPreload_t@CTStream@@QAEXXZ
       1616  64F 0002EF90 ?DictionaryReadBegin_t@CTStream@@QAEJXZ
       1617  650 0002CD80 ?DictionaryReadEnd_t@CTStream@@QAEXXZ
       1618  651 0002EE30 ?DictionaryWriteBegin_t@CTStream@@QAEXABVCTFileName@@J@Z
       1619  652 0002CA80 ?DictionaryWriteEnd_t@CTStream@@QAEXXZ
       1620  653 00037FF0 ?DirectionVectorToAngles@@YAXABV?$Vector@M$02@@AAV1@@Z
       1621  654 00037F40 ?DirectionVectorToAnglesNoSnap@@YAXABV?$Vector@M$02@@AAV1@@Z
       1622  655 0001A0A0 ?DisableControl@CInputDevice@@QAEXJ@Z
       1623  656 0001A060 ?DisableDevice@CInputDevice@@QAEXXZ
       1624  657 00019980 ?DisableInput@CInput@@QAEXXZ
       1625  658 0002FD00 ?DisableLerp@CTimer@@QAEXXZ
       1626  659 0002A3B0 ?DisableStreamHandling@CTStream@@SAXXZ
       1627  65A 000BE800 ?DisableVisTweaks@CWorldRenderPrefs@@QAEXH@Z
       1628  65B 00135880 ?DiscardAllLayers@CBrushShadowMap@@QAEXXZ
       1629  65C 000B9820 ?DiscardAllShadows@CWorld@@QAEXXZ
       1630  65D 00121F60 ?DiscardCollisionInfo@CEntity@@QAEXXZ
       1631  65E 0012EB10 ?DiscardShadingInfos@CBrushPolygon@@QAEXXZ
       1632  65F 0013CB20 ?DiscardShadowLayers@CLightSource@@QAEXXZ
       1633  660 001366D0 ?DiscardShadows@CBrushPolygon@@QAEXXZ
       1634  661 001353A0 ?DiscardShadows@CBrushShadowLayer@@QAEXXZ
       1635  662 001358C0 ?DiscardShadows@CBrushShadowMap@@QAEXXZ
       1636  663 001A1440 ?Disconnect@CPlayerEntity@@UAEXXZ
       1637  664 000775E0 ?DitherBitmap@@YAXJPAK0JJJJ@Z
       1638  665 00077930 ?DitherMipmaps@@YAXJPAK0JJ@Z
       1639  666 00006380 ?Do@CShader@@UAEXXZ
       1640  667 0007C7B0 ?Do@CSmallScriptShader@@UAEXXZ
       1641  668 000C01B0 ?DoCSGOperation@CWorld@@QAEXAAVCEntity@@AAV1@0ABVCPlacement3D@@P8CObject3D@@AEXAAV4@3@Z4@Z
       1642  669 00196290 ?DoMoving@CMovableBrushEntity@@UAEXXZ
       1643  66A 0019E120 ?DoMoving@CMovableEntity@@UAEXXZ
       1644  66B 0019EE20 ?DoMoving@CMovableModelEntity@@UAEXXZ
       1645  66C 001A1330 ?DoMoving@CPlayerEntity@@UAEXXZ
       1646  66D 0011A1A0 ?DoMoving@CRationalEntity@@UAEXXZ
       1647  66E 00187430 ?DoTransform@CPDBlob@@UAE_NABV?$Matrix@M$02$02@@ABV?$Vector@M$02@@@Z
       1648  66F 00186DF0 ?DoTransform@CPDBox@@UAE_NABV?$Matrix@M$02$02@@ABV?$Vector@M$02@@@Z
       1649  670 00187270 ?DoTransform@CPDCone@@UAE_NABV?$Matrix@M$02$02@@ABV?$Vector@M$02@@@Z
       1650  671 001871D0 ?DoTransform@CPDCylinder@@UAE_NABV?$Matrix@M$02$02@@ABV?$Vector@M$02@@@Z
       1651  672 00187100 ?DoTransform@CPDDisc@@UAE_NABV?$Matrix@M$02$02@@ABV?$Vector@M$02@@@Z
       1652  673 00186B80 ?DoTransform@CPDLine@@UAE_NABV?$Matrix@M$02$02@@ABV?$Vector@M$02@@@Z
       1653  674 00186BE0 ?DoTransform@CPDPlane@@UAE_NABV?$Matrix@M$02$02@@ABV?$Vector@M$02@@@Z
       1654  675 00186B00 ?DoTransform@CPDPoint@@UAE_NABV?$Matrix@M$02$02@@ABV?$Vector@M$02@@@Z
       1655  676 00188A00 ?DoTransform@CPDRectangle@@UAE_NABV?$Matrix@M$02$02@@ABV?$Vector@M$02@@@Z
       1656  677 00187380 ?DoTransform@CPDSphere@@UAE_NABV?$Matrix@M$02$02@@ABV?$Vector@M$02@@@Z
       1657  678 00188070 ?DoTransform@CPDTriangle@@UAE_NABV?$Matrix@M$02$02@@ABV?$Vector@M$02@@@Z
       1658  679 00053FC0 ?DrawBorder@CDrawPort@@QBEXJJJJKK@Z
       1659  67A 0009B530 ?DrawFilledSurface@CEditModel@@QAEXPAVCDrawPort@@JJMJJKK@Z
       1660  67B 001869B0 ?DrawGeometry@CPDBlob@@UBEXPAVCDrawPort@@AAY0M@$$CBMKH_N@Z
       1661  67C 001868F0 ?DrawGeometry@CPDBox@@UBEXPAVCDrawPort@@AAY0M@$$CBMKH_N@Z
       1662  67D 00186970 ?DrawGeometry@CPDCone@@UBEXPAVCDrawPort@@AAY0M@$$CBMKH_N@Z
       1663  67E 00186950 ?DrawGeometry@CPDCylinder@@UBEXPAVCDrawPort@@AAY0M@$$CBMKH_N@Z
       1664  67F 00186930 ?DrawGeometry@CPDDisc@@UBEXPAVCDrawPort@@AAY0M@$$CBMKH_N@Z
       1665  680 00186810 ?DrawGeometry@CPDLine@@UBEXPAVCDrawPort@@AAY0M@$$CBMKH_N@Z
       1666  681 001868D0 ?DrawGeometry@CPDPlane@@UBEXPAVCDrawPort@@AAY0M@$$CBMKH_N@Z
       1667  682 001867D0 ?DrawGeometry@CPDPoint@@UBEXPAVCDrawPort@@AAY0M@$$CBMKH_N@Z
       1668  683 00186890 ?DrawGeometry@CPDRectangle@@UBEXPAVCDrawPort@@AAY0M@$$CBMKH_N@Z
       1669  684 00186990 ?DrawGeometry@CPDSphere@@UBEXPAVCDrawPort@@AAY0M@$$CBMKH_N@Z
       1670  685 00186850 ?DrawGeometry@CPDTriangle@@UBEXPAVCDrawPort@@AAY0M@$$CBMKH_N@Z
       1671  686 00053E80 ?DrawLine3D@CDrawPort@@QBEXV?$Vector@M$02@@0K@Z
       1672  687 00053C20 ?DrawLine@CDrawPort@@QBEXJJJJKK@Z
       1673  688 00053AE0 ?DrawPoint3D@CDrawPort@@QBEXV?$Vector@M$02@@KM@Z
       1674  689 00052A20 ?DrawPoint@CDrawPort@@QBEXJJKJ@Z
       1675  68A 0009B2D0 ?DrawWireSurface@CEditModel@@QAEXPAVCDrawPort@@JJMJJKK@Z
       1676  68B 001004F0 ?DropLaggingClients@CServer@@QAEXXZ
       1677  68C 00118850 ?DropsMarker@CEntity@@UBEHAAVCTFileName@@AAVCTString@@@Z
       1678  68D 001962C0 ?Dummy@CMovableBrushEntity@@QAEHABVCEntityEvent@@@Z
       1679  68E 00196620 ?Dummy@CMovableEntity@@QAEHABVCEntityEvent@@@Z
       1680  68F 0019EF70 ?Dummy@CMovableModelEntity@@QAEHABVCEntityEvent@@@Z
       1681  690 001A1480 ?Dummy@CPlayerEntity@@QAEHABVCEntityEvent@@@Z
       1682  691 000FA860 ?Dump@CNetworkMessage@@QAEXXZ
       1683  692 00027FC0 ?DumpCurrentStack@@YAXPAVCTFileStream@@@Z
       1684  693 000B9530 ?DumpReferenceInfo@CWorld@@QAEXPAVCEntity@@@Z
       1685  694 000FD660 ?DumpStats@CServer@@QAEXXZ
       1686  695 001A1260 ?DumpToConsole@CPlayerEntity@@UAEXXZ
       1687  696 0009E820 ?EditAddPatch@CEditModel@@QAEHVCTFileName@@V?$Vector@J$01@@AAJ@Z
       1688  697 0009E950 ?EditRemoveAllPatches@CEditModel@@QAEXXZ
       1689  698 0009E920 ?EditRemovePatch@CEditModel@@QAEXJ@Z
       1690  699 0001A080 ?EnableControl@CInputDevice@@QAEXJ@Z
       1691  69A 0001A040 ?EnableDevice@CInputDevice@@QAEXXZ
       1692  69B 00019C60 ?EnableInput@CInput@@QAEXPAUHWND__@@@Z
       1693  69C 0001BF50 ?EnableInput@CInput@@QAEXPAVCViewPort@@@Z
       1694  69D 00152070 ?EnableSrcRememberFN@CModelInstance@@SAXH@Z
       1695  69E 0002A330 ?EnableStreamHandling@CTStream@@SAXXZ
       1696  69F 00152080 ?EnableVertexArrayKeeping@CModelInstance@@SAXH@Z
       1697  6A0 00122A80 ?End@CEntity@@QAEXXZ
       1698  6A1 00083950 ?EndAsCurrentRenderTarget@CTextureData@@QAEXXZ
       1699  6A2 00064FB0 ?EndDriver_D3D@CGfxLibrary@@AAEXXZ
       1700  6A3 0006AA90 ?EndDriver_OGL@CGfxLibrary@@AAEXXZ
       1701  6A4 000AB8C0 ?EndModelRenderingMask@@YAXXZ
       1702  6A5 000AB810 ?EndModelRenderingView@@YAXH@Z
       1703  6A6 000FA670 ?EndOfMessage@CNetworkMessage@@QAEHXZ
       1704  6A7 000F1D40 ?EndWinsock@CCommunicationInterface@@QAEXXZ
       1705  6A8 001222E0 ?End_internal@CEntity@@QAEXXZ
       1706  6A9 00196420 ?EnemyMoving@CMovableEntity@@UAEXXZ
       1707  6AA 001198D0 ?EntityAdjustBonesCallback@@YAXPAX@Z
       1708  6AB 001198E0 ?EntityAdjustShaderParamsCallback@@YAXPAXJPAVCShader@@AAUShaderParams@@@Z
       1709  6AC 000B9150 ?EntityExists@CWorld@@QAEHKAAPAVCEntity@@@Z
       1710  6AD 000B9110 ?EntityFromID@CWorld@@QAEPAVCEntity@@K@Z
       1711  6AE 0005F3D0 ?EnumDisplayModes@CGfxLibrary@@QAEPAVCDisplayMode@@AAJW4GfxAPIType@@J@Z
       1712  6AF 000FA400 ?EnumNetworkProviders@CMessageDispatcher@@QAEXAAVCListHead@@@Z
       1713  6B0 000F9CF0 ?EnumNetworkProviders_startup@CMessageDispatcher@@QAEXAAVCListHead@@@Z
       1714  6B1 000E8580 ?EnumSessionsContinue@CNetworkLibrary@@QAEXXZ
       1715  6B2 000E8520 ?EnumSessionsStart@CNetworkLibrary@@QAEXH@Z
       1716  6B3 000E73B0 ?EnumSessionsStop@CNetworkLibrary@@QAEXXZ
       1717  6B4 00017920 ?ErrorDescription@@YAPBDPBUErrorTable@@J@Z
       1718  6B5 00024E10 ?ErrorF@CShell@@QAAXPBDZZ
       1719  6B6 000178D0 ?ErrorName@@YAPBDPBUErrorTable@@J@Z
       1720  6B7 0002A3D0 ?ExceptionFatalError@CTStream@@SAXXZ
       1721  6B8 0002BF50 ?ExceptionFilter@CTStream@@SAHKPAU_EXCEPTION_POINTERS@@@Z
       1722  6B9 00025E80 ?Execute@CShell@@QAEXABVCTString@@@Z
       1723  6BA 00078DA0 ?ExpandEdges@CImageInfo@@QAEXJ@Z
       1724  6BB 0002C780 ?ExpandFilePath@@YAJKABVCTFileName@@AAV1@@Z
       1725  6BC 0002AAE0 ?ExpectID_t@CTStream@@QAEXABVCChunkID@@@Z
       1726  6BD 0002C1A0 ?ExpectKeyword_t@CTStream@@QAEXABVCTString@@@Z
       1727  6BE 0018D720 ?Explosion@CPGroup@@QAEXV?$Vector@M$02@@MMMMM@Z
       1728  6BF 00098A30 ?ExportSurfaceNumbersAndNames@CEditModel@@QAEXVCTFileName@@@Z
       1729  6C0 00084640 ?Export_t@CTextureData@@QAEXAAVCImageInfo@@J@Z
       1730  6C1 000FAE90 ?ExtractSubMessage@CNetworkMessage@@QAEXAAV1@@Z
       1731  6C2 00044640 ?Extrapolate@CPlacement3D@@QAEXABV1@0M@Z
       1732  6C3 00002E90 ?FOVL@CPerspectiveProjection3D@@QAEAAMXZ
       1733  6C4 00002EA0 ?FOVR@CPerspectiveProjection3D@@QBEABMXZ
       1734  6C5 0002A900 ?FPrintF_t@CTStream@@QAAXPBDZZ
       1735  6C6 0011A010 ?FRnd@CEntity@@QAEMXZ
       1736  6C7 000933E0 ?Fade@CSoundObject@@QAEXMMPAVCEntity@@H@Z
       1737  6C8 00197D00 ?FakeJump@CMovableEntity@@QAEXABV?$Vector@M$02@@0MMMMM@Z
       1738  6C9 0011D090 ?FallDownToFloor@CEntity@@QAEXXZ
       1739  6CA 00002D00 ?FarClipDistanceL@CProjection3D@@QAEAAMXZ
       1740  6CB 00002D10 ?FarClipDistanceR@CProjection3D@@QBEABMXZ
       1741  6CC 00017570 ?FatalError@@YAXPBDZZ
       1742  6CD 00083BB0 ?FetchRow@CTextureData@@QAEXJPAXJH@Z
       1743  6CE 0002C360 ?FileCommitPage@CTFileStream@@QAEXJ@Z
       1744  6CF 0002C4E0 ?FileDecommitPage@CTFileStream@@QAEXJ@Z
       1745  6D0 00017A40 ?FileDir@CTFileName@@QBE?AV1@XZ
       1746  6D1 0002E330 ?FileExists@@YAHABVCTFileName@@@Z
       1747  6D2 0002DA70 ?FileExistsForWriting@@YAHABVCTFileName@@@Z
       1748  6D3 00017BD0 ?FileExt@CTFileName@@QBE?AV1@XZ
       1749  6D4 00017B00 ?FileName@CTFileName@@QBE?AV1@XZ
       1750  6D5 00119CD0 ?FileNameForComponent@CEntity@@QAEABVCTFileName@@JJ@Z
       1751  6D6 0002B670 ?FileReadAhead_t@CTFileStream@@QAEXJJ@Z
       1752  6D7 000543E0 ?Fill@CDrawPort@@QBEXJJJJK@Z
       1753  6D8 00052B90 ?Fill@CDrawPort@@QBEXJJJJKKKK@Z
       1754  6D9 00052EE0 ?Fill@CDrawPort@@QBEXK@Z
       1755  6DA 00119FD0 ?FillEntityStatistics@CEntity@@UAEHPAUEntityStats@@@Z
       1756  6DB 00052FD0 ?FillZBuffer@CDrawPort@@QBEXJJJJM@Z
       1757  6DC 000530F0 ?FillZBuffer@CDrawPort@@QBEXM@Z
       1758  6DD 000787A0 ?FilterBitmap@@YAXJPAK0JJJJ@Z
       1759  6DE 000BB4A0 ?FilterEntitiesBySpawnFlags@CWorld@@QAEXK@Z
       1760  6DF 00152E00 ?FindAnimationByID@CModelInstance@@QAEHHPAJ0@Z
       1761  6E0 00166640 ?FindBoneInLOD@CSkeleton@@QBEJJJ@Z
       1762  6E1 00122420 ?FindCollisionInfo@CEntity@@QAEXXZ
       1763  6E2 00120840 ?FindEntitiesInRange@CEntity@@QAEXABV?$AABBox@M$02@@AAV?$CDynamicContainer@VCEntity@@@@H@Z
       1764  6E3 00131860 ?FindEntitiesInSector@CBrushSector@@QAEXXZ
       1765  6E4 000C95A0 ?FindEntitiesNearBox@CWorld@@QAEXABV?$AABBox@M$02@@AAV?$CStaticStackArray@PAVCEntity@@@@@Z
       1766  6E5 000B9620 ?FindEntityWithCharacter@CWorld@@QAEPAVCPlayerEntity@@AAVCPlayerCharacter@@@Z
       1767  6E6 00152E70 ?FindFirstAnimationID@CModelInstance@@QAEJXZ
       1768  6E7 001366F0 ?FindLightRectangle@CBrushShadowMap@@QAEXAAVCLightSource@@AAVCLightRectangle@@@Z
       1769  6E8 00126ED0 ?FindRemappedEntityPointer@CEntity@@SAPAV1@PAV1@@Z
       1770  6E9 00103470 ?FindRememberedLevel@CSessionState@@QAEPAVCRememberedLevel@@ABVCTString@@@Z
       1771  6EA 0011EEF0 ?FindSectorsAroundEntity@CEntity@@QAEXXZ
       1772  6EB 0011F190 ?FindSectorsAroundEntityNear@CEntity@@QAEXXZ
       1773  6EC 0011D590 ?FindShadingInfo@CEntity@@QAEXXZ
       1774  6ED 0013D700 ?FindShadowLayers@CLightSource@@QAEXH@Z
       1775  6EE 000B96C0 ?FindShadowLayers@CWorld@@QAEXABV?$AABBox@M$02@@HH@Z
       1776  6EF 0013CE60 ?FindShadowLayersDirectional@CLightSource@@QAEXH@Z
       1777  6F0 0013D1E0 ?FindShadowLayersPoint@CLightSource@@QAEXH@Z
       1778  6F1 00014730 ?FindSubstr@CTString@@QAEJABV1@@Z
       1779  6F2 001526D0 ?FindTexureInstance@CModelInstance@@QAEPAUTextureInstance@@J@Z
       1780  6F3 00152720 ?FindTexureInstance@CModelInstance@@QAEPAUTextureInstance@@JAAUMeshInstance@@@Z
       1781  6F4 0018CBA0 ?Finish@CPGroup@@QAEXXZ
       1782  6F5 000E72C0 ?FinishCRCGather@CNetworkLibrary@@QAEXXZ
       1783  6F6 000304E0 ?FinishTranslationTable@@YAXXZ
       1784  6F7 000119F0 ?FirstFrame@CAnimObject@@QAEXXZ
       1785  6F8 000FEAB0 ?FirstInactivePlayer@CServer@@QAEPAVCPlayerTarget@@XZ
       1786  6F9 00077360 ?FlipBitmap@@YAXPAE0JJJH@Z
       1787  6FA 000BFCB0 ?FlipPolygon@CWorld@@QAEXAAVCBrushPolygon@@@Z
       1788  6FB 00001A10 ?Flush@CGfxLibrary@@QAEXXZ
       1789  6FC 0008F5A0 ?Flush@CSoundLibrary@@QAEXXZ
       1790  6FD 00054680 ?FlushRenderingQueue@CDrawPort@@QBEXXZ
       1791  6FE 0018D920 ?Follow@CPGroup@@QAEXMMM@Z
       1792  6FF 000834E0 ?Force@CTextureData@@QAEXK@Z
       1793  700 0019EEF0 ?ForceCollisionBoxIndexChange@CMovableModelEntity@@QAEXJ@Z
       1794  701 00197CF0 ?ForceFullStop@CMovableEntity@@QAEXXZ
       1795  702 00197C70 ?ForceStopRotation@CMovableEntity@@QAEXXZ
       1796  703 00197BD0 ?ForceStopTranslation@CMovableEntity@@QAEXXZ
       1797  704 001034B0 ?ForgetOldLevels@CSessionState@@QAEXXZ
       1798  705 0002B070 ?FreeBuffer@CTStream@@QAEXXZ
       1799  706 0001CFE0 ?FreeMemory@@YAXPAX@Z
       1800  707 0001D090 ?FreeMemoryAligned@@YAXPAX@Z
       1801  708 000D7CB0 ?FreeUnused@CStock_CAnimData@@QAEXXZ
       1802  709 000D9000 ?FreeUnused@CStock_CAnimSet@@QAEXXZ
       1803  70A 000DA000 ?FreeUnused@CStock_CEntityClass@@QAEXXZ
       1804  70B 000DB170 ?FreeUnused@CStock_CFontData@@QAEXXZ
       1805  70C 000DC2E0 ?FreeUnused@CStock_CMesh@@QAEXXZ
       1806  70D 000DD4A0 ?FreeUnused@CStock_CModelData@@QAEXXZ
       1807  70E 000DF470 ?FreeUnused@CStock_CModelInstance@@QAEXXZ
       1808  70F 000E0600 ?FreeUnused@CStock_CShader@@QAEXXZ
       1809  710 000E1750 ?FreeUnused@CStock_CSkeleton@@QAEXXZ
       1810  711 000E28C0 ?FreeUnused@CStock_CSmallScriptShader@@QAEXXZ
       1811  712 000E3A10 ?FreeUnused@CStock_CSoundData@@QAEXXZ
       1812  713 000E4B90 ?FreeUnused@CStock_CTextureData@@QAEXXZ
       1813  714 0011E3C0 ?FromBrush@CCollisionInfo@@QAEXPAVCBrush3D@@@Z
       1814  715 0017CC30 ?FromFile@CEffect@@QAE_NPBDPAD@Z
       1815  716 0018BAF0 ?FromFile@CParticleFX@@QAE_NPBD@Z
       1816  717 0004C730 ?FromMappingVectors@CMappingDefinition@@QAEXABVCMappingVectors@@0@Z
       1817  718 0011DA80 ?FromModel@CCollisionInfo@@QAEXPAVCEntity@@J@Z
       1818  719 00121A00 ?FromModelAll@CCollisionInfo@@QAEXPAVCEntity@@J@Z
       1819  71A 0012D990 ?FromObject3D_t@CBrush3D@@QAEXAAVCObject3D@@@Z
       1820  71B 0012D150 ?FromObjectSector_t@CBrushSector@@QAEXAAVCObjectSector@@@Z
       1821  71C 0004BBB0 ?FromPlane@CMappingVectors@@QAEXABV?$Plane@M$02@@@Z
       1822  71D 0004BD30 ?FromPlane_DOUBLE@CMappingVectors@@QAEXABV?$Plane@N$02@@@Z
       1823  71E 0011DF30 ?FromSkaModel@CCollisionInfo@@QAE?AV?$AABBox@M$02@@PAVCEntity@@J@Z
       1824  71F 00183B80 ?FromString@CCmdAvoid@@UAEXAAV?$basic_istream@DU?$char_traits@D@std@@@std@@@Z
       1825  720 00182210 ?FromString@CCmdBounce@@UAEXAAV?$basic_istream@DU?$char_traits@D@std@@@std@@@Z
       1826  721 00180F30 ?FromString@CCmdColor@@UAEXAAV?$basic_istream@DU?$char_traits@D@std@@@std@@@Z
       1827  722 00181190 ?FromString@CCmdColorDomain@@UAEXAAV?$basic_istream@DU?$char_traits@D@std@@@std@@@Z
       1828  723 001839C0 ?FromString@CCmdCopyVertexB@@UAEXAAV?$basic_istream@DU?$char_traits@D@std@@@std@@@Z
       1829  724 001852C0 ?FromString@CCmdDamping@@UAEXAAV?$basic_istream@DU?$char_traits@D@std@@@std@@@Z
       1830  725 00185010 ?FromString@CCmdExplosion@@UAEXAAV?$basic_istream@DU?$char_traits@D@std@@@std@@@Z
       1831  726 001836E0 ?FromString@CCmdFollow@@UAEXAAV?$basic_istream@DU?$char_traits@D@std@@@std@@@Z
       1832  727 001834B0 ?FromString@CCmdGravitate@@UAEXAAV?$basic_istream@DU?$char_traits@D@std@@@std@@@Z
       1833  728 00184E20 ?FromString@CCmdGravity@@UAEXAAV?$basic_istream@DU?$char_traits@D@std@@@std@@@Z
       1834  729 00184BD0 ?FromString@CCmdJet@@UAEXAAV?$basic_istream@DU?$char_traits@D@std@@@std@@@Z
       1835  72A 001831F0 ?FromString@CCmdKillOld@@UAEXAAV?$basic_istream@DU?$char_traits@D@std@@@std@@@Z
       1836  72B 00182FD0 ?FromString@CCmdMatchVelocity@@UAEXAAV?$basic_istream@DU?$char_traits@D@std@@@std@@@Z
       1837  72C 00180D70 ?FromString@CCmdMaxParticles@@UAEXAAV?$basic_istream@DU?$char_traits@D@std@@@std@@@Z
       1838  72D 00182610 ?FromString@CCmdMove@@UAEXAAV?$basic_istream@DU?$char_traits@D@std@@@std@@@Z
       1839  72E 001848F0 ?FromString@CCmdOrbitLine@@UAEXAAV?$basic_istream@DU?$char_traits@D@std@@@std@@@Z
       1840  72F 00184670 ?FromString@CCmdOrbitPoint@@UAEXAAV?$basic_istream@DU?$char_traits@D@std@@@std@@@Z
       1841  730 00182D60 ?FromString@CCmdRandomAccel@@UAEXAAV?$basic_istream@DU?$char_traits@D@std@@@std@@@Z
       1842  731 00182B60 ?FromString@CCmdRandomDisplace@@UAEXAAV?$basic_istream@DU?$char_traits@D@std@@@std@@@Z
       1843  732 00182960 ?FromString@CCmdRandomVelocity@@UAEXAAV?$basic_istream@DU?$char_traits@D@std@@@std@@@Z
       1844  733 00183D90 ?FromString@CCmdRestore@@UAEXAAV?$basic_istream@DU?$char_traits@D@std@@@std@@@Z
       1845  734 00182740 ?FromString@CCmdSink@@UAEXAAV?$basic_istream@DU?$char_traits@D@std@@@std@@@Z
       1846  735 00183FA0 ?FromString@CCmdSinkVelocity@@UAEXAAV?$basic_istream@DU?$char_traits@D@std@@@std@@@Z
       1847  736 00184490 ?FromString@CCmdSize@@UAEXAAV?$basic_istream@DU?$char_traits@D@std@@@std@@@Z
       1848  737 00181870 ?FromString@CCmdSizeDomain@@UAEXAAV?$basic_istream@DU?$char_traits@D@std@@@std@@@Z
       1849  738 00182480 ?FromString@CCmdSource@@UAEXAAV?$basic_istream@DU?$char_traits@D@std@@@std@@@Z
       1850  739 00184160 ?FromString@CCmdSpeedLimit@@UAEXAAV?$basic_istream@DU?$char_traits@D@std@@@std@@@Z
       1851  73A 00181E00 ?FromString@CCmdStartingAge@@UAEXAAV?$basic_istream@DU?$char_traits@D@std@@@std@@@Z
       1852  73B 001854F0 ?FromString@CCmdTargetColor@@UAEXAAV?$basic_istream@DU?$char_traits@D@std@@@std@@@Z
       1853  73C 00185720 ?FromString@CCmdTargetSize@@UAEXAAV?$basic_istream@DU?$char_traits@D@std@@@std@@@Z
       1854  73D 00185970 ?FromString@CCmdTargetVelocity@@UAEXAAV?$basic_istream@DU?$char_traits@D@std@@@std@@@Z
       1855  73E 00181FF0 ?FromString@CCmdTimeStep@@UAEXAAV?$basic_istream@DU?$char_traits@D@std@@@std@@@Z
       1856  73F 00181370 ?FromString@CCmdVelocity@@UAEXAAV?$basic_istream@DU?$char_traits@D@std@@@std@@@Z
       1857  740 00181600 ?FromString@CCmdVelocityDomain@@UAEXAAV?$basic_istream@DU?$char_traits@D@std@@@std@@@Z
       1858  741 00181A20 ?FromString@CCmdVertexB@@UAEXAAV?$basic_istream@DU?$char_traits@D@std@@@std@@@Z
       1859  742 00181C50 ?FromString@CCmdVertexBDomain@@UAEXAAV?$basic_istream@DU?$char_traits@D@std@@@std@@@Z
       1860  743 00185BA0 ?FromString@CCmdVortex@@UAEXAAV?$basic_istream@DU?$char_traits@D@std@@@std@@@Z
       1861  744 0004BA60 ?FromUI@CMappingDefinition@@QAEXABVCMappingDefinitionUI@@@Z
       1862  745 00002CC0 ?FrontClipDistanceL@CProjection3D@@QAEAAMXZ
       1863  746 00002CD0 ?FrontClipDistanceR@CProjection3D@@QBEABMXZ
       1864  747 000E7200 ?GameInactive@CNetworkLibrary@@QAEXXZ
       1865  748 001876B0 ?Generate@CPDBlob@@UBE?AV?$Vector@M$02@@ABV?$Matrix@M$02$02@@ABV2@@Z
       1866  749 00187470 ?Generate@CPDBlob@@UBE?AV?$Vector@M$02@@XZ
       1867  74A 00186EE0 ?Generate@CPDBox@@UBE?AV?$Vector@M$02@@ABV?$Matrix@M$02$02@@ABV2@@Z
       1868  74B 00186E50 ?Generate@CPDBox@@UBE?AV?$Vector@M$02@@XZ
       1869  74C 0018A960 ?Generate@CPDCone@@UBE?AV?$Vector@M$02@@ABV?$Matrix@M$02$02@@ABV2@@Z
       1870  74D 0018A770 ?Generate@CPDCone@@UBE?AV?$Vector@M$02@@XZ
       1871  74E 00189DE0 ?Generate@CPDCylinder@@UBE?AV?$Vector@M$02@@ABV?$Matrix@M$02$02@@ABV2@@Z
       1872  74F 00189C00 ?Generate@CPDCylinder@@UBE?AV?$Vector@M$02@@XZ
       1873  750 00189600 ?Generate@CPDDisc@@UBE?AV?$Vector@M$02@@ABV?$Matrix@M$02$02@@ABV2@@Z
       1874  751 001894A0 ?Generate@CPDDisc@@UBE?AV?$Vector@M$02@@XZ
       1875  752 00187C30 ?Generate@CPDLine@@UBE?AV?$Vector@M$02@@ABV?$Matrix@M$02$02@@ABV2@@Z
       1876  753 00187B80 ?Generate@CPDLine@@UBE?AV?$Vector@M$02@@XZ
       1877  754 00186C60 ?Generate@CPDPlane@@UBE?AV?$Vector@M$02@@ABV?$Matrix@M$02$02@@ABV2@@Z
       1878  755 001868B0 ?Generate@CPDPlane@@UBE?AV?$Vector@M$02@@XZ
       1879  756 00186B40 ?Generate@CPDPoint@@UBE?AV?$Vector@M$02@@ABV?$Matrix@M$02$02@@ABV2@@Z
       1880  757 00186790 ?Generate@CPDPoint@@UBE?AV?$Vector@M$02@@XZ
       1881  758 00188CD0 ?Generate@CPDRectangle@@UBE?AV?$Vector@M$02@@ABV?$Matrix@M$02$02@@ABV2@@Z
       1882  759 00188BA0 ?Generate@CPDRectangle@@UBE?AV?$Vector@M$02@@XZ
       1883  75A 0018B190 ?Generate@CPDSphere@@UBE?AV?$Vector@M$02@@ABV?$Matrix@M$02$02@@ABV2@@Z
       1884  75B 0018AFE0 ?Generate@CPDSphere@@UBE?AV?$Vector@M$02@@XZ
       1885  75C 00188450 ?Generate@CPDTriangle@@UBE?AV?$Vector@M$02@@ABV?$Matrix@M$02$02@@ABV2@@Z
       1886  75D 00188210 ?Generate@CPDTriangle@@UBE?AV?$Vector@M$02@@XZ
       1887  75E 00006390 ?Get@CShader@@UAEXAAUShaderDesc@@@Z
       1888  75F 0007DAF0 ?Get@CSmallScriptShader@@UAEXAAUShaderDesc@@@Z
       1889  760 00097A70 ?GetActiveCollisionBoxIndex@CEditModel@@QAEJXZ
       1890  761 000A5750 ?GetAllFramesBBox@CModelData@@QAEXAAV?$AABBox@M$02@@@Z
       1891  762 00152810 ?GetAllFramesBBox@CModelInstance@@QAEXAAV?$AABBox@M$02@@@Z
       1892  763 000A7350 ?GetAllFramesBBox@CModelObject@@QAEXAAV?$AABBox@M$02@@@Z
       1893  764 00011C60 ?GetAnim@CAnimObject@@QBEJXZ
       1894  765 00118880 ?GetAnimData@CEntity@@UAEPAVCAnimData@@J@Z
       1895  766 000113E0 ?GetAnimInfo@CAnimData@@QBEXJAAVCAnimInfo@@@Z
       1896  767 00011AE0 ?GetAnimInfo@CAnimObject@@QBEXJAAVCAnimInfo@@@Z
       1897  768 000118B0 ?GetAnimLength@CAnimObject@@QBEMJ@Z
       1898  769 00152EC0 ?GetAnimLength@CModelInstance@@QAEMJH@Z
       1899  76A 00152F30 ?GetAnimPlayingTime@CModelInstance@@QAEMJ@Z
       1900  76B 00011600 ?GetAnimsCt@CAnimData@@QBEJXZ
       1901  76C 00011C40 ?GetAnimsCt@CAnimObject@@QBEJXZ
       1902  76D 000B5D50 ?GetAttachmentMatrices@CModelObject@@QAEXPAVCAttachmentModelObject@@AAV?$Matrix@M$02$02@@AAV?$Vector@M$02@@@Z
       1903  76E 000A54E0 ?GetAttachmentModel@CModelObject@@QAEPAVCAttachmentModelObject@@J@Z
       1904  76F 000A5510 ?GetAttachmentModelList@CModelObject@@QAAPAVCAttachmentModelObject@@JZZ
       1905  770 000A6DE0 ?GetAttachmentPlacement@CModelObject@@QAE?AVCPlacement3D@@AAVCAttachmentModelObject@@@Z
       1906  771 000B6400 ?GetAttachmentTransformations@CModelObject@@QAEXJAAV?$Matrix@M$02$02@@AAV?$Vector@M$02@@H@Z
       1907  772 000B9050 ?GetBackgroundColor@CWorld@@QAEKXZ
       1908  773 000B9290 ?GetBackgroundViewer@CWorld@@QAEPAVCEntity@@XZ
       1909  774 00119900 ?GetBoneAbsPosition@CEntity@@QAEHJAAV?$Vector@M$02@@0@Z
       1910  775 0011BBB0 ?GetBoneRelPosition@CEntity@@QAEHJAAV?$Vector@M$02@@0@Z
       1911  776 0011B040 ?GetBoneTransformations@CEntity@@QAEHJAAV?$Matrix@M$02$02@@AAV?$Vector@M$02@@@Z
       1912  777 0011D020 ?GetBoundingBox@CEntity@@QAEXAAV?$AABBox@M$02@@@Z
       1913  778 00038E40 ?GetBoundingBox@CObject3D@@QAEXAAV?$AABBox@N$02@@@Z
       1914  779 00004E90 ?GetBrush@CEntity@@QAEPAVCBrush3D@@XZ
       1915  77A 000BEAB0 ?GetBrushMip@CWorld@@QAEPAVCBrushMip@@AAVCEntity@@@Z
       1916  77B 00129E60 ?GetBrushMipByDistance@CBrush3D@@QAEPAVCBrushMip@@M@Z
       1917  77C 00129EA0 ?GetBrushMipByIndex@CBrush3D@@QAEPAVCBrushMip@@J@Z
       1918  77D 00003C90 ?GetBrushPolygon@CBrushShadowMap@@QAEPAVCBrushPolygon@@XZ
       1919  77E 00003ED0 ?GetBrushType@CBrush3D@@UAEJXZ
       1920  77F 000035D0 ?GetBrushType@CBrushBase@@UAEJXZ
       1921  780 0005DF30 ?GetBrushType@CTerrain@@UAEJXZ
       1922  781 000163F0 ?GetBuffer@CConsole@@QAEPBDXZ
       1923  782 00016410 ?GetBufferSize@CConsole@@QAEJXZ
       1924  783 00019A10 ?GetCharFromKey@@YADKH@Z
       1925  784 00001DB0 ?GetCharSpacing@CFontData@@QBEJXZ
       1926  785 0000A7B0 ?GetCharWidthA@CFontData@@QBEJD@Z
       1927  786 000FC430 ?GetChatMask@CPlayerSource@@QAEKXZ
       1928  787 00152A20 ?GetChild@CModelInstance@@QAEPAV1@JH@Z
       1929  788 00152AA0 ?GetChild@CModelInstance@@QAEPAV1@VCTString@@H@Z
       1930  789 0011AA40 ?GetChildOfClass@CEntity@@QAEPAV1@PBD@Z
       1931  78A 00004E70 ?GetClass@CEntity@@QAEPAVCEntityClass@@XZ
       1932  78B 0011B4C0 ?GetClassificationBoxStretch@CEntity@@UAE?AV?$Vector@M$02@@XZ
       1933  78C 000FE100 ?GetClientsCount@CServer@@QAEJXZ
       1934  78D 001524D0 ?GetColisionBox@CModelInstance@@QAEAAUColisionBox@@J@Z
       1935  78E 00152150 ?GetColisionBoxCount@CModelInstance@@QAEJXZ
       1936  78F 00152110 ?GetColisionBoxIndex@CModelInstance@@QAEJJ@Z
       1937  790 00151E60 ?GetColisionBoxIndex@CModelInstance@@QAEJVCTString@@@Z
       1938  791 0011A8D0 ?GetCollisionBoxDickParameters@CEntity@@UAE_NAAV?$AABBox@M$02@@AAJ@Z
       1939  792 00098460 ?GetCollisionBoxDimensionEquality@CEditModel@@QAEJXZ
       1940  793 000A5830 ?GetCollisionBoxDimensionEquality@CModelData@@QAEJJ@Z
       1941  794 00152580 ?GetCollisionBoxDimensionEquality@CModelInstance@@QAEJJ@Z
       1942  795 000A73B0 ?GetCollisionBoxDimensionEquality@CModelObject@@QAEJJ@Z
       1943  796 0011A7F0 ?GetCollisionBoxHeadParameters@CEntity@@UAE_NAAV?$AABBox@M$02@@AAJ@Z
       1944  797 00118940 ?GetCollisionBoxIndex@CEntity@@UAEJXZ
       1945  798 0019EE30 ?GetCollisionBoxIndex@CMovableModelEntity@@UAEJXZ
       1946  799 00098ED0 ?GetCollisionBoxMax@CEditModel@@QAEAAV?$Vector@M$02@@XZ
       1947  79A 000A57E0 ?GetCollisionBoxMax@CModelData@@QAE?AV?$Vector@M$02@@J@Z
       1948  79B 00152530 ?GetCollisionBoxMax@CModelInstance@@QAE?AV?$Vector@M$02@@J@Z
       1949  79C 000A7390 ?GetCollisionBoxMax@CModelObject@@QAE?AV?$Vector@M$02@@J@Z
       1950  79D 00098EC0 ?GetCollisionBoxMin@CEditModel@@QAEAAV?$Vector@M$02@@XZ
       1951  79E 000A5790 ?GetCollisionBoxMin@CModelData@@QAE?AV?$Vector@M$02@@J@Z
       1952  79F 001524E0 ?GetCollisionBoxMin@CModelInstance@@QAE?AV?$Vector@M$02@@J@Z
       1953  7A0 000A7370 ?GetCollisionBoxMin@CModelObject@@QAE?AV?$Vector@M$02@@J@Z
       1954  7A1 00098D00 ?GetCollisionBoxName@CEditModel@@QAE?AVCTString@@J@Z
       1955  7A2 00098DB0 ?GetCollisionBoxName@CEditModel@@QAE?AVCTString@@XZ
       1956  7A3 0011A600 ?GetCollisionBoxParameters@CEntity@@UAEXJAAV?$AABBox@M$02@@AAJ@Z
       1957  7A4 00004E50 ?GetCollisionFlags@CEntity@@QBEKXZ
       1958  7A5 000A4AC0 ?GetColorName@CModelObject@@QAE?AVCTString@@J@Z
       1959  7A6 00024FA0 ?GetCompletionString@CShellSymbol@@QBE?AVCTString@@XZ
       1960  7A7 00003CE0 ?GetContentType@CBrushSector@@QAEJXZ
       1961  7A8 00019F90 ?GetControl@CInputDevice@@QAEJABVCTString@@@Z
       1962  7A9 00001570 ?GetControlGID@@YAKJJ@Z
       1963  7AA 0001C060 ?GetControlGIDFromString@CInput@@QAEKABVCTString@@0@Z
       1964  7AB 00001580 ?GetControlLID@@YAJK@Z
       1965  7AC 00019E60 ?GetControlName@CInput@@QAE?AVCTString@@K@Z
       1966  7AD 00019EA0 ?GetControlTransName@CInput@@QAE?AVCTString@@K@Z
       1967  7AE 00019E30 ?GetControlValue@CInput@@QAEMK@Z
       1968  7AF 00019FE0 ?GetControlValue@CInputDevice@@QAEMJ@Z
       1969  7B0 00019F80 ?GetControlsCount@CInputDevice@@QAEJXZ
       1970  7B1 00001920 ?GetCurrentAPI@CGfxLibrary@@QAE?AW4GfxAPIType@@XZ
       1971  7B2 00001930 ?GetCurrentAdapter@CGfxLibrary@@QAEJXZ
       1972  7B3 000118E0 ?GetCurrentAnimLength@CAnimObject@@QBEMXZ
       1973  7B4 00152100 ?GetCurrentColisionBox@CModelInstance@@QAEAAUColisionBox@@XZ
       1974  7B5 00152840 ?GetCurrentColisionBox@CModelInstance@@QAEXAAV?$AABBox@M$02@@@Z
       1975  7B6 00151EA0 ?GetCurrentColisionBoxIndex@CModelInstance@@QAEJXZ
       1976  7B7 00001940 ?GetCurrentDisplayMode@CGfxLibrary@@QAEXAAVCDisplayMode@@@Z
       1977  7B8 000A4F90 ?GetCurrentFrameBBox@CModelObject@@QAEXAAV?$AABBox@M$02@@@Z
       1978  7B9 001085F0 ?GetCurrentMipBrushingFactor@CWorldRenderPrefs@@QAEMM@Z
       1979  7BA 00005860 ?GetCurrentWorld@CNetworkLibrary@@QAEAAVCTFileName@@XZ
       1980  7BB 000A3F80 ?GetData@CModelObject@@QAEPAVCModelData@@XZ
       1981  7BC 00118970 ?GetDepthSortOffset@CEntity@@UAEMXZ
       1982  7BD 00147020 ?GetDescription@CAnimSet@@UAE?AVCTString@@XZ
       1983  7BE 0011A360 ?GetDescription@CEntity@@UBEABVCTString@@XZ
       1984  7BF 0014A370 ?GetDescription@CMesh@@UAE?AVCTString@@XZ
       1985  7C0 000A3E30 ?GetDescription@CModelData@@UAE?AVCTString@@XZ
       1986  7C1 001520D0 ?GetDescription@CModelInstanceSerial@@UAE?AVCTString@@XZ
       1987  7C2 000F9A60 ?GetDescription@CNetworkProvider@@QBEABVCTString@@XZ
       1988  7C3 00023A00 ?GetDescription@CSerial@@UAE?AVCTString@@XZ
       1989  7C4 001664D0 ?GetDescription@CSkeleton@@UAE?AVCTString@@XZ
       1990  7C5 0008CB80 ?GetDescription@CSoundData@@UAE?AVCTString@@XZ
       1991  7C6 00002170 ?GetDescription@CTStream@@QAEAAVCTString@@XZ
       1992  7C7 00085050 ?GetDescription@CTextureData@@UAE?AVCTString@@XZ
       1993  7C8 000B90A0 ?GetDescription@CWorld@@QAEABVCTString@@XZ
       1994  7C9 001964E0 ?GetDesiredRotation@CMovableEntity@@QBEABV?$Vector@M$02@@XZ
       1995  7CA 001964F0 ?GetDesiredTranslation@CMovableEntity@@QBEABV?$Vector@M$02@@XZ
       1996  7CB 00001550 ?GetDeviceType@CInputDevice@@QAE?AW4DeviceType@@XZ
       1997  7CC 000024A0 ?GetDirectionVector@CPlacement3D@@QAEXAAV?$Vector@M$02@@@Z
       1998  7CD 0002BE90 ?GetDiskFreeSpaceA@@YA_JABVCTString@@@Z
       1999  7CE 000454B0 ?GetDistance@CIsometricProjection3D@@UBEMABV?$Vector@M$02@@@Z
       2000  7CF 00047060 ?GetDistance@CParallelProjection3D@@UBEMABV?$Vector@M$02@@@Z
       2001  7D0 000480E0 ?GetDistance@CPerspectiveProjection3D@@UBEMABV?$Vector@M$02@@@Z
       2002  7D1 00049A20 ?GetDistance@CSimpleProjection3D@@UBEMABV?$Vector@M$02@@@Z
       2003  7D2 0012FBB0 ?GetDistanceFromEdges@CBrushPolygon@@QAEMABV?$Vector@M$02@@@Z
       2004  7D3 0001F560 ?GetDst@CRelationLnk@@QAEAAVCRelationDst@@XZ
       2005  7D4 0011A730 ?GetDynamicBoxParameters@CEntity@@UAEXAAV?$AABBox@M$02@@AAJ@Z
       2006  7D5 000EC0D0 ?GetEachEntityOfClass@CNetworkLibrary@@QAEPAVCEntity@@ABVCTString@@J@Z
       2007  7D6 000BE920 ?GetEdgesFillType@CWorldRenderPrefs@@QAE?AW4FillType@1@XZ
       2008  7D7 000BE940 ?GetEdgesInkColor@CWorldRenderPrefs@@QAEKXZ
       2009  7D8 00093040 ?GetElapsedTime@CSoundObject@@QAEMJ@Z
       2010  7D9 000BEA40 ?GetEmptyBrushModel@CWorldRenderPrefs@@QAEPAVCModelObject@@XZ
       2011  7DA 001185B0 ?GetEntity@CEntityID@@QAEPAVCEntity@@XZ
       2012  7DB 00119FC0 ?GetEntityInfo@CEntity@@UAEPAXXZ
       2013  7DC 000EC030 ?GetEntityOfClass@CNetworkLibrary@@QAEPAVCEntity@@ABVCTString@@J@Z
       2014  7DD 0011C0F0 ?GetEntityPointFixed@CEntity@@QAEXABV?$Vector@M$02@@AAV2@@Z
       2015  7DE 0011BD40 ?GetEntityPointRatio@CEntity@@QAEXABV?$Vector@M$02@@AAV2@H@Z
       2016  7DF 000EBDB0 ?GetEntityWithName@CNetworkLibrary@@QAEPAVCEntity@@ABVCTString@@J@Z
       2017  7E0 00003DA0 ?GetEnvironmentType@CBrushSector@@QAEJXZ
       2018  7E1 00098410 ?GetExistingPatchesMask@CEditModel@@QAEKXZ
       2019  7E2 000253B0 ?GetFLOAT@CShell@@QAEMABVCTString@@@Z
       2020  7E3 000374C0 ?GetFPUPrecision@@YA?AW4FPUPrecisionType@@XZ
       2021  7E4 00118920 ?GetFieldSettings@CEntity@@UAEPAVCFieldSettings@@XZ
       2022  7E5 0002E3C0 ?GetFileCRC32_t@@YAKABVCTFileName@@@Z
       2023  7E6 0002DB40 ?GetFileTimeStamp_t@@YAJABVCTFileName@@@Z
       2024  7E7 000981F0 ?GetFirstEmptyPatchIndex@CEditModel@@QAEHAAJ@Z
       2025  7E8 00129DD0 ?GetFirstMip@CBrush3D@@QAEPAVCBrushMip@@XZ
       2026  7E9 00152BA0 ?GetFirstNonReferencedParent@CModelInstance@@QAEPAV1@PAV1@@Z
       2027  7EA 0011AA90 ?GetFirstSector@CEntity@@QAEPAVCBrushSector@@XZ
       2028  7EB 0011AAB0 ?GetFirstSectorWithName@CEntity@@QAEPAVCBrushSector@@XZ
       2029  7EC 00098220 ?GetFirstValidPatchIndex@CEditModel@@QAEHAAJ@Z
       2030  7ED 00004E10 ?GetFlags@CEntity@@QBEKXZ
       2031  7EE 000A3C90 ?GetFlags@CModelData@@QAEKXZ
       2032  7EF 0005DF80 ?GetFlags@CTerrain@@QAEKXZ
       2033  7F0 000031D0 ?GetFlags@CTextureData@@QBEKXZ
       2034  7F1 00083A40 ?GetFlags@CTextureObject@@QBEKXZ
       2035  7F2 001188E0 ?GetFog@CEntity@@UAEHJAAVCFogParameters@@@Z
       2036  7F3 0011A440 ?GetFogName@CEntity@@UAEABVCTString@@J@Z
       2037  7F4 00003D40 ?GetFogType@CBrushSector@@QAEJXZ
       2038  7F5 0011B470 ?GetForce@CEntity@@UAEXJABV?$Vector@M$02@@AAVCForceStrength@@1@Z
       2039  7F6 00118890 ?GetForceController@CEntity@@UAEPAV1@J@Z
       2040  7F7 0011A3D0 ?GetForceName@CEntity@@UAEABVCTString@@J@Z
       2041  7F8 00003D10 ?GetForceType@CBrushSector@@QAEJXZ
       2042  7F9 00001870 ?GetFormat@CSoundLibrary@@QAE?AW4SoundFormat@1@XZ
       2043  7FA 000115C0 ?GetFrame@CAnimData@@QAEJJJ@Z
       2044  7FB 00012130 ?GetFrame@CAnimObject@@QBEJXZ
       2045  7FC 00012140 ?GetFrame@CAnimObject@@QBEXAAJ0AAM@Z
       2046  7FD 000A4A10 ?GetFrameBBox@CModelObject@@QAE?AV?$AABBox@M$02@@J@Z
       2047  7FE 00001910 ?GetFrameNumber@CGfxLibrary@@QAEJXZ
       2048  7FF 00011C70 ?GetFramesInCurrentAnim@CAnimObject@@QBEJXZ
       2049  800 00019A30 ?GetGIDFromChar@@YAKD@Z
       2050  801 00019A50 ?GetGIDFromVirtKey@@YAKJ@Z
       2051  802 001A1460 ?GetGameSpyPlayerInfo@CPlayerEntity@@UAEXJAAVCTString@@@Z
       2052  803 000E71E0 ?GetGameTime@CNetworkLibrary@@QAEMXZ
       2053  804 00078FE0 ?GetGfxFileInfo_t@CImageInfo@@QAEJABVCTFileName@@@Z
       2054  805 00118910 ?GetGradient@CEntity@@UAEHJAAVCGradientParameters@@@Z
       2055  806 0011A590 ?GetGradientName@CEntity@@UAEABVCTString@@J@Z
       2056  807 00014A00 ?GetHash@CTString@@QBEKXZ
       2057  808 001188F0 ?GetHaze@CEntity@@UAEHJAAVCHazeParameters@@AAV?$Vector@M$02@@@Z
       2058  809 0011A4B0 ?GetHazeName@CEntity@@UAEABVCTString@@J@Z
       2059  80A 00003D70 ?GetHazeType@CBrushSector@@QAEJXZ
       2060  80B 0001CD20 ?GetHead@CListNode@@QAEAAVCListHead@@XZ
       2061  80C 00151E80 ?GetHeadCenterPos@CModelInstance@@QAE_NAAUQVect@@0@Z
       2062  80D 00166500 ?GetHeadCenterPos@CSkeleton@@QAE_NAAUQVect@@0J@Z
       2063  80E 00198180 ?GetHeadingDirection@CMovableEntity@@QAEXMAAV?$Vector@M$02@@@Z
       2064  80F 00004FB0 ?GetHealth@CLiveEntity@@QBEMXZ
       2065  810 00019330 ?GetHeight@CDrawPort@@QBEJXZ
       2066  811 00097A60 ?GetHeight@CEditModel@@QAEJXZ
       2067  812 00001DA0 ?GetHeight@CFontData@@QBEJXZ
       2068  813 000A48A0 ?GetHeight@CModelObject@@QAEJXZ
       2069  814 000031A0 ?GetHeight@CTextureData@@QBEJXZ
       2070  815 00083A30 ?GetHeight@CTextureObject@@QBEJXZ
       2071  816 00001360 ?GetHighPrecisionTimer@CTimer@@QAE?AVCTimerValue@@XZ
       2072  817 000F1DD0 ?GetHostName@CCommunicationInterface@@QAEXAAVCTString@@0@Z
       2073  818 000E6E80 ?GetHostName@CNetworkLibrary@@QAEXAAVCTString@@0@Z
       2074  819 00052900 ?GetID@CDrawPort@@QAEKXZ
       2075  81A 00152000 ?GetID@CModelInstance@@QAEABJXZ
       2076  81B 0002A9C0 ?GetID_t@CTStream@@QAE?AVCChunkID@@XZ
       2077  81C 00025430 ?GetINDEX@CShell@@QAEJABVCTString@@@Z
       2078  81D 000A3C10 ?GetInkColor@CModelRenderPrefs@@QAEKXZ
       2079  81E 0001BF60 ?GetInput@CInput@@QAEXH@Z
       2080  81F 00019DE0 ?GetInputDevice@CInput@@QAEPAVCInputDevice@@ABVCTString@@@Z
       2081  820 00019DB0 ?GetInputDevice@CInput@@QAEPAVCInputDevice@@J@Z
       2082  821 00001590 ?GetInputDeviceID@@YAJK@Z
       2083  822 00019EE0 ?GetInputDeviceName@CInput@@QAE?AVCTString@@J@Z
       2084  823 00019F10 ?GetInputDeviceShortName@CInput@@QAE?AVCTString@@J@Z
       2085  824 0000A5F0 ?GetInputDevicesCount@CInput@@QAEJXZ
       2086  825 00129DE0 ?GetLastMip@CBrush3D@@QAEPAVCBrushMip@@XZ
       2087  826 0011BC50 ?GetLastPositions@CEntity@@QAEPAVCLastPositions@@J@Z
       2088  827 000BE9C0 ?GetLensFlares@CWorldRenderPrefs@@QAE?AW4LensFlaresType@1@XZ
       2089  828 00001350 ?GetLerpFactor2@CTimer@@QBEMXZ
       2090  829 00001340 ?GetLerpFactor@CTimer@@QBEMXZ
       2091  82A 00001330 ?GetLerpedCurrentTick@CTimer@@QBE?BMXZ
       2092  82B 00196370 ?GetLerpedEntityTime@CMovableEntity@@QAEMXZ
       2093  82C 00118A70 ?GetLerpedPlacement@CEntity@@UBE?AVCPlacement3D@@XZ
       2094  82D 00196630 ?GetLerpedPlacement@CMovableEntity@@UBE?AVCPlacement3D@@XZ
       2095  82E 0013CBD0 ?GetLightAmbient@CLightSource@@QBEKXZ
       2096  82F 0013CA10 ?GetLightAmbient@CLightSource@@QBEXAAE00@Z
       2097  830 0013CB90 ?GetLightColor@CLightSource@@QBEKXZ
       2098  831 0013C930 ?GetLightColor@CLightSource@@QBEXAAE00@Z
       2099  832 000B8E60 ?GetLightColorAndAmbient@CLightSource@@QBEXAAE00000@Z
       2100  833 000B8E40 ?GetLightColorAndAmbient@CLightSource@@QBEXAAK0@Z
       2101  834 00118860 ?GetLightSource@CEntity@@UAEPAVCLightSource@@XZ
       2102  835 00135500 ?GetLightStrength@CBrushShadowLayer@@QAEMJJMM@Z
       2103  836 00001DC0 ?GetLineSpacing@CFontData@@QBEJXZ
       2104  837 0002A7B0 ?GetLine_t@CTStream@@QAEXAAVCTString@@D@Z
       2105  838 0002A6F0 ?GetLine_t@CTStream@@QAEXPADJD@Z
       2106  839 000F1ED0 ?GetLocalAddress_t@CCommunicationInterface@@QAEXAAK0@Z
       2107  83A 000E6E70 ?GetLocalPause@CNetworkLibrary@@QAEHXZ
       2108  83B 000E81B0 ?GetLocalPlayerCount@CNetworkLibrary@@QAEJXZ
       2109  83C 000E81F0 ?GetLocalPlayerEntity@CNetworkLibrary@@QAEPAVCEntity@@PAVCPlayerSource@@@Z
       2110  83D 00027F10 ?GetLogicalAddress@@YAHPAXPADKAAK2@Z
       2111  83E 000BE8A0 ?GetManualMipBrushingFactor@CWorldRenderPrefs@@QAEMXZ
       2112  83F 000A3F10 ?GetManualMipLevel@CModelObject@@QAEJXZ
       2113  840 0011ED70 ?GetMaxFloorRadius@CCollisionInfo@@QAEMXZ
       2114  841 001187E0 ?GetMaxPlayers@CEntity@@SAJXZ
       2115  842 001189A0 ?GetMaxTessellationLevel@CEntity@@UAEMXZ
       2116  843 000BE9E0 ?GetMinimumRenderRange@CWorldRenderPrefs@@QAEMXZ
       2117  844 00097A40 ?GetMipCt@CEditModel@@QAEJXZ
       2118  845 0012DA40 ?GetMipDistance@CBrushMip@@QAEMXZ
       2119  846 0012DAD0 ?GetMipIndex@CBrushMip@@QAEJXZ
       2120  847 000A49C0 ?GetMipModel@CModelObject@@QAEJM@Z
       2121  848 00077240 ?GetMipmapOfSize@@YAJJAAPAKAAJ1@Z
       2122  849 00078460 ?GetMipmapOffset@@YAJJJJ@Z
       2123  84A 00118900 ?GetMirror@CEntity@@UAEHJAAVCMirrorParameters@@@Z
       2124  84B 0011A520 ?GetMirrorName@CEntity@@UAEABVCTString@@J@Z
       2125  84C 00118C20 ?GetModel@CEntity@@QAEABVCTFileName@@XZ
       2126  84D 00118C10 ?GetModelColor@CEntity@@QBEKXZ
       2127  84E 00152040 ?GetModelColor@CModelInstance@@QAEKXZ
       2128  84F 0011B110 ?GetModelDataForComponent@CEntity@@QAEPAVCModelData@@J@Z
       2129  850 001188C0 ?GetModelForRendering@CEntity@@UAEPAVCModelObject@@XZ
       2130  851 000A48B0 ?GetModelInfo@CModelObject@@QAEXAAVCModelInfo@@@Z
       2131  852 00004EB0 ?GetModelInstance@CEntity@@QAEPAVCModelInstance@@XZ
       2132  853 0011B130 ?GetModelInstanceForComponent@CEntity@@QAEPAVCModelInstance@@J@Z
       2133  854 001188D0 ?GetModelInstanceForRendering@CEntity@@UAEPAVCModelInstance@@XZ
       2134  855 001196B0 ?GetModelMainTexture@CEntity@@QAEABVCTFileName@@XZ
       2135  856 00004EA0 ?GetModelObject@CEntity@@QAEPAVCModelObject@@XZ
       2136  857 00152010 ?GetModelVertices@CModelInstance@@QAEXAAV?$CStaticStackArray@V?$Vector@M$02@@@@AAV?$Matrix@M$02$02@@AAV?$Vector@M$02@@MM@Z
       2137  858 000B6B50 ?GetModelVertices@CModelObject@@QAEXAAV?$CStaticStackArray@V?$Vector@M$02@@@@AAV?$Matrix@M$02$02@@AAV?$Vector@M$02@@MM@Z
       2138  859 0011AFB0 ?GetModelVerticesAbsolute@CEntity@@QAEXAAV?$CStaticStackArray@V?$Vector@M$02@@@@MM@Z
       2139  85A 001A12F0 ?GetMyPlayerIndex@CPlayerEntity@@QAEJXZ
       2140  85B 0017B530 ?GetName@CEffect@@QBEPBDXZ
       2141  85C 0011A2F0 ?GetName@CEntity@@UBEABVCTString@@XZ
       2142  85D 00151FB0 ?GetName@CModelInstance@@QAE?AVCTString@@XZ
       2143  85E 000A50D0 ?GetName@CModelObject@@QAE?AVCTFileName@@XZ
       2144  85F 0018B6C0 ?GetName@CParticleFX@@QBEPBDXZ
       2145  860 00129660 ?GetName@CPlayerCharacter@@QBEABVCTString@@XZ
       2146  861 001A12E0 ?GetName@CPlayerEntity@@UBEABVCTString@@XZ
       2147  862 00001C20 ?GetName@CSerial@@QAEABVCTFileName@@XZ
       2148  863 000017D0 ?GetName@CTFileName@@QAEABV1@XZ
       2149  864 00084FA0 ?GetName@CTextureObject@@QAEABVCTFileName@@XZ
       2150  865 000B90E0 ?GetName@CWorld@@QAEABVCTString@@XZ
       2151  866 00129670 ?GetNameForPrinting@CPlayerCharacter@@QBE?BVCTString@@XZ
       2152  867 00129230 ?GetNearestPolygon@CEntity@@QAEPAVCBrushPolygon@@AAV?$Vector@M$02@@AAV?$Plane@M$02@@AAM@Z
       2153  868 0012DA50 ?GetNext@CBrushMip@@QAEPAV1@XZ
       2154  869 00098310 ?GetNextValidPatchIndex@CEditModel@@QAEXAAJ@Z
       2155  86A 000031E0 ?GetNoOfFineMips@CTextureData@@QBEKXZ
       2156  86B 0000ACB0 ?GetNoOfMips@CTextureData@@QBEKXZ
       2157  86C 001963C0 ?GetNowComboStates@CMovableEntity@@UAEHXZ
       2158  86D 000EBFA0 ?GetNthPlayerEntity@CNetworkLibrary@@QAEPAVCPlayerEntity@@J@Z
       2159  86E 000EBEF0 ?GetNthPlayerEntityWithName@CNetworkLibrary@@QAEPAVCPlayerEntity@@ABVCTString@@J@Z
       2160  86F 0018CA80 ?GetNumMaxParticles@CPGroup@@QBEJXZ
       2161  870 0018CBB0 ?GetNumParticles@CPGroup@@QBEJXZ
       2162  871 000EBD20 ?GetNumberOfEntitiesWithName@CNetworkLibrary@@QAEJABVCTString@@@Z
       2163  872 000EBE50 ?GetNumberOfPlayerEntitiesWithName@CNetworkLibrary@@QAEJABVCTString@@@Z
       2164  873 000FE1B0 ?GetObserversCount@CServer@@QAEJXZ
       2165  874 00151EE0 ?GetOffsetPos@CModelInstance@@QAE?AV?$Vector@M$02@@XZ
       2166  875 00152690 ?GetOffsetRot@CModelInstance@@QAE?AV?$Vector@M$02@@XZ
       2167  876 00004D40 ?GetOpacity@CEntity@@UAEMXZ
       2168  877 001256B0 ?GetOverridenState@CDLLEntityClass@@QAEJJ@Z
       2169  878 000063C0 ?GetPPCode@CShader@@UAEXAAVCTString@@JW4FOGTYPE@@@Z
       2170  879 0007C8F0 ?GetPPCode@CSmallScriptShader@@UAEXAAVCTString@@JW4FOGTYPE@@@Z
       2171  87A 000A3C30 ?GetPaperColor@CModelRenderPrefs@@QAEKXZ
       2172  87B 00004ED0 ?GetParent@CEntity@@QAEPAV1@XZ
       2173  87C 001529B0 ?GetParent@CModelInstance@@QAEPAV1@PAV1@@Z
       2174  87D 0017EAF0 ?GetParticle@CPGroup@@QAEABVCParticle@@I@Z
       2175  87E 00011B80 ?GetPassedTime@CAnimObject@@QBEMXZ
       2176  87F 000A3F50 ?GetPatchesMask@CModelObject@@QAEKXZ
       2177  880 00004E40 ?GetPhysicsFlags@CEntity@@QBEKXZ
       2178  881 001982D0 ?GetPitchDirection@CMovableEntity@@QAEXMAAV?$Vector@M$02@@@Z
       2179  882 000031C0 ?GetPixHeight@CTextureData@@QBEJXZ
       2180  883 000031B0 ?GetPixWidth@CTextureData@@QBEJXZ
       2181  884 00004DA0 ?GetPlacement@CEntity@@QBEABVCPlacement3D@@XZ
       2182  885 0011A2C0 ?GetPlayerEntity@CEntity@@SAPAV1@J@Z
       2183  886 000E8280 ?GetPlayerEntityByName@CNetworkLibrary@@QAEPAVCEntity@@ABVCTString@@@Z
       2184  887 001A12B0 ?GetPlayerName@CPlayerEntity@@QAE?AVCTString@@XZ
       2185  888 000EC170 ?GetPlayerSource@CNetworkLibrary@@QAEPAVCPlayerSource@@PAVCEntity@@@Z
       2186  889 000FEA20 ?GetPlayersCount@CServer@@QAEJXZ
       2187  88A 00104C10 ?GetPlayersCount@CSessionState@@QAEJXZ
       2188  88B 000FEA80 ?GetPlayersCountForClient@CServer@@QAEJJ@Z
       2189  88C 000BE960 ?GetPolygonsFillType@CWorldRenderPrefs@@QAE?AW4FillType@1@XZ
       2190  88D 000BE980 ?GetPolygonsInkColor@CWorldRenderPrefs@@QAEKXZ
       2191  88E 0002A600 ?GetPos_t@CTStream@@QAEJXZ
       2192  88F 00128E00 ?GetPosition@CLastPositions@@QAEABV?$Vector@M$02@@J@Z
       2193  890 00152160 ?GetPositionOfBone@CModelInstance@@QAE?AV?$Vector@M$02@@VCTString@@@Z
       2194  891 0012DA60 ?GetPrev@CBrushMip@@QAEPAV1@XZ
       2195  892 00098250 ?GetPreviousValidPatchIndex@CEditModel@@QAEXAAJ@Z
       2196  893 000E6F60 ?GetRealTimeFactor@CNetworkLibrary@@QAEMXZ
       2197  894 0002FCC0 ?GetRealTimeTick@CTimer@@QBEMXZ
       2198  895 00197F90 ?GetReferenceHeadingDirection@CMovableEntity@@QAEXABV?$Vector@M$02@@MAAV2@@Z
       2199  896 00001A00 ?GetRefreshHz@CGfxLibrary@@QAEJXZ
       2200  897 00196930 ?GetRelativeHeading@CMovableEntity@@QAEMABV?$Vector@M$02@@@Z
       2201  898 00196980 ?GetRelativePitch@CMovableEntity@@QAEMABV?$Vector@M$02@@@Z
       2202  899 000F1FD0 ?GetRemoteAddress_t@CCommunicationInterface@@QAEXAAK0@Z
       2203  89A 00004E60 ?GetRenderType@CEntity@@QAE?AW4RenderType@1@XZ
       2204  89B 000A3B50 ?GetRenderType@CModelRenderPrefs@@QAEKXZ
       2205  89C 0008B710 ?GetRenderingTime@CTextureEffectGlobal@@QAENXZ
       2206  89D 00004DB0 ?GetRotationMatrix@CEntity@@QBEABV?$Matrix@M$02$02@@XZ
       2207  89E 00083C40 ?GetRowPointer@CTextureData@@QAEPAKJ@Z
       2208  89F 0008CB30 ?GetSecondsLength@CSoundData@@QAENXZ
       2209  8A0 0011C1A0 ?GetSectorFromPoint@CEntity@@QAEPAVCBrushSector@@ABV?$Vector@M$02@@@Z
       2210  8A1 000BEA00 ?GetSelectedEntityModel@CWorldRenderPrefs@@QAEPAVCModelObject@@XZ
       2211  8A2 000BEA20 ?GetSelectedPortalModel@CWorldRenderPrefs@@QAEPAVCModelObject@@XZ
       2212  8A3 000BEA60 ?GetSelectionType@CWorldRenderPrefs@@QAE?AW4SelectionType@1@XZ
       2213  8A4 000E71F0 ?GetSessionProperties@CNetworkLibrary@@QAEPAXXZ
       2214  8A5 00003A30 ?GetShadowLayersCount@CBrushShadowMap@@QAEJXZ
       2215  8A6 000A3B90 ?GetShadowQuality@CModelRenderPrefs@@QAEJXZ
       2216  8A7 00081410 ?GetShadowSize@CShadowMap@@QAEKXZ
       2217  8A8 000BE9A0 ?GetShadowsType@CWorldRenderPrefs@@QAE?AW4ShadowsType@1@XZ
       2218  8A9 0011B280 ?GetSize@CEntity@@QAEXAAV?$AABBox@M$02@@@Z
       2219  8AA 00003FA0 ?GetSizeOf@CEntityEvent@@UAEJXZ
       2220  8AB 00195660 ?GetSizeOf@EBegin@@UAEJXZ
       2221  8AC 00195720 ?GetSizeOf@EBlock@@UAEJXZ
       2222  8AD 00195950 ?GetSizeOf@EComboFall@@UAEJXZ
       2223  8AE 001958F0 ?GetSizeOf@EDamage@@UAEJXZ
       2224  8AF 00195910 ?GetSizeOf@EDeath@@UAEJXZ
       2225  8B0 001958C0 ?GetSizeOf@EFirstWorldBase@@UAEJXZ
       2226  8B1 00195570 ?GetSizeOf@EInternal@@UAEJXZ
       2227  8B2 00195700 ?GetSizeOf@EPass@@UAEJXZ
       2228  8B3 00195A10 ?GetSizeOf@EPlayerInit@@UAEJXZ
       2229  8B4 00195860 ?GetSizeOf@EPostLevelChange@@UAEJXZ
       2230  8B5 00195800 ?GetSizeOf@EPreLevelChange@@UAEJXZ
       2231  8B6 00195610 ?GetSizeOf@EReturn@@UAEJXZ
       2232  8B7 001959B0 ?GetSizeOf@ETakingBreath@@UAEJXZ
       2233  8B8 001957B0 ?GetSizeOf@ETeleport@@UAEJXZ
       2234  8B9 001956B0 ?GetSizeOf@ETimer@@UAEJXZ
       2235  8BA 001956E0 ?GetSizeOf@ETouch@@UAEJXZ
       2236  8BB 001955C0 ?GetSizeOf@EVoid@@UAEJXZ
       2237  8BC 00195760 ?GetSizeOf@EWouldFall@@UAEJXZ
       2238  8BD 0002ABA0 ?GetSize_t@CTStream@@QAEJXZ
       2239  8BE 000F1E20 ?GetSocketError@CCommunicationInterface@@QAE?AVCTString@@J@Z
       2240  8BF 00119E20 ?GetSoundLength@CEntity@@QAENJ@Z
       2241  8C0 0004C930 ?GetSpaceCoordinates@CMappingDefinition@@QBEXABVCMappingVectors@@ABV?$Vector@J$01@@AAV?$Vector@M$02@@@Z
       2242  8C1 00004E30 ?GetSpawnFlags@CEntity@@QBEKXZ
       2243  8C2 000B9100 ?GetSpawnFlags@CWorld@@QAEKXZ
       2244  8C3 0001F550 ?GetSrc@CRelationLnk@@QAEAAVCRelationSrc@@XZ
       2245  8C4 0002C560 ?GetStreamCRC32_t@CTFileStream@@UAEKXZ
       2246  8C5 0002C040 ?GetStreamCRC32_t@CTStream@@UAEKXZ
       2247  8C6 0002A670 ?GetStreamSize@CTStream@@QAEJXZ
       2248  8C7 000254B0 ?GetString@CShell@@QAE?AVCTString@@ABV2@@Z
       2249  8C8 000A4AF0 ?GetSurfaceColor@CModelObject@@QAEKJJ@Z
       2250  8C9 00098B50 ?GetSurfaceName@CEditModel@@QAEPBDJJ@Z
       2251  8CA 000A4BE0 ?GetSurfaceRenderFlags@CModelObject@@QAEXJJAAW4SurfaceShadingType@@AAW4SurfaceTranslucencyType@@AAK@Z
       2252  8CB 000252C0 ?GetSymbol@CShell@@QAEPAVCShellSymbol@@ABVCTString@@H@Z
       2253  8CC 001187F0 ?GetTarget@CEntity@@UBEPAV1@XZ
       2254  8CD 00129780 ?GetTeam@CPlayerCharacter@@QBEABVCTString@@XZ
       2255  8CE 00129790 ?GetTeamForPrinting@CPlayerCharacter@@QBE?BVCTString@@XZ
       2256  8CF 00004EC0 ?GetTerrain@CEntity@@QAEPAVCTerrain@@XZ
       2257  8D0 00083B30 ?GetTexel@CTextureData@@QAEKJJ@Z
       2258  8D1 00053530 ?GetTextWidth@CDrawPort@@QBEKABVCTString@@@Z
       2259  8D2 0004C860 ?GetTextureCoordinates@CMappingDefinition@@QBEXABVCMappingVectors@@ABV?$Vector@M$02@@AAV?$Vector@J$01@@@Z
       2260  8D3 0011B0F0 ?GetTextureDataForComponent@CEntity@@QAEPAVCTextureData@@J@Z
       2261  8D4 000A3C70 ?GetTextureDimensions@CModelData@@QAEXAAJ0@Z
       2262  8D5 0018CB90 ?GetTransformMode@CPGroup@@QBEHXZ
       2263  8D6 00005180 ?GetType@CNetworkMessage@@QBE?AW4NetworkMessageType@@XZ
       2264  8D7 000256F0 ?GetType@CShell@@QAE?AW4ShellTypeType@@ABVCTString@@@Z
       2265  8D8 00023CD0 ?GetUsedCount@CSerial@@QAEJXZ
       2266  8D9 00146F50 ?GetUsedMemory@CAnimSet@@UAEJXZ
       2267  8DA 00003710 ?GetUsedMemory@CBrushEdge@@QAEJXZ
       2268  8DB 000036A0 ?GetUsedMemory@CBrushPlane@@QAEJXZ
       2269  8DC 0012EAE0 ?GetUsedMemory@CBrushPolygon@@QAEJXZ
       2270  8DD 00003B50 ?GetUsedMemory@CBrushPolygonTexture@@QAEJXZ
       2271  8DE 00130980 ?GetUsedMemory@CBrushSector@@QAEJXZ
       2272  8DF 00135A50 ?GetUsedMemory@CBrushShadowMap@@QAEJXZ
       2273  8E0 00003660 ?GetUsedMemory@CBrushVertex@@QAEJXZ
       2274  8E1 0011A040 ?GetUsedMemory@CEntity@@UAEJXZ
       2275  8E2 001251C0 ?GetUsedMemory@CEntityClass@@UAEJXZ
       2276  8E3 00004FC0 ?GetUsedMemory@CLiveEntity@@UAEJXZ
       2277  8E4 0014A1F0 ?GetUsedMemory@CMesh@@UAEJXZ
       2278  8E5 000A4250 ?GetUsedMemory@CModelData@@UAEJXZ
       2279  8E6 00153080 ?GetUsedMemory@CModelInstance@@QAEJXZ
       2280  8E7 00153110 ?GetUsedMemory@CModelInstanceSerial@@UAEJXZ
       2281  8E8 000A5630 ?GetUsedMemory@CModelObject@@QAEJXZ
       2282  8E9 001965F0 ?GetUsedMemory@CMovableEntity@@UAEJXZ
       2283  8EA 0019EF60 ?GetUsedMemory@CMovableModelEntity@@UAEJXZ
       2284  8EB 00005080 ?GetUsedMemory@CRationalEntity@@UAEJXZ
       2285  8EC 00001C40 ?GetUsedMemory@CSerial@@UAEJXZ
       2286  8ED 0007C0C0 ?GetUsedMemory@CShader@@UAEJXZ
       2287  8EE 00082440 ?GetUsedMemory@CShadowMap@@QAEHAAJ00AAM@Z
       2288  8EF 00166490 ?GetUsedMemory@CSkeleton@@UAEJXZ
       2289  8F0 0007CA90 ?GetUsedMemory@CSmallScriptShader@@UAEJXZ
       2290  8F1 0008CC60 ?GetUsedMemory@CSoundData@@UAEJXZ
       2291  8F2 00083AC0 ?GetUsedMemory@CTextureData@@UAEJXZ
       2292  8F3 000FE160 ?GetVIPClientsCount@CServer@@QAEJXZ
       2293  8F4 000FEA40 ?GetVIPPlayersCount@CServer@@QAEJXZ
       2294  8F5 000063A0 ?GetVPCode@CShader@@UAEXAAVCTString@@J@Z
       2295  8F6 0007C7F0 ?GetVPCode@CSmallScriptShader@@UAEXAAVCTString@@J@Z
       2296  8F7 00025550 ?GetValue@CShell@@QAE?AVCTString@@ABV2@@Z
       2297  8F8 00003790 ?GetVertexCoordinatesAbsolute@CBrushPolygonEdge@@QAEXAAV?$Vector@M$02@@0@Z
       2298  8F9 000038F0 ?GetVertexCoordinatesPreciseAbsolute@CBrushPolygonEdge@@QAEXAAV?$Vector@N$02@@0@Z
       2299  8FA 00003890 ?GetVertexCoordinatesPreciseRelative@CBrushPolygonEdge@@QAEXAAV?$Vector@N$02@@0@Z
       2300  8FB 00003810 ?GetVertexCoordinatesRelative@CBrushPolygonEdge@@QAEXAAV?$Vector@M$02@@0@Z
       2301  8FC 00003750 ?GetVertices@CBrushPolygonEdge@@QAEXAAPAVCBrushVertex@@0@Z
       2302  8FD 000423E0 ?GetVertices@CObjectPolygonEdge@@QAEXAAPAVCObjectVertex@@0@Z
       2303  8FE 000BE8E0 ?GetVerticesFillType@CWorldRenderPrefs@@QAE?AW4FillType@1@XZ
       2304  8FF 000BE900 ?GetVerticesInkColor@CWorldRenderPrefs@@QAEKXZ
       2305  900 00118990 ?GetVisTweaks2@CEntity@@UAEKXZ
       2306  901 00118980 ?GetVisTweaks@CEntity@@UAEKXZ
       2307  902 00019320 ?GetWidth@CDrawPort@@QBEJXZ
       2308  903 00097A50 ?GetWidth@CEditModel@@QAEJXZ
       2309  904 00001D90 ?GetWidth@CFontData@@QBEJXZ
       2310  905 000A4890 ?GetWidth@CModelObject@@QAEJXZ
       2311  906 00003190 ?GetWidth@CTextureData@@QBEJXZ
       2312  907 00083A20 ?GetWidth@CTextureObject@@QBEJXZ
       2313  908 00017970 ?GetWindowsError@@YA?BVCTString@@K@Z
       2314  909 00004E80 ?GetWorld@CEntity@@QAEPAVCWorld@@XZ
       2315  90A 00119D00 ?GetWorldPolygonIndex@CEntity@@QAEJPAVCBrushPolygon@@@Z
       2316  90B 0011B150 ?GetWorldPolygonPointer@CEntity@@QAEPAVCBrushPolygon@@J@Z
       2317  90C 001967D0 ?GiveImpulseTranslationAbsolute@CMovableEntity@@QAEXABV?$Vector@M$02@@@Z
       2318  90D 00197B50 ?GiveImpulseTranslationAbsolute@CMovableEntity@@QAEXABV?$Vector@M$02@@_N@Z
       2319  90E 00197A60 ?GiveImpulseTranslationRelative@CMovableEntity@@QAEXABV?$Vector@M$02@@@Z
       2320  90F 00053190 ?GrabScreen@CDrawPort@@QBEXAAVCImageInfo@@J@Z
       2321  910 0018E130 ?Gravitate@CPGroup@@QAEXMMM@Z
       2322  911 0018E4A0 ?Gravity@CPGroup@@QAEXV?$Vector@M$02@@@Z
       2323  912 0001D010 ?GrowMemory@@YAXPAPAXJ@Z
       2324  913 0019F030 ?H0x00020002_WaitUntilScheduledAnimStarts_01@CMovableModelEntity@@QAEHABVCEntityEvent@@@Z
       2325  914 0019F0B0 ?H0x00020003_WaitUntilScheduledAnimStarts_02@CMovableModelEntity@@QAEHABVCEntityEvent@@@Z
       2326  915 0019F110 ?H0x00020004_WaitUntilScheduledAnimStarts_03@CMovableModelEntity@@QAEHABVCEntityEvent@@@Z
       2327  916 0004FDD0 ?HSVToColor@@YAKEEE@Z
       2328  917 00101000 ?Handle@CServer@@QAEXJAAVCNetworkMessage@@@Z
       2329  918 0002C600 ?HandleAccess@CTFileStream@@UAEXJH@Z
       2330  919 0002B770 ?HandleAccess@CTMemoryStream@@UAEXJH@Z
       2331  91A 00102050 ?HandleAll@CServer@@QAEXXZ
       2332  91B 00101E10 ?HandleAllForAClient@CServer@@QAEXJ@Z
       2333  91C 000FF410 ?HandleClientDisconected@CServer@@QAEXJ@Z
       2334  91D 00118B80 ?HandleEvent@CEntity@@UAEHABVCEntityEvent@@@Z
       2335  91E 0011CE90 ?HandleEvent@CRationalEntity@@UAEHABVCEntityEvent@@@Z
       2336  91F 00102DC0 ?HandleMovers@CSessionState@@QAEXXZ
       2337  920 00103090 ?HandleMovers_client@CSessionState@@QAEXXZ
       2338  921 00122E90 ?HandleSentEvents@CEntity@@SAXXZ
       2339  922 000301C0 ?HandleTimerHandlers@CTimer@@QAEXXZ
       2340  923 001032A0 ?HandleTimers@CSessionState@@QAEXM@Z
       2341  924 00125610 ?HandlerForStateAndEvent@CDLLEntityClass@@QAEP8CEntity@@AEHABVCEntityEvent@@@ZJJ@Z
       2342  925 00118B70 ?HandlerForStateAndEvent@CEntity@@UAEP81@AEHABVCEntityEvent@@@ZJJ@Z
       2343  926 00125B80 ?HandlerForStateAndEvent@CEntityClass@@QAEP8CEntity@@AEHABVCEntityEvent@@@ZJJ@Z
       2344  927 00125660 ?HandlerNameForState@CDLLEntityClass@@QAEPBDJ@Z
       2345  928 00001990 ?HasAPI@CGfxLibrary@@QAEHW4GfxAPIType@@@Z
       2346  929 00152050 ?HasAlpha@CModelInstance@@QAEHXZ
       2347  92A 000A4FC0 ?HasAlpha@CModelObject@@QAEHXZ
       2348  92B 0005F470 ?HasCompression@CGfxLibrary@@QAEHXZ
       2349  92C 00135A20 ?HasDynamicLayers@CBrushShadowMap@@UAEHXZ
       2350  92D 000816B0 ?HasDynamicLayers@CShadowMap@@UAEHXZ
       2351  92E 00019F40 ?HasJoystickPOV@CInputDevice@@QAEHXZ
       2352  92F 000019D0 ?HasOcclusionCulling@CGfxLibrary@@QAEHXZ
       2353  930 000146F0 ?HasPrefix@CTString@@QBEHABV1@@Z
       2354  931 00152060 ?HasShadow@CModelInstance@@QAEHM@Z
       2355  932 000A50A0 ?HasShadow@CModelObject@@QAEHJ@Z
       2356  933 000012C0 ?Head@CListHead@@QBEAAVCListNode@@XZ
       2357  934 000A3BF0 ?HiddenLines@CModelRenderPrefs@@QAEHXZ
       2358  935 000A5070 ?HidePatch@CModelObject@@QAEXJ@Z
       2359  936 000B99A0 ?HideSelectedEntities@CWorld@@QAEXAAV?$CSelection@VCEntity@@$00@@@Z
       2360  937 000B9AC0 ?HideSelectedSectors@CWorld@@QAEXAAV?$CSelection@VCBrushSector@@$00@@@Z
       2361  938 000B9A10 ?HideUnselectedEntities@CWorld@@QAEXXZ
       2362  939 000B9B00 ?HideUnselectedSectors@CWorld@@QAEXXZ
       2363  93A 00019160 ?IFeel_ChangeGain@@YAXM@Z
       2364  93B 00018FB0 ?IFeel_DeleteDevice@@YAXXZ
       2365  93C 00018C40 ?IFeel_GetProductName@@YA?AVCTString@@XZ
       2366  93D 00018CC0 ?IFeel_GetProjectFileName@@YA?AVCTString@@XZ
       2367  93E 00019180 ?IFeel_InitDevice@@YAHAAPAUHINSTANCE__@@AAPAUHWND__@@@Z
       2368  93F 00019010 ?IFeel_LoadFile@@YAHVCTFileName@@@Z
       2369  940 00019280 ?IFeel_PlayEffect@@YAXPAD@Z
       2370  941 00019150 ?IFeel_StopEffect@@YAXPAD@Z
       2371  942 00119FF0 ?IRnd@CEntity@@QAEKXZ
       2372  943 0002A2B0 ?IgnoreApplicationPath@@YAXXZ
       2373  944 000FA660 ?IgnoreContents@CNetworkMessage@@QAEXXZ
       2374  945 000A3B80 ?IncreaseShadowQuality@CModelRenderPrefs@@QAEXXZ
       2375  946 000A6010 ?IndicesToPtrs@CModelData@@QAEXXZ
       2376  947 001215A0 ?InflictBoxDamage@CEntity@@QAEXPAV1@W4DamageType@@MABV?$AABBox@M$02@@@Z
       2377  948 00119EF0 ?InflictDirectDamage@CEntity@@QAEXPAV1@0W4DamageType@@MABV?$Vector@M$02@@2_N3@Z
       2378  949 00121260 ?InflictRangeDamage@CEntity@@QAEXPAV1@W4DamageType@@MABV?$Vector@M$02@@MM@Z
       2379  94A 00017720 ?InfoMessage@@YAXPBDZZ
       2380  94B 000CEB90 ?Init@CCastRay@@QAEXPAVCEntity@@ABV?$Vector@M$02@@1@Z
       2381  94C 000F1C50 ?Init@CCommunicationInterface@@QAEXXZ
       2382  94D 00060530 ?Init@CGfxLibrary@@QAEXXZ
       2383  94E 000F9CC0 ?Init@CMessageDispatcher@@QAEXABVCTString@@@Z
       2384  94F 000E9E60 ?Init@CNetworkLibrary@@QAEXABVCTString@@@Z
       2385  950 00090F10 ?Init@CSoundLibrary@@QAEXXZ
       2386  951 0004D2A0 ?InitAPIs@CGfxLibrary@@AAEXXZ
       2387  952 0011F620 ?InitAsBrush@CEntity@@QAEXXZ
       2388  953 0011AC50 ?InitAsEditorModel@CEntity@@QAEXXZ
       2389  954 0011F6D0 ?InitAsFieldBrush@CEntity@@QAEXXZ
       2390  955 0011AB00 ?InitAsModel@CEntity@@QAEXXZ
       2391  956 0011AD20 ?InitAsSkaEditorModel@CEntity@@QAEXXZ
       2392  957 0011ABD0 ?InitAsSkaModel@CEntity@@QAEXXZ
       2393  958 0011F480 ?InitAsTerrain@CEntity@@QAEXXZ
       2394  959 00118B90 ?InitAsVoid@CEntity@@QAEXXZ
       2395  95A 000EC550 ?InitCRCGather@CNetworkLibrary@@QAEXXZ
       2396  95B 00054980 ?InitCloned@CDrawPort@@QAEXPAV1@NNNN@Z
       2397  95C 000C9830 ?InitCollisionGrid@CWorld@@QAEXXZ
       2398  95D 00065040 ?InitContext_D3D@CGfxLibrary@@AAEXXZ
       2399  95E 0006AB50 ?InitContext_OGL@CGfxLibrary@@AAEXXZ
       2400  95F 0001A620 ?InitDevice@CInputDevice@@QAEHW4DeviceType@@@Z
       2401  960 00064AE0 ?InitDisplay_D3D@CGfxLibrary@@AAEHJJJW4DisplayDepth@@@Z
       2402  961 000643C0 ?InitDriver_D3D@CGfxLibrary@@AAEHXZ
       2403  962 0006A8D0 ?InitDriver_OGL@CGfxLibrary@@AAEHH@Z
       2404  963 00028450 ?InitExceptionHandler@@YAXXZ
       2405  964 00100D50 ?InitServerNetProcess@CServer@@QAEXXZ
       2406  965 000545E0 ?InitTexture@CDrawPort@@QBEXPAVCTextureObject@@HK@Z
       2407  966 00030730 ?InitTranslation@@YAXXZ
       2408  967 000F1CD0 ?InitWinsock@CCommunicationInterface@@QAEXXZ
       2409  968 00122D20 ?Initialize@CEntity@@QAEXABVCEntityEvent@@H@Z
       2410  969 0001C1B0 ?Initialize@CInput@@QAEXXZ
       2411  96A 000FA5B0 ?Initialize@CNetworkMessage@@QAEXABV1@@Z
       2412  96B 000FA600 ?Initialize@CNetworkMessage@@QAEXW4NetworkMessageType@@@Z
       2413  96C 000FA590 ?Initialize@CNetworkMessage@@QAEXXZ
       2414  96D 00081E70 ?Initialize@CShadowMap@@QAEXJJJJJ@Z
       2415  96E 00025F30 ?Initialize@CShell@@QAEXXZ
       2416  96F 00122E20 ?InitializeFromNet@CEntity@@UAEXXZ
       2417  970 001A11D0 ?InitializePlayer@CPlayerEntity@@QAEXKKK@Z
       2418  971 001363C0 ?InitializeShadowMap@CBrushPolygon@@QAEXXZ
       2419  972 00118A00 ?Initialize_internal@CEntity@@QAEXABVCEntityEvent@@@Z
       2420  973 00014D62 ?InsertChar@CTString@@QAEXJD@Z
       2421  974 0017CBF0 ?InsertCmd@CEffect@@QAEXViterator@?$list@PAVCCmd@@V?$allocator@PAVCCmd@@@std@@@std@@PAVCCmd@@@Z
       2422  975 000FAE60 ?InsertSubMessage@CNetworkMessage@@QAEXABV1@@Z
       2423  976 00014E22 ?InsertSubString@CTString@@QAEXJABV1@@Z
       2424  977 00134D40 ?InsertVertexIntoTriangle@CBrushSector@@QAEXAAV?$CSelection@VCBrushPolygon@@$0BAA@@@V?$Vector@M$02@@@Z
       2425  978 00081450 ?Invalidate@CShadowMap@@QAEXH@Z
       2426  979 00033AF0 ?Invalidate@CUpdateable@@QAEXXZ
       2427  97A 00033B40 ?Invalidate@CUpdateableRT@@QAEXXZ
       2428  97B 00038CD0 ?Inverse@CObject3D@@QAEXXZ
       2429  97C 00196390 ?IsActionApplied@CMovableEntity@@UAEHXZ
       2430  97D 000E5FF0 ?IsActive@CPlayerSource@@QAEHXZ
       2431  97E 00001860 ?IsActive@CSoundLibrary@@QAEHXZ
       2432  97F 00011BE0 ?IsAnimFinished@CAnimObject@@QBEHXZ
       2433  980 001194C0 ?IsAnimationPlaying@CEntity@@QAEHJJ@Z
       2434  981 00152F90 ?IsAnimationPlaying@CModelInstance@@QAEHJ@Z
       2435  982 001251D0 ?IsAutoFreed@CEntityClass@@UAEHXZ
       2436  983 000A3C60 ?IsAutoFreed@CModelData@@UAEHXZ
       2437  984 00006710 ?IsAutoFreed@CModelInstanceSerial@@UAEHXZ
       2438  985 00001C30 ?IsAutoFreed@CSerial@@UAEHXZ
       2439  986 0008CC50 ?IsAutoFreed@CSoundData@@UAEHXZ
       2440  987 00083AB0 ?IsAutoFreed@CTextureData@@UAEHXZ
       2441  988 000BE870 ?IsAutoMipBrushingOn@CWorldRenderPrefs@@QAEHXZ
       2442  989 000A3EE0 ?IsAutoMipModeling@CModelObject@@QAEHXZ
       2443  98A 000BE7B0 ?IsBackgroundTextureOn@CWorldRenderPrefs@@QAEHXZ
       2444  98B 0004FF60 ?IsBigger@@YAHKK@Z
       2445  98C 0004FF00 ?IsBlack@@YAHK@Z
       2446  98D 00001E40 ?IsCharDefined@CFontData@@QBEHD@Z
       2447  98E 00087210 ?IsCompressed@CTextureData@@QAEHXZ
       2448  98F 000E6DB0 ?IsConnectionStable@CNetworkLibrary@@QAEHXZ
       2449  990 00001960 ?IsCurrentModeAccelerated@CGfxLibrary@@QAEHXZ
       2450  991 00001970 ?IsCurrentModeDH@CGfxLibrary@@QAEHXZ
       2451  992 00001980 ?IsCurrentModeTH@CGfxLibrary@@QAEHXZ
       2452  993 000E6C60 ?IsDemoPlayFinished@CNetworkLibrary@@QAEHXZ
       2453  994 001187B0 ?IsDerivedFromClass@@YAHPAVCEntity@@PAVCDLLEntityClass@@@Z
       2454  995 00118740 ?IsDerivedFromClass@@YAHPAVCEntity@@PBD@Z
       2455  996 000E6E30 ?IsDisconnected@CNetworkLibrary@@QAEHXZ
       2456  997 00102410 ?IsDisconnected@CSessionState@@QAEHXZ
       2457  998 00052590 ?IsDualHead@CDisplayMode@@QAEHXZ
       2458  999 00052890 ?IsDualHead@CDrawPort@@QAEHXZ
       2459  99A 000BE770 ?IsEditorModelsOn@CWorldRenderPrefs@@QAEHXZ
       2460  99B 0001CBF0 ?IsEmpty@CListHead@@QBEHXZ
       2461  99C 0011A290 ?IsEmptyBrush@CEntity@@QBEHXZ
       2462  99D 001942F0 ?IsExtinct@CPGroup@@QBEHXZ
       2463  99E 000BE790 ?IsFieldBrushesOn@CWorldRenderPrefs@@QAEHXZ
       2464  99F 0002DC70 ?IsFileReadOnly@@YAHABVCTFileName@@@Z
       2465  9A0 00003F30 ?IsFirstMip@CBrushMip@@QAEHXZ
       2466  9A1 00001DD0 ?IsFixedWidth@CFontData@@QBEHXZ
       2467  9A2 00004E00 ?IsFlagOff@CEntity@@QAEKK@Z
       2468  9A3 00004DF0 ?IsFlagOn@CEntity@@QAEKK@Z
       2469  9A4 00003430 ?IsFlat@CShadowMap@@QAEHXZ
       2470  9A5 000BE810 ?IsFogOn@CWorldRenderPrefs@@QAEHXZ
       2471  9A6 000525F0 ?IsFullScreen@CDisplayMode@@QAEHXZ
       2472  9A7 000E6F40 ?IsGameFinished@CNetworkLibrary@@QAEHXZ
       2473  9A8 00050360 ?IsGray@@YAHK@Z
       2474  9A9 000BE830 ?IsHazeOn@CWorldRenderPrefs@@QAEHXZ
       2475  9AA 000012A0 ?IsHead@CListNode@@QBEHXZ
       2476  9AB 00001280 ?IsHeadMarker@CListNode@@QBEHXZ
       2477  9AC 000BE710 ?IsHiddenLinesOn@CWorldRenderPrefs@@QAEHXZ
       2478  9AD 0001FA40 ?IsHooked@CSoundObject@@QBEHXZ
       2479  9AE 00118830 ?IsImportant@CEntity@@UBEHXZ
       2480  9AF 00001560 ?IsInputEnabled@CInput@@QBEHXZ
       2481  9B0 00044FE0 ?IsIntersecting@CIntersector@@QAEHXZ
       2482  9B1 00002F20 ?IsIsometric@CAnyProjection3D@@QAEHXZ
       2483  9B2 0001CCB0 ?IsLinked@CListNode@@QBEHXZ
       2484  9B3 0002F730 ?IsLocked@CTSingleLock@@QAEHXZ
       2485  9B4 00118820 ?IsMarker@CEntity@@UBEHXZ
       2486  9B5 000BE850 ?IsMirrorsOn@CWorldRenderPrefs@@QAEHXZ
       2487  9B6 00152760 ?IsModelVisible@CModelInstance@@QAEHM@Z
       2488  9B7 000A6CF0 ?IsModelVisible@CModelObject@@QAEHM@Z
       2489  9B8 00003240 ?IsModified@CTextureData@@QAEHXZ
       2490  9B9 000F1DC0 ?IsNetworkEnabled@CCommunicationInterface@@QAEHXZ
       2491  9BA 000E6D60 ?IsNetworkEnabled@CNetworkLibrary@@QAEHXZ
       2492  9BB 00046440 ?IsObjectPlaneVisible@CIsometricProjection3D@@UBEHABV?$Plane@M$02@@@Z
       2493  9BC 00047C50 ?IsObjectPlaneVisible@CParallelProjection3D@@UBEHABV?$Plane@M$02@@@Z
       2494  9BD 00049750 ?IsObjectPlaneVisible@CPerspectiveProjection3D@@UBEHABV?$Plane@M$02@@@Z
       2495  9BE 000499F0 ?IsObjectPlaneVisible@CSimpleProjection3D@@UBEHABV?$Plane@M$02@@@Z
       2496  9BF 00006360 ?IsOfClass@@YAHPAVCEntity@@PAVCDLLEntityClass@@@Z
       2497  9C0 001186A0 ?IsOfClass@@YAHPAVCEntity@@PBD@Z
       2498  9C1 00118710 ?IsOfSameClass@@YAHPAVCEntity@@0@Z
       2499  9C2 00019310 ?IsOverlappedRendering@CDrawPort@@QBEHXZ
       2500  9C3 00002F60 ?IsParallel@CAnyProjection3D@@QAEHXZ
       2501  9C4 00011A70 ?IsPaused@CAnimObject@@QAEHXZ
       2502  9C5 000E6D90 ?IsPaused@CNetworkLibrary@@QAEHXZ
       2503  9C6 0001FA30 ?IsPaused@CSoundObject@@QBEHXZ
       2504  9C7 00002F40 ?IsPerspective@CAnyProjection3D@@QAEHXZ
       2505  9C8 00002980 ?IsPerspective@CPerspectiveProjection3D@@UAEHXZ
       2506  9C9 000024C0 ?IsPerspective@CProjection3D@@UAEHXZ
       2507  9CA 00004EE0 ?IsPlayer@CEntity@@UAEHXZ
       2508  9CB 001A1250 ?IsPlayer@CPlayerEntity@@UAEHXZ
       2509  9CC 000EC530 ?IsPlayerLocal@CNetworkLibrary@@QAEHPAVCEntity@@@Z
       2510  9CD 0001FA20 ?IsPlaying@CSoundObject@@QBEHXZ
       2511  9CE 000E6C80 ?IsPlayingDemo@CNetworkLibrary@@QAEHXZ
       2512  9CF 000534A0 ?IsPointVisible@CDrawPort@@QBEHJJMJJ@Z
       2513  9D0 00198CA0 ?IsPolygonBelowPoint@CMovableEntity@@QAEHPAVCBrushPolygon@@ABV?$Vector@M$02@@M@Z
       2514  9D1 00130A30 ?IsReTripleAvailable@CBrushSector@@QAEHAAV?$CSelection@VCBrushPolygon@@$0BAA@@@@Z
       2515  9D2 00002240 ?IsReadable@CTFileStream@@UAEHXZ
       2516  9D3 0002B720 ?IsReadable@CTMemoryStream@@UAEHXZ
       2517  9D4 001963E0 ?IsReapplyingActions@CMovableEntity@@UAEHXZ
       2518  9D5 000E6D50 ?IsRecordingDemo@CNetworkLibrary@@QAEHXZ
       2519  9D6 00002250 ?IsSeekable@CTFileStream@@UAEHXZ
       2520  9D7 0002B760 ?IsSeekable@CTMemoryStream@@UAEHXZ
       2521  9D8 00003C60 ?IsSelected@CBrushPolygon@@QBEHK@Z
       2522  9D9 00003CD0 ?IsSelected@CBrushSector@@QBEHK@Z
       2523  9DA 00003650 ?IsSelected@CBrushVertex@@QBEHK@Z
       2524  9DB 00004D90 ?IsSelected@CEntity@@QBEHK@Z
       2525  9DC 00118810 ?IsSentOverNet@CEntity@@UBEHXZ
       2526  9DD 00005850 ?IsServer@CNetworkLibrary@@QAEHXZ
       2527  9DE 00135FB0 ?IsShadowFlat@CBrushShadowMap@@UAEHAAK@Z
       2528  9DF 00003420 ?IsShadowFlat@CShadowMap@@UAEHAAK@Z
       2529  9E0 000BE750 ?IsShowEntityNamesOn@CWorldRenderPrefs@@QAEHXZ
       2530  9E1 000BE730 ?IsShowTargetsOn@CWorldRenderPrefs@@QAEHXZ
       2531  9E2 00002F10 ?IsSimple@CAnyProjection3D@@QAEHXZ
       2532  9E3 00196540 ?IsSomeNearPolygonBelowPoint@CMovableEntity@@QAEHABV?$Vector@M$02@@M@Z
       2533  9E4 00198F20 ?IsSomeSectorPolygonBelowPoint@CMovableEntity@@QAEHPAVCBrushSector@@ABV?$Vector@M$02@@M@Z
       2534  9E5 00198AF0 ?IsStandingOnPolygon@CMovableEntity@@QAEHPAVCBrushPolygon@@@Z
       2535  9E6 000012B0 ?IsTail@CListNode@@QBEHXZ
       2536  9E7 00001290 ?IsTailMarker@CListNode@@QBEHXZ
       2537  9E8 00118870 ?IsTargetValid@CEntity@@UAEHJPAV1@@Z
       2538  9E9 00118800 ?IsTargetable@CEntity@@UBEHXZ
       2539  9EA 000BE8B0 ?IsTextureLayerOn@CWorldRenderPrefs@@QAEHJ@Z
       2540  9EB 000525B0 ?IsTripleHead@CDisplayMode@@QAEHXZ
       2541  9EC 000528B0 ?IsTripleHead@CDrawPort@@QAEHXZ
       2542  9ED 00011A80 ?IsUpToDate@CAnimObject@@QBEHABVCUpdateable@@@Z
       2543  9EE 00016260 ?IsUpToDate@CChangeable@@QBEHABVCUpdateable@@@Z
       2544  9EF 000162C0 ?IsUpToDate@CChangeableRT@@QBEHABVCUpdateableRT@@@Z
       2545  9F0 00023CC0 ?IsUsed@CSerial@@QAEHXZ
       2546  9F1 001185D0 ?IsValid@CEntityID@@QAEHXZ
       2547  9F2 0001CBE0 ?IsValid@CListHead@@QBEHXZ
       2548  9F3 0001CC90 ?IsValid@CListNode@@QBEHXZ
       2549  9F4 000375B0 ?IsValidDouble@@YAHN@Z
       2550  9F5 00037580 ?IsValidFloat@@YAHM@Z
       2551  9F6 00045570 ?IsViewerPlaneVisible@CIsometricProjection3D@@UBEHABV?$Plane@M$02@@@Z
       2552  9F7 000471A0 ?IsViewerPlaneVisible@CParallelProjection3D@@UBEHABV?$Plane@M$02@@@Z
       2553  9F8 00048210 ?IsViewerPlaneVisible@CPerspectiveProjection3D@@UBEHABV?$Plane@M$02@@@Z
       2554  9F9 00049AE0 ?IsViewerPlaneVisible@CSimpleProjection3D@@UBEHABV?$Plane@M$02@@@Z
       2555  9FA 000BE7F0 ?IsVisTweaksDisabled@CWorldRenderPrefs@@QAEHXZ
       2556  9FB 000BE7D0 ?IsVisTweaksOn@CWorldRenderPrefs@@QAEHXZ
       2557  9FC 000E6F70 ?IsWaitingForPlayers@CNetworkLibrary@@QAEHXZ
       2558  9FD 000E6FC0 ?IsWaitingForServer@CNetworkLibrary@@QAEHXZ
       2559  9FE 0004FF30 ?IsWhite@@YAHK@Z
       2560  9FF 000525D0 ?IsWideScreen@CDisplayMode@@QAEHXZ
       2561  A00 000528E0 ?IsWideScreen@CDrawPort@@QAEHXZ
       2562  A01 00002230 ?IsWriteable@CTFileStream@@UAEHXZ
       2563  A02 0002B740 ?IsWriteable@CTMemoryStream@@UAEHXZ
       2564  A03 000012E0 ?IterationHead@CListHead@@QBEAAVCListNode@@XZ
       2565  A04 00001240 ?IterationInsertAfter@CListNode@@QAEXAAV1@@Z
       2566  A05 00001260 ?IterationInsertBefore@CListNode@@QAEXAAV1@@Z
       2567  A06 00001230 ?IterationPred@CListNode@@QBEAAV1@XZ
       2568  A07 00001220 ?IterationSucc@CListNode@@QBEAAV1@XZ
       2569  A08 000012F0 ?IterationTail@CListHead@@QBEAAVCListNode@@XZ
       2570  A09 0018E640 ?Jet@CPGroup@@QAEXV?$Vector@M$02@@MMM@Z
       2571  A0A 000C0DD0 ?JoinAllPossiblePolygons@CWorld@@QAEXAAV?$CSelection@VCBrushPolygon@@$0BAA@@@HJ@Z
       2572  A0B 00040020 ?JoinContinuingEdges@CObjectPolygon@@QAEXAAV?$CDynamicArray@VCObjectEdge@@@@@Z
       2573  A0C 000C0BC0 ?JoinPolygons@CWorld@@QAEXAAV?$CSelection@VCBrushPolygon@@$0BAA@@@@Z
       2574  A0D 000C0890 ?JoinSectors@CWorld@@QAEXAAV?$CSelection@VCBrushSector@@$00@@@Z
       2575  A0E 000EE800 ?JoinSession_t@CNetworkLibrary@@QAEXABVCNetworkSession@@J@Z
       2576  A0F 000C06B0 ?JoinTwoSectors@CWorld@@QAEPAVCBrushSector@@AAV2@0@Z
       2577  A10 00004CE0 ?Jump@CEntity@@QAEXJJHABVCEntityEvent@@@Z
       2578  A11 0011CDF0 ?Jump@CRationalEntity@@QAEXJJHABVCEntityEvent@@@Z
       2579  A12 001944D0 ?KillOld@CPGroup@@QAEXMH@Z
       2580  A13 001963D0 ?Landing@CMovableEntity@@UAEXXZ
       2581  A14 00011A00 ?LastFrame@CAnimObject@@QAEXXZ
       2582  A15 00033AE0 ?LastUpdateTime@CUpdateable@@QBEMXZ
       2583  A16 00033B30 ?LastUpdateTime@CUpdateableRT@@QBEMXZ
       2584  A17 001968B0 ?LaunchAsFreeProjectile@CMovableEntity@@QAEXABV?$Vector@M$02@@PAV1@@Z
       2585  A18 00196810 ?LaunchAsPropelledProjectile@CMovableEntity@@QAEXABV?$Vector@M$02@@PAV1@@Z
       2586  A19 00001000 ?Length@CTString@@QBEJXZ
       2587  A1A 00015D90 ?Length@CTWString@@QBEJXZ
       2588  A1B 00015CB2 ?LengthNaked@CTString@@QBEJXZ
       2589  A1C 00044450 ?Lerp@CPlacement3D@@QAEXABV1@0M@Z
       2590  A1D 000FB310 ?Lerp@CPlayerAction@@QAEXABV1@0M@Z
       2591  A1E 000508F0 ?LerpColor@@YAKKKM@Z
       2592  A1F 000507A0 ?LerpColor@@YAXKKMAAE00@Z
       2593  A20 000A8410 ?LinkDataForSurfaces@CModelData@@QAEXH@Z
       2594  A21 000B9D60 ?LinkEntitiesToSectors@CWorld@@QAEXXZ
       2595  A22 0012B280 ?LinkPortalsAndSectors@CBrushArchive@@QAEXXZ
       2596  A23 0008F450 ?Listen@CSoundLibrary@@QAEXAAVCSoundListener@@@Z
       2597  A24 0003DAC0 ?LoadAny3DFormat_t@CObject3D@@QAEXABVCTFileName@@ABV?$Matrix@M$02$02@@W4LoadType@1@@Z
       2598  A25 00079980 ?LoadAnyGfxFormat_t@CImageInfo@@QAEXABVCTFileName@@@Z
       2599  A26 000CC1A0 ?LoadBrushes_t@CWorld@@QAEXABVCTFileName@@@Z
       2600  A27 000124D0 ?LoadFromScript_t@CAnimData@@QAEXPAVCTStream@@PAVCListHead@@@Z
       2601  A28 0009EEC0 ?LoadFromScript_t@CEditModel@@QAEXAAVCTFileName@@@Z
       2602  A29 00015802 ?LoadIntVar@@YAXABVCTFileName@@AAJ@Z
       2603  A2A 00014B60 ?LoadKeepCRLF_t@CTString@@QAEXABVCTFileName@@@Z
       2604  A2B 0009E980 ?LoadMapping_t@CEditModel@@QAEXVCTFileName@@J@Z
       2605  A2C 0009CA50 ?LoadModelAnimationData_t@CEditModel@@AAEXPAVCTStream@@ABV?$Matrix@M$02$02@@@Z
       2606  A2D 000791A0 ?LoadPCX_t@CImageInfo@@AAEXABVCTFileName@@@Z
       2607  A2E 000157F2 ?LoadStringVar@@YAXABVCTFileName@@AAVCTString@@@Z
       2608  A2F 000795C0 ?LoadTGA_t@CImageInfo@@AAEXABVCTFileName@@@Z
       2609  A30 00015742 ?LoadVar@CTString@@QAEXABVCTFileName@@@Z
       2610  A31 0008CD20 ?LoadWAV_t@CSoundData@@QAEXPAVCTStream@@J@Z
       2611  A32 0009BD70 ?Load_t@CEditModel@@QAEXVCTFileName@@@Z
       2612  A33 000ECB50 ?Load_t@CNetworkLibrary@@QAEXABVCTFileName@@@Z
       2613  A34 00129B70 ?Load_t@CPlayerCharacter@@QAEXABVCTFileName@@@Z
       2614  A35 00023A30 ?Load_t@CSerial@@QAEXVCTFileName@@@Z
       2615  A36 00014AF0 ?Load_t@CTString@@QAEXABVCTFileName@@@Z
       2616  A37 000CE2B0 ?Load_t@CWorld@@QAEXABVCTFileName@@@Z
       2617  A38 000193E0 ?Lock@CDrawPort@@QAEHXZ
       2618  A39 0002F680 ?Lock@CTSingleLock@@QAEXXZ
       2619  A3A 00130960 ?LockAll@CBrushSector@@QAEXXZ
       2620  A3B 000B9240 ?LockAll@CWorld@@QAEXXZ
       2621  A3C 0002B690 ?LockBuffer@CTMemoryStream@@QAEXPAPAXPAJ@Z
       2622  A3D 0005F250 ?LockDrawPort@CGfxLibrary@@QAEHPAVCDrawPort@@@Z
       2623  A3E 0005F410 ?LockRaster@CGfxLibrary@@QAEHPAVCRaster@@@Z
       2624  A3F 000529D0 ?Lock_internal@CDrawPort@@QAEHXZ
       2625  A40 0001CF60 ?MEM_CAlloc@@YAPAXII@Z
       2626  A41 0001CF10 ?MEM_Free@@YAXPAX@Z
       2627  A42 0001CFB0 ?MEM_GetFreeMemory@@YAIXZ
       2628  A43 0001CEC0 ?MEM_MAlloc@@YAPAXI@Z
       2629  A44 0001CF20 ?MEM_ReAlloc@@YAPAXPAXI@Z
       2630  A45 0001CFA0 ?MEM_Size@@YAIPAX@Z
       2631  A46 000EDA90 ?MainLoop@CNetworkLibrary@@QAEXXZ
       2632  A47 0011E5A0 ?MakeBoxAtPlacement@CCollisionInfo@@QAEXABV?$Vector@M$02@@ABV?$Matrix@M$02$02@@AAV?$AABBox@M$02@@@Z
       2633  A48 0000AF60 ?MakeCopy@CEntityEvent@@UAEPAV1@XZ
       2634  A49 00195640 ?MakeCopy@EBegin@@UAEPAVCEntityEvent@@XZ
       2635  A4A 00195D30 ?MakeCopy@EBlock@@UAEPAVCEntityEvent@@XZ
       2636  A4B 00195930 ?MakeCopy@EComboFall@@UAEPAVCEntityEvent@@XZ
       2637  A4C 00195D50 ?MakeCopy@EDamage@@UAEPAVCEntityEvent@@XZ
       2638  A4D 00195E40 ?MakeCopy@EDeath@@UAEPAVCEntityEvent@@XZ
       2639  A4E 001958A0 ?MakeCopy@EFirstWorldBase@@UAEPAVCEntityEvent@@XZ
       2640  A4F 00195550 ?MakeCopy@EInternal@@UAEPAVCEntityEvent@@XZ
       2641  A50 00195CF0 ?MakeCopy@EPass@@UAEPAVCEntityEvent@@XZ
       2642  A51 001959F0 ?MakeCopy@EPlayerInit@@UAEPAVCEntityEvent@@XZ
       2643  A52 00195840 ?MakeCopy@EPostLevelChange@@UAEPAVCEntityEvent@@XZ
       2644  A53 001957E0 ?MakeCopy@EPreLevelChange@@UAEPAVCEntityEvent@@XZ
       2645  A54 001955F0 ?MakeCopy@EReturn@@UAEPAVCEntityEvent@@XZ
       2646  A55 00195990 ?MakeCopy@ETakingBreath@@UAEPAVCEntityEvent@@XZ
       2647  A56 00195790 ?MakeCopy@ETeleport@@UAEPAVCEntityEvent@@XZ
       2648  A57 00195690 ?MakeCopy@ETimer@@UAEPAVCEntityEvent@@XZ
       2649  A58 00195CD0 ?MakeCopy@ETouch@@UAEPAVCEntityEvent@@XZ
       2650  A59 001955A0 ?MakeCopy@EVoid@@UAEPAVCEntityEvent@@XZ
       2651  A5A 00195740 ?MakeCopy@EWouldFall@@UAEPAVCEntityEvent@@XZ
       2652  A5B 00016F80 ?MakeDirList@@YAXAAV?$CDynamicStackArray@VCTFileName@@@@ABVCTFileName@@ABVCTString@@K@Z
       2653  A5C 0012A480 ?MakeIndices@CBrushArchive@@QAEXXZ
       2654  A5D 00037BE0 ?MakeInverseRotationMatrix@@YAXAAV?$Matrix@M$02$02@@ABV?$Vector@M$02@@@Z
       2655  A5E 00037CD0 ?MakeInverseRotationMatrixFast@@YAXAAV?$Matrix@M$02$02@@ABV?$Vector@M$02@@@Z
       2656  A5F 0004BE00 ?MakeMappingVectors@CMappingDefinition@@QBEXABVCMappingVectors@@AAV2@@Z
       2657  A60 00078C90 ?MakeMipmaps@@YAXPAKJJJ@Z
       2658  A61 00045210 ?MakeOoKGradient@CIsometricProjection3D@@UBEXABV?$Plane@M$02@@AAVCPlanarGradients@@@Z
       2659  A62 00047120 ?MakeOoKGradient@CParallelProjection3D@@UBEXABV?$Plane@M$02@@AAVCPlanarGradients@@@Z
       2660  A63 000481A0 ?MakeOoKGradient@CPerspectiveProjection3D@@UBEXABV?$Plane@M$02@@AAVCPlanarGradients@@@Z
       2661  A64 000499C0 ?MakeOoKGradient@CSimpleProjection3D@@UBEXABV?$Plane@M$02@@AAVCPlanarGradients@@@Z
       2662  A65 00130D20 ?MakePlanesFromVertices@CBrushSector@@QAEXXZ
       2663  A66 00037A10 ?MakeRotationMatrix@@YAXAAV?$Matrix@M$02$02@@ABV?$Vector@M$02@@@Z
       2664  A67 00037B00 ?MakeRotationMatrixFast@@YAXAAV?$Matrix@M$02$02@@ABV?$Vector@M$02@@@Z
       2665  A68 0013AAC0 ?MakeShadowMap@CBrushPolygon@@QAEXPAVCWorld@@H@Z
       2666  A69 000775A0 ?MakeSubMipmap@@YAXPAK0J@Z
       2667  A6A 00054BB0 ?MakeWideScreen@CDrawPort@@QAEXPAV1@@Z
       2668  A6B 0005D800 ?Make_t@CFontData@@QAEXABVCTFileName@@JJAAV2@H@Z
       2669  A6C 00016250 ?MarkChanged@CChangeable@@QAEXXZ
       2670  A6D 000162A0 ?MarkChanged@CChangeableRT@@QAEXXZ
       2671  A6E 00081470 ?MarkDrawn@CShadowMap@@QAEXXZ
       2672  A6F 000031F0 ?MarkDrawn@CTextureData@@QAEXXZ
       2673  A70 00023CB0 ?MarkUnused@CSerial@@QAEXXZ
       2674  A71 00033AD0 ?MarkUpdated@CUpdateable@@QAEXXZ
       2675  A72 00033B10 ?MarkUpdated@CUpdateableRT@@QAEXXZ
       2676  A73 00023CA0 ?MarkUsed@CSerial@@QAEXXZ
       2677  A74 000FE200 ?MaskOfPlayersOnClient@CServer@@QAEKJ@Z
       2678  A75 0018F8A0 ?MatchVelocity@CPGroup@@QAEXMMM@Z
       2679  A76 00015732 ?Matches@CTString@@QBEHABV1@@Z
       2680  A77 00014F22 ?Matches@CTString@@QBEHPBD@Z
       2681  A78 001634F0 ?Matrix12ToQVect@@YAXAAUQVect@@AAY0M@$$CBM@Z
       2682  A79 0018CA90 ?MaxParticles@CPGroup@@QAEXJ@Z
       2683  A7A 00045270 ?MipFactor@CIsometricProjection3D@@UBEMM@Z
       2684  A7B 000452A0 ?MipFactor@CIsometricProjection3D@@UBEMXZ
       2685  A7C 000471E0 ?MipFactor@CParallelProjection3D@@UBEMM@Z
       2686  A7D 00047210 ?MipFactor@CParallelProjection3D@@UBEMXZ
       2687  A7E 00047E90 ?MipFactor@CPerspectiveProjection3D@@UBEMM@Z
       2688  A7F 00048240 ?MipFactor@CPerspectiveProjection3D@@UBEMXZ
       2689  A80 00049A00 ?MipFactor@CSimpleProjection3D@@UBEMM@Z
       2690  A81 00049A10 ?MipFactor@CSimpleProjection3D@@UBEMXZ
       2691  A82 00118960 ?MirrorAndStretch@CEntity@@UAEXMH@Z
       2692  A83 00127A00 ?MirrorAndStretch@CWorld@@QAEXAAV1@MW4WorldMirrorType@@@Z
       2693  A84 00002DA0 ?MirrorPlaneL@CProjection3D@@QAEAAV?$Plane@M$02@@XZ
       2694  A85 00002DB0 ?MirrorPlaneR@CProjection3D@@QBEABV?$Plane@M$02@@XZ
       2695  A86 00196500 ?MiscDamageInflictor@CMovableEntity@@QAEPAVCEntity@@XZ
       2696  A87 0013C570 ?MixLayers@CBrushShadowMap@@UAEXJJH@Z
       2697  A88 00081620 ?MixLayers@CShadowMap@@UAEXJJH@Z
       2698  A89 0008FA40 ?MixSounds@CSoundLibrary@@AAEXXZ
       2699  A8A 00122A40 ?ModelChangeNotify@CEntity@@QAEXXZ
       2700  A8B 0018CFF0 ?Move@CPGroup@@QAEXXZ
       2701  A8C 000C9490 ?MoveEntityInCollisionGrid@CWorld@@QAEXPAVCEntity@@ABV?$AABBox@M$02@@1@Z
       2702  A8D 0001CC50 ?MoveList@CListHead@@QAEXAAV1@@Z
       2703  A8E 0009E6B0 ?MovePatchRelative@CEditModel@@QAEXJV?$Vector@J$01@@@Z
       2704  A8F 0012F130 ?MovePolygonEdges@CBrushPolygon@@QAEXAAV1@@Z
       2705  A90 000C0060 ?MoveTargetBrushPartToObject@CWorld@@QAEXAAVCEntity@@AAV?$AABBox@N$02@@AAVCObject3D@@@Z
       2706  A91 00118840 ?MovesByTargetedRoute@CEntity@@UBEHAAVCTString@@@Z
       2707  A92 0004FFC0 ?MulColors@@YAKKK@Z
       2708  A93 0008F4D0 ?Mute@CSoundLibrary@@QAEXM@Z
       2709  A94 001251E0 ?NameForValue@CEntityPropertyEnumType@@QAEPBDJ@Z
       2710  A95 00002CE0 ?NearClipDistanceL@CProjection3D@@QAEAAMXZ
       2711  A96 00002CF0 ?NearClipDistanceR@CProjection3D@@QBEABMXZ
       2712  A97 00124F60 ?New@CEntityClass@@QAEPAVCEntity@@XZ
       2713  A98 00129C90 ?NewBrushMipAfter@CBrush3D@@QAEPAVCBrushMip@@PAV2@H@Z
       2714  A99 00129D20 ?NewBrushMipBefore@CBrush3D@@QAEPAVCBrushMip@@PAV2@H@Z
       2715  A9A 001193C0 ?NewClearState@CEntity@@QAEXMJ@Z
       2716  A9B 00153C50 ?NewClearState@CModelInstance@@QAEXM@Z
       2717  A9C 001192C0 ?NewClonedState@CEntity@@QAEXMJ@Z
       2718  A9D 00153EE0 ?NewClonedState@CModelInstance@@QAEXM@Z
       2719  A9E 0009C3D0 ?NewModel@CEditModel@@AAEXPAVCObject3D@@@Z
       2720  A9F 00011990 ?NextAnim@CAnimObject@@QAEXXZ
       2721  AA0 00011A30 ?NextFrame@CAnimObject@@QAEXXZ
       2722  AA1 000A4A60 ?NextManualMipLevel@CModelObject@@QAEXXZ
       2723  AA2 00017C10 ?NoExt@CTFileName@@QBE?AV1@XZ
       2724  AA3 000FAAC0 ?Normalize@CPlayerAction@@QAEXXZ
       2725  AA4 00121740 ?NotifyCollisionChanged@CEntity@@QAEXXZ
       2726  AA5 0011C4E0 ?NotifyGravityChanged@CEntity@@QAEXXZ
       2727  AA6 00002E10 ?ObjectFaceForwardL@CProjection3D@@QAEAAHXZ
       2728  AA7 00002E20 ?ObjectFaceForwardR@CProjection3D@@QBEABHXZ
       2729  AA8 00002E30 ?ObjectHalfFaceForwardL@CProjection3D@@QAEAAHXZ
       2730  AA9 00002E40 ?ObjectHalfFaceForwardR@CProjection3D@@QBEABHXZ
       2731  AAA 00002CA0 ?ObjectHandleL@CProjection3D@@QAEAAV?$Vector@M$02@@XZ
       2732  AAB 00002CB0 ?ObjectHandleR@CProjection3D@@QBEABV?$Vector@M$02@@XZ
       2733  AAC 00002C80 ?ObjectPlacementL@CProjection3D@@QAEAAVCPlacement3D@@XZ
       2734  AAD 00038770 ?ObjectPlacementL@CSimpleProjection3D_DOUBLE@@QAEAAVCPlacement3D@@XZ
       2735  AAE 00002C90 ?ObjectPlacementR@CProjection3D@@QBEABVCPlacement3D@@XZ
       2736  AAF 00038780 ?ObjectPlacementR@CSimpleProjection3D_DOUBLE@@QBEABVCPlacement3D@@XZ
       2737  AB0 00002D60 ?ObjectStretchL@CProjection3D@@QAEAAV?$Vector@M$02@@XZ
       2738  AB1 00038790 ?ObjectStretchL@CSimpleProjection3D_DOUBLE@@QAEAAV?$Vector@M$02@@XZ
       2739  AB2 00002D70 ?ObjectStretchR@CProjection3D@@QBEABV?$Vector@M$02@@XZ
       2740  AB3 000387A0 ?ObjectStretchR@CSimpleProjection3D_DOUBLE@@QBEABV?$Vector@M$02@@XZ
       2741  AB4 00124F90 ?ObtainComponents_t@CEntityClass@@QAEXXZ
       2742  AB5 00154800 ?ObtainModelInstance_t@@YAPAVCModelInstance@@ABVCTString@@@Z
       2743  AB6 00154770 ?ObtainModelInstance_t@@YAXAAVCModelInstance@@ABVCTString@@@Z
       2744  AB7 00128240 ?ObtainWithCheck@CEntityComponent@@QAEXXZ
       2745  AB8 001280F0 ?Obtain_t@CEntityComponent@@QAEXXZ
       2746  AB9 000D7B30 ?Obtain_t@CStock_CAnimData@@QAEPAVCAnimData@@ABVCTFileName@@@Z
       2747  ABA 000D8E80 ?Obtain_t@CStock_CAnimSet@@QAEPAVCAnimSet@@ABVCTFileName@@@Z
       2748  ABB 000D9E80 ?Obtain_t@CStock_CEntityClass@@QAEPAVCEntityClass@@ABVCTFileName@@@Z
       2749  ABC 000DAFF0 ?Obtain_t@CStock_CFontData@@QAEPAVCFontData@@ABVCTFileName@@@Z
       2750  ABD 000DC160 ?Obtain_t@CStock_CMesh@@QAEPAVCMesh@@ABVCTFileName@@@Z
       2751  ABE 000DD350 ?Obtain_t@CStock_CModelData@@QAEPAVCModelData@@ABVCTFileName@@@Z
       2752  ABF 000DF2F0 ?Obtain_t@CStock_CModelInstance@@QAEPAVCModelInstanceSerial@@ABVCTFileName@@@Z
       2753  AC0 000E0460 ?Obtain_t@CStock_CShader@@QAEPAVCShader@@ABVCTFileName@@@Z
       2754  AC1 000E15D0 ?Obtain_t@CStock_CSkeleton@@QAEPAVCSkeleton@@ABVCTFileName@@@Z
       2755  AC2 000E2740 ?Obtain_t@CStock_CSmallScriptShader@@QAEPAVCSmallScriptShader@@ABVCTFileName@@@Z
       2756  AC3 000E3890 ?Obtain_t@CStock_CSoundData@@QAEPAVCSoundData@@ABVCTFileName@@@Z
       2757  AC4 000E4A40 ?Obtain_t@CStock_CTextureData@@QAEPAVCTextureData@@ABVCTFileName@@@Z
       2758  AC5 00119540 ?OffSetAnimationQueue@CEntity@@QAEXMJ@Z
       2759  AC6 00152D60 ?OffSetAnimationQueue@CModelInstance@@QAEXM@Z
       2760  AC7 00011980 ?OffsetPhase@CAnimObject@@QAEXM@Z
       2761  AC8 001189E0 ?OnEnd@CEntity@@UAEXXZ
       2762  AC9 00199E10 ?OnEnd@CMovableEntity@@UAEXXZ
       2763  ACA 0011A280 ?OnEnd@CRationalEntity@@UAEXXZ
       2764  ACB 001189B0 ?OnInitialize@CEntity@@UAEXABVCEntityEvent@@@Z
       2765  ACC 00199D30 ?OnInitialize@CMovableEntity@@UAEXABVCEntityEvent@@@Z
       2766  ACD 00122F40 ?OnInitialize@CRationalEntity@@UAEXABVCEntityEvent@@@Z
       2767  ACE 00014910 ?OnlyFirstLine@CTString@@QAEXXZ
       2768  ACF 0008C5F0 ?OpenCanvas@CViewPort@@QAEXXZ
       2769  AD0 000F3330 ?OpenSocket_t@CCommunicationInterface@@QAEXKK@Z
       2770  AD1 0002D2C0 ?Open_t@CTFileStream@@QAEXABVCTFileName@@W4OpenMode@CTStream@@@Z
       2771  AD2 00147D00 ?Optimize@CAnimSet@@QAEXXZ
       2772  AD3 0014E5C0 ?Optimize@CMesh@@QAEXXZ
       2773  AD4 000390C0 ?Optimize@CObject3D@@QAEXXZ
       2774  AD5 001475A0 ?OptimizeAnimation@CAnimSet@@QAEXAAUAnimation@@M@Z
       2775  AD6 0014C7D0 ?OptimizeLod@CMesh@@QAEXAAUMeshLOD@@@Z
       2776  AD7 00129ED0 ?OptimizeObject3D@CBrush3D@@SAXAAVCObject3D@@@Z
       2777  AD8 0018E960 ?OrbitLine@CPGroup@@QAEXV?$Vector@M$02@@0MMM@Z
       2778  AD9 0018ED60 ?OrbitPoint@CPGroup@@QAEXV?$Vector@M$02@@MMM@Z
       2779  ADA 000FA7E0 ?Pack@CNetworkMessage@@QAEXAAV1@AAVCCompressor@@@Z
       2780  ADB 000F4DD0 ?PackAngle@@YAKABV?$Vector@M$02@@@Z
       2781  ADC 000FB1D0 ?PackDefault@CNetworkMessage@@QAEXAAV1@@Z
       2782  ADD 000F4A40 ?PackFloat@@YAKEEEM@Z
       2783  ADE 000F4A10 ?PackFloatToWord@@YAFM@Z
       2784  ADF 000F4D60 ?PackFloatsToULONG@@YAKMMM@Z
       2785  AE0 000F4CB0 ?PackVectorToULONG@@YAKAAV?$Vector@M$02@@@Z
       2786  AE1 0027C528 ?PaletteColorValues@@3PAKA
       2787  AE2 00154840 ?ParseSmcFile_t@@YAPAVCModelInstance@@ABVCTString@@@Z
       2788  AE3 00154510 ?ParseSmcFile_t@@YAXAAVCModelInstance@@ABVCTString@@@Z
       2789  AE4 00057610 ?Particle_EndSystem@@YAXH@Z
       2790  AE5 00057870 ?Particle_Flush@@YAXXZ
       2791  AE6 00057660 ?Particle_GetDrawPortID@@YAJXZ
       2792  AE7 00057630 ?Particle_GetMipFactor@@YAMXZ
       2793  AE8 00057650 ?Particle_GetProjection@@YAPAVCProjection3D@@XZ
       2794  AE9 00057640 ?Particle_GetViewer@@YAPAVCEntity@@XZ
       2795  AEA 001087A0 ?Particle_PrepareEntity@@YAXMHHHPAVCEntity@@@Z
       2796  AEB 00057700 ?Particle_PrepareSystem@@YAXPAVCDrawPort@@AAVCAnyProjection3D@@@Z
       2797  AEC 00057F20 ?Particle_PrepareTexture@@YAXPAVCTextureObject@@W4PredefinedBlendType@@@Z
       2798  AED 00058C10 ?Particle_RenderLine@@YAXABV?$Vector@M$02@@0MK@Z
       2799  AEE 00058560 ?Particle_RenderOneSquare@@YAXABV?$Vector@M$02@@MMKMMM@Z
       2800  AEF 00059320 ?Particle_RenderQuad3D@@YAXABV?$Vector@M$02@@000K@Z
       2801  AF0 00058050 ?Particle_RenderSquare@@YAXABV?$Vector@M$02@@MMKM@Z
       2802  AF1 000577B0 ?Particle_SetTexturePart@@YAXJJJJ@Z
       2803  AF2 00057670 ?Particle_SetTextureSection@@YAXJJJJ@Z
       2804  AF3 00057AD0 ?Particle_Sort@@YAXH@Z
       2805  AF4 00092F80 ?Pause@CSoundObject@@QAEXXZ
       2806  AF5 000118F0 ?PauseAnim@CAnimObject@@QAEXXZ
       2807  AF6 0002AA30 ?PeekID_t@CTStream@@QAE?AVCChunkID@@XZ
       2808  AF7 000A8220 ?PickPolyColor@CModelObject@@QAEXPAVCDrawPort@@PAVCProjection3D@@JJAAJH@Z
       2809  AF8 000A8310 ?PickPolySurface@CModelObject@@QAEJPAVCDrawPort@@PAVCProjection3D@@JJ@Z
       2810  AF9 000A7160 ?PickVertexIndex@CModelObject@@QAEJPAVCDrawPort@@PAVCProjection3D@@JJAAV?$Vector@M$02@@@Z
       2811  AFA 00093930 ?Play@CSoundObject@@QAEXPAVCSoundData@@K@Z
       2812  AFB 00012050 ?PlayAnim@CAnimObject@@QAEXJK@Z
       2813  AFC 0008FC20 ?PlayBuffers@CSoundLibrary@@AAEXXZ
       2814  AFD 00119E40 ?PlaySoundA@CEntity@@QAEXAAVCSoundObject@@ABVCTFileName@@J@Z
       2815  AFE 00119D20 ?PlaySoundA@CEntity@@QAEXAAVCSoundObject@@JJH@Z
       2816  AFF 00095320 ?Play_t@CSoundObject@@QAEXABVCTFileName@@K@Z
       2817  B00 0013CB60 ?PolygonHasLayer@CLightSource@@QAEHAAVCBrushPolygon@@@Z
       2818  B01 000A7F90 ?PolygonHit@CModelObject@@QAEPAUModelPolygon@@VCPlacement3D@@0JAAM@Z
       2819  B02 000A7720 ?PolygonHitModelData@CModelObject@@QAEPAUModelPolygon@@PAVCModelData@@VCPlacement3D@@1JAAM@Z
       2820  B03 000A5010 ?PolygonsInSurfaceCt@CModelObject@@QAEJJJ@Z
       2821  B04 00153130 ?Posofbone@CModelInstance@@QAEHHVCTString@@@Z
       2822  B05 000452D0 ?PostClip@CIsometricProjection3D@@UBEXABV?$Vector@M$02@@AAV2@@Z
       2823  B06 00045310 ?PostClip@CIsometricProjection3D@@UBEXABV?$Vector@M$02@@MAAV2@AAM@Z
       2824  B07 00046E20 ?PostClip@CParallelProjection3D@@UBEXABV?$Vector@M$02@@AAV2@@Z
       2825  B08 00046E70 ?PostClip@CParallelProjection3D@@UBEXABV?$Vector@M$02@@MAAV2@AAM@Z
       2826  B09 00047ED0 ?PostClip@CPerspectiveProjection3D@@UBEXABV?$Vector@M$02@@AAV2@@Z
       2827  B0A 00047F10 ?PostClip@CPerspectiveProjection3D@@UBEXABV?$Vector@M$02@@MAAV2@AAM@Z
       2828  B0B 00049950 ?PostClip@CSimpleProjection3D@@UBEXABV?$Vector@M$02@@AAV2@@Z
       2829  B0C 00049970 ?PostClip@CSimpleProjection3D@@UBEXABV?$Vector@M$02@@MAAV2@AAM@Z
       2830  B0D 00196430 ?PostEnemyMoving@CMovableEntity@@UAEXXZ
       2831  B0E 001992F0 ?PostMoving@CMovableEntity@@UAEXXZ
       2832  B0F 0011A1B0 ?PostMoving@CRationalEntity@@UAEXXZ
       2833  B10 00045630 ?PreClip@CIsometricProjection3D@@UBEXABV?$Vector@M$02@@AAV2@@Z
       2834  B11 000472D0 ?PreClip@CParallelProjection3D@@UBEXABV?$Vector@M$02@@AAV2@@Z
       2835  B12 000482C0 ?PreClip@CPerspectiveProjection3D@@UBEXABV?$Vector@M$02@@AAV2@@Z
       2836  B13 00049EC0 ?PreClip@CSimpleProjection3D@@UBEXABV?$Vector@M$02@@AAV2@@Z
       2837  B14 00196410 ?PreEnemyMoving@CMovableEntity@@UAEXXZ
       2838  B15 0019C4A0 ?PreMoving@CMovableEntity@@UAEXXZ
       2839  B16 0019F160 ?PreMoving@CMovableModelEntity@@UAEXXZ
       2840  B17 0011A190 ?PreMoving@CRationalEntity@@UAEXXZ
       2841  B18 00119B80 ?Precache@CAutoPrecacheModel@@QAEXABVCTFileName@@@Z
       2842  B19 001199F0 ?Precache@CAutoPrecacheSound@@QAEXABVCTFileName@@@Z
       2843  B1A 00119C40 ?Precache@CAutoPrecacheTexture@@QAEXABVCTFileName@@@Z
       2844  B1B 00119FE0 ?Precache@CEntity@@UAEXXZ
       2845  B1C 00125530 ?PrecacheClass@CDLLEntityClass@@QAEXJJ@Z
       2846  B1D 001199A0 ?PrecacheClass@CEntity@@QAEXJJ@Z
       2847  B1E 000B9CC0 ?PrecacheEntities_t@CWorld@@QAEXXZ
       2848  B1F 00125410 ?PrecacheModel@CDLLEntityClass@@QAEXJ@Z
       2849  B20 00119970 ?PrecacheModel@CEntity@@QAEXJ@Z
       2850  B21 001255B0 ?PrecacheSkaModel@CDLLEntityClass@@QAEXJ@Z
       2851  B22 001199B0 ?PrecacheSkaModel@CEntity@@QAEXJ@Z
       2852  B23 001254D0 ?PrecacheSound@CDLLEntityClass@@QAEXJ@Z
       2853  B24 00119990 ?PrecacheSound@CEntity@@QAEXJ@Z
       2854  B25 00125470 ?PrecacheTexture@CDLLEntityClass@@QAEXJ@Z
       2855  B26 00119980 ?PrecacheTexture@CEntity@@QAEXJ@Z
       2856  B27 00092F60 ?Precache_Obtain_t@CSoundObject@@QAEPAVCSoundData@@ABVCTFileName@@@Z
       2857  B28 00001210 ?Pred@CListNode@@QBEAAV1@XZ
       2858  B29 00045AB0 ?Prepare@CIsometricProjection3D@@UAEXXZ
       2859  B2A 00047600 ?Prepare@CParallelProjection3D@@UAEXXZ
       2860  B2B 00048740 ?Prepare@CPerspectiveProjection3D@@UAEXXZ
       2861  B2C 00082240 ?Prepare@CShadowMap@@QAEXXZ
       2862  B2D 00049B10 ?Prepare@CSimpleProjection3D@@UAEXXZ
       2863  B2E 0004AB90 ?Prepare@CSimpleProjection3D_DOUBLE@@QAEXXZ
       2864  B2F 000FF7C0 ?PrepareClientData@CServer@@QAEHJ@Z
       2865  B30 000FFDA0 ?PrepareDemoData@CServer@@QAEHM@Z
       2866  B31 000F3910 ?PrepareForUse@CCommunicationInterface@@QAEHHH@Z
       2867  B32 000FF260 ?PrepareGameStateData_t@CServer@@QAEXAAVCTMemoryStream@@AAJ1@Z
       2868  B33 00129EE0 ?PrepareRelativeToAbsoluteProjection@CBrush3D@@QAEXAAVCSimpleProjection3D_DOUBLE@@@Z
       2869  B34 0008F750 ?PrepareSoundBuffer_dsound@CSoundLibrary@@AAEJXZ
       2870  B35 0008F7A0 ?PrepareSoundBuffer_waveout@CSoundLibrary@@AAEJXZ
       2871  B36 000119B0 ?PrevAnim@CAnimObject@@QAEXXZ
       2872  B37 00011A50 ?PrevFrame@CAnimObject@@QAEXXZ
       2873  B38 000A3F30 ?PrevManualMipLevel@CModelObject@@QAEXXZ
       2874  B39 00102B70 ?PrintChatMessage@CSessionState@@QAEXKABVCTString@@0@Z
       2875  B3A 00015CE2 ?PrintF@CTString@@QAAJPBDZZ
       2876  B3B 001189F0 ?PrintStackDebug@CEntity@@UAEPBDXZ
       2877  B3C 0011CE80 ?PrintStackDebug@CRationalEntity@@UAEPBDXZ
       2878  B3D 0009C4C0 ?PrintSurfaceNumbers@CEditModel@@QAEXPAVCDrawPort@@PAVCFontData@@JMJJK@Z
       2879  B3E 00104D10 ?ProcessGameStream@CSessionState@@QAEXXZ
       2880  B3F 00103BF0 ?ProcessGameStreamBlock@CSessionState@@QAEXAAVCNetworkMessage@@@Z
       2881  B40 00103930 ?ProcessGameTick@CSessionState@@QAEXAAVCNetworkMessage@@M@Z
       2882  B41 00086950 ?ProcessScript_t@@YAXABVCTFileName@@@Z
       2883  B42 002E46AC ?ProgresRoutines@@3VCProgressRoutines@@A
       2884  B43 000463B0 ?Project@CIsometricProjection3D@@UBEXABV?$Plane@M$02@@AAV2@@Z
       2885  B44 00038890 ?Project@CObject3D@@QAEXAAVCSimpleProjection3D_DOUBLE@@@Z
       2886  B45 00047BC0 ?Project@CParallelProjection3D@@UBEXABV?$Plane@M$02@@AAV2@@Z
       2887  B46 000496C0 ?Project@CPerspectiveProjection3D@@UBEXABV?$Plane@M$02@@AAV2@@Z
       2888  B47 0004A650 ?Project@CSimpleProjection3D@@UBEXABV?$Plane@M$02@@AAV2@@Z
       2889  B48 0004B360 ?Project@CSimpleProjection3D_DOUBLE@@QBEXABV?$Plane@N$02@@AAV2@@Z
       2890  B49 00045200 ?ProjectAABBox@CIsometricProjection3D@@UBEXABV?$AABBox@M$02@@AAV2@@Z
       2891  B4A 00046DB0 ?ProjectAABBox@CParallelProjection3D@@UBEXABV?$AABBox@M$02@@AAV2@@Z
       2892  B4B 00047DF0 ?ProjectAABBox@CPerspectiveProjection3D@@UBEXABV?$AABBox@M$02@@AAV2@@Z
       2893  B4C 0004A540 ?ProjectAABBox@CSimpleProjection3D@@UBEXABV?$AABBox@M$02@@AAV2@@Z
       2894  B4D 0004B250 ?ProjectAABBox@CSimpleProjection3D_DOUBLE@@QBEXABV?$AABBox@N$02@@AAV2@@Z
       2895  B4E 00045850 ?ProjectCoordinate@CIsometricProjection3D@@UBEXABV?$Vector@M$02@@AAV2@@Z
       2896  B4F 000474F0 ?ProjectCoordinate@CParallelProjection3D@@UBEXABV?$Vector@M$02@@AAV2@@Z
       2897  B50 000484E0 ?ProjectCoordinate@CPerspectiveProjection3D@@UBEXABV?$Vector@M$02@@AAV2@@Z
       2898  B51 00049F90 ?ProjectCoordinate@CSimpleProjection3D@@UBEXABV?$Vector@M$02@@AAV2@@Z
       2899  B52 0004AF60 ?ProjectCoordinate@CSimpleProjection3D_DOUBLE@@QBEXABV?$Vector@N$02@@AAV2@@Z
       2900  B53 000454E0 ?ProjectDirection@CIsometricProjection3D@@UBEXABV?$Vector@M$02@@AAV2@@Z
       2901  B54 00047090 ?ProjectDirection@CParallelProjection3D@@UBEXABV?$Vector@M$02@@AAV2@@Z
       2902  B55 00048110 ?ProjectDirection@CPerspectiveProjection3D@@UBEXABV?$Vector@M$02@@AAV2@@Z
       2903  B56 00049A50 ?ProjectDirection@CSimpleProjection3D@@UBEXABV?$Vector@M$02@@AAV2@@Z
       2904  B57 0004AAD0 ?ProjectDirection@CSimpleProjection3D_DOUBLE@@QBEXABV?$Vector@N$02@@AAV2@@Z
       2905  B58 000A4C90 ?ProjectFrameVertices@CModelObject@@QAEXPAVCProjection3D@@J@Z
       2906  B59 0004CB60 ?ProjectMapping@CMappingDefinition@@QAEXABV?$Plane@M$02@@ABV1@0@Z
       2907  B5A 0004B460 ?ProjectMapping@CSimpleProjection3D_DOUBLE@@QBEXABVCMappingDefinition@@ABV?$Plane@N$02@@AAV2@@Z
       2908  B5B 0004A060 ?ProjectPlacement@CSimpleProjection3D@@QBEXABVCPlacement3D@@AAV2@@Z
       2909  B5C 0004B010 ?ProjectPlacement@CSimpleProjection3D_DOUBLE@@QBEXABVCPlacement3D@@AAV2@@Z
       2910  B5D 0004A2D0 ?ProjectPlacementSmooth@CSimpleProjection3D@@QBEXABVCPlacement3D@@AAV2@@Z
       2911  B5E 00125220 ?PropertyForName@CDLLEntityClass@@QAEPAVCEntityProperty@@ABVCTString@@@Z
       2912  B5F 0011A100 ?PropertyForName@CEntity@@QAEPAVCEntityProperty@@ABVCTString@@@Z
       2913  B60 00125B60 ?PropertyForName@CEntityClass@@QAEPAVCEntityProperty@@ABVCTString@@@Z
       2914  B61 00125290 ?PropertyForTypeAndID@CDLLEntityClass@@QAEPAVCEntityProperty@@W4PropertyType@2@K@Z
       2915  B62 0011A0E0 ?PropertyForTypeAndID@CEntity@@QAEPAVCEntityProperty@@KK@Z
       2916  B63 00125B70 ?PropertyForTypeAndID@CEntityClass@@QAEPAVCEntityProperty@@KK@Z
       2917  B64 0002B320 ?ProtectPageFromWritting@CTStream@@QAEXJ@Z
       2918  B65 000A5EB0 ?PtrsToIndices@CModelData@@QAEXXZ
       2919  B66 0002A820 ?PutLine_t@CTStream@@QAEXPBD@Z
       2920  B67 000560C0 ?PutQuadTexture@CDrawPort@@QBEXPAVCTextureObject@@MMMMMMMMKK@Z
       2921  B68 0002A890 ?PutString_t@CTStream@@QAEXPBD@Z
       2922  B69 000552A0 ?PutText@CDrawPort@@QBEXABVCTString@@JJK@Z
       2923  B6A 00055D40 ?PutTextC@CDrawPort@@QBEXABVCTString@@JJK@Z
       2924  B6B 00055D70 ?PutTextCXY@CDrawPort@@QBEXABVCTString@@JJK@Z
       2925  B6C 00055DC0 ?PutTextR@CDrawPort@@QBEXABVCTString@@JJK@Z
       2926  B6D 00057320 ?PutTexture@CDrawPort@@QBEXPAVCTextureObject@@ABV?$AABBox@J$01@@1KK@Z
       2927  B6E 00055DF0 ?PutTexture@CDrawPort@@QBEXPAVCTextureObject@@ABV?$AABBox@J$01@@1KKKKK@Z
       2928  B6F 000573E0 ?PutTexture@CDrawPort@@QBEXPAVCTextureObject@@ABV?$AABBox@J$01@@KK@Z
       2929  B70 00057350 ?PutTexture@CDrawPort@@QBEXPAVCTextureObject@@ABV?$AABBox@J$01@@KKKKK@Z
       2930  B71 00135440 ?QueueForCalculation@CBrushShadowMap@@QAEXXZ
       2931  B72 0001F200 ?REG_GetLong@@YAHABVCTString@@AAK@Z
       2932  B73 0001F040 ?REG_GetString@@YAHABVCTString@@AAV1@@Z
       2933  B74 0001F350 ?REG_SetString@@YAHABVCTString@@0@Z
       2934  B75 00157080 ?RM_AddFlag@@YAXK@Z
       2935  B76 0015E870 ?RM_AddSimpleShadow_View@@YAXAAVCModelInstance@@MABV?$Plane@M$02@@@Z
       2936  B77 00157180 ?RM_AreHardwareShadersAvailable@@YAHXZ
       2937  B78 00159550 ?RM_BeginModelRenderingMask@@YAXAAVCAnyProjection3D@@PAEJJ@Z
       2938  B79 00159300 ?RM_BeginRenderingView@@YAXAAVCAnyProjection3D@@PAVCDrawPort@@@Z
       2939  B7A 00157200 ?RM_EndModelRenderingMask@@YAXXZ
       2940  B7B 001571B0 ?RM_EndRenderingView@@YAXH@Z
       2941  B7C 001592A0 ?RM_FindRenBone@@YAPAURenBone@@J@Z
       2942  B7D 00156FF0 ?RM_GetAdjustedMipDistance@@YAMMM@Z
       2943  B7E 00161550 ?RM_GetBoneAbsPosition@@YAHAAVCModelInstance@@JAAV?$Vector@M$02@@1PBV1@@Z
       2944  B7F 00162B90 ?RM_GetBoneAbsPositionSafe@@YAHAAVCModelInstance@@JAAV?$Vector@M$02@@1@Z
       2945  B80 00161D50 ?RM_GetBonePosFromBoneId@@YAXAAVCModelInstance@@JAAV?$Vector@M$02@@1@Z
       2946  B81 00161290 ?RM_GetBoneRelPosition@@YAHAAVCModelInstance@@JAAV?$Vector@M$02@@1PBV1@@Z
       2947  B82 00161500 ?RM_GetBoneRelPositionSafe@@YAHAAVCModelInstance@@JAAV?$Vector@M$02@@1@Z
       2948  B83 001615D0 ?RM_GetBoneTransformations@@YAHAAVCModelInstance@@JPAY0M@M@Z
       2949  B84 00161720 ?RM_GetDynamicBox@@YAXAAVCModelInstance@@AAV?$Vector@M$02@@1@Z
       2950  B85 00162620 ?RM_GetDynamicHeadBox@@YA_NAAVCModelInstance@@AAV?$Vector@M$02@@1@Z
       2951  B86 00157070 ?RM_GetFlags@@YAKXZ
       2952  B87 00156F90 ?RM_GetMipAdjustmentFactor@@YAMPBVCProjection3D@@@Z
       2953  B88 00160120 ?RM_GetModelVertices@@YAXAAVCModelInstance@@AAV?$CStaticStackArray@V?$Vector@M$02@@@@AAV?$Matrix@M$02$02@@AAV?$Vector@M$02@@MM@Z
       2954  B89 00156CD0 ?RM_GetObjToViewStretchMatrix@@YAXQAM@Z
       2955  B8A 001611B0 ?RM_GetRenBoneAbs@@YAHAAVCModelInstance@@JAAURenBone@@@Z
       2956  B8B 001592E0 ?RM_GetRenBoneArray@@YAPAURenBone@@AAJ@Z
       2957  B8C 00157050 ?RM_GetRenderFlags@@YAAAKXZ
       2958  B8D 001567E0 ?RM_PreviewSKA@@YAXAAVCModelInstance@@PAVCDrawPort@@W4SkaPreviewFlags@@J@Z
       2959  B8E 001570A0 ?RM_RemoveFlag@@YAXK@Z
       2960  B8F 00157040 ?RM_RenderBone@@YAXAAVCModelInstance@@J@Z
       2961  B90 00158300 ?RM_RenderColisionBox@@YAXAAVCModelInstance@@AAUColisionBox@@K@Z
       2962  B91 00158720 ?RM_RenderCross@@YAXAAV?$Vector@M$02@@K@Z
       2963  B92 001579E0 ?RM_RenderGround@@YAXAAVCTextureObject@@@Z
       2964  B93 0015F860 ?RM_RenderSKA@@YAXAAVCModelInstance@@@Z
       2965  B94 00157000 ?RM_SetBoneAdjustCallback@@YAXP6AXPAX@Z0@Z
       2966  B95 00156F80 ?RM_SetCurrentDistance@@YAXM@Z
       2967  B96 00157060 ?RM_SetFlags@@YAXK@Z
       2968  B97 00157210 ?RM_SetLightColor@@YAXKK@Z
       2969  B98 00159740 ?RM_SetLightDirection@@YAXAAV?$Vector@M$02@@@Z
       2970  B99 00157230 ?RM_SetMaxWeightsPerVertex@@YAXJ@Z
       2971  B9A 00157460 ?RM_SetObjectMatrices@@YAXAAVCModelInstance@@@Z
       2972  B9B 001575F0 ?RM_SetObjectPlacement@@YAXABV?$Matrix@M$02$02@@ABV?$Vector@M$02@@@Z
       2973  B9C 00157560 ?RM_SetObjectPlacement@@YAXABVCPlacement3D@@@Z
       2974  B9D 00157020 ?RM_SetShaderParamsAdjustCallback@@YAXP6AXPAXJPAVCShader@@AAUShaderParams@@@Z0@Z
       2975  B9E 00160970 ?RM_TestRayCastHit@@YAMAAVCModelInstance@@AAV?$Matrix@M$02$02@@AAV?$Vector@M$02@@ABV3@3MPAJ@Z
       2976  B9F 0018E070 ?RandomAccel@CPGroup@@QAEXPAVCPDomain@@@Z
       2977  BA0 0018E550 ?RandomDisplace@CPGroup@@QAEXPAVCPDomain@@@Z
       2978  BA1 00194220 ?RandomVelocity@CPGroup@@QAEXPAVCPDomain@@@Z
       2979  BA2 00045950 ?RayThroughPoint@CIsometricProjection3D@@UBEXABV?$Vector@M$02@@AAVCPlacement3D@@@Z
       2980  BA3 00046E10 ?RayThroughPoint@CParallelProjection3D@@UBEXABV?$Vector@M$02@@AAVCPlacement3D@@@Z
       2981  BA4 000485E0 ?RayThroughPoint@CPerspectiveProjection3D@@UBEXABV?$Vector@M$02@@AAVCPlacement3D@@@Z
       2982  BA5 000499E0 ?RayThroughPoint@CSimpleProjection3D@@UBEXABV?$Vector@M$02@@AAVCPlacement3D@@@Z
       2983  BA6 00134160 ?ReTriple@CBrushSector@@QAEXAAV?$CSelection@VCBrushPolygon@@$0BAA@@@@Z
       2984  BA7 00005190 ?Read@CNetworkMessage@@QAEXPAXJ@Z
       2985  BA8 000F6BC0 ?ReadAddPlayer@CEntityMessage@@QAEXAAKAAJAAVCPlayerCharacter@@0001@Z
       2986  BA9 000F7460 ?ReadAddSkaString@CEntityMessage@@QAEXAAJAAVCTString@@@Z
       2987  BAA 000F7390 ?ReadBasePosition@CEntityMessage@@QAEXAAV?$Vector@M$02@@@Z
       2988  BAB 000FA920 ?ReadBits@CNetworkMessage@@QAEXPAXJ@Z
       2989  BAC 000CB400 ?ReadBrushes_t@CWorld@@QAEXPAVCTStream@@@Z
       2990  BAD 0002AD60 ?ReadChunkAlloc_t@CTStream@@QAEPAXJ@Z
       2991  BAE 0002AC30 ?ReadChunk_t@CTStream@@QAEXPAXJ@Z
       2992  BAF 0002CBC0 ?ReadDictionary_intenal_t@CTStream@@QAEXJ@Z
       2993  BB0 000F6820 ?ReadEntityCopy@CEntityMessage@@QAEXAAK0AAVCPlacement3D@@E@Z
       2994  BB1 000F66B0 ?ReadEntityCreate@CEntityMessage@@QAEXAAKAAVCPlacement3D@@AAG@Z
       2995  BB2 000F5AE0 ?ReadEntityDestroy@CEntityMessage@@QAEXAAK@Z
       2996  BB3 000F6920 ?ReadEntityEvent@CEntityMessage@@QAEXAAKAAJPAX1@Z
       2997  BB4 000F69F0 ?ReadEntityInitialize@CEntityMessage@@QAEXAAKAAJPAX1@Z
       2998  BB5 00127D00 ?ReadEntityPointer_t@CEntity@@QAEXPAVCTStream@@AAVCEntityPointer@@@Z
       2999  BB6 0012ABC0 ?ReadEntitySectorLinks_t@CBrushArchive@@QAEXAAVCTStream@@@Z
       3000  BB7 00015B12 ?ReadFromStreamShort@CTString@@QAEXPAVCTStream@@@Z
       3001  BB8 00017D80 ?ReadFromText_t@CTFileName@@QAEXAAVCTStream@@ABVCTString@@@Z
       3002  BB9 00015522 ?ReadFromText_t@CTString@@QAEXAAVCTStream@@ABV1@@Z
       3003  BBA 0002ACE0 ?ReadFullChunk_t@CTStream@@QAEXABVCChunkID@@PAXJ@Z
       3004  BBB 000CB280 ?ReadInfo_t@CWorld@@QAEXPAVCTStream@@H@Z
       3005  BBC 00135AD0 ?ReadLayers_t@CBrushShadowMap@@UAEXPAVCTStream@@@Z
       3006  BBD 000816C0 ?ReadLayers_t@CShadowMap@@UAEXPAVCTStream@@@Z
       3007  BBE 00098B70 ?ReadMipSettings_t@CEditModel@@QAEXPAVCTStream@@J@Z
       3008  BBF 00022AB0 ?ReadModelInstance_t@@YAXAAVCTStream@@AAVCModelInstance@@H@Z
       3009  BC0 000A3D90 ?ReadName_t@CModelCollisionBox@@QAEXPAVCTStream@@@Z
       3010  BC1 0004BAF0 ?ReadOld_t@CMappingDefinition@@QAEXAAVCTStream@@@Z
       3011  BC2 000F6FB0 ?ReadPause@CEntityMessage@@QAEXAAHAAVCTString@@@Z
       3012  BC3 000F6500 ?ReadPlacement@CEntityMessage@@QAEXAAKAAVCPlacement3D@@1@Z
       3013  BC4 000F6E10 ?ReadPlacementNotify@CEntityMessage@@QAEXAAKAAE@Z
       3014  BC5 000F5C50 ?ReadPlayerAction@CEntityMessage@@QAEXAAKAAVCPlayerAction@@@Z
       3015  BC6 000F5B60 ?ReadPlayerUpdate@CEntityMessage@@QAEXAAKAAVCNetworkMessage@@@Z
       3016  BC7 0012AAB0 ?ReadPortalSectorLinks_t@CBrushArchive@@QAEXAAVCTStream@@@Z
       3017  BC8 001282A0 ?ReadProperties_t@CEntity@@QAEXAAVCTStream@@H@Z
       3018  BC9 0002ABE0 ?ReadRawChunk_t@CTStream@@QAEXPAXJ@Z
       3019  BCA 001033A0 ?ReadRememberedLevels_t@CSessionState@@QAEXPAVCTStream@@@Z
       3020  BCB 000F5BD0 ?ReadRemovePlayer@CEntityMessage@@QAEXAAJ@Z
       3021  BCC 00122140 ?ReadSKAQueue@CEntity@@QAEXAAVCNetworkMessage@@@Z
       3022  BCD 00121FD0 ?ReadSKAQueue@CEntity@@QAEXPAVCTStream@@@Z
       3023  BCE 000A45E0 ?ReadSettings_t@MappingSurface@@QAEXPAVCTStream@@@Z
       3024  BCF 000F6EC0 ?ReadSka@CEntityMessage@@QAEXAAKAAEPAXAAJ@Z
       3025  BD0 000F72C0 ?ReadSound@CEntityMessage@@QAEXAAKAAEPAXAAJ@Z
       3026  BD1 000F6D50 ?ReadStartAnim@CEntityMessage@@QAEXAAKAAJ0@Z
       3027  BD2 000CD540 ?ReadState_net_t@CWorld@@QAEXPAVCTStream@@@Z
       3028  BD3 000CCDE0 ?ReadState_new_t@CWorld@@QAEXPAVCTStream@@@Z
       3029  BD4 000CC850 ?ReadState_old_t@CWorld@@QAEXPAVCTStream@@@Z
       3030  BD5 00104410 ?ReadState_t@CSessionState@@QAEXPAVCTStream@@@Z
       3031  BD6 000CE020 ?ReadState_t@CWorld@@QAEXPAVCTStream@@@Z
       3032  BD7 000CC280 ?ReadState_veryold_t@CWorld@@QAEXPAVCTStream@@@Z
       3033  BD8 0002AE20 ?ReadStream_t@CTStream@@QAEXAAV1@@Z
       3034  BD9 000307C0 ?ReadTranslationTable_t@@YAXAAV?$CDynamicArray@VCTranslationPair@@@@ABVCTFileName@@@Z
       3035  BDA 00014A70 ?ReadUntilEOF_t@CTString@@QAEXAAVCTStream@@@Z
       3036  BDB 001044C0 ?ReadWorldAndState_t@CSessionState@@QAEXPAVCTStream@@@Z
       3037  BDC 001A1270 ?Read_net@CPlayerEntity@@UAEXPAVCNetworkMessage@@M@Z
       3038  BDD 001A1290 ?Read_net_brief@CPlayerEntity@@UAEXPAVCNetworkMessage@@M@Z
       3039  BDE 0012CF10 ?Read_new_t@CBrush3D@@QAEXPAVCTStream@@@Z
       3040  BDF 0012CD60 ?Read_new_t@CBrushMip@@QAEXPAVCTStream@@@Z
       3041  BE0 0012CE50 ?Read_old_t@CBrush3D@@QAEXPAVCTStream@@@Z
       3042  BE1 0012CD10 ?Read_old_t@CBrushMip@@QAEXPAVCTStream@@@Z
       3043  BE2 00081EF0 ?Read_old_t@CShadowMap@@QAEXPAVCTStream@@@Z
       3044  BE3 00147D40 ?Read_t@CAnimSet@@UAEXPAVCTStream@@@Z
       3045  BE4 00098750 ?Read_t@CAttachedModel@@QAEXPAVCTStream@@@Z
       3046  BE5 000A4750 ?Read_t@CAttachedModelPosition@@QAEXPAVCTStream@@@Z
       3047  BE6 00098980 ?Read_t@CAttachedSound@@QAEXPAVCTStream@@@Z
       3048  BE7 0012CFD0 ?Read_t@CBrush3D@@QAEXPAVCTStream@@@Z
       3049  BE8 0012B0E0 ?Read_t@CBrushArchive@@UAEXPAVCTStream@@@Z
       3050  BE9 0012BD70 ?Read_t@CBrushPolygonTexture@@QAEXAAVCTStream@@@Z
       3051  BEA 0012C450 ?Read_t@CBrushSector@@QAEXPAVCTStream@@@Z
       3052  BEB 0009BF90 ?Read_t@CEditModel@@UAEXPAVCTStream@@@Z
       3053  BEC 0011C630 ?Read_t@CEntity@@UAEXPAVCTStream@@H@Z
       3054  BED 00125840 ?Read_t@CEntityClass@@UAEXPAVCTStream@@@Z
       3055  BEE 0005DB10 ?Read_t@CFontCharData@@QAEXPAVCTStream@@@Z
       3056  BEF 0005DCE0 ?Read_t@CFontData@@UAEXPAVCTStream@@@Z
       3057  BF0 00079450 ?Read_t@CImageInfo@@QAEXPAVCTStream@@@Z
       3058  BF1 0013CC10 ?Read_t@CLightSource@@QAEXPAVCTStream@@H@Z
       3059  BF2 0011CCA0 ?Read_t@CLiveEntity@@UAEXPAVCTStream@@H@Z
       3060  BF3 0014D1B0 ?Read_t@CMesh@@UAEXPAVCTStream@@@Z
       3061  BF4 000A46A0 ?Read_t@CModelCollisionBox@@QAEXPAVCTStream@@@Z
       3062  BF5 000A9390 ?Read_t@CModelData@@UAEXPAVCTStream@@@Z
       3063  BF6 001548E0 ?Read_t@CModelInstanceSerial@@UAEXPAVCTStream@@@Z
       3064  BF7 000A6C10 ?Read_t@CModelObject@@QAEXPAVCTStream@@@Z
       3065  BF8 000A4120 ?Read_t@CModelPatch@@QAEXPAVCTStream@@@Z
       3066  BF9 000A3C40 ?Read_t@CModelRenderPrefs@@QAEXPAVCTStream@@@Z
       3067  BFA 001962A0 ?Read_t@CMovableBrushEntity@@UAEXPAVCTStream@@H@Z
       3068  BFB 00197850 ?Read_t@CMovableEntity@@UAEXPAVCTStream@@H@Z
       3069  BFC 0019EF40 ?Read_t@CMovableModelEntity@@UAEXPAVCTStream@@H@Z
       3070  BFD 00129950 ?Read_t@CPlayerCharacter@@QAEXPAVCTStream@@@Z
       3071  BFE 001A13A0 ?Read_t@CPlayerEntity@@UAEXPAVCTStream@@H@Z
       3072  BFF 00120270 ?Read_t@CRationalEntity@@UAEXPAVCTStream@@H@Z
       3073  C00 00104F20 ?Read_t@CSessionState@@QAEXPAVCTStream@@H@Z
       3074  C01 000805C0 ?Read_t@CShader@@UAEXPAVCTStream@@@Z
       3075  C02 00082030 ?Read_t@CShadowMap@@QAEXPAVCTStream@@@Z
       3076  C03 00166810 ?Read_t@CSkeleton@@UAEXPAVCTStream@@@Z
       3077  C04 0007F210 ?Read_t@CSmallScriptShader@@UAEXPAVCTStream@@@Z
       3078  C05 0008D460 ?Read_t@CSoundData@@UAEXPAVCTStream@@@Z
       3079  C06 00095360 ?Read_t@CSoundObject@@QAEXPAVCTStream@@H@Z
       3080  C07 00002360 ?Read_t@CTStream@@QAEXPAXJ@Z
       3081  C08 00175C00 ?Read_t@CTerrain@@QAEXPAVCTStream@@@Z
       3082  C09 00176090 ?Read_t@CTerrainArchive@@UAEXPAVCTStream@@@Z
       3083  C0A 00085C00 ?Read_t@CTextureData@@UAEXPAVCTStream@@@Z
       3084  C0B 00083A00 ?Read_t@CTextureObject@@QAEXPAVCTStream@@@Z
       3085  C0C 000984D0 ?Read_t@CThumbnailSettings@@QAEXPAVCTStream@@@Z
       3086  C0D 000CE1D0 ?Read_t@CWorld@@QAEXPAVCTStream@@@Z
       3087  C0E 000A5AC0 ?Read_t@MappingSurface@@QAEXPAVCTStream@@HH@Z
       3088  C0F 000A7A10 ?Read_t@ModelMipInfo@@QAEXPAVCTStream@@HHH@Z
       3089  C10 000A5920 ?Read_t@ModelPolygon@@QAEXPAVCTStream@@@Z
       3090  C11 000A4360 ?Read_t@ModelPolygonVertex@@QAEXPAVCTStream@@@Z
       3091  C12 000F7160 ?ReadcharacterChange@CEntityMessage@@QAEXAAKAAVCPlayerCharacter@@@Z
       3092  C13 000B9EF0 ?RebuildLinks@CWorld@@QAEXXZ
       3093  C14 00038D60 ?RecalculatePlanes@CObject3D@@QAEXXZ
       3094  C15 000FE660 ?ReceiveAcknowledge@CServer@@QAEXJM@Z
       3095  C16 000FA270 ?ReceiveBroadcast@CMessageDispatcher@@QAEHAAVCNetworkMessage@@AAKAAG@Z
       3096  C17 00123220 ?ReceiveDamage@CEntity@@UAEXPAV1@W4DamageType@@MABV?$Vector@M$02@@2@Z
       3097  C18 00123330 ?ReceiveDamage@CLiveEntity@@UAEXPAVCEntity@@W4DamageType@@MABV?$Vector@M$02@@2@Z
       3098  C19 000FA160 ?ReceiveFromClient@CMessageDispatcher@@QAEHJAAVCNetworkMessage@@@Z
       3099  C1A 000FA1C0 ?ReceiveFromClientReliable@CMessageDispatcher@@QAEHJAAVCNetworkMessage@@@Z
       3100  C1B 000FA030 ?ReceiveFromServer@CMessageDispatcher@@QAEHAAVCNetworkMessage@@@Z
       3101  C1C 000FA090 ?ReceiveFromServerReliable@CMessageDispatcher@@QAEHAAVCNetworkMessage@@@Z
       3102  C1D 000FA0F0 ?ReceiveFromServerReliable@CMessageDispatcher@@QAEHAAVCTMemoryStream@@@Z
       3103  C1E 00119FB0 ?ReceiveItem@CEntity@@UAEHABVCEntityEvent@@@Z
       3104  C1F 00105210 ?ReceiveMessage@CSessionState@@QAEHXZ
       3105  C20 00104C40 ?ReceiveTick@CSessionState@@QAEXMPAEJ@Z
       3106  C21 00082520 ?ReduceShadows@CGfxLibrary@@QAEXXZ
       3107  C22 000FA630 ?Reinit@CNetworkMessage@@QAEXXZ
       3108  C23 00122400 ?Reinitialize@CEntity@@QAEXXZ
       3109  C24 000B9C30 ?ReinitializeEntities@CWorld@@QAEXXZ
       3110  C25 00044BE0 ?RelativeToAbsolute@CPlacement3D@@QAEXABV1@@Z
       3111  C26 00044C90 ?RelativeToAbsoluteSmooth@CPlacement3D@@QAEXABV1@@Z
       3112  C27 00044390 ?RelativeToRelative@CPlacement3D@@QAEXABV1@0@Z
       3113  C28 000443F0 ?RelativeToRelativeSmooth@CPlacement3D@@QAEXABV1@0@Z
       3114  C29 00127C30 ?Release@CEntityComponent@@QAEXXZ
       3115  C2A 000D7880 ?Release@CStock_CAnimData@@QAEXPAVCAnimData@@@Z
       3116  C2B 000D8BD0 ?Release@CStock_CAnimSet@@QAEXPAVCAnimSet@@@Z
       3117  C2C 000D9BD0 ?Release@CStock_CEntityClass@@QAEXPAVCEntityClass@@@Z
       3118  C2D 000DAD40 ?Release@CStock_CFontData@@QAEXPAVCFontData@@@Z
       3119  C2E 000DBEB0 ?Release@CStock_CMesh@@QAEXPAVCMesh@@@Z
       3120  C2F 000DD050 ?Release@CStock_CModelData@@QAEXPAVCModelData@@@Z
       3121  C30 000DF040 ?Release@CStock_CModelInstance@@QAEXPAVCModelInstanceSerial@@@Z
       3122  C31 000E01B0 ?Release@CStock_CShader@@QAEXPAVCShader@@@Z
       3123  C32 000E1320 ?Release@CStock_CSkeleton@@QAEXPAVCSkeleton@@@Z
       3124  C33 000E2490 ?Release@CStock_CSmallScriptShader@@QAEXPAVCSmallScriptShader@@@Z
       3125  C34 000E35E0 ?Release@CStock_CSoundData@@QAEXPAVCSoundData@@@Z
       3126  C35 000E4740 ?Release@CStock_CTextureData@@QAEXPAVCTextureData@@@Z
       3127  C36 00125030 ?ReleaseComponents@CEntityClass@@QAEXXZ
       3128  C37 0008F490 ?ReleasePlayingBuffer@CSoundLibrary@@QAEXJH@Z
       3129  C38 00092F70 ?Release_Obtain_t@CSoundObject@@QAEXPAVCSoundData@@@Z
       3130  C39 00023AF0 ?Reload@CSerial@@QAEXXZ
       3131  C3A 0001CD60 ?RemAll@CListHead@@QAEXXZ
       3132  C3B 001190C0 ?RemAnimation@CEntity@@QAEXJJ@Z
       3133  C3C 00152C00 ?RemAnimation@CModelInstance@@QAEXJ@Z
       3134  C3D 001191C0 ?RemAnimsWithID@CEntity@@QAEXJJ@Z
       3135  C3E 00152CB0 ?RemAnimsWithID@CModelInstance@@QAEXJ@Z
       3136  C3F 0002FC50 ?RemHandler@CTimer@@QAEXPAVCTimerHandler@@@Z
       3137  C40 0001CD40 ?RemHead@CListHead@@QAEXXZ
       3138  C41 00004F90 ?RemReference@CEntity@@QAEXXZ
       3139  C42 00124F30 ?RemReference@CEntityClass@@QAEXXZ
       3140  C43 0008CCB0 ?RemReference@CSoundData@@QAEXXZ
       3141  C44 000A3E10 ?RemReference_internal@CModelData@@UAEXXZ
       3142  C45 00083A50 ?RemReference_internal@CTextureData@@UAEXXZ
       3143  C46 0001CD50 ?RemTail@CListHead@@QAEXXZ
       3144  C47 00149A80 ?RemapMeshIndices@@YAXAAUMeshLOD@@PBJJ@Z
       3145  C48 0014A4A0 ?RemapMeshVertices@@YAXAAUMeshLOD@@PBJJ@Z
       3146  C49 00104A70 ?RememberCurrentLevel@CSessionState@@QAEXABVCTString@@@Z
       3147  C4A 00146A90 ?RememberUnCompresedRotatations@@YAXH@Z
       3148  C4B 0001CCC0 ?Remove@CListNode@@QAEXXZ
       3149  C4C 000A79E0 ?RemoveAllAttachmentModels@CModelObject@@QAEXXZ
       3150  C4D 00153400 ?RemoveAllChildren@CModelInstance@@QAEXH@Z
       3151  C4E 00077300 ?RemoveAlphaChannel@@YAXPAKPAEJ@Z
       3152  C4F 00148580 ?RemoveAnimation@CAnimSet@@QAEXPAUAnimation@@@Z
       3153  C50 00017CD0 ?RemoveApplicationPath_t@CTFileName@@QAEXXZ
       3154  C51 00119CF0 ?RemoveAttachment@CEntity@@QAEXJ@Z
       3155  C52 000A83D0 ?RemoveAttachmentModel@CModelObject@@QAEXJ@Z
       3156  C53 001533E0 ?RemoveChild@CModelInstance@@QAEXPAV1@@Z
       3157  C54 0017CA40 ?RemoveCmd@CEffect@@QAEXViterator@?$list@PAVCCmd@@V?$allocator@PAVCCmd@@@std@@@std@@@Z
       3158  C55 001532B0 ?RemoveColisionBox@CModelInstance@@QAEXJ@Z
       3159  C56 00019A00 ?RemoveDevice@CInput@@QAEHAAVCInputDevice@@@Z
       3160  C57 00040510 ?RemoveDummyEdgeReferences@CObjectPolygon@@QAEXXZ
       3161  C58 0012A6B0 ?RemoveDummyLayers@CBrushArchive@@QAEXXZ
       3162  C59 001358E0 ?RemoveDummyLayers@CBrushShadowMap@@QAEXXZ
       3163  C5A 0012DE30 ?RemoveDummyPortals@CBrushMip@@QAEXH@Z
       3164  C5B 00038FD0 ?RemoveEmptySectors@CObject3D@@QAEXXZ
       3165  C5C 000C9410 ?RemoveEntityFromCollisionGrid@CWorld@@QAEXPAVCEntity@@ABV?$AABBox@M$02@@@Z
       3166  C5D 0005DF50 ?RemoveFlag@CTerrain@@QAEXK@Z
       3167  C5E 0008F810 ?RemoveFromPendingList@CSoundLibrary@@QAEXAAVCSoundObject@@H@Z
       3168  C5F 00040440 ?RemoveMarkedEdges@CObjectPolygon@@QAEXJ@Z
       3169  C60 00150140 ?RemoveMeshLod@CMesh@@QAEXPAUMeshLOD@@@Z
       3170  C61 00194350 ?RemoveParticle@CPGroup@@QAEXI@Z
       3171  C62 00153850 ?RemovePassedAnimsFromQueue@CModelInstance@@QAEXXZ
       3172  C63 00015222 ?RemovePrefix@CTString@@QAEHABV1@@Z
       3173  C64 000406E0 ?RemoveRedundantEdges@CObjectPolygon@@QAEXXZ
       3174  C65 00166C10 ?RemoveSkeletonLod@CSkeleton@@QAEXPAUSkeletonLOD@@@Z
       3175  C66 00015912 ?RemoveSpecialCodes@@YA?AVCTString@@ABV1@@Z
       3176  C67 001535C0 ?RemoveTexture@CModelInstance@@QAEXPAUTextureInstance@@PAUMeshInstance@@@Z
       3177  C68 00118950 ?RenderGameView@CEntity@@UAEXPAVCDrawPort@@PAX@Z
       3178  C69 00054FE0 ?RenderLensFlare@CDrawPort@@QBEXPAVCTextureObject@@MMMMMK@Z
       3179  C6A 000ACBA0 ?RenderModel@CModelObject@@QAEXAAVCRenderModel@@@Z
       3180  C6B 000AEEE0 ?RenderModel_Mask@CModelObject@@AAEXAAVCRenderModel@@@Z
       3181  C6C 000B1C30 ?RenderModel_View@CModelObject@@AAEXAAVCRenderModel@@@Z
       3182  C6D 00118930 ?RenderParticles@CEntity@@UAEXXZ
       3183  C6E 000B1780 ?RenderPatches_View@CModelObject@@AAEXAAVCRenderModel@@@Z
       3184  C6F 000ABF80 ?RenderShadow@CModelObject@@QAEXAAVCRenderModel@@ABVCPlacement3D@@MMMABV?$Plane@M$02@@@Z
       3185  C70 000B3F20 ?RenderShadow_View@CModelObject@@AAEXAAVCRenderModel@@ABVCPlacement3D@@MMMABV?$Plane@M$02@@@Z
       3186  C71 00112C90 ?RenderView@@YAXAAVCWorld@@AAVCEntity@@AAVCAnyProjection3D@@AAVCDrawPort@@@Z
       3187  C72 0012E590 ?Reoptimize@CBrushMip@@QAEXXZ
       3188  C73 00015B82 ?ReplaceSubstr@CTString@@QAEHABV1@0@Z
       3189  C74 0001D5D0 ?Report@CProfileForm@@QAEXAAVCTString@@@Z
       3190  C75 000FDF20 ?ResendGameStreamBlocks@CServer@@QAEXJJJ@Z
       3191  C76 0001D540 ?Reset@CProfileForm@@QAEXXZ
       3192  C77 00011AC0 ?ResetAnim@CAnimObject@@QAEXXZ
       3193  C78 000A5550 ?ResetAttachmentModelPosition@CModelObject@@QAEXJ@Z
       3194  C79 00063CC0 ?ResetDisplayMode@CGfxLibrary@@QAEHW4GfxAPIType@@@Z
       3195  C7A 0007ECF0 ?ResetHandles@CShader@@QAEXXZ
       3196  C7B 00102210 ?ResetRND@CSessionState@@QAEXXZ
       3197  C7C 00092FD0 ?ResetTimer@CSoundObject@@QAEXJ@Z
       3198  C7D 0008C4A0 ?Resize@CViewPort@@QAEXXZ
       3199  C7E 0001CFF0 ?ResizeMemory@@YAXPAPAXJ@Z
       3200  C7F 00193FF0 ?Restore@CPGroup@@QAEXM@Z
       3201  C80 00104B40 ?RestoreOldLevel@CSessionState@@QAEXABVCTString@@@Z
       3202  C81 00092FC0 ?Resume@CSoundObject@@QAEXXZ
       3203  C82 00004D00 ?Return@CEntity@@QAEXJABVCEntityEvent@@@Z
       3204  C83 0011CE50 ?Return@CRationalEntity@@QAEXJABVCEntityEvent@@@Z
       3205  C84 000FA7D0 ?Rewind@CNetworkMessage@@QAEXXZ
       3206  C85 00102200 ?Rnd@CSessionState@@QAEKXZ
       3207  C86 0004CCD0 ?Rotate@CMappingDefinition@@QAEXABVCMappingVectors@@ABV?$Vector@M$02@@M@Z
       3208  C87 00044820 ?Rotate_Airplane@CPlacement3D@@QAEXABV?$Vector@M$02@@@Z
       3209  C88 000449A0 ?Rotate_HPB@CPlacement3D@@QAEXABV?$Vector@M$02@@@Z
       3210  C89 000446A0 ?Rotate_TrackBall@CPlacement3D@@QAEXABV?$Vector@M$02@@@Z
       3211  C8A 00106A10 ?RunDemoTick@CSessionState@@QAEXXZ
       3212  C8B 00008890 ?SE_EndEngine@@YAXXZ
       3213  C8C 000072B0 ?SE_InitEngine@@YAXVCTString@@@Z
       3214  C8D 00006CC0 ?SE_LoadDefaultFonts@@YAXXZ
       3215  C8E 00006EF0 ?SE_PretouchIfNeeded@@YAXXZ
       3216  C8F 00006E10 ?SE_UpdateWindowHandle@@YAXPAUHWND__@@@Z
       3217  C90 00028E80 ?STAT_Report@@YAXAAVCTString@@@Z
       3218  C91 00028740 ?STAT_Reset@@YAXXZ
       3219  C92 00098EF0 ?SaveIncludeFile_t@CEditModel@@QAEXVCTFileName@@VCTString@@@Z
       3220  C93 00015D02 ?SaveIntVar@@YAXABVCTFileName@@AAJ@Z
       3221  C94 00014C80 ?SaveKeepCRLF_t@CTString@@QAEXABVCTFileName@@@Z
       3222  C95 0009B840 ?SaveMapping_t@CEditModel@@QAEXVCTFileName@@J@Z
       3223  C96 000150F2 ?SaveStringVar@@YAXABVCTFileName@@AAVCTString@@@Z
       3224  C97 00079820 ?SaveTGA_t@CImageInfo@@QBEXABVCTFileName@@@Z
       3225  C98 00015082 ?SaveVar@CTString@@QAEXABVCTFileName@@@Z
       3226  C99 000997C0 ?Save_t@CEditModel@@QAEXVCTFileName@@@Z
       3227  C9A 000E7D40 ?Save_t@CNetworkLibrary@@QAEXABVCTFileName@@@Z
       3228  C9B 00129BF0 ?Save_t@CPlayerCharacter@@QAEXABVCTFileName@@@Z
       3229  C9C 00023BF0 ?Save_t@CSerial@@QAEXVCTFileName@@@Z
       3230  C9D 00014C10 ?Save_t@CTString@@QAEXABVCTFileName@@@Z
       3231  C9E 000CCD60 ?Save_t@CWorld@@QAEXABVCTFileName@@@Z
       3232  C9F 00014D50 ?ScanF@CTString@@QAAJPBDZZ
       3233  CA0 00002D20 ?ScreenBBoxL@CProjection3D@@QAEAAV?$AABBox@M$01@@XZ
       3234  CA1 00002D30 ?ScreenBBoxR@CProjection3D@@QBEABV?$AABBox@M$01@@XZ
       3235  CA2 0002A4B0 ?Seek_t@CTStream@@QAEXJW4SeekDir@1@@Z
       3236  CA3 00003C20 ?Select@CBrushPolygon@@QAEXK@Z
       3237  CA4 00003CA0 ?Select@CBrushSector@@QAEXK@Z
       3238  CA5 00003620 ?Select@CBrushVertex@@QAEXK@Z
       3239  CA6 00004D60 ?Select@CEntity@@QAEXK@Z
       3240  CA7 0012E320 ?SelectAllSectors@CBrushMip@@QAEXAAV?$CSelection@VCBrushSector@@$00@@@Z
       3241  CA8 0012E2B0 ?SelectAllSectors@CBrushMip@@QAEXAAV?$CSelection@VCBrushSector@@$03@@@Z
       3242  CA9 00130550 ?SelectByColorInSector@CBrushPolygon@@QAEXAAV?$CSelection@VCBrushPolygon@@$0BAA@@@@Z
       3243  CAA 001304B0 ?SelectByTextureInSector@CBrushPolygon@@QAEXAAV?$CSelection@VCBrushPolygon@@$0BAA@@@J@Z
       3244  CAB 000BA250 ?SelectByTextureInSelectedSectors@CWorld@@QAEXVCTFileName@@AAV?$CSelection@VCBrushPolygon@@$0BAA@@@J@Z
       3245  CAC 000BA400 ?SelectByTextureInWorld@CWorld@@QAEXVCTFileName@@AAV?$CSelection@VCBrushPolygon@@$0BAA@@@J@Z
       3246  CAD 0012E230 ?SelectClosedSectors@CBrushMip@@QAEXAAV?$CSelection@VCBrushSector@@$03@@@Z
       3247  CAE 000119E0 ?SelectFrameInTime@CAnimObject@@QAEXM@Z
       3248  CAF 0012E1B0 ?SelectOpenSector@CBrushMip@@QAEXAAV?$CSelection@VCBrushSector@@$03@@@Z
       3249  CB0 0012E110 ?SelectSectorsInRange@CBrushMip@@QAEXAAV?$CSelection@VCBrushSector@@$00@@V?$AABBox@M$02@@@Z
       3250  CB1 0012E070 ?SelectSectorsInRange@CBrushMip@@QAEXAAV?$CSelection@VCBrushSector@@$03@@V?$AABBox@M$02@@@Z
       3251  CB2 00130270 ?SelectSimilarByColor@CBrushPolygon@@QAEXAAV?$CSelection@VCBrushPolygon@@$0BAA@@@@Z
       3252  CB3 00130390 ?SelectSimilarByTexture@CBrushPolygon@@QAEXAAV?$CSelection@VCBrushPolygon@@$0BAA@@@J@Z
       3253  CB4 001036B0 ?SendAcknowledge@CSessionState@@QAEXM@Z
       3254  CB5 000E8060 ?SendActionsToServer@CNetworkLibrary@@QAEXXZ
       3255  CB6 001989E0 ?SendBlockEvent@CMovableEntity@@QAEXAAVCClipMove@@@Z
       3256  CB7 000FA220 ?SendBroadcast@CMessageDispatcher@@QAEXABVCNetworkMessage@@KG@Z
       3257  CB8 000E8360 ?SendChat@CNetworkLibrary@@QAEXKKABVCTString@@@Z
       3258  CB9 000FFB90 ?SendClientData@CServer@@QAEXJ@Z
       3259  CBA 000FD8F0 ?SendDisconnectMessage@CServer@@QAEXJPBDH@Z
       3260  CBB 00123030 ?SendEvent@CEntity@@QAEXABVCEntityEvent@@H@Z
       3261  CBC 00123170 ?SendEventInRange@CEntity@@QAEXABVCEntityEvent@@ABV?$AABBox@M$02@@@Z
       3262  CBD 00100DE0 ?SendGameStateData@CServer@@QAEXJ@Z
       3263  CBE 000FDB00 ?SendGameStreamBlocks@CServer@@QAEXJ@Z
       3264  CBF 001038A0 ?SendLevelChangeNotification@CSessionState@@QAEXAAVCEntityEvent@@@Z
       3265  CC0 000FD600 ?SendMessageA@CServer@@QAEXAAVCEntityMessage@@@Z
       3266  CC1 000FE310 ?SendSessionStateData@CServer@@QAEXJ@Z
       3267  CC2 000F9F20 ?SendToClient@CMessageDispatcher@@QAEXJABVCNetworkMessage@@@Z
       3268  CC3 000F9F80 ?SendToClientReliable@CMessageDispatcher@@QAEXJAAVCTMemoryStream@@@Z
       3269  CC4 000F9F50 ?SendToClientReliable@CMessageDispatcher@@QAEXJABVCNetworkMessage@@@Z
       3270  CC5 000F9FD0 ?SendToServer@CMessageDispatcher@@QAEXABVCNetworkMessage@@@Z
       3271  CC6 000FA000 ?SendToServerReliable@CMessageDispatcher@@QAEXABVCNetworkMessage@@@Z
       3272  CC7 00198870 ?SendTouchEvent@CMovableEntity@@QAEXABVCClipMove@@@Z
       3273  CC8 000E8110 ?SendWeaponUpdateToServer@CNetworkLibrary@@QAEXXZ
       3274  CC9 00102080 ?ServerLoop@CServer@@QAEXXZ
       3275  CCA 00100770 ?ServerNetProcess@CServer@@QAEXXZ
       3276  CCB 000F2480 ?Server_ClearClient@CCommunicationInterface@@QAEXJ@Z
       3277  CCC 000F2400 ?Server_Close@CCommunicationInterface@@QAEXXZ
       3278  CCD 000F2560 ?Server_GetClientName@CCommunicationInterface@@QAE?AVCTString@@J@Z
       3279  CCE 000F2660 ?Server_GetClientPendingData@CCommunicationInterface@@QAEKJ@Z
       3280  CCF 000F26D0 ?Server_GetMaxPendingData@CCommunicationInterface@@QAEKXZ
       3281  CD0 000F2750 ?Server_GetTotalPendingData@CCommunicationInterface@@QAEKXZ
       3282  CD1 000F2340 ?Server_Init_t@CCommunicationInterface@@QAEXXZ
       3283  CD2 000F24F0 ?Server_IsClientLocal@CCommunicationInterface@@QAEHJ@Z
       3284  CD3 000F2520 ?Server_IsClientUsed@CCommunicationInterface@@QAEHJ@Z
       3285  CD4 000F27C0 ?Server_Receive_Reliable@CCommunicationInterface@@QAEHJPAXAAJ@Z
       3286  CD5 000F2840 ?Server_Receive_Unreliable@CCommunicationInterface@@QAEHJPAXAAJ@Z
       3287  CD6 000F3C40 ?Server_Send_Reliable@CCommunicationInterface@@QAEXJPBXJ@Z
       3288  CD7 000F3CC0 ?Server_Send_Unreliable@CCommunicationInterface@@QAEXJPBXJ@Z
       3289  CD8 000F3360 ?Server_Update@CCommunicationInterface@@QAEHXZ
       3290  CD9 00106CA0 ?SessionStateLoop@CSessionState@@QAEXXZ
       3291  CDA 0001FA60 ?Set3DParameters@CSoundObject@@QAEXMMMMPAVCEntity@@H@Z
       3292  CDB 0012EB40 ?SetAbsolutePosition@CBrushVertex@@QAEXABV?$Vector@N$02@@@Z
       3293  CDC 000FC3B0 ?SetAction@CPlayerSource@@QAEXABVCPlayerAction@@@Z
       3294  CDD 001963A0 ?SetActionApplied@CMovableEntity@@UAEXXZ
       3295  CDE 00011FF0 ?SetAnim@CAnimObject@@QAEXJ@Z
       3296  CDF 00052A10 ?SetAsCurrent@CDrawPort@@QAEXXZ
       3297  CE0 000816E0 ?SetAsCurrent@CShadowMap@@QAEXXZ
       3298  CE1 00084750 ?SetAsCurrent@CTextureData@@QAEXJHPAUHPBUFFERARB__@@@Z
       3299  CE2 000BE880 ?SetAutoMipBrushingOn@CWorldRenderPrefs@@QAEXH@Z
       3300  CE3 000B9060 ?SetBackgroundColor@CWorld@@QAEXK@Z
       3301  CE4 000BE7C0 ?SetBackgroundTextureOn@CWorldRenderPrefs@@QAEXH@Z
       3302  CE5 000B9260 ?SetBackgroundViewer@CWorld@@QAEXPAVCEntity@@@Z
       3303  CE6 00001DE0 ?SetCharSpacing@CFontData@@QAEXJ@Z
       3304  CE7 0009C7A0 ?SetCollisionBox@CEditModel@@QAEXV?$Vector@M$02@@0@Z
       3305  CE8 0009BD40 ?SetCollisionBoxDimensionEquality@CEditModel@@QAEXJ@Z
       3306  CE9 00098E50 ?SetCollisionBoxName@CEditModel@@QAEXVCTString@@@Z
       3307  CEA 00122AA0 ?SetCollisionFlags@CEntity@@QAEXK@Z
       3308  CEB 000A4A80 ?SetColorName@CModelObject@@QAEXJAAVCTString@@@Z
       3309  CEC 00003CF0 ?SetContentType@CBrushSector@@QAEXJ@Z
       3310  CED 0001B1A0 ?SetControlNames@CInput@@QAEXXZ
       3311  CEE 001525F0 ?SetCurrentColisionBoxIndex@CModelInstance@@QAEXJ@Z
       3312  CEF 0002FCD0 ?SetCurrentTick@CTimer@@QAEXM@Z
       3313  CF0 0005F220 ?SetCurrentViewport@CGfxLibrary@@QAEHPAVCViewPort@@@Z
       3314  CF1 00065D70 ?SetCurrentViewport_D3D@CGfxLibrary@@AAEHPAVCViewPort@@@Z
       3315  CF2 0006BDB0 ?SetCurrentViewport_OGL@CGfxLibrary@@AAEHPAVCViewPort@@@Z
       3316  CF3 000123E0 ?SetData@CAnimObject@@QAEXPAVCAnimData@@@Z
       3317  CF4 000A83B0 ?SetData@CModelObject@@QAEXPAVCModelData@@@Z
       3318  CF5 00012420 ?SetData_t@CAnimObject@@QAEXABVCTFileName@@@Z
       3319  CF6 000A88C0 ?SetData_t@CModelObject@@QAEXABVCTFileName@@@Z
       3320  CF7 00083A60 ?SetData_t@CTextureObject@@QAEXABVCTFileName@@@Z
       3321  CF8 00127BE0 ?SetDefaultProperties@CEntity@@UAEXXZ
       3322  CF9 00196280 ?SetDefaultProperties@CMovableBrushEntity@@UAEXXZ
       3323  CFA 00197430 ?SetDefaultProperties@CMovableEntity@@UAEXXZ
       3324  CFB 0019EE00 ?SetDefaultProperties@CMovableModelEntity@@UAEXXZ
       3325  CFC 001A1150 ?SetDefaultProperties@CPlayerEntity@@UAEXXZ
       3326  CFD 000B9070 ?SetDescription@CWorld@@QAEXABVCTString@@@Z
       3327  CFE 00196670 ?SetDesiredRotation@CMovableEntity@@QAEXABV?$Vector@M$02@@@Z
       3328  CFF 00196720 ?SetDesiredTranslation@CMovableEntity@@QAEXABV?$Vector@M$02@@@Z
       3329  D00 00063C10 ?SetDisplayMode@CGfxLibrary@@QAEHW4GfxAPIType@@JJJW4DisplayDepth@@@Z
       3330  D01 000BE910 ?SetEdgesFillType@CWorldRenderPrefs@@QAEXW4FillType@1@@Z
       3331  D02 000BE930 ?SetEdgesInkColor@CWorldRenderPrefs@@QAEXK@Z
       3332  D03 000BE780 ?SetEditorModelsOn@CWorldRenderPrefs@@QAEXH@Z
       3333  D04 000BEA30 ?SetEmptyBrushModel@CWorldRenderPrefs@@QAEXPAVCModelObject@@@Z
       3334  D05 0008F3B0 ?SetEnvironment@CSoundLibrary@@QAEXW4SndEnvFX@@@Z
       3335  D06 00003DB0 ?SetEnvironmentType@CBrushSector@@QAEXJ@Z
       3336  D07 00017A20 ?SetErrorFatalErrorCallback@@YAXP6AXABVCTString@@@Z@Z
       3337  D08 0001D030 ?SetErrorInsufficientMemoryCallback@@YAXP6AXJ@Z@Z
       3338  D09 0002BEF0 ?SetErrorReadingCallback@@YAXP6AXABVCTFileName@@@Z@Z
       3339  D0A 0002BF00 ?SetErrorWritingCallback@@YAXP6AXABVCTFileName@@@Z@Z
       3340  D0B 000253F0 ?SetFLOAT@CShell@@QAEXABVCTString@@M@Z
       3341  D0C 000374F0 ?SetFPUPrecision@@YAXW4FPUPrecisionType@@@Z
       3342  D0D 00004CD0 ?SetFallDamage@CEntity@@QAEXXZ
       3343  D0E 000BE7A0 ?SetFieldBrushesOn@CWorldRenderPrefs@@QAEXH@Z
       3344  D0F 0002B5B0 ?SetFileSize_t@CTFileStream@@QAEXJ@Z
       3345  D10 00001E00 ?SetFixedWidth@CFontData@@QAEXXZ
       3346  D11 00004DD0 ?SetFlagOff@CEntity@@QAEXK@Z
       3347  D12 00004DC0 ?SetFlagOn@CEntity@@QAEXK@Z
       3348  D13 00118AD0 ?SetFlags@CEntity@@QAEXK@Z
       3349  D14 0005DF70 ?SetFlags@CTerrain@@QAEXK@Z
       3350  D15 000BE820 ?SetFogOn@CWorldRenderPrefs@@QAEXH@Z
       3351  D16 00003D50 ?SetFogType@CBrushSector@@QAEXJ@Z
       3352  D17 00053500 ?SetFont@CDrawPort@@QAEXPAVCFontData@@@Z
       3353  D18 00003D20 ?SetForceType@CBrushSector@@QAEXJ@Z
       3354  D19 000908B0 ?SetFormat@CSoundLibrary@@QAEXW4SoundFormat@1@H@Z
       3355  D1A 00090770 ?SetFormat_internal@CSoundLibrary@@AAEXW4SoundFormat@1@H@Z
       3356  D1B 000115E0 ?SetFrame@CAnimData@@QAEXJJJ@Z
       3357  D1C 000110C0 ?SetFrames@CAnimData@@QAEXJJPAJ@Z
       3358  D1D 000E6E90 ?SetGameFinished@CNetworkLibrary@@QAEXXZ
       3359  D1E 000BE840 ?SetHazeOn@CWorldRenderPrefs@@QAEXH@Z
       3360  D1F 00003D80 ?SetHazeType@CBrushSector@@QAEXJ@Z
       3361  D20 00004FA0 ?SetHealth@CLiveEntity@@QAEXM@Z
       3362  D21 000A3B30 ?SetHiddenLines@CModelRenderPrefs@@QAEXH@Z
       3363  D22 000BE720 ?SetHiddenLinesOn@CWorldRenderPrefs@@QAEXH@Z
       3364  D23 00025470 ?SetINDEX@CShell@@QAEXABVCTString@@J@Z
       3365  D24 000A3C00 ?SetInkColor@CModelRenderPrefs@@QAEXK@Z
       3366  D25 00019970 ?SetJoyPolling@CInput@@QAEXH@Z
       3367  D26 0013C6C0 ?SetLayerParameters@CLightSource@@QAEXAAVCBrushShadowLayer@@AAVCBrushPolygon@@AAVCLightRectangle@@@Z
       3368  D27 000BE9B0 ?SetLensFlaresType@CWorldRenderPrefs@@QAEXW4LensFlaresType@1@@Z
       3369  D28 0002FCF0 ?SetLerp2@CTimer@@QAEXM@Z
       3370  D29 0002FCE0 ?SetLerp@CTimer@@QAEXM@Z
       3371  D2A 00102430 ?SetLerpFactor@CSessionState@@QAEXVCTimerValue@@@Z
       3372  D2B 0013D990 ?SetLightSource@CLightSource@@QAEXABV1@@Z
       3373  D2C 0013C8C0 ?SetLightSourceWithNoDiscarding@CLightSource@@QAEXABV1@@Z
       3374  D2D 00001DF0 ?SetLineSpacing@CFontData@@QAEXJ@Z
       3375  D2E 000E6E60 ?SetLocalPause@CNetworkLibrary@@QAEXH@Z
       3376  D2F 000547B0 ?SetLogicalRectInLogical@CDrawPort@@QAEXABV?$AABBox@J$01@@@Z
       3377  D30 00054760 ?SetLogicalRectInPhysical@CDrawPort@@QAEXABV?$AABBox@J$01@@@Z
       3378  D31 00053980 ?SetLogicalRectInRaster@CDrawPort@@QAEXABV?$AABBox@J$01@@@Z
       3379  D32 000BE890 ?SetManualMipBrushingFactor@CWorldRenderPrefs@@QAEXM@Z
       3380  D33 000A3F20 ?SetManualMipLevel@CModelObject@@QAEXJ@Z
       3381  D34 000BE9D0 ?SetMinimumRenderRange@CWorldRenderPrefs@@QAEXM@Z
       3382  D35 0012DAC0 ?SetMipDistance@CBrushMip@@QAEXM@Z
       3383  D36 000A4A40 ?SetMipSwitchFactor@CModelObject@@QAEXJM@Z
       3384  D37 000BE860 ?SetMirrorsOn@CWorldRenderPrefs@@QAEXH@Z
       3385  D38 00122640 ?SetModel@CEntity@@QAEXABVCTFileName@@@Z
       3386  D39 00122710 ?SetModel@CEntity@@QAEXJ@Z
       3387  D3A 00119850 ?SetModelAttachmentReflectionTexture@CEntity@@QAEXJJ@Z
       3388  D3B 00119890 ?SetModelAttachmentSpecularTexture@CEntity@@QAEXJJ@Z
       3389  D3C 00118C00 ?SetModelColor@CEntity@@QAEXK@Z
       3390  D3D 00153040 ?SetModelColor@CModelInstance@@QAEXK@Z
       3391  D3E 001195C0 ?SetModelMainTexture@CEntity@@QAEXABVCTFileName@@@Z
       3392  D3F 00119680 ?SetModelMainTexture@CEntity@@QAEXJ@Z
       3393  D40 001196D0 ?SetModelReflectionTexture@CEntity@@QAEXJ@Z
       3394  D41 00119700 ?SetModelSpecularTexture@CEntity@@QAEXJ@Z
       3395  D42 000AB980 ?SetModelView@CRenderModel@@QAEXXZ
       3396  D43 00097C80 ?SetModel_t@CAttachedModel@@QAEXVCTFileName@@@Z
       3397  D44 00011570 ?SetName@CAnimData@@QAEXJVCTString@@@Z
       3398  D45 0017B610 ?SetName@CEffect@@QAEXPBD@Z
       3399  D46 00151F40 ?SetName@CModelInstance@@QAEXABVCTString@@@Z
       3400  D47 00129720 ?SetName@CPlayerCharacter@@QAEXVCTString@@@Z
       3401  D48 000B90B0 ?SetName@CWorld@@QAEXABVCTString@@@Z
       3402  D49 000F3250 ?SetNonBlocking_t@CCommunicationInterface@@QAEXXZ
       3403  D4A 000AB900 ?SetObjectPlacement@CRenderModel@@QAEXABV?$Vector@M$02@@ABV?$Matrix@M$02$02@@@Z
       3404  D4B 000AB8D0 ?SetObjectPlacement@CRenderModel@@QAEXABVCPlacement3D@@@Z
       3405  D4C 00153460 ?SetOffset@CModelInstance@@QAEXQAM@Z
       3406  D4D 00151EC0 ?SetOffsetPos@CModelInstance@@QAEXV?$Vector@M$02@@@Z
       3407  D4E 001534C0 ?SetOffsetRot@CModelInstance@@QAEXV?$Vector@M$02@@@Z
       3408  D4F 000539D0 ?SetOrtho@CDrawPort@@QBEXXZ
       3409  D50 00019300 ?SetOverlappedRendering@CDrawPort@@QAEXH@Z
       3410  D51 0001FA50 ?SetOwner@CSoundObject@@QAEXPAVCEntity@@@Z
       3411  D52 000A3C20 ?SetPaperColor@CModelRenderPrefs@@QAEXK@Z
       3412  D53 00118AE0 ?SetParent@CEntity@@QAEXPAV1@@Z
       3413  D54 00151EB0 ?SetParentBone@CModelInstance@@QAEXJ@Z
       3414  D55 0009E770 ?SetPatchStretch@CEditModel@@QAEXJM@Z
       3415  D56 000A3F60 ?SetPatchesMask@CModelObject@@QAEXK@Z
       3416  D57 00054710 ?SetPhysicalRectInLogical@CDrawPort@@QAEXABV?$AABBox@J$01@@@Z
       3417  D58 000546C0 ?SetPhysicalRectInPhysical@CDrawPort@@QAEXABV?$AABBox@J$01@@@Z
       3418  D59 00053900 ?SetPhysicalRectInRaster@CDrawPort@@QAEXABV?$AABBox@J$01@@@Z
       3419  D5A 00122A90 ?SetPhysicsFlags@CEntity@@QAEXK@Z
       3420  D5B 00092EB0 ?SetPitch@CSoundObject@@QAEXMPAVCEntity@@H@Z
       3421  D5C 0011A9B0 ?SetPlacement@CEntity@@QAEXABVCPlacement3D@@@Z
       3422  D5D 001969D0 ?SetPlacementFromNextPosition@CMovableEntity@@QAEXXZ
       3423  D5E 001203C0 ?SetPlacement_special@CEntity@@UAEXABVCPlacement3D@@ABV?$Matrix@M$02$02@@K@Z
       3424  D5F 001A1470 ?SetPlayerWeapon@CPlayerEntity@@UAEXXZ
       3425  D60 000BE950 ?SetPolygonsFillType@CWorldRenderPrefs@@QAEXW4FillType@1@@Z
       3426  D61 000BE970 ?SetPolygonsInkColor@CWorldRenderPrefs@@QAEXK@Z
       3427  D62 0002A590 ?SetPos_t@CTStream@@QAEXJ@Z
       3428  D63 0001EAB0 ?SetProgressDescription@@YAXABVCTString@@@Z
       3429  D64 0001EB50 ?SetProgressFile@@YAXABVCTFileName@@@Z
       3430  D65 0001E9B0 ?SetProgressHook@@YAXP6AXPAVCProgressHookInfo@@@Z@Z
       3431  D66 00054CA0 ?SetProjection@CDrawPort@@QBEXAAVCAnyProjection3D@@@Z
       3432  D67 00016650 ?SetPutTextCallback@@YAXP6AXVCTString@@@Z@Z
       3433  D68 00093230 ?SetRange@CSoundObject@@QAEXMMPAVCEntity@@H@Z
       3434  D69 000E6F50 ?SetRealTimeFactor@CNetworkLibrary@@QAEXM@Z
       3435  D6A 0002FCB0 ?SetRealTimeTick@CTimer@@QAEXM@Z
       3436  D6B 001963F0 ?SetReapplyingActions@CMovableEntity@@UAEXXZ
       3437  D6C 000A3AC0 ?SetRenderType@CModelRenderPrefs@@QAEXK@Z
       3438  D6D 000A3D30 ?SetRenderingParameters@MappingSurface@@QAEXK@Z
       3439  D6E 000BE9F0 ?SetSelectedEntityModel@CWorldRenderPrefs@@QAEXPAVCModelObject@@@Z
       3440  D6F 000BEA10 ?SetSelectedPortalModel@CWorldRenderPrefs@@QAEXPAVCModelObject@@@Z
       3441  D70 000BEA50 ?SetSelectionType@CWorldRenderPrefs@@QAEXW4SelectionType@1@@Z
       3442  D71 000A3AF0 ?SetShadingType@CModelRenderPrefs@@QAEXK@Z
       3443  D72 000A3B60 ?SetShadowQuality@CModelRenderPrefs@@QAEXJ@Z
       3444  D73 000BE990 ?SetShadowsType@CWorldRenderPrefs@@QAEXW4ShadowsType@1@@Z
       3445  D74 000BE760 ?SetShowEntityNamesOn@CWorldRenderPrefs@@QAEXH@Z
       3446  D75 000BE740 ?SetShowTargetsOn@CWorldRenderPrefs@@QAEXH@Z
       3447  D76 00122740 ?SetSkaColisionInfo@CEntity@@QAEXXZ
       3448  D77 001228F0 ?SetSkaModel@CEntity@@QAEHABVCTString@@@Z
       3449  D78 001229D0 ?SetSkaModel@CEntity@@QAEXJ@Z
       3450  D79 00122850 ?SetSkaModel_t@CEntity@@QAEXABVCTString@@@Z
       3451  D7A 00001E20 ?SetSpaceWidth@CFontData@@QAEXM@Z
       3452  D7B 00004E20 ?SetSpawnFlags@CEntity@@QAEXK@Z
       3453  D7C 000B90F0 ?SetSpawnFlags@CWorld@@QAEXK@Z
       3454  D7D 000115A0 ?SetSpeed@CAnimData@@QAEXJM@Z
       3455  D7E 00025510 ?SetString@CShell@@QAEXABVCTString@@0@Z
       3456  D7F 000A4B60 ?SetSurfaceColor@CModelObject@@QAEXJJK@Z
       3457  D80 000A4C40 ?SetSurfaceRenderFlags@CModelObject@@QAEXJJW4SurfaceShadingType@@W4SurfaceTranslucencyType@@K@Z
       3458  D81 00129840 ?SetTeam@CPlayerCharacter@@QAEXVCTString@@@Z
       3459  D82 00019370 ?SetTextAspect@CDrawPort@@QAEXM@Z
       3460  D83 00019390 ?SetTextBlendingType@CDrawPort@@QAEXK@Z
       3461  D84 00019340 ?SetTextCharSpacing@CDrawPort@@QAEXJ@Z
       3462  D85 000193A0 ?SetTextFlags@CDrawPort@@QAEXK@Z
       3463  D86 00019350 ?SetTextLineSpacing@CDrawPort@@QAEXJ@Z
       3464  D87 000193B0 ?SetTextMode@CDrawPort@@QAEXJ@Z
       3465  D88 00019360 ?SetTextScaling@CDrawPort@@QAEXM@Z
       3466  D89 00019380 ?SetTextShadow@CDrawPort@@QAEXM@Z
       3467  D8A 001521A0 ?SetTexture@CModelInstance@@QAEXVCTString@@0@Z
       3468  D8B 001523A0 ?SetTextureA2B@CModelInstance@@QAEXVCTString@@0@Z
       3469  D8C 000A3F70 ?SetTextureData@CModelObject@@QAEXPAVCTextureData@@@Z
       3470  D8D 000BE8C0 ?SetTextureLayerOn@CWorldRenderPrefs@@QAEXHJ@Z
       3471  D8E 000A3AD0 ?SetTextureType@CModelRenderPrefs@@QAEXK@Z
       3472  D8F 00004D20 ?SetTimerAfter@CEntity@@QAEXM@Z
       3473  D90 0011A230 ?SetTimerAfter@CRationalEntity@@QAEXM@Z
       3474  D91 00004D10 ?SetTimerAt@CEntity@@QAEXM@Z
       3475  D92 0011A1C0 ?SetTimerAt@CRationalEntity@@QAEXM@Z
       3476  D93 0018CB50 ?SetTransform@CPGroup@@QAEXV?$Matrix@M$02$02@@V?$Vector@M$02@@@Z
       3477  D94 0018CB80 ?SetTransformMode@CPGroup@@QAEXH@Z
       3478  D95 0018BA30 ?SetUp@CParticleFX@@QAEXAAVCPGroup@@@Z
       3479  D96 00025670 ?SetValue@CShell@@QAEXABVCTString@@0@Z
       3480  D97 00001E10 ?SetVariableWidth@CFontData@@QAEXXZ
       3481  D98 000BE8D0 ?SetVerticesFillType@CWorldRenderPrefs@@QAEXW4FillType@1@@Z
       3482  D99 000BE8F0 ?SetVerticesInkColor@CWorldRenderPrefs@@QAEXK@Z
       3483  D9A 000BE7E0 ?SetVisTweaksOn@CWorldRenderPrefs@@QAEXH@Z
       3484  D9B 00093150 ?SetVolume@CSoundObject@@QAEXMPAVCEntity@@H@Z
       3485  D9C 001A1240 ?SetWeaponAndAnimator@CPlayerEntity@@UAEXXZ
       3486  D9D 000A3B10 ?SetWire@CModelRenderPrefs@@QAEXH@Z
       3487  D9E 0007A280 ?SetXformRegister@@YAXXZ
       3488  D9F 000AD990 ?SetupModelRendering@CModelObject@@QAEXAAVCRenderModel@@@Z
       3489  DA0 0006A090 ?SetupPixelFormat_OGL@CGfxLibrary@@AAEHPAUHDC__@@H@Z
       3490  DA1 000B9A80 ?ShowAllEntities@CWorld@@QAEXXZ
       3491  DA2 000B9BA0 ?ShowAllSectors@CWorld@@QAEXXZ
       3492  DA3 000A5040 ?ShowPatch@CModelObject@@QAEXJ@Z
       3493  DA4 000FA8E0 ?Shrink@CNetworkMessage@@QAEXXZ
       3494  DA5 0001D020 ?ShrinkMemory@@YAXPAPAXJ@Z
       3495  DA6 0008E9D0 ?ShutDown_dsound@CSoundLibrary@@AAEXXZ
       3496  DA7 000900B0 ?ShutDown_waveout@CSoundLibrary@@AAEXXZ
       3497  DA8 0018BA80 ?Simulate@CParticleFX@@QAEXAAVCPGroup@@M@Z
       3498  DA9 00037680 ?Sin@@YAMM@Z
       3499  DAA 00001890 ?SinFast@@YAMM@Z
       3500  DAB 00194360 ?Sink@CPGroup@@QAEXPAVCPDomain@@H@Z
       3501  DAC 00194410 ?SinkVelocity@CPGroup@@QAEXPAVCPDomain@@H@Z
       3502  DAD 0018CE40 ?Size@CPGroup@@QAEXMMM@Z
       3503  DAE 0018CAC0 ?SizeDomain@CPGroup@@QAEXPAVCPDomain@@@Z
       3504  DAF 00022B40 ?SkipModelInstance_t@@YAXAAVCTStream@@@Z
       3505  DB0 00037610 ?Snap@@YAXAAMM@Z
       3506  DB1 00037640 ?Snap@@YAXAANN@Z
       3507  DB2 0001CD90 ?Sort@CListHead@@QAEXP6AHPBX0@ZH@Z
       3508  DB3 00166780 ?SortSkeleton@CSkeleton@@QAEXXZ
       3509  DB4 00165DB0 ?SortSkeletonRecursive@CSkeleton@@QAEXJJ@Z
       3510  DB5 00194750 ?Source@CPGroup@@QAEXPAVCPDomain@@M@Z
       3511  DB6 0018DF90 ?SpeedLimit@CPGroup@@QAEXMM@Z
       3512  DB7 000156C2 ?Split@CTString@@QAEXJAAV1@0@Z
       3513  DB8 000C0560 ?SplitOneSector@CWorld@@QAEXAAVCBrushSector@@AAVCObject3D@@@Z
       3514  DB9 000C0960 ?SplitPolygons@CWorld@@QAEXAAVCEntity@@AAV?$CSelection@VCBrushPolygon@@$0BAA@@@AAV1@0ABVCPlacement3D@@@Z
       3515  DBA 000C12E0 ?SplitSectors@CWorld@@QAEXAAVCEntity@@AAV?$CSelection@VCBrushSector@@$00@@AAV1@0ABVCPlacement3D@@@Z
       3516  DBB 0014E720 ?SplitSurfaces@CMesh@@QAEXAAUMeshLOD@@@Z
       3517  DBC 0012DA80 ?SpreadFurtherMips@CBrushMip@@QAEXXZ
       3518  DBD 000A3CA0 ?SpreadMipSwitchFactors@CModelData@@QAEXJM@Z
       3519  DBE 00012030 ?StartAnim@CAnimObject@@QAEXJ@Z
       3520  DBF 000EEA80 ?StartDemoPlay_t@CNetworkLibrary@@QAEXABVCTFileName@@@Z
       3521  DC0 000E7F40 ?StartDemoRec_t@CNetworkLibrary@@QAEXABVCTFileName@@@Z
       3522  DC1 0005EFF0 ?StartDisplayMode@CGfxLibrary@@AAEHW4GfxAPIType@@JJJW4DisplayDepth@@@Z
       3523  DC2 00118C30 ?StartModelAnim@CEntity@@QAEXJKH@Z
       3524  DC3 001196C0 ?StartModelMainTextureAnim@CEntity@@QAEXJ@Z
       3525  DC4 00100BF0 ?StartNewTick@CServer@@QAEXM@Z
       3526  DC5 000EC6F0 ?StartPeerToPeer_t@CNetworkLibrary@@QAEXABVCTString@@ABVCTFileName@@KJHPAX@Z
       3527  DC6 0001EC30 ?StartProgress@@YAXXZ
       3528  DC7 000F9E20 ?StartProvider_t@CMessageDispatcher@@QAEXABVCNetworkProvider@@@Z
       3529  DC8 0008ED50 ?StartUp_dsound@CSoundLibrary@@AAEHH@Z
       3530  DC9 000902C0 ?StartUp_waveout@CSoundLibrary@@AAEHH@Z
       3531  DCA 00107790 ?Start_AtClient_t@CSessionState@@QAEXJ@Z
       3532  DCB 00102640 ?Start_AtServer_t@CSessionState@@QAEXXZ
       3533  DCC 000FC440 ?Start_t@CPlayerSource@@QAEXAAVCPlayerCharacter@@@Z
       3534  DCD 000FE970 ?Start_t@CServer@@QAEXXZ
       3535  DCE 00107E70 ?Start_t@CSessionState@@QAEXJ@Z
       3536  DCF 0018CB20 ?StartingAge@CPGroup@@QAEXMM@Z
       3537  DD0 00082A80 ?Stereo_AdjustProjection@@YAXAAVCProjection3D@@JM@Z
       3538  DD1 000829F0 ?Stereo_IsEnabled@@YAHXZ
       3539  DD2 00082A00 ?Stereo_SetBuffer@@YAXJ@Z
       3540  DD3 000FC3A0 ?Stop@CPlayerSource@@QAEXXZ
       3541  DD4 00100A00 ?Stop@CServer@@QAEXXZ
       3542  DD5 00103750 ?Stop@CSessionState@@QAEXXZ
       3543  DD6 00093B00 ?Stop@CSoundObject@@QAEXH@Z
       3544  DD7 00093A80 ?Stop@CSoundObject@@QAEXPAVCEntity@@H@Z
       3545  DD8 00153CC0 ?StopAllAnimations@CModelInstance@@QAEXM@Z
       3546  DD9 000E6C90 ?StopDemoRec@CNetworkLibrary@@QAEXXZ
       3547  DDA 00063010 ?StopDisplayMode@CGfxLibrary@@AAEXXZ
       3548  DDB 000EBB40 ?StopGame@CNetworkLibrary@@QAEXXZ
       3549  DDC 000FD670 ?StopNetProcess@CServer@@QAEXXZ
       3550  DDD 0001ED10 ?StopProgress@@YAXXZ
       3551  DDE 000F9E90 ?StopProvider@CMessageDispatcher@@QAEXXZ
       3552  DDF 00093380 ?Stop_internal@CSoundObject@@QAEXH@Z
       3553  DE0 00025710 ?StorePersistentSymbols@CShell@@QAEXABVCTFileName@@@Z
       3554  DE1 0011ADA0 ?StretchModel@CEntity@@QAEXAAV?$Vector@M$02@@J@Z
       3555  DE2 00151F00 ?StretchModel@CModelInstance@@QAEXAAV?$Vector@M$02@@@Z
       3556  DE3 000A55A0 ?StretchModel@CModelObject@@QAEXABV?$Vector@M$02@@@Z
       3557  DE4 000A55E0 ?StretchModelRelative@CModelObject@@QAEXABV?$Vector@M$02@@@Z
       3558  DE5 0011AE80 ?StretchSingleModel@CEntity@@QAEXAAV?$Vector@M$02@@J@Z
       3559  DE6 00152930 ?StretchSingleModel@CModelInstance@@QAEXAAV?$Vector@M$02@@@Z
       3560  DE7 000A3F90 ?StretchSingleModel@CModelObject@@QAEXABV?$Vector@M$02@@@Z
       3561  DE8 00014530 ?StringDuplicate@@YAPADPBD@Z
       3562  DE9 00014570 ?StringDuplicate@@YAPADPBG@Z
       3563  DEA 00014490 ?StringFree@@YAXPAD@Z
       3564  DEB 000F1C00 ?StringToAddress@@YAKABVCTString@@@Z
       3565  DEC 00132B40 ?SubdivideTriangles@CBrushSector@@QAEXAAV?$CSelection@VCBrushPolygon@@$0BAA@@@@Z
       3566  DED 00001200 ?Succ@CListNode@@QBEAAV1@XZ
       3567  DEE 000A4FF0 ?SurfacesCt@CModelObject@@QAEJJ@Z
       3568  DEF 00063200 ?SwapBuffers@CGfxLibrary@@QAEXPAVCViewPort@@H@Z
       3569  DF0 0008C560 ?SwapBuffers@CViewPort@@QAEXH@Z
       3570  DF1 00012110 ?SwitchToAnim@CAnimObject@@QAEXJ@Z
       3571  DF2 00118BD0 ?SwitchToEditorModel@CEntity@@QAEXXZ
       3572  DF3 00118BA0 ?SwitchToModel@CEntity@@QAEXXZ
       3573  DF4 0012A1A0 ?SwitchToNonZoning@CBrush3D@@QAEXXZ
       3574  DF5 0012A240 ?SwitchToZoning@CBrush3D@@QAEXXZ
       3575  DF6 00011F20 ?Synchronize@CAnimObject@@QAEXAAV1@@Z
       3576  DF7 00153F70 ?Synchronize@CModelInstance@@QAEXAAV1@@Z
       3577  DF8 000A69E0 ?Synchronize@CModelObject@@QAEXAAV1@@Z
       3578  DF9 00167210 ?TRE_FreeBufferForEditing@@YAXPAG@Z
       3579  DFA 00167290 ?TRE_GetBufferForEditing@@YAPAGPAVCTerrain@@VCTRect@@W4BufferType@@J@Z
       3580  DFB 001674D0 ?TRE_SetBufferForEditing@@YAXPAVCTerrain@@PAGVCTRect@@W4BufferType@@J@Z
       3581  DFC 00167190 ?TRE_ShowSelection@@YAXPBVCTerrain@@AAVCTRect@@PAVCTextureData@@KMW4SelectionFill@@W4BufferType@@@Z
       3582  DFD 0016BB10 ?TRL_ApplyLayerMatrix@@YAXPAVCTerrain@@J@Z
       3583  DFE 0016C530 ?TRL_CreateLayer_t@@YAJPAVCTerrain@@ABVCTFileName@@@Z
       3584  DFF 0016C680 ?TRL_DeleteLayer@@YAXPAVCTerrain@@JH@Z
       3585  E00 0016B8C0 ?TRL_ExportLayerMask_t@@YAXPAVCTerrain@@JABVCTFileName@@@Z
       3586  E01 0016B8B0 ?TRL_ExportLayerMask_t@@YAXPAVCTerrain@@PAVCTerrainLayer@@ABVCTFileName@@@Z
       3587  E02 0016BAB0 ?TRL_FillLayerData@@YAXPAVCTerrain@@JE@Z
       3588  E03 0016BA10 ?TRL_GetLayerTexture_t@@YAPAVCTextureData@@PAVCTerrain@@J@Z
       3589  E04 0016BDB0 ?TRL_GetLayerThumbnail@@YAPAVCTextureData@@PAVCTerrain@@JJJ@Z
       3590  E05 0016BD80 ?TRL_ImportLayerMask_t@@YAXPAVCTerrain@@JABVCTFileName@@@Z
       3591  E06 0016BC90 ?TRL_ImportLayerMask_t@@YAXPAVCTerrain@@PAVCTerrainLayer@@ABVCTFileName@@@Z
       3592  E07 0016C170 ?TRL_ReadLayerData_t@@YAXPAVCTerrain@@JPAVCTStream@@@Z
       3593  E08 0016C7B0 ?TRL_SetLayerIndex@@YAJPAVCTerrain@@JJ@Z
       3594  E09 0016B9E0 ?TRL_SetLayerTexture_t@@YAXPAVCTerrain@@JABVCTFileName@@@Z
       3595  E0A 0016B890 ?TRL_SetLayerTexture_t@@YAXPAVCTerrain@@PAVCTerrainLayer@@ABVCTFileName@@@Z
       3596  E0B 0016C1E0 ?TRL_WriteLayerData_t@@YAXPAVCTerrain@@JPAVCTStream@@@Z
       3597  E0C 001748B0 ?TRS_AddDirectionalLight@@YAXKKVCPlacement3D@@@Z
       3598  E0D 00174830 ?TRS_AddPointLight@@YAXMMKVCPlacement3D@@@Z
       3599  E0E 00172E10 ?TRS_BeginShadowMapUpdate@@YAXPAVCTerrain@@@Z
       3600  E0F 00174920 ?TRS_ColectLightsFromWorld@@YAXPAVCTerrain@@@Z
       3601  E10 00172EB0 ?TRS_EndShadowMapUpdate@@YAXPAVCTerrain@@@Z
       3602  E11 00172D90 ?TRS_SetTerrainPlacement@@YAXAAY0M@$$CBM@Z
       3603  E12 00172E20 ?TRS_SetTerrainPlacement@@YAXABVCPlacement3D@@@Z
       3604  E13 00174630 ?TRS_UpdateShadowMap@@YAXPAVCTerrain@@V?$AABBox@M$02@@@Z
       3605  E14 001721F0 ?TR_AddTerrainViewer@@YAXPBVCTerrain@@V?$Vector@M$02@@M@Z
       3606  E15 0016F180 ?TR_AreHardwareShadersAvailable@@YAHXZ
       3607  E16 0016FA50 ?TR_BeginRenderingView@@YAXAAVCAnyProjection3D@@PAVCDrawPort@@@Z
       3608  E17 001766C0 ?TR_BindTerrainTextures@@YAXPAVCTerrain@@@Z
       3609  E18 0016D450 ?TR_CalcShadingTC@@YA?AV?$Vector@M$01@@PBVCTerrain@@ABV?$Vector@M$02@@AAY0M@$$CBM@Z
       3610  E19 0016F3E0 ?TR_CleanRender@@YAXPAVCTerrain@@@Z
       3611  E1A 001697C0 ?TR_ClearTerrain@@YAXPAVCTerrain@@@Z
       3612  E1B 00176C00 ?TR_CopyTerrain@@YAXPAVCTerrain@@PBV1@@Z
       3613  E1C 00176370 ?TR_DiscardShadingInfos@@YAXPAVCTerrain@@@Z
       3614  E1D 0016F1C0 ?TR_EndRenderingView@@YAXXZ
       3615  E1E 00167B50 ?TR_ExportEdgeMap_t@@YAXPAVCTerrain@@ABVCTFileName@@@Z
       3616  E1F 00167970 ?TR_ExportHeightMap_t@@YAXPAVCTerrain@@ABVCTFileName@@H@Z
       3617  E20 0016D540 ?TR_ExtractPoligonsInRect@@YAXPBVCTerrain@@ABVCTRect@@PAPAV?$Vector@M$02@@AAJPAPAG3@Z
       3618  E21 0016DAA0 ?TR_ExtractPolygonsInBox@@YAXPBVCTerrain@@ABV?$AABBox@M$02@@AAY0M@$$CBMPAPAV?$Vector@M$02@@AAJPAPAG4@Z
       3619  E22 00176940 ?TR_FillEdgeMap@@YAXPAVCTerrain@@E@Z
       3620  E23 00176280 ?TR_FillHeightMap@@YAXPAVCTerrain@@G@Z
       3621  E24 0016F1F0 ?TR_ForceCustomTileLOD@@YAXJ@Z
       3622  E25 00176320 ?TR_GetHeightMapHeight@@YAJPBVCTerrain@@@Z
       3623  E26 00176310 ?TR_GetHeightMapWidth@@YAJPBVCTerrain@@@Z
       3624  E27 0016D3F0 ?TR_GetMatrixFromEntity@@YAXAAY0M@MPBVCTerrain@@@Z
       3625  E28 00176DD0 ?TR_GetPlaneFromPoint@@YA?AV?$Plane@M$02@@PBVCTerrain@@AAY0M@$$CBMABV?$Vector@M$02@@@Z
       3626  E29 0016D020 ?TR_GetShadeColor@@YAKPBVCTerrain@@PAVCShadingInfo@@@Z
       3627  E2A 001762C0 ?TR_GetShadingMapAspect@@YAJPBVCTerrain@@@Z
       3628  E2B 001762B0 ?TR_GetShadowMapAspect@@YAJPBVCTerrain@@@Z
       3629  E2C 00176820 ?TR_GetStretchedTerrainBBox@@YA?AV?$AABBox@M$02@@PBVCTerrain@@@Z
       3630  E2D 001767E0 ?TR_GetTerrainBBox@@YA?AV?$AABBox@M$02@@PBVCTerrain@@@Z
       3631  E2E 0016CB00 ?TR_GetTerrainInfo@@YA?AVCTString@@PBVCTerrain@@@Z
       3632  E2F 001762E0 ?TR_GetTerrainSize@@YA?AV?$Vector@M$02@@PBVCTerrain@@@Z
       3633  E30 00176330 ?TR_GetTerrainStretch@@YA?AV?$Vector@M$02@@PBVCTerrain@@@Z
       3634  E31 00167A80 ?TR_ImportEdgeMap_t@@YAXPAVCTerrain@@ABVCTFileName@@@Z
       3635  E32 0016A4C0 ?TR_ImportHeightMap_t@@YAXPAVCTerrain@@ABVCTFileName@@H@Z
       3636  E33 00176360 ?TR_IsTerrainBelowPoint@@YAHPBVCTerrain@@ABV?$Vector@M$02@@M1@Z
       3637  E34 0016A3E0 ?TR_RegenerateAll@@YAXPAVCTerrain@@@Z
       3638  E35 0016CF50 ?TR_RelFromAbsPoint@@YA?AV?$Vector@J$01@@PBVCTerrain@@ABV?$Vector@M$02@@AAY0M@$$CBM@Z
       3639  E36 001725E0 ?TR_RenderTerrain@@YAXPAVCTerrain@@@Z
       3640  E37 00172680 ?TR_RenderWireFrame@@YAXPAVCTerrain@@K@Z
       3641  E38 0016F1E0 ?TR_SetCurrentDistance@@YAXM@Z
       3642  E39 001762D0 ?TR_SetDistanceFactor@@YAXPAVCTerrain@@M@Z
       3643  E3A 0016A400 ?TR_SetHeightMapSize@@YAXPAVCTerrain@@JJ@Z
       3644  E3B 00168FA0 ?TR_SetShadowMapSize@@YAXPAVCTerrain@@JJ@Z
       3645  E3C 0016F360 ?TR_SetTerrainPlacement@@YAXABV?$Matrix@M$02$02@@ABV?$Vector@M$02@@@Z
       3646  E3D 0016F2D0 ?TR_SetTerrainPlacement@@YAXABVCPlacement3D@@@Z
       3647  E3E 00176990 ?TR_SetTerrainSize@@YAXPAVCTerrain@@V?$Vector@M$02@@@Z
       3648  E3F 0016EC50 ?TR_TestRayCastHit@@YAMPAVCTerrain@@ABV?$Matrix@M$02$02@@ABV?$Vector@M$02@@V3@3MH@Z
       3649  E40 0016EE40 ?TR_TestRayCastHit@@YAMPAVCTerrain@@ABV?$Matrix@M$02$02@@ABV?$Vector@M$02@@V3@3MHAAV?$Plane@M$02@@AAV3@@Z
       3650  E41 00176720 ?TR_UnbindTerrainTextures@@YAXPAVCTerrain@@@Z
       3651  E42 00176220 ?TR_UpdateShadowMap@@YAXPAVCTerrain@@AAY0M@$$CBMV?$AABBox@M$02@@H@Z
       3652  E43 002E43A0 ?TS@@3UTextureSettings@@A
       3653  E44 000012D0 ?Tail@CListHead@@QBEAAVCListNode@@XZ
       3654  E45 00037760 ?Tan@@YAMM@Z
       3655  E46 000018D0 ?TanFast@@YAMM@Z
       3656  E47 0018DE80 ?TargetColor@CPGroup@@QAEXV?$Vector@M$02@@MM@Z
       3657  E48 0018DC30 ?TargetSize@CPGroup@@QAEXV?$Vector@M$02@@MMM@Z
       3658  E49 0018DD30 ?TargetVelocity@CPGroup@@QAEXV?$Vector@M$02@@M@Z
       3659  E4A 001234B0 ?Teleport@CEntity@@QAEXABVCPlacement3D@@H@Z
       3660  E4B 0011C220 ?TerrainChangeNotify@CEntity@@QAEXXZ
       3661  E4C 00045700 ?TestBoxToFrustum@CIsometricProjection3D@@UBEJABV?$OBBox@M@@@Z
       3662  E4D 000473A0 ?TestBoxToFrustum@CParallelProjection3D@@UBEJABV?$OBBox@M@@@Z
       3663  E4E 00048390 ?TestBoxToFrustum@CPerspectiveProjection3D@@UBEJABV?$OBBox@M@@@Z
       3664  E4F 000499B0 ?TestBoxToFrustum@CSimpleProjection3D@@UBEJABV?$OBBox@M@@@Z
       3665  E50 00198420 ?TestBreathing@CMovableEntity@@QAEXAAVCContentType@@@Z
       3666  E51 000CFE50 ?TestBrushSector@CCastRay@@QAEXPAVCBrushSector@@@Z
       3667  E52 001985A0 ?TestContentDamage@CMovableEntity@@QAEXAAVCContentType@@M@Z
       3668  E53 0006A850 ?TestExtension_OGL@CGfxLibrary@@AAEXKPBD@Z
       3669  E54 0019A130 ?TestFields@CMovableEntity@@QAEXAAJ0AAM@Z
       3670  E55 000CF750 ?TestModel@CCastRay@@QAEXPAVCEntity@@@Z
       3671  E56 000CF090 ?TestModelCollisionBox@CCastRay@@QAEXPAVCEntity@@@Z
       3672  E57 000CF500 ?TestModelFull@CCastRay@@QAEXPAVCEntity@@AAVCModelObject@@@Z
       3673  E58 000CEEB0 ?TestModelSimple@CCastRay@@QAEXPAVCEntity@@AAVCModelObject@@@Z
       3674  E59 000D0670 ?TestSkaModel@CCastRay@@QAEXPAVCEntity@@@Z
       3675  E5A 000CF880 ?TestSkaModelDickBox@CCastRay@@QAE_NPAVCEntity@@AAVCModelInstance@@@Z
       3676  E5B 000D0210 ?TestSkaModelDynamicBox@CCastRay@@QAEXPAVCEntity@@AAVCModelInstance@@@Z
       3677  E5C 000CFB20 ?TestSkaModelFull@CCastRay@@QAEXPAVCEntity@@AAVCModelInstance@@@Z
       3678  E5D 000CF7C0 ?TestSkaModelHeadBox@CCastRay@@QAE_NPAVCEntity@@AAVCModelInstance@@@Z
       3679  E5E 000CF940 ?TestSkaModelSimple@CCastRay@@QAEXPAVCEntity@@AAVCModelInstance@@@Z
       3680  E5F 00045360 ?TestSphereToFrustum@CIsometricProjection3D@@UBEJABV?$Vector@M$02@@M@Z
       3681  E60 00046ED0 ?TestSphereToFrustum@CParallelProjection3D@@UBEJABV?$Vector@M$02@@M@Z
       3682  E61 00047F70 ?TestSphereToFrustum@CPerspectiveProjection3D@@UBEJABV?$Vector@M$02@@M@Z
       3683  E62 000499A0 ?TestSphereToFrustum@CSimpleProjection3D@@UBEJABV?$Vector@M$02@@M@Z
       3684  E63 00198760 ?TestSurfaceDamage@CMovableEntity@@QAEXAAVCSurfaceType@@@Z
       3685  E64 000CE6E0 ?TestTerrain@CCastRay@@QAEXPAVCEntity@@@Z
       3686  E65 000D0980 ?TestThroughSectors@CCastRay@@QAEXXZ
       3687  E66 000D0720 ?TestWholeWorld@CCastRay@@QAEXPAVCWorld@@@Z
       3688  E67 00017870 ?ThrowF_t@@YAXPADZZ
       3689  E68 0002A430 ?Throw_t@CTStream@@QAAXPADZZ
       3690  E69 00014A50 ?Throw_t@CTString@@QAEXXZ
       3691  E6A 0020C010 ?TickQuantum@CTimer@@2MB
       3692  E6B 0018CB40 ?TimeStep@CPGroup@@QAEXM@Z
       3693  E6C 0002FD10 ?TimeToString@@YA?AVCTString@@M@Z
       3694  E6D 0017C780 ?ToFile@CEffect@@QBE_NPBD0@Z
       3695  E6E 000149A0 ?ToLower@CTString@@QAEXXZ
       3696  E6F 0004C450 ?ToMappingVectors@CMappingDefinition@@QBEXABVCMappingVectors@@AAV2@@Z
       3697  E70 0012BB80 ?ToObject3D@CBrushMip@@QAEXAAVCObject3D@@AAV?$CSelection@VCBrushSector@@$00@@@Z
       3698  E71 0012BC30 ?ToObject3D@CBrushMip@@QAEXAAVCObject3D@@AAV?$CSelection@VCBrushSector@@$03@@@Z
       3699  E72 0012B6B0 ?ToObjectSector@CBrushSector@@QAEXAAVCObjectSector@@@Z
       3700  E73 0004BD80 ?ToPlane@CMappingVectors@@QBEXAAV?$Plane@M$02@@@Z
       3701  E74 00186550 ?ToString@CCmdAvoid@@UBEXAAV?$basic_ostream@DU?$char_traits@D@std@@@std@@@Z
       3702  E75 00186290 ?ToString@CCmdBounce@@UBEXAAV?$basic_ostream@DU?$char_traits@D@std@@@std@@@Z
       3703  E76 00181020 ?ToString@CCmdColor@@UBEXAAV?$basic_ostream@DU?$char_traits@D@std@@@std@@@Z
       3704  E77 00186100 ?ToString@CCmdColorDomain@@UBEXAAV?$basic_ostream@DU?$char_traits@D@std@@@std@@@Z
       3705  E78 00183A60 ?ToString@CCmdCopyVertexB@@UBEXAAV?$basic_ostream@DU?$char_traits@D@std@@@std@@@Z
       3706  E79 001853D0 ?ToString@CCmdDamping@@UBEXAAV?$basic_ostream@DU?$char_traits@D@std@@@std@@@Z
       3707  E7A 00185190 ?ToString@CCmdExplosion@@UBEXAAV?$basic_ostream@DU?$char_traits@D@std@@@std@@@Z
       3708  E7B 001837B0 ?ToString@CCmdFollow@@UBEXAAV?$basic_ostream@DU?$char_traits@D@std@@@std@@@Z
       3709  E7C 00183580 ?ToString@CCmdGravitate@@UBEXAAV?$basic_ostream@DU?$char_traits@D@std@@@std@@@Z
       3710  E7D 00184EF0 ?ToString@CCmdGravity@@UBEXAAV?$basic_ostream@DU?$char_traits@D@std@@@std@@@Z
       3711  E7E 00184D10 ?ToString@CCmdJet@@UBEXAAV?$basic_ostream@DU?$char_traits@D@std@@@std@@@Z
       3712  E7F 00183290 ?ToString@CCmdKillOld@@UBEXAAV?$basic_ostream@DU?$char_traits@D@std@@@std@@@Z
       3713  E80 001830A0 ?ToString@CCmdMatchVelocity@@UBEXAAV?$basic_ostream@DU?$char_traits@D@std@@@std@@@Z
       3714  E81 00180DF0 ?ToString@CCmdMaxParticles@@UBEXAAV?$basic_ostream@DU?$char_traits@D@std@@@std@@@Z
       3715  E82 00182660 ?ToString@CCmdMove@@UBEXAAV?$basic_ostream@DU?$char_traits@D@std@@@std@@@Z
       3716  E83 00184AA0 ?ToString@CCmdOrbitLine@@UBEXAAV?$basic_ostream@DU?$char_traits@D@std@@@std@@@Z
       3717  E84 001847B0 ?ToString@CCmdOrbitPoint@@UBEXAAV?$basic_ostream@DU?$char_traits@D@std@@@std@@@Z
       3718  E85 00186500 ?ToString@CCmdRandomAccel@@UBEXAAV?$basic_ostream@DU?$char_traits@D@std@@@std@@@Z
       3719  E86 001864B0 ?ToString@CCmdRandomDisplace@@UBEXAAV?$basic_ostream@DU?$char_traits@D@std@@@std@@@Z
       3720  E87 00186460 ?ToString@CCmdRandomVelocity@@UBEXAAV?$basic_ostream@DU?$char_traits@D@std@@@std@@@Z
       3721  E88 00183E10 ?ToString@CCmdRestore@@UBEXAAV?$basic_ostream@DU?$char_traits@D@std@@@std@@@Z
       3722  E89 00186400 ?ToString@CCmdSink@@UBEXAAV?$basic_ostream@DU?$char_traits@D@std@@@std@@@Z
       3723  E8A 00186610 ?ToString@CCmdSinkVelocity@@UBEXAAV?$basic_ostream@DU?$char_traits@D@std@@@std@@@Z
       3724  E8B 00184560 ?ToString@CCmdSize@@UBEXAAV?$basic_ostream@DU?$char_traits@D@std@@@std@@@Z
       3725  E8C 001861F0 ?ToString@CCmdSizeDomain@@UBEXAAV?$basic_ostream@DU?$char_traits@D@std@@@std@@@Z
       3726  E8D 00186350 ?ToString@CCmdSource@@UBEXAAV?$basic_ostream@DU?$char_traits@D@std@@@std@@@Z
       3727  E8E 00184200 ?ToString@CCmdSpeedLimit@@UBEXAAV?$basic_ostream@DU?$char_traits@D@std@@@std@@@Z
       3728  E8F 00181EA0 ?ToString@CCmdStartingAge@@UBEXAAV?$basic_ostream@DU?$char_traits@D@std@@@std@@@Z
       3729  E90 00185600 ?ToString@CCmdTargetColor@@UBEXAAV?$basic_ostream@DU?$char_traits@D@std@@@std@@@Z
       3730  E91 00185860 ?ToString@CCmdTargetSize@@UBEXAAV?$basic_ostream@DU?$char_traits@D@std@@@std@@@Z
       3731  E92 00185A60 ?ToString@CCmdTargetVelocity@@UBEXAAV?$basic_ostream@DU?$char_traits@D@std@@@std@@@Z
       3732  E93 00182070 ?ToString@CCmdTimeStep@@UBEXAAV?$basic_ostream@DU?$char_traits@D@std@@@std@@@Z
       3733  E94 00181440 ?ToString@CCmdVelocity@@UBEXAAV?$basic_ostream@DU?$char_traits@D@std@@@std@@@Z
       3734  E95 001861A0 ?ToString@CCmdVelocityDomain@@UBEXAAV?$basic_ostream@DU?$char_traits@D@std@@@std@@@Z
       3735  E96 00181AF0 ?ToString@CCmdVertexB@@UBEXAAV?$basic_ostream@DU?$char_traits@D@std@@@std@@@Z
       3736  E97 00186240 ?ToString@CCmdVertexBDomain@@UBEXAAV?$basic_ostream@DU?$char_traits@D@std@@@std@@@Z
       3737  E98 00185D50 ?ToString@CCmdVortex@@UBEXAAV?$basic_ostream@DU?$char_traits@D@std@@@std@@@Z
       3738  E99 0004B930 ?ToUI@CMappingDefinition@@QBEXAAVCMappingDefinitionUI@@@Z
       3739  E9A 00014940 ?ToUpper@CTString@@QAEXXZ
       3740  E9B 000E6D70 ?TogglePause@CNetworkLibrary@@QAEXXZ
       3741  E9C 0012F620 ?TouchesInAnySector@CBrushEdge@@QAEHAAV1@@Z
       3742  E9D 0012FA90 ?TouchesInAnySector@CBrushPolygon@@QAEHAAV1@@Z
       3743  E9E 0012F230 ?TouchesInSameSector@CBrushEdge@@QAEHAAV1@@Z
       3744  E9F 0012FB20 ?TouchesInSameSector@CBrushPolygon@@QAEHAAV1@@Z
       3745  EA0 00128C30 ?TouchingEntity@CEntity@@QAEPAV1@P6AHPAV1@@Z0@Z
       3746  EA1 0004CA90 ?Transform@CMappingDefinition@@QAEXABV?$Plane@M$02@@ABVCPlacement3D@@1@Z
       3747  EA2 0004C120 ?TransformMappingVectors@CMappingDefinition@@QBEXABVCMappingVectors@@AAV2@@Z
       3748  EA3 001869C0 ?TransformOrientationVector@CPDomain@@SA?AV?$Vector@M$02@@ABV?$Matrix@M$02$02@@ABV2@@Z
       3749  EA4 0018CBE0 ?TransformOrientationVector@CPGroup@@QAE?AV?$Vector@M$02@@V2@@Z
       3750  EA5 00186A40 ?TransformPositionVector@CPDomain@@SA?AV?$Vector@M$02@@ABV?$Matrix@M$02$02@@ABV2@1@Z
       3751  EA6 0018CC60 ?TransformPositionVector@CPGroup@@QAE?AV?$Vector@M$02@@V2@@Z
       3752  EA7 00156CF0 ?TransformVector_copy@@YAXAAY02M0AAY0M@$$CBM@Z
       3753  EA8 00030520 ?Translate@@YAPADPADJ@Z
       3754  EA9 0004CC60 ?Translate@CMappingDefinition@@QAEXABVCMappingVectors@@ABV?$Vector@M$02@@@Z
       3755  EAA 00030410 ?TranslateConst@@YAPBDPBDJ@Z
       3756  EAB 00044A60 ?Translate_AbsoluteSystem@CPlacement3D@@QAEXABV?$Vector@M$02@@@Z
       3757  EAC 000449D0 ?Translate_OwnSystem@CPlacement3D@@QAEXABV?$Vector@M$02@@@Z
       3758  EAD 00132480 ?TriangularizeForVertices@CBrushSector@@QAEXAAV?$CSelection@VCBrushVertex@@$01@@@Z
       3759  EAE 000BA780 ?TriangularizeForVertices@CWorld@@QAEXAAV?$CSelection@VCBrushVertex@@$01@@@Z
       3760  EAF 00131BC0 ?TriangularizeMarkedPolygons@CBrushSector@@QAEXXZ
       3761  EB0 00132B00 ?TriangularizePolygon@CBrushSector@@QAEXPAVCBrushPolygon@@@Z
       3762  EB1 000BA870 ?TriangularizePolygons@CWorld@@QAEXAAV?$CDynamicContainer@VCBrushPolygon@@@@@Z
       3763  EB2 00137D50 ?Triangulate@CBrushPolygon@@QAEXXZ
       3764  EB3 00130BE0 ?Triangulate@CBrushSector@@QAEXXZ
       3765  EB4 000147A0 ?TrimLeft@CTString@@QAEJJ@Z
       3766  EB5 00014800 ?TrimRight@CTString@@QAEJJ@Z
       3767  EB6 00014870 ?TrimSpacesLeft@CTString@@QAEJXZ
       3768  EB7 000148C0 ?TrimSpacesRight@CTString@@QAEJXZ
       3769  EB8 0019AC10 ?TryToGoUpstairs@CMovableEntity@@QAEHABV?$Vector@M$02@@ABVCSurfaceType@@H@Z
       3770  EB9 0002F6E0 ?TryToLock@CTSingleLock@@QAEHXZ
       3771  EBA 0019B2E0 ?TryToMove@CMovableEntity@@QAEHPAV1@HH@Z
       3772  EBB 00002DC0 ?TurnOffMirrorPlane@CProjection3D@@QAEXXZ
       3773  EBC 00002E00 ?TurnOffWarpPlane@CProjection3D@@QAEXXZ
       3774  EBD 00038DD0 ?TurnPortalsToWalls@CObject3D@@QAEXXZ
       3775  EBE 000063E0 ?Type@CShader@@UBEHXZ
       3776  EBF 000063F0 ?Type@CSmallScriptShader@@UBEHXZ
       3777  EC0 0014A1C0 ?Unbind@CMesh@@QAEXXZ
       3778  EC1 00083960 ?Unbind@CTextureData@@QAEXXZ
       3779  EC2 000814C0 ?Uncache@CShadowMap@@QAEJXZ
       3780  EC3 00130B70 ?UncacheLightMaps@CBrushSector@@QAEXXZ
       3781  EC4 0013CAF0 ?UncacheShadowMaps@CLightSource@@QAEXXZ
       3782  EC5 0011B7D0 ?UncacheShadowsForGradient@CEntity@@QAEXJ@Z
       3783  EC6 000152E2 ?Undecorated@CTString@@QBE?AV1@XZ
       3784  EC7 000193F0 ?Unlock@CDrawPort@@QAEXXZ
       3785  EC8 0002F740 ?Unlock@CTSingleLock@@QAEXXZ
       3786  EC9 00130970 ?UnlockAll@CBrushSector@@QAEXXZ
       3787  ECA 000B9250 ?UnlockAll@CWorld@@QAEXXZ
       3788  ECB 0002B6F0 ?UnlockBuffer@CTMemoryStream@@QAEXXZ
       3789  ECC 0005F380 ?UnlockDrawPort@CGfxLibrary@@QAEXPAVCDrawPort@@@Z
       3790  ECD 0005F460 ?UnlockRaster@CGfxLibrary@@QAEXPAVCRaster@@@Z
       3791  ECE 000529A0 ?Unlock_internal@CDrawPort@@QAEXXZ
       3792  ECF 000FA820 ?Unpack@CNetworkMessage@@QAEXAAV1@AAVCCompressor@@@Z
       3793  ED0 000F4EB0 ?UnpackAngle@@YAXKAAV?$Vector@M$02@@@Z
       3794  ED1 000FAEE0 ?UnpackDefault@CNetworkMessage@@QAEXAAV1@@Z
       3795  ED2 000F4AC0 ?UnpackFloat@@YAMEEEK@Z
       3796  ED3 000F4A20 ?UnpackFloatFromWord@@YAMF@Z
       3797  ED4 000F4D90 ?UnpackFloatsFromULONG@@YAXKAAM00@Z
       3798  ED5 000F4D00 ?UnpackVectorFromULONG@@YAXKAAV?$Vector@M$02@@@Z
       3799  ED6 000ABA70 ?UnpackVertex@CModelObject@@QAEXAAVCRenderModel@@JAAV?$Vector@M$02@@@Z
       3800  ED7 000A4E70 ?UnpackVertex@CModelObject@@QAEXJJAAV?$Vector@M$02@@@Z
       3801  ED8 000F1D60 ?Unprepare@CCommunicationInterface@@QAEXXZ
       3802  ED9 00004D30 ?UnsetTimer@CEntity@@QAEXXZ
       3803  EDA 0011A250 ?UnsetTimer@CRationalEntity@@QAEXXZ
       3804  EDB 000B93C0 ?UntargetEntity@CWorld@@QAEXPAVCEntity@@@Z
       3805  EDC 0011CDB0 ?UnwindStack@CRationalEntity@@QAEXJ@Z
       3806  EDD 000384E0 ?UpVectorToAngles@@YAXABV?$Vector@M$02@@AAV1@@Z
       3807  EDE 00094F60 ?Update@CSoundObject@@QAEXXZ
       3808  EDF 0009DDA0 ?UpdateAnimations_t@CEditModel@@QAEXAAVCTFileName@@@Z
       3809  EE0 0012DB00 ?UpdateBoundingBox@CBrushMip@@QAEXXZ
       3810  EE1 00081D70 ?UpdateDynamicLayers@CShadowMap@@QAEKXZ
       3811  EE2 0013C800 ?UpdateLayer@CLightSource@@QAEXAAVCBrushShadowLayer@@@Z
       3812  EE3 000F2B60 ?UpdateMasterBuffers@CCommunicationInterface@@QAEXXZ
       3813  EE4 00002150 ?UpdateMaxPos@CTStream@@QAEXPAE@Z
       3814  EE5 00002160 ?UpdateMaxPos@CTStream@@QAEXXZ
       3815  EE6 0009ACB0 ?UpdateMipModels_t@CEditModel@@QAEXAAVCTFileName@@@Z
       3816  EE7 0019A020 ?UpdateOneSectorForce@CMovableEntity@@QAEXAAVCBrushSector@@M@Z
       3817  EE8 00132A60 ?UpdateSector@CBrushSector@@QAEXXZ
       3818  EE9 000BA690 ?UpdateSectorsAfterVertexChange@CWorld@@QAEXAAV?$CSelection@VCBrushVertex@@$01@@@Z
       3819  EEA 000BA5A0 ?UpdateSectorsDuringVertexChange@CWorld@@QAEXAAV?$CSelection@VCBrushVertex@@$01@@@Z
       3820  EEB 00090A20 ?UpdateSounds@CSoundLibrary@@QAEXXZ
       3821  EEC 0011B610 ?UpdateSpatialRange@CEntity@@QAEXXZ
       3822  EED 0013D720 ?UpdateTerrains@CLightSource@@QAEXVCPlacement3D@@0@Z
       3823  EEE 0013D950 ?UpdateTerrains@CLightSource@@QAEXXZ
       3824  EEF 00083C80 ?UpdateTextureSettings@@YAXXZ
       3825  EF0 00132AE0 ?UpdateVertexChanges@CBrushSector@@QAEXXZ
       3826  EF1 00083740 ?UploadCompressed@CTextureData@@QAEHXZ
       3827  EF2 0002A270 ?UseApplicationPath@@YAXXZ
       3828  EF3 000155F2 ?VPrintF@CTString@@QAEJPBDPAD@Z
       3829  EF4 0018CED0 ?Velocity@CPGroup@@QAEXMMM@Z
       3830  EF5 0018CAE0 ?VelocityDomain@CPGroup@@QAEXPAVCPDomain@@@Z
       3831  EF6 0018CF60 ?VertexB@CPGroup@@QAEXMMM@Z
       3832  EF7 0018CB00 ?VertexBDomain@CPGroup@@QAEXPAVCPDomain@@@Z
       3833  EF8 00002D80 ?ViewStretchL@CProjection3D@@QAEAAMXZ
       3834  EF9 00002D90 ?ViewStretchR@CProjection3D@@QBEABMXZ
       3835  EFA 00002C60 ?ViewerPlacementL@CProjection3D@@QAEAAVCPlacement3D@@XZ
       3836  EFB 00038750 ?ViewerPlacementL@CSimpleProjection3D_DOUBLE@@QAEAAVCPlacement3D@@XZ
       3837  EFC 00002C70 ?ViewerPlacementR@CProjection3D@@QBEABVCPlacement3D@@XZ
       3838  EFD 00038760 ?ViewerPlacementR@CSimpleProjection3D_DOUBLE@@QBEABVCPlacement3D@@XZ
       3839  EFE 0018F010 ?Vortex@CPGroup@@QAEXV?$Vector@M$02@@0MMM@Z
       3840  EFF 00102850 ?WaitStream_t@CSessionState@@QAEXAAVCTMemoryStream@@ABVCTString@@J@Z
       3841  F00 0019EF80 ?WaitUntilScheduledAnimStarts@CMovableModelEntity@@QAEHABVCEntityEvent@@@Z
       3842  F01 001068C0 ?WarmUpWorld@CSessionState@@QAEXXZ
       3843  F02 00017670 ?WarningMessage@@YAXPBDZZ
       3844  F03 00002DD0 ?WarpPlaneL@CProjection3D@@QAEAAV?$Plane@M$02@@XZ
       3845  F04 00002DF0 ?WarpPlaneR@CProjection3D@@QBEABV?$Plane@M$02@@XZ
       3846  F05 000E6E50 ?WhyDisconnected@CNetworkLibrary@@QAEABVCTString@@XZ
       3847  F06 000A3BE0 ?WireOn@CModelRenderPrefs@@QAEHXZ
       3848  F07 00198FB0 ?WouldFallInNextPosition@CMovableEntity@@QAEHXZ
       3849  F08 00005210 ?Write@CNetworkMessage@@QAEXPBXJ@Z
       3850  F09 000FCC70 ?WriteActionPacket@CPlayerSource@@QAEXAAVCNetworkMessage@@@Z
       3851  F0A 000F6A40 ?WriteAddPlayer@CEntityMessage@@QAEXAAKAAJAAVCPlayerCharacter@@000J@Z
       3852  F0B 000F73D0 ?WriteAddSkaString@CEntityMessage@@QAEXJABVCTString@@@Z
       3853  F0C 000F7310 ?WriteBasePosition@CEntityMessage@@QAEXAAV?$Vector@M$02@@@Z
       3854  F0D 000FA9A0 ?WriteBits@CNetworkMessage@@QAEXPBXJ@Z
       3855  F0E 000CB5E0 ?WriteBrushes_t@CWorld@@QAEXPAVCTStream@@@Z
       3856  F0F 000F7020 ?WriteCharacterChange@CEntityMessage@@QAEXAAKAAVCPlayerCharacter@@@Z
       3857  F10 0002AF20 ?WriteChunk_t@CTStream@@QAEXPAXJ@Z
       3858  F11 00100230 ?WriteDemoData@CServer@@QAEXM@Z
       3859  F12 000F6730 ?WriteEntityCopy@CEntityMessage@@QAEXAAK0ABVCPlacement3D@@E@Z
       3860  F13 000F65B0 ?WriteEntityCreate@CEntityMessage@@QAEXAAKABVCPlacement3D@@AAG@Z
       3861  F14 000F5AA0 ?WriteEntityDestroy@CEntityMessage@@QAEXAAK@Z
       3862  F15 000F68A0 ?WriteEntityEvent@CEntityMessage@@QAEXAAKAAJPAX1@Z
       3863  F16 000F6970 ?WriteEntityInitialize@CEntityMessage@@QAEXAAKAAJPAX1@Z
       3864  F17 00127D70 ?WriteEntityPointer_t@CEntity@@QAEXPAVCTStream@@VCEntityPointer@@@Z
       3865  F18 0012AED0 ?WriteEntitySectorLinks_t@CBrushArchive@@QAEXAAVCTStream@@@Z
       3866  F19 0002AFA0 ?WriteFullChunk_t@CTStream@@QAEXABVCChunkID@@PAXJ@Z
       3867  F1A 0002AE50 ?WriteID_t@CTStream@@QAEXABVCChunkID@@@Z
       3868  F1B 000CB370 ?WriteInfo_t@CWorld@@QAEXPAVCTStream@@@Z
       3869  F1C 00135710 ?WriteLayers_t@CBrushShadowMap@@UAEXPAVCTStream@@@Z
       3870  F1D 000816D0 ?WriteLayers_t@CShadowMap@@UAEXPAVCTStream@@@Z
       3871  F1E 0009B790 ?WriteMipSettings_t@CEditModel@@QAEXPAVCTStream@@J@Z
       3872  F1F 00021960 ?WriteModelInstance_t@@YAXAAVCTStream@@AAVCModelInstance@@H@Z
       3873  F20 0002C260 ?WritePageToFile@CTFileStream@@QAEXJ@Z
       3874  F21 000F6F10 ?WritePause@CEntityMessage@@QAEXAAHAAVCTString@@@Z
       3875  F22 000F63E0 ?WritePlacement@CEntityMessage@@QAEXAAKABVCPlacement3D@@1@Z
       3876  F23 000F6D90 ?WritePlacementNotify@CEntityMessage@@QAEXAAKE@Z
       3877  F24 000F5BF0 ?WritePlayerAction@CEntityMessage@@QAEXAAKAAVCPlayerAction@@@Z
       3878  F25 000F5B00 ?WritePlayerUpdate@CEntityMessage@@QAEXAAKAAVCNetworkMessage@@@Z
       3879  F26 0012ACC0 ?WritePortalSectorLinks_t@CBrushArchive@@QAEXAAVCTStream@@@Z
       3880  F27 00127DB0 ?WriteProperties_t@CEntity@@QAEXAAVCTStream@@H@Z
       3881  F28 0002AED0 ?WriteRawChunk_t@CTStream@@QAEXPAXJ@Z
       3882  F29 001025D0 ?WriteRememberedLevels_t@CSessionState@@QAEXPAVCTStream@@@Z
       3883  F2A 000F5B90 ?WriteRemovePlayer@CEntityMessage@@QAEXAAJ@Z
       3884  F2B 0011B9D0 ?WriteSKAQueue@CEntity@@QAEXAAVCNetworkMessage@@@Z
       3885  F2C 0011B8D0 ?WriteSKAQueue@CEntity@@QAEXPAVCTStream@@@Z
       3886  F2D 000A4530 ?WriteSettings_t@MappingSurface@@QAEXPAVCTStream@@@Z
       3887  F2E 0002AE90 ?WriteSize_t@CTStream@@QAEXJ@Z
       3888  F2F 000F6E40 ?WriteSka@CEntityMessage@@QAEXAAKEPAXAAJ@Z
       3889  F30 000F7240 ?WriteSound@CEntityMessage@@QAEXAAKEPAXAAJ@Z
       3890  F31 000F6CE0 ?WriteStartAnim@CEntityMessage@@QAEXAAKAAJ0@Z
       3891  F32 000CB6A0 ?WriteState_net_t@CWorld@@QAEXPAVCTStream@@@Z
       3892  F33 00104800 ?WriteState_t@CSessionState@@QAEXPAVCTStream@@@Z
       3893  F34 000CBB70 ?WriteState_t@CWorld@@QAEXPAVCTStream@@H@Z
       3894  F35 0002B020 ?WriteStream_t@CTStream@@QAEXAAV1@@Z
       3895  F36 00015AB2 ?WriteToStreamShort@CTString@@QAEXPAVCTStream@@@Z
       3896  F37 000E8410 ?WriteVersion_t@CNetworkLibrary@@QAEXAAVCTStream@@@Z
       3897  F38 000FC850 ?WriteWeaponUpdatePacket@CPlayerSource@@QAEXAAVCNetworkMessage@@@Z
       3898  F39 001048D0 ?WriteWorldAndState_t@CSessionState@@QAEXPAVCTStream@@@Z
       3899  F3A 001A1280 ?Write_net@CPlayerEntity@@UAEXPAVCNetworkMessage@@@Z
       3900  F3B 001A12A0 ?Write_net_brief@CPlayerEntity@@UAEXPAVCNetworkMessage@@@Z
       3901  F3C 00146BB0 ?Write_t@CAnimSet@@UAEXPAVCTStream@@@Z
       3902  F3D 000988C0 ?Write_t@CAttachedModel@@QAEXPAVCTStream@@@Z
       3903  F3E 000A47A0 ?Write_t@CAttachedModelPosition@@QAEXPAVCTStream@@@Z
       3904  F3F 000989D0 ?Write_t@CAttachedSound@@QAEXPAVCTStream@@@Z
       3905  F40 0012CC40 ?Write_t@CBrush3D@@QAEXPAVCTStream@@@Z
       3906  F41 0012B1A0 ?Write_t@CBrushArchive@@UAEXPAVCTStream@@@Z
       3907  F42 0012C390 ?Write_t@CBrushMip@@QAEXPAVCTStream@@@Z
       3908  F43 0012BE70 ?Write_t@CBrushPolygonTexture@@QAEXAAVCTStream@@@Z
       3909  F44 0012BF00 ?Write_t@CBrushSector@@QAEXPAVCTStream@@@Z
       3910  F45 00099CC0 ?Write_t@CEditModel@@UAEXPAVCTStream@@@Z
       3911  F46 0011CAF0 ?Write_t@CEntity@@UAEXPAVCTStream@@H@Z
       3912  F47 001251B0 ?Write_t@CEntityClass@@UAEXPAVCTStream@@@Z
       3913  F48 0005DB60 ?Write_t@CFontCharData@@QAEXPAVCTStream@@@Z
       3914  F49 0005DE70 ?Write_t@CFontData@@UAEXPAVCTStream@@@Z
       3915  F4A 00079520 ?Write_t@CImageInfo@@QBEXPAVCTStream@@@Z
       3916  F4B 0013CD30 ?Write_t@CLightSource@@QAEXPAVCTStream@@H@Z
       3917  F4C 0011CCD0 ?Write_t@CLiveEntity@@UAEXPAVCTStream@@H@Z
       3918  F4D 0014B780 ?Write_t@CMesh@@UAEXPAVCTStream@@@Z
       3919  F4E 000A3DB0 ?Write_t@CModelCollisionBox@@QAEXPAVCTStream@@@Z
       3920  F4F 000A6210 ?Write_t@CModelData@@UAEXPAVCTStream@@@Z
       3921  F50 001520B0 ?Write_t@CModelInstanceSerial@@UAEXPAVCTStream@@@Z
       3922  F51 000A47F0 ?Write_t@CModelObject@@QAEXPAVCTStream@@@Z
       3923  F52 000A41F0 ?Write_t@CModelPatch@@QAEXPAVCTStream@@@Z
       3924  F53 000A3C50 ?Write_t@CModelRenderPrefs@@QAEXPAVCTStream@@@Z
       3925  F54 001962B0 ?Write_t@CMovableBrushEntity@@UAEXPAVCTStream@@H@Z
       3926  F55 001979A0 ?Write_t@CMovableEntity@@UAEXPAVCTStream@@H@Z
       3927  F56 0019EF50 ?Write_t@CMovableModelEntity@@UAEXPAVCTStream@@H@Z
       3928  F57 001299F0 ?Write_t@CPlayerCharacter@@QAEXPAVCTStream@@@Z
       3929  F58 001A13F0 ?Write_t@CPlayerEntity@@UAEXPAVCTStream@@H@Z
       3930  F59 0011CD10 ?Write_t@CRationalEntity@@UAEXPAVCTStream@@H@Z
       3931  F5A 001050D0 ?Write_t@CSessionState@@QAEXPAVCTStream@@H@Z
       3932  F5B 0007C0D0 ?Write_t@CShader@@UAEXPAVCTStream@@@Z
       3933  F5C 000821A0 ?Write_t@CShadowMap@@QAEXPAVCTStream@@@Z
       3934  F5D 00166260 ?Write_t@CSkeleton@@UAEXPAVCTStream@@@Z
       3935  F5E 0008CB50 ?Write_t@CSoundData@@UAEXPAVCTStream@@@Z
       3936  F5F 00093490 ?Write_t@CSoundObject@@QAEXPAVCTStream@@H@Z
       3937  F60 00002390 ?Write_t@CTStream@@QAEXPBXJ@Z
       3938  F61 00175CF0 ?Write_t@CTerrain@@QAEXPAVCTStream@@@Z
       3939  F62 00176150 ?Write_t@CTerrainArchive@@UAEXPAVCTStream@@@Z
       3940  F63 00085660 ?Write_t@CTextureData@@UAEXPAVCTStream@@@Z
       3941  F64 00083A10 ?Write_t@CTextureObject@@QAEXPAVCTStream@@@Z
       3942  F65 000985E0 ?Write_t@CThumbnailSettings@@QAEXPAVCTStream@@@Z
       3943  F66 000CC0E0 ?Write_t@CWorld@@QAEXPAVCTStream@@@Z
       3944  F67 000A4390 ?Write_t@MappingSurface@@QAEXPAVCTStream@@@Z
       3945  F68 000A5CF0 ?Write_t@ModelMipInfo@@QAEXPAVCTStream@@@Z
       3946  F69 000A5870 ?Write_t@ModelPolygon@@QAEXPAVCTStream@@@Z
       3947  F6A 000A4330 ?Write_t@ModelPolygonVertex@@QAEXPAVCTStream@@@Z
       3948  F6B 000177C0 ?YesNoMessage@@YAHPBDZZ
       3949  F6C 00002EB0 ?ZoomFactorL@CIsometricProjection3D@@QAEAAMXZ
       3950  F6D 00002EC0 ?ZoomFactorR@CIsometricProjection3D@@QBEABMXZ
       3951  F6E 0029E07C ?_CurrentTickTimer@@3MA
       3952  F6F 0029E38C ?_Particle_bSkipClipping@@3HA
       3953  F70 0027A0D0 ?_ategtTextureEffectGlobalPresets@@3PAUTextureEffectGlobalType@@A
       3954  F71 00292438 ?_bDedicatedServer@@3HA
       3955  F72 00327670 ?_bSelectAlternative@@3HA
       3956  F73 0029243C ?_bWorldEditorApp@@3HA
       3957  F74 002E73F8 ?_cmiComm@@3VCCommunicationInterface@@A
       3958  F75 00327658 ?_colViewerAmbient@@3KA
       3959  F76 0032765C ?_colViewerLight@@3KA
       3960  F77 0027A1AC ?_ctTextureEffectGlobalPresets@@3JA
       3961  F78 003298FC ?_eeVoid@@3ABVCEntityEvent@@B
       3962  F79 0029DFB4 ?_fnmApplicationExe@@3VCTFileName@@A
       3963  F7A 0029DFAC ?_fnmApplicationPath@@3VCTFileName@@A
       3964  F7B 0029DFD0 ?_fnmCDPath@@3VCTFileName@@A
       3965  F7C 0029DFBC ?_fnmMod@@3VCTFileName@@A
       3966  F7D 002924A8 ?_iStatsMode@@3JA
       3967  F7E 002DEBD0 ?_iTexForcedQuality@@3JA
       3968  F7F 00268F04 ?_logStats@@3VCLogStats@@A
       3969  F80 002E46CC ?_mrpModelRenderPrefs@@3VCModelRenderPrefs@@A
       3970  F81 002E5EB4 ?_pAnimSetStock@@3PAVCStock_CAnimSet@@A
       3971  F82 002E5EAC ?_pAnimStock@@3PAVCStock_CAnimData@@A
       3972  F83 00298764 ?_pConsole@@3PAVCConsole@@A
       3973  F84 002E5EBC ?_pEntityClassStock@@3PAVCStock_CEntityClass@@A
       3974  F85 002E5EC4 ?_pFontStock@@3PAVCStock_CFontData@@A
       3975  F86 002DEBC0 ?_pGfx@@3PAVCGfxLibrary@@A
       3976  F87 0029971C ?_pInput@@3PAVCInput@@A
       3977  F88 002E5ECC ?_pMeshStock@@3PAVCStock_CMesh@@A
       3978  F89 002E5F80 ?_pModelInstanceStock@@3PAVCStock_CModelInstance@@A
       3979  F8A 002E5ED4 ?_pModelStock@@3PAVCStock_CModelData@@A
       3980  F8B 002E6054 ?_pNetwork@@3PAVCNetworkLibrary@@A
       3981  F8C 002E5F88 ?_pShaderStock@@3PAVCStock_CShader@@A
       3982  F8D 0029DC20 ?_pShell@@3PAVCShell@@A
       3983  F8E 002E5F90 ?_pSkeletonStock@@3PAVCStock_CSkeleton@@A
       3984  F8F 002E5F98 ?_pSmallScriptShaderStock@@3PAVCStock_CSmallScriptShader@@A
       3985  F90 002E45C8 ?_pSound@@3PAVCSoundLibrary@@A
       3986  F91 002E5FA0 ?_pSoundStock@@3PAVCStock_CSoundData@@A
       3987  F92 002E5FAC ?_pTextureStock@@3PAVCStock_CTextureData@@A
       3988  F93 0029E080 ?_pTimer@@3PAVCTimer@@A
       3989  F94 00327668 ?_pavpixSelectLasso@@3PAV?$CStaticStackArray@V?$Vector@J$01@@@@A
       3990  F95 00268478 ?_pf1oCosTable@@3PBMB
       3991  F96 00268474 ?_pf1oSinTable@@3PBMB
       3992  F97 00268470 ?_pfCosTable@@3PBMB
       3993  F98 002E75B0 ?_pfNetworkProfile@@3AAVCProfileForm@@A
       3994  F99 0026846C ?_pfSinTable@@3PBMB
       3995  F9A 002E5E68 ?_pfWorldEditingProfile@@3AAVCProfileForm@@A
       3996  F9B 002DE588 ?_pfdConsoleFont@@3PAVCFontData@@A
       3997  F9C 002DE58C ?_pfdDisplayFont@@3PAVCFontData@@A
       3998  F9D 002DE584 ?_pfdMenuFont@@3PAVCFontData@@A
       3999  F9E 00268480 ?_piACosTable@@3PBJB
       4000  F9F 0026847C ?_piASinTable@@3PBJB
       4001  FA0 002843E4 ?_pixDeltaAroundVertex@@3JA
       4002  FA1 0029E178 ?_plOrigin@@3VCPlacement3D@@A
       4003  FA2 002E610C ?_precache_bNowPrecaching@@3JA
       4004  FA3 0032767C ?_pselbscVisTweaks@@3PAV?$CSelection@VCBrushSector@@$00@@A
       4005  FA4 00327664 ?_pselbvxtSelectOnRender@@3PAV?$CSelection@VCBrushVertex@@$01@@A
       4006  FA5 0032766C ?_pselenSelectOnRender@@3PAV?$CSelection@VCEntity@@$00@@A
       4007  FA6 002DF1F0 ?_ptdFlat@@3PAVCTextureData@@A
       4008  FA7 00268484 ?_pubClipByte@@3PBEB
       4009  FA8 0029DF64 ?_sfStats@@3VCStatForm@@A
       4010  FA9 002986D8 ?_strEngineBuild@@3VCTString@@A
       4011  FAA 002986DC ?_strLogFile@@3VCTString@@A
       4012  FAB 0029DFCC ?_strModExt@@3VCTString@@A
       4013  FAC 0029DFC4 ?_strModName@@3VCTString@@A
       4014  FAD 0029DFC8 ?_strModURL@@3VCTString@@A
       4015  FAE 002E4710 ?_toSimpleModelShadow@@3VCTextureObject@@A
       4016  FAF 002DF418 ?_tpGlobal@@3PAVCTexParams@@A
       4017  FB0 00268460 ?_ulEngineBuildMajor@@3KA
       4018  FB1 00292434 ?_ulEngineBuildMinor@@3KA
       4019  FB2 00329720 ?_vViewerLightDirection@@3V?$Vector@M$02@@A
       4020  FB3 00329718 ?_vpixSelectNearPoint@@3V?$Vector@J$01@@A
       4021  FB4 00329820 ?_wrpWorldRenderPrefs@@3VCWorldRenderPrefs@@A
       4022  FB5 00269898 ?crc_aulCRCTable@@3PAKA
       4023  FB6 002924A4 ?dbg_bAtHome@@3JA
       4024  FB7 000B7730 ?evaluate@CDVWaveMod@@QBEMI@Z
       4025  FB8 00035160 ?evaluate@CubicSpline@@ABEMHMM@Z
       4026  FB9 000351E0 ?evaluate@CubicSpline@@QBEMM@Z
       4027  FBA 000351A0 ?evaluateTangent@CubicSpline@@ABEMHMM@Z
       4028  FBB 00035210 ?evaluateTangent@CubicSpline@@QBEMM@Z
       4029  FBC 002E4210 ?g_hEdgeFilterNormFP@@3KA
       4030  FBD 002E420C ?g_hEdgeFilterVP@@3KA
       4031  FBE 002E4214 ?g_hEdgeFilterZFP@@3KA
       4032  FBF 002E615C ?gam_iPrecachePolicy@@3JA
       4033  FC0 0026F19C ?gap_bOptimizeStateChanges@@3JA
       4034  FC1 0026F1AC ?gap_bUseOcclusionCulling@@3JA
       4035  FC2 000B7B30 ?getAlphaScale@CDVBlendShader@@QBEMI@Z
       4036  FC3 000B76E0 ?getAmplitude@CDVWaveMod@@QBEMXZ
       4037  FC4 000B76F0 ?getBase@CDVWaveMod@@QBEMXZ
       4038  FC5 000B7B10 ?getBlueScale@CDVBlendShader@@QBEMI@Z
       4039  FC6 000B7700 ?getFrequency@CDVWaveMod@@QBEMXZ
       4040  FC7 000B7710 ?getFunction@CDVWaveMod@@QBE?AW4EFuncType@1@XZ
       4041  FC8 000B7AF0 ?getGreenScale@CDVBlendShader@@QBEMI@Z
       4042  FC9 000B7970 ?getName@CDVWorldShader@@QBEPBDXZ
       4043  FCA 000B7990 ?getOperator@CDVBlendShader@@QBEDXZ
       4044  FCB 000B7720 ?getPhase@CDVWaveMod@@QBEMXZ
       4045  FCC 000B7AD0 ?getRedScale@CDVBlendShader@@QBEMI@Z
       4046  FCD 000B79B0 ?getRot@CDVScrollShader@@QBEMI@Z
       4047  FCE 000B7A10 ?getScaU@CDVScrollShader@@QBEMI@Z
       4048  FCF 000B7A70 ?getScaV@CDVScrollShader@@QBEMI@Z
       4049  FD0 000B79D0 ?getTraU@CDVScrollShader@@QBEMI@Z
       4050  FD1 000B79F0 ?getTraV@CDVScrollShader@@QBEMI@Z
       4051  FD2 0006E9F0 ?gfxBeginOcclusionTest@@YAHK@Z
       4052  FD3 002E000C ?gfxBlendFunc@@3P6AXW4GfxBlend@@0@ZA
       4053  FD4 0006DAF0 ?gfxClear@@YAXKMM@Z
       4054  FD5 002E0020 ?gfxClipPlane@@3P6AXPBN@ZA
       4055  FD6 002E00BC ?gfxCreatePixelProgram@@3P6AKPBD@ZA
       4056  FD7 002E00C0 ?gfxCreateRenderTexture@@3P6AKAAVCRenderTargetParams@@JJ@ZA
       4057  FD8 00075F70 ?gfxCreateVertexBuffer@@YAJJKJW4GfxLockType@@@Z
       4058  FD9 002E00B8 ?gfxCreateVertexProgram@@3P6AKPBDK@ZA
       4059  FDA 002E0018 ?gfxCullFace@@3P6AXW4GfxFace@@@ZA
       4060  FDB 002E00AC ?gfxDeletePixelProgram@@3P6AXK@ZA
       4061  FDC 002E0054 ?gfxDeleteTexture@@3P6AXAAK@ZA
       4062  FDD 00075520 ?gfxDeleteVertexBuffer@@YAXJ@Z
       4063  FDE 002E00A8 ?gfxDeleteVertexProgram@@3P6AXK@ZA
       4064  FDF 002E0010 ?gfxDepthFunc@@3P6AXW4GfxComp@@@ZA
       4065  FE0 002E0014 ?gfxDepthRange@@3P6AXMM@ZA
       4066  FE1 002DFFEC ?gfxDisableAlphaTest@@3P6AXXZA
       4067  FE2 002DFFF0 ?gfxDisableBlend@@3P6AXXZA
       4068  FE3 002E0008 ?gfxDisableClipPlane@@3P6AXXZA
       4069  FE4 002E0004 ?gfxDisableClipping@@3P6AXXZA
       4070  FE5 002E0078 ?gfxDisableColorArray@@3P6AXXZA
       4071  FE6 002DFFE4 ?gfxDisableDepthBias@@3P6AXXZA
       4072  FE7 002DFFE8 ?gfxDisableDepthTest@@3P6AXXZA
       4073  FE8 002DFFE0 ?gfxDisableDepthWrite@@3P6AXXZA
       4074  FE9 002DFFF4 ?gfxDisableDither@@3P6AXXZA
       4075  FEA 0006DCE0 ?gfxDisableEdgeFilterTexture@@YAXXZ
       4076  FEB 002DFFFC ?gfxDisableLight@@3P6AXJ@ZA
       4077  FEC 002E0000 ?gfxDisableLighting@@3P6AXXZA
       4078  FED 0006CA70 ?gfxDisablePixelProgram@@YAXXZ
       4079  FEE 002DFFF8 ?gfxDisableTexture@@3P6AXXZA
       4080  FEF 0006CA10 ?gfxDisableVertexProgram@@YAXXZ
       4081  FF0 002E006C ?gfxDrawElements@@3P6AXJPBG@ZA
       4082  FF1 002DFFC0 ?gfxEnableAlphaTest@@3P6AXXZA
       4083  FF2 002DFFC4 ?gfxEnableBlend@@3P6AXXZA
       4084  FF3 002DFFDC ?gfxEnableClipPlane@@3P6AXXZA
       4085  FF4 002DFFD8 ?gfxEnableClipping@@3P6AXXZA
       4086  FF5 002E0074 ?gfxEnableColorArray@@3P6AXXZA
       4087  FF6 002DFFB8 ?gfxEnableDepthBias@@3P6AXXZA
       4088  FF7 002DFFBC ?gfxEnableDepthTest@@3P6AXXZA
       4089  FF8 002DFFB4 ?gfxEnableDepthWrite@@3P6AXXZA
       4090  FF9 002DFFC8 ?gfxEnableDither@@3P6AXXZA
       4091  FFA 0006DCB0 ?gfxEnableEdgeFilterTexture@@YAXK@Z
       4092  FFB 002DFFD0 ?gfxEnableLight@@3P6AXJ@ZA
       4093  FFC 002DFFD4 ?gfxEnableLighting@@3P6AXXZA
       4094  FFD 0006CA40 ?gfxEnablePixelProgram@@YAXXZ
       4095  FFE 002DFFCC ?gfxEnableTexture@@3P6AXXZA
       4096  FFF 0006C9E0 ?gfxEnableVertexProgram@@YAXXZ
       4097 1000 0006EB60 ?gfxEndOcclusionTest@@YAXXZ
       4098 1001 002E007C ?gfxFinish@@3P6AXH@ZA
       4099 1002 000756C0 ?gfxFlushElements@@YAXXZ
       4100 1003 00076330 ?gfxFlushQuads@@YAXXZ
       4101 1004 0006EE60 ?gfxFreeOcclusionQuery@@YAXK@Z
       4102 1005 002E001C ?gfxFrontFace@@3P6AXW4GfxFace@@@ZA
       4103 1006 0006DBE0 ?gfxGenNormZ@@YAKHH@Z
       4104 1007 002E0050 ?gfxGenerateTexture@@3P6AXAAK@ZA
       4105 1008 0006C9D0 ?gfxGetColorMask@@YAKXZ
       4106 1009 0006C960 ?gfxGetFormatPixRatio@@YAJK@Z
       4107 100A 0006DC80 ?gfxGetNormZ@@YAXKHH@Z
       4108 100B 002E00C8 ?gfxGetRenderTarget@@3P6AXAAVCRenderTargetParams@@@ZA
       4109 100C 0006C910 ?gfxGetTextureFiltering@@YAXAAJ0@Z
       4110 100D 0006C930 ?gfxGetTexturePixRatio@@YAJK@Z
       4111 100E 0006E670 ?gfxGetTextureSize@@YAJKH@Z
       4112 100F 00075620 ?gfxGetVertexBufferMask@@YAKJAAJ@Z
       4113 1010 00075600 ?gfxGetVertexBufferSize@@YAJJ@Z
       4114 1011 0006C9C0 ?gfxGetVertexSubBufferID@@YAJJJ@Z
       4115 1012 002E0080 ?gfxLockArrays@@3P6AXXZA
       4116 1013 002E0090 ?gfxLockSubBuffer@@3P6APAXJJJW4GfxLockType@@@ZA
       4117 1014 002E003C ?gfxPolygonMode@@3P6AXW4GfxPolyMode@@@ZA
       4118 1015 0006EC20 ?gfxPullOcclusionQuery@@YAHKAAJH@Z
       4119 1016 0000A6A0 ?gfxResetArrays@@YAXXZ
       4120 1017 0006CAA0 ?gfxSetBlendType@@YAXW4PredefinedBlendType@@@Z
       4121 1018 002E0068 ?gfxSetColorArray@@3P6AXPAUGFXColor@@@ZA
       4122 1019 002E008C ?gfxSetColorMask@@3P6AXK@ZA
       4123 101A 002E0070 ?gfxSetConstantColor@@3P6AXK@ZA
       4124 101B 002E0028 ?gfxSetFrustum@@3P6AXMMMMMM@ZA
       4125 101C 002E002C ?gfxSetLightColor@@3P6AXJKKK@ZA
       4126 101D 002E0030 ?gfxSetLightDirection@@3P6AXJABV?$Vector@M$02@@@ZA
       4127 101E 002E005C ?gfxSetNormalArray@@3P6AXPAUGFXNormal@@@ZA
       4128 101F 002E0024 ?gfxSetOrtho@@3P6AXMMMMMMH@ZA
       4129 1020 002E00A4 ?gfxSetPixelProgram@@3P6AXK@ZA
       4130 1021 002E00B4 ?gfxSetPixelProgramConst@@3P6AXJPBXJ@ZA
       4131 1022 002E00CC ?gfxSetRenderTarget@@3P6AXABVCRenderTargetParams@@@ZA
       4132 1023 002E009C ?gfxSetSubBuffer@@3P6AXJJ@ZA
       4133 1024 002E0064 ?gfxSetTexCoordArray@@3P6AXPAUGFXTexCoord@@H@ZA
       4134 1025 0006E1F0 ?gfxSetTexture@@YAXAAKAAVCTexParams@@PAUHPBUFFERARB__@@@Z
       4135 1026 002E0048 ?gfxSetTextureAdd@@3P6AXXZA
       4136 1027 002E00C4 ?gfxSetTextureAsTarget@@3P6AXKABVCRenderTargetParams@@@ZA
       4137 1028 0006E0A0 ?gfxSetTextureBiasing@@YAXAAM@Z
       4138 1029 002E004C ?gfxSetTextureBlend@@3P6AXXZA
       4139 102A 0006DEA0 ?gfxSetTextureFiltering@@YAXAAJ0@Z
       4140 102B 002E0034 ?gfxSetTextureMatrix@@3P6AXPBM@ZA
       4141 102C 002E0044 ?gfxSetTextureModulation@@3P6AXJ@ZA
       4142 102D 0006E120 ?gfxSetTextureUnit@@YAXJ@Z
       4143 102E 002E0040 ?gfxSetTextureWrapping@@3P6AXW4GfxWrap@@0@ZA
       4144 102F 002E0058 ?gfxSetVertexArray@@3P6AXPAUGFXVertex@@J@ZA
       4145 1030 002E00A0 ?gfxSetVertexProgram@@3P6AXK@ZA
       4146 1031 002E00B0 ?gfxSetVertexProgramConst@@3P6AXJPBXJ@ZA
       4147 1032 002E0098 ?gfxSetVertexSubBuffer@@3P6AXJJJ@ZA
       4148 1033 002E0038 ?gfxSetViewMatrix@@3P6AXPBM@ZA
       4149 1034 002E0060 ?gfxSetWeightArray@@3P6AXPAUGFXWeight@@@ZA
       4150 1035 0006C990 ?gfxUnlockArrays@@YAXXZ
       4151 1036 002E0094 ?gfxUnlockSubBuffer@@3P6AXJJ@ZA
       4152 1037 0006E430 ?gfxUploadTexture@@YAXPAKJJKH@Z
       4153 1038 002DF2D4 ?gfx_bMotionBlur@@3_NA
       4154 1039 002DF2CC ?gfx_bNormZRender@@3_NA
       4155 103A 0026F248 ?gfx_bRenderFog@@3JA
       4156 103B 0026F240 ?gfx_bRenderParticles@@3JA
       4157 103C 002DF2DC ?gfx_bRenderPlayerView@@3_NA
       4158 103D 0026F23C ?gfx_bRenderWorld@@3JA
       4159 103E 002DF2D8 ?gfx_iBlurMode@@3JA
       4160 103F 002DF2C8 ?gfx_iEdgeMode@@3JA
       4161 1040 0026F24C ?gfx_iLensFlareQuality@@3JA
       4162 1041 002DF2D0 ?gfx_iNormZMode@@3JA
       4163 1042 002DF2E0 ?gfx_penBlur@@3PAXA
       4164 1043 000B7530 ?init@CDVWaveMod@@QAEXW4EFuncType@1@MMMM@Z
       4165 1044 000B7560 ?init@CDVWaveMod@@QAE_NPADMMMM@Z
       4166 1045 000B81F0 ?load@CDVBlendShader@@UAEXPBDAAV?$basic_istream@DU?$char_traits@D@std@@@std@@@Z
       4167 1046 000B7BB0 ?load@CDVScrollShader@@UAEXPBDAAV?$basic_istream@DU?$char_traits@D@std@@@std@@@Z
       4168 1047 00035240 ?rangeMax@CubicSpline@@QBEMXZ
       4169 1048 00035260 ?rangeMin@CubicSpline@@QBEMXZ
       4170 1049 00035BA0 ?read@CubicSpline@@QAEXPAVCTStream@@@Z
       4171 104A 000B7980 ?setName@CDVWorldShader@@QAEXPBD@Z
       4172 104B 000B79A0 ?setOperator@CDVBlendShader@@QAEXD@Z
       4173 104C 0007E670 ?shaAttenuateAlphaForFogAndHaze@@YAXXZ
       4174 104D 0007E5B0 ?shaAttenuateColorForFogAndHaze@@YAXXZ
       4175 104E 0007BEC0 ?shaBlendFunc@@YAXW4GfxBlend@@0@Z
       4176 104F 0007FEB0 ?shaCalculateLight@@YAXXZ
       4177 1050 00080230 ?shaCalculateLightForSpecular@@YAXXZ
       4178 1051 0007E7D0 ?shaClean@@YAXXZ
       4179 1052 0007BCC0 ?shaClearTextureMatrix@@YAXJ@Z
       4180 1053 0007BEB0 ?shaCullFace@@YAXW4GfxFace@@@Z
       4181 1054 0007BF50 ?shaDepthFunc@@YAXW4GfxComp@@@Z
       4182 1055 0007BF00 ?shaDisableAlphaTest@@YAXXZ
       4183 1056 0007BEE0 ?shaDisableBlend@@YAXXZ
       4184 1057 0007BF20 ?shaDisableDepthTest@@YAXXZ
       4185 1058 0007BF40 ?shaDisableDepthWrite@@YAXXZ
       4186 1059 0007C0B0 ?shaDisableInverted@@YAXXZ
       4187 105A 0007D240 ?shaDisableOverBrightning@@YAXXZ
       4188 105B 0007BFE0 ?shaDisablePixelProgram@@YAXXZ
       4189 105C 0007CFD0 ?shaDisableTexture@@YAXJ@Z
       4190 105D 0007BFC0 ?shaDisableVertexBuffers@@YAXXZ
       4191 105E 0007BFD0 ?shaDisableVertexProgram@@YAXXZ
       4192 105F 0007E6F0 ?shaDoFogAndHazePass@@YAXXZ
       4193 1060 0007BEF0 ?shaEnableAlphaTest@@YAXXZ
       4194 1061 0007BED0 ?shaEnableBlend@@YAXXZ
       4195 1062 0007BF10 ?shaEnableDepthTest@@YAXXZ
       4196 1063 0007BF30 ?shaEnableDepthWrite@@YAXXZ
       4197 1064 0007C0A0 ?shaEnableInverted@@YAXXZ
       4198 1065 0007D220 ?shaEnableOverBrightning@@YAXXZ
       4199 1066 0007BFB0 ?shaEnablePixelProgram@@YAXXZ
       4200 1067 0007BF90 ?shaEnableVertexBuffers@@YAXXZ
       4201 1068 0007BFA0 ?shaEnableVertexProgram@@YAXXZ
       4202 1069 0007C0E0 ?shaExtrudeVertices@@YAXM@Z
       4203 106A 0007FE30 ?shaFillColorBuffer@@YAXK@Z
       4204 106B 0007BDC0 ?shaGetAmbientColor@@YAKXZ
       4205 106C 0007BD40 ?shaGetColor@@YAKJ@Z
       4206 106D 0007BE50 ?shaGetColorArray@@YAPAUGFXColor@@XZ
       4207 106E 0007BDE0 ?shaGetCurrentColor@@YAKXZ
       4208 106F 0007BCE0 ?shaGetFirstVertex@@YAJXZ
       4209 1070 0007BD50 ?shaGetFlags@@YAAAKXZ
       4210 1071 0007BD10 ?shaGetFloat@@YAMJ@Z
       4211 1072 0007BE00 ?shaGetIndexArray@@YAPBGXZ
       4212 1073 0007BD00 ?shaGetIndexCount@@YAJXZ
       4213 1074 0007BDA0 ?shaGetLightColor@@YAKXZ
       4214 1075 0007BD70 ?shaGetLightDirection@@YA?AV?$Vector@M$02@@XZ
       4215 1076 0007BD60 ?shaGetModelColor@@YAKXZ
       4216 1077 000804D0 ?shaGetNewColorArray@@YAPAUGFXColor@@XZ
       4217 1078 00080520 ?shaGetNewTexCoordArray@@YAPAUGFXTexCoord@@XZ
       4218 1079 00080570 ?shaGetNewVertexArray@@YAPAUGFXVertex@@XZ
       4219 107A 0007BE10 ?shaGetNormalArray@@YAPAUGFXNormal@@XZ
       4220 107B 0007BE90 ?shaGetObjToAbsMatrix@@YAPAY0M@MXZ
       4221 107C 0007BE70 ?shaGetObjToViewMatrix@@YAPAY0M@MXZ
       4222 107D 0007BE80 ?shaGetObjToViewStrMatrix@@YAPAY0M@MXZ
       4223 107E 0007BE60 ?shaGetProjection@@YAPAVCAnyProjection3D@@XZ
       4224 107F 0007BEA0 ?shaGetRenFlags@@YAKXZ
       4225 1080 0007C2E0 ?shaGetShaderProfile@@YAJXZ
       4226 1081 0007BD20 ?shaGetTexture@@YAPAVCTextureObject@@J@Z
       4227 1082 0007BE30 ?shaGetUVMap@@YAPAUGFXTexCoord@@J@Z
       4228 1083 0007BDF0 ?shaGetVertexArray@@YAPAUGFXVertex@@XZ
       4229 1084 0007BCF0 ?shaGetVertexCount@@YAJXZ
       4230 1085 0007D260 ?shaHasFog@@YAHAAV?$AABBox@M$02@@@Z
       4231 1086 0007D4D0 ?shaHasHaze@@YAHAAV?$AABBox@M$02@@@Z
       4232 1087 0007BB50 ?shaLockArrays@@YAXXZ
       4233 1088 0007C070 ?shaOverBrightningEnabled@@YAHXZ
       4234 1089 0007F610 ?shaPrepareFogAndHaze@@YAXH@Z
       4235 108A 0007CEE0 ?shaRender@@YAXXZ
       4236 108B 0007C2D0 ?shaRenderSilhouette@@YAHXZ
       4237 108C 0007BA20 ?shaSetBoneMatrix@@YAXPAY0M@$$CBMJ@Z
       4238 108D 0007BB70 ?shaSetColor@@YAXJ@Z
       4239 108E 0007BC00 ?shaSetColorArray@@YAXPAUGFXColor@@@Z
       4240 108F 0007BC10 ?shaSetConstantColor@@YAXK@Z
       4241 1090 0007B7D0 ?shaSetFogTextureUnit@@YAXJH@Z
       4242 1091 0007C040 ?shaSetFogUVMap@@YAXPAUGFXTexCoord@@@Z
       4243 1092 0007C060 ?shaSetHazeColorArray@@YAXPAUGFXColor@@@Z
       4244 1093 0007C050 ?shaSetHazeUVMap@@YAXPAUGFXTexCoord@@@Z
       4245 1094 0007B8E0 ?shaSetIndices@@YAXPBGJ@Z
       4246 1095 0007BAD0 ?shaSetLightColor@@YAXKK@Z
       4247 1096 0007E940 ?shaSetLightDirection@@YAXABV?$Vector@M$02@@@Z
       4248 1097 0007BAC0 ?shaSetModelColor@@YAXAAK@Z
       4249 1098 0007B900 ?shaSetNormalArray@@YAXPAUGFXNormal@@@Z
       4250 1099 0007B9A0 ?shaSetNormalBufferID@@YAXJ@Z
       4251 109A 0007BB30 ?shaSetObjToAbsMatrix@@YAXAAY0M@M@Z
       4252 109B 0007BB10 ?shaSetObjToViewMatrix@@YAXAAY0M@M@Z
       4253 109C 0007BB20 ?shaSetObjToViewStrMatrix@@YAXAAY0M@M@Z
       4254 109D 0007D040 ?shaSetPixelProgram@@YAXJ@Z
       4255 109E 0007A330 ?shaSetPixelProgramConst@@YAXJPBUShaderRegister@@J@Z
       4256 109F 0007BB40 ?shaSetRenFlags@@YAXK@Z
       4257 10A0 0007BA70 ?shaSetSurfaceColors@@YAXPAKJ@Z
       4258 10A1 0007BAB0 ?shaSetSurfaceFlags@@YAXK@Z
       4259 10A2 0007BA90 ?shaSetSurfaceFloats@@YAXPAMJ@Z
       4260 10A3 0007BA50 ?shaSetSurfaceTextures@@YAXPAPAVCTextureObject@@J@Z
       4261 10A4 0007B950 ?shaSetSurfaceUVMaps@@YAXPAPAUGFXTexCoord@@J@Z
       4262 10A5 0007BA00 ?shaSetSurfaceUVMapsIDs@@YAXPAJJ@Z
       4263 10A6 0007BBD0 ?shaSetTexCoordArray@@YAXPAUGFXTexCoord@@J@Z
       4264 10A7 0007B9E0 ?shaSetTexCoordBufferID@@YAXJJ@Z
       4265 10A8 0007E9C0 ?shaSetTexture@@YAXJJ@Z
       4266 10A9 0007EA20 ?shaSetTexture@@YAXPAVCTextureData@@J@Z
       4267 10AA 0007BC20 ?shaSetTextureMatrix@@YAXAAY0M@$$CBMJ@Z
       4268 10AB 0007BBA0 ?shaSetTextureUnit@@YAXJ@Z
       4269 10AC 0007BF60 ?shaSetTextureWrapping@@YAXW4GfxWrap@@0J@Z
       4270 10AD 0007CFF0 ?shaSetUVMap@@YAXJJ@Z
       4271 10AE 0007B8B0 ?shaSetVertexArray@@YAXPAUGFXVertex@@JJ@Z
       4272 10AF 0007B970 ?shaSetVertexBufferID@@YAXJJJ@Z
       4273 10B0 0007EA60 ?shaSetVertexProgram@@YAXJ@Z
       4274 10B1 0007A320 ?shaSetVertexProgramConst@@YAXJPAY0BA@$$CBMJ@Z
       4275 10B2 0007A310 ?shaSetVertexProgramConst@@YAXJPAY0M@$$CBMJ@Z
       4276 10B3 0007A300 ?shaSetVertexProgramConst@@YAXJPBUShaderRegister@@J@Z
       4277 10B4 0007EE50 ?shaSetViewDirectionInObj@@YAXAAY0M@M@Z
       4278 10B5 0007B930 ?shaSetWeightArray@@YAXPAUGFXWeight@@@Z
       4279 10B6 0007B9C0 ?shaSetWeightBufferID@@YAXJ@Z
       4280 10B7 0007BA40 ?shaSetWeightsPerVertex@@YAXJ@Z
       4281 10B8 0007BB60 ?shaUnlockArrays@@YAXXZ
       4282 10B9 0007BFF0 ?shaUseHWShaders@@YAHXZ
       4283 10BA 0007C020 ?shaUsePixelProgram@@YAHXZ
       4284 10BB 0007C030 ?shaUseVertexBuffers@@YAHXZ
       4285 10BC 0007C010 ?shaUseVertexProgram@@YAHXZ
       4286 10BD 00166EE0 ?ska_FindID@@YAJABVCTString@@@Z
       4287 10BE 00166F60 ?ska_IDToString@@YA?AVCTString@@J@Z
       4288 10BF 001670D0 ?ska_StringToID@@YAJABVCTString@@@Z
       4289 10C0 0026F1F4 ?ska_bUseHardwareShaders@@3JA
       4290 10C1 002DF274 ?ska_fLODAdd@@3MA
       4291 10C2 0026F1D8 ?ska_fLODMul@@3MA
       4292 10C3 000DD660 ?smcLogBegin@@YAXXZ
       4293 10C4 000DD020 ?smcLogEnd@@YAXXZ
       4294 10C5 000DCA30 ?smcLogLevelName@@YAXPBD@Z
       4295 10C6 0027A8C4 ?snd_iFormat@@3JA
       4296 10C7 000350F0 ?span@CubicSpline@@ABEHAAM0@Z
       4297 10C8 000E4D50 ?texLogBegin@@YAXXZ
       4298 10C9 000E4710 ?texLogEnd@@YAXXZ
       4299 10CA 000E4120 ?texLogLevelName@@YAXPBD@Z
       4300 10CB 0029DC30 ?tmp_af@@3PAMA
       4301 10CC 0029DC80 ?tmp_ai@@3PAJA
       4302 10CD 0029DCA8 ?tmp_fAdd@@3JA
       4303 10CE 0029DCAC ?tmp_i@@3JA
       4304 10CF 000015D0 ?toString@CLogStats@@QBEXPAD@Z
       4305 10D0 00035270 ?write@CubicSpline@@QBEXPAVCTStream@@@Z
       4306 10D1 00285120 CEntity_DLLClass
       4307 10D2 00285170 CLiveEntity_DLLClass
       4308 10D3 002899F0 CMovableBrushEntity_DLLClass
       4309 10D4 00289A68 CMovableEntity_DLLClass
       4310 10D5 0028A110 CMovableModelEntity_DLLClass
       4311 10D6 0028A9B8 CPlayerEntity_DLLClass
       4312 10D7 002851C0 CRationalEntity_DLLClass
       4313 10D8 00172A30 Shader_Desc_TRShader_1TRL
       4314 10D9 00172AD0 Shader_Desc_TRShader_2TRL
       4315 10DA 00172B70 Shader_Desc_TRShader_Base
       4316 10DB 00172C10 Shader_Desc_TRShader_Fog
       4317 10DC 00172A00 Shader_PPCode_TRShader_1TRL
       4318 10DD 00172AA0 Shader_PPCode_TRShader_2TRL
       4319 10DE 00172B40 Shader_PPCode_TRShader_Base
       4320 10DF 00172BE0 Shader_PPCode_TRShader_Fog
       4321 10E0 001729C0 Shader_TRShader_1TRL
       4322 10E1 00172A60 Shader_TRShader_2TRL
       4323 10E2 00172B00 Shader_TRShader_Base
       4324 10E3 00172BA0 Shader_TRShader_Fog
       4325 10E4 001729D0 Shader_VPCode_TRShader_1TRL
       4326 10E5 00172A70 Shader_VPCode_TRShader_2TRL
       4327 10E6 00172B10 Shader_VPCode_TRShader_Base
       4328 10E7 00172BB0 Shader_VPCode_TRShader_Fog

  Summary

       CC000 .data
        1000 .data1
       5D000 .rdata
       1E000 .reloc
      20A000 .text
        1000 .tls
