Microsoft (R) COFF/PE Dumper Version 10.00.30319.01
Copyright (C) Microsoft Corporation.  All rights reserved.


Dump of file Entities.dll

File Type: DLL

  Section contains the following exports for Entities.dll

    00000000 characteristics
    3F98CB65 time date stamp Fri Oct 24 09:49:09 2003
        0.00 version
           1 ordinal base
        4942 number of functions
        4942 number of names

    ordinal hint RVA      name

          1    0 000106B0 ??0CBullet@@QAE@ABV0@@Z
          2    1 0001CA80 ??0CBullet@@QAE@XZ
          3    2 0002E240 ??0CComboManger@@QAE@ABV0@@Z
          4    3 002602C0 ??0CComboManger@@QAE@XZ
          5    4 00058720 ??0CCompMessageID@@QAE@ABV0@@Z
          6    5 0001B280 ??0CCompMessageID@@QAE@XZ
          7    6 00022510 ??0CEmiter@@QAE@XZ
          8    7 00022300 ??0CEmittedParticle@@QAE@XZ
          9    8 0001ED30 ??0CEnemyBase@@QAE@ABV0@@Z
         10    9 000C2D60 ??0CEnemyBase@@QAE@XZ
         11    A 000840C0 ??0CEnemyDive@@QAE@ABV0@@Z
         12    B 00084090 ??0CEnemyDive@@QAE@XZ
         13    C 00087C20 ??0CEnemyFly@@QAE@ABV0@@Z
         14    D 00087BB0 ??0CEnemyFly@@QAE@XZ
         15    E 000C9A50 ??0CEnemyHorse@@QAE@ABV0@@Z
         16    F 000C99E0 ??0CEnemyHorse@@QAE@XZ
         17   10 00072C10 ??0CEnemyRunInto@@QAE@ABV0@@Z
         18   11 00072BA0 ??0CEnemyRunInto@@QAE@XZ
         19   12 0019F4C0 ??0CMaria@@QAE@ABV0@@Z
         20   13 001A2D90 ??0CMaria@@QAE@XZ
         21   14 00056090 ??0CNavigationMarker@@QAE@ABV0@@Z
         22   15 00058DE0 ??0CNavigationMarker@@QAE@XZ
         23   16 00055380 ??0CPathNode@@QAE@ABV0@@Z
         24   17 00055480 ??0CPathNode@@QAE@PAVCNavigationMarker@@@Z
         25   18 00020320 ??0CPlayer@@QAE@AAV0@@Z
         26   19 001C8810 ??0CPlayer@@QAE@XZ
         27   1A 001A3600 ??0CPlayerAnimator@@QAE@ABV0@@Z
         28   1B 001C92B0 ??0CPlayerAnimator@@QAE@XZ
         29   1C 001A3DE0 ??0CPlayerView@@QAE@AAV0@@Z
         30   1D 001C92E0 ??0CPlayerView@@QAE@XZ
         31   1E 0002EA60 ??0CPlayerWeapons@@QAE@AAV0@@Z
         32   1F 0002E690 ??0CPlayerWeapons@@QAE@XZ
         33   20 00023540 ??0CPlayerWeapons_L@@QAE@AAV0@@Z
         34   21 0002C9E0 ??0CPlayerWeapons_L@@QAE@XZ
         35   22 0000A1B0 ??0CProjectile@@QAE@ABV0@@Z
         36   23 00230050 ??0CProjectile@@QAE@XZ
         37   24 0001C3F0 ??0CReminder@@QAE@ABV0@@Z
         38   25 0001C370 ??0CReminder@@QAE@XZ
         39   26 00009890 ??0CSkaItem@@QAE@ABV0@@Z
         40   27 00009760 ??0CSkaItem@@QAE@XZ
         41   28 0000EB70 ??0CWatcher@@QAE@ABV0@@Z
         42   29 0000EAB0 ??0CWatcher@@QAE@XZ
         43   2A 00006B20 ??0EActivate@@QAE@ABV0@@Z
         44   2B 00003730 ??0EActivate@@QAE@XZ
         45   2C 00181D10 ??0EActivateBlend@@QAE@ABV0@@Z
         46   2D 00181E20 ??0EActivateBlend@@QAE@XZ
         47   2E 0000B7C0 ??0EActiveMariaDie@@QAE@ABV0@@Z
         48   2F 001A4850 ??0EActiveMariaDie@@QAE@XZ
         49   30 0000CFD0 ??0EAddBulletSpray@@QAE@ABV0@@Z
         50   31 001AFBA0 ??0EAddBulletSpray@@QAE@XZ
         51   32 0000D160 ??0EAddGoreSpray@@QAE@ABV0@@Z
         52   33 001AFC10 ??0EAddGoreSpray@@QAE@XZ
         53   34 001133F0 ??0EAlert@@QAE@ABV0@@Z
         54   35 00116700 ??0EAlert@@QAE@XZ
         55   36 000231C0 ??0EAmmoPackItem@@QAE@ABV0@@Z
         56   37 00195500 ??0EAmmoPackItem@@QAE@XZ
         57   38 0024A490 ??0EAnimForDamage@@QAE@ABV0@@Z
         58   39 0024A680 ??0EAnimForDamage@@QAE@XZ
         59   3A 001A33B0 ??0EAnimatorInit@@QAE@ABV0@@Z
         60   3B 001CAA60 ??0EAnimatorInit@@QAE@XZ
         61   3C 0000C600 ??0EAutoAction@@QAE@ABV0@@Z
         62   3D 001A4E50 ??0EAutoAction@@QAE@XZ
         63   3E 00007ED0 ??0EAvoidProjectiles@@QAE@ABV0@@Z
         64   3F 00005F20 ??0EAvoidProjectiles@@QAE@XZ
         65   40 00008B20 ??0EBFlame@@QAE@ABV0@@Z
         66   41 000043C0 ??0EBFlame@@QAE@XZ
         67   42 00008A90 ??0EBGravity@@QAE@ABV0@@Z
         68   43 00004380 ??0EBGravity@@QAE@XZ
         69   44 0019F2B0 ??0EBackMaria@@QAE@ABV0@@Z
         70   45 0019F950 ??0EBackMaria@@QAE@XZ
         71   46 000075A0 ??0EBackMariaNPC@@QAE@ABV0@@Z
         72   47 00003BE0 ??0EBackMariaNPC@@QAE@XZ
         73   48 00099210 ??0EBackward@@QAE@ABV0@@Z
         74   49 00099950 ??0EBackward@@QAE@XZ
         75   4A 00007210 ??0EBasket@@QAE@ABV0@@Z
         76   4B 00003A30 ??0EBasket@@QAE@XZ
         77   4C 0000F9C0 ??0EBlowUp@@QAE@ABV0@@Z
         78   4D 000B5C90 ??0EBlowUp@@QAE@XZ
         79   4E 00007A80 ??0EBonus@@QAE@ABV0@@Z
         80   4F 00003E30 ??0EBonus@@QAE@XZ
         81   50 00195FE0 ??0EBoosterPack@@QAE@ABV0@@Z
         82   51 00196160 ??0EBoosterPack@@QAE@XZ
         83   52 0000D5E0 ??0EBoringWeapon@@QAE@ABV0@@Z
         84   53 001A5310 ??0EBoringWeapon@@QAE@XZ
         85   54 00113630 ??0EBossWounded@@QAE@ABV0@@Z
         86   55 00118C90 ??0EBossWounded@@QAE@XZ
         87   56 0000DCE0 ??0EBringUp@@QAE@ABV0@@Z
         88   57 001A55B0 ??0EBringUp@@QAE@XZ
         89   58 00009EC0 ??0EBruceDefenseFinished@@QAE@ABV0@@Z
         90   59 0022E070 ??0EBruceDefenseFinished@@QAE@XZ
         91   5A 000659A0 ??0EBruceDefenseProjectiles@@QAE@ABV0@@Z
         92   5B 0006ABF0 ??0EBruceDefenseProjectiles@@QAE@XZ
         93   5C 00065F40 ??0EBruceGo@@QAE@ABV0@@Z
         94   5D 000663B0 ??0EBruceGo@@QAE@XZ
         95   5E 00065E70 ??0EBruceReady@@QAE@ABV0@@Z
         96   5F 00066350 ??0EBruceReady@@QAE@XZ
         97   60 00065B70 ??0EBruceTeleport@@QAE@ABV0@@Z
         98   61 00066230 ??0EBruceTeleport@@QAE@XZ
         99   62 000AE380 ??0EBrushDeath@@QAE@ABV0@@Z
        100   63 002447C0 ??0EBrushDeath@@QAE@XZ
        101   64 000AE040 ??0EBrushDestroyed@@QAE@ABV0@@Z
        102   65 00244660 ??0EBrushDestroyed@@QAE@XZ
        103   66 00070480 ??0EBuffaloMoveThroughMarkers@@QAE@ABV0@@Z
        104   67 000705F0 ??0EBuffaloMoveThroughMarkers@@QAE@XZ
        105   68 000104A0 ??0EBulletInit@@QAE@ABV0@@Z
        106   69 00229490 ??0EBulletInit@@QAE@XZ
        107   6A 0000BEE0 ??0ECameraStart@@QAE@ABV0@@Z
        108   6B 001A4B70 ??0ECameraStart@@QAE@XZ
        109   6C 0000C0D0 ??0ECameraStop@@QAE@ABV0@@Z
        110   6D 001A4C50 ??0ECameraStop@@QAE@XZ
        111   6E 00008E20 ??0ECenterMessage@@QAE@ABV0@@Z
        112   6F 000064F0 ??0ECenterMessage@@QAE@XZ
        113   70 00001380 ??0EChangeAnim@@QAE@ABV0@@Z
        114   71 001F2150 ??0EChangeAnim@@QAE@XZ
        115   72 0009EE50 ??0EChangeDance@@QAE@ABV0@@Z
        116   73 0009F0D0 ??0EChangeDance@@QAE@XZ
        117   74 00200D30 ??0EChangeGravity@@QAE@ABV0@@Z
        118   75 002010A0 ??0EChangeGravity@@QAE@XZ
        119   76 0000EF30 ??0EChangeMusic@@QAE@ABV0@@Z
        120   77 002119A0 ??0EChangeMusic@@QAE@XZ
        121   78 00079820 ??0EChiangWaitMode@@QAE@ABV0@@Z
        122   79 00079B20 ??0EChiangWaitMode@@QAE@XZ
        123   7A 00066010 ??0ECloseAttack@@QAE@ABV0@@Z
        124   7B 00066410 ??0ECloseAttack@@QAE@XZ
        125   7C 0000B0A0 ??0ECombo@@QAE@ABV0@@Z
        126   7D 001A45B0 ??0ECombo@@QAE@XZ
        127   7E 00008F40 ??0EComputerMessage@@QAE@ABV0@@Z
        128   7F 00004520 ??0EComputerMessage@@QAE@XZ
        129   80 001F82D0 ??0ECopierTrigger@@QAE@ABV0@@Z
        130   81 001F8440 ??0ECopierTrigger@@QAE@XZ
        131   82 0025B540 ??0ECoreDamage@@QAE@ABV0@@Z
        132   83 0025B890 ??0ECoreDamage@@QAE@XZ
        133   84 0025B1F0 ??0ECoreFlame@@QAE@ABV0@@Z
        134   85 0025B710 ??0ECoreFlame@@QAE@XZ
        135   86 0025B390 ??0ECoreGravity@@QAE@ABV0@@Z
        136   87 0025B7D0 ??0ECoreGravity@@QAE@XZ
        137   88 0025B120 ??0ECoreGrind@@QAE@ABV0@@Z
        138   89 0025B6B0 ??0ECoreGrind@@QAE@XZ
        139   8A 0025B2C0 ??0ECorePress@@QAE@ABV0@@Z
        140   8B 0025B770 ??0ECorePress@@QAE@XZ
        141   8C 0025B460 ??0ECoreSwitcher@@QAE@ABV0@@Z
        142   8D 0025B830 ??0ECoreSwitcher@@QAE@XZ
        143   8E 000243F0 ??0ECounterCount@@QAE@ABV0@@Z
        144   8F 000C3930 ??0ECounterCount@@QAE@XZ
        145   90 0000AB80 ??0ECrazyBegin@@QAE@ABV0@@Z
        146   91 001A43D0 ??0ECrazyBegin@@QAE@XZ
        147   92 0000AC80 ??0ECrazyEnd@@QAE@ABV0@@Z
        148   93 001A4430 ??0ECrazyEnd@@QAE@XZ
        149   94 00008D10 ??0ECredits@@QAE@ABV0@@Z
        150   95 00004480 ??0ECredits@@QAE@XZ
        151   96 00096670 ??0EDancerAcrobatRemoved@@QAE@ABV0@@Z
        152   97 000A32C0 ??0EDancerAcrobatRemoved@@QAE@XZ
        153   98 00096770 ??0EDancerNormalCreated@@QAE@ABV0@@Z
        154   99 000A3320 ??0EDancerNormalCreated@@QAE@XZ
        155   9A 00006BB0 ??0EDeactivate@@QAE@ABV0@@Z
        156   9B 00003770 ??0EDeactivate@@QAE@XZ
        157   9C 00181D60 ??0EDeactivateBlend@@QAE@ABV0@@Z
        158   9D 00181E60 ??0EDeactivateBlend@@QAE@XZ
        159   9E 00065CD0 ??0EDefenseBullet@@QAE@ABV0@@Z
        160   9F 0006AC70 ??0EDefenseBullet@@QAE@XZ
        161   A0 0009EBE0 ??0EDirectDancers@@QAE@ABV0@@Z
        162   A1 0009EFB0 ??0EDirectDancers@@QAE@XZ
        163   A2 0000C4A0 ??0EDisconnected@@QAE@ABV0@@Z
        164   A3 001A4DB0 ??0EDisconnected@@QAE@XZ
        165   A4 0012D7C0 ??0EDownMode@@QAE@ABV0@@Z
        166   A5 00120B00 ??0EDownMode@@QAE@XZ
        167   A6 0000AD80 ??0EDrugmodeBegin@@QAE@ABV0@@Z
        168   A7 001A4490 ??0EDrugmodeBegin@@QAE@XZ
        169   A8 0000AE80 ??0EDrugmodeEnd@@QAE@ABV0@@Z
        170   A9 001A44F0 ??0EDrugmodeEnd@@QAE@XZ
        171   AA 00006D60 ??0EEnd@@QAE@ABV0@@Z
        172   AB 00003830 ??0EEnd@@QAE@XZ
        173   AC 00010310 ??0EEndActor@@QAE@ABV0@@Z
        174   AD 000AF3A0 ??0EEndActor@@QAE@XZ
        175   AE 0000F580 ??0EEnemyBaseDamage@@QAE@ABV0@@Z
        176   AF 000B5B80 ??0EEnemyBaseDamage@@QAE@XZ
        177   B0 0000F7D0 ??0EEnemyBaseDeath@@QAE@ABV0@@Z
        178   B1 000B5C10 ??0EEnemyBaseDeath@@QAE@XZ
        179   B2 000086E0 ??0EEntityVoice@@QAE@ABV0@@Z
        180   B3 000041C0 ??0EEntityVoice@@QAE@XZ
        181   B4 00006C40 ??0EEnvironmentStart@@QAE@ABV0@@Z
        182   B5 000037B0 ??0EEnvironmentStart@@QAE@XZ
        183   B6 00006CD0 ??0EEnvironmentStop@@QAE@ABV0@@Z
        184   B7 000037F0 ??0EEnvironmentStop@@QAE@XZ
        185   B8 00003190 ??0EExplode@@QAE@ABV0@@Z
        186   B9 0022FF60 ??0EExplode@@QAE@XZ
        187   BA 00007D50 ??0EExtraTeleport@@QAE@ABV0@@Z
        188   BB 00005E40 ??0EExtraTeleport@@QAE@XZ
        189   BC 0019F1E0 ??0EFireBombs@@QAE@ABV0@@Z
        190   BD 0019F8F0 ??0EFireBombs@@QAE@XZ
        191   BE 000994E0 ??0EFireDagger@@QAE@ABV0@@Z
        192   BF 00099A90 ??0EFireDagger@@QAE@XZ
        193   C0 00096870 ??0EFireDaggerNow@@QAE@ABV0@@Z
        194   C1 000969D0 ??0EFireDaggerNow@@QAE@XZ
        195   C2 0012D500 ??0EFireLightning@@QAE@ABV0@@Z
        196   C3 00120990 ??0EFireLightning@@QAE@XZ
        197   C4 000AE590 ??0EFireRocket@@QAE@ABV0@@Z
        198   C5 00149410 ??0EFireRocket@@QAE@XZ
        199   C6 0000D6E0 ??0EFireWeapon@@QAE@ABV0@@Z
        200   C7 001A5370 ??0EFireWeapon@@QAE@XZ
        201   C8 00002C40 ??0EFlame@@QAE@ABV0@@Z
        202   C9 0022C3F0 ??0EFlame@@QAE@XZ
        203   CA 001A40D0 ??0EFlipTheSwitch@@QAE@ABV0@@Z
        204   CB 0021FE20 ??0EFlipTheSwitch@@QAE@XZ
        205   CC 0018D230 ??0EFloatingScore@@QAE@ABV0@@Z
        206   CD 0018D330 ??0EFloatingScore@@QAE@XZ
        207   CE 0000F440 ??0EForceWound@@QAE@ABV0@@Z
        208   CF 000AEE80 ??0EForceWound@@QAE@XZ
        209   D0 00099120 ??0EForward@@QAE@ABV0@@Z
        210   D1 000998F0 ??0EForward@@QAE@XZ
        211   D2 00113840 ??0EGetDamaged@@QAE@ABV0@@Z
        212   D3 00118D10 ??0EGetDamaged@@QAE@XZ
        213   D4 000AE980 ??0EGoToBellMarker@@QAE@ABV0@@Z
        214   D5 001495D0 ??0EGoToBellMarker@@QAE@XZ
        215   D6 0000E430 ??0EGrenadeExplodeNow@@QAE@ABV0@@Z
        216   D7 001A5850 ??0EGrenadeExplodeNow@@QAE@XZ
        217   D8 000088E0 ??0EGrindClose@@QAE@ABV0@@Z
        218   D9 000042C0 ??0EGrindClose@@QAE@XZ
        219   DA 000087B0 ??0EGrindInit@@QAE@ABV0@@Z
        220   DB 00004240 ??0EGrindInit@@QAE@XZ
        221   DC 00008A00 ??0EGrindOff@@QAE@ABV0@@Z
        222   DD 00004340 ??0EGrindOff@@QAE@XZ
        223   DE 00008970 ??0EGrindOn@@QAE@ABV0@@Z
        224   DF 00004300 ??0EGrindOn@@QAE@XZ
        225   E0 00008840 ??0EGrindOpen@@QAE@ABV0@@Z
        226   E1 00004280 ??0EGrindOpen@@QAE@XZ
        227   E2 00113220 ??0EGuard@@QAE@ABV0@@Z
        228   E3 00118C10 ??0EGuard@@QAE@XZ
        229   E4 00113B60 ??0EGuardState@@QAE@ABV0@@Z
        230   E5 00113CD0 ??0EGuardState@@QAE@XZ
        231   E6 00248A90 ??0EHarbor@@QAE@ABV0@@Z
        232   E7 00248B50 ??0EHarbor@@QAE@XZ
        233   E8 000ADF40 ??0EHit@@QAE@ABV0@@Z
        234   E9 00244600 ??0EHit@@QAE@XZ
        235   EA 00009230 ??0EHitBySpaceShipBeam@@QAE@ABV0@@Z
        236   EB 000046D0 ??0EHitBySpaceShipBeam@@QAE@XZ
        237   EC 00007680 ??0EHooker3@@QAE@ABV0@@Z
        238   ED 00003C70 ??0EHooker3@@QAE@XZ
        239   EE 00007760 ??0EHooker@@QAE@ABV0@@Z
        240   EF 00003CB0 ??0EHooker@@QAE@XZ
        241   F0 00008C00 ??0EHudPicFX@@QAE@ABV0@@Z
        242   F1 00004400 ??0EHudPicFX@@QAE@XZ
        243   F2 0000FB90 ??0EInDrugModeItem@@QAE@ABV0@@Z
        244   F3 000AF060 ??0EInDrugModeItem@@QAE@XZ
        245   F4 0000FF70 ??0EInRange@@QAE@ABV0@@Z
        246   F5 000AF220 ??0EInRange@@QAE@XZ
        247   F6 0019EFF0 ??0EInitMaria@@QAE@ABV0@@Z
        248   F7 0019F7F0 ??0EInitMaria@@QAE@XZ
        249   F8 0005B2C0 ??0EInitMariaNPC@@QAE@ABV0@@Z
        250   F9 002654D0 ??0EInitMariaNPC@@QAE@XZ
        251   FA 001A4210 ??0EItemHealthyFamily@@QAE@ABV0@@Z
        252   FB 0026E5D0 ??0EItemHealthyFamily@@QAE@XZ
        253   FC 000798F0 ??0EJump@@QAE@ABV0@@Z
        254   FD 00079B80 ??0EJump@@QAE@XZ
        255   FE 00073090 ??0EJumpIntoRiceField@@QAE@ABV0@@Z
        256   FF 00073380 ??0EJumpIntoRiceField@@QAE@XZ
        257  100 00072FC0 ??0EJumpOutFromRiceField@@QAE@ABV0@@Z
        258  101 00073320 ??0EJumpOutFromRiceField@@QAE@XZ
        259  102 00196990 ??0EKey@@QAE@ABV0@@Z
        260  103 00196B00 ??0EKey@@QAE@XZ
        261  104 00008140 ??0EKilledEnemy@@QAE@ABV0@@Z
        262  105 00006060 ??0EKilledEnemy@@QAE@XZ
        263  106 0010A9E0 ??0ELamonBikeFireRocket@@QAE@ABV0@@Z
        264  107 0010ADF0 ??0ELamonBikeFireRocket@@QAE@XZ
        265  108 0010AC80 ??0ELamonBikeMoveThroughMarkers@@QAE@ABV0@@Z
        266  109 0010AF20 ??0ELamonBikeMoveThroughMarkers@@QAE@XZ
        267  10A 0010AAB0 ??0ELamonBikeOnMarker@@QAE@ABV0@@Z
        268  10B 0010AE50 ??0ELamonBikeOnMarker@@QAE@XZ
        269  10C 0010ABA0 ??0ELamonBikeSuicide@@QAE@ABV0@@Z
        270  10D 0010AEC0 ??0ELamonBikeSuicide@@QAE@XZ
        271  10E 00007140 ??0ELamonGenerate@@QAE@ABV0@@Z
        272  10F 000039F0 ??0ELamonGenerate@@QAE@XZ
        273  110 0000B8C0 ??0ELandingActiveMaria@@QAE@ABV0@@Z
        274  111 001A48B0 ??0ELandingActiveMaria@@QAE@XZ
        275  112 0000B2E0 ??0ELandingMaria@@QAE@ABV0@@Z
        276  113 001A4670 ??0ELandingMaria@@QAE@XZ
        277  114 0019F110 ??0ELaunch@@QAE@ABV0@@Z
        278  115 0019F890 ??0ELaunch@@QAE@XZ
        279  116 0000B5E0 ??0ELaunchActiveMaria@@QAE@ABV0@@Z
        280  117 001A4790 ??0ELaunchActiveMaria@@QAE@XZ
        281  118 000082D0 ??0ELaunchAx@@QAE@ABV0@@Z
        282  119 00004060 ??0ELaunchAx@@QAE@XZ
        283  11A 0000B1C0 ??0ELaunchMaria@@QAE@ABV0@@Z
        284  11B 001A4610 ??0ELaunchMaria@@QAE@XZ
        285  11C 00007460 ??0ELaunchMariaNPC@@QAE@ABV0@@Z
        286  11D 00003B30 ??0ELaunchMariaNPC@@QAE@XZ
        287  11E 00002FA0 ??0ELaunchProjectile@@QAE@ABV0@@Z
        288  11F 0022DE90 ??0ELaunchProjectile@@QAE@XZ
        289  120 00098F40 ??0ELeft@@QAE@ABV0@@Z
        290  121 00099830 ??0ELeft@@QAE@XZ
        291  122 00007320 ??0ELisa@@QAE@ABV0@@Z
        292  123 00003AB0 ??0ELisa@@QAE@XZ
        293  124 00001670 ??0EMarkPicked@@QAE@ABV0@@Z
        294  125 0019C000 ??0EMarkPicked@@QAE@XZ
        295  126 0024E6F0 ??0EMarkerPassed@@QAE@ABV0@@Z
        296  127 0024A5E0 ??0EMarkerPassed@@QAE@XZ
        297  128 00197C50 ??0EMessageItem@@QAE@ABV0@@Z
        298  129 00197E40 ??0EMessageItem@@QAE@XZ
        299  12A 00001220 ??0EModel2Activate@@QAE@ABV0@@Z
        300  12B 00207630 ??0EModel2Activate@@QAE@XZ
        301  12C 000012A0 ??0EModel2Deactivate@@QAE@ABV0@@Z
        302  12D 00207690 ??0EModel2Deactivate@@QAE@XZ
        303  12E 00002450 ??0EModel3Activate@@QAE@ABV0@@Z
        304  12F 0020A020 ??0EModel3Activate@@QAE@XZ
        305  130 00002550 ??0EModel3Deactivate@@QAE@ABV0@@Z
        306  131 0020A080 ??0EModel3Deactivate@@QAE@XZ
        307  132 00001EB0 ??0EModelChange@@QAE@ABV0@@Z
        308  133 00217180 ??0EModelChange@@QAE@XZ
        309  134 00002870 ??0EModelDeath@@QAE@ABV0@@Z
        310  135 00204700 ??0EModelDeath@@QAE@XZ
        311  136 00002210 ??0EModelDeathSpawnAmmoItem@@QAE@ABV0@@Z
        312  137 002172A0 ??0EModelDeathSpawnAmmoItem@@QAE@XZ
        313  138 000020F0 ??0EModelDeathSpawnArmorItem@@QAE@ABV0@@Z
        314  139 00217240 ??0EModelDeathSpawnArmorItem@@QAE@XZ
        315  13A 00001FD0 ??0EModelDeathSpawnHealthItem@@QAE@ABV0@@Z
        316  13B 002171E0 ??0EModelDeathSpawnHealthItem@@QAE@XZ
        317  13C 00002330 ??0EModelDeathSpawnSpecialItem@@QAE@ABV0@@Z
        318  13D 00217300 ??0EModelDeathSpawnSpecialItem@@QAE@XZ
        319  13E 00007C90 ??0EModelSelfDestruction@@QAE@ABV0@@Z
        320  13F 00005DB0 ??0EModelSelfDestruction@@QAE@XZ
        321  140 000AEC30 ??0EMoveToDestMarker@@QAE@ABV0@@Z
        322  141 001496D0 ??0EMoveToDestMarker@@QAE@XZ
        323  142 00210F90 ??0EMusicChangerTrigger@@QAE@ABV0@@Z
        324  143 00211120 ??0EMusicChangerTrigger@@QAE@XZ
        325  144 0000F100 ??0ENetChangeMusic@@QAE@ABV0@@Z
        326  145 00211A50 ??0ENetChangeMusic@@QAE@XZ
        327  146 0000E100 ??0ENetFireWeapon@@QAE@ABV0@@Z
        328  147 001A5730 ??0ENetFireWeapon@@QAE@XZ
        329  148 0000E200 ??0ENetReleaseWeapon@@QAE@ABV0@@Z
        330  149 001A5790 ??0ENetReleaseWeapon@@QAE@XZ
        331  14A 0000E330 ??0ENetReloadWeapon@@QAE@ABV0@@Z
        332  14B 001A57F0 ??0ENetReloadWeapon@@QAE@XZ
        333  14C 0000DFE0 ??0ENetSelectWeapon@@QAE@ABV0@@Z
        334  14D 001A56D0 ??0ENetSelectWeapon@@QAE@XZ
        335  14E 00010A60 ??0ENetSpawnEntity@@QAE@ABV0@@Z
        336  14F 000CED90 ??0ENetSpawnEntity@@QAE@XZ
        337  150 00186CE0 ??0ENetTrigger@@QAE@ABV0@@Z
        338  151 00186E40 ??0ENetTrigger@@QAE@XZ
        339  152 00009160 ??0EObjectiveCompletedMessage@@QAE@ABV0@@Z
        340  153 00004640 ??0EObjectiveCompletedMessage@@QAE@XZ
        341  154 000AE780 ??0EOnMarker@@QAE@ABV0@@Z
        342  155 001494F0 ??0EOnMarker@@QAE@XZ
        343  156 00008010 ??0EOnPeerDead@@QAE@ABV0@@Z
        344  157 00003F80 ??0EOnPeerDead@@QAE@XZ
        345  158 0000FD80 ??0EOutDrugModeItem@@QAE@ABV0@@Z
        346  159 000AF140 ??0EOutDrugModeItem@@QAE@XZ
        347  15A 00010160 ??0EOutRange@@QAE@ABV0@@Z
        348  15B 000AF300 ??0EOutRange@@QAE@XZ
        349  15C 00214910 ??0EParticlesActivate@@QAE@ABV0@@Z
        350  15D 00214AB0 ??0EParticlesActivate@@QAE@XZ
        351  15E 00214960 ??0EParticlesDeactivate@@QAE@ABV0@@Z
        352  15F 00214AF0 ??0EParticlesDeactivate@@QAE@XZ
        353  160 0000EDD0 ??0EPlayEcstasy@@QAE@ABV0@@Z
        354  161 00211900 ??0EPlayEcstasy@@QAE@XZ
        355  162 00002670 ??0EPlaySoundOnce@@QAE@ABV0@@Z
        356  163 0021F180 ??0EPlaySoundOnce@@QAE@XZ
        357  164 0000CB00 ??0EPlayerDeath@@QAE@ABV0@@Z
        358  165 001AFB10 ??0EPlayerDeath@@QAE@XZ
        359  166 0012D6F0 ??0EPlayerInCloseRange@@QAE@ABV0@@Z
        360  167 00120AA0 ??0EPlayerInCloseRange@@QAE@XZ
        361  168 0000C8A0 ??0EPlayerKilledEnemy@@QAE@ABV0@@Z
        362  169 001A4F40 ??0EPlayerKilledEnemy@@QAE@XZ
        363  16A 0000C380 ??0EPlayerRebirth@@QAE@ABV0@@Z
        364  16B 001A4D50 ??0EPlayerRebirth@@QAE@XZ
        365  16C 0000CE80 ??0EPlayerStats@@QAE@ABV0@@Z
        366  16D 001A50D0 ??0EPlayerStats@@QAE@XZ
        367  16E 001985B0 ??0EPowerUp@@QAE@ABV0@@Z
        368  16F 00198720 ??0EPowerUp@@QAE@XZ
        369  170 000AEB30 ??0EPriestStart@@QAE@ABV0@@Z
        370  171 00149670 ??0EPriestStart@@QAE@XZ
        371  172 00242300 ??0EProjectileSpawnClient@@QAE@ABV0@@Z
        372  173 00242C30 ??0EProjectileSpawnClient@@QAE@XZ
        373  174 00007E00 ??0EProtectorFire@@QAE@ABV0@@Z
        374  175 00003F20 ??0EProtectorFire@@QAE@XZ
        375  176 00113A50 ??0EProtectorsCleared@@QAE@ABV0@@Z
        376  177 001168C0 ??0EProtectorsCleared@@QAE@XZ
        377  178 0000DDE0 ??0EPutDown@@QAE@ABV0@@Z
        378  179 001A5610 ??0EPutDown@@QAE@XZ
        379  17A 0027E130 ??0ERHawkDeath@@QAE@ABV0@@Z
        380  17B 0027E280 ??0ERHawkDeath@@QAE@XZ
        381  17C 00002770 ??0ERangeModelDestruction@@QAE@ABV0@@Z
        382  17D 002046A0 ??0ERangeModelDestruction@@QAE@XZ
        383  17E 0000C280 ??0ERebirth@@QAE@ABV0@@Z
        384  17F 001A4CF0 ??0ERebirth@@QAE@XZ
        385  180 00007B20 ??0EReceiveScore@@QAE@ABV0@@Z
        386  181 00003E70 ??0EReceiveScore@@QAE@XZ
        387  182 00001510 ??0EReceiveSkaItem@@QAE@ABV0@@Z
        388  183 0019BF60 ??0EReceiveSkaItem@@QAE@XZ
        389  184 0000F340 ??0EReconsiderBehavior@@QAE@ABV0@@Z
        390  185 000AEE20 ??0EReconsiderBehavior@@QAE@XZ
        391  186 0000D7E0 ??0EReleaseWeapon@@QAE@ABV0@@Z
        392  187 001A53D0 ??0EReleaseWeapon@@QAE@XZ
        393  188 0000DBE0 ??0EReloadChtGiveall@@QAE@ABV0@@Z
        394  189 001A5550 ??0EReloadChtGiveall@@QAE@XZ
        395  18A 0000DAE0 ??0EReloadGetAmmo@@QAE@ABV0@@Z
        396  18B 001A54F0 ??0EReloadGetAmmo@@QAE@XZ
        397  18C 0000D8E0 ??0EReloadWeapon@@QAE@ABV0@@Z
        398  18D 001A5430 ??0EReloadWeapon@@QAE@XZ
        399  18E 000070A0 ??0EReminder@@QAE@ABV0@@Z
        400  18F 000039B0 ??0EReminder@@QAE@XZ
        401  190 0000A9C0 ??0EReminderInit@@QAE@ABV0@@Z
        402  191 00059220 ??0EReminderInit@@QAE@XZ
        403  192 0000F240 ??0ERestartAttack@@QAE@ABV0@@Z
        404  193 000AEDC0 ??0ERestartAttack@@QAE@XZ
        405  194 00099030 ??0ERight@@QAE@ABV0@@Z
        406  195 00099890 ??0ERight@@QAE@XZ
        407  196 00073160 ??0ERightAttack@@QAE@ABV0@@Z
        408  197 000733E0 ??0ERightAttack@@QAE@XZ
        409  198 000799C0 ??0ERightFire@@QAE@ABV0@@Z
        410  199 00079BE0 ??0ERightFire@@QAE@XZ
        411  19A 0000DEE0 ??0ERigidityWeapon@@QAE@ABV0@@Z
        412  19B 001A5670 ??0ERigidityWeapon@@QAE@XZ
        413  19C 00099300 ??0ERotateLeft@@QAE@ABV0@@Z
        414  19D 000999B0 ??0ERotateLeft@@QAE@XZ
        415  19E 000993F0 ??0ERotateRight@@QAE@ABV0@@Z
        416  19F 00099A20 ??0ERotateRight@@QAE@XZ
        417  1A0 000084C0 ??0EScroll@@QAE@ABV0@@Z
        418  1A1 000040C0 ??0EScroll@@QAE@XZ
        419  1A2 00008220 ??0ESecretFound@@QAE@ABV0@@Z
        420  1A3 00004020 ??0ESecretFound@@QAE@XZ
        421  1A4 0000D4C0 ??0ESelectWeapon@@QAE@ABV0@@Z
        422  1A5 001A52B0 ??0ESelectWeapon@@QAE@XZ
        423  1A6 0000B400 ??0ESetPlayerWeapon@@QAE@ABV0@@Z
        424  1A7 001A46D0 ??0ESetPlayerWeapon@@QAE@XZ
        425  1A8 00001810 ??0ESetType@@QAE@ABV0@@Z
        426  1A9 0019C0B0 ??0ESetType@@QAE@XZ
        427  1AA 00010950 ??0ESetViewer@@QAE@ABV0@@Z
        428  1AB 001F3910 ??0ESetViewer@@QAE@XZ
        429  1AC 0000CD80 ??0EShowConsole@@QAE@ABV0@@Z
        430  1AD 001A5070 ??0EShowConsole@@QAE@XZ
        431  1AE 00001BE0 ??0ESkaAmmoItem@@QAE@ABV0@@Z
        432  1AF 001995B0 ??0ESkaAmmoItem@@QAE@XZ
        433  1B0 00001AA0 ??0ESkaArmor@@QAE@ABV0@@Z
        434  1B1 0019A1F0 ??0ESkaArmor@@QAE@XZ
        435  1B2 00001970 ??0ESkaHealth@@QAE@ABV0@@Z
        436  1B3 0019AF50 ??0ESkaHealth@@QAE@XZ
        437  1B4 00007BD0 ??0ESkaMovingModelDestruction@@QAE@ABV0@@Z
        438  1B5 00005D20 ??0ESkaMovingModelDestruction@@QAE@XZ
        439  1B6 00001D20 ??0ESkaSpecialItem@@QAE@ABV0@@Z
        440  1B7 0019D480 ??0ESkaSpecialItem@@QAE@XZ
        441  1B8 000083B0 ??0ESound@@QAE@ABV0@@Z
        442  1B9 00006170 ??0ESound@@QAE@XZ
        443  1BA 00009BD0 ??0ESpawnDebris@@QAE@ABV0@@Z
        444  1BB 001838A0 ??0ESpawnDebris@@QAE@XZ
        445  1BC 0001C7A0 ??0ESpawnDebrisSka@@QAE@ABV0@@Z
        446  1BD 00185700 ??0ESpawnDebrisSka@@QAE@XZ
        447  1BE 000029C0 ??0ESpawnEffect@@QAE@ABV0@@Z
        448  1BF 0017E100 ??0ESpawnEffect@@QAE@XZ
        449  1C0 00186AB0 ??0ESpawnEffector@@QAE@ABV0@@Z
        450  1C1 001887A0 ??0ESpawnEffector@@QAE@XZ
        451  1C2 00009340 ??0ESpawnFXEmiter@@QAE@ABV0@@Z
        452  1C3 00189C00 ??0ESpawnFXEmiter@@QAE@XZ
        453  1C4 00003330 ??0ESpawnFlame@@QAE@ABV0@@Z
        454  1C5 0022FFC0 ??0ESpawnFlame@@QAE@XZ
        455  1C6 00001060 ??0ESpawnSpray@@QAE@ABV0@@Z
        456  1C7 00182700 ??0ESpawnSpray@@QAE@XZ
        457  1C8 002421D0 ??0ESpawnerProjectile@@QAE@ABV0@@Z
        458  1C9 00242530 ??0ESpawnerProjectile@@QAE@XZ
        459  1CA 000996A0 ??0ESpawning@@QAE@ABV0@@Z
        460  1CB 0009C740 ??0ESpawning@@QAE@XZ
        461  1CC 00006A50 ??0EStart@@QAE@ABV0@@Z
        462  1CD 000036B0 ??0EStart@@QAE@XZ
        463  1CE 00007840 ??0EStartAttack@@QAE@ABV0@@Z
        464  1CF 00003D30 ??0EStartAttack@@QAE@XZ
        465  1D0 000241F0 ??0EStartCounter@@QAE@ABV0@@Z
        466  1D1 000C3870 ??0EStartCounter@@QAE@XZ
        467  1D2 0009ECB0 ??0EStartDancers@@QAE@ABV0@@Z
        468  1D3 0009F010 ??0EStartDancers@@QAE@XZ
        469  1D4 0000BB00 ??0EStartPulling@@QAE@ABV0@@Z
        470  1D5 001A49B0 ??0EStartPulling@@QAE@XZ
        471  1D6 000AE140 ??0EStartSounds@@QAE@ABV0@@Z
        472  1D7 002446C0 ??0EStartSounds@@QAE@XZ
        473  1D8 0019F380 ??0EStealth@@QAE@ABV0@@Z
        474  1D9 0019F9B0 ??0EStealth@@QAE@XZ
        475  1DA 0000B9C0 ??0EStepBack@@QAE@ABV0@@Z
        476  1DB 001A4910 ??0EStepBack@@QAE@XZ
        477  1DC 00006980 ??0EStop@@QAE@ABV0@@Z
        478  1DD 00003670 ??0EStop@@QAE@XZ
        479  1DE 000078D0 ??0EStopAttack@@QAE@ABV0@@Z
        480  1DF 00003D70 ??0EStopAttack@@QAE@XZ
        481  1E0 00007960 ??0EStopBlindness@@QAE@ABV0@@Z
        482  1E1 00003DB0 ??0EStopBlindness@@QAE@XZ
        483  1E2 000242F0 ??0EStopCounter@@QAE@ABV0@@Z
        484  1E3 000C38D0 ??0EStopCounter@@QAE@XZ
        485  1E4 000995C0 ??0EStopDanceMode@@QAE@ABV0@@Z
        486  1E5 00099AF0 ??0EStopDanceMode@@QAE@XZ
        487  1E6 0009ED80 ??0EStopDancers@@QAE@ABV0@@Z
        488  1E7 0009F070 ??0EStopDancers@@QAE@XZ
        489  1E8 000079F0 ??0EStopDeafness@@QAE@ABV0@@Z
        490  1E9 00003DF0 ??0EStopDeafness@@QAE@XZ
        491  1EA 00002DF0 ??0EStopFlaming@@QAE@ABV0@@Z
        492  1EB 0022C4D0 ??0EStopFlaming@@QAE@XZ
        493  1EC 0012D620 ??0EStopLightning@@QAE@ABV0@@Z
        494  1ED 00120A40 ??0EStopLightning@@QAE@XZ
        495  1EE 0000BCF0 ??0EStopPulling@@QAE@ABV0@@Z
        496  1EF 001A4A90 ??0EStopPulling@@QAE@XZ
        497  1F0 000AE240 ??0EStopSounds@@QAE@ABV0@@Z
        498  1F1 00244720 ??0EStopSounds@@QAE@XZ
        499  1F2 0018EBD0 ??0EStormEnvironmentStart@@QAE@ABV0@@Z
        500  1F3 0018ED50 ??0EStormEnvironmentStart@@QAE@XZ
        501  1F4 0018EC20 ??0EStormStart@@QAE@ABV0@@Z
        502  1F5 0018EDB0 ??0EStormStart@@QAE@XZ
        503  1F6 0018EC70 ??0EStormStop@@QAE@ABV0@@Z
        504  1F7 0018EE10 ??0EStormStop@@QAE@XZ
        505  1F8 00220E40 ??0ETeleportActivate@@QAE@ABV0@@Z
        506  1F9 00221120 ??0ETeleportActivate@@QAE@XZ
        507  1FA 00220F10 ??0ETeleportDeactivate@@QAE@ABV0@@Z
        508  1FB 00221180 ??0ETeleportDeactivate@@QAE@XZ
        509  1FC 00007010 ??0ETeleportMovingBrush@@QAE@ABV0@@Z
        510  1FD 00003970 ??0ETeleportMovingBrush@@QAE@XZ
        511  1FE 000085D0 ??0ETextFX@@QAE@ABV0@@Z
        512  1FF 00004140 ??0ETextFX@@QAE@XZ
        513  200 00222DB0 ??0EToasterTrigger@@QAE@ABV0@@Z
        514  201 00222F20 ??0EToasterTrigger@@QAE@XZ
        515  202 00223E60 ??0ETorpedoDamage@@QAE@ABV0@@Z
        516  203 002240B0 ??0ETorpedoDamage@@QAE@XZ
        517  204 00223D90 ??0ETorpedoExplode@@QAE@ABV0@@Z
        518  205 00224050 ??0ETorpedoExplode@@QAE@XZ
        519  206 00006E30 ??0ETrigger@@QAE@ABV0@@Z
        520  207 00003870 ??0ETrigger@@QAE@XZ
        521  208 00006F40 ??0ETriggerActionMarker@@QAE@ABV0@@Z
        522  209 000038F0 ??0ETriggerActionMarker@@QAE@XZ
        523  20A 00186C50 ??0ETriggerEffector@@QAE@ABV0@@Z
        524  20B 00188330 ??0ETriggerEffector@@QAE@XZ
        525  20C 0018D810 ??0ETriggerLightning@@QAE@ABV0@@Z
        526  20D 0018D970 ??0ETriggerLightning@@QAE@XZ
        527  20E 001A3B40 ??0EViewInit@@QAE@ABV0@@Z
        528  20F 001CE350 ??0EViewInit@@QAE@XZ
        529  210 00009050 ??0EVoiceMessage@@QAE@ABV0@@Z
        530  211 000045B0 ??0EVoiceMessage@@QAE@XZ
        531  212 001134F0 ??0EWaitMode@@QAE@ABV0@@Z
        532  213 00116760 ??0EWaitMode@@QAE@XZ
        533  214 00072EF0 ??0EWaitOnRiceField@@QAE@ABV0@@Z
        534  215 000732C0 ??0EWaitOnRiceField@@QAE@XZ
        535  216 0000E8D0 ??0EWatch@@QAE@ABV0@@Z
        536  217 0005B6C0 ??0EWatch@@QAE@XZ
        537  218 0000E6F0 ??0EWatcherInit@@QAE@ABV0@@Z
        538  219 0005B5D0 ??0EWatcherInit@@QAE@XZ
        539  21A 00160520 ??0EWater@@QAE@ABV0@@Z
        540  21B 002434E0 ??0EWater@@QAE@XZ
        541  21C 0000D9E0 ??0EWeaponChanged@@QAE@ABV0@@Z
        542  21D 001A5490 ??0EWeaponChanged@@QAE@XZ
        543  21E 00022EB0 ??0EWeaponEffectInit@@QAE@ABV0@@Z
        544  21F 001E35A0 ??0EWeaponEffectInit@@QAE@XZ
        545  220 00023080 ??0EWeaponItem@@QAE@ABV0@@Z
        546  221 0019DF20 ??0EWeaponItem@@QAE@XZ
        547  222 0000D320 ??0EWeaponsInit@@QAE@ABV0@@Z
        548  223 001A5200 ??0EWeaponsInit@@QAE@XZ
        549  224 00031F30 ??0EWeatherStart@@QAE@ABV0@@Z
        550  225 001947B0 ??0EWeatherStart@@QAE@XZ
        551  226 00032030 ??0EWeatherStop@@QAE@ABV0@@Z
        552  227 001947F0 ??0EWeatherStop@@QAE@XZ
        553  228 0000AF80 ??0EWhip@@QAE@ABV0@@Z
        554  229 001A4550 ??0EWhip@@QAE@XZ
        555  22A 00258030 ??0EbflameOff@@QAE@ABV0@@Z
        556  22B 00258250 ??0EbflameOff@@QAE@XZ
        557  22C 00257E90 ??0EbflameOn@@QAE@ABV0@@Z
        558  22D 00258190 ??0EbflameOn@@QAE@XZ
        559  22E 00257F60 ??0Ebflame_ing@@QAE@ABV0@@Z
        560  22F 002581F0 ??0Ebflame_ing@@QAE@XZ
        561  230 000586C0 ??0PlayerStats@@QAE@XZ
        562  231 00010640 ??1CBullet@@UAE@XZ
        563  232 00260310 ??1CComboManger@@QAE@XZ
        564  233 0001B290 ??1CCompMessageID@@QAE@XZ
        565  234 00058AA0 ??1CEmiter@@QAE@XZ
        566  235 0001EBD0 ??1CEnemyBase@@UAE@XZ
        567  236 000840B0 ??1CEnemyDive@@UAE@XZ
        568  237 00087BD0 ??1CEnemyFly@@UAE@XZ
        569  238 000C9A00 ??1CEnemyHorse@@UAE@XZ
        570  239 00072BC0 ??1CEnemyRunInto@@UAE@XZ
        571  23A 0019F440 ??1CMaria@@UAE@XZ
        572  23B 00058E60 ??1CNavigationMarker@@UAE@XZ
        573  23C 000554E0 ??1CPathNode@@QAE@XZ
        574  23D 001C6420 ??1CPlayer@@UAE@XZ
        575  23E 001A3590 ??1CPlayerAnimator@@UAE@XZ
        576  23F 001A3D60 ??1CPlayerView@@UAE@XZ
        577  240 0002E800 ??1CPlayerWeapons@@UAE@XZ
        578  241 00023330 ??1CPlayerWeapons_L@@UAE@XZ
        579  242 0000A0A0 ??1CProjectile@@UAE@XZ
        580  243 0001C390 ??1CReminder@@UAE@XZ
        581  244 000097F0 ??1CSkaItem@@UAE@XZ
        582  245 0000EAE0 ??1CWatcher@@UAE@XZ
        583  246 00006B10 ??1EActivate@@UAE@XZ
        584  247 00181D00 ??1EActivateBlend@@UAE@XZ
        585  248 0000B7B0 ??1EActiveMariaDie@@UAE@XZ
        586  249 0000CFC0 ??1EAddBulletSpray@@UAE@XZ
        587  24A 0000D150 ??1EAddGoreSpray@@UAE@XZ
        588  24B 001133E0 ??1EAlert@@UAE@XZ
        589  24C 000231B0 ??1EAmmoPackItem@@UAE@XZ
        590  24D 0024A480 ??1EAnimForDamage@@UAE@XZ
        591  24E 001A3360 ??1EAnimatorInit@@UAE@XZ
        592  24F 0000C5B0 ??1EAutoAction@@UAE@XZ
        593  250 00007E80 ??1EAvoidProjectiles@@UAE@XZ
        594  251 00008B10 ??1EBFlame@@UAE@XZ
        595  252 00008A80 ??1EBGravity@@UAE@XZ
        596  253 0019F2A0 ??1EBackMaria@@UAE@XZ
        597  254 00007540 ??1EBackMariaNPC@@UAE@XZ
        598  255 00099200 ??1EBackward@@UAE@XZ
        599  256 000071C0 ??1EBasket@@UAE@XZ
        600  257 0000F9B0 ??1EBlowUp@@UAE@XZ
        601  258 00007A70 ??1EBonus@@UAE@XZ
        602  259 00195FD0 ??1EBoosterPack@@UAE@XZ
        603  25A 0000D5D0 ??1EBoringWeapon@@UAE@XZ
        604  25B 001135E0 ??1EBossWounded@@UAE@XZ
        605  25C 0000DCD0 ??1EBringUp@@UAE@XZ
        606  25D 00009E70 ??1EBruceDefenseFinished@@UAE@XZ
        607  25E 00065950 ??1EBruceDefenseProjectiles@@UAE@XZ
        608  25F 00065F30 ??1EBruceGo@@UAE@XZ
        609  260 00065E60 ??1EBruceReady@@UAE@XZ
        610  261 00065B20 ??1EBruceTeleport@@UAE@XZ
        611  262 000AE330 ??1EBrushDeath@@UAE@XZ
        612  263 000AE030 ??1EBrushDestroyed@@UAE@XZ
        613  264 00070470 ??1EBuffaloMoveThroughMarkers@@UAE@XZ
        614  265 00010450 ??1EBulletInit@@UAE@XZ
        615  266 0000BE90 ??1ECameraStart@@UAE@XZ
        616  267 0000C080 ??1ECameraStop@@UAE@XZ
        617  268 00008DD0 ??1ECenterMessage@@UAE@XZ
        618  269 00001330 ??1EChangeAnim@@UAE@XZ
        619  26A 0009EE40 ??1EChangeDance@@UAE@XZ
        620  26B 00200CE0 ??1EChangeGravity@@UAE@XZ
        621  26C 0000EEE0 ??1EChangeMusic@@UAE@XZ
        622  26D 00079810 ??1EChiangWaitMode@@UAE@XZ
        623  26E 00066000 ??1ECloseAttack@@UAE@XZ
        624  26F 0000B090 ??1ECombo@@UAE@XZ
        625  270 00008EF0 ??1EComputerMessage@@UAE@XZ
        626  271 001F82C0 ??1ECopierTrigger@@UAE@XZ
        627  272 0025B530 ??1ECoreDamage@@UAE@XZ
        628  273 0025B1E0 ??1ECoreFlame@@UAE@XZ
        629  274 0025B380 ??1ECoreGravity@@UAE@XZ
        630  275 0025B110 ??1ECoreGrind@@UAE@XZ
        631  276 0025B2B0 ??1ECorePress@@UAE@XZ
        632  277 0025B450 ??1ECoreSwitcher@@UAE@XZ
        633  278 000243E0 ??1ECounterCount@@UAE@XZ
        634  279 0000AB70 ??1ECrazyBegin@@UAE@XZ
        635  27A 0000AC70 ??1ECrazyEnd@@UAE@XZ
        636  27B 00008CC0 ??1ECredits@@UAE@XZ
        637  27C 00096660 ??1EDancerAcrobatRemoved@@UAE@XZ
        638  27D 00096760 ??1EDancerNormalCreated@@UAE@XZ
        639  27E 00006BA0 ??1EDeactivate@@UAE@XZ
        640  27F 00181D50 ??1EDeactivateBlend@@UAE@XZ
        641  280 00065C80 ??1EDefenseBullet@@UAE@XZ
        642  281 0009EBD0 ??1EDirectDancers@@UAE@XZ
        643  282 0000C490 ??1EDisconnected@@UAE@XZ
        644  283 0012D7B0 ??1EDownMode@@UAE@XZ
        645  284 0000AD70 ??1EDrugmodeBegin@@UAE@XZ
        646  285 0000AE70 ??1EDrugmodeEnd@@UAE@XZ
        647  286 00006D50 ??1EEnd@@UAE@XZ
        648  287 00010300 ??1EEndActor@@UAE@XZ
        649  288 0000F530 ??1EEnemyBaseDamage@@UAE@XZ
        650  289 0000F780 ??1EEnemyBaseDeath@@UAE@XZ
        651  28A 00008690 ??1EEntityVoice@@UAE@XZ
        652  28B 00006C30 ??1EEnvironmentStart@@UAE@XZ
        653  28C 00006CC0 ??1EEnvironmentStop@@UAE@XZ
        654  28D 00003180 ??1EExplode@@UAE@XZ
        655  28E 00007D40 ??1EExtraTeleport@@UAE@XZ
        656  28F 0019F1D0 ??1EFireBombs@@UAE@XZ
        657  290 000994D0 ??1EFireDagger@@UAE@XZ
        658  291 00096860 ??1EFireDaggerNow@@UAE@XZ
        659  292 0012D4B0 ??1EFireLightning@@UAE@XZ
        660  293 000AE540 ??1EFireRocket@@UAE@XZ
        661  294 0000D6D0 ??1EFireWeapon@@UAE@XZ
        662  295 00002BE0 ??1EFlame@@UAE@XZ
        663  296 001A40C0 ??1EFlipTheSwitch@@UAE@XZ
        664  297 0018D220 ??1EFloatingScore@@UAE@XZ
        665  298 0000F430 ??1EForceWound@@UAE@XZ
        666  299 00099110 ??1EForward@@UAE@XZ
        667  29A 001137F0 ??1EGetDamaged@@UAE@XZ
        668  29B 000AE930 ??1EGoToBellMarker@@UAE@XZ
        669  29C 0000E420 ??1EGrenadeExplodeNow@@UAE@XZ
        670  29D 000088D0 ??1EGrindClose@@UAE@XZ
        671  29E 000087A0 ??1EGrindInit@@UAE@XZ
        672  29F 000089F0 ??1EGrindOff@@UAE@XZ
        673  2A0 00008960 ??1EGrindOn@@UAE@XZ
        674  2A1 00008830 ??1EGrindOpen@@UAE@XZ
        675  2A2 001131D0 ??1EGuard@@UAE@XZ
        676  2A3 00113B50 ??1EGuardState@@UAE@XZ
        677  2A4 00248A80 ??1EHarbor@@UAE@XZ
        678  2A5 000ADF30 ??1EHit@@UAE@XZ
        679  2A6 00009220 ??1EHitBySpaceShipBeam@@UAE@XZ
        680  2A7 00007670 ??1EHooker3@@UAE@XZ
        681  2A8 00007710 ??1EHooker@@UAE@XZ
        682  2A9 00008BB0 ??1EHudPicFX@@UAE@XZ
        683  2AA 0000FB40 ??1EInDrugModeItem@@UAE@XZ
        684  2AB 0000FF20 ??1EInRange@@UAE@XZ
        685  2AC 0019EFA0 ??1EInitMaria@@UAE@XZ
        686  2AD 0005B270 ??1EInitMariaNPC@@UAE@XZ
        687  2AE 001A4200 ??1EItemHealthyFamily@@UAE@XZ
        688  2AF 000798E0 ??1EJump@@UAE@XZ
        689  2B0 00073080 ??1EJumpIntoRiceField@@UAE@XZ
        690  2B1 00072FB0 ??1EJumpOutFromRiceField@@UAE@XZ
        691  2B2 00196980 ??1EKey@@UAE@XZ
        692  2B3 000080F0 ??1EKilledEnemy@@UAE@XZ
        693  2B4 0010A9D0 ??1ELamonBikeFireRocket@@UAE@XZ
        694  2B5 0010AC70 ??1ELamonBikeMoveThroughMarkers@@UAE@XZ
        695  2B6 0010AAA0 ??1ELamonBikeOnMarker@@UAE@XZ
        696  2B7 0010AB90 ??1ELamonBikeSuicide@@UAE@XZ
        697  2B8 00007130 ??1ELamonGenerate@@UAE@XZ
        698  2B9 0000B8B0 ??1ELandingActiveMaria@@UAE@XZ
        699  2BA 0000B2B0 ??1ELandingMaria@@UAE@XZ
        700  2BB 0019F100 ??1ELaunch@@UAE@XZ
        701  2BC 0000B580 ??1ELaunchActiveMaria@@UAE@XZ
        702  2BD 000082C0 ??1ELaunchAx@@UAE@XZ
        703  2BE 0000B1B0 ??1ELaunchMaria@@UAE@XZ
        704  2BF 000073F0 ??1ELaunchMariaNPC@@UAE@XZ
        705  2C0 00002F50 ??1ELaunchProjectile@@UAE@XZ
        706  2C1 00098F30 ??1ELeft@@UAE@XZ
        707  2C2 000072D0 ??1ELisa@@UAE@XZ
        708  2C3 00001620 ??1EMarkPicked@@UAE@XZ
        709  2C4 0024E6A0 ??1EMarkerPassed@@UAE@XZ
        710  2C5 00197C00 ??1EMessageItem@@UAE@XZ
        711  2C6 00001210 ??1EModel2Activate@@UAE@XZ
        712  2C7 00001290 ??1EModel2Deactivate@@UAE@XZ
        713  2C8 00002440 ??1EModel3Activate@@UAE@XZ
        714  2C9 00002540 ??1EModel3Deactivate@@UAE@XZ
        715  2CA 00001EA0 ??1EModelChange@@UAE@XZ
        716  2CB 00002860 ??1EModelDeath@@UAE@XZ
        717  2CC 00002200 ??1EModelDeathSpawnAmmoItem@@UAE@XZ
        718  2CD 000020E0 ??1EModelDeathSpawnArmorItem@@UAE@XZ
        719  2CE 00001FC0 ??1EModelDeathSpawnHealthItem@@UAE@XZ
        720  2CF 00002320 ??1EModelDeathSpawnSpecialItem@@UAE@XZ
        721  2D0 00007C80 ??1EModelSelfDestruction@@UAE@XZ
        722  2D1 000AEC20 ??1EMoveToDestMarker@@UAE@XZ
        723  2D2 00210F80 ??1EMusicChangerTrigger@@UAE@XZ
        724  2D3 0000F0F0 ??1ENetChangeMusic@@UAE@XZ
        725  2D4 0000E0F0 ??1ENetFireWeapon@@UAE@XZ
        726  2D5 0000E1F0 ??1ENetReleaseWeapon@@UAE@XZ
        727  2D6 0000E320 ??1ENetReloadWeapon@@UAE@XZ
        728  2D7 0000DFD0 ??1ENetSelectWeapon@@UAE@XZ
        729  2D8 00010A50 ??1ENetSpawnEntity@@UAE@XZ
        730  2D9 00186CD0 ??1ENetTrigger@@UAE@XZ
        731  2DA 00009110 ??1EObjectiveCompletedMessage@@UAE@XZ
        732  2DB 000AE730 ??1EOnMarker@@UAE@XZ
        733  2DC 00007FC0 ??1EOnPeerDead@@UAE@XZ
        734  2DD 0000FD30 ??1EOutDrugModeItem@@UAE@XZ
        735  2DE 00010110 ??1EOutRange@@UAE@XZ
        736  2DF 00214900 ??1EParticlesActivate@@UAE@XZ
        737  2E0 00214950 ??1EParticlesDeactivate@@UAE@XZ
        738  2E1 0000EDC0 ??1EPlayEcstasy@@UAE@XZ
        739  2E2 00002660 ??1EPlaySoundOnce@@UAE@XZ
        740  2E3 0000CA90 ??1EPlayerDeath@@UAE@XZ
        741  2E4 0012D6E0 ??1EPlayerInCloseRange@@UAE@XZ
        742  2E5 0000C7F0 ??1EPlayerKilledEnemy@@UAE@XZ
        743  2E6 0000C370 ??1EPlayerRebirth@@UAE@XZ
        744  2E7 0000CE70 ??1EPlayerStats@@UAE@XZ
        745  2E8 001985A0 ??1EPowerUp@@UAE@XZ
        746  2E9 000AEB20 ??1EPriestStart@@UAE@XZ
        747  2EA 002422F0 ??1EProjectileSpawnClient@@UAE@XZ
        748  2EB 00007DF0 ??1EProtectorFire@@UAE@XZ
        749  2EC 00113A40 ??1EProtectorsCleared@@UAE@XZ
        750  2ED 0000DDD0 ??1EPutDown@@UAE@XZ
        751  2EE 0027E120 ??1ERHawkDeath@@UAE@XZ
        752  2EF 00002760 ??1ERangeModelDestruction@@UAE@XZ
        753  2F0 0000C270 ??1ERebirth@@UAE@XZ
        754  2F1 00007B10 ??1EReceiveScore@@UAE@XZ
        755  2F2 00001500 ??1EReceiveSkaItem@@UAE@XZ
        756  2F3 0000F330 ??1EReconsiderBehavior@@UAE@XZ
        757  2F4 0000D7D0 ??1EReleaseWeapon@@UAE@XZ
        758  2F5 0000DBD0 ??1EReloadChtGiveall@@UAE@XZ
        759  2F6 0000DAD0 ??1EReloadGetAmmo@@UAE@XZ
        760  2F7 0000D8D0 ??1EReloadWeapon@@UAE@XZ
        761  2F8 00007090 ??1EReminder@@UAE@XZ
        762  2F9 0000A970 ??1EReminderInit@@UAE@XZ
        763  2FA 0000F230 ??1ERestartAttack@@UAE@XZ
        764  2FB 00099020 ??1ERight@@UAE@XZ
        765  2FC 00073150 ??1ERightAttack@@UAE@XZ
        766  2FD 000799B0 ??1ERightFire@@UAE@XZ
        767  2FE 0000DED0 ??1ERigidityWeapon@@UAE@XZ
        768  2FF 000992F0 ??1ERotateLeft@@UAE@XZ
        769  300 000993E0 ??1ERotateRight@@UAE@XZ
        770  301 00008470 ??1EScroll@@UAE@XZ
        771  302 00008210 ??1ESecretFound@@UAE@XZ
        772  303 0000D4B0 ??1ESelectWeapon@@UAE@XZ
        773  304 0000B3F0 ??1ESetPlayerWeapon@@UAE@XZ
        774  305 00001800 ??1ESetType@@UAE@XZ
        775  306 00010940 ??1ESetViewer@@UAE@XZ
        776  307 0000CD70 ??1EShowConsole@@UAE@XZ
        777  308 00001BD0 ??1ESkaAmmoItem@@UAE@XZ
        778  309 00001A90 ??1ESkaArmor@@UAE@XZ
        779  30A 00001960 ??1ESkaHealth@@UAE@XZ
        780  30B 00007BC0 ??1ESkaMovingModelDestruction@@UAE@XZ
        781  30C 00001D10 ??1ESkaSpecialItem@@UAE@XZ
        782  30D 00008360 ??1ESound@@UAE@XZ
        783  30E 00009B80 ??1ESpawnDebris@@UAE@XZ
        784  30F 0001C730 ??1ESpawnDebrisSka@@UAE@XZ
        785  310 000029B0 ??1ESpawnEffect@@UAE@XZ
        786  311 00186A50 ??1ESpawnEffector@@UAE@XZ
        787  312 000092C0 ??1ESpawnFXEmiter@@UAE@XZ
        788  313 000032D0 ??1ESpawnFlame@@UAE@XZ
        789  314 00001010 ??1ESpawnSpray@@UAE@XZ
        790  315 00242170 ??1ESpawnerProjectile@@UAE@XZ
        791  316 00099690 ??1ESpawning@@UAE@XZ
        792  317 00006A00 ??1EStart@@UAE@XZ
        793  318 00007830 ??1EStartAttack@@UAE@XZ
        794  319 000241E0 ??1EStartCounter@@UAE@XZ
        795  31A 0009ECA0 ??1EStartDancers@@UAE@XZ
        796  31B 0000BAB0 ??1EStartPulling@@UAE@XZ
        797  31C 000AE130 ??1EStartSounds@@UAE@XZ
        798  31D 0019F370 ??1EStealth@@UAE@XZ
        799  31E 0000B9B0 ??1EStepBack@@UAE@XZ
        800  31F 00006970 ??1EStop@@UAE@XZ
        801  320 000078C0 ??1EStopAttack@@UAE@XZ
        802  321 00007950 ??1EStopBlindness@@UAE@XZ
        803  322 000242E0 ??1EStopCounter@@UAE@XZ
        804  323 000995B0 ??1EStopDanceMode@@UAE@XZ
        805  324 0009ED70 ??1EStopDancers@@UAE@XZ
        806  325 000079E0 ??1EStopDeafness@@UAE@XZ
        807  326 00002DE0 ??1EStopFlaming@@UAE@XZ
        808  327 0012D610 ??1EStopLightning@@UAE@XZ
        809  328 0000BCA0 ??1EStopPulling@@UAE@XZ
        810  329 000AE230 ??1EStopSounds@@UAE@XZ
        811  32A 0018EBC0 ??1EStormEnvironmentStart@@UAE@XZ
        812  32B 0018EC10 ??1EStormStart@@UAE@XZ
        813  32C 0018EC60 ??1EStormStop@@UAE@XZ
        814  32D 00220E30 ??1ETeleportActivate@@UAE@XZ
        815  32E 00220F00 ??1ETeleportDeactivate@@UAE@XZ
        816  32F 00007000 ??1ETeleportMovingBrush@@UAE@XZ
        817  330 00008580 ??1ETextFX@@UAE@XZ
        818  331 00222DA0 ??1EToasterTrigger@@UAE@XZ
        819  332 00223E50 ??1ETorpedoDamage@@UAE@XZ
        820  333 00223D80 ??1ETorpedoExplode@@UAE@XZ
        821  334 00006DE0 ??1ETrigger@@UAE@XZ
        822  335 00006EF0 ??1ETriggerActionMarker@@UAE@XZ
        823  336 00186C40 ??1ETriggerEffector@@UAE@XZ
        824  337 0018D800 ??1ETriggerLightning@@UAE@XZ
        825  338 001A3AE0 ??1EViewInit@@UAE@XZ
        826  339 00009000 ??1EVoiceMessage@@UAE@XZ
        827  33A 001134E0 ??1EWaitMode@@UAE@XZ
        828  33B 00072EE0 ??1EWaitOnRiceField@@UAE@XZ
        829  33C 0000E880 ??1EWatch@@UAE@XZ
        830  33D 0000E6A0 ??1EWatcherInit@@UAE@XZ
        831  33E 001604D0 ??1EWater@@UAE@XZ
        832  33F 0000D9D0 ??1EWeaponChanged@@UAE@XZ
        833  340 00022E60 ??1EWeaponEffectInit@@UAE@XZ
        834  341 00023070 ??1EWeaponItem@@UAE@XZ
        835  342 0000D2D0 ??1EWeaponsInit@@UAE@XZ
        836  343 00031F20 ??1EWeatherStart@@UAE@XZ
        837  344 00032020 ??1EWeatherStop@@UAE@XZ
        838  345 0000AF70 ??1EWhip@@UAE@XZ
        839  346 00258020 ??1EbflameOff@@UAE@XZ
        840  347 00257E80 ??1EbflameOn@@UAE@XZ
        841  348 00257F50 ??1Ebflame_ing@@UAE@XZ
        842  349 000107C0 ??4CBullet@@QAEAAV0@AAV0@@Z
        843  34A 0002E500 ??4CComboManger@@QAEAAV0@ABV0@@Z
        844  34B 0001B2A0 ??4CCompMessageID@@QAEAAV0@ABV0@@Z
        845  34C 00058B00 ??4CEmiter@@QAEAAV0@ABV0@@Z
        846  34D 00058700 ??4CEmittedParticle@@QAEAAV0@ABV0@@Z
        847  34E 0001F8E0 ??4CEnemyBase@@QAEAAV0@AAV0@@Z
        848  34F 00084210 ??4CEnemyDive@@QAEAAV0@AAV0@@Z
        849  350 00087E40 ??4CEnemyFly@@QAEAAV0@AAV0@@Z
        850  351 000C9C10 ??4CEnemyHorse@@QAEAAV0@AAV0@@Z
        851  352 00072D50 ??4CEnemyRunInto@@QAEAAV0@AAV0@@Z
        852  353 0019F5D0 ??4CMaria@@QAEAAV0@AAV0@@Z
        853  354 000561D0 ??4CNavigationMarker@@QAEAAV0@AAV0@@Z
        854  355 00055400 ??4CPathNode@@QAEAAV0@ABV0@@Z
        855  356 00021290 ??4CPlayer@@QAEAAV0@AAV0@@Z
        856  357 001A3830 ??4CPlayerAnimator@@QAEAAV0@AAV0@@Z
        857  358 001A3F10 ??4CPlayerView@@QAEAAV0@AAV0@@Z
        858  359 0002F190 ??4CPlayerWeapons@@QAEAAV0@AAV0@@Z
        859  35A 00023B00 ??4CPlayerWeapons_L@@QAEAAV0@AAV0@@Z
        860  35B 0000A520 ??4CProjectile@@QAEAAV0@AAV0@@Z
        861  35C 0001C480 ??4CReminder@@QAEAAV0@AAV0@@Z
        862  35D 000099E0 ??4CSkaItem@@QAEAAV0@AAV0@@Z
        863  35E 0000EC50 ??4CWatcher@@QAEAAV0@AAV0@@Z
        864  35F 00056580 ??4EActivate@@QAEAAV0@ABV0@@Z
        865  360 00181D30 ??4EActivateBlend@@QAEAAV0@ABV0@@Z
        866  361 0000B7E0 ??4EActiveMariaDie@@QAEAAV0@ABV0@@Z
        867  362 0000D020 ??4EAddBulletSpray@@QAEAAV0@ABV0@@Z
        868  363 0000D1C0 ??4EAddGoreSpray@@QAEAAV0@ABV0@@Z
        869  364 00113410 ??4EAlert@@QAEAAV0@ABV0@@Z
        870  365 00023210 ??4EAmmoPackItem@@QAEAAV0@ABV0@@Z
        871  366 0024A4B0 ??4EAnimForDamage@@QAEAAV0@ABV0@@Z
        872  367 001A3410 ??4EAnimatorInit@@QAEAAV0@AAV0@@Z
        873  368 0000C660 ??4EAutoAction@@QAEAAV0@AAV0@@Z
        874  369 000575B0 ??4EAvoidProjectiles@@QAEAAV0@ABV0@@Z
        875  36A 000580A0 ??4EBFlame@@QAEAAV0@ABV0@@Z
        876  36B 00058030 ??4EBGravity@@QAEAAV0@ABV0@@Z
        877  36C 0019F2D0 ??4EBackMaria@@QAEAAV0@ABV0@@Z
        878  36D 00056D90 ??4EBackMariaNPC@@QAEAAV0@ABV0@@Z
        879  36E 00099240 ??4EBackward@@QAEAAV0@ABV0@@Z
        880  36F 00056AD0 ??4EBasket@@QAEAAV0@ABV0@@Z
        881  370 0000FA10 ??4EBlowUp@@QAEAAV0@ABV0@@Z
        882  371 000571D0 ??4EBonus@@QAEAAV0@ABV0@@Z
        883  372 00196010 ??4EBoosterPack@@QAEAAV0@ABV0@@Z
        884  373 0000D600 ??4EBoringWeapon@@QAEAAV0@ABV0@@Z
        885  374 001136B0 ??4EBossWounded@@QAEAAV0@ABV0@@Z
        886  375 0000DD00 ??4EBringUp@@QAEAAV0@ABV0@@Z
        887  376 00009F20 ??4EBruceDefenseFinished@@QAEAAV0@ABV0@@Z
        888  377 00065A30 ??4EBruceDefenseProjectiles@@QAEAAV0@ABV0@@Z
        889  378 00065F60 ??4EBruceGo@@QAEAAV0@ABV0@@Z
        890  379 00065E90 ??4EBruceReady@@QAEAAV0@ABV0@@Z
        891  37A 00065BD0 ??4EBruceTeleport@@QAEAAV0@ABV0@@Z
        892  37B 000AE3E0 ??4EBrushDeath@@QAEAAV0@AAV0@@Z
        893  37C 000AE060 ??4EBrushDestroyed@@QAEAAV0@ABV0@@Z
        894  37D 000704B0 ??4EBuffaloMoveThroughMarkers@@QAEAAV0@ABV0@@Z
        895  37E 00010500 ??4EBulletInit@@QAEAAV0@AAV0@@Z
        896  37F 0000BF40 ??4ECameraStart@@QAEAAV0@ABV0@@Z
        897  380 0000C130 ??4ECameraStop@@QAEAAV0@ABV0@@Z
        898  381 00058300 ??4ECenterMessage@@QAEAAV0@ABV0@@Z
        899  382 00001420 ??4EChangeAnim@@QAEAAV0@ABV0@@Z
        900  383 0009EE70 ??4EChangeDance@@QAEAAV0@ABV0@@Z
        901  384 00200D90 ??4EChangeGravity@@QAEAAV0@ABV0@@Z
        902  385 0000EFA0 ??4EChangeMusic@@QAEAAV0@ABV0@@Z
        903  386 00079840 ??4EChiangWaitMode@@QAEAAV0@ABV0@@Z
        904  387 00066030 ??4ECloseAttack@@QAEAAV0@ABV0@@Z
        905  388 0000B0D0 ??4ECombo@@QAEAAV0@ABV0@@Z
        906  389 000583E0 ??4EComputerMessage@@QAEAAV0@ABV0@@Z
        907  38A 001F8300 ??4ECopierTrigger@@QAEAAV0@ABV0@@Z
        908  38B 0025B570 ??4ECoreDamage@@QAEAAV0@ABV0@@Z
        909  38C 0025B210 ??4ECoreFlame@@QAEAAV0@ABV0@@Z
        910  38D 0025B3B0 ??4ECoreGravity@@QAEAAV0@ABV0@@Z
        911  38E 0025B140 ??4ECoreGrind@@QAEAAV0@ABV0@@Z
        912  38F 0025B2E0 ??4ECorePress@@QAEAAV0@ABV0@@Z
        913  390 0025B480 ??4ECoreSwitcher@@QAEAAV0@ABV0@@Z
        914  391 00024410 ??4ECounterCount@@QAEAAV0@ABV0@@Z
        915  392 0000ABA0 ??4ECrazyBegin@@QAEAAV0@ABV0@@Z
        916  393 0000ACA0 ??4ECrazyEnd@@QAEAAV0@ABV0@@Z
        917  394 00058210 ??4ECredits@@QAEAAV0@ABV0@@Z
        918  395 00096690 ??4EDancerAcrobatRemoved@@QAEAAV0@ABV0@@Z
        919  396 00096790 ??4EDancerNormalCreated@@QAEAAV0@ABV0@@Z
        920  397 000565F0 ??4EDeactivate@@QAEAAV0@ABV0@@Z
        921  398 00181D80 ??4EDeactivateBlend@@QAEAAV0@ABV0@@Z
        922  399 00065D70 ??4EDefenseBullet@@QAEAAV0@ABV0@@Z
        923  39A 0009EC00 ??4EDirectDancers@@QAEAAV0@ABV0@@Z
        924  39B 0000C4C0 ??4EDisconnected@@QAEAAV0@ABV0@@Z
        925  39C 0012D7E0 ??4EDownMode@@QAEAAV0@ABV0@@Z
        926  39D 0000ADA0 ??4EDrugmodeBegin@@QAEAAV0@ABV0@@Z
        927  39E 0000AEA0 ??4EDrugmodeEnd@@QAEAAV0@ABV0@@Z
        928  39F 00056740 ??4EEnd@@QAEAAV0@ABV0@@Z
        929  3A0 00010330 ??4EEndActor@@QAEAAV0@ABV0@@Z
        930  3A1 0000F620 ??4EEnemyBaseDamage@@QAEAAV0@AAV0@@Z
        931  3A2 0000F850 ??4EEnemyBaseDeath@@QAEAAV0@AAV0@@Z
        932  3A3 00057D00 ??4EEntityVoice@@QAEAAV0@ABV0@@Z
        933  3A4 00056660 ??4EEnvironmentStart@@QAEAAV0@ABV0@@Z
        934  3A5 000566D0 ??4EEnvironmentStop@@QAEAAV0@ABV0@@Z
        935  3A6 000031D0 ??4EExplode@@QAEAAV0@ABV0@@Z
        936  3A7 000574A0 ??4EExtraTeleport@@QAEAAV0@ABV0@@Z
        937  3A8 0019F200 ??4EFireBombs@@QAEAAV0@ABV0@@Z
        938  3A9 00099510 ??4EFireDagger@@QAEAAV0@ABV0@@Z
        939  3AA 00096890 ??4EFireDaggerNow@@QAEAAV0@ABV0@@Z
        940  3AB 0012D560 ??4EFireLightning@@QAEAAV0@AAV0@@Z
        941  3AC 000AE5F0 ??4EFireRocket@@QAEAAV0@ABV0@@Z
        942  3AD 0000D700 ??4EFireWeapon@@QAEAAV0@ABV0@@Z
        943  3AE 00002CB0 ??4EFlame@@QAEAAV0@AAV0@@Z
        944  3AF 001A4100 ??4EFlipTheSwitch@@QAEAAV0@ABV0@@Z
        945  3B0 0018D260 ??4EFloatingScore@@QAEAAV0@ABV0@@Z
        946  3B1 0000F460 ??4EForceWound@@QAEAAV0@ABV0@@Z
        947  3B2 00099150 ??4EForward@@QAEAAV0@ABV0@@Z
        948  3B3 001138E0 ??4EGetDamaged@@QAEAAV0@ABV0@@Z
        949  3B4 000AE9E0 ??4EGoToBellMarker@@QAEAAV0@ABV0@@Z
        950  3B5 0000E450 ??4EGrenadeExplodeNow@@QAEAAV0@ABV0@@Z
        951  3B6 00057EE0 ??4EGrindClose@@QAEAAV0@ABV0@@Z
        952  3B7 00057DF0 ??4EGrindInit@@QAEAAV0@ABV0@@Z
        953  3B8 00057FC0 ??4EGrindOff@@QAEAAV0@ABV0@@Z
        954  3B9 00057F50 ??4EGrindOn@@QAEAAV0@ABV0@@Z
        955  3BA 00057E60 ??4EGrindOpen@@QAEAAV0@ABV0@@Z
        956  3BB 001132A0 ??4EGuard@@QAEAAV0@ABV0@@Z
        957  3BC 00113B90 ??4EGuardState@@QAEAAV0@ABV0@@Z
        958  3BD 00248AB0 ??4EHarbor@@QAEAAV0@ABV0@@Z
        959  3BE 000ADF60 ??4EHit@@QAEAAV0@ABV0@@Z
        960  3BF 00058650 ??4EHitBySpaceShipBeam@@QAEAAV0@ABV0@@Z
        961  3C0 00056E90 ??4EHooker3@@QAEAAV0@ABV0@@Z
        962  3C1 00056F10 ??4EHooker@@QAEAAV0@ABV0@@Z
        963  3C2 00058120 ??4EHudPicFX@@QAEAAV0@ABV0@@Z
        964  3C3 0000FBF0 ??4EInDrugModeItem@@QAEAAV0@ABV0@@Z
        965  3C4 0000FFD0 ??4EInRange@@QAEAAV0@ABV0@@Z
        966  3C5 0019F050 ??4EInitMaria@@QAEAAV0@ABV0@@Z
        967  3C6 0005B320 ??4EInitMariaNPC@@QAEAAV0@ABV0@@Z
        968  3C7 001A4230 ??4EItemHealthyFamily@@QAEAAV0@ABV0@@Z
        969  3C8 00079910 ??4EJump@@QAEAAV0@ABV0@@Z
        970  3C9 000730B0 ??4EJumpIntoRiceField@@QAEAAV0@ABV0@@Z
        971  3CA 00072FE0 ??4EJumpOutFromRiceField@@QAEAAV0@ABV0@@Z
        972  3CB 001969C0 ??4EKey@@QAEAAV0@ABV0@@Z
        973  3CC 00057790 ??4EKilledEnemy@@QAEAAV0@ABV0@@Z
        974  3CD 0010AA00 ??4ELamonBikeFireRocket@@QAEAAV0@ABV0@@Z
        975  3CE 0010ACB0 ??4ELamonBikeMoveThroughMarkers@@QAEAAV0@ABV0@@Z
        976  3CF 0010AAE0 ??4ELamonBikeOnMarker@@QAEAAV0@ABV0@@Z
        977  3D0 0010ABD0 ??4ELamonBikeSuicide@@QAEAAV0@ABV0@@Z
        978  3D1 00056A60 ??4ELamonGenerate@@QAEAAV0@ABV0@@Z
        979  3D2 0000B8E0 ??4ELandingActiveMaria@@QAEAAV0@ABV0@@Z
        980  3D3 0000B300 ??4ELandingMaria@@QAEAAV0@ABV0@@Z
        981  3D4 0019F130 ??4ELaunch@@QAEAAV0@ABV0@@Z
        982  3D5 0000B650 ??4ELaunchActiveMaria@@QAEAAV0@ABV0@@Z
        983  3D6 000579A0 ??4ELaunchAx@@QAEAAV0@ABV0@@Z
        984  3D7 0000B1E0 ??4ELaunchMaria@@QAEAAV0@ABV0@@Z
        985  3D8 00056CB0 ??4ELaunchMariaNPC@@QAEAAV0@ABV0@@Z
        986  3D9 00003030 ??4ELaunchProjectile@@QAEAAV0@AAV0@@Z
        987  3DA 00098F70 ??4ELeft@@QAEAAV0@ABV0@@Z
        988  3DB 00056BB0 ??4ELisa@@QAEAAV0@ABV0@@Z
        989  3DC 000016D0 ??4EMarkPicked@@QAEAAV0@AAV0@@Z
        990  3DD 0024E750 ??4EMarkerPassed@@QAEAAV0@ABV0@@Z
        991  3DE 00197CB0 ??4EMessageItem@@QAEAAV0@ABV0@@Z
        992  3DF 00001240 ??4EModel2Activate@@QAEAAV0@ABV0@@Z
        993  3E0 000012C0 ??4EModel2Deactivate@@QAEAAV0@ABV0@@Z
        994  3E1 00002470 ??4EModel3Activate@@QAEAAV0@ABV0@@Z
        995  3E2 00002570 ??4EModel3Deactivate@@QAEAAV0@ABV0@@Z
        996  3E3 00001EE0 ??4EModelChange@@QAEAAV0@ABV0@@Z
        997  3E4 00002890 ??4EModelDeath@@QAEAAV0@ABV0@@Z
        998  3E5 00002240 ??4EModelDeathSpawnAmmoItem@@QAEAAV0@ABV0@@Z
        999  3E6 00002120 ??4EModelDeathSpawnArmorItem@@QAEAAV0@ABV0@@Z
       1000  3E7 00002000 ??4EModelDeathSpawnHealthItem@@QAEAAV0@ABV0@@Z
       1001  3E8 00002360 ??4EModelDeathSpawnSpecialItem@@QAEAAV0@ABV0@@Z
       1002  3E9 000573D0 ??4EModelSelfDestruction@@QAEAAV0@ABV0@@Z
       1003  3EA 000AEC50 ??4EMoveToDestMarker@@QAEAAV0@ABV0@@Z
       1004  3EB 00210FB0 ??4EMusicChangerTrigger@@QAEAAV0@ABV0@@Z
       1005  3EC 0000F130 ??4ENetChangeMusic@@QAEAAV0@ABV0@@Z
       1006  3ED 0000E120 ??4ENetFireWeapon@@QAEAAV0@ABV0@@Z
       1007  3EE 0000E220 ??4ENetReleaseWeapon@@QAEAAV0@ABV0@@Z
       1008  3EF 0000E350 ??4ENetReloadWeapon@@QAEAAV0@ABV0@@Z
       1009  3F0 0000E010 ??4ENetSelectWeapon@@QAEAAV0@ABV0@@Z
       1010  3F1 00010AC0 ??4ENetSpawnEntity@@QAEAAV0@ABV0@@Z
       1011  3F2 00186D00 ??4ENetTrigger@@QAEAAV0@ABV0@@Z
       1012  3F3 00058580 ??4EObjectiveCompletedMessage@@QAEAAV0@ABV0@@Z
       1013  3F4 000AE7E0 ??4EOnMarker@@QAEAAV0@ABV0@@Z
       1014  3F5 000576B0 ??4EOnPeerDead@@QAEAAV0@ABV0@@Z
       1015  3F6 0000FDE0 ??4EOutDrugModeItem@@QAEAAV0@ABV0@@Z
       1016  3F7 000101C0 ??4EOutRange@@QAEAAV0@ABV0@@Z
       1017  3F8 00214930 ??4EParticlesActivate@@QAEAAV0@ABV0@@Z
       1018  3F9 00214980 ??4EParticlesDeactivate@@QAEAAV0@ABV0@@Z
       1019  3FA 0000EE00 ??4EPlayEcstasy@@QAEAAV0@ABV0@@Z
       1020  3FB 00002690 ??4EPlaySoundOnce@@QAEAAV0@ABV0@@Z
       1021  3FC 0000CBD0 ??4EPlayerDeath@@QAEAAV0@AAV0@@Z
       1022  3FD 0012D710 ??4EPlayerInCloseRange@@QAEAAV0@ABV0@@Z
       1023  3FE 0000C940 ??4EPlayerKilledEnemy@@QAEAAV0@AAV0@@Z
       1024  3FF 0000C3B0 ??4EPlayerRebirth@@QAEAAV0@ABV0@@Z
       1025  400 0000CEC0 ??4EPlayerStats@@QAEAAV0@ABV0@@Z
       1026  401 001985E0 ??4EPowerUp@@QAEAAV0@ABV0@@Z
       1027  402 000AEB50 ??4EPriestStart@@QAEAAV0@ABV0@@Z
       1028  403 00242360 ??4EProjectileSpawnClient@@QAEAAV0@ABV0@@Z
       1029  404 00057540 ??4EProtectorFire@@QAEAAV0@ABV0@@Z
       1030  405 00113A70 ??4EProtectorsCleared@@QAEAAV0@ABV0@@Z
       1031  406 0000DE00 ??4EPutDown@@QAEAAV0@ABV0@@Z
       1032  407 0027E150 ??4ERHawkDeath@@QAEAAV0@ABV0@@Z
       1033  408 00002790 ??4ERangeModelDestruction@@QAEAAV0@ABV0@@Z
       1034  409 0000C2A0 ??4ERebirth@@QAEAAV0@ABV0@@Z
       1035  40A 00057260 ??4EReceiveScore@@QAEAAV0@ABV0@@Z
       1036  40B 00001530 ??4EReceiveSkaItem@@QAEAAV0@ABV0@@Z
       1037  40C 0000F360 ??4EReconsiderBehavior@@QAEAAV0@ABV0@@Z
       1038  40D 0000D800 ??4EReleaseWeapon@@QAEAAV0@ABV0@@Z
       1039  40E 0000DC00 ??4EReloadChtGiveall@@QAEAAV0@ABV0@@Z
       1040  40F 0000DB00 ??4EReloadGetAmmo@@QAEAAV0@ABV0@@Z
       1041  410 0000D900 ??4EReloadWeapon@@QAEAAV0@ABV0@@Z
       1042  411 000569E0 ??4EReminder@@QAEAAV0@ABV0@@Z
       1043  412 0000AA30 ??4EReminderInit@@QAEAAV0@AAV0@@Z
       1044  413 0000F260 ??4ERestartAttack@@QAEAAV0@ABV0@@Z
       1045  414 00099060 ??4ERight@@QAEAAV0@ABV0@@Z
       1046  415 00073180 ??4ERightAttack@@QAEAAV0@ABV0@@Z
       1047  416 000799E0 ??4ERightFire@@QAEAAV0@ABV0@@Z
       1048  417 0000DF00 ??4ERigidityWeapon@@QAEAAV0@ABV0@@Z
       1049  418 00099330 ??4ERotateLeft@@QAEAAV0@ABV0@@Z
       1050  419 00099420 ??4ERotateRight@@QAEAAV0@ABV0@@Z
       1051  41A 00057B20 ??4EScroll@@QAEAAV0@ABV0@@Z
       1052  41B 00057890 ??4ESecretFound@@QAEAAV0@ABV0@@Z
       1053  41C 0000D4F0 ??4ESelectWeapon@@QAEAAV0@ABV0@@Z
       1054  41D 0000B450 ??4ESetPlayerWeapon@@QAEAAV0@ABV0@@Z
       1055  41E 00001840 ??4ESetType@@QAEAAV0@ABV0@@Z
       1056  41F 00010970 ??4ESetViewer@@QAEAAV0@ABV0@@Z
       1057  420 0000CDA0 ??4EShowConsole@@QAEAAV0@ABV0@@Z
       1058  421 00001C10 ??4ESkaAmmoItem@@QAEAAV0@ABV0@@Z
       1059  422 00001AD0 ??4ESkaArmor@@QAEAAV0@ABV0@@Z
       1060  423 000019A0 ??4ESkaHealth@@QAEAAV0@ABV0@@Z
       1061  424 00057300 ??4ESkaMovingModelDestruction@@QAEAAV0@ABV0@@Z
       1062  425 00001D50 ??4ESkaSpecialItem@@QAEAAV0@ABV0@@Z
       1063  426 00057A30 ??4ESound@@QAEAAV0@ABV0@@Z
       1064  427 00009CC0 ??4ESpawnDebris@@QAEAAV0@ABV0@@Z
       1065  428 0001C8A0 ??4ESpawnDebrisSka@@QAEAAV0@ABV0@@Z
       1066  429 00002A80 ??4ESpawnEffect@@QAEAAV0@ABV0@@Z
       1067  42A 00186B60 ??4ESpawnEffector@@QAEAAV0@AAV0@@Z
       1068  42B 00009400 ??4ESpawnFXEmiter@@QAEAAV0@ABV0@@Z
       1069  42C 000033C0 ??4ESpawnFlame@@QAEAAV0@AAV0@@Z
       1070  42D 00001120 ??4ESpawnSpray@@QAEAAV0@AAV0@@Z
       1071  42E 00242240 ??4ESpawnerProjectile@@QAEAAV0@AAV0@@Z
       1072  42F 000996E0 ??4ESpawning@@QAEAAV0@ABV0@@Z
       1073  430 000564A0 ??4EStart@@QAEAAV0@ABV0@@Z
       1074  431 00057010 ??4EStartAttack@@QAEAAV0@ABV0@@Z
       1075  432 00024210 ??4EStartCounter@@QAEAAV0@ABV0@@Z
       1076  433 0009ECD0 ??4EStartDancers@@QAEAAV0@ABV0@@Z
       1077  434 0000BB60 ??4EStartPulling@@QAEAAV0@ABV0@@Z
       1078  435 000AE160 ??4EStartSounds@@QAEAAV0@ABV0@@Z
       1079  436 0019F3A0 ??4EStealth@@QAEAAV0@ABV0@@Z
       1080  437 0000B9E0 ??4EStepBack@@QAEAAV0@ABV0@@Z
       1081  438 00056430 ??4EStop@@QAEAAV0@ABV0@@Z
       1082  439 00057080 ??4EStopAttack@@QAEAAV0@ABV0@@Z
       1083  43A 000570F0 ??4EStopBlindness@@QAEAAV0@ABV0@@Z
       1084  43B 00024310 ??4EStopCounter@@QAEAAV0@ABV0@@Z
       1085  43C 000995F0 ??4EStopDanceMode@@QAEAAV0@ABV0@@Z
       1086  43D 0009EDA0 ??4EStopDancers@@QAEAAV0@ABV0@@Z
       1087  43E 00057160 ??4EStopDeafness@@QAEAAV0@ABV0@@Z
       1088  43F 00002E20 ??4EStopFlaming@@QAEAAV0@ABV0@@Z
       1089  440 0012D640 ??4EStopLightning@@QAEAAV0@ABV0@@Z
       1090  441 0000BD50 ??4EStopPulling@@QAEAAV0@ABV0@@Z
       1091  442 000AE260 ??4EStopSounds@@QAEAAV0@ABV0@@Z
       1092  443 0018EBF0 ??4EStormEnvironmentStart@@QAEAAV0@ABV0@@Z
       1093  444 0018EC40 ??4EStormStart@@QAEAAV0@ABV0@@Z
       1094  445 0018EC90 ??4EStormStop@@QAEAAV0@ABV0@@Z
       1095  446 00220E60 ??4ETeleportActivate@@QAEAAV0@ABV0@@Z
       1096  447 00220F30 ??4ETeleportDeactivate@@QAEAAV0@ABV0@@Z
       1097  448 00056970 ??4ETeleportMovingBrush@@QAEAAV0@ABV0@@Z
       1098  449 00057C10 ??4ETextFX@@QAEAAV0@ABV0@@Z
       1099  44A 00222DE0 ??4EToasterTrigger@@QAEAAV0@ABV0@@Z
       1100  44B 00223E90 ??4ETorpedoDamage@@QAEAAV0@ABV0@@Z
       1101  44C 00223DB0 ??4ETorpedoExplode@@QAEAAV0@ABV0@@Z
       1102  44D 000567B0 ??4ETrigger@@QAEAAV0@ABV0@@Z
       1103  44E 00056890 ??4ETriggerActionMarker@@QAEAAV0@ABV0@@Z
       1104  44F 00186C70 ??4ETriggerEffector@@QAEAAV0@ABV0@@Z
       1105  450 0018D830 ??4ETriggerLightning@@QAEAAV0@ABV0@@Z
       1106  451 001A3BC0 ??4EViewInit@@QAEAAV0@AAV0@@Z
       1107  452 000584B0 ??4EVoiceMessage@@QAEAAV0@ABV0@@Z
       1108  453 00113510 ??4EWaitMode@@QAEAAV0@ABV0@@Z
       1109  454 00072F10 ??4EWaitOnRiceField@@QAEAAV0@ABV0@@Z
       1110  455 0000E930 ??4EWatch@@QAEAAV0@AAV0@@Z
       1111  456 0000E750 ??4EWatcherInit@@QAEAAV0@AAV0@@Z
       1112  457 00160580 ??4EWater@@QAEAAV0@ABV0@@Z
       1113  458 0000DA00 ??4EWeaponChanged@@QAEAAV0@ABV0@@Z
       1114  459 00022F10 ??4EWeaponEffectInit@@QAEAAV0@ABV0@@Z
       1115  45A 000230B0 ??4EWeaponItem@@QAEAAV0@ABV0@@Z
       1116  45B 0000D380 ??4EWeaponsInit@@QAEAAV0@AAV0@@Z
       1117  45C 00031F50 ??4EWeatherStart@@QAEAAV0@ABV0@@Z
       1118  45D 00032050 ??4EWeatherStop@@QAEAAV0@ABV0@@Z
       1119  45E 0000AFB0 ??4EWhip@@QAEAAV0@ABV0@@Z
       1120  45F 00258050 ??4EbflameOff@@QAEAAV0@ABV0@@Z
       1121  460 00257EB0 ??4EbflameOn@@QAEAAV0@ABV0@@Z
       1122  461 00257F80 ??4Ebflame_ing@@QAEAAV0@ABV0@@Z
       1123  462 000586E0 ??4PlayerStats@@QAEAAU0@ABU0@@Z
       1124  463 002F7178 ??_7CBullet@@6B@
       1125  464 002F84F8 ??_7CEnemyBase@@6B@
       1126  465 002FF760 ??_7CEnemyDive@@6B@
       1127  466 002FFC98 ??_7CEnemyFly@@6B@
       1128  467 003032A0 ??_7CEnemyHorse@@6B@
       1129  468 002FDDD8 ??_7CEnemyRunInto@@6B@
       1130  469 00315470 ??_7CMaria@@6B@
       1131  46A 002FB6C8 ??_7CNavigationMarker@@6B@
       1132  46B 002F8720 ??_7CPlayer@@6B@
       1133  46C 00315C88 ??_7CPlayerAnimator@@6B@
       1134  46D 00315DB8 ??_7CPlayerView@@6B@
       1135  46E 002F9A48 ??_7CPlayerWeapons@@6B@
       1136  46F 002F89E8 ??_7CPlayerWeapons_L@@6B@
       1137  470 002F6AF8 ??_7CProjectile@@6B@
       1138  471 002F7690 ??_7CReminder@@6B@
       1139  472 002F6988 ??_7CSkaItem@@6B@
       1140  473 002F6F68 ??_7CWatcher@@6B@
       1141  474 002F6664 ??_7EActivate@@6B@
       1142  475 0030FFC4 ??_7EActivateBlend@@6B@
       1143  476 002F6D10 ??_7EActiveMariaDie@@6B@
       1144  477 002F6E18 ??_7EAddBulletSpray@@6B@
       1145  478 002F6E28 ??_7EAddGoreSpray@@6B@
       1146  479 00307EF8 ??_7EAlert@@6B@
       1147  47A 002F89D4 ??_7EAmmoPackItem@@6B@
       1148  47B 00324F58 ??_7EAnimForDamage@@6B@
       1149  47C 00315C78 ??_7EAnimatorInit@@6B@
       1150  47D 002F6DB0 ??_7EAutoAction@@6B@
       1151  47E 002F6934 ??_7EAvoidProjectiles@@6B@
       1152  47F 002F6894 ??_7EBFlame@@6B@
       1153  480 002F6884 ??_7EBGravity@@6B@
       1154  481 00315450 ??_7EBackMaria@@6B@
       1155  482 002F6734 ??_7EBackMariaNPC@@6B@
       1156  483 003010E8 ??_7EBackward@@6B@
       1157  484 002F6704 ??_7EBasket@@6B@
       1158  485 002F7104 ??_7EBlowUp@@6B@
       1159  486 002F67A4 ??_7EBonus@@6B@
       1160  487 00312D24 ??_7EBoosterPack@@6B@
       1161  488 002F6E58 ??_7EBoringWeapon@@6B@
       1162  489 00307F18 ??_7EBossWounded@@6B@
       1163  48A 002F6EC8 ??_7EBringUp@@6B@
       1164  48B 002F6AE4 ??_7EBruceDefenseFinished@@6B@
       1165  48C 002FD198 ??_7EBruceDefenseProjectiles@@6B@
       1166  48D 002FD1D8 ??_7EBruceGo@@6B@
       1167  48E 002FD1C8 ??_7EBruceReady@@6B@
       1168  48F 002FD1A8 ??_7EBruceTeleport@@6B@
       1169  490 0030264C ??_7EBrushDeath@@6B@
       1170  491 0030261C ??_7EBrushDestroyed@@6B@
       1171  492 002FDCFC ??_7EBuffaloMoveThroughMarkers@@6B@
       1172  493 002F7164 ??_7EBulletInit@@6B@
       1173  494 002F6D60 ??_7ECameraStart@@6B@
       1174  495 002F6D70 ??_7ECameraStop@@6B@
       1175  496 002F6964 ??_7ECenterMessage@@6B@
       1176  497 002F63BC ??_7EChangeAnim@@6B@
       1177  498 00301428 ??_7EChangeDance@@6B@
       1178  499 0031D76C ??_7EChangeGravity@@6B@
       1179  49A 002F7094 ??_7EChangeMusic@@6B@
       1180  49B 002FED10 ??_7EChiangWaitMode@@6B@
       1181  49C 002FD1E8 ??_7ECloseAttack@@6B@
       1182  49D 002F6CC0 ??_7ECombo@@6B@
       1183  49E 002F68C4 ??_7EComputerMessage@@6B@
       1184  49F 0031C3C0 ??_7ECopierTrigger@@6B@
       1185  4A0 003270E8 ??_7ECoreDamage@@6B@
       1186  4A1 003270A8 ??_7ECoreFlame@@6B@
       1187  4A2 003270C8 ??_7ECoreGravity@@6B@
       1188  4A3 00327098 ??_7ECoreGrind@@6B@
       1189  4A4 003270B8 ??_7ECorePress@@6B@
       1190  4A5 003270D8 ??_7ECoreSwitcher@@6B@
       1191  4A6 002F8B1C ??_7ECounterCount@@6B@
       1192  4A7 002F6C70 ??_7ECrazyBegin@@6B@
       1193  4A8 002F6C80 ??_7ECrazyEnd@@6B@
       1194  4A9 002F68B4 ??_7ECredits@@6B@
       1195  4AA 00300C8C ??_7EDancerAcrobatRemoved@@6B@
       1196  4AB 00300C9C ??_7EDancerNormalCreated@@6B@
       1197  4AC 002F6674 ??_7EDeactivate@@6B@
       1198  4AD 0030FFD4 ??_7EDeactivateBlend@@6B@
       1199  4AE 002FD1B8 ??_7EDefenseBullet@@6B@
       1200  4AF 003013F8 ??_7EDirectDancers@@6B@
       1201  4B0 002F6DA0 ??_7EDisconnected@@6B@
       1202  4B1 003090FC ??_7EDownMode@@6B@
       1203  4B2 002F6C90 ??_7EDrugmodeBegin@@6B@
       1204  4B3 002F6CA0 ??_7EDrugmodeEnd@@6B@
       1205  4B4 002F66A4 ??_7EEnd@@6B@
       1206  4B5 002F7154 ??_7EEndActor@@6B@
       1207  4B6 002F70E4 ??_7EEnemyBaseDamage@@6B@
       1208  4B7 002F70F4 ??_7EEnemyBaseDeath@@6B@
       1209  4B8 002F6824 ??_7EEntityVoice@@6B@
       1210  4B9 002F6684 ??_7EEnvironmentStart@@6B@
       1211  4BA 002F6694 ??_7EEnvironmentStop@@6B@
       1212  4BB 002F651C ??_7EExplode@@6B@
       1213  4BC 002F6924 ??_7EExtraTeleport@@6B@
       1214  4BD 00315440 ??_7EFireBombs@@6B@
       1215  4BE 00301118 ??_7EFireDagger@@6B@
       1216  4BF 00300CAC ??_7EFireDaggerNow@@6B@
       1217  4C0 003090CC ??_7EFireLightning@@6B@
       1218  4C1 0030265C ??_7EFireRocket@@6B@
       1219  4C2 002F6E68 ??_7EFireWeapon@@6B@
       1220  4C3 002F64EC ??_7EFlame@@6B@
       1221  4C4 00315F04 ??_7EFlipTheSwitch@@6B@
       1222  4C5 003112B0 ??_7EFloatingScore@@6B@
       1223  4C6 002F70D4 ??_7EForceWound@@6B@
       1224  4C7 003010D8 ??_7EForward@@6B@
       1225  4C8 00307F28 ??_7EGetDamaged@@6B@
       1226  4C9 0030267C ??_7EGoToBellMarker@@6B@
       1227  4CA 002F6F38 ??_7EGrenadeExplodeNow@@6B@
       1228  4CB 002F6854 ??_7EGrindClose@@6B@
       1229  4CC 002F6834 ??_7EGrindInit@@6B@
       1230  4CD 002F6874 ??_7EGrindOff@@6B@
       1231  4CE 002F6864 ??_7EGrindOn@@6B@
       1232  4CF 002F6844 ??_7EGrindOpen@@6B@
       1233  4D0 00307EE8 ??_7EGuard@@6B@
       1234  4D1 00307F48 ??_7EGuardState@@6B@
       1235  4D2 00324958 ??_7EHarbor@@6B@
       1236  4D3 0030260C ??_7EHit@@6B@
       1237  4D4 002F68F4 ??_7EHitBySpaceShipBeam@@6B@
       1238  4D5 002F6744 ??_7EHooker3@@6B@
       1239  4D6 002F6754 ??_7EHooker@@6B@
       1240  4D7 002F68A4 ??_7EHudPicFX@@6B@
       1241  4D8 002F7114 ??_7EInDrugModeItem@@6B@
       1242  4D9 002F7134 ??_7EInRange@@6B@
       1243  4DA 00315420 ??_7EInitMaria@@6B@
       1244  4DB 002FC0D4 ??_7EInitMariaNPC@@6B@
       1245  4DC 00315F14 ??_7EItemHealthyFamily@@6B@
       1246  4DD 002FED20 ??_7EJump@@6B@
       1247  4DE 002FE59C ??_7EJumpIntoRiceField@@6B@
       1248  4DF 002FE58C ??_7EJumpOutFromRiceField@@6B@
       1249  4E0 00313128 ??_7EKey@@6B@
       1250  4E1 002F6944 ??_7EKilledEnemy@@6B@
       1251  4E2 003076B8 ??_7ELamonBikeFireRocket@@6B@
       1252  4E3 003076E8 ??_7ELamonBikeMoveThroughMarkers@@6B@
       1253  4E4 003076C8 ??_7ELamonBikeOnMarker@@6B@
       1254  4E5 003076D8 ??_7ELamonBikeSuicide@@6B@
       1255  4E6 002F66F4 ??_7ELamonGenerate@@6B@
       1256  4E7 002F6D20 ??_7ELandingActiveMaria@@6B@
       1257  4E8 002F6CE0 ??_7ELandingMaria@@6B@
       1258  4E9 00315430 ??_7ELaunch@@6B@
       1259  4EA 002F6D00 ??_7ELaunchActiveMaria@@6B@
       1260  4EB 002F67F4 ??_7ELaunchAx@@6B@
       1261  4EC 002F6CD0 ??_7ELaunchMaria@@6B@
       1262  4ED 002F6724 ??_7ELaunchMariaNPC@@6B@
       1263  4EE 002F650C ??_7ELaunchProjectile@@6B@
       1264  4EF 003010B8 ??_7ELeft@@6B@
       1265  4F0 002F6714 ??_7ELisa@@6B@
       1266  4F1 002F63DC ??_7EMarkPicked@@6B@
       1267  4F2 00324F68 ??_7EMarkerPassed@@6B@
       1268  4F3 00313584 ??_7EMessageItem@@6B@
       1269  4F4 002F639C ??_7EModel2Activate@@6B@
       1270  4F5 002F63AC ??_7EModel2Deactivate@@6B@
       1271  4F6 002F648C ??_7EModel3Activate@@6B@
       1272  4F7 002F649C ??_7EModel3Deactivate@@6B@
       1273  4F8 002F643C ??_7EModelChange@@6B@
       1274  4F9 002F64CC ??_7EModelDeath@@6B@
       1275  4FA 002F646C ??_7EModelDeathSpawnAmmoItem@@6B@
       1276  4FB 002F645C ??_7EModelDeathSpawnArmorItem@@6B@
       1277  4FC 002F644C ??_7EModelDeathSpawnHealthItem@@6B@
       1278  4FD 002F647C ??_7EModelDeathSpawnSpecialItem@@6B@
       1279  4FE 002F6914 ??_7EModelSelfDestruction@@6B@
       1280  4FF 0030269C ??_7EMoveToDestMarker@@6B@
       1281  500 0031FA00 ??_7EMusicChangerTrigger@@6B@
       1282  501 002F70A4 ??_7ENetChangeMusic@@6B@
       1283  502 002F6F08 ??_7ENetFireWeapon@@6B@
       1284  503 002F6F18 ??_7ENetReleaseWeapon@@6B@
       1285  504 002F6F28 ??_7ENetReloadWeapon@@6B@
       1286  505 002F6EF8 ??_7ENetSelectWeapon@@6B@
       1287  506 002F728C ??_7ENetSpawnEntity@@6B@
       1288  507 0031078C ??_7ENetTrigger@@6B@
       1289  508 002F68E4 ??_7EObjectiveCompletedMessage@@6B@
       1290  509 0030266C ??_7EOnMarker@@6B@
       1291  50A 002F67D4 ??_7EOnPeerDead@@6B@
       1292  50B 002F7124 ??_7EOutDrugModeItem@@6B@
       1293  50C 002F7144 ??_7EOutRange@@6B@
       1294  50D 00320790 ??_7EParticlesActivate@@6B@
       1295  50E 003207A0 ??_7EParticlesDeactivate@@6B@
       1296  50F 002F7084 ??_7EPlayEcstasy@@6B@
       1297  510 002F64AC ??_7EPlaySoundOnce@@6B@
       1298  511 002F6DE0 ??_7EPlayerDeath@@6B@
       1299  512 003090EC ??_7EPlayerInCloseRange@@6B@
       1300  513 002F6DC8 ??_7EPlayerKilledEnemy@@6B@
       1301  514 002F6D90 ??_7EPlayerRebirth@@6B@
       1302  515 002F6E08 ??_7EPlayerStats@@6B@
       1303  516 003137A0 ??_7EPowerUp@@6B@
       1304  517 0030268C ??_7EPriestStart@@6B@
       1305  518 00323B8C ??_7EProjectileSpawnClient@@6B@
       1306  519 002F67C4 ??_7EProtectorFire@@6B@
       1307  51A 00307F38 ??_7EProtectorsCleared@@6B@
       1308  51B 002F6ED8 ??_7EPutDown@@6B@
       1309  51C 0032A0A4 ??_7ERHawkDeath@@6B@
       1310  51D 002F64BC ??_7ERangeModelDestruction@@6B@
       1311  51E 002F6D80 ??_7ERebirth@@6B@
       1312  51F 002F67B4 ??_7EReceiveScore@@6B@
       1313  520 002F63CC ??_7EReceiveSkaItem@@6B@
       1314  521 002F70C4 ??_7EReconsiderBehavior@@6B@
       1315  522 002F6E78 ??_7EReleaseWeapon@@6B@
       1316  523 002F6EB8 ??_7EReloadChtGiveall@@6B@
       1317  524 002F6EA8 ??_7EReloadGetAmmo@@6B@
       1318  525 002F6E88 ??_7EReloadWeapon@@6B@
       1319  526 002F66E4 ??_7EReminder@@6B@
       1320  527 002F6C5C ??_7EReminderInit@@6B@
       1321  528 002F70B4 ??_7ERestartAttack@@6B@
       1322  529 003010C8 ??_7ERight@@6B@
       1323  52A 002FE5AC ??_7ERightAttack@@6B@
       1324  52B 002FED30 ??_7ERightFire@@6B@
       1325  52C 002F6EE8 ??_7ERigidityWeapon@@6B@
       1326  52D 003010F8 ??_7ERotateLeft@@6B@
       1327  52E 00301108 ??_7ERotateRight@@6B@
       1328  52F 002F6804 ??_7EScroll@@6B@
       1329  530 002F67E4 ??_7ESecretFound@@6B@
       1330  531 002F6E48 ??_7ESelectWeapon@@6B@
       1331  532 002F6CF0 ??_7ESetPlayerWeapon@@6B@
       1332  533 002F63EC ??_7ESetType@@6B@
       1333  534 002F727C ??_7ESetViewer@@6B@
       1334  535 002F6DF8 ??_7EShowConsole@@6B@
       1335  536 002F641C ??_7ESkaAmmoItem@@6B@
       1336  537 002F640C ??_7ESkaArmor@@6B@
       1337  538 002F63FC ??_7ESkaHealth@@6B@
       1338  539 002F6904 ??_7ESkaMovingModelDestruction@@6B@
       1339  53A 002F642C ??_7ESkaSpecialItem@@6B@
       1340  53B 002F6954 ??_7ESound@@6B@
       1341  53C 002F6AD4 ??_7ESpawnDebris@@6B@
       1342  53D 002F77A4 ??_7ESpawnDebrisSka@@6B@
       1343  53E 002F64DC ??_7ESpawnEffect@@6B@
       1344  53F 0031076C ??_7ESpawnEffector@@6B@
       1345  540 002F6974 ??_7ESpawnFXEmiter@@6B@
       1346  541 002F652C ??_7ESpawnFlame@@6B@
       1347  542 002F638C ??_7ESpawnSpray@@6B@
       1348  543 00323B7C ??_7ESpawnerProjectile@@6B@
       1349  544 00301138 ??_7ESpawning@@6B@
       1350  545 002F6654 ??_7EStart@@6B@
       1351  546 002F6764 ??_7EStartAttack@@6B@
       1352  547 002F8AFC ??_7EStartCounter@@6B@
       1353  548 00301408 ??_7EStartDancers@@6B@
       1354  549 002F6D40 ??_7EStartPulling@@6B@
       1355  54A 0030262C ??_7EStartSounds@@6B@
       1356  54B 00315460 ??_7EStealth@@6B@
       1357  54C 002F6D30 ??_7EStepBack@@6B@
       1358  54D 002F6644 ??_7EStop@@6B@
       1359  54E 002F6774 ??_7EStopAttack@@6B@
       1360  54F 002F6784 ??_7EStopBlindness@@6B@
       1361  550 002F8B0C ??_7EStopCounter@@6B@
       1362  551 00301128 ??_7EStopDanceMode@@6B@
       1363  552 00301418 ??_7EStopDancers@@6B@
       1364  553 002F6794 ??_7EStopDeafness@@6B@
       1365  554 002F64FC ??_7EStopFlaming@@6B@
       1366  555 003090DC ??_7EStopLightning@@6B@
       1367  556 002F6D50 ??_7EStopPulling@@6B@
       1368  557 0030263C ??_7EStopSounds@@6B@
       1369  558 00311738 ??_7EStormEnvironmentStart@@6B@
       1370  559 00311748 ??_7EStormStart@@6B@
       1371  55A 00311758 ??_7EStormStop@@6B@
       1372  55B 003218F0 ??_7ETeleportActivate@@6B@
       1373  55C 00321900 ??_7ETeleportDeactivate@@6B@
       1374  55D 002F66D4 ??_7ETeleportMovingBrush@@6B@
       1375  55E 002F6814 ??_7ETextFX@@6B@
       1376  55F 00321C40 ??_7EToasterTrigger@@6B@
       1377  560 00321E2C ??_7ETorpedoDamage@@6B@
       1378  561 00321E1C ??_7ETorpedoExplode@@6B@
       1379  562 002F66B4 ??_7ETrigger@@6B@
       1380  563 002F66C4 ??_7ETriggerActionMarker@@6B@
       1381  564 0031077C ??_7ETriggerEffector@@6B@
       1382  565 003113F8 ??_7ETriggerLightning@@6B@
       1383  566 00315DA4 ??_7EViewInit@@6B@
       1384  567 002F68D4 ??_7EVoiceMessage@@6B@
       1385  568 00307F08 ??_7EWaitMode@@6B@
       1386  569 002FE57C ??_7EWaitOnRiceField@@6B@
       1387  56A 002F6F58 ??_7EWatch@@6B@
       1388  56B 002F6F48 ??_7EWatcherInit@@6B@
       1389  56C 0030CC30 ??_7EWater@@6B@
       1390  56D 002F6E98 ??_7EWeaponChanged@@6B@
       1391  56E 002F89B4 ??_7EWeaponEffectInit@@6B@
       1392  56F 002F89C4 ??_7EWeaponItem@@6B@
       1393  570 002F6E38 ??_7EWeaponsInit@@6B@
       1394  571 002F9C40 ??_7EWeatherStart@@6B@
       1395  572 002F9C50 ??_7EWeatherStop@@6B@
       1396  573 002F6CB0 ??_7EWhip@@6B@
       1397  574 00326B38 ??_7EbflameOff@@6B@
       1398  575 00326B18 ??_7EbflameOn@@6B@
       1399  576 00326B28 ??_7Ebflame_ing@@6B@
       1400  577 000B4EB0 ?Active@CEnemyBase@@QAEHABVCEntityEvent@@@Z
       1401  578 0005BA40 ?Active@CWatcher@@QAEHABVCEntityEvent@@@Z
       1402  579 001BD1A0 ?ActiveActions@CPlayer@@QAEXABVCPlayerAction@@@Z
       1403  57A 000110A0 ?AddAttachmentToModel@@YAXPAVCEntity@@AAVCModelObject@@JKKKKK@Z
       1404  57B 001B2E40 ?AddBlur@CPlayer@@QAEXPAVCDrawPort@@AAVCEntity@@AAVCAnyProjection3D@@AAVCPlacement3D@@@Z
       1405  57C 001B0AE0 ?AddBouble@CPlayer@@QAEXV?$Vector@M$02@@0@Z
       1406  57D 001A92B0 ?AddBulletSpray@CPlayer@@QAEXV?$Vector@M$02@@W4EffectParticlesType@@0@Z
       1407  57E 002603F0 ?AddComboCount@CComboManger@@QAEXKHPAVCEnemyBase@@@Z
       1408  57F 001D98F0 ?AddDefaultAmmoForWeapon@CPlayerWeapons@@QAEXJM@Z
       1409  580 000B0390 ?AddDrugModeItem@CEnemyBase@@QAEXVCEntityPointer@@@Z
       1410  581 0019C590 ?AddFlare@CSkaItem@@QAEXJV?$Vector@M$02@@0@Z
       1411  582 001B33D0 ?AddGlow@CPlayer@@QAEXPAVCDrawPort@@KAAVCEntity@@AAVCAnyProjection3D@@@Z
       1412  583 001A9390 ?AddGoreSpray@CPlayer@@QAEXV?$Vector@M$02@@0W4SprayParticlesType@@0V?$AABBox@M$02@@MK@Z
       1413  584 001D2270 ?AddManaToPlayer@CPlayerWeapons@@QAEXJ@Z
       1414  585 001AB4E0 ?AddOldMovieFX@CPlayer@@QAEXPAVCDrawPort@@@Z
       1415  586 00022810 ?AddParticle@CEmiter@@QAEXV?$Vector@M$02@@0MMMMMK@Z
       1416  587 000C27E0 ?AddToFuss@CEnemyBase@@QAEXXZ
       1417  588 002603A0 ?Addlist@CComboManger@@QAEXKJ@Z
       1418  589 001AAC70 ?AdjustBones@CPlayer@@UAEXXZ
       1419  58A 001CB560 ?AdjustBones@CPlayerAnimator@@UAEXXZ
       1420  58B 000AF510 ?AdjustDamages@CEnemyBase@@UAEHXZ
       1421  58C 000B0140 ?AdjustDifficulty@CEnemyBase@@UAEXXZ
       1422  58D 000C4750 ?AdjustDifficulty@CEnemyDive@@UAEXXZ
       1423  58E 000C6C00 ?AdjustDifficulty@CEnemyFly@@UAEXXZ
       1424  58F 000CAC50 ?AdjustDifficulty@CEnemyRunInto@@UAEXXZ
       1425  590 0019C420 ?AdjustDifficulty@CSkaItem@@UAEXXZ
       1426  591 0019CCF0 ?AdjustMipFactor@CSkaItem@@UAEXAAM@Z
       1427  592 000C0FF0 ?AdjustShaderParams@CEnemyBase@@UAEXJPAVCShader@@AAUShaderParams@@@Z
       1428  593 000BB560 ?AdjustShadingParameters@CEnemyBase@@UAEHAAV?$Vector@M$02@@AAK1@Z
       1429  594 001BAF40 ?AdjustShadingParameters@CPlayer@@UAEHAAV?$Vector@M$02@@AAK1@Z
       1430  595 0022E880 ?AdjustShadingParameters@CProjectile@@UAEHAAV?$Vector@M$02@@AAK1@Z
       1431  596 0019D1E0 ?AdjustShadingParameters@CSkaItem@@UAEHAAV?$Vector@M$02@@AAK1@Z
       1432  597 001D14F0 ?AdjustWeaponBones@CPlayerWeapons@@QAEXXZ
       1433  598 001E5FE0 ?AdjustWeaponBones@CPlayerWeapons_L@@QAEXXZ
       1434  599 000C7840 ?AirToGround@CEnemyFly@@QAEHABVCEntityEvent@@@Z
       1435  59A 000C4F10 ?AirToGroundAnim@CEnemyFly@@UAEMXZ
       1436  59B 000C53C0 ?AirToGroundByDamage@CEnemyFly@@QAEHABVCEntityEvent@@@Z
       1437  59C 000C4F20 ?AirToGroundByDamageAnim@CEnemyFly@@UAEMXZ
       1438  59D 001C5AE0 ?AliveActions@CPlayer@@QAEXABVCPlayerAction@@@Z
       1439  59E 003CDCF0 ?AmmoPackType_enum@@3VCEntityPropertyEnumType@@A
       1440  59F 003CDCE0 ?AmmoPackType_values@@3PAVCEntityPropertyEnumValue@@A
       1441  5A0 00058750 ?AngleBetweenNormVectors@@YAMV?$Vector@M$02@@0@Z
       1442  5A1 00058840 ?AngleBetweenNormVectors@@YAMV?$Vector@M$02@@0JJJ@Z
       1443  5A2 00058A10 ?AngleBetweenVectors@@YAMV?$Vector@M$02@@0@Z
       1444  5A3 00058920 ?AngleBetweenVectors@@YAMV?$Vector@M$02@@0JJJ@Z
       1445  5A4 000B02C0 ?AnimAfterImpactDamage@CEnemyBase@@UAEJXZ
       1446  5A5 000B0280 ?AnimComEnd@CEnemyBase@@UAEJXZ
       1447  5A6 000B0270 ?AnimComboStart@CEnemyBase@@UAEJXZ
       1448  5A7 000B02F0 ?AnimForBloodFountainDeath@CEnemyBase@@UAEJXZ
       1449  5A8 000B02A0 ?AnimForDamage@CEnemyBase@@UAEJXZ
       1450  5A9 000B02E0 ?AnimForDeath@CEnemyBase@@UAEJXZ
       1451  5AA 000B02B0 ?AnimForImpactDamage@CEnemyBase@@UAEJXZ
       1452  5AB 000B0300 ?AnimForSitDown@CEnemyBase@@UAEJXZ
       1453  5AC 000B0310 ?AnimForStandUp@CEnemyBase@@UAEJXZ
       1454  5AD 000AF520 ?AnimIDFromString@CEnemyBase@@QAEXAAJVCTString@@@Z
       1455  5AE 001D1500 ?AnimIDFromString@CPlayerWeapons@@QAEXAAJVCTString@@@Z
       1456  5AF 001E5FF0 ?AnimIDFromString@CPlayerWeapons_L@@QAEXAAJVCTString@@@Z
       1457  5B0 001CAF50 ?AnimateBanking@CPlayerAnimator@@QAEXXZ
       1458  5B1 000225F0 ?AnimateParticles@CEmiter@@QAEXXZ
       1459  5B2 001CD030 ?AnimatePlayer@CPlayerAnimator@@QAEXXZ
       1460  5B3 001CCCC0 ?AnimateSoftEyes@CPlayerAnimator@@QAEXXZ
       1461  5B4 002344A0 ?AntiAir@CProjectile@@QAEXXZ
       1462  5B5 00234600 ?AntiAirExplosion@CProjectile@@QAEXXZ
       1463  5B6 001C6930 ?ApplyAction@CPlayer@@UAEXABVCPlayerAction@@M@Z
       1464  5B7 001B27A0 ?ApplyShaking@CPlayer@@QAEXAAVCPlacement3D@@@Z
       1465  5B8 000BC7C0 ?ApplyTactics@CEnemyBase@@UAEXAAV?$Vector@M$02@@@Z
       1466  5B9 000AF690 ?AssignWatcher@CEnemyBase@@QAEXPAVCEntity@@@Z
       1467  5BA 000B2380 ?AttackEnemy@CEnemyBase@@QAEHABVCEntityEvent@@@Z
       1468  5BB 000C5810 ?AttackEnemy@CEnemyFly@@QAEHABVCEntityEvent@@@Z
       1469  5BC 001BFF10 ?AutoActions@CPlayer@@QAEXABVCPlayerAction@@@Z
       1470  5BD 000B5CF0 ?AutoAimCoordsAdjustForSize@CEnemyBase@@QAEXPAV?$Vector@M$02@@PAM@Z
       1471  5BE 000B9740 ?AutoAimCoordsFromBone@CEnemyBase@@QAEXPAV?$Vector@M$02@@PAMJV2@M@Z
       1472  5BF 000B9680 ?AutoAimCoordsFromBox@CEnemyBase@@QAEXPAM@Z
       1473  5C0 000B96D0 ?AutoAimCoordsFromBox@CEnemyBase@@QAEXPAV?$Vector@M$02@@PAM@Z
       1474  5C1 001DB3E0 ?AutoFullAmmo@CPlayerWeapons@@QAEXXZ
       1475  5C2 001ED8D0 ?AutoFullAmmo@CPlayerWeapons_L@@QAEXXZ
       1476  5C3 001AC930 ?AutoGoToMarker@CPlayer@@QAEHABVCEntityEvent@@@Z
       1477  5C4 000B0010 ?AutoMovementAnimation@CEnemyBase@@QAEXK@Z
       1478  5C5 000BBA90 ?AutoSetDesiredMovement@CEnemyBase@@QAEKXZ
       1479  5C6 000C0280 ?AutoTeleport@CEnemyBase@@QAEHABVCEntityEvent@@@Z
       1480  5C7 001B6510 ?AutoTeleport@CPlayer@@QAEHABVCEntityEvent@@@Z
       1481  5C8 003BC6A8 ?AxAttackType_enum@@3VCEntityPropertyEnumType@@A
       1482  5C9 003BC680 ?AxAttackType_values@@3PAVCEntityPropertyEnumValue@@A
       1483  5CA 000B0740 ?BackDetach@CEnemyBase@@QAEHABVCEntityEvent@@@Z
       1484  5CB 003CCB48 ?BasicEffectType_enum@@3VCEntityPropertyEnumType@@A
       1485  5CC 003CC948 ?BasicEffectType_values@@3PAVCEntityPropertyEnumValue@@A
       1486  5CD 00234D10 ?BattleshipCannonball@CProjectile@@QAEXXZ
       1487  5CE 00235430 ?BattleshipCannonballExplosion@CProjectile@@QAEXXZ
       1488  5CF 000C1630 ?BeIdle@CEnemyBase@@QAEHABVCEntityEvent@@@Z
       1489  5D0 000B33E0 ?BeWounded@CEnemyBase@@QAEHABVCEntityEvent@@@Z
       1490  5D1 000C5040 ?BeWounded@CEnemyFly@@QAEHABVCEntityEvent@@@Z
       1491  5D2 000C8AF0 ?BeWounded@CEnemyHorse@@QAEHABVCEntityEvent@@@Z
       1492  5D3 000B0290 ?BeforeDie@CEnemyBase@@UAEXXZ
       1493  5D4 001B04B0 ?BeginCrazy@CPlayer@@QAEXXZ
       1494  5D5 001ADD80 ?BeginDrugmode@CPlayer@@QAEHABVCEntityEvent@@@Z
       1495  5D6 001A6890 ?BeginMariaActiveDie@CPlayer@@QAEXXZ
       1496  5D7 003BDD18 ?BigBallActionType_enum@@3VCEntityPropertyEnumType@@A
       1497  5D8 003BDCD0 ?BigBallActionType_values@@3PAVCEntityPropertyEnumValue@@A
       1498  5D9 003BD568 ?BigBallFireType_enum@@3VCEntityPropertyEnumType@@A
       1499  5DA 003BD558 ?BigBallFireType_values@@3PAVCEntityPropertyEnumValue@@A
       1500  5DB 003BD588 ?BigBallState_enum@@3VCEntityPropertyEnumType@@A
       1501  5DC 003BD570 ?BigBallState_values@@3PAVCEntityPropertyEnumValue@@A
       1502  5DD 0023B2B0 ?BigBallStoneProjectile@CProjectile@@QAEXXZ
       1503  5DE 0023B470 ?BigBallStoneProjectileExplosion@CProjectile@@QAEXXZ
       1504  5DF 003BD5A0 ?BigBall_enum@@3VCEntityPropertyEnumType@@A
       1505  5E0 003BD590 ?BigBall_values@@3PAVCEntityPropertyEnumValue@@A
       1506  5E1 003BDDB8 ?BikeRiderType_enum@@3VCEntityPropertyEnumType@@A
       1507  5E2 003BDDA0 ?BikeRiderType_values@@3PAVCEntityPropertyEnumValue@@A
       1508  5E3 003BDD98 ?BikeSkinType_enum@@3VCEntityPropertyEnumType@@A
       1509  5E4 003BDD80 ?BikeSkinType_values@@3PAVCEntityPropertyEnumValue@@A
       1510  5E5 003BC6E0 ?BladeAttackType_enum@@3VCEntityPropertyEnumType@@A
       1511  5E6 003BC6B8 ?BladeAttackType_values@@3PAVCEntityPropertyEnumValue@@A
       1512  5E7 003CCCE8 ?BlendControllerType_enum@@3VCEntityPropertyEnumType@@A
       1513  5E8 003CCCB0 ?BlendControllerType_values@@3PAVCEntityPropertyEnumValue@@A
       1514  5E9 003D4490 ?BlockAction_enum@@3VCEntityPropertyEnumType@@A
       1515  5EA 003D4478 ?BlockAction_values@@3PAVCEntityPropertyEnumValue@@A
       1516  5EB 000BE670 ?BlowUp@CEnemyBase@@UAEXXZ
       1517  5EC 000C7F50 ?BlowUp@CEnemyFly@@UAEXXZ
       1518  5ED 000C8F20 ?BlowUp@CEnemyHorse@@UAEXXZ
       1519  5EE 000CB270 ?BlowUp@CEnemyRunInto@@UAEXXZ
       1520  5EF 001B3E00 ?BlowUp@CPlayer@@QAEXXZ
       1521  5F0 000B0130 ?BlowUpBase@CEnemyBase@@QAEXXZ
       1522  5F1 000B02D0 ?BlowUpNotify@CEnemyBase@@UAEXXZ
       1523  5F2 001CB340 ?BodyAnimationTemplate@CPlayerAnimator@@QAEXW4BodyTemplate@@KMMH@Z
       1524  5F3 003C6DC8 ?BodyGuardState_enum@@3VCEntityPropertyEnumType@@A
       1525  5F4 003C6DB0 ?BodyGuardState_values@@3PAVCEntityPropertyEnumValue@@A
       1526  5F5 001CD990 ?BodyPickItemAnimation@CPlayerAnimator@@QAEXH@Z
       1527  5F6 001CD8A0 ?BodyPullAnimation@CPlayerAnimator@@QAEXH@Z
       1528  5F7 001CD920 ?BodyPullItemAnimation@CPlayerAnimator@@QAEXH@Z
       1529  5F8 001CB520 ?BodyPushAnimation@CPlayerAnimator@@QAEXH@Z
       1530  5F9 001CDA00 ?BodyRemoveItem@CPlayerAnimator@@QAEXXZ
       1531  5FA 001CB490 ?BodyStillAnimation@CPlayerAnimator@@QAEXXZ
       1532  5FB 003CF8D0 ?BodyTemplate_enum@@3VCEntityPropertyEnumType@@A
       1533  5FC 003CF8B8 ?BodyTemplate_values@@3PAVCEntityPropertyEnumValue@@A
       1534  5FD 003BC0E0 ?BoolEType_enum@@3VCEntityPropertyEnumType@@A
       1535  5FE 003BC0C8 ?BoolEType_values@@3PAVCEntityPropertyEnumValue@@A
       1536  5FF 003CDD80 ?BoosterPackType_enum@@3VCEntityPropertyEnumType@@A
       1537  600 003CDD78 ?BoosterPackType_values@@3PAVCEntityPropertyEnumValue@@A
       1538  601 003D6670 ?BossHeliMovementType_enum@@3VCEntityPropertyEnumType@@A
       1539  602 003D6660 ?BossHeliMovementType_values@@3PAVCEntityPropertyEnumValue@@A
       1540  603 00230380 ?BounceSound@CProjectile@@QAEXXZ
       1541  604 001DD820 ?BringUp@CPlayerWeapons@@QAEHABVCEntityEvent@@@Z
       1542  605 001E76E0 ?BringUp@CPlayerWeapons_L@@QAEHABVCEntityEvent@@@Z
       1543  606 003BE8C8 ?BuffaloActionList_enum@@3VCEntityPropertyEnumType@@A
       1544  607 003BE8B0 ?BuffaloActionList_values@@3PAVCEntityPropertyEnumValue@@A
       1545  608 003BE8A8 ?BuffaloEnemyType_enum@@3VCEntityPropertyEnumType@@A
       1546  609 003BE898 ?BuffaloEnemyType_values@@3PAVCEntityPropertyEnumValue@@A
       1547  60A 003BC328 ?BulletHitType_enum@@3VCEntityPropertyEnumType@@A
       1548  60B 003BC2A8 ?BulletHitType_values@@3PAVCEntityPropertyEnumValue@@A
       1549  60C 0023A820 ?BulletProjectile@CProjectile@@QAEXXZ
       1550  60D 001C4480 ?ButtonsActions@CPlayer@@QAEXAAVCPlayerAction@@@Z
       1551  60E 003D5330 ?COREATTACKTYPE_enum@@3VCEntityPropertyEnumType@@A
       1552  60F 003D5308 ?COREATTACKTYPE_values@@3PAVCEntityPropertyEnumValue@@A
       1553  610 00260250 ?CalcComboCount@CComboManger@@QAEXXZ
       1554  611 000B98C0 ?CalcDelta@CEnemyBase@@QAE?AV?$Vector@M$02@@PAVCEntity@@@Z
       1555  612 0023BEE0 ?CalcDelta@CProjectile@@QAE?AV?$Vector@M$02@@PAVCEntity@@0@Z
       1556  613 000B9970 ?CalcDeltaXZ@CEnemyBase@@QAE?AV?$Vector@M$02@@PAVCEntity@@@Z
       1557  614 000B9930 ?CalcDist@CEnemyBase@@QAEMPAVCEntity@@@Z
       1558  615 0023BF50 ?CalcDist@CProjectile@@QAEMPAVCEntity@@0@Z
       1559  616 000B9A00 ?CalcDistXZ@CEnemyBase@@QAEMPAVCEntity@@@Z
       1560  617 000BBD70 ?CalcDistanceInPlaneToDestination@CEnemyBase@@QAEMXZ
       1561  618 00229E70 ?CalcJitterTarget@CBullet@@QAEXM@Z
       1562  619 00229FC0 ?CalcJitterTargetFixed@CBullet@@QAEXMMM@Z
       1563  61A 001DC6F0 ?CalcLerpedWeaponPosition@CPlayerWeapons@@QAEXV?$Vector@M$02@@AAVCPlacement3D@@H@Z
       1564  61B 001EE9A0 ?CalcLerpedWeaponPosition@CPlayerWeapons_L@@QAEXV?$Vector@M$02@@AAVCPlacement3D@@H@Z
       1565  61C 000B9A40 ?CalcPlaneDelta@CEnemyBase@@QAE?AV?$Vector@M$02@@PAVCEntity@@@Z
       1566  61D 000B9AE0 ?CalcPlaneDist@CEnemyBase@@QAEMPAVCEntity@@@Z
       1567  61E 00229760 ?CalcTarget@CBullet@@QAEXM@Z
       1568  61F 00229B50 ?CalcTarget@CBullet@@QAEXPAVCEntity@@M@Z
       1569  620 00229CE0 ?CalcTarget@CBullet@@QAEXPAVCEntity@@MV?$Vector@M$02@@@Z
       1570  621 00229920 ?CalcTarget@CBullet@@QAEXV?$Vector@M$02@@M@Z
       1571  622 002297E0 ?CalcTarget_Sniper@CBullet@@QAEXMVCPlacement3D@@@Z
       1572  623 00229A40 ?CalcTarget_Sniper@CBullet@@QAEXV?$Vector@M$02@@MVCPlacement3D@@@Z
       1573  624 001DC4E0 ?CalcWeaponPosition3rdPersonView@CPlayerWeapons@@QAEXV?$Vector@M$02@@AAVCPlacement3D@@H@Z
       1574  625 001DC5E0 ?CalcWeaponPosition@CPlayerWeapons@@QAEXV?$Vector@M$02@@AAVCPlacement3D@@H@Z
       1575  626 001EE730 ?CalcWeaponPosition@CPlayerWeapons_L@@QAEXV?$Vector@M$02@@AAVCPlacement3D@@H@Z
       1576  627 001DCA60 ?CalcWeaponPositionForShell@CPlayerWeapons@@QAEXV?$Vector@M$02@@AAVCPlacement3D@@H@Z
       1577  628 001EE840 ?CalcWeaponPositionForShell@CPlayerWeapons_L@@QAEXV?$Vector@M$02@@AAVCPlacement3D@@H@Z
       1578  629 001DC8B0 ?CalcWeaponPositionImprecise@CPlayerWeapons@@QAEXV?$Vector@M$02@@AAVCPlacement3D@@HM@Z
       1579  62A 000BA120 ?CalculateAngularLaunchParams@CEnemyBase@@QAEXV?$Vector@M$02@@M00MAAM1@Z
       1580  62B 000AF420 ?CalculateFireworkScore@CEnemyBase@@QAEXM@Z
       1581  62C 000BA570 ?CalculatePredictedPosition@CEnemyBase@@QAE?AV?$Vector@M$02@@V2@0M0M@Z
       1582  62D 001B4420 ?CalculateViewRotationDamping@CPlayer@@QAEMXZ
       1583  62E 000BD3D0 ?CanAttackEnemy@CEnemyBase@@QAEHPAVCEntity@@M@Z
       1584  62F 000BD410 ?CanAttackEnemyNew@CEnemyBase@@QAEHPAVCEntity@@M@Z
       1585  630 000BD450 ?CanHitEnemy@CEnemyBase@@UAEHPAVCEntity@@M@Z
       1586  631 000C42A0 ?CanHitEnemy@CEnemyDive@@UAEHPAVCEntity@@M@Z
       1587  632 000C4D80 ?CanHitEnemy@CEnemyFly@@UAEHPAVCEntity@@M@Z
       1588  633 000BB430 ?CastRayGround@CEnemyBase@@QAE_NXZ
       1589  634 001B3770 ?CastRayHead@CPlayer@@QAEHXZ
       1590  635 003BC088 ?CauseOfDeath_enum@@3VCEntityPropertyEnumType@@A
       1591  636 003BC060 ?CauseOfDeath_values@@3PAVCEntityPropertyEnumValue@@A
       1592  637 001A91B0 ?ChangeBodyAnim@CPlayer@@QAEXJKMMM@Z
       1593  638 000C4F40 ?ChangeCollisionToAir@CEnemyFly@@UAEXXZ
       1594  639 000C4340 ?ChangeCollisionToGround@CEnemyDive@@UAEXXZ
       1595  63A 000C4F50 ?ChangeCollisionToGround@CEnemyFly@@UAEXXZ
       1596  63B 000C4330 ?ChangeCollisionToLiquid@CEnemyDive@@UAEXXZ
       1597  63C 001C5270 ?ChangeDrugMode@CPlayer@@QAEXXZ
       1598  63D 001A9040 ?ChangeLegsAnim@CPlayer@@QAEXJKMMM@Z
       1599  63E 001C23C0 ?ChangeOriginMode@CPlayer@@QAEXXZ
       1600  63F 001ABCB0 ?ChangePlayerView@CPlayer@@QAEXXZ
       1601  640 001CB990 ?ChangeView@CPlayerAnimator@@QAEXAAVCPlacement3D@@@Z
       1602  641 001D2920 ?ChangeWeapon@CPlayerWeapons@@QAEHABVCEntityEvent@@@Z
       1603  642 001E6FB0 ?ChangeWeapon@CPlayerWeapons_L@@QAEHABVCEntityEvent@@@Z
       1604  643 001A9210 ?ChangeWholeAnim@CPlayer@@QAEXJKMMM@Z
       1605  644 001ABF30 ?CharacterChanged@CPlayer@@UAEXABVCPlayerCharacter@@@Z
       1606  645 000B0250 ?ChargeAnim@CEnemyBase@@UAEXXZ
       1607  646 000C8AE0 ?ChargeAnim@CEnemyHorse@@UAEXXZ
       1608  647 000CA170 ?ChargeAnim@CEnemyRunInto@@UAEXXZ
       1609  648 000B3180 ?ChargeHitEnemy@CEnemyBase@@QAEHABVCEntityEvent@@@Z
       1610  649 001AAAC0 ?CheatAllMessages@CPlayer@@QAEXXZ
       1611  64A 001C24D0 ?CheatAllMessagesDir@CPlayer@@QAEXABVCTString@@K@Z
       1612  64B 001D21B0 ?CheatGiveAll@CPlayerWeapons@@QAEXXZ
       1613  64C 001D2130 ?CheatOpen@CPlayerWeapons@@QAEXXZ
       1614  64D 001BE230 ?Cheats@CPlayer@@QAEXXZ
       1615  64E 001AC210 ?CheatsEnabled@CPlayer@@QAEHXZ
       1616  64F 0005C9C0 ?CheckAnotherPlayer@CWatcher@@QAEPAVCEntity@@PAV2@@Z
       1617  650 0005C720 ?CheckCloserPlayer@CWatcher@@QAEPAVCEntity@@PAV2@M@Z
       1618  651 001AC360 ?CheckDeathForRespawnInPlace@CPlayer@@QAEXVEPlayerDeath@@@Z
       1619  652 000BF8F0 ?CheckDrugModeItem@CEnemyBase@@QAEXXZ
       1620  653 000B00D0 ?CheckFallForPathFinding@CEnemyBase@@QAEHABVEWouldFall@@@Z
       1621  654 001B4360 ?CheckGameEnd@CPlayer@@QAEXXZ
       1622  655 001A9670 ?CheckHighScore@CPlayer@@QAEXXZ
       1623  656 00003750 ?CheckIDs@EActivate@@UAEHXZ
       1624  657 00181E40 ?CheckIDs@EActivateBlend@@UAEHXZ
       1625  658 001A4870 ?CheckIDs@EActiveMariaDie@@UAEHXZ
       1626  659 001A5140 ?CheckIDs@EAddBulletSpray@@UAEHXZ
       1627  65A 001A5180 ?CheckIDs@EAddGoreSpray@@UAEHXZ
       1628  65B 00116720 ?CheckIDs@EAlert@@UAEHXZ
       1629  65C 00195530 ?CheckIDs@EAmmoPackItem@@UAEHXZ
       1630  65D 0024A6A0 ?CheckIDs@EAnimForDamage@@UAEHXZ
       1631  65E 001CAAD0 ?CheckIDs@EAnimatorInit@@UAEHXZ
       1632  65F 001A4EC0 ?CheckIDs@EAutoAction@@UAEHXZ
       1633  660 00003F60 ?CheckIDs@EAvoidProjectiles@@UAEHXZ
       1634  661 000043E0 ?CheckIDs@EBFlame@@UAEHXZ
       1635  662 000043A0 ?CheckIDs@EBGravity@@UAEHXZ
       1636  663 0019F970 ?CheckIDs@EBackMaria@@UAEHXZ
       1637  664 00003C50 ?CheckIDs@EBackMariaNPC@@UAEHXZ
       1638  665 00099970 ?CheckIDs@EBackward@@UAEHXZ
       1639  666 00003A90 ?CheckIDs@EBasket@@UAEHXZ
       1640  667 000AEFE0 ?CheckIDs@EBlowUp@@UAEHXZ
       1641  668 00003E50 ?CheckIDs@EBonus@@UAEHXZ
       1642  669 00196190 ?CheckIDs@EBoosterPack@@UAEHXZ
       1643  66A 001A5330 ?CheckIDs@EBoringWeapon@@UAEHXZ
       1644  66B 00116800 ?CheckIDs@EBossWounded@@UAEHXZ
       1645  66C 001A55D0 ?CheckIDs@EBringUp@@UAEHXZ
       1646  66D 0022E0D0 ?CheckIDs@EBruceDefenseFinished@@UAEHXZ
       1647  66E 000661B0 ?CheckIDs@EBruceDefenseProjectiles@@UAEHXZ
       1648  66F 000663D0 ?CheckIDs@EBruceGo@@UAEHXZ
       1649  670 00066370 ?CheckIDs@EBruceReady@@UAEHXZ
       1650  671 00066290 ?CheckIDs@EBruceTeleport@@UAEHXZ
       1651  672 00244830 ?CheckIDs@EBrushDeath@@UAEHXZ
       1652  673 00244680 ?CheckIDs@EBrushDestroyed@@UAEHXZ
       1653  674 00070610 ?CheckIDs@EBuffaloMoveThroughMarkers@@UAEHXZ
       1654  675 00229500 ?CheckIDs@EBulletInit@@UAEHXZ
       1655  676 001A4BD0 ?CheckIDs@ECameraStart@@UAEHXZ
       1656  677 001A4CB0 ?CheckIDs@ECameraStop@@UAEHXZ
       1657  678 00004500 ?CheckIDs@ECenterMessage@@UAEHXZ
       1658  679 001F21E0 ?CheckIDs@EChangeAnim@@UAEHXZ
       1659  67A 0009F0F0 ?CheckIDs@EChangeDance@@UAEHXZ
       1660  67B 00201000 ?CheckIDs@EChangeGravity@@UAEHXZ
       1661  67C 00211A10 ?CheckIDs@EChangeMusic@@UAEHXZ
       1662  67D 00079B40 ?CheckIDs@EChiangWaitMode@@UAEHXZ
       1663  67E 00066430 ?CheckIDs@ECloseAttack@@UAEHXZ
       1664  67F 001A45D0 ?CheckIDs@ECombo@@UAEHXZ
       1665  680 00004590 ?CheckIDs@EComputerMessage@@UAEHXZ
       1666  681 001F8460 ?CheckIDs@ECopierTrigger@@UAEHXZ
       1667  682 0025B8B0 ?CheckIDs@ECoreDamage@@UAEHXZ
       1668  683 0025B730 ?CheckIDs@ECoreFlame@@UAEHXZ
       1669  684 0025B7F0 ?CheckIDs@ECoreGravity@@UAEHXZ
       1670  685 0025B6D0 ?CheckIDs@ECoreGrind@@UAEHXZ
       1671  686 0025B790 ?CheckIDs@ECorePress@@UAEHXZ
       1672  687 0025B850 ?CheckIDs@ECoreSwitcher@@UAEHXZ
       1673  688 000C3950 ?CheckIDs@ECounterCount@@UAEHXZ
       1674  689 001A43F0 ?CheckIDs@ECrazyBegin@@UAEHXZ
       1675  68A 001A4450 ?CheckIDs@ECrazyEnd@@UAEHXZ
       1676  68B 000044E0 ?CheckIDs@ECredits@@UAEHXZ
       1677  68C 000A32E0 ?CheckIDs@EDancerAcrobatRemoved@@UAEHXZ
       1678  68D 000A3340 ?CheckIDs@EDancerNormalCreated@@UAEHXZ
       1679  68E 00003790 ?CheckIDs@EDeactivate@@UAEHXZ
       1680  68F 00181E80 ?CheckIDs@EDeactivateBlend@@UAEHXZ
       1681  690 00066310 ?CheckIDs@EDefenseBullet@@UAEHXZ
       1682  691 0009EFD0 ?CheckIDs@EDirectDancers@@UAEHXZ
       1683  692 001A4DD0 ?CheckIDs@EDisconnected@@UAEHXZ
       1684  693 00120B20 ?CheckIDs@EDownMode@@UAEHXZ
       1685  694 001A44B0 ?CheckIDs@EDrugmodeBegin@@UAEHXZ
       1686  695 001A4510 ?CheckIDs@EDrugmodeEnd@@UAEHXZ
       1687  696 00003850 ?CheckIDs@EEnd@@UAEHXZ
       1688  697 000AF3C0 ?CheckIDs@EEndActor@@UAEHXZ
       1689  698 000AEF20 ?CheckIDs@EEnemyBaseDamage@@UAEHXZ
       1690  699 000AEFA0 ?CheckIDs@EEnemyBaseDeath@@UAEHXZ
       1691  69A 00004220 ?CheckIDs@EEntityVoice@@UAEHXZ
       1692  69B 000037D0 ?CheckIDs@EEnvironmentStart@@UAEHXZ
       1693  69C 00003810 ?CheckIDs@EEnvironmentStop@@UAEHXZ
       1694  69D 0022DF50 ?CheckIDs@EExplode@@UAEHXZ
       1695  69E 00003F00 ?CheckIDs@EExtraTeleport@@UAEHXZ
       1696  69F 0019F910 ?CheckIDs@EFireBombs@@UAEHXZ
       1697  6A0 00099AB0 ?CheckIDs@EFireDagger@@UAEHXZ
       1698  6A1 000969F0 ?CheckIDs@EFireDaggerNow@@UAEHXZ
       1699  6A2 00120A00 ?CheckIDs@EFireLightning@@UAEHXZ
       1700  6A3 00149470 ?CheckIDs@EFireRocket@@UAEHXZ
       1701  6A4 001A5390 ?CheckIDs@EFireWeapon@@UAEHXZ
       1702  6A5 0022C470 ?CheckIDs@EFlame@@UAEHXZ
       1703  6A6 0021FE40 ?CheckIDs@EFlipTheSwitch@@UAEHXZ
       1704  6A7 0018D360 ?CheckIDs@EFloatingScore@@UAEHXZ
       1705  6A8 000AEEA0 ?CheckIDs@EForceWound@@UAEHXZ
       1706  6A9 00099910 ?CheckIDs@EForward@@UAEHXZ
       1707  6AA 00116880 ?CheckIDs@EGetDamaged@@UAEHXZ
       1708  6AB 00149630 ?CheckIDs@EGoToBellMarker@@UAEHXZ
       1709  6AC 001A5870 ?CheckIDs@EGrenadeExplodeNow@@UAEHXZ
       1710  6AD 000042E0 ?CheckIDs@EGrindClose@@UAEHXZ
       1711  6AE 00004260 ?CheckIDs@EGrindInit@@UAEHXZ
       1712  6AF 00004360 ?CheckIDs@EGrindOff@@UAEHXZ
       1713  6B0 00004320 ?CheckIDs@EGrindOn@@UAEHXZ
       1714  6B1 000042A0 ?CheckIDs@EGrindOpen@@UAEHXZ
       1715  6B2 001166C0 ?CheckIDs@EGuard@@UAEHXZ
       1716  6B3 00113CF0 ?CheckIDs@EGuardState@@UAEHXZ
       1717  6B4 00248B70 ?CheckIDs@EHarbor@@UAEHXZ
       1718  6B5 00244620 ?CheckIDs@EHit@@UAEHXZ
       1719  6B6 000046F0 ?CheckIDs@EHitBySpaceShipBeam@@UAEHXZ
       1720  6B7 00003C90 ?CheckIDs@EHooker3@@UAEHXZ
       1721  6B8 00003D10 ?CheckIDs@EHooker@@UAEHXZ
       1722  6B9 00004460 ?CheckIDs@EHudPicFX@@UAEHXZ
       1723  6BA 000AF0C0 ?CheckIDs@EInDrugModeItem@@UAEHXZ
       1724  6BB 000AF280 ?CheckIDs@EInRange@@UAEHXZ
       1725  6BC 0019F850 ?CheckIDs@EInitMaria@@UAEHXZ
       1726  6BD 00265530 ?CheckIDs@EInitMariaNPC@@UAEHXZ
       1727  6BE 0026E5F0 ?CheckIDs@EItemHealthyFamily@@UAEHXZ
       1728  6BF 00079BA0 ?CheckIDs@EJump@@UAEHXZ
       1729  6C0 000733A0 ?CheckIDs@EJumpIntoRiceField@@UAEHXZ
       1730  6C1 00073340 ?CheckIDs@EJumpOutFromRiceField@@UAEHXZ
       1731  6C2 00196B20 ?CheckIDs@EKey@@UAEHXZ
       1732  6C3 00004000 ?CheckIDs@EKilledEnemy@@UAEHXZ
       1733  6C4 0010AE10 ?CheckIDs@ELamonBikeFireRocket@@UAEHXZ
       1734  6C5 0010AF40 ?CheckIDs@ELamonBikeMoveThroughMarkers@@UAEHXZ
       1735  6C6 0010AE80 ?CheckIDs@ELamonBikeOnMarker@@UAEHXZ
       1736  6C7 0010AEE0 ?CheckIDs@ELamonBikeSuicide@@UAEHXZ
       1737  6C8 00003A10 ?CheckIDs@ELamonGenerate@@UAEHXZ
       1738  6C9 001A48D0 ?CheckIDs@ELandingActiveMaria@@UAEHXZ
       1739  6CA 001A4690 ?CheckIDs@ELandingMaria@@UAEHXZ
       1740  6CB 0019F8B0 ?CheckIDs@ELaunch@@UAEHXZ
       1741  6CC 001A4810 ?CheckIDs@ELaunchActiveMaria@@UAEHXZ
       1742  6CD 00004080 ?CheckIDs@ELaunchAx@@UAEHXZ
       1743  6CE 001A4630 ?CheckIDs@ELaunchMaria@@UAEHXZ
       1744  6CF 00003BC0 ?CheckIDs@ELaunchMariaNPC@@UAEHXZ
       1745  6D0 0022DF10 ?CheckIDs@ELaunchProjectile@@UAEHXZ
       1746  6D1 00099850 ?CheckIDs@ELeft@@UAEHXZ
       1747  6D2 00003B10 ?CheckIDs@ELisa@@UAEHXZ
       1748  6D3 0019C070 ?CheckIDs@EMarkPicked@@UAEHXZ
       1749  6D4 0024A640 ?CheckIDs@EMarkerPassed@@UAEHXZ
       1750  6D5 00197EB0 ?CheckIDs@EMessageItem@@UAEHXZ
       1751  6D6 00207650 ?CheckIDs@EModel2Activate@@UAEHXZ
       1752  6D7 002076B0 ?CheckIDs@EModel2Deactivate@@UAEHXZ
       1753  6D8 0020A040 ?CheckIDs@EModel3Activate@@UAEHXZ
       1754  6D9 0020A0A0 ?CheckIDs@EModel3Deactivate@@UAEHXZ
       1755  6DA 002171A0 ?CheckIDs@EModelChange@@UAEHXZ
       1756  6DB 00204720 ?CheckIDs@EModelDeath@@UAEHXZ
       1757  6DC 002172C0 ?CheckIDs@EModelDeathSpawnAmmoItem@@UAEHXZ
       1758  6DD 00217260 ?CheckIDs@EModelDeathSpawnArmorItem@@UAEHXZ
       1759  6DE 00217200 ?CheckIDs@EModelDeathSpawnHealthItem@@UAEHXZ
       1760  6DF 00217320 ?CheckIDs@EModelDeathSpawnSpecialItem@@UAEHXZ
       1761  6E0 00003EE0 ?CheckIDs@EModelSelfDestruction@@UAEHXZ
       1762  6E1 001496F0 ?CheckIDs@EMoveToDestMarker@@UAEHXZ
       1763  6E2 00211140 ?CheckIDs@EMusicChangerTrigger@@UAEHXZ
       1764  6E3 00211A80 ?CheckIDs@ENetChangeMusic@@UAEHXZ
       1765  6E4 001A5750 ?CheckIDs@ENetFireWeapon@@UAEHXZ
       1766  6E5 001A57B0 ?CheckIDs@ENetReleaseWeapon@@UAEHXZ
       1767  6E6 001A5810 ?CheckIDs@ENetReloadWeapon@@UAEHXZ
       1768  6E7 001A56F0 ?CheckIDs@ENetSelectWeapon@@UAEHXZ
       1769  6E8 000CBE90 ?CheckIDs@ENetSpawnEntity@@UAEHXZ
       1770  6E9 00186E60 ?CheckIDs@ENetTrigger@@UAEHXZ
       1771  6EA 000046B0 ?CheckIDs@EObjectiveCompletedMessage@@UAEHXZ
       1772  6EB 00149550 ?CheckIDs@EOnMarker@@UAEHXZ
       1773  6EC 00003FE0 ?CheckIDs@EOnPeerDead@@UAEHXZ
       1774  6ED 000AF1A0 ?CheckIDs@EOutDrugModeItem@@UAEHXZ
       1775  6EE 000AF360 ?CheckIDs@EOutRange@@UAEHXZ
       1776  6EF 00214AD0 ?CheckIDs@EParticlesActivate@@UAEHXZ
       1777  6F0 00214B10 ?CheckIDs@EParticlesDeactivate@@UAEHXZ
       1778  6F1 00211920 ?CheckIDs@EPlayEcstasy@@UAEHXZ
       1779  6F2 0021F1A0 ?CheckIDs@EPlaySoundOnce@@UAEHXZ
       1780  6F3 001A5030 ?CheckIDs@EPlayerDeath@@UAEHXZ
       1781  6F4 00120AC0 ?CheckIDs@EPlayerInCloseRange@@UAEHXZ
       1782  6F5 001A4FB0 ?CheckIDs@EPlayerKilledEnemy@@UAEHXZ
       1783  6F6 001A4D70 ?CheckIDs@EPlayerRebirth@@UAEHXZ
       1784  6F7 001A5100 ?CheckIDs@EPlayerStats@@UAEHXZ
       1785  6F8 00198740 ?CheckIDs@EPowerUp@@UAEHXZ
       1786  6F9 00149690 ?CheckIDs@EPriestStart@@UAEHXZ
       1787  6FA 00242610 ?CheckIDs@EProjectileSpawnClient@@UAEHXZ
       1788  6FB 00003F40 ?CheckIDs@EProtectorFire@@UAEHXZ
       1789  6FC 001168E0 ?CheckIDs@EProtectorsCleared@@UAEHXZ
       1790  6FD 001A5630 ?CheckIDs@EPutDown@@UAEHXZ
       1791  6FE 0027E2A0 ?CheckIDs@ERHawkDeath@@UAEHXZ
       1792  6FF 002046C0 ?CheckIDs@ERangeModelDestruction@@UAEHXZ
       1793  700 001A4D10 ?CheckIDs@ERebirth@@UAEHXZ
       1794  701 00003EA0 ?CheckIDs@EReceiveScore@@UAEHXZ
       1795  702 0019BF80 ?CheckIDs@EReceiveSkaItem@@UAEHXZ
       1796  703 000AEE40 ?CheckIDs@EReconsiderBehavior@@UAEHXZ
       1797  704 001A53F0 ?CheckIDs@EReleaseWeapon@@UAEHXZ
       1798  705 001A5570 ?CheckIDs@EReloadChtGiveall@@UAEHXZ
       1799  706 001A5510 ?CheckIDs@EReloadGetAmmo@@UAEHXZ
       1800  707 001A5450 ?CheckIDs@EReloadWeapon@@UAEHXZ
       1801  708 000039D0 ?CheckIDs@EReminder@@UAEHXZ
       1802  709 000592A0 ?CheckIDs@EReminderInit@@UAEHXZ
       1803  70A 000AEDE0 ?CheckIDs@ERestartAttack@@UAEHXZ
       1804  70B 000998B0 ?CheckIDs@ERight@@UAEHXZ
       1805  70C 00073400 ?CheckIDs@ERightAttack@@UAEHXZ
       1806  70D 00079C00 ?CheckIDs@ERightFire@@UAEHXZ
       1807  70E 001A5690 ?CheckIDs@ERigidityWeapon@@UAEHXZ
       1808  70F 000999E0 ?CheckIDs@ERotateLeft@@UAEHXZ
       1809  710 00099A50 ?CheckIDs@ERotateRight@@UAEHXZ
       1810  711 00004120 ?CheckIDs@EScroll@@UAEHXZ
       1811  712 00004040 ?CheckIDs@ESecretFound@@UAEHXZ
       1812  713 001A52D0 ?CheckIDs@ESelectWeapon@@UAEHXZ
       1813  714 001A4710 ?CheckIDs@ESetPlayerWeapon@@UAEHXZ
       1814  715 0019C0D0 ?CheckIDs@ESetType@@UAEHXZ
       1815  716 001F3930 ?CheckIDs@ESetViewer@@UAEHXZ
       1816  717 001A5090 ?CheckIDs@EShowConsole@@UAEHXZ
       1817  718 001995D0 ?CheckIDs@ESkaAmmoItem@@UAEHXZ
       1818  719 0019A210 ?CheckIDs@ESkaArmor@@UAEHXZ
       1819  71A 0019AF70 ?CheckIDs@ESkaHealth@@UAEHXZ
       1820  71B 00003EC0 ?CheckIDs@ESkaMovingModelDestruction@@UAEHXZ
       1821  71C 0019D4A0 ?CheckIDs@ESkaSpecialItem@@UAEHXZ
       1822  71D 000040A0 ?CheckIDs@ESound@@UAEHXZ
       1823  71E 001836D0 ?CheckIDs@ESpawnDebris@@UAEHXZ
       1824  71F 00185460 ?CheckIDs@ESpawnDebrisSka@@UAEHXZ
       1825  720 0017CDC0 ?CheckIDs@ESpawnEffect@@UAEHXZ
       1826  721 001882D0 ?CheckIDs@ESpawnEffector@@UAEHXZ
       1827  722 00189640 ?CheckIDs@ESpawnFXEmiter@@UAEHXZ
       1828  723 0022DFD0 ?CheckIDs@ESpawnFlame@@UAEHXZ
       1829  724 00182590 ?CheckIDs@ESpawnSpray@@UAEHXZ
       1830  725 002425B0 ?CheckIDs@ESpawnerProjectile@@UAEHXZ
       1831  726 00099B50 ?CheckIDs@ESpawning@@UAEHXZ
       1832  727 00003710 ?CheckIDs@EStart@@UAEHXZ
       1833  728 00003D50 ?CheckIDs@EStartAttack@@UAEHXZ
       1834  729 000C3890 ?CheckIDs@EStartCounter@@UAEHXZ
       1835  72A 0009F030 ?CheckIDs@EStartDancers@@UAEHXZ
       1836  72B 001A4A10 ?CheckIDs@EStartPulling@@UAEHXZ
       1837  72C 002446E0 ?CheckIDs@EStartSounds@@UAEHXZ
       1838  72D 0019F9D0 ?CheckIDs@EStealth@@UAEHXZ
       1839  72E 001A4930 ?CheckIDs@EStepBack@@UAEHXZ
       1840  72F 00003690 ?CheckIDs@EStop@@UAEHXZ
       1841  730 00003D90 ?CheckIDs@EStopAttack@@UAEHXZ
       1842  731 00003DD0 ?CheckIDs@EStopBlindness@@UAEHXZ
       1843  732 000C38F0 ?CheckIDs@EStopCounter@@UAEHXZ
       1844  733 00099B10 ?CheckIDs@EStopDanceMode@@UAEHXZ
       1845  734 0009F090 ?CheckIDs@EStopDancers@@UAEHXZ
       1846  735 00003E10 ?CheckIDs@EStopDeafness@@UAEHXZ
       1847  736 0022C4F0 ?CheckIDs@EStopFlaming@@UAEHXZ
       1848  737 00120A60 ?CheckIDs@EStopLightning@@UAEHXZ
       1849  738 001A4AF0 ?CheckIDs@EStopPulling@@UAEHXZ
       1850  739 00244740 ?CheckIDs@EStopSounds@@UAEHXZ
       1851  73A 0018ED70 ?CheckIDs@EStormEnvironmentStart@@UAEHXZ
       1852  73B 0018EDD0 ?CheckIDs@EStormStart@@UAEHXZ
       1853  73C 0018EE30 ?CheckIDs@EStormStop@@UAEHXZ
       1854  73D 00221140 ?CheckIDs@ETeleportActivate@@UAEHXZ
       1855  73E 002211A0 ?CheckIDs@ETeleportDeactivate@@UAEHXZ
       1856  73F 00003990 ?CheckIDs@ETeleportMovingBrush@@UAEHXZ
       1857  740 000041A0 ?CheckIDs@ETextFX@@UAEHXZ
       1858  741 00222F40 ?CheckIDs@EToasterTrigger@@UAEHXZ
       1859  742 002240D0 ?CheckIDs@ETorpedoDamage@@UAEHXZ
       1860  743 00224070 ?CheckIDs@ETorpedoExplode@@UAEHXZ
       1861  744 000038D0 ?CheckIDs@ETrigger@@UAEHXZ
       1862  745 00003950 ?CheckIDs@ETriggerActionMarker@@UAEHXZ
       1863  746 00188350 ?CheckIDs@ETriggerEffector@@UAEHXZ
       1864  747 0018D990 ?CheckIDs@ETriggerLightning@@UAEHXZ
       1865  748 001CE3E0 ?CheckIDs@EViewInit@@UAEHXZ
       1866  749 00004620 ?CheckIDs@EVoiceMessage@@UAEHXZ
       1867  74A 00116780 ?CheckIDs@EWaitMode@@UAEHXZ
       1868  74B 000732E0 ?CheckIDs@EWaitOnRiceField@@UAEHXZ
       1869  74C 0005B730 ?CheckIDs@EWatch@@UAEHXZ
       1870  74D 0005B640 ?CheckIDs@EWatcherInit@@UAEHXZ
       1871  74E 00243540 ?CheckIDs@EWater@@UAEHXZ
       1872  74F 001A54B0 ?CheckIDs@EWeaponChanged@@UAEHXZ
       1873  750 001E3610 ?CheckIDs@EWeaponEffectInit@@UAEHXZ
       1874  751 0019DF50 ?CheckIDs@EWeaponItem@@UAEHXZ
       1875  752 001A5270 ?CheckIDs@EWeaponsInit@@UAEHXZ
       1876  753 001947D0 ?CheckIDs@EWeatherStart@@UAEHXZ
       1877  754 00194810 ?CheckIDs@EWeatherStop@@UAEHXZ
       1878  755 001A4570 ?CheckIDs@EWhip@@UAEHXZ
       1879  756 00258270 ?CheckIDs@EbflameOff@@UAEHXZ
       1880  757 002581B0 ?CheckIDs@EbflameOn@@UAEHXZ
       1881  758 00258210 ?CheckIDs@Ebflame_ing@@UAEHXZ
       1882  759 0005B8F0 ?CheckIfPlayerVisible@CWatcher@@QAEXXZ
       1883  75A 001C2040 ?CheckMaria_CanbeLaunched@CPlayer@@QAEHXZ
       1884  75B 001B0C30 ?CheckScoreAwards@CPlayer@@QAEXJJ@Z
       1885  75C 000BC1E0 ?CheckTouchForPathFinding@CEnemyBase@@QAEHABVETouch@@@Z
       1886  75D 003BFBE0 ?ChickenAttackType_enum@@3VCEntityPropertyEnumType@@A
       1887  75E 003BFBD0 ?ChickenAttackType_values@@3PAVCEntityPropertyEnumValue@@A
       1888  75F 003BF858 ?ChickenMovementType_enum@@3VCEntityPropertyEnumType@@A
       1889  760 003BF848 ?ChickenMovementType_values@@3PAVCEntityPropertyEnumValue@@A
       1890  761 003BFBC8 ?ChickenStickyMovementType_enum@@3VCEntityPropertyEnumType@@A
       1891  762 003BFBB8 ?ChickenStickyMovementType_values@@3PAVCEntityPropertyEnumValue@@A
       1892  763 001A8E70 ?ChopskiAnimation@CPlayer@@QAEXJKMMM@Z
       1893  764 001D97D0 ?ClampAllAmmo@CPlayerWeapons@@QAEXXZ
       1894  765 003BC570 ?ClasificationBits_enum@@3VCEntityPropertyEnumType@@A
       1895  766 003BC470 ?ClasificationBits_values@@3PAVCEntityPropertyEnumValue@@A
       1896  767 00010BD0 ?Clear@CCompMessageID@@QAEXXZ
       1897  768 001A6CF0 ?ClearActionApplied@CPlayer@@UAEXXZ
       1898  769 001A9360 ?ClearBulletSprayLaunchData@CPlayer@@QAEXXZ
       1899  76A 002601F0 ?ClearComboCount@CComboManger@@QAEXXZ
       1900  76B 000AFB90 ?ClearComboCount@CEnemyBase@@QAEXXZ
       1901  76C 001A9460 ?ClearGoreSprayLaunchData@CPlayer@@QAEXXZ
       1902  76D 001A6820 ?ClearHUDAnimData@CPlayer@@QAEXXZ
       1903  76E 001A6D20 ?ClearReapplyingActions@CPlayer@@UAEXXZ
       1904  76F 001A9780 ?ClearScore@CPlayer@@QAEXXZ
       1905  770 001A9280 ?ClearShellLaunchData@CPlayer@@QAEXXZ
       1906  771 000565C0 ?ClearToDefault@@YAXAAVEActivate@@@Z
       1907  772 001823D0 ?ClearToDefault@@YAXAAVEActivateBlend@@@Z
       1908  773 0000B880 ?ClearToDefault@@YAXAAVEActiveMariaDie@@@Z
       1909  774 0000D0F0 ?ClearToDefault@@YAXAAVEAddBulletSpray@@@Z
       1910  775 0000D2A0 ?ClearToDefault@@YAXAAVEAddGoreSpray@@@Z
       1911  776 001134B0 ?ClearToDefault@@YAXAAVEAlert@@@Z
       1912  777 000232D0 ?ClearToDefault@@YAXAAVEAmmoPackItem@@@Z
       1913  778 0024E890 ?ClearToDefault@@YAXAAVEAnimForDamage@@@Z
       1914  779 001A34C0 ?ClearToDefault@@YAXAAVEAnimatorInit@@@Z
       1915  77A 0000C710 ?ClearToDefault@@YAXAAVEAutoAction@@@Z
       1916  77B 00057640 ?ClearToDefault@@YAXAAVEAvoidProjectiles@@@Z
       1917  77C 000580E0 ?ClearToDefault@@YAXAAVEBFlame@@@Z
       1918  77D 00058070 ?ClearToDefault@@YAXAAVEBGravity@@@Z
       1919  77E 001A2D30 ?ClearToDefault@@YAXAAVEBackMaria@@@Z
       1920  77F 00056E00 ?ClearToDefault@@YAXAAVEBackMariaNPC@@@Z
       1921  780 0009E930 ?ClearToDefault@@YAXAAVEBackward@@@Z
       1922  781 00056B20 ?ClearToDefault@@YAXAAVEBasket@@@Z
       1923  782 0000FAE0 ?ClearToDefault@@YAXAAVEBlowUp@@@Z
       1924  783 00057220 ?ClearToDefault@@YAXAAVEBonus@@@Z
       1925  784 001968E0 ?ClearToDefault@@YAXAAVEBoosterPack@@@Z
       1926  785 0000D6A0 ?ClearToDefault@@YAXAAVEBoringWeapon@@@Z
       1927  786 00113780 ?ClearToDefault@@YAXAAVEBossWounded@@@Z
       1928  787 0000DDA0 ?ClearToDefault@@YAXAAVEBringUp@@@Z
       1929  788 00009FD0 ?ClearToDefault@@YAXAAVEBruceDefenseFinished@@@Z
       1930  789 0006FB00 ?ClearToDefault@@YAXAAVEBruceDefenseProjectiles@@@Z
       1931  78A 0006F920 ?ClearToDefault@@YAXAAVEBruceGo@@@Z
       1932  78B 0006F8F0 ?ClearToDefault@@YAXAAVEBruceReady@@@Z
       1933  78C 0006F860 ?ClearToDefault@@YAXAAVEBruceTeleport@@@Z
       1934  78D 000AE490 ?ClearToDefault@@YAXAAVEBrushDeath@@@Z
       1935  78E 000AE100 ?ClearToDefault@@YAXAAVEBrushDestroyed@@@Z
       1936  78F 00072B60 ?ClearToDefault@@YAXAAVEBuffaloMoveThroughMarkers@@@Z
       1937  790 000105B0 ?ClearToDefault@@YAXAAVEBulletInit@@@Z
       1938  791 0000BFF0 ?ClearToDefault@@YAXAAVECameraStart@@@Z
       1939  792 0000C1E0 ?ClearToDefault@@YAXAAVECameraStop@@@Z
       1940  793 00058350 ?ClearToDefault@@YAXAAVECenterMessage@@@Z
       1941  794 00001490 ?ClearToDefault@@YAXAAVEChangeAnim@@@Z
       1942  795 000A0FB0 ?ClearToDefault@@YAXAAVEChangeDance@@@Z
       1943  796 00200E40 ?ClearToDefault@@YAXAAVEChangeGravity@@@Z
       1944  797 0000F060 ?ClearToDefault@@YAXAAVEChangeMusic@@@Z
       1945  798 0007F030 ?ClearToDefault@@YAXAAVEChiangWaitMode@@@Z
       1946  799 0006F950 ?ClearToDefault@@YAXAAVECloseAttack@@@Z
       1947  79A 0000B170 ?ClearToDefault@@YAXAAVECombo@@@Z
       1948  79B 00058430 ?ClearToDefault@@YAXAAVEComputerMessage@@@Z
       1949  79C 001F9030 ?ClearToDefault@@YAXAAVECopierTrigger@@@Z
       1950  79D 0025F0E0 ?ClearToDefault@@YAXAAVECoreDamage@@@Z
       1951  79E 0025F020 ?ClearToDefault@@YAXAAVECoreFlame@@@Z
       1952  79F 0025F080 ?ClearToDefault@@YAXAAVECoreGravity@@@Z
       1953  7A0 0025EFF0 ?ClearToDefault@@YAXAAVECoreGrind@@@Z
       1954  7A1 0025F050 ?ClearToDefault@@YAXAAVECorePress@@@Z
       1955  7A2 0025F0B0 ?ClearToDefault@@YAXAAVECoreSwitcher@@@Z
       1956  7A3 000244B0 ?ClearToDefault@@YAXAAVECounterCount@@@Z
       1957  7A4 0000AC40 ?ClearToDefault@@YAXAAVECrazyBegin@@@Z
       1958  7A5 0000AD40 ?ClearToDefault@@YAXAAVECrazyEnd@@@Z
       1959  7A6 00058270 ?ClearToDefault@@YAXAAVECredits@@@Z
       1960  7A7 00096730 ?ClearToDefault@@YAXAAVEDancerAcrobatRemoved@@@Z
       1961  7A8 00096830 ?ClearToDefault@@YAXAAVEDancerNormalCreated@@@Z
       1962  7A9 00056630 ?ClearToDefault@@YAXAAVEDeactivate@@@Z
       1963  7AA 00182480 ?ClearToDefault@@YAXAAVEDeactivateBlend@@@Z
       1964  7AB 0006FB70 ?ClearToDefault@@YAXAAVEDefenseBullet@@@Z
       1965  7AC 000A0F20 ?ClearToDefault@@YAXAAVEDirectDancers@@@Z
       1966  7AD 0000C580 ?ClearToDefault@@YAXAAVEDisconnected@@@Z
       1967  7AE 0012DCD0 ?ClearToDefault@@YAXAAVEDownMode@@@Z
       1968  7AF 0000AE40 ?ClearToDefault@@YAXAAVEDrugmodeBegin@@@Z
       1969  7B0 0000AF40 ?ClearToDefault@@YAXAAVEDrugmodeEnd@@@Z
       1970  7B1 00056780 ?ClearToDefault@@YAXAAVEEnd@@@Z
       1971  7B2 000103D0 ?ClearToDefault@@YAXAAVEEndActor@@@Z
       1972  7B3 0000F710 ?ClearToDefault@@YAXAAVEEnemyBaseDamage@@@Z
       1973  7B4 0000F910 ?ClearToDefault@@YAXAAVEEnemyBaseDeath@@@Z
       1974  7B5 00057D60 ?ClearToDefault@@YAXAAVEEntityVoice@@@Z
       1975  7B6 000566A0 ?ClearToDefault@@YAXAAVEEnvironmentStart@@@Z
       1976  7B7 00056710 ?ClearToDefault@@YAXAAVEEnvironmentStop@@@Z
       1977  7B8 00003280 ?ClearToDefault@@YAXAAVEExplode@@@Z
       1978  7B9 000574F0 ?ClearToDefault@@YAXAAVEExtraTeleport@@@Z
       1979  7BA 001A2D00 ?ClearToDefault@@YAXAAVEFireBombs@@@Z
       1980  7BB 0009E9F0 ?ClearToDefault@@YAXAAVEFireDagger@@@Z
       1981  7BC 00098E10 ?ClearToDefault@@YAXAAVEFireDaggerNow@@@Z
       1982  7BD 0012DBF0 ?ClearToDefault@@YAXAAVEFireLightning@@@Z
       1983  7BE 000AE6A0 ?ClearToDefault@@YAXAAVEFireRocket@@@Z
       1984  7BF 0000D7A0 ?ClearToDefault@@YAXAAVEFireWeapon@@@Z
       1985  7C0 00002D60 ?ClearToDefault@@YAXAAVEFlame@@@Z
       1986  7C1 001A41B0 ?ClearToDefault@@YAXAAVEFlipTheSwitch@@@Z
       1987  7C2 0018D790 ?ClearToDefault@@YAXAAVEFloatingScore@@@Z
       1988  7C3 0000F500 ?ClearToDefault@@YAXAAVEForceWound@@@Z
       1989  7C4 0009E8F0 ?ClearToDefault@@YAXAAVEForward@@@Z
       1990  7C5 001139D0 ?ClearToDefault@@YAXAAVEGetDamaged@@@Z
       1991  7C6 000AEA90 ?ClearToDefault@@YAXAAVEGoToBellMarker@@@Z
       1992  7C7 0000E4F0 ?ClearToDefault@@YAXAAVEGrenadeExplodeNow@@@Z
       1993  7C8 00057F20 ?ClearToDefault@@YAXAAVEGrindClose@@@Z
       1994  7C9 00057E30 ?ClearToDefault@@YAXAAVEGrindInit@@@Z
       1995  7CA 00058000 ?ClearToDefault@@YAXAAVEGrindOff@@@Z
       1996  7CB 00057F90 ?ClearToDefault@@YAXAAVEGrindOn@@@Z
       1997  7CC 00057EA0 ?ClearToDefault@@YAXAAVEGrindOpen@@@Z
       1998  7CD 00113370 ?ClearToDefault@@YAXAAVEGuard@@@Z
       1999  7CE 00116450 ?ClearToDefault@@YAXAAVEGuardState@@@Z
       2000  7CF 00249ED0 ?ClearToDefault@@YAXAAVEHarbor@@@Z
       2001  7D0 000AE000 ?ClearToDefault@@YAXAAVEHit@@@Z
       2002  7D1 00058690 ?ClearToDefault@@YAXAAVEHitBySpaceShipBeam@@@Z
       2003  7D2 00056ED0 ?ClearToDefault@@YAXAAVEHooker3@@@Z
       2004  7D3 00056F70 ?ClearToDefault@@YAXAAVEHooker@@@Z
       2005  7D4 00058180 ?ClearToDefault@@YAXAAVEHudPicFX@@@Z
       2006  7D5 0000FCA0 ?ClearToDefault@@YAXAAVEInDrugModeItem@@@Z
       2007  7D6 00010080 ?ClearToDefault@@YAXAAVEInRange@@@Z
       2008  7D7 001A2C40 ?ClearToDefault@@YAXAAVEInitMaria@@@Z
       2009  7D8 0005B3D0 ?ClearToDefault@@YAXAAVEInitMariaNPC@@@Z
       2010  7D9 001A42D0 ?ClearToDefault@@YAXAAVEItemHealthyFamily@@@Z
       2011  7DA 0007F060 ?ClearToDefault@@YAXAAVEJump@@@Z
       2012  7DB 00078D90 ?ClearToDefault@@YAXAAVEJumpIntoRiceField@@@Z
       2013  7DC 00078D60 ?ClearToDefault@@YAXAAVEJumpOutFromRiceField@@@Z
       2014  7DD 00197B60 ?ClearToDefault@@YAXAAVEKey@@@Z
       2015  7DE 000577F0 ?ClearToDefault@@YAXAAVEKilledEnemy@@@Z
       2016  7DF 00111D50 ?ClearToDefault@@YAXAAVELamonBikeFireRocket@@@Z
       2017  7E0 00111E00 ?ClearToDefault@@YAXAAVELamonBikeMoveThroughMarkers@@@Z
       2018  7E1 00111D80 ?ClearToDefault@@YAXAAVELamonBikeOnMarker@@@Z
       2019  7E2 00111DC0 ?ClearToDefault@@YAXAAVELamonBikeSuicide@@@Z
       2020  7E3 00056AA0 ?ClearToDefault@@YAXAAVELamonGenerate@@@Z
       2021  7E4 0000B980 ?ClearToDefault@@YAXAAVELandingActiveMaria@@@Z
       2022  7E5 0000B3C0 ?ClearToDefault@@YAXAAVELandingMaria@@@Z
       2023  7E6 001A2CD0 ?ClearToDefault@@YAXAAVELaunch@@@Z
       2024  7E7 0000B720 ?ClearToDefault@@YAXAAVELaunchActiveMaria@@@Z
       2025  7E8 000579E0 ?ClearToDefault@@YAXAAVELaunchAx@@@Z
       2026  7E9 0000B280 ?ClearToDefault@@YAXAAVELaunchMaria@@@Z
       2027  7EA 00056D30 ?ClearToDefault@@YAXAAVELaunchMariaNPC@@@Z
       2028  7EB 00003110 ?ClearToDefault@@YAXAAVELaunchProjectile@@@Z
       2029  7EC 0009E870 ?ClearToDefault@@YAXAAVELeft@@@Z
       2030  7ED 00056C10 ?ClearToDefault@@YAXAAVELisa@@@Z
       2031  7EE 00001780 ?ClearToDefault@@YAXAAVEMarkPicked@@@Z
       2032  7EF 0024E800 ?ClearToDefault@@YAXAAVEMarkerPassed@@@Z
       2033  7F0 00198400 ?ClearToDefault@@YAXAAVEMessageItem@@@Z
       2034  7F1 00001260 ?ClearToDefault@@YAXAAVEModel2Activate@@@Z
       2035  7F2 000012E0 ?ClearToDefault@@YAXAAVEModel2Deactivate@@@Z
       2036  7F3 00002510 ?ClearToDefault@@YAXAAVEModel3Activate@@@Z
       2037  7F4 00002610 ?ClearToDefault@@YAXAAVEModel3Deactivate@@@Z
       2038  7F5 00001F80 ?ClearToDefault@@YAXAAVEModelChange@@@Z
       2039  7F6 00002930 ?ClearToDefault@@YAXAAVEModelDeath@@@Z
       2040  7F7 000022E0 ?ClearToDefault@@YAXAAVEModelDeathSpawnAmmoItem@@@Z
       2041  7F8 000021C0 ?ClearToDefault@@YAXAAVEModelDeathSpawnArmorItem@@@Z
       2042  7F9 000020A0 ?ClearToDefault@@YAXAAVEModelDeathSpawnHealthItem@@@Z
       2043  7FA 00002400 ?ClearToDefault@@YAXAAVEModelDeathSpawnSpecialItem@@@Z
       2044  7FB 00057440 ?ClearToDefault@@YAXAAVEModelSelfDestruction@@@Z
       2045  7FC 000AECF0 ?ClearToDefault@@YAXAAVEMoveToDestMarker@@@Z
       2046  7FD 00211780 ?ClearToDefault@@YAXAAVEMusicChangerTrigger@@@Z
       2047  7FE 0000F1E0 ?ClearToDefault@@YAXAAVENetChangeMusic@@@Z
       2048  7FF 0000E1C0 ?ClearToDefault@@YAXAAVENetFireWeapon@@@Z
       2049  800 0000E2F0 ?ClearToDefault@@YAXAAVENetReleaseWeapon@@@Z
       2050  801 0000E3F0 ?ClearToDefault@@YAXAAVENetReloadWeapon@@@Z
       2051  802 0000E0B0 ?ClearToDefault@@YAXAAVENetSelectWeapon@@@Z
       2052  803 00010B90 ?ClearToDefault@@YAXAAVENetSpawnEntity@@@Z
       2053  804 00188150 ?ClearToDefault@@YAXAAVENetTrigger@@@Z
       2054  805 000585D0 ?ClearToDefault@@YAXAAVEObjectiveCompletedMessage@@@Z
       2055  806 000AE8A0 ?ClearToDefault@@YAXAAVEOnMarker@@@Z
       2056  807 00057700 ?ClearToDefault@@YAXAAVEOnPeerDead@@@Z
       2057  808 0000FE90 ?ClearToDefault@@YAXAAVEOutDrugModeItem@@@Z
       2058  809 00010270 ?ClearToDefault@@YAXAAVEOutRange@@@Z
       2059  80A 00215B60 ?ClearToDefault@@YAXAAVEParticlesActivate@@@Z
       2060  80B 00215C10 ?ClearToDefault@@YAXAAVEParticlesDeactivate@@@Z
       2061  80C 0000EEA0 ?ClearToDefault@@YAXAAVEPlayEcstasy@@@Z
       2062  80D 00002730 ?ClearToDefault@@YAXAAVEPlaySoundOnce@@@Z
       2063  80E 0000CD00 ?ClearToDefault@@YAXAAVEPlayerDeath@@@Z
       2064  80F 0012DCA0 ?ClearToDefault@@YAXAAVEPlayerInCloseRange@@@Z
       2065  810 0000CA00 ?ClearToDefault@@YAXAAVEPlayerKilledEnemy@@@Z
       2066  811 0000C450 ?ClearToDefault@@YAXAAVEPlayerRebirth@@@Z
       2067  812 0000CF70 ?ClearToDefault@@YAXAAVEPlayerStats@@@Z
       2068  813 00199480 ?ClearToDefault@@YAXAAVEPowerUp@@@Z
       2069  814 000AEBF0 ?ClearToDefault@@YAXAAVEPriestStart@@@Z
       2070  815 00243370 ?ClearToDefault@@YAXAAVEProjectileSpawnClient@@@Z
       2071  816 00057580 ?ClearToDefault@@YAXAAVEProtectorFire@@@Z
       2072  817 00113B10 ?ClearToDefault@@YAXAAVEProtectorsCleared@@@Z
       2073  818 0000DEA0 ?ClearToDefault@@YAXAAVEPutDown@@@Z
       2074  819 0027FAC0 ?ClearToDefault@@YAXAAVERHawkDeath@@@Z
       2075  81A 00002830 ?ClearToDefault@@YAXAAVERangeModelDestruction@@@Z
       2076  81B 0000C340 ?ClearToDefault@@YAXAAVERebirth@@@Z
       2077  81C 000572B0 ?ClearToDefault@@YAXAAVEReceiveScore@@@Z
       2078  81D 000015F0 ?ClearToDefault@@YAXAAVEReceiveSkaItem@@@Z
       2079  81E 0000F400 ?ClearToDefault@@YAXAAVEReconsiderBehavior@@@Z
       2080  81F 0000D8A0 ?ClearToDefault@@YAXAAVEReleaseWeapon@@@Z
       2081  820 0000DCA0 ?ClearToDefault@@YAXAAVEReloadChtGiveall@@@Z
       2082  821 0000DBA0 ?ClearToDefault@@YAXAAVEReloadGetAmmo@@@Z
       2083  822 0000D9A0 ?ClearToDefault@@YAXAAVEReloadWeapon@@@Z
       2084  823 00056A20 ?ClearToDefault@@YAXAAVEReminder@@@Z
       2085  824 0000AA60 ?ClearToDefault@@YAXAAVEReminderInit@@@Z
       2086  825 0000F300 ?ClearToDefault@@YAXAAVERestartAttack@@@Z
       2087  826 0009E8B0 ?ClearToDefault@@YAXAAVERight@@@Z
       2088  827 00078DC0 ?ClearToDefault@@YAXAAVERightAttack@@@Z
       2089  828 0007F090 ?ClearToDefault@@YAXAAVERightFire@@@Z
       2090  829 0000DFA0 ?ClearToDefault@@YAXAAVERigidityWeapon@@@Z
       2091  82A 0009E970 ?ClearToDefault@@YAXAAVERotateLeft@@@Z
       2092  82B 0009E9B0 ?ClearToDefault@@YAXAAVERotateRight@@@Z
       2093  82C 00057B80 ?ClearToDefault@@YAXAAVEScroll@@@Z
       2094  82D 000578D0 ?ClearToDefault@@YAXAAVESecretFound@@@Z
       2095  82E 0000D590 ?ClearToDefault@@YAXAAVESelectWeapon@@@Z
       2096  82F 0000B520 ?ClearToDefault@@YAXAAVESetPlayerWeapon@@@Z
       2097  830 000018E0 ?ClearToDefault@@YAXAAVESetType@@@Z
       2098  831 00010A10 ?ClearToDefault@@YAXAAVESetViewer@@@Z
       2099  832 0000CE40 ?ClearToDefault@@YAXAAVEShowConsole@@@Z
       2100  833 00001CC0 ?ClearToDefault@@YAXAAVESkaAmmoItem@@@Z
       2101  834 00001B80 ?ClearToDefault@@YAXAAVESkaArmor@@@Z
       2102  835 00001A40 ?ClearToDefault@@YAXAAVESkaHealth@@@Z
       2103  836 00057370 ?ClearToDefault@@YAXAAVESkaMovingModelDestruction@@@Z
       2104  837 00001E00 ?ClearToDefault@@YAXAAVESkaSpecialItem@@@Z
       2105  838 00057A90 ?ClearToDefault@@YAXAAVESound@@@Z
       2106  839 00009E00 ?ClearToDefault@@YAXAAVESpawnDebris@@@Z
       2107  83A 0001CA00 ?ClearToDefault@@YAXAAVESpawnDebrisSka@@@Z
       2108  83B 00002BB0 ?ClearToDefault@@YAXAAVESpawnEffect@@@Z
       2109  83C 00186BE0 ?ClearToDefault@@YAXAAVESpawnEffector@@@Z
       2110  83D 00009500 ?ClearToDefault@@YAXAAVESpawnFXEmiter@@@Z
       2111  83E 00003490 ?ClearToDefault@@YAXAAVESpawnFlame@@@Z
       2112  83F 000011A0 ?ClearToDefault@@YAXAAVESpawnSpray@@@Z
       2113  840 00243260 ?ClearToDefault@@YAXAAVESpawnerProjectile@@@Z
       2114  841 0009EA70 ?ClearToDefault@@YAXAAVESpawning@@@Z
       2115  842 000564F0 ?ClearToDefault@@YAXAAVEStart@@@Z
       2116  843 00057050 ?ClearToDefault@@YAXAAVEStartAttack@@@Z
       2117  844 000242B0 ?ClearToDefault@@YAXAAVEStartCounter@@@Z
       2118  845 000A0F50 ?ClearToDefault@@YAXAAVEStartDancers@@@Z
       2119  846 0000BC10 ?ClearToDefault@@YAXAAVEStartPulling@@@Z
       2120  847 000AE200 ?ClearToDefault@@YAXAAVEStartSounds@@@Z
       2121  848 001A2D60 ?ClearToDefault@@YAXAAVEStealth@@@Z
       2122  849 0000BA80 ?ClearToDefault@@YAXAAVEStepBack@@@Z
       2123  84A 00056470 ?ClearToDefault@@YAXAAVEStop@@@Z
       2124  84B 000570C0 ?ClearToDefault@@YAXAAVEStopAttack@@@Z
       2125  84C 00057130 ?ClearToDefault@@YAXAAVEStopBlindness@@@Z
       2126  84D 000243B0 ?ClearToDefault@@YAXAAVEStopCounter@@@Z
       2127  84E 0009EA30 ?ClearToDefault@@YAXAAVEStopDanceMode@@@Z
       2128  84F 000A0F80 ?ClearToDefault@@YAXAAVEStopDancers@@@Z
       2129  850 000571A0 ?ClearToDefault@@YAXAAVEStopDeafness@@@Z
       2130  851 00002EC0 ?ClearToDefault@@YAXAAVEStopFlaming@@@Z
       2131  852 0012DC70 ?ClearToDefault@@YAXAAVEStopLightning@@@Z
       2132  853 0000BE00 ?ClearToDefault@@YAXAAVEStopPulling@@@Z
       2133  854 000AE300 ?ClearToDefault@@YAXAAVEStopSounds@@@Z
       2134  855 00190560 ?ClearToDefault@@YAXAAVEStormEnvironmentStart@@@Z
       2135  856 00190610 ?ClearToDefault@@YAXAAVEStormStart@@@Z
       2136  857 001906C0 ?ClearToDefault@@YAXAAVEStormStop@@@Z
       2137  858 00221AB0 ?ClearToDefault@@YAXAAVETeleportActivate@@@Z
       2138  859 00221AE0 ?ClearToDefault@@YAXAAVETeleportDeactivate@@@Z
       2139  85A 000569B0 ?ClearToDefault@@YAXAAVETeleportMovingBrush@@@Z
       2140  85B 00057C70 ?ClearToDefault@@YAXAAVETextFX@@@Z
       2141  85C 00223C00 ?ClearToDefault@@YAXAAVEToasterTrigger@@@Z
       2142  85D 00224E10 ?ClearToDefault@@YAXAAVETorpedoDamage@@@Z
       2143  85E 00224DE0 ?ClearToDefault@@YAXAAVETorpedoExplode@@@Z
       2144  85F 00056800 ?ClearToDefault@@YAXAAVETrigger@@@Z
       2145  860 000568E0 ?ClearToDefault@@YAXAAVETriggerActionMarker@@@Z
       2146  861 00186C90 ?ClearToDefault@@YAXAAVETriggerEffector@@@Z
       2147  862 0018EA30 ?ClearToDefault@@YAXAAVETriggerLightning@@@Z
       2148  863 001A3C80 ?ClearToDefault@@YAXAAVEViewInit@@@Z
       2149  864 00058500 ?ClearToDefault@@YAXAAVEVoiceMessage@@@Z
       2150  865 001135B0 ?ClearToDefault@@YAXAAVEWaitMode@@@Z
       2151  866 00078D30 ?ClearToDefault@@YAXAAVEWaitOnRiceField@@@Z
       2152  867 0000E9E0 ?ClearToDefault@@YAXAAVEWatch@@@Z
       2153  868 0000E800 ?ClearToDefault@@YAXAAVEWatcherInit@@@Z
       2154  869 00160630 ?ClearToDefault@@YAXAAVEWater@@@Z
       2155  86A 0000DAA0 ?ClearToDefault@@YAXAAVEWeaponChanged@@@Z
       2156  86B 00022FD0 ?ClearToDefault@@YAXAAVEWeaponEffectInit@@@Z
       2157  86C 00023160 ?ClearToDefault@@YAXAAVEWeaponItem@@@Z
       2158  86D 0000D430 ?ClearToDefault@@YAXAAVEWeaponsInit@@@Z
       2159  86E 00031FF0 ?ClearToDefault@@YAXAAVEWeatherStart@@@Z
       2160  86F 000320F0 ?ClearToDefault@@YAXAAVEWeatherStop@@@Z
       2161  870 0000B050 ?ClearToDefault@@YAXAAVEWhip@@@Z
       2162  871 002592A0 ?ClearToDefault@@YAXAAVEbflameOff@@@Z
       2163  872 00259240 ?ClearToDefault@@YAXAAVEbflameOn@@@Z
       2164  873 00259270 ?ClearToDefault@@YAXAAVEbflame_ing@@@Z
       2165  874 000231A0 ?ClearToDefault@@YAXAAW4AmmoPackType@@@Z
       2166  875 00057990 ?ClearToDefault@@YAXAAW4AxAttackType@@@Z
       2167  876 000029A0 ?ClearToDefault@@YAXAAW4BasicEffectType@@@Z
       2168  877 0005CD70 ?ClearToDefault@@YAXAAW4BigBall@@@Z
       2169  878 0005CD40 ?ClearToDefault@@YAXAAW4BigBallActionType@@@Z
       2170  879 0005CD50 ?ClearToDefault@@YAXAAW4BigBallFireType@@@Z
       2171  87A 0005CD60 ?ClearToDefault@@YAXAAW4BigBallState@@@Z
       2172  87B 00063770 ?ClearToDefault@@YAXAAW4BikeRiderType@@@Z
       2173  87C 00063760 ?ClearToDefault@@YAXAAW4BikeSkinType@@@Z
       2174  87D 00057A20 ?ClearToDefault@@YAXAAW4BladeAttackType@@@Z
       2175  87E 00181CF0 ?ClearToDefault@@YAXAAW4BlendControllerType@@@Z
       2176  87F 000AE510 ?ClearToDefault@@YAXAAW4BlockAction@@@Z
       2177  880 00113B40 ?ClearToDefault@@YAXAAW4BodyGuardState@@@Z
       2178  881 001A3540 ?ClearToDefault@@YAXAAW4BodyTemplate@@@Z
       2179  882 00057900 ?ClearToDefault@@YAXAAW4BoolEType@@@Z
       2180  883 00195FC0 ?ClearToDefault@@YAXAAW4BoosterPackType@@@Z
       2181  884 0026EAA0 ?ClearToDefault@@YAXAAW4BossHeliMovementType@@@Z
       2182  885 00070460 ?ClearToDefault@@YAXAAW4BuffaloActionList@@@Z
       2183  886 00070450 ?ClearToDefault@@YAXAAW4BuffaloEnemyType@@@Z
       2184  887 00057940 ?ClearToDefault@@YAXAAW4BulletHitType@@@Z
       2185  888 0025B520 ?ClearToDefault@@YAXAAW4COREATTACKTYPE@@@Z
       2186  889 000080D0 ?ClearToDefault@@YAXAAW4CauseOfDeath@@@Z
       2187  88A 00088040 ?ClearToDefault@@YAXAAW4ChickenAttackType@@@Z
       2188  88B 000843A0 ?ClearToDefault@@YAXAAW4ChickenMovementType@@@Z
       2189  88C 00088030 ?ClearToDefault@@YAXAAW4ChickenStickyMovementType@@@Z
       2190  88D 00057970 ?ClearToDefault@@YAXAAW4ClasificationBits@@@Z
       2191  88E 0008C5C0 ?ClearToDefault@@YAXAAW4ConanType@@@Z
       2192  88F 00001310 ?ClearToDefault@@YAXAAW4CustomShadingType@@@Z
       2193  890 00002650 ?ClearToDefault@@YAXAAW4DebrisParticlesType@@@Z
       2194  891 001FBF70 ?ClearToDefault@@YAXAAW4DebugTargetType@@@Z
       2195  892 00010420 ?ClearToDefault@@YAXAAW4DestinationType@@@Z
       2196  893 00002960 ?ClearToDefault@@YAXAAW4DestructionDebrisType@@@Z
       2197  894 001FC6A0 ?ClearToDefault@@YAXAAW4DoorType@@@Z
       2198  895 00186CC0 ?ClearToDefault@@YAXAAW4EffectMarkerType@@@Z
       2199  896 00057950 ?ClearToDefault@@YAXAAW4EffectParticlesType@@@Z
       2200  897 00186A40 ?ClearToDefault@@YAXAAW4EffectorEffectType@@@Z
       2201  898 00055450 ?ClearToDefault@@YAXAAW4EnemyActionList@@@Z
       2202  899 0000F220 ?ClearToDefault@@YAXAAW4EnemyAutoAction@@@Z
       2203  89A 0007FDB0 ?ClearToDefault@@YAXAAW4EnemyDiveType@@@Z
       2204  89B 00084390 ?ClearToDefault@@YAXAAW4EnemyFlyType@@@Z
       2205  89C 00010A40 ?ClearToDefault@@YAXAAW4EnemySpawnerType@@@Z
       2206  89D 00057920 ?ClearToDefault@@YAXAAW4EntityInfoBodyType@@@Z
       2207  89E 00031F10 ?ClearToDefault@@YAXAAW4EnvironmentParticlesHolderType@@@Z
       2208  89F 00057910 ?ClearToDefault@@YAXAAW4EventEType@@@Z
       2209  8A0 00002990 ?ClearToDefault@@YAXAAW4ExplosionType@@@Z
       2210  8A1 00001000 ?ClearToDefault@@YAXAAW4FXBlendType@@@Z
       2211  8A2 000D4A70 ?ClearToDefault@@YAXAAW4FlyingMechanicDirectionType@@@Z
       2212  8A3 000D4A80 ?ClearToDefault@@YAXAAW4FlyingMechanicRotateType@@@Z
       2213  8A4 000D4AA0 ?ClearToDefault@@YAXAAW4FlyingMechanicStatementType@@@Z
       2214  8A5 000D4A90 ?ClearToDefault@@YAXAAW4FlyingMechanicType@@@Z
       2215  8A6 00002F00 ?ClearToDefault@@YAXAAW4FogAttenuationType@@@Z
       2216  8A7 00002F10 ?ClearToDefault@@YAXAAW4FogGraduationType2@@@Z
       2217  8A8 00259D70 ?ClearToDefault@@YAXAAW4GRINDTYPE@@@Z
       2218  8A9 002003E0 ?ClearToDefault@@YAXAAW4GravityType@@@Z
       2219  8AA 00270460 ?ClearToDefault@@YAXAAW4HawkMovementType@@@Z
       2220  8AB 000E9970 ?ClearToDefault@@YAXAAW4HorseHwangboType@@@Z
       2221  8AC 000FCA20 ?ClearToDefault@@YAXAAW4HwangboFlameType@@@Z
       2222  8AD 000E9960 ?ClearToDefault@@YAXAAW4HwangboRifleType@@@Z
       2223  8AE 00196970 ?ClearToDefault@@YAXAAW4KeyItemType@@@Z
       2224  8AF 000080E0 ?ClearToDefault@@YAXAAW4KillType@@@Z
       2225  8B0 0010A9C0 ?ClearToDefault@@YAXAAW4LamonBikeAttackType@@@Z
       2226  8B1 00002980 ?ClearToDefault@@YAXAAW4LensFlareType@@@Z
       2227  8B2 00002970 ?ClearToDefault@@YAXAAW4LightType@@@Z
       2228  8B3 00157910 ?ClearToDefault@@YAXAAW4MGType@@@Z
       2229  8B4 00002640 ?ClearToDefault@@YAXAAW4MMH3ModelType@@@Z
       2230  8B5 000082A0 ?ClearToDefault@@YAXAAW4MessageSound@@@Z
       2231  8B6 00001E70 ?ClearToDefault@@YAXAAW4ModelDeathSpawnAmmoItemType@@@Z
       2232  8B7 00001E60 ?ClearToDefault@@YAXAAW4ModelDeathSpawnArmorItemType@@@Z
       2233  8B8 00001E50 ?ClearToDefault@@YAXAAW4ModelDeathSpawnHealthItemType@@@Z
       2234  8B9 00001E40 ?ClearToDefault@@YAXAAW4ModelDeathSpawnItemType@@@Z
       2235  8BA 00001E80 ?ClearToDefault@@YAXAAW4ModelDeathSpawnSpecialItemType@@@Z
       2236  8BB 00001E90 ?ClearToDefault@@YAXAAW4ModelDestructionType@@@Z
       2237  8BC 000E9980 ?ClearToDefault@@YAXAAW4MountHwangboType@@@Z
       2238  8BD 0000EDB0 ?ClearToDefault@@YAXAAW4MusicType@@@Z
       2239  8BE 00010410 ?ClearToDefault@@YAXAAW4PFTrialType@@@Z
       2240  8BF 00057930 ?ClearToDefault@@YAXAAW4ParticleTexture@@@Z
       2241  8C0 002149A0 ?ClearToDefault@@YAXAAW4ParticlesHolderType@@@Z
       2242  8C1 00138CC0 ?ClearToDefault@@YAXAAW4PiapongState@@@Z
       2243  8C2 00146080 ?ClearToDefault@@YAXAAW4PigSkinType@@@Z
       2244  8C3 00146060 ?ClearToDefault@@YAXAAW4PigType@@@Z
       2245  8C4 001A4300 ?ClearToDefault@@YAXAAW4PlayerAutoAction@@@Z
       2246  8C5 0000AB40 ?ClearToDefault@@YAXAAW4PlayerState@@@Z
       2247  8C6 0000AB60 ?ClearToDefault@@YAXAAW4PlayerTeleportCause@@@Z
       2248  8C7 0000AB30 ?ClearToDefault@@YAXAAW4PlayerViewType@@@Z
       2249  8C8 0000AB50 ?ClearToDefault@@YAXAAW4PlayerWeaponType@@@Z
       2250  8C9 00198590 ?ClearToDefault@@YAXAAW4PowerUpItemType@@@Z
       2251  8CA 000AE530 ?ClearToDefault@@YAXAAW4PriestAttackType@@@Z
       2252  8CB 00010BC0 ?ClearToDefault@@YAXAAW4PriestSpawnerType@@@Z
       2253  8CC 00002F40 ?ClearToDefault@@YAXAAW4ProjectileMovingType@@@Z
       2254  8CD 00002F30 ?ClearToDefault@@YAXAAW4ProjectileType@@@Z
       2255  8CE 00153F20 ?ClearToDefault@@YAXAAW4ProtectorDirectionType@@@Z
       2256  8CF 001578F0 ?ClearToDefault@@YAXAAW4ProtectorMGDirectionType@@@Z
       2257  8D0 00157900 ?ClearToDefault@@YAXAAW4ProtectorMGRotateType@@@Z
       2258  8D1 00153F30 ?ClearToDefault@@YAXAAW4ProtectorRotateType@@@Z
       2259  8D2 0015BDF0 ?ClearToDefault@@YAXAAW4ProtectorSGDirectionType@@@Z
       2260  8D3 0015BE00 ?ClearToDefault@@YAXAAW4ProtectorSGRotateType@@@Z
       2261  8D4 00146070 ?ClearToDefault@@YAXAAW4RiderType@@@Z
       2262  8D5 001606C0 ?ClearToDefault@@YAXAAW4RobertType@@@Z
       2263  8D6 0015BE10 ?ClearToDefault@@YAXAAW4SGType@@@Z
       2264  8D7 00001320 ?ClearToDefault@@YAXAAW4ShadowType@@@Z
       2265  8D8 00001BC0 ?ClearToDefault@@YAXAAW4SkaAmmoItemType@@@Z
       2266  8D9 00001A80 ?ClearToDefault@@YAXAAW4SkaArmorItemType@@@Z
       2267  8DA 00001950 ?ClearToDefault@@YAXAAW4SkaHealthItemType@@@Z
       2268  8DB 00001D00 ?ClearToDefault@@YAXAAW4SkaSpecialItemType@@@Z
       2269  8DC 000082B0 ?ClearToDefault@@YAXAAW4SoundType@@@Z
       2270  8DD 00057960 ?ClearToDefault@@YAXAAW4SprayParticlesType@@@Z
       2271  8DE 00171640 ?ClearToDefault@@YAXAAW4StationaryWeaponType@@@Z
       2272  8DF 00213E10 ?ClearToDefault@@YAXAAW4StreaksBlendType@@@Z
       2273  8E0 001A40B0 ?ClearToDefault@@YAXAAW4SwitchType@@@Z
       2274  8E1 00059810 ?ClearToDefault@@YAXAAW4TacticType@@@Z
       2275  8E2 00010400 ?ClearToDefault@@YAXAAW4TargetType@@@Z
       2276  8E3 000AE520 ?ClearToDefault@@YAXAAW4TouchOrDamageEvent@@@Z
       2277  8E4 00179CD0 ?ClearToDefault@@YAXAAW4TruckSkinType@@@Z
       2278  8E5 0017A9F0 ?ClearToDefault@@YAXAAW4TurretType@@@Z
       2279  8E6 0024A550 ?ClearToDefault@@YAXAAW4VehicleType@@@Z
       2280  8E7 001A3AD0 ?ClearToDefault@@YAXAAW4ViewType@@@Z
       2281  8E8 00057980 ?ClearToDefault@@YAXAAW4VisibilityBits@@@Z
       2282  8E9 00002F20 ?ClearToDefault@@YAXAAW4WarpRotation@@@Z
       2283  8EA 00022E50 ?ClearToDefault@@YAXAAW4WeaponEffectType@@@Z
       2284  8EB 00023060 ?ClearToDefault@@YAXAAW4WeaponItemType@@@Z
       2285  8EC 0000E520 ?ClearToDefault@@YAXAAW4WeaponType@@@Z
       2286  8ED 001A41F0 ?ClearToDefault@@YAXAAW4WorldLinkType@@@Z
       2287  8EE 001D1F90 ?ClearWeapons@CPlayerWeapons@@QAEXXZ
       2288  8EF 00033730 ?CloseParticles@@YAXXZ
       2289  8F0 000AFA80 ?ComboCount@CEnemyBase@@QAEXXZ
       2290  8F1 000C23F0 ?ComboFall@CEnemyBase@@QAEHABVCEntityEvent@@@Z
       2291  8F2 000244F0 ?ComboOFF@CComboManger@@QAEXXZ
       2292  8F3 000244E0 ?ComboON@CComboManger@@QAEXXZ
       2293  8F4 000AFAC0 ?ComboOff@CEnemyBase@@QAEXXZ
       2294  8F5 000AFA60 ?ComboOn@CEnemyBase@@QAEXXZ
       2295  8F6 000AFC20 ?Combotest@CEnemyBase@@QAEXXZ
       2296  8F7 000AF450 ?ComputeOverKillDamage@CEnemyBase@@QAEXPAVCEntity@@M@Z
       2297  8F8 001C2CE0 ?ComputeWhipPlacement@CPlayer@@QAEXAAVCPlacement3D@@PAVCEnemyBase@@@Z
       2298  8F9 001ABE00 ?ComputerPressed@CPlayer@@QAEXXZ
       2299  8FA 002388C0 ?ConanMechanicRocket@CProjectile@@QAEXXZ
       2300  8FB 00238B20 ?ConanMechanicRocketExplosion@CProjectile@@QAEXXZ
       2301  8FC 003C0038 ?ConanType_enum@@3VCEntityPropertyEnumType@@A
       2302  8FD 003C0028 ?ConanType_values@@3PAVCEntityPropertyEnumValue@@A
       2303  8FE 001CDC10 ?ControlFlareAttachment@CPlayerAnimator@@QAEXXZ
       2304  8FF 001DC1A0 ?ControlFlareAttachment@CPlayerWeapons@@QAEXXZ
       2305  900 001EE660 ?ControlFlareAttachment@CPlayerWeapons_L@@QAEXXZ
       2306  901 000AF6D0 ?Copy@CEnemyBase@@UAEXAAVCEntity@@K@Z
       2307  902 001BEFE0 ?Copy@CPlayer@@UAEXAAVCEntity@@K@Z
       2308  903 0022E870 ?Copy@CProjectile@@UAEXAAVCEntity@@K@Z
       2309  904 000AF660 ?CountAsKill@CEnemyBase@@UAEHXZ
       2310  905 001A7DD0 ?CreateAnimAndBoneIDs@CPlayer@@QAEXXZ
       2311  906 001D1560 ?CreateAnimAndBoneIDs@CPlayerWeapons@@QAEXXZ
       2312  907 001E6050 ?CreateAnimAndBoneIDs@CPlayerWeapons_L@@QAEXXZ
       2313  908 0022E7A0 ?CreateAnimAndBoneIDs@CProjectile@@QAEXXZ
       2314  909 0019C1D0 ?CreateAnimAndBoneIDs@CSkaItem@@QAEXXZ
       2315  90A 001CB110 ?Crouch@CPlayerAnimator@@QAEXXZ
       2316  90B 003D24E8 ?CustomShadingType_enum@@3VCEntityPropertyEnumType@@A
       2317  90C 003D24D0 ?CustomShadingType_values@@3PAVCEntityPropertyEnumValue@@A
       2318  90D 000B01D0 ?CutRunAnim@CEnemyBase@@UAEXXZ
       2319  90E 000B01F0 ?CutTempAnim@CEnemyBase@@UAEXXZ
       2320  90F 000B01E0 ?CutWalkAnim@CEnemyBase@@UAEXXZ
       2321  910 001BB6E0 ?DamageImpact@CPlayer@@QAEXPAVCEntity@@W4DamageType@@MABV?$Vector@M$02@@2@Z
       2322  911 00011B50 ?DamageStrength@@YAMW4EntityInfoBodyType@@W4DamageType@@@Z
       2323  912 00237D90 ?DancerDagger@CProjectile@@QAEXXZ
       2324  913 000C2500 ?Death@CEnemyBase@@QAEHABVCEntityEvent@@@Z
       2325  914 000C7B90 ?Death@CEnemyFly@@QAEHABVCEntityEvent@@@Z
       2326  915 001B5560 ?Death@CPlayer@@QAEHABVCEntityEvent@@@Z
       2327  916 001B45B0 ?DeathActions@CPlayer@@QAEXABVCPlayerAction@@@Z
       2328  917 000B0330 ?DeathNotify@CEnemyBase@@UAEXXZ
       2329  918 000B4930 ?DeathSequence@CEnemyBase@@QAEHABVCEntityEvent@@@Z
       2330  919 000B0370 ?DeathSound@CEnemyBase@@UAEXXZ
       2331  91A 003CCE30 ?DebrisParticlesType_enum@@3VCEntityPropertyEnumType@@A
       2332  91B 003CCDF8 ?DebrisParticlesType_values@@3PAVCEntityPropertyEnumValue@@A
       2333  91C 00019530 ?DebrisSka_Spawn@@YA?AVCEntityPointer@@PAVCEntity@@JMABV?$Vector@M$02@@@Z
       2334  91D 00019DF0 ?DebrisSka_Spawn_Independent@@YA?AVCEntityPointer@@PAVCEntity@@JMVCPlacement3D@@V?$Vector@M$02@@2@Z
       2335  91E 00011940 ?Debris_Begin@@YAXW4EntityInfoBodyType@@W4DebrisParticlesType@@W4BasicEffectType@@MABV?$Vector@M$02@@3MMK@Z
       2336  91F 00011A40 ?Debris_BeginCar@@YAXW4EntityInfoBodyType@@W4DebrisParticlesType@@W4BasicEffectType@@MABV?$Vector@M$02@@3MMK@Z
       2337  920 000119C0 ?Debris_BeginNew@@YAXW4EntityInfoBodyType@@W4DebrisParticlesType@@W4BasicEffectType@@MABV?$Vector@M$02@@3MMW4DamageType@@K@Z
       2338  921 00017430 ?Debris_Spawn@@YA?AVCEntityPointer@@PAVCEntity@@0JJJJJJMABV?$Vector@M$02@@@Z
       2339  922 00016F80 ?Debris_SpawnCar@@YA?AVCEntityPointer@@PAVCEntity@@0JJJJJJMABV?$Vector@M$02@@@Z
       2340  923 00017910 ?Debris_Spawn_Independent@@YA?AVCEntityPointer@@PAVCEntity@@0JJJJJJMVCPlacement3D@@V?$Vector@M$02@@2@Z
       2341  924 00018580 ?Debris_Spawn_MH2Template_FromMH2@@YA?AVCEntityPointer@@W4EntityInfoBodyType@@W4DebrisParticlesType@@W4BasicEffectType@@PAVCModelHolder2@@PAVCEntity@@3V?$Vector@M$02@@MVCPlacement3D@@55HMK@Z
       2342  925 00018900 ?Debris_Spawn_MH2Template_FromMH3@@YA?AVCEntityPointer@@W4EntityInfoBodyType@@W4DebrisParticlesType@@W4BasicEffectType@@PAVCModelHolder3@@PAVCEntity@@PAVCModelHolder2@@V?$Vector@M$02@@MVCPlacement3D@@66HMK@Z
       2343  926 00018C80 ?Debris_Spawn_MH3Template_FromMH2@@YA?AVCEntityPointer@@W4EntityInfoBodyType@@W4DebrisParticlesType@@W4BasicEffectType@@PAVCModelHolder2@@PAVCEntity@@PAVCModelHolder3@@V?$Vector@M$02@@MVCPlacement3D@@66HMK@Z
       2344  927 00018FE0 ?Debris_Spawn_MH3Template_FromMH3@@YA?AVCEntityPointer@@W4EntityInfoBodyType@@W4DebrisParticlesType@@W4BasicEffectType@@PAVCModelHolder3@@PAVCEntity@@3V?$Vector@M$02@@MVCPlacement3D@@55HMKHH@Z
       2345  928 00018200 ?Debris_Spawn_Template@@YA?AVCEntityPointer@@W4EntityInfoBodyType@@W4DebrisParticlesType@@W4BasicEffectType@@PAVCModelHolder2@@PAVCEntity@@3V?$Vector@M$02@@MVCPlacement3D@@55HMK@Z
       2346  929 00017B20 ?Debris_Spawn_Template_MovingModel@@YA?AVCEntityPointer@@W4EntityInfoBodyType@@W4DebrisParticlesType@@W4BasicEffectType@@PAVCMovingModelHolder@@PAVCEntity@@3V?$Vector@M$02@@MVCPlacement3D@@55HMK@Z
       2347  92A 00017E90 ?Debris_Spawn_Template_SkaMovingModel@@YA?AVCEntityPointer@@W4EntityInfoBodyType@@W4DebrisParticlesType@@W4BasicEffectType@@PAVCSkaMovingModelHolder@@PAVCEntity@@3V?$Vector@M$02@@MVCPlacement3D@@55HMK@Z
       2348  92B 003D1888 ?DebugTargetType_enum@@3VCEntityPropertyEnumType@@A
       2349  92C 003D1868 ?DebugTargetType_values@@3PAVCEntityPropertyEnumValue@@A
       2350  92D 000B0430 ?DelDrugModeItem@CEnemyBase@@QAEXXZ
       2351  92E 00260160 ?Dellist@CComboManger@@QAEXK@Z
       2352  92F 003C1DBC ?DestinationType_enum@@3VCEntityPropertyEnumType@@A
       2353  930 003C1D8C ?DestinationType_values@@3PAVCEntityPropertyEnumValue@@A
       2354  931 002295B0 ?DestroyBullet@CBullet@@QAEXXZ
       2355  932 003D23F0 ?DestructionDebrisType_enum@@3VCEntityPropertyEnumType@@A
       2356  933 003D23B0 ?DestructionDebrisType_values@@3PAVCEntityPropertyEnumValue@@A
       2357  934 000B4190 ?Die@CEnemyBase@@QAEHABVCEntityEvent@@@Z
       2358  935 001ABE70 ?Disconnect@CPlayer@@UAEXXZ
       2359  936 00055160 ?DistanceTo@@YAMPAVCEntity@@0@Z
       2360  937 000587E0 ?DistanceToPointFromEntity@@YAMPAVCEntity@@V?$Vector@M$02@@@Z
       2361  938 000C46E0 ?DiveFire@CEnemyDive@@QAEHABVCEntityEvent@@@Z
       2362  939 000C4670 ?DiveHit@CEnemyDive@@QAEHABVCEntityEvent@@@Z
       2363  93A 001B6580 ?DoAutoActions@CPlayer@@QAEHABVCEntityEvent@@@Z
       2364  93B 000B84C0 ?DoBleeding@CEnemyBase@@UAEXV?$Vector@M$02@@0W4DamageType@@M@Z
       2365  93C 001ABBB0 ?DoMoving@CPlayer@@UAEXXZ
       2366  93D 001CE460 ?DoMoving@CPlayerView@@UAEXXZ
       2367  93E 000B0AB0 ?DoPatrolling@CEnemyBase@@QAEHABVCEntityEvent@@@Z
       2368  93F 000B2FB0 ?DontFire@CEnemyBase@@QAEHABVCEntityEvent@@@Z
       2369  940 003D1970 ?DoorType_enum@@3VCEntityPropertyEnumType@@A
       2370  941 003D1950 ?DoorType_values@@3PAVCEntityPropertyEnumValue@@A
       2371  942 001DD2E0 ?DropWeapon@CPlayerWeapons@@QAEXXZ
       2372  943 000AF900 ?DropsMarker@CEnemyBase@@UBEHAAVCTFileName@@AAVCTString@@@Z
       2373  944 00058C50 ?DropsMarker@CNavigationMarker@@UBEHAAVCTFileName@@AAVCTString@@@Z
       2374  945 00237790 ?DrugModeHeart@CProjectile@@QAEXXZ
       2375  946 0005BDB0 ?Dummy@CWatcher@@QAEHABVCEntityEvent@@@Z
       2376  947 001A6D30 ?DumpToConsole@CPlayer@@UAEXXZ
       2377  948 003CD010 ?EffectMarkerType_enum@@3VCEntityPropertyEnumType@@A
       2378  949 003CCF98 ?EffectMarkerType_values@@3PAVCEntityPropertyEnumValue@@A
       2379  94A 003BC3A0 ?EffectParticlesType_enum@@3VCEntityPropertyEnumType@@A
       2380  94B 003BC330 ?EffectParticlesType_values@@3PAVCEntityPropertyEnumValue@@A
       2381  94C 003CD0F8 ?EffectorEffectType_enum@@3VCEntityPropertyEnumType@@A
       2382  94D 003CD088 ?EffectorEffectType_values@@3PAVCEntityPropertyEnumValue@@A
       2383  94E 001A0BA0 ?EndBomb@CMaria@@QAEXXZ
       2384  94F 001B05B0 ?EndCrazy@CPlayer@@QAEXXZ
       2385  950 001AC450 ?EndDruggy@CPlayer@@QAEXXZ
       2386  951 001AE0F0 ?EndDrugmode@CPlayer@@QAEHABVCEntityEvent@@@Z
       2387  952 001A69E0 ?EndMariaActiveDie@CPlayer@@QAEXXZ
       2388  953 003BCFC0 ?EnemyActionList_enum@@3VCEntityPropertyEnumType@@A
       2389  954 003BCFA0 ?EnemyActionList_values@@3PAVCEntityPropertyEnumValue@@A
       2390  955 003C1BF0 ?EnemyAutoAction_enum@@3VCEntityPropertyEnumType@@A
       2391  956 003C1BC0 ?EnemyAutoAction_values@@3PAVCEntityPropertyEnumValue@@A
       2392  957 003C2A70 ?EnemyDiveType_enum@@3VCEntityPropertyEnumType@@A
       2393  958 003C2A58 ?EnemyDiveType_values@@3PAVCEntityPropertyEnumValue@@A
       2394  959 00236920 ?EnemyFlame@CProjectile@@QAEXXZ
       2395  95A 003C2B78 ?EnemyFlyType_enum@@3VCEntityPropertyEnumType@@A
       2396  95B 003C2B48 ?EnemyFlyType_values@@3PAVCEntityPropertyEnumValue@@A
       2397  95C 000B04F0 ?EnemyPostInit@CEnemyBase@@UAEXXZ
       2398  95D 002378B0 ?EnemyRocket@CProjectile@@QAEXXZ
       2399  95E 00237B10 ?EnemyRocketExplosion@CProjectile@@QAEXXZ
       2400  95F 003C3240 ?EnemySpawnerType_enum@@3VCEntityPropertyEnumType@@A
       2401  960 003C3200 ?EnemySpawnerType_values@@3PAVCEntityPropertyEnumValue@@A
       2402  961 003BC1D8 ?EntityInfoBodyType_enum@@3VCEntityPropertyEnumType@@A
       2403  962 003BC180 ?EntityInfoBodyType_values@@3PAVCEntityPropertyEnumValue@@A
       2404  963 000CA140 ?EntityTouched@CEnemyRunInto@@UAEXVETouch@@@Z
       2405  964 003CDC40 ?EnvironmentParticlesHolderType_enum@@3VCEntityPropertyEnumType@@A
       2406  965 003CDC20 ?EnvironmentParticlesHolderType_values@@3PAVCEntityPropertyEnumValue@@A
       2407  966 003BC178 ?EventEType_enum@@3VCEntityPropertyEnumType@@A
       2408  967 003BC0E8 ?EventEType_values@@3PAVCEntityPropertyEnumValue@@A
       2409  968 003CC940 ?ExplosionType_enum@@3VCEntityPropertyEnumType@@A
       2410  969 003CC920 ?ExplosionType_values@@3PAVCEntityPropertyEnumValue@@A
       2411  96A 003CD218 ?FXBlendType_enum@@3VCEntityPropertyEnumType@@A
       2412  96B 003CD1D8 ?FXBlendType_values@@3PAVCEntityPropertyEnumValue@@A
       2413  96C 001CB230 ?Fall@CPlayerAnimator@@QAEXXZ
       2414  96D 0023B190 ?FernandesLaser@CProjectile@@QAEXXZ
       2415  96E 000AF640 ?FillAutoAimCoords@CEnemyBase@@UAEXPAV?$Vector@M$02@@PAM@Z
       2416  96F 001BADC0 ?FillAutoAimCoords@CPlayer@@QAEXPAV?$Vector@M$02@@PAM@Z
       2417  970 00231D40 ?FillAutoAimCoords@CProjectile@@QAEXPAV?$Vector@M$02@@PAM@Z
       2418  971 001DFAB0 ?FillAutoAimList@CPlayerWeapons@@QAEXKPAVCPlacement3D@@PAXJ@Z
       2419  972 001F1020 ?FillAutoAimList@CPlayerWeapons_L@@QAEXKPAVCPlacement3D@@PAXJ@Z
       2420  973 000AFA00 ?FillEntityStatistics@CEnemyBase@@UAEHPAUEntityStats@@@Z
       2421  974 00055A80 ?FindClosestMarkerNew@@YAXPAVCEntity@@ABV?$Vector@M$02@@AAPAV1@AAV2@@Z
       2422  975 0005C2C0 ?FindClosestPlayer@CWatcher@@QAEPAVCEntity@@XZ
       2423  976 001AB000 ?FindMusicHolder@CPlayer@@QAEXXZ
       2424  977 000B6260 ?FindNextPathMarker@CEnemyBase@@UAEXXZ
       2425  978 000BBE10 ?FindPath@CEnemyBase@@UAEXXZ
       2426  979 001D23C0 ?FindWeapon_Direct@CPlayerWeapons@@QAE?AW4WeaponType@@J@Z
       2427  97A 001E6DB0 ?FindWeapon_Direct@CPlayerWeapons_L@@QAE?AW4WeaponType@@J@Z
       2428  97B 001D2430 ?FindWeapon_QE@CPlayerWeapons@@QAE?AW4WeaponType@@J@Z
       2429  97C 001E6DE0 ?FindWeapon_QE@CPlayerWeapons_L@@QAE?AW4WeaponType@@J@Z
       2430  97D 001D24A0 ?FindWeapon_Wheel@CPlayerWeapons@@QAE?AW4WeaponType@@J@Z
       2431  97E 001E6E30 ?FindWeapon_Wheel@CPlayerWeapons_L@@QAE?AW4WeaponType@@J@Z
       2432  97F 00260180 ?Findlist@CComboManger@@QAEPAVCcomboitem@@K@Z
       2433  980 000B2F40 ?Fire@CEnemyBase@@QAEHABVCEntityEvent@@@Z
       2434  981 000C4400 ?Fire@CEnemyDive@@QAEHABVCEntityEvent@@@Z
       2435  982 000C64E0 ?Fire@CEnemyFly@@QAEHABVCEntityEvent@@@Z
       2436  983 000CA180 ?Fire@CEnemyRunInto@@QAEHABVCEntityEvent@@@Z
       2437  984 001A0170 ?Fire@CMaria@@QAEHABVCEntityEvent@@@Z
       2438  985 001DDA40 ?Fire@CPlayerWeapons@@QAEHABVCEntityEvent@@@Z
       2439  986 001E7CF0 ?Fire@CPlayerWeapons_L@@QAEHABVCEntityEvent@@@Z
       2440  987 001CB2B0 ?FireAnimation@CPlayerAnimator@@QAEXJK@Z
       2441  988 001CB330 ?FireAnimationOff@CPlayerAnimator@@QAEXXZ
       2442  989 001EFF30 ?FireFixedLaser@CPlayerWeapons_L@@QAEHABVCEntityEvent@@@Z
       2443  98A 001EEE00 ?FireFixedLaser@CPlayerWeapons_L@@QAEXXZ
       2444  98B 001E07F0 ?FireFixedRocket@CPlayerWeapons@@QAEXAAV?$Vector@M$02@@0@Z
       2445  98C 001E0F90 ?FireFixedRocketLauncher@CPlayerWeapons@@QAEHABVCEntityEvent@@@Z
       2446  98D 001E2310 ?FireGrenade@CPlayerWeapons@@QAEXJ@Z
       2447  98E 001D6520 ?FireGrenadeLauncher@CPlayerWeapons@@QAEHABVCEntityEvent@@@Z
       2448  98F 001DCDF0 ?FireMachineBullet@CPlayerWeapons@@QAEXMMMMMMH@Z
       2449  990 001EED60 ?FireMachineBullet@CPlayerWeapons_L@@QAEXMMMMMMH@Z
       2450  991 001DE1B0 ?FireMachineGun@CPlayerWeapons@@QAEHABVCEntityEvent@@@Z
       2451  992 001EF5A0 ?FireMachineGun@CPlayerWeapons_L@@QAEHABVCEntityEvent@@@Z
       2452  993 001E04D0 ?FireNitro@CPlayerWeapons@@QAEXXZ
       2453  994 001E0660 ?FireNitroGuide@CPlayerWeapons@@QAEXJ@Z
       2454  995 001DAB60 ?FireNitroLauncher@CPlayerWeapons@@QAEHABVCEntityEvent@@@Z
       2455  996 000C2A70 ?FireOrHit@CEnemyBase@@QAEHABVCEntityEvent@@@Z
       2456  997 000C5DA0 ?FireOrHit@CEnemyFly@@QAEHABVCEntityEvent@@@Z
       2457  998 001DA9F0 ?FirePushGun@CPlayerWeapons@@QAEHABVCEntityEvent@@@Z
       2458  999 001DFFD0 ?FirePushNarrow@CPlayerWeapons@@QAEXXZ
       2459  99A 001E0140 ?FirePushWide@CPlayerWeapons@@QAEXXZ
       2460  99B 001DFD50 ?FireRocket@CPlayerWeapons@@QAEXM@Z
       2461  99C 001F12A0 ?FireRocket@CPlayerWeapons_L@@QAEXM@Z
       2462  99D 001E0950 ?FireRocketLauncher@CPlayerWeapons@@QAEHABVCEntityEvent@@@Z
       2463  99E 001F1520 ?FireRocketLauncher@CPlayerWeapons_L@@QAEHABVCEntityEvent@@@Z
       2464  99F 001DDB20 ?FireShotgun@CPlayerWeapons@@QAEHABVCEntityEvent@@@Z
       2465  9A0 001EEF10 ?FireShotgun@CPlayerWeapons_L@@QAEHABVCEntityEvent@@@Z
       2466  9A1 001DCCB0 ?FireShotgunBullets@CPlayerWeapons@@QAEXMMMMJPAMMM@Z
       2467  9A2 001EEC20 ?FireShotgunBullets@CPlayerWeapons_L@@QAEXMMMMJPAMMM@Z
       2468  9A3 001E0310 ?FireSniper@CPlayerWeapons@@QAEXMMM@Z
       2469  9A4 001E0C30 ?FireSniperGun@CPlayerWeapons@@QAEHABVCEntityEvent@@@Z
       2470  9A5 00237120 ?FireballProjectile@CProjectile@@QAEXXZ
       2471  9A6 00237400 ?FireballProjectileExplosion@CProjectile@@QAEXXZ
       2472  9A7 001C4FB0 ?FirstInit@CPlayer@@QAEHABVCEntityEvent@@@Z
       2473  9A8 001B2680 ?FixAutoActionTrash@CPlayer@@QAEXXZ
       2474  9A9 0001A090 ?FixupCausedToPlayer@@YAPAVCEntity@@PAV1@0H@Z
       2475  9AA 000C6B90 ?FlyFire@CEnemyFly@@QAEHABVCEntityEvent@@@Z
       2476  9AB 000C6B20 ?FlyHit@CEnemyFly@@QAEHABVCEntityEvent@@@Z
       2477  9AC 0019FFB0 ?FlyUp@CMaria@@QAEHABVCEntityEvent@@@Z
       2478  9AD 003C3C10 ?FlyingMechanicDirectionType_enum@@3VCEntityPropertyEnumType@@A
       2479  9AE 003C3BC8 ?FlyingMechanicDirectionType_values@@3PAVCEntityPropertyEnumValue@@A
       2480  9AF 00238DA0 ?FlyingMechanicLaser@CProjectile@@QAEXXZ
       2481  9B0 00238EC0 ?FlyingMechanicLaserWave@CProjectile@@QAEXXZ
       2482  9B1 003C3C28 ?FlyingMechanicRotateType_enum@@3VCEntityPropertyEnumType@@A
       2483  9B2 003C3C18 ?FlyingMechanicRotateType_values@@3PAVCEntityPropertyEnumValue@@A
       2484  9B3 003C3C58 ?FlyingMechanicStatementType_enum@@3VCEntityPropertyEnumType@@A
       2485  9B4 003C3C48 ?FlyingMechanicStatementType_values@@3PAVCEntityPropertyEnumValue@@A
       2486  9B5 003C3C40 ?FlyingMechanicType_enum@@3VCEntityPropertyEnumType@@A
       2487  9B6 003C3C30 ?FlyingMechanicType_values@@3PAVCEntityPropertyEnumValue@@A
       2488  9B7 003D1DF0 ?FogAttenuationType_enum@@3VCEntityPropertyEnumType@@A
       2489  9B8 003D1DD8 ?FogAttenuationType_values@@3PAVCEntityPropertyEnumValue@@A
       2490  9B9 003D1E10 ?FogGraduationType2_enum@@3VCEntityPropertyEnumType@@A
       2491  9BA 003D1DF8 ?FogGraduationType2_values@@3PAVCEntityPropertyEnumValue@@A
       2492  9BB 000AF670 ?ForcesCannonballToExplode@CEnemyBase@@UAEHXZ
       2493  9BC 000B07B0 ?FrontDetach@CEnemyBase@@QAEHABVCEntityEvent@@@Z
       2494  9BD 001D9380 ?FullMachinegun@CPlayerWeapons@@QAEXXZ
       2495  9BE 001ECF40 ?FullMachinegun@CPlayerWeapons_L@@QAEXXZ
       2496  9BF 001D93E0 ?FullRocket@CPlayerWeapons@@QAEXXZ
       2497  9C0 001ECFA0 ?FullRocket@CPlayerWeapons_L@@QAEXXZ
       2498  9C1 001D9320 ?FullShotgun@CPlayerWeapons@@QAEXXZ
       2499  9C2 001ECEE0 ?FullShotgun@CPlayerWeapons_L@@QAEXXZ
       2500  9C3 003D4FD0 ?GRINDTYPE_enum@@3VCEntityPropertyEnumType@@A
       2501  9C4 003D4F98 ?GRINDTYPE_values@@3PAVCEntityPropertyEnumValue@@A
       2502  9C5 001A9260 ?GenderSound@CPlayer@@QAEJJ@Z
       2503  9C6 001AFDD0 ?GenerateBikini@CPlayer@@QAEPAVCEnemyBase@@AAV2@@Z
       2504  9C7 001AFEE0 ?GenerateOrigin@CPlayer@@QAEPAVCEnemyBase@@AAV2@@Z
       2505  9C8 000B0730 ?GetActionMarker@CEnemyBase@@QAEPAVCEnemyActionMarker@@XZ
       2506  9C9 001AAFF0 ?GetActionMarker@CPlayer@@QAEPAVCPlayerActionMarker@@XZ
       2507  9CA 001D2010 ?GetAmmo@CPlayerWeapons@@QAEJXZ
       2508  9CB 000B0500 ?GetAnimLength@CEnemyBase@@QAEMH@Z
       2509  9CC 001D1D70 ?GetAnimator@CPlayerWeapons@@QAEPAVCPlayerAnimator@@XZ
       2510  9CD 001E6670 ?GetAnimator@CPlayerWeapons_L@@QAEPAVCPlayerAnimator@@XZ
       2511  9CE 001CACF0 ?GetAttachedKey@CPlayerAnimator@@QAEPAVCModelInstance@@XZ
       2512  9CF 000AFF20 ?GetAttackMoveFrequency@CEnemyBase@@UAEMM@Z
       2513  9D0 000AF410 ?GetBloodColor@CEnemyBase@@QAEKXZ
       2514  9D1 00024500 ?GetComboCount@CComboManger@@QAEIXZ
       2515  9D2 00260170 ?GetComboEnemyCount@CComboManger@@QAEJXZ
       2516  9D3 000B6010 ?GetComputerMessageName@CEnemyBase@@UBEABVCTFileName@@XZ
       2517  9D4 000AF630 ?GetCrushHealth@CEnemyBase@@UAEMXZ
       2518  9D5 000B0540 ?GetCurrentAnimLength@CEnemyBase@@QAEMXZ
       2519  9D6 001BE7B0 ?GetDeathmatchStartMarker@CPlayer@@QAEPAVCEntity@@XZ
       2520  9D7 000AF980 ?GetDescription@CEnemyBase@@UBEABVCTString@@XZ
       2521  9D8 00058C20 ?GetDescription@CNavigationMarker@@UBEABVCTString@@XZ
       2522  9D9 00001930 ?GetDescription@CSkaItem@@UBEABVCTString@@XZ
       2523  9DA 001B1900 ?GetDetailStatsCoop@CPlayer@@QAEXAAVCTString@@@Z
       2524  9DB 001B0CF0 ?GetDetailStatsDM@CPlayer@@QAEXAAVCTString@@@Z
       2525  9DC 001A9A20 ?GetDetailStatsSP@CPlayer@@QAEXAAVCTString@@J@Z
       2526  9DD 000AF650 ?GetDrugModeStats@CEnemyBase@@UAEHXZ
       2527  9DE 00058C00 ?GetEntityInfo@CNavigationMarker@@UAEPAXXZ
       2528  9DF 001ABC70 ?GetEntityInfo@CPlayer@@UAEPAXXZ
       2529  9E0 0022E7E0 ?GetEntityInfo@CProjectile@@UAEPAXXZ
       2530  9E1 00015F30 ?GetEntityInfoPosition@@YAXPAVCEntity@@PAMAAV?$Vector@M$02@@@Z
       2531  9E2 001BEC60 ?GetFOV@CPlayer@@QAEMXZ
       2532  9E3 000AF440 ?GetFireWorkScore@CEnemyBase@@QAEMXZ
       2533  9E4 001DF160 ?GetFlamerSourcePlacement@CPlayerWeapons@@QAEXAAVCPlacement3D@@0@Z
       2534  9E5 000B9B20 ?GetFrustumAngle@CEnemyBase@@QAEMABV?$Vector@M$02@@@Z
       2535  9E6 00015D70 ?GetGameDamageMultiplier@@YAMXZ
       2536  9E7 001AA990 ?GetGameSpyPlayerInfo@CPlayer@@UAEXJAAVCTString@@@Z
       2537  9E8 00022390 ?GetGravity@CEmiter@@QAE?AV?$Vector@M$02@@PAVCEntity@@@Z
       2538  9E9 001A6860 ?GetGravity@CPlayer@@QAE?AV?$Vector@M$02@@XZ
       2539  9EA 00196B30 ?GetKeyName@@YAPBDW4KeyItemType@@@Z
       2540  9EB 00024520 ?GetLastEnemy@CComboManger@@QAEPAVCEnemyBase@@XZ
       2541  9EC 001C0240 ?GetLerpedAbsoluteViewPlacement@CPlayer@@QAEXAAVCPlacement3D@@@Z
       2542  9ED 001CE480 ?GetLerpedPlacement@CPlayerView@@UBE?AVCPlacement3D@@XZ
       2543  9EE 001C43F0 ?GetLerpedWeaponPosition@CPlayer@@QAEXV?$Vector@M$02@@AAVCPlacement3D@@@Z
       2544  9EF 001A97B0 ?GetLightSource@CPlayer@@UAEPAVCLightSource@@XZ
       2545  9F0 0022E850 ?GetLightSource@CProjectile@@UAEPAVCLightSource@@XZ
       2546  9F1 00058FC0 ?GetLink@CNavigationMarker@@QAEPAV1@J@Z
       2547  9F2 00055540 ?GetLink@CPathNode@@QAEPAV1@J@Z
       2548  9F3 000B0380 ?GetLockRotationSpeed@CEnemyBase@@UAEMXZ
       2549  9F4 001D20A0 ?GetMaxAmmo@CPlayerWeapons@@QAEJXZ
       2550  9F5 001AAD40 ?GetModelInstanceForRendering@CPlayer@@UAEPAVCModelInstance@@XZ
       2551  9F6 000B05A0 ?GetModelStretch@CEnemyBase@@QAEAAV?$Vector@M$02@@XZ
       2552  9F7 00010430 ?GetName@CEnemyBase@@UBEABVCTString@@XZ
       2553  9F8 00055460 ?GetName@CNavigationMarker@@UBEABVCTString@@XZ
       2554  9F9 00055570 ?GetName@CPathNode@@QAEABVCTString@@XZ
       2555  9FA 00001920 ?GetName@CSkaItem@@UBEABVCTString@@XZ
       2556  9FB 000AFC10 ?GetNowComboStates@CEnemyBase@@UAEHXZ
       2557  9FC 000AF3D0 ?GetOriginName@CEnemyBase@@QAEXAAVCTString@@@Z
       2558  9FD 0005B7E0 ?GetOwner@CWatcher@@QAEPAVCEnemyBase@@XZ
       2559  9FE 000B0580 ?GetPassedTime@CEnemyBase@@QAEMXZ
       2560  9FF 00058F40 ?GetPathNode@CNavigationMarker@@QAEPAVCPathNode@@XZ
       2561  A00 000B9BE0 ?GetPlaneFrustumAngle@CEnemyBase@@QAEMABV?$Vector@M$02@@@Z
       2562  A01 001CABC0 ?GetPlayer@CPlayerAnimator@@QAEPAVCPlayer@@XZ
       2563  A02 001D1D60 ?GetPlayer@CPlayerWeapons@@QAEPAVCPlayer@@XZ
       2564  A03 001E6660 ?GetPlayer@CPlayerWeapons_L@@QAEPAVCPlayer@@XZ
       2565  A04 001A94B0 ?GetPlayerAnimator@CPlayer@@QAEPAVCPlayerAnimator@@XZ
       2566  A05 000AF580 ?GetPlayerKillDescription@CEnemyBase@@UAE?AVCTString@@ABV2@ABVEDeath@@@Z
       2567  A06 001A6850 ?GetPlayerSelectWeaponType@CPlayer@@QAEJXZ
       2568  A07 001A94A0 ?GetPlayerWeapons@CPlayer@@QAEPAVCPlayerWeapons@@XZ
       2569  A08 001A9490 ?GetPlayerWeapons_L@CPlayer@@QAEPAVCPlayerWeapons_L@@XZ
       2570  A09 00016000 ?GetPositionCastRay@@YAXPAVCEntity@@0AAV?$Vector@M$02@@1@Z
       2571  A0A 001A3550 ?GetPredictionPair@CPlayerAnimator@@UAEPAVCEntity@@XZ
       2572  A0B 001A3D10 ?GetPredictionPair@CPlayerView@@UAEPAVCEntity@@XZ
       2573  A0C 0000A060 ?GetPredictionPair@CProjectile@@UAEPAVCEntity@@XZ
       2574  A0D 0000EA60 ?GetPredictionPair@CWatcher@@UAEPAVCEntity@@XZ
       2575  A0E 000AF680 ?GetPropA@CEnemyBase@@UAEAAMAAM@Z
       2576  A0F 000C4240 ?GetPropA@CEnemyDive@@UAEAAMAAM@Z
       2577  A10 000C4D10 ?GetPropA@CEnemyFly@@UAEAAMAAM@Z
       2578  A11 0005B7F0 ?GetRandomPlayer@CWatcher@@QAEJXZ
       2579  A12 001A6BA0 ?GetRotation@CPlayer@@QAEMJ@Z
       2580  A13 001A6BB0 ?GetRotationDiff@CPlayer@@QAEMJM@Z
       2581  A14 0022EF60 ?GetRotationSpeed@CProjectile@@QAEMMMM@Z
       2582  A15 0001B270 ?GetSP@@YAPBVCSessionProperties@@XZ
       2583  A16 00011C40 ?GetSeriousDamageMultiplier@@YAMPAVCEntity@@@Z
       2584  A17 001A94C0 ?GetSettings@CPlayer@@QAEPAVCPlayerSettings@@XZ
       2585  A18 001A9960 ?GetShortStats@CPlayer@@QAEXAAVCTString@@@Z
       2586  A19 00003720 ?GetSizeOf@EActivate@@UAEJXZ
       2587  A1A 00181E10 ?GetSizeOf@EActivateBlend@@UAEJXZ
       2588  A1B 001A4840 ?GetSizeOf@EActiveMariaDie@@UAEJXZ
       2589  A1C 001A5130 ?GetSizeOf@EAddBulletSpray@@UAEJXZ
       2590  A1D 001A5170 ?GetSizeOf@EAddGoreSpray@@UAEJXZ
       2591  A1E 001166F0 ?GetSizeOf@EAlert@@UAEJXZ
       2592  A1F 001954F0 ?GetSizeOf@EAmmoPackItem@@UAEJXZ
       2593  A20 0024A670 ?GetSizeOf@EAnimForDamage@@UAEJXZ
       2594  A21 001CAA50 ?GetSizeOf@EAnimatorInit@@UAEJXZ
       2595  A22 001A4E40 ?GetSizeOf@EAutoAction@@UAEJXZ
       2596  A23 00003F50 ?GetSizeOf@EAvoidProjectiles@@UAEJXZ
       2597  A24 000043B0 ?GetSizeOf@EBFlame@@UAEJXZ
       2598  A25 00004370 ?GetSizeOf@EBGravity@@UAEJXZ
       2599  A26 0019F940 ?GetSizeOf@EBackMaria@@UAEJXZ
       2600  A27 00003BD0 ?GetSizeOf@EBackMariaNPC@@UAEJXZ
       2601  A28 00099940 ?GetSizeOf@EBackward@@UAEJXZ
       2602  A29 00003A20 ?GetSizeOf@EBasket@@UAEJXZ
       2603  A2A 000AEFD0 ?GetSizeOf@EBlowUp@@UAEJXZ
       2604  A2B 00003E20 ?GetSizeOf@EBonus@@UAEJXZ
       2605  A2C 00196150 ?GetSizeOf@EBoosterPack@@UAEJXZ
       2606  A2D 001A5300 ?GetSizeOf@EBoringWeapon@@UAEJXZ
       2607  A2E 001167F0 ?GetSizeOf@EBossWounded@@UAEJXZ
       2608  A2F 001A55A0 ?GetSizeOf@EBringUp@@UAEJXZ
       2609  A30 0022E060 ?GetSizeOf@EBruceDefenseFinished@@UAEJXZ
       2610  A31 000661A0 ?GetSizeOf@EBruceDefenseProjectiles@@UAEJXZ
       2611  A32 000663A0 ?GetSizeOf@EBruceGo@@UAEJXZ
       2612  A33 00066340 ?GetSizeOf@EBruceReady@@UAEJXZ
       2613  A34 00066220 ?GetSizeOf@EBruceTeleport@@UAEJXZ
       2614  A35 002447B0 ?GetSizeOf@EBrushDeath@@UAEJXZ
       2615  A36 00244650 ?GetSizeOf@EBrushDestroyed@@UAEJXZ
       2616  A37 000705E0 ?GetSizeOf@EBuffaloMoveThroughMarkers@@UAEJXZ
       2617  A38 00229480 ?GetSizeOf@EBulletInit@@UAEJXZ
       2618  A39 001A4B60 ?GetSizeOf@ECameraStart@@UAEJXZ
       2619  A3A 001A4C40 ?GetSizeOf@ECameraStop@@UAEJXZ
       2620  A3B 000044F0 ?GetSizeOf@ECenterMessage@@UAEJXZ
       2621  A3C 001F2140 ?GetSizeOf@EChangeAnim@@UAEJXZ
       2622  A3D 0009F0C0 ?GetSizeOf@EChangeDance@@UAEJXZ
       2623  A3E 00200FF0 ?GetSizeOf@EChangeGravity@@UAEJXZ
       2624  A3F 00211990 ?GetSizeOf@EChangeMusic@@UAEJXZ
       2625  A40 00079B10 ?GetSizeOf@EChiangWaitMode@@UAEJXZ
       2626  A41 00066400 ?GetSizeOf@ECloseAttack@@UAEJXZ
       2627  A42 001A45A0 ?GetSizeOf@ECombo@@UAEJXZ
       2628  A43 00004510 ?GetSizeOf@EComputerMessage@@UAEJXZ
       2629  A44 001F8430 ?GetSizeOf@ECopierTrigger@@UAEJXZ
       2630  A45 0025B880 ?GetSizeOf@ECoreDamage@@UAEJXZ
       2631  A46 0025B700 ?GetSizeOf@ECoreFlame@@UAEJXZ
       2632  A47 0025B7C0 ?GetSizeOf@ECoreGravity@@UAEJXZ
       2633  A48 0025B6A0 ?GetSizeOf@ECoreGrind@@UAEJXZ
       2634  A49 0025B760 ?GetSizeOf@ECorePress@@UAEJXZ
       2635  A4A 0025B820 ?GetSizeOf@ECoreSwitcher@@UAEJXZ
       2636  A4B 000C3920 ?GetSizeOf@ECounterCount@@UAEJXZ
       2637  A4C 001A43C0 ?GetSizeOf@ECrazyBegin@@UAEJXZ
       2638  A4D 001A4420 ?GetSizeOf@ECrazyEnd@@UAEJXZ
       2639  A4E 00004470 ?GetSizeOf@ECredits@@UAEJXZ
       2640  A4F 000A32B0 ?GetSizeOf@EDancerAcrobatRemoved@@UAEJXZ
       2641  A50 000A3310 ?GetSizeOf@EDancerNormalCreated@@UAEJXZ
       2642  A51 00003760 ?GetSizeOf@EDeactivate@@UAEJXZ
       2643  A52 00181E50 ?GetSizeOf@EDeactivateBlend@@UAEJXZ
       2644  A53 00066300 ?GetSizeOf@EDefenseBullet@@UAEJXZ
       2645  A54 0009EFA0 ?GetSizeOf@EDirectDancers@@UAEJXZ
       2646  A55 001A4DA0 ?GetSizeOf@EDisconnected@@UAEJXZ
       2647  A56 00120AF0 ?GetSizeOf@EDownMode@@UAEJXZ
       2648  A57 001A4480 ?GetSizeOf@EDrugmodeBegin@@UAEJXZ
       2649  A58 001A44E0 ?GetSizeOf@EDrugmodeEnd@@UAEJXZ
       2650  A59 00003820 ?GetSizeOf@EEnd@@UAEJXZ
       2651  A5A 000AF390 ?GetSizeOf@EEndActor@@UAEJXZ
       2652  A5B 000AEF10 ?GetSizeOf@EEnemyBaseDamage@@UAEJXZ
       2653  A5C 000AEF90 ?GetSizeOf@EEnemyBaseDeath@@UAEJXZ
       2654  A5D 000041B0 ?GetSizeOf@EEntityVoice@@UAEJXZ
       2655  A5E 000037A0 ?GetSizeOf@EEnvironmentStart@@UAEJXZ
       2656  A5F 000037E0 ?GetSizeOf@EEnvironmentStop@@UAEJXZ
       2657  A60 0022DF40 ?GetSizeOf@EExplode@@UAEJXZ
       2658  A61 00003EF0 ?GetSizeOf@EExtraTeleport@@UAEJXZ
       2659  A62 0019F8E0 ?GetSizeOf@EFireBombs@@UAEJXZ
       2660  A63 00099A80 ?GetSizeOf@EFireDagger@@UAEJXZ
       2661  A64 000969C0 ?GetSizeOf@EFireDaggerNow@@UAEJXZ
       2662  A65 00120980 ?GetSizeOf@EFireLightning@@UAEJXZ
       2663  A66 00149400 ?GetSizeOf@EFireRocket@@UAEJXZ
       2664  A67 001A5360 ?GetSizeOf@EFireWeapon@@UAEJXZ
       2665  A68 0022C3E0 ?GetSizeOf@EFlame@@UAEJXZ
       2666  A69 0021FE10 ?GetSizeOf@EFlipTheSwitch@@UAEJXZ
       2667  A6A 0018D320 ?GetSizeOf@EFloatingScore@@UAEJXZ
       2668  A6B 000AEE70 ?GetSizeOf@EForceWound@@UAEJXZ
       2669  A6C 000998E0 ?GetSizeOf@EForward@@UAEJXZ
       2670  A6D 00116870 ?GetSizeOf@EGetDamaged@@UAEJXZ
       2671  A6E 001495C0 ?GetSizeOf@EGoToBellMarker@@UAEJXZ
       2672  A6F 001A5840 ?GetSizeOf@EGrenadeExplodeNow@@UAEJXZ
       2673  A70 000042B0 ?GetSizeOf@EGrindClose@@UAEJXZ
       2674  A71 00004230 ?GetSizeOf@EGrindInit@@UAEJXZ
       2675  A72 00004330 ?GetSizeOf@EGrindOff@@UAEJXZ
       2676  A73 000042F0 ?GetSizeOf@EGrindOn@@UAEJXZ
       2677  A74 00004270 ?GetSizeOf@EGrindOpen@@UAEJXZ
       2678  A75 001166B0 ?GetSizeOf@EGuard@@UAEJXZ
       2679  A76 00113CC0 ?GetSizeOf@EGuardState@@UAEJXZ
       2680  A77 00248B40 ?GetSizeOf@EHarbor@@UAEJXZ
       2681  A78 002445F0 ?GetSizeOf@EHit@@UAEJXZ
       2682  A79 000046C0 ?GetSizeOf@EHitBySpaceShipBeam@@UAEJXZ
       2683  A7A 00003C60 ?GetSizeOf@EHooker3@@UAEJXZ
       2684  A7B 00003CA0 ?GetSizeOf@EHooker@@UAEJXZ
       2685  A7C 000043F0 ?GetSizeOf@EHudPicFX@@UAEJXZ
       2686  A7D 000AF050 ?GetSizeOf@EInDrugModeItem@@UAEJXZ
       2687  A7E 000AF210 ?GetSizeOf@EInRange@@UAEJXZ
       2688  A7F 0019F7E0 ?GetSizeOf@EInitMaria@@UAEJXZ
       2689  A80 002654C0 ?GetSizeOf@EInitMariaNPC@@UAEJXZ
       2690  A81 0026E5C0 ?GetSizeOf@EItemHealthyFamily@@UAEJXZ
       2691  A82 00079B70 ?GetSizeOf@EJump@@UAEJXZ
       2692  A83 00073370 ?GetSizeOf@EJumpIntoRiceField@@UAEJXZ
       2693  A84 00073310 ?GetSizeOf@EJumpOutFromRiceField@@UAEJXZ
       2694  A85 00196AF0 ?GetSizeOf@EKey@@UAEJXZ
       2695  A86 00003FF0 ?GetSizeOf@EKilledEnemy@@UAEJXZ
       2696  A87 0010ADE0 ?GetSizeOf@ELamonBikeFireRocket@@UAEJXZ
       2697  A88 0010AF10 ?GetSizeOf@ELamonBikeMoveThroughMarkers@@UAEJXZ
       2698  A89 0010AE40 ?GetSizeOf@ELamonBikeOnMarker@@UAEJXZ
       2699  A8A 0010AEB0 ?GetSizeOf@ELamonBikeSuicide@@UAEJXZ
       2700  A8B 000039E0 ?GetSizeOf@ELamonGenerate@@UAEJXZ
       2701  A8C 001A48A0 ?GetSizeOf@ELandingActiveMaria@@UAEJXZ
       2702  A8D 001A4660 ?GetSizeOf@ELandingMaria@@UAEJXZ
       2703  A8E 0019F880 ?GetSizeOf@ELaunch@@UAEJXZ
       2704  A8F 001A4780 ?GetSizeOf@ELaunchActiveMaria@@UAEJXZ
       2705  A90 00004050 ?GetSizeOf@ELaunchAx@@UAEJXZ
       2706  A91 001A4600 ?GetSizeOf@ELaunchMaria@@UAEJXZ
       2707  A92 00003B20 ?GetSizeOf@ELaunchMariaNPC@@UAEJXZ
       2708  A93 0022DE80 ?GetSizeOf@ELaunchProjectile@@UAEJXZ
       2709  A94 00099820 ?GetSizeOf@ELeft@@UAEJXZ
       2710  A95 00003AA0 ?GetSizeOf@ELisa@@UAEJXZ
       2711  A96 0019BFF0 ?GetSizeOf@EMarkPicked@@UAEJXZ
       2712  A97 0024A5D0 ?GetSizeOf@EMarkerPassed@@UAEJXZ
       2713  A98 00197E30 ?GetSizeOf@EMessageItem@@UAEJXZ
       2714  A99 00207620 ?GetSizeOf@EModel2Activate@@UAEJXZ
       2715  A9A 00207680 ?GetSizeOf@EModel2Deactivate@@UAEJXZ
       2716  A9B 0020A010 ?GetSizeOf@EModel3Activate@@UAEJXZ
       2717  A9C 0020A070 ?GetSizeOf@EModel3Deactivate@@UAEJXZ
       2718  A9D 00217170 ?GetSizeOf@EModelChange@@UAEJXZ
       2719  A9E 002046F0 ?GetSizeOf@EModelDeath@@UAEJXZ
       2720  A9F 00217290 ?GetSizeOf@EModelDeathSpawnAmmoItem@@UAEJXZ
       2721  AA0 00217230 ?GetSizeOf@EModelDeathSpawnArmorItem@@UAEJXZ
       2722  AA1 002171D0 ?GetSizeOf@EModelDeathSpawnHealthItem@@UAEJXZ
       2723  AA2 002172F0 ?GetSizeOf@EModelDeathSpawnSpecialItem@@UAEJXZ
       2724  AA3 00003ED0 ?GetSizeOf@EModelSelfDestruction@@UAEJXZ
       2725  AA4 001496C0 ?GetSizeOf@EMoveToDestMarker@@UAEJXZ
       2726  AA5 00211110 ?GetSizeOf@EMusicChangerTrigger@@UAEJXZ
       2727  AA6 00211A40 ?GetSizeOf@ENetChangeMusic@@UAEJXZ
       2728  AA7 001A5720 ?GetSizeOf@ENetFireWeapon@@UAEJXZ
       2729  AA8 001A5780 ?GetSizeOf@ENetReleaseWeapon@@UAEJXZ
       2730  AA9 001A57E0 ?GetSizeOf@ENetReloadWeapon@@UAEJXZ
       2731  AAA 001A56C0 ?GetSizeOf@ENetSelectWeapon@@UAEJXZ
       2732  AAB 000CBE80 ?GetSizeOf@ENetSpawnEntity@@UAEJXZ
       2733  AAC 00186E30 ?GetSizeOf@ENetTrigger@@UAEJXZ
       2734  AAD 00004630 ?GetSizeOf@EObjectiveCompletedMessage@@UAEJXZ
       2735  AAE 001494E0 ?GetSizeOf@EOnMarker@@UAEJXZ
       2736  AAF 00003F70 ?GetSizeOf@EOnPeerDead@@UAEJXZ
       2737  AB0 000AF130 ?GetSizeOf@EOutDrugModeItem@@UAEJXZ
       2738  AB1 000AF2F0 ?GetSizeOf@EOutRange@@UAEJXZ
       2739  AB2 00214AA0 ?GetSizeOf@EParticlesActivate@@UAEJXZ
       2740  AB3 00214AE0 ?GetSizeOf@EParticlesDeactivate@@UAEJXZ
       2741  AB4 002118F0 ?GetSizeOf@EPlayEcstasy@@UAEJXZ
       2742  AB5 0021F170 ?GetSizeOf@EPlaySoundOnce@@UAEJXZ
       2743  AB6 001A5020 ?GetSizeOf@EPlayerDeath@@UAEJXZ
       2744  AB7 00120A90 ?GetSizeOf@EPlayerInCloseRange@@UAEJXZ
       2745  AB8 001A4F30 ?GetSizeOf@EPlayerKilledEnemy@@UAEJXZ
       2746  AB9 001A4D40 ?GetSizeOf@EPlayerRebirth@@UAEJXZ
       2747  ABA 001A50C0 ?GetSizeOf@EPlayerStats@@UAEJXZ
       2748  ABB 00198710 ?GetSizeOf@EPowerUp@@UAEJXZ
       2749  ABC 00149660 ?GetSizeOf@EPriestStart@@UAEJXZ
       2750  ABD 00242600 ?GetSizeOf@EProjectileSpawnClient@@UAEJXZ
       2751  ABE 00003F10 ?GetSizeOf@EProtectorFire@@UAEJXZ
       2752  ABF 001168B0 ?GetSizeOf@EProtectorsCleared@@UAEJXZ
       2753  AC0 001A5600 ?GetSizeOf@EPutDown@@UAEJXZ
       2754  AC1 0027E270 ?GetSizeOf@ERHawkDeath@@UAEJXZ
       2755  AC2 00204690 ?GetSizeOf@ERangeModelDestruction@@UAEJXZ
       2756  AC3 001A4CE0 ?GetSizeOf@ERebirth@@UAEJXZ
       2757  AC4 00003E60 ?GetSizeOf@EReceiveScore@@UAEJXZ
       2758  AC5 0019BF50 ?GetSizeOf@EReceiveSkaItem@@UAEJXZ
       2759  AC6 000AEE10 ?GetSizeOf@EReconsiderBehavior@@UAEJXZ
       2760  AC7 001A53C0 ?GetSizeOf@EReleaseWeapon@@UAEJXZ
       2761  AC8 001A5540 ?GetSizeOf@EReloadChtGiveall@@UAEJXZ
       2762  AC9 001A54E0 ?GetSizeOf@EReloadGetAmmo@@UAEJXZ
       2763  ACA 001A5420 ?GetSizeOf@EReloadWeapon@@UAEJXZ
       2764  ACB 000039A0 ?GetSizeOf@EReminder@@UAEJXZ
       2765  ACC 00059210 ?GetSizeOf@EReminderInit@@UAEJXZ
       2766  ACD 000AEDB0 ?GetSizeOf@ERestartAttack@@UAEJXZ
       2767  ACE 00099880 ?GetSizeOf@ERight@@UAEJXZ
       2768  ACF 000733D0 ?GetSizeOf@ERightAttack@@UAEJXZ
       2769  AD0 00079BD0 ?GetSizeOf@ERightFire@@UAEJXZ
       2770  AD1 001A5660 ?GetSizeOf@ERigidityWeapon@@UAEJXZ
       2771  AD2 000999A0 ?GetSizeOf@ERotateLeft@@UAEJXZ
       2772  AD3 00099A10 ?GetSizeOf@ERotateRight@@UAEJXZ
       2773  AD4 000040B0 ?GetSizeOf@EScroll@@UAEJXZ
       2774  AD5 00004010 ?GetSizeOf@ESecretFound@@UAEJXZ
       2775  AD6 001A52A0 ?GetSizeOf@ESelectWeapon@@UAEJXZ
       2776  AD7 001A46C0 ?GetSizeOf@ESetPlayerWeapon@@UAEJXZ
       2777  AD8 0019C0A0 ?GetSizeOf@ESetType@@UAEJXZ
       2778  AD9 001F3900 ?GetSizeOf@ESetViewer@@UAEJXZ
       2779  ADA 001A5060 ?GetSizeOf@EShowConsole@@UAEJXZ
       2780  ADB 001995A0 ?GetSizeOf@ESkaAmmoItem@@UAEJXZ
       2781  ADC 0019A1E0 ?GetSizeOf@ESkaArmor@@UAEJXZ
       2782  ADD 0019AF40 ?GetSizeOf@ESkaHealth@@UAEJXZ
       2783  ADE 00003EB0 ?GetSizeOf@ESkaMovingModelDestruction@@UAEJXZ
       2784  ADF 0019D470 ?GetSizeOf@ESkaSpecialItem@@UAEJXZ
       2785  AE0 00004090 ?GetSizeOf@ESound@@UAEJXZ
       2786  AE1 001836C0 ?GetSizeOf@ESpawnDebris@@UAEJXZ
       2787  AE2 00185450 ?GetSizeOf@ESpawnDebrisSka@@UAEJXZ
       2788  AE3 0017CDB0 ?GetSizeOf@ESpawnEffect@@UAEJXZ
       2789  AE4 001882C0 ?GetSizeOf@ESpawnEffector@@UAEJXZ
       2790  AE5 00189630 ?GetSizeOf@ESpawnFXEmiter@@UAEJXZ
       2791  AE6 0022DFC0 ?GetSizeOf@ESpawnFlame@@UAEJXZ
       2792  AE7 00182580 ?GetSizeOf@ESpawnSpray@@UAEJXZ
       2793  AE8 00242520 ?GetSizeOf@ESpawnerProjectile@@UAEJXZ
       2794  AE9 00099B40 ?GetSizeOf@ESpawning@@UAEJXZ
       2795  AEA 000036A0 ?GetSizeOf@EStart@@UAEJXZ
       2796  AEB 00003D20 ?GetSizeOf@EStartAttack@@UAEJXZ
       2797  AEC 000C3860 ?GetSizeOf@EStartCounter@@UAEJXZ
       2798  AED 0009F000 ?GetSizeOf@EStartDancers@@UAEJXZ
       2799  AEE 001A49A0 ?GetSizeOf@EStartPulling@@UAEJXZ
       2800  AEF 002446B0 ?GetSizeOf@EStartSounds@@UAEJXZ
       2801  AF0 0019F9A0 ?GetSizeOf@EStealth@@UAEJXZ
       2802  AF1 001A4900 ?GetSizeOf@EStepBack@@UAEJXZ
       2803  AF2 00003660 ?GetSizeOf@EStop@@UAEJXZ
       2804  AF3 00003D60 ?GetSizeOf@EStopAttack@@UAEJXZ
       2805  AF4 00003DA0 ?GetSizeOf@EStopBlindness@@UAEJXZ
       2806  AF5 000C38C0 ?GetSizeOf@EStopCounter@@UAEJXZ
       2807  AF6 00099AE0 ?GetSizeOf@EStopDanceMode@@UAEJXZ
       2808  AF7 0009F060 ?GetSizeOf@EStopDancers@@UAEJXZ
       2809  AF8 00003DE0 ?GetSizeOf@EStopDeafness@@UAEJXZ
       2810  AF9 0022C4C0 ?GetSizeOf@EStopFlaming@@UAEJXZ
       2811  AFA 00120A30 ?GetSizeOf@EStopLightning@@UAEJXZ
       2812  AFB 001A4A80 ?GetSizeOf@EStopPulling@@UAEJXZ
       2813  AFC 00244710 ?GetSizeOf@EStopSounds@@UAEJXZ
       2814  AFD 0018ED40 ?GetSizeOf@EStormEnvironmentStart@@UAEJXZ
       2815  AFE 0018EDA0 ?GetSizeOf@EStormStart@@UAEJXZ
       2816  AFF 0018EE00 ?GetSizeOf@EStormStop@@UAEJXZ
       2817  B00 00221110 ?GetSizeOf@ETeleportActivate@@UAEJXZ
       2818  B01 00221170 ?GetSizeOf@ETeleportDeactivate@@UAEJXZ
       2819  B02 00003960 ?GetSizeOf@ETeleportMovingBrush@@UAEJXZ
       2820  B03 00004130 ?GetSizeOf@ETextFX@@UAEJXZ
       2821  B04 00222F10 ?GetSizeOf@EToasterTrigger@@UAEJXZ
       2822  B05 002240A0 ?GetSizeOf@ETorpedoDamage@@UAEJXZ
       2823  B06 00224040 ?GetSizeOf@ETorpedoExplode@@UAEJXZ
       2824  B07 00003860 ?GetSizeOf@ETrigger@@UAEJXZ
       2825  B08 000038E0 ?GetSizeOf@ETriggerActionMarker@@UAEJXZ
       2826  B09 00188320 ?GetSizeOf@ETriggerEffector@@UAEJXZ
       2827  B0A 0018D960 ?GetSizeOf@ETriggerLightning@@UAEJXZ
       2828  B0B 001CE340 ?GetSizeOf@EViewInit@@UAEJXZ
       2829  B0C 000045A0 ?GetSizeOf@EVoiceMessage@@UAEJXZ
       2830  B0D 00116750 ?GetSizeOf@EWaitMode@@UAEJXZ
       2831  B0E 000732B0 ?GetSizeOf@EWaitOnRiceField@@UAEJXZ
       2832  B0F 0005B6B0 ?GetSizeOf@EWatch@@UAEJXZ
       2833  B10 0005B5C0 ?GetSizeOf@EWatcherInit@@UAEJXZ
       2834  B11 002434D0 ?GetSizeOf@EWater@@UAEJXZ
       2835  B12 001A5480 ?GetSizeOf@EWeaponChanged@@UAEJXZ
       2836  B13 001E3590 ?GetSizeOf@EWeaponEffectInit@@UAEJXZ
       2837  B14 0019DF10 ?GetSizeOf@EWeaponItem@@UAEJXZ
       2838  B15 001A51F0 ?GetSizeOf@EWeaponsInit@@UAEJXZ
       2839  B16 001947A0 ?GetSizeOf@EWeatherStart@@UAEJXZ
       2840  B17 001947E0 ?GetSizeOf@EWeatherStop@@UAEJXZ
       2841  B18 001A4540 ?GetSizeOf@EWhip@@UAEJXZ
       2842  B19 00258240 ?GetSizeOf@EbflameOff@@UAEJXZ
       2843  B1A 00258180 ?GetSizeOf@EbflameOn@@UAEJXZ
       2844  B1B 002581E0 ?GetSizeOf@Ebflame_ing@@UAEJXZ
       2845  B1C 001BAD20 ?GetStats@CPlayer@@QAEXAAVCTString@@W4CompStatType@@J@Z
       2846  B1D 001A97F0 ?GetStatsInGameTimeGame@CPlayer@@QAEMXZ
       2847  B1E 001A97C0 ?GetStatsInGameTimeLevel@CPlayer@@QAEMXZ
       2848  B1F 001A9860 ?GetStatsRealWorldStarted@CPlayer@@QAE?AVCTString@@XZ
       2849  B20 001A9820 ?GetStatsRealWorldTime@CPlayer@@QAEMXZ
       2850  B21 00011AC0 ?GetStdEntityInfo@@YAPAUEntityInfo@@W4EntityInfoBodyType@@@Z
       2851  B22 00058F30 ?GetTarget@CNavigationMarker@@UBEPAVCEntity@@XZ
       2852  B23 001B4F00 ?GetTeleportingOffset@CPlayer@@QAE?AV?$Vector@M$02@@XZ
       2853  B24 000B5D30 ?GetThreatDistance@CEnemyBase@@UAEMXZ
       2854  B25 000B0650 ?GetUsedMemory@CEnemyBase@@UAEJXZ
       2855  B26 001D1290 ?GetUsedMemory@CPlayerWeapons@@UAEJXZ
       2856  B27 001E5DD0 ?GetUsedMemory@CPlayerWeapons_L@@UAEJXZ
       2857  B28 0019C6D0 ?GetUsedMemory@CSkaItem@@UAEJXZ
       2858  B29 0005BA30 ?GetUsedMemory@CWatcher@@UAEJXZ
       2859  B2A 001AC220 ?GetViewEntity@CPlayer@@QAEPAVCEntity@@XZ
       2860  B2B 00011C80 ?GetWSC@@YAPAVCWorldSettingsController@@PAVCEntity@@@Z
       2861  B2C 000AF6C0 ?GetWatcher@CEnemyBase@@QAEPAVCWatcher@@XZ
       2862  B2D 001D9170 ?GetWeaponAmmo@CPlayerWeapons@@QAEGJ@Z
       2863  B2E 001ECE20 ?GetWeaponAmmo@CPlayerWeapons_L@@QAEGJ@Z
       2864  B2F 001D1370 ?GetWeaponName@CPlayerWeapons@@QAEXAAVCTString@@@Z
       2865  B30 001E5EB0 ?GetWeaponName@CPlayerWeapons_L@@QAEXAAVCTString@@@Z
       2866  B31 001C5750 ?GetWhipTarget@CPlayer@@QAEPAVCEnemyBase@@XZ
       2867  B32 001B2C10 ?GetWorldGlaring@CPlayer@@QAEKXZ
       2868  B33 0023A020 ?GraciaAxGuidedProjectile@CProjectile@@QAEXW4ProjectileMovingType@@@Z
       2869  B34 00239D40 ?GraciaAxProjectile@CProjectile@@QAEXXZ
       2870  B35 00239E80 ?GraciaAxTrajectoryProjectile@CProjectile@@QAEXXZ
       2871  B36 0023AAB0 ?GraciaLaserBlueRay@CProjectile@@QAEXJ@Z
       2872  B37 0023AEB0 ?GraciaLaserBlueWave@CProjectile@@QAEXXZ
       2873  B38 0023A950 ?GraciaLaserGreenRay@CProjectile@@QAEXJ@Z
       2874  B39 0023AD70 ?GraciaLaserGreenWave@CProjectile@@QAEXXZ
       2875  B3A 003D1EF8 ?GravityType_enum@@3VCEntityPropertyEnumType@@A
       2876  B3B 003D1ED8 ?GravityType_values@@3PAVCEntityPropertyEnumValue@@A
       2877  B3C 001DD490 ?GrenadeLauncherSmoke@CPlayerWeapons@@QAEXJ@Z
       2878  B3D 0022EFC0 ?GrenadeSummonExtra@CProjectile@@QAEXXZ
       2879  B3E 000C4600 ?GroundFire@CEnemyDive@@QAEHABVCEntityEvent@@@Z
       2880  B3F 000C6AB0 ?GroundFire@CEnemyFly@@QAEHABVCEntityEvent@@@Z
       2881  B40 000C4590 ?GroundHit@CEnemyDive@@QAEHABVCEntityEvent@@@Z
       2882  B41 000C6A40 ?GroundHit@CEnemyFly@@QAEHABVCEntityEvent@@@Z
       2883  B42 000C7A00 ?GroundToAir@CEnemyFly@@QAEHABVCEntityEvent@@@Z
       2884  B43 000C4F30 ?GroundToAirAnim@CEnemyFly@@UAEMXZ
       2885  B44 001A1A20 ?GuidedFlyBack@CMaria@@QAEHABVCEntityEvent@@@Z
       2886  B45 001A8F30 ?GuidooAnimation@CPlayer@@QAEXJKMMM@Z
       2887  B46 000BFF00 ?H0x0136000e_MoveToDestination_01@CEnemyBase@@QAEHABVCEntityEvent@@@Z
       2888  B47 000B08B0 ?H0x0136000f_MoveToDestination_02@CEnemyBase@@QAEHABVCEntityEvent@@@Z
       2889  B48 000BFE10 ?H0x01360010_MoveToDestination_03@CEnemyBase@@QAEHABVCEntityEvent@@@Z
       2890  B49 000B0920 ?H0x01360011_MoveToDestination_04@CEnemyBase@@QAEHABVCEntityEvent@@@Z
       2891  B4A 000B0990 ?H0x01360013_MoveToRandomPatrolPosition_01@CEnemyBase@@QAEHABVCEntityEvent@@@Z
       2892  B4B 000B0A40 ?H0x01360014_MoveToRandomPatrolPosition_02@CEnemyBase@@QAEHABVCEntityEvent@@@Z
       2893  B4C 000B0B20 ?H0x01360016_DoPatrolling_01@CEnemyBase@@QAEHABVCEntityEvent@@@Z
       2894  B4D 000B0BB0 ?H0x01360017_DoPatrolling_02@CEnemyBase@@QAEHABVCEntityEvent@@@Z
       2895  B4E 000B0C20 ?H0x01360018_DoPatrolling_03@CEnemyBase@@QAEHABVCEntityEvent@@@Z
       2896  B4F 000B0CD0 ?H0x01360019_DoPatrolling_04@CEnemyBase@@QAEHABVCEntityEvent@@@Z
       2897  B50 000C1590 ?H0x0136001a_DoPatrolling_05@CEnemyBase@@QAEHABVCEntityEvent@@@Z
       2898  B51 000B0D40 ?H0x0136001b_DoPatrolling_06@CEnemyBase@@QAEHABVCEntityEvent@@@Z
       2899  B52 000B0D50 ?H0x0136001d_BeIdle_01@CEnemyBase@@QAEHABVCEntityEvent@@@Z
       2900  B53 000B0DE0 ?H0x0136001e_BeIdle_02@CEnemyBase@@QAEHABVCEntityEvent@@@Z
       2901  B54 000B0EE0 ?H0x0136001f_BeIdle_03@CEnemyBase@@QAEHABVCEntityEvent@@@Z
       2902  B55 000B0F70 ?H0x01360020_BeIdle_04@CEnemyBase@@QAEHABVCEntityEvent@@@Z
       2903  B56 000B0FE0 ?H0x01360021_BeIdle_05@CEnemyBase@@QAEHABVCEntityEvent@@@Z
       2904  B57 000C0200 ?H0x01360022_BeIdle_06@CEnemyBase@@QAEHABVCEntityEvent@@@Z
       2905  B58 000B0E60 ?H0x01360023_BeIdle_07@CEnemyBase@@QAEHABVCEntityEvent@@@Z
       2906  B59 000B65B0 ?H0x01360024_BeIdle_08@CEnemyBase@@QAEHABVCEntityEvent@@@Z
       2907  B5A 000B1050 ?H0x01360025_BeIdle_09@CEnemyBase@@QAEHABVCEntityEvent@@@Z
       2908  B5B 000B1250 ?H0x01360029_MoveThroughMarkers_01@CEnemyBase@@QAEHABVCEntityEvent@@@Z
       2909  B5C 000B1300 ?H0x0136002a_MoveThroughMarkers_02@CEnemyBase@@QAEHABVCEntityEvent@@@Z
       2910  B5D 000B1470 ?H0x0136002b_MoveThroughMarkers_03@CEnemyBase@@QAEHABVCEntityEvent@@@Z
       2911  B5E 000B1520 ?H0x0136002c_MoveThroughMarkers_04@CEnemyBase@@QAEHABVCEntityEvent@@@Z
       2912  B5F 000B1650 ?H0x0136002d_MoveThroughMarkers_05@CEnemyBase@@QAEHABVCEntityEvent@@@Z
       2913  B60 000B1700 ?H0x0136002e_MoveThroughMarkers_06@CEnemyBase@@QAEHABVCEntityEvent@@@Z
       2914  B61 000B1770 ?H0x0136002f_MoveThroughMarkers_07@CEnemyBase@@QAEHABVCEntityEvent@@@Z
       2915  B62 000C1910 ?H0x01360030_MoveThroughMarkers_08@CEnemyBase@@QAEHABVCEntityEvent@@@Z
       2916  B63 000B17E0 ?H0x01360031_MoveThroughMarkers_09@CEnemyBase@@QAEHABVCEntityEvent@@@Z
       2917  B64 000B1590 ?H0x01360032_MoveThroughMarkers_10@CEnemyBase@@QAEHABVCEntityEvent@@@Z
       2918  B65 000B1850 ?H0x01360033_MoveThroughMarkers_11@CEnemyBase@@QAEHABVCEntityEvent@@@Z
       2919  B66 000B1370 ?H0x01360034_MoveThroughMarkers_12@CEnemyBase@@QAEHABVCEntityEvent@@@Z
       2920  B67 000C1990 ?H0x01360035_MoveThroughMarkers_13@CEnemyBase@@QAEHABVCEntityEvent@@@Z
       2921  B68 000B1140 ?H0x01360036_MoveThroughMarkers_14@CEnemyBase@@QAEHABVCEntityEvent@@@Z
       2922  B69 000B18C0 ?H0x01360037_MoveThroughMarkers_15@CEnemyBase@@QAEHABVCEntityEvent@@@Z
       2923  B6A 000B1950 ?H0x01360038_MoveThroughMarkers_16@CEnemyBase@@QAEHABVCEntityEvent@@@Z
       2924  B6B 000B19C0 ?H0x01360039_MoveThroughMarkers_17@CEnemyBase@@QAEHABVCEntityEvent@@@Z
       2925  B6C 000B1AB0 ?H0x0136003a_MoveThroughMarkers_18@CEnemyBase@@QAEHABVCEntityEvent@@@Z
       2926  B6D 000B1B40 ?H0x0136003b_MoveThroughMarkers_19@CEnemyBase@@QAEHABVCEntityEvent@@@Z
       2927  B6E 000B1BB0 ?H0x0136003c_MoveThroughMarkers_20@CEnemyBase@@QAEHABVCEntityEvent@@@Z
       2928  B6F 000B1C20 ?H0x0136003d_MoveThroughMarkers_21@CEnemyBase@@QAEHABVCEntityEvent@@@Z
       2929  B70 000B1A30 ?H0x0136003e_MoveThroughMarkers_22@CEnemyBase@@QAEHABVCEntityEvent@@@Z
       2930  B71 000B1DE0 ?H0x0136003f_MoveThroughMarkers_23@CEnemyBase@@QAEHABVCEntityEvent@@@Z
       2931  B72 000B1EC0 ?H0x01360040_MoveThroughMarkers_24@CEnemyBase@@QAEHABVCEntityEvent@@@Z
       2932  B73 000C1BB0 ?H0x01360041_MoveThroughMarkers_25@CEnemyBase@@QAEHABVCEntityEvent@@@Z
       2933  B74 000B1F30 ?H0x01360042_MoveThroughMarkers_26@CEnemyBase@@QAEHABVCEntityEvent@@@Z
       2934  B75 000B1FC0 ?H0x01360043_MoveThroughMarkers_27@CEnemyBase@@QAEHABVCEntityEvent@@@Z
       2935  B76 000B2030 ?H0x01360044_MoveThroughMarkers_28@CEnemyBase@@QAEHABVCEntityEvent@@@Z
       2936  B77 000B20B0 ?H0x01360045_MoveThroughMarkers_29@CEnemyBase@@QAEHABVCEntityEvent@@@Z
       2937  B78 000B2140 ?H0x01360046_MoveThroughMarkers_30@CEnemyBase@@QAEHABVCEntityEvent@@@Z
       2938  B79 000C1700 ?H0x01360047_MoveThroughMarkers_31@CEnemyBase@@QAEHABVCEntityEvent@@@Z
       2939  B7A 000C1CA0 ?H0x01360048_MoveThroughMarkers_32@CEnemyBase@@QAEHABVCEntityEvent@@@Z
       2940  B7B 000B21E0 ?H0x0136004a_NewEnemySpotted_01@CEnemyBase@@QAEHABVCEntityEvent@@@Z
       2941  B7C 000B22A0 ?H0x0136004b_NewEnemySpotted_02@CEnemyBase@@QAEHABVCEntityEvent@@@Z
       2942  B7D 000B2310 ?H0x0136004c_NewEnemySpotted_03@CEnemyBase@@QAEHABVCEntityEvent@@@Z
       2943  B7E 000B23F0 ?H0x01360050_AttackEnemy_01@CEnemyBase@@QAEHABVCEntityEvent@@@Z
       2944  B7F 000B24A0 ?H0x01360051_AttackEnemy_02@CEnemyBase@@QAEHABVCEntityEvent@@@Z
       2945  B80 000B25C0 ?H0x01360052_AttackEnemy_03@CEnemyBase@@QAEHABVCEntityEvent@@@Z
       2946  B81 000B2670 ?H0x01360053_AttackEnemy_04@CEnemyBase@@QAEHABVCEntityEvent@@@Z
       2947  B82 000B2510 ?H0x01360054_AttackEnemy_05@CEnemyBase@@QAEHABVCEntityEvent@@@Z
       2948  B83 000B26E0 ?H0x01360055_AttackEnemy_06@CEnemyBase@@QAEHABVCEntityEvent@@@Z
       2949  B84 000B2750 ?H0x01360056_AttackEnemy_07@CEnemyBase@@QAEHABVCEntityEvent@@@Z
       2950  B85 000B2800 ?H0x01360057_AttackEnemy_08@CEnemyBase@@QAEHABVCEntityEvent@@@Z
       2951  B86 000C0450 ?H0x01360059_PerformAttack_01@CEnemyBase@@QAEHABVCEntityEvent@@@Z
       2952  B87 000B2920 ?H0x0136005a_PerformAttack_02@CEnemyBase@@QAEHABVCEntityEvent@@@Z
       2953  B88 000C02F0 ?H0x0136005b_PerformAttack_03@CEnemyBase@@QAEHABVCEntityEvent@@@Z
       2954  B89 000B2990 ?H0x0136005c_PerformAttack_04@CEnemyBase@@QAEHABVCEntityEvent@@@Z
       2955  B8A 000B29A0 ?H0x0136005e_FireOrHit_01@CEnemyBase@@QAEHABVCEntityEvent@@@Z
       2956  B8B 000B2A50 ?H0x0136005f_FireOrHit_02@CEnemyBase@@QAEHABVCEntityEvent@@@Z
       2957  B8C 000B2AC0 ?H0x01360060_FireOrHit_03@CEnemyBase@@QAEHABVCEntityEvent@@@Z
       2958  B8D 000B2B70 ?H0x01360061_FireOrHit_04@CEnemyBase@@QAEHABVCEntityEvent@@@Z
       2959  B8E 000B2C60 ?H0x01360062_FireOrHit_05@CEnemyBase@@QAEHABVCEntityEvent@@@Z
       2960  B8F 000B2D10 ?H0x01360063_FireOrHit_06@CEnemyBase@@QAEHABVCEntityEvent@@@Z
       2961  B90 000B2D80 ?H0x01360064_FireOrHit_07@CEnemyBase@@QAEHABVCEntityEvent@@@Z
       2962  B91 000B2DF0 ?H0x01360065_FireOrHit_08@CEnemyBase@@QAEHABVCEntityEvent@@@Z
       2963  B92 000B2BE0 ?H0x01360066_FireOrHit_09@CEnemyBase@@QAEHABVCEntityEvent@@@Z
       2964  B93 000B2E60 ?H0x01360067_FireOrHit_10@CEnemyBase@@QAEHABVCEntityEvent@@@Z
       2965  B94 000C2BC0 ?H0x01360068_FireOrHit_11@CEnemyBase@@QAEHABVCEntityEvent@@@Z
       2966  B95 000C0D80 ?H0x0136006d_LockOnEnemy_01@CEnemyBase@@QAEHABVCEntityEvent@@@Z
       2967  B96 000B3110 ?H0x0136006e_LockOnEnemy_02@CEnemyBase@@QAEHABVCEntityEvent@@@Z
       2968  B97 000B3020 ?H0x0136006f_LockOnEnemy_03@CEnemyBase@@QAEHABVCEntityEvent@@@Z
       2969  B98 000C0EA0 ?H0x01360070_LockOnEnemy_04@CEnemyBase@@QAEHABVCEntityEvent@@@Z
       2970  B99 000C1FD0 ?H0x01360072_ChargeHitEnemy_01@CEnemyBase@@QAEHABVCEntityEvent@@@Z
       2971  B9A 000B3220 ?H0x01360073_ChargeHitEnemy_02@CEnemyBase@@QAEHABVCEntityEvent@@@Z
       2972  B9B 000C2250 ?H0x01360074_ChargeHitEnemy_03@CEnemyBase@@QAEHABVCEntityEvent@@@Z
       2973  B9C 000B3300 ?H0x01360075_ChargeHitEnemy_04@CEnemyBase@@QAEHABVCEntityEvent@@@Z
       2974  B9D 000B3370 ?H0x01360076_ChargeHitEnemy_05@CEnemyBase@@QAEHABVCEntityEvent@@@Z
       2975  B9E 000B34F0 ?H0x01360078_BeWounded_01@CEnemyBase@@QAEHABVCEntityEvent@@@Z
       2976  B9F 000B3580 ?H0x01360079_BeWounded_02@CEnemyBase@@QAEHABVCEntityEvent@@@Z
       2977  BA0 000B3680 ?H0x0136007a_BeWounded_03@CEnemyBase@@QAEHABVCEntityEvent@@@Z
       2978  BA1 000B3710 ?H0x0136007b_BeWounded_04@CEnemyBase@@QAEHABVCEntityEvent@@@Z
       2979  BA2 000B3780 ?H0x0136007c_BeWounded_05@CEnemyBase@@QAEHABVCEntityEvent@@@Z
       2980  BA3 000B37F0 ?H0x0136007d_BeWounded_06@CEnemyBase@@QAEHABVCEntityEvent@@@Z
       2981  BA4 000B35F0 ?H0x0136007e_BeWounded_07@CEnemyBase@@QAEHABVCEntityEvent@@@Z
       2982  BA5 000B3860 ?H0x0136007f_BeWounded_08@CEnemyBase@@QAEHABVCEntityEvent@@@Z
       2983  BA6 000B38F0 ?H0x01360080_BeWounded_09@CEnemyBase@@QAEHABVCEntityEvent@@@Z
       2984  BA7 000B3A40 ?H0x01360081_BeWounded_10@CEnemyBase@@QAEHABVCEntityEvent@@@Z
       2985  BA8 000B3AD0 ?H0x01360082_BeWounded_11@CEnemyBase@@QAEHABVCEntityEvent@@@Z
       2986  BA9 000B3B60 ?H0x01360083_BeWounded_12@CEnemyBase@@QAEHABVCEntityEvent@@@Z
       2987  BAA 000B3BF0 ?H0x01360084_BeWounded_13@CEnemyBase@@QAEHABVCEntityEvent@@@Z
       2988  BAB 000B3CF0 ?H0x01360085_BeWounded_14@CEnemyBase@@QAEHABVCEntityEvent@@@Z
       2989  BAC 000B3D80 ?H0x01360086_BeWounded_15@CEnemyBase@@QAEHABVCEntityEvent@@@Z
       2990  BAD 000B3DF0 ?H0x01360087_BeWounded_16@CEnemyBase@@QAEHABVCEntityEvent@@@Z
       2991  BAE 000B3E60 ?H0x01360088_BeWounded_17@CEnemyBase@@QAEHABVCEntityEvent@@@Z
       2992  BAF 000B3C60 ?H0x01360089_BeWounded_18@CEnemyBase@@QAEHABVCEntityEvent@@@Z
       2993  BB0 000B3ED0 ?H0x0136008a_BeWounded_19@CEnemyBase@@QAEHABVCEntityEvent@@@Z
       2994  BB1 000B3960 ?H0x0136008b_BeWounded_20@CEnemyBase@@QAEHABVCEntityEvent@@@Z
       2995  BB2 000B3F40 ?H0x0136008c_BeWounded_21@CEnemyBase@@QAEHABVCEntityEvent@@@Z
       2996  BB3 000B3FB0 ?H0x0136008d_BeWounded_22@CEnemyBase@@QAEHABVCEntityEvent@@@Z
       2997  BB4 000C2300 ?H0x0136008e_BeWounded_23@CEnemyBase@@QAEHABVCEntityEvent@@@Z
       2998  BB5 000B4090 ?H0x01360091_ComboFall_01@CEnemyBase@@QAEHABVCEntityEvent@@@Z
       2999  BB6 000B4120 ?H0x01360092_ComboFall_02@CEnemyBase@@QAEHABVCEntityEvent@@@Z
       3000  BB7 000B6730 ?H0x01360094_Die_01@CEnemyBase@@QAEHABVCEntityEvent@@@Z
       3001  BB8 000C2480 ?H0x01360095_Die_02@CEnemyBase@@QAEHABVCEntityEvent@@@Z
       3002  BB9 000B4500 ?H0x01360097_Death_01@CEnemyBase@@QAEHABVCEntityEvent@@@Z
       3003  BBA 000B4590 ?H0x01360098_Death_02@CEnemyBase@@QAEHABVCEntityEvent@@@Z
       3004  BBB 000B4750 ?H0x01360099_Death_03@CEnemyBase@@QAEHABVCEntityEvent@@@Z
       3005  BBC 000B6A80 ?H0x0136009a_Death_04@CEnemyBase@@QAEHABVCEntityEvent@@@Z
       3006  BBD 000B4670 ?H0x0136009b_Death_05@CEnemyBase@@QAEHABVCEntityEvent@@@Z
       3007  BBE 000B47E0 ?H0x0136009c_Death_06@CEnemyBase@@QAEHABVCEntityEvent@@@Z
       3008  BBF 000B4850 ?H0x0136009d_Death_07@CEnemyBase@@QAEHABVCEntityEvent@@@Z
       3009  BC0 000B48C0 ?H0x0136009e_Death_08@CEnemyBase@@QAEHABVCEntityEvent@@@Z
       3010  BC1 000B4600 ?H0x0136009f_Death_09@CEnemyBase@@QAEHABVCEntityEvent@@@Z
       3011  BC2 000B49B0 ?H0x013600a1_DeathSequence_01@CEnemyBase@@QAEHABVCEntityEvent@@@Z
       3012  BC3 000B4A60 ?H0x013600a2_DeathSequence_02@CEnemyBase@@QAEHABVCEntityEvent@@@Z
       3013  BC4 000B4B50 ?H0x013600a3_DeathSequence_03@CEnemyBase@@QAEHABVCEntityEvent@@@Z
       3014  BC5 000B4BE0 ?H0x013600a4_DeathSequence_04@CEnemyBase@@QAEHABVCEntityEvent@@@Z
       3015  BC6 000B4CA0 ?H0x013600a5_DeathSequence_05@CEnemyBase@@QAEHABVCEntityEvent@@@Z
       3016  BC7 000B4D30 ?H0x013600a6_DeathSequence_06@CEnemyBase@@QAEHABVCEntityEvent@@@Z
       3017  BC8 000B4DB0 ?H0x013600a7_DeathSequence_07@CEnemyBase@@QAEHABVCEntityEvent@@@Z
       3018  BC9 000B4E40 ?H0x013600a8_DeathSequence_08@CEnemyBase@@QAEHABVCEntityEvent@@@Z
       3019  BCA 000B6C80 ?H0x013600aa_Active_01@CEnemyBase@@QAEHABVCEntityEvent@@@Z
       3020  BCB 000B4F30 ?H0x013600ab_Active_02@CEnemyBase@@QAEHABVCEntityEvent@@@Z
       3021  BCC 000B74A0 ?H0x013600ad_Inactive_01@CEnemyBase@@QAEHABVCEntityEvent@@@Z
       3022  BCD 000B4F40 ?H0x013600ae_Inactive_02@CEnemyBase@@QAEHABVCEntityEvent@@@Z
       3023  BCE 000B5110 ?H0x013600b1_MainLoop_internal_01@CEnemyBase@@QAEHABVCEntityEvent@@@Z
       3024  BCF 000B51A0 ?H0x013600b2_MainLoop_internal_02@CEnemyBase@@QAEHABVCEntityEvent@@@Z
       3025  BD0 000B5370 ?H0x013600b3_MainLoop_internal_03@CEnemyBase@@QAEHABVCEntityEvent@@@Z
       3026  BD1 000B5420 ?H0x013600b4_MainLoop_internal_04@CEnemyBase@@QAEHABVCEntityEvent@@@Z
       3027  BD2 000B55D0 ?H0x013600b6_MainLoop_01@CEnemyBase@@QAEHABVCEntityEvent@@@Z
       3028  BD3 000B5690 ?H0x013600b7_MainLoop_02@CEnemyBase@@QAEHABVCEntityEvent@@@Z
       3029  BD4 000B5700 ?H0x013600b8_MainLoop_03@CEnemyBase@@QAEHABVCEntityEvent@@@Z
       3030  BD5 000B5770 ?H0x013600b9_MainLoop_04@CEnemyBase@@QAEHABVCEntityEvent@@@Z
       3031  BD6 000B5550 ?H0x013600ba_MainLoop_05@CEnemyBase@@QAEHABVCEntityEvent@@@Z
       3032  BD7 000B7760 ?H0x013600bc_StandardBehavior_01@CEnemyBase@@QAEHABVCEntityEvent@@@Z
       3033  BD8 000B5800 ?H0x013600bd_StandardBehavior_02@CEnemyBase@@QAEHABVCEntityEvent@@@Z
       3034  BD9 000C50F0 ?H0x01370003_BeWounded_01@CEnemyFly@@QAEHABVCEntityEvent@@@Z
       3035  BDA 000C5180 ?H0x01370004_BeWounded_02@CEnemyFly@@QAEHABVCEntityEvent@@@Z
       3036  BDB 000C5230 ?H0x01370005_BeWounded_03@CEnemyFly@@QAEHABVCEntityEvent@@@Z
       3037  BDC 000C52E0 ?H0x01370006_BeWounded_04@CEnemyFly@@QAEHABVCEntityEvent@@@Z
       3038  BDD 000C5350 ?H0x01370007_BeWounded_05@CEnemyFly@@QAEHABVCEntityEvent@@@Z
       3039  BDE 000C7700 ?H0x01370009_AirToGroundByDamage_01@CEnemyFly@@QAEHABVCEntityEvent@@@Z
       3040  BDF 000C5440 ?H0x0137000a_AirToGroundByDamage_02@CEnemyFly@@QAEHABVCEntityEvent@@@Z
       3041  BE0 000C7910 ?H0x0137000c_AirToGround_01@CEnemyFly@@QAEHABVCEntityEvent@@@Z
       3042  BE1 000C54E0 ?H0x0137000d_AirToGround_02@CEnemyFly@@QAEHABVCEntityEvent@@@Z
       3043  BE2 000C5590 ?H0x0137000e_AirToGround_03@CEnemyFly@@QAEHABVCEntityEvent@@@Z
       3044  BE3 000C5640 ?H0x0137000f_AirToGround_04@CEnemyFly@@QAEHABVCEntityEvent@@@Z
       3045  BE4 000C56B0 ?H0x01370011_GroundToAir_01@CEnemyFly@@QAEHABVCEntityEvent@@@Z
       3046  BE5 000C6CD0 ?H0x01370012_GroundToAir_02@CEnemyFly@@QAEHABVCEntityEvent@@@Z
       3047  BE6 000C5760 ?H0x01370013_GroundToAir_03@CEnemyFly@@QAEHABVCEntityEvent@@@Z
       3048  BE7 000C7B00 ?H0x01370014_GroundToAir_04@CEnemyFly@@QAEHABVCEntityEvent@@@Z
       3049  BE8 000C58F0 ?H0x01370016_AttackEnemy_01@CEnemyFly@@QAEHABVCEntityEvent@@@Z
       3050  BE9 000C59A0 ?H0x01370017_AttackEnemy_02@CEnemyFly@@QAEHABVCEntityEvent@@@Z
       3051  BEA 000C5A10 ?H0x01370018_AttackEnemy_03@CEnemyFly@@QAEHABVCEntityEvent@@@Z
       3052  BEB 000C5B30 ?H0x01370019_AttackEnemy_04@CEnemyFly@@QAEHABVCEntityEvent@@@Z
       3053  BEC 000C5BE0 ?H0x0137001a_AttackEnemy_05@CEnemyFly@@QAEHABVCEntityEvent@@@Z
       3054  BED 000C5C50 ?H0x0137001b_AttackEnemy_06@CEnemyFly@@QAEHABVCEntityEvent@@@Z
       3055  BEE 000C5CC0 ?H0x0137001c_AttackEnemy_07@CEnemyFly@@QAEHABVCEntityEvent@@@Z
       3056  BEF 000C5D30 ?H0x0137001d_AttackEnemy_08@CEnemyFly@@QAEHABVCEntityEvent@@@Z
       3057  BF0 000C5A80 ?H0x0137001e_AttackEnemy_09@CEnemyFly@@QAEHABVCEntityEvent@@@Z
       3058  BF1 000C5EF0 ?H0x01370020_FireOrHit_01@CEnemyFly@@QAEHABVCEntityEvent@@@Z
       3059  BF2 000C5FA0 ?H0x01370021_FireOrHit_02@CEnemyFly@@QAEHABVCEntityEvent@@@Z
       3060  BF3 000C61B0 ?H0x01370022_FireOrHit_03@CEnemyFly@@QAEHABVCEntityEvent@@@Z
       3061  BF4 000C6260 ?H0x01370023_FireOrHit_04@CEnemyFly@@QAEHABVCEntityEvent@@@Z
       3062  BF5 000C6350 ?H0x01370024_FireOrHit_05@CEnemyFly@@QAEHABVCEntityEvent@@@Z
       3063  BF6 000C62D0 ?H0x01370025_FireOrHit_06@CEnemyFly@@QAEHABVCEntityEvent@@@Z
       3064  BF7 000C63C0 ?H0x01370026_FireOrHit_07@CEnemyFly@@QAEHABVCEntityEvent@@@Z
       3065  BF8 000C6010 ?H0x01370027_FireOrHit_08@CEnemyFly@@QAEHABVCEntityEvent@@@Z
       3066  BF9 000C6590 ?H0x0137002b_Death_01@CEnemyFly@@QAEHABVCEntityEvent@@@Z
       3067  BFA 000C6620 ?H0x0137002c_Death_02@CEnemyFly@@QAEHABVCEntityEvent@@@Z
       3068  BFB 000C67E0 ?H0x0137002d_Death_03@CEnemyFly@@QAEHABVCEntityEvent@@@Z
       3069  BFC 000C7D50 ?H0x0137002e_Death_04@CEnemyFly@@QAEHABVCEntityEvent@@@Z
       3070  BFD 000C6700 ?H0x0137002f_Death_05@CEnemyFly@@QAEHABVCEntityEvent@@@Z
       3071  BFE 000C6870 ?H0x01370030_Death_06@CEnemyFly@@QAEHABVCEntityEvent@@@Z
       3072  BFF 000C68E0 ?H0x01370031_Death_07@CEnemyFly@@QAEHABVCEntityEvent@@@Z
       3073  C00 000C6DB0 ?H0x01370032_Death_08@CEnemyFly@@QAEHABVCEntityEvent@@@Z
       3074  C01 000C6690 ?H0x01370033_Death_09@CEnemyFly@@QAEHABVCEntityEvent@@@Z
       3075  C02 000CA3C0 ?H0x01380002_RotateToEnemy_01@CEnemyRunInto@@QAEHABVCEntityEvent@@@Z
       3076  C03 000CA500 ?H0x01380003_RotateToEnemy_02@CEnemyRunInto@@QAEHABVCEntityEvent@@@Z
       3077  C04 000CA2F0 ?H0x01380004_RotateToEnemy_03@CEnemyRunInto@@QAEHABVCEntityEvent@@@Z
       3078  C05 000CA570 ?H0x01380005_RotateToEnemy_04@CEnemyRunInto@@QAEHABVCEntityEvent@@@Z
       3079  C06 000CAC80 ?H0x01380007_RunIntoEnemy_01@CEnemyRunInto@@QAEHABVCEntityEvent@@@Z
       3080  C07 000CA790 ?H0x01380008_RunIntoEnemy_02@CEnemyRunInto@@QAEHABVCEntityEvent@@@Z
       3081  C08 000CA6B0 ?H0x01380009_RunIntoEnemy_03@CEnemyRunInto@@QAEHABVCEntityEvent@@@Z
       3082  C09 000CA800 ?H0x0138000a_RunIntoEnemy_04@CEnemyRunInto@@QAEHABVCEntityEvent@@@Z
       3083  C0A 000CB040 ?H0x0138000c_RunAwayFromEnemy_01@CEnemyRunInto@@QAEHABVCEntityEvent@@@Z
       3084  C0B 000CA950 ?H0x0138000d_RunAwayFromEnemy_02@CEnemyRunInto@@QAEHABVCEntityEvent@@@Z
       3085  C0C 000CA9E0 ?H0x0138000e_RunAwayFromEnemy_03@CEnemyRunInto@@QAEHABVCEntityEvent@@@Z
       3086  C0D 000CAA90 ?H0x0138000f_RunAwayFromEnemy_04@CEnemyRunInto@@QAEHABVCEntityEvent@@@Z
       3087  C0E 001AC7B0 ?H0x0191002f_WorldChangeDead_01@CPlayer@@QAEHABVCEntityEvent@@@Z
       3088  C0F 001BEBE0 ?H0x01910030_WorldChangeDead_02@CPlayer@@QAEHABVCEntityEvent@@@Z
       3089  C10 001B5DC0 ?H0x01910032_Death_01@CPlayer@@QAEHABVCEntityEvent@@@Z
       3090  C11 001AC860 ?H0x01910033_Death_02@CPlayer@@QAEHABVCEntityEvent@@@Z
       3091  C12 001AC8F0 ?H0x01910035_TheEnd_01@CPlayer@@QAEHABVCEntityEvent@@@Z
       3092  C13 001AC920 ?H0x01910036_TheEnd_02@CPlayer@@QAEHABVCEntityEvent@@@Z
       3093  C14 001ACA10 ?H0x0191003a_AutoGoToMarker_01@CPlayer@@QAEHABVCEntityEvent@@@Z
       3094  C15 001ACAA0 ?H0x0191003b_AutoGoToMarker_02@CPlayer@@QAEHABVCEntityEvent@@@Z
       3095  C16 001B63F0 ?H0x0191003c_AutoGoToMarker_03@CPlayer@@QAEHABVCEntityEvent@@@Z
       3096  C17 001ACB10 ?H0x0191003d_AutoGoToMarker_04@CPlayer@@QAEHABVCEntityEvent@@@Z
       3097  C18 001ACD50 ?H0x01910040_DoAutoActions_01@CPlayer@@QAEHABVCEntityEvent@@@Z
       3098  C19 001ACE00 ?H0x01910041_DoAutoActions_02@CPlayer@@QAEHABVCEntityEvent@@@Z
       3099  C1A 001ACF40 ?H0x01910042_DoAutoActions_03@CPlayer@@QAEHABVCEntityEvent@@@Z
       3100  C1B 001ACFF0 ?H0x01910043_DoAutoActions_04@CPlayer@@QAEHABVCEntityEvent@@@Z
       3101  C1C 001AD120 ?H0x01910044_DoAutoActions_05@CPlayer@@QAEHABVCEntityEvent@@@Z
       3102  C1D 001AD1D0 ?H0x01910045_DoAutoActions_06@CPlayer@@QAEHABVCEntityEvent@@@Z
       3103  C1E 001AD240 ?H0x01910046_DoAutoActions_07@CPlayer@@QAEHABVCEntityEvent@@@Z
       3104  C1F 001B6650 ?H0x01910047_DoAutoActions_08@CPlayer@@QAEHABVCEntityEvent@@@Z
       3105  C20 001AD2B0 ?H0x01910048_DoAutoActions_09@CPlayer@@QAEHABVCEntityEvent@@@Z
       3106  C21 001AD060 ?H0x01910049_DoAutoActions_10@CPlayer@@QAEHABVCEntityEvent@@@Z
       3107  C22 001AD320 ?H0x0191004a_DoAutoActions_11@CPlayer@@QAEHABVCEntityEvent@@@Z
       3108  C23 001ACE70 ?H0x0191004b_DoAutoActions_12@CPlayer@@QAEHABVCEntityEvent@@@Z
       3109  C24 001AD390 ?H0x0191004c_DoAutoActions_13@CPlayer@@QAEHABVCEntityEvent@@@Z
       3110  C25 001ACC70 ?H0x0191004d_DoAutoActions_14@CPlayer@@QAEHABVCEntityEvent@@@Z
       3111  C26 001AD5E0 ?H0x0191004e_DoAutoActions_15@CPlayer@@QAEHABVCEntityEvent@@@Z
       3112  C27 001AD670 ?H0x0191004f_DoAutoActions_16@CPlayer@@QAEHABVCEntityEvent@@@Z
       3113  C28 001AD6E0 ?H0x01910050_DoAutoActions_17@CPlayer@@QAEHABVCEntityEvent@@@Z
       3114  C29 001AD7D0 ?H0x01910051_DoAutoActions_18@CPlayer@@QAEHABVCEntityEvent@@@Z
       3115  C2A 001AD860 ?H0x01910052_DoAutoActions_19@CPlayer@@QAEHABVCEntityEvent@@@Z
       3116  C2B 001AD8D0 ?H0x01910053_DoAutoActions_20@CPlayer@@QAEHABVCEntityEvent@@@Z
       3117  C2C 001AD940 ?H0x01910054_DoAutoActions_21@CPlayer@@QAEHABVCEntityEvent@@@Z
       3118  C2D 001AD750 ?H0x01910055_DoAutoActions_22@CPlayer@@QAEHABVCEntityEvent@@@Z
       3119  C2E 001ADA40 ?H0x01910056_DoAutoActions_23@CPlayer@@QAEHABVCEntityEvent@@@Z
       3120  C2F 001ADAD0 ?H0x01910057_DoAutoActions_24@CPlayer@@QAEHABVCEntityEvent@@@Z
       3121  C30 001ADB40 ?H0x01910058_DoAutoActions_25@CPlayer@@QAEHABVCEntityEvent@@@Z
       3122  C31 001ADBC0 ?H0x01910059_DoAutoActions_26@CPlayer@@QAEHABVCEntityEvent@@@Z
       3123  C32 001ADC50 ?H0x0191005a_DoAutoActions_27@CPlayer@@QAEHABVCEntityEvent@@@Z
       3124  C33 001ACB80 ?H0x0191005b_DoAutoActions_28@CPlayer@@QAEHABVCEntityEvent@@@Z
       3125  C34 001B67D0 ?H0x0191005c_DoAutoActions_29@CPlayer@@QAEHABVCEntityEvent@@@Z
       3126  C35 001ADCF0 ?H0x0191005e_StepBack_01@CPlayer@@QAEHABVCEntityEvent@@@Z
       3127  C36 001B6990 ?H0x0191005f_StepBack_02@CPlayer@@QAEHABVCEntityEvent@@@Z
       3128  C37 001ADE60 ?H0x01910061_BeginDrugmode_01@CPlayer@@QAEHABVCEntityEvent@@@Z
       3129  C38 001ADEF0 ?H0x01910062_BeginDrugmode_02@CPlayer@@QAEHABVCEntityEvent@@@Z
       3130  C39 001AE080 ?H0x01910063_BeginDrugmode_03@CPlayer@@QAEHABVCEntityEvent@@@Z
       3131  C3A 001AE1D0 ?H0x01910065_EndDrugmode_01@CPlayer@@QAEHABVCEntityEvent@@@Z
       3132  C3B 001AE260 ?H0x01910066_EndDrugmode_02@CPlayer@@QAEHABVCEntityEvent@@@Z
       3133  C3C 001AE2E0 ?H0x01910067_EndDrugmode_03@CPlayer@@QAEHABVCEntityEvent@@@Z
       3134  C3D 001AE870 ?H0x01910068_Main_01@CPlayer@@QAEHABVCEntityEvent@@@Z
       3135  C3E 001AE940 ?H0x01910069_Main_02@CPlayer@@QAEHABVCEntityEvent@@@Z
       3136  C3F 001AE9B0 ?H0x0191006a_Main_03@CPlayer@@QAEHABVCEntityEvent@@@Z
       3137  C40 001C7370 ?H0x0191006b_Main_04@CPlayer@@QAEHABVCEntityEvent@@@Z
       3138  C41 001C5F80 ?H0x0191006c_Main_05@CPlayer@@QAEHABVCEntityEvent@@@Z
       3139  C42 001D2A50 ?H0x01920001_ChangeWeapon_01@CPlayerWeapons@@QAEHABVCEntityEvent@@@Z
       3140  C43 001D2B00 ?H0x01920002_ChangeWeapon_02@CPlayerWeapons@@QAEHABVCEntityEvent@@@Z
       3141  C44 001D2B80 ?H0x01920003_ChangeWeapon_03@CPlayerWeapons@@QAEHABVCEntityEvent@@@Z
       3142  C45 001D2C30 ?H0x01920004_ChangeWeapon_04@CPlayerWeapons@@QAEHABVCEntityEvent@@@Z
       3143  C46 001D2CA0 ?H0x01920005_ChangeWeapon_05@CPlayerWeapons@@QAEHABVCEntityEvent@@@Z
       3144  C47 001D2F50 ?H0x01920007_PutDown_01@CPlayerWeapons@@QAEHABVCEntityEvent@@@Z
       3145  C48 001D2FE0 ?H0x01920008_PutDown_02@CPlayerWeapons@@QAEHABVCEntityEvent@@@Z
       3146  C49 001D3050 ?H0x01920009_PutDown_03@CPlayerWeapons@@QAEHABVCEntityEvent@@@Z
       3147  C4A 001D30C0 ?H0x0192000b_BringUp_01@CPlayerWeapons@@QAEHABVCEntityEvent@@@Z
       3148  C4B 001D3150 ?H0x0192000c_BringUp_02@CPlayerWeapons@@QAEHABVCEntityEvent@@@Z
       3149  C4C 001D31C0 ?H0x0192000d_BringUp_03@CPlayerWeapons@@QAEHABVCEntityEvent@@@Z
       3150  C4D 001D33F0 ?H0x0192000f_RigidityWeapon_01@CPlayerWeapons@@QAEHABVCEntityEvent@@@Z
       3151  C4E 001D3480 ?H0x01920010_RigidityWeapon_02@CPlayerWeapons@@QAEHABVCEntityEvent@@@Z
       3152  C4F 001D34F0 ?H0x01920011_RigidityWeapon_03@CPlayerWeapons@@QAEHABVCEntityEvent@@@Z
       3153  C50 001D3640 ?H0x01920013_Fire_01@CPlayerWeapons@@QAEHABVCEntityEvent@@@Z
       3154  C51 001D3A20 ?H0x01920014_Fire_02@CPlayerWeapons@@QAEHABVCEntityEvent@@@Z
       3155  C52 001D3560 ?H0x01920015_Fire_03@CPlayerWeapons@@QAEHABVCEntityEvent@@@Z
       3156  C53 001D3A90 ?H0x01920016_Fire_04@CPlayerWeapons@@QAEHABVCEntityEvent@@@Z
       3157  C54 001D3B70 ?H0x01920018_FireShotgun_01@CPlayerWeapons@@QAEHABVCEntityEvent@@@Z
       3158  C55 001D3C00 ?H0x01920019_FireShotgun_02@CPlayerWeapons@@QAEHABVCEntityEvent@@@Z
       3159  C56 001D3CB0 ?H0x0192001a_FireShotgun_03@CPlayerWeapons@@QAEHABVCEntityEvent@@@Z
       3160  C57 001D3D60 ?H0x0192001b_FireShotgun_04@CPlayerWeapons@@QAEHABVCEntityEvent@@@Z
       3161  C58 001D3DD0 ?H0x0192001c_FireShotgun_05@CPlayerWeapons@@QAEHABVCEntityEvent@@@Z
       3162  C59 001D3EB0 ?H0x0192001d_FireShotgun_06@CPlayerWeapons@@QAEHABVCEntityEvent@@@Z
       3163  C5A 001D3F60 ?H0x0192001e_FireShotgun_07@CPlayerWeapons@@QAEHABVCEntityEvent@@@Z
       3164  C5B 001D3FD0 ?H0x0192001f_FireShotgun_08@CPlayerWeapons@@QAEHABVCEntityEvent@@@Z
       3165  C5C 001D4040 ?H0x01920020_FireShotgun_09@CPlayerWeapons@@QAEHABVCEntityEvent@@@Z
       3166  C5D 001D3E40 ?H0x01920021_FireShotgun_10@CPlayerWeapons@@QAEHABVCEntityEvent@@@Z
       3167  C5E 001D4180 ?H0x01920023_StopShotgun_01@CPlayerWeapons@@QAEHABVCEntityEvent@@@Z
       3168  C5F 001D4350 ?H0x01920024_StopShotgun_02@CPlayerWeapons@@QAEHABVCEntityEvent@@@Z
       3169  C60 001D4430 ?H0x01920025_StopShotgun_03@CPlayerWeapons@@QAEHABVCEntityEvent@@@Z
       3170  C61 001D4600 ?H0x01920026_StopShotgun_04@CPlayerWeapons@@QAEHABVCEntityEvent@@@Z
       3171  C62 001D4870 ?H0x01920028_ReloadShotgun_01@CPlayerWeapons@@QAEHABVCEntityEvent@@@Z
       3172  C63 001D4990 ?H0x01920029_ReloadShotgun_02@CPlayerWeapons@@QAEHABVCEntityEvent@@@Z
       3173  C64 001D4A10 ?H0x0192002b_FireMachineGun_01@CPlayerWeapons@@QAEHABVCEntityEvent@@@Z
       3174  C65 001D4AA0 ?H0x0192002c_FireMachineGun_02@CPlayerWeapons@@QAEHABVCEntityEvent@@@Z
       3175  C66 001D4B50 ?H0x0192002d_FireMachineGun_03@CPlayerWeapons@@QAEHABVCEntityEvent@@@Z
       3176  C67 001D4C00 ?H0x0192002e_FireMachineGun_04@CPlayerWeapons@@QAEHABVCEntityEvent@@@Z
       3177  C68 001D4C70 ?H0x0192002f_FireMachineGun_05@CPlayerWeapons@@QAEHABVCEntityEvent@@@Z
       3178  C69 001D4D50 ?H0x01920030_FireMachineGun_06@CPlayerWeapons@@QAEHABVCEntityEvent@@@Z
       3179  C6A 001D4E00 ?H0x01920031_FireMachineGun_07@CPlayerWeapons@@QAEHABVCEntityEvent@@@Z
       3180  C6B 001D4E70 ?H0x01920032_FireMachineGun_08@CPlayerWeapons@@QAEHABVCEntityEvent@@@Z
       3181  C6C 001D4EE0 ?H0x01920033_FireMachineGun_09@CPlayerWeapons@@QAEHABVCEntityEvent@@@Z
       3182  C6D 001D4CE0 ?H0x01920034_FireMachineGun_10@CPlayerWeapons@@QAEHABVCEntityEvent@@@Z
       3183  C6E 001D5020 ?H0x01920036_StopMachineGun_01@CPlayerWeapons@@QAEHABVCEntityEvent@@@Z
       3184  C6F 001D51F0 ?H0x01920037_StopMachineGun_02@CPlayerWeapons@@QAEHABVCEntityEvent@@@Z
       3185  C70 001D5310 ?H0x01920038_StopMachineGun_03@CPlayerWeapons@@QAEHABVCEntityEvent@@@Z
       3186  C71 001D54E0 ?H0x01920039_StopMachineGun_04@CPlayerWeapons@@QAEHABVCEntityEvent@@@Z
       3187  C72 001D5550 ?H0x0192003a_StopMachineGun_05@CPlayerWeapons@@QAEHABVCEntityEvent@@@Z
       3188  C73 001D57C0 ?H0x0192003c_ReloadMachinegun_01@CPlayerWeapons@@QAEHABVCEntityEvent@@@Z
       3189  C74 001D58F0 ?H0x0192003d_ReloadMachinegun_02@CPlayerWeapons@@QAEHABVCEntityEvent@@@Z
       3190  C75 001D5970 ?H0x0192003f_FireRocketLauncher_01@CPlayerWeapons@@QAEHABVCEntityEvent@@@Z
       3191  C76 001D5A00 ?H0x01920040_FireRocketLauncher_02@CPlayerWeapons@@QAEHABVCEntityEvent@@@Z
       3192  C77 001D5A70 ?H0x01920041_FireRocketLauncher_03@CPlayerWeapons@@QAEHABVCEntityEvent@@@Z
       3193  C78 001D5B20 ?H0x01920042_FireRocketLauncher_04@CPlayerWeapons@@QAEHABVCEntityEvent@@@Z
       3194  C79 001D5BD0 ?H0x01920043_FireRocketLauncher_05@CPlayerWeapons@@QAEHABVCEntityEvent@@@Z
       3195  C7A 001D5C80 ?H0x01920044_FireRocketLauncher_06@CPlayerWeapons@@QAEHABVCEntityEvent@@@Z
       3196  C7B 001D5CF0 ?H0x01920045_FireRocketLauncher_07@CPlayerWeapons@@QAEHABVCEntityEvent@@@Z
       3197  C7C 001D5DD0 ?H0x01920046_FireRocketLauncher_08@CPlayerWeapons@@QAEHABVCEntityEvent@@@Z
       3198  C7D 001D5E80 ?H0x01920047_FireRocketLauncher_09@CPlayerWeapons@@QAEHABVCEntityEvent@@@Z
       3199  C7E 001D5EF0 ?H0x01920048_FireRocketLauncher_10@CPlayerWeapons@@QAEHABVCEntityEvent@@@Z
       3200  C7F 001D5F60 ?H0x01920049_FireRocketLauncher_11@CPlayerWeapons@@QAEHABVCEntityEvent@@@Z
       3201  C80 001D5D60 ?H0x0192004a_FireRocketLauncher_12@CPlayerWeapons@@QAEHABVCEntityEvent@@@Z
       3202  C81 001D6190 ?H0x0192004d_ReloadRocket_01@CPlayerWeapons@@QAEHABVCEntityEvent@@@Z
       3203  C82 001DA770 ?H0x0192004e_ReloadRocket_02@CPlayerWeapons@@QAEHABVCEntityEvent@@@Z
       3204  C83 001D6220 ?H0x0192004f_ReloadRocket_03@CPlayerWeapons@@QAEHABVCEntityEvent@@@Z
       3205  C84 001D6340 ?H0x01920050_ReloadRocket_04@CPlayerWeapons@@QAEHABVCEntityEvent@@@Z
       3206  C85 001D6410 ?H0x01920051_ReloadRocket_05@CPlayerWeapons@@QAEHABVCEntityEvent@@@Z
       3207  C86 001D64A0 ?H0x01920052_ReloadRocket_06@CPlayerWeapons@@QAEHABVCEntityEvent@@@Z
       3208  C87 001D6760 ?H0x01920054_FireGrenadeLauncher_01@CPlayerWeapons@@QAEHABVCEntityEvent@@@Z
       3209  C88 001D67F0 ?H0x01920055_FireGrenadeLauncher_02@CPlayerWeapons@@QAEHABVCEntityEvent@@@Z
       3210  C89 001D6640 ?H0x01920056_FireGrenadeLauncher_03@CPlayerWeapons@@QAEHABVCEntityEvent@@@Z
       3211  C8A 001E24D0 ?H0x01920057_FireGrenadeLauncher_04@CPlayerWeapons@@QAEHABVCEntityEvent@@@Z
       3212  C8B 001D68C0 ?H0x01920058_FireGrenadeLauncher_05@CPlayerWeapons@@QAEHABVCEntityEvent@@@Z
       3213  C8C 001DA940 ?H0x01920059_FireGrenadeLauncher_06@CPlayerWeapons@@QAEHABVCEntityEvent@@@Z
       3214  C8D 001D6A30 ?H0x0192005a_FireGrenadeLauncher_07@CPlayerWeapons@@QAEHABVCEntityEvent@@@Z
       3215  C8E 001D6AC0 ?H0x0192005b_FireGrenadeLauncher_08@CPlayerWeapons@@QAEHABVCEntityEvent@@@Z
       3216  C8F 001D6950 ?H0x0192005c_FireGrenadeLauncher_09@CPlayerWeapons@@QAEHABVCEntityEvent@@@Z
       3217  C90 001DE870 ?H0x0192005d_FireGrenadeLauncher_10@CPlayerWeapons@@QAEHABVCEntityEvent@@@Z
       3218  C91 001D6B80 ?H0x0192005e_FireGrenadeLauncher_11@CPlayerWeapons@@QAEHABVCEntityEvent@@@Z
       3219  C92 001D6C10 ?H0x0192005f_FireGrenadeLauncher_12@CPlayerWeapons@@QAEHABVCEntityEvent@@@Z
       3220  C93 001D6D50 ?H0x01920060_FireGrenadeLauncher_13@CPlayerWeapons@@QAEHABVCEntityEvent@@@Z
       3221  C94 001D6C80 ?H0x01920061_FireGrenadeLauncher_14@CPlayerWeapons@@QAEHABVCEntityEvent@@@Z
       3222  C95 001D6DC0 ?H0x01920063_FirePushGun_01@CPlayerWeapons@@QAEHABVCEntityEvent@@@Z
       3223  C96 001E0B00 ?H0x01920064_FirePushGun_02@CPlayerWeapons@@QAEHABVCEntityEvent@@@Z
       3224  C97 001D6E50 ?H0x01920065_FirePushGun_03@CPlayerWeapons@@QAEHABVCEntityEvent@@@Z
       3225  C98 001D6EE0 ?H0x01920066_FirePushGun_04@CPlayerWeapons@@QAEHABVCEntityEvent@@@Z
       3226  C99 001D7020 ?H0x01920067_FirePushGun_05@CPlayerWeapons@@QAEHABVCEntityEvent@@@Z
       3227  C9A 001D6F50 ?H0x01920068_FirePushGun_06@CPlayerWeapons@@QAEHABVCEntityEvent@@@Z
       3228  C9B 001D7090 ?H0x0192006a_FireSniperGun_01@CPlayerWeapons@@QAEHABVCEntityEvent@@@Z
       3229  C9C 001D7120 ?H0x0192006b_FireSniperGun_02@CPlayerWeapons@@QAEHABVCEntityEvent@@@Z
       3230  C9D 001D7200 ?H0x0192006c_FireSniperGun_03@CPlayerWeapons@@QAEHABVCEntityEvent@@@Z
       3231  C9E 001D7290 ?H0x0192006d_FireSniperGun_04@CPlayerWeapons@@QAEHABVCEntityEvent@@@Z
       3232  C9F 001D7410 ?H0x0192006e_FireSniperGun_05@CPlayerWeapons@@QAEHABVCEntityEvent@@@Z
       3233  CA0 001D7340 ?H0x0192006f_FireSniperGun_06@CPlayerWeapons@@QAEHABVCEntityEvent@@@Z
       3234  CA1 001D7480 ?H0x01920071_FireNitroLauncher_01@CPlayerWeapons@@QAEHABVCEntityEvent@@@Z
       3235  CA2 001E0E40 ?H0x01920072_FireNitroLauncher_02@CPlayerWeapons@@QAEHABVCEntityEvent@@@Z
       3236  CA3 001D7510 ?H0x01920073_FireNitroLauncher_03@CPlayerWeapons@@QAEHABVCEntityEvent@@@Z
       3237  CA4 001D75C0 ?H0x01920074_FireNitroLauncher_04@CPlayerWeapons@@QAEHABVCEntityEvent@@@Z
       3238  CA5 001D7700 ?H0x01920075_FireNitroLauncher_05@CPlayerWeapons@@QAEHABVCEntityEvent@@@Z
       3239  CA6 001D7630 ?H0x01920076_FireNitroLauncher_06@CPlayerWeapons@@QAEHABVCEntityEvent@@@Z
       3240  CA7 001D78E0 ?H0x01920078_ReloadNitro_01@CPlayerWeapons@@QAEHABVCEntityEvent@@@Z
       3241  CA8 001DACD0 ?H0x01920079_ReloadNitro_02@CPlayerWeapons@@QAEHABVCEntityEvent@@@Z
       3242  CA9 001D7970 ?H0x0192007a_ReloadNitro_03@CPlayerWeapons@@QAEHABVCEntityEvent@@@Z
       3243  CAA 001D7A00 ?H0x0192007b_ReloadNitro_04@CPlayerWeapons@@QAEHABVCEntityEvent@@@Z
       3244  CAB 001D7A90 ?H0x0192007d_FireFixedRocketLauncher_01@CPlayerWeapons@@QAEHABVCEntityEvent@@@Z
       3245  CAC 001D7B20 ?H0x0192007e_FireFixedRocketLauncher_02@CPlayerWeapons@@QAEHABVCEntityEvent@@@Z
       3246  CAD 001D7C60 ?H0x01920080_ReloadGetAmmo_01@CPlayerWeapons@@QAEHABVCEntityEvent@@@Z
       3247  CAE 001D7D10 ?H0x01920081_ReloadGetAmmo_02@CPlayerWeapons@@QAEHABVCEntityEvent@@@Z
       3248  CAF 001D7D80 ?H0x01920082_ReloadGetAmmo_03@CPlayerWeapons@@QAEHABVCEntityEvent@@@Z
       3249  CB0 001D7E50 ?H0x01920083_ReloadGetAmmo_04@CPlayerWeapons@@QAEHABVCEntityEvent@@@Z
       3250  CB1 001D7F00 ?H0x01920084_ReloadGetAmmo_05@CPlayerWeapons@@QAEHABVCEntityEvent@@@Z
       3251  CB2 001D7F70 ?H0x01920085_ReloadGetAmmo_06@CPlayerWeapons@@QAEHABVCEntityEvent@@@Z
       3252  CB3 001D8040 ?H0x01920086_ReloadGetAmmo_07@CPlayerWeapons@@QAEHABVCEntityEvent@@@Z
       3253  CB4 001D80F0 ?H0x01920087_ReloadGetAmmo_08@CPlayerWeapons@@QAEHABVCEntityEvent@@@Z
       3254  CB5 001D8160 ?H0x01920088_ReloadGetAmmo_09@CPlayerWeapons@@QAEHABVCEntityEvent@@@Z
       3255  CB6 001D8280 ?H0x0192008a_ReloadChtGiveall_01@CPlayerWeapons@@QAEHABVCEntityEvent@@@Z
       3256  CB7 001D8330 ?H0x0192008b_ReloadChtGiveall_02@CPlayerWeapons@@QAEHABVCEntityEvent@@@Z
       3257  CB8 001D83A0 ?H0x0192008c_ReloadChtGiveall_03@CPlayerWeapons@@QAEHABVCEntityEvent@@@Z
       3258  CB9 001D8450 ?H0x0192008d_ReloadChtGiveall_04@CPlayerWeapons@@QAEHABVCEntityEvent@@@Z
       3259  CBA 001D8500 ?H0x0192008e_ReloadChtGiveall_05@CPlayerWeapons@@QAEHABVCEntityEvent@@@Z
       3260  CBB 001D8570 ?H0x0192008f_ReloadChtGiveall_06@CPlayerWeapons@@QAEHABVCEntityEvent@@@Z
       3261  CBC 001D8620 ?H0x01920090_ReloadChtGiveall_07@CPlayerWeapons@@QAEHABVCEntityEvent@@@Z
       3262  CBD 001D86D0 ?H0x01920091_ReloadChtGiveall_08@CPlayerWeapons@@QAEHABVCEntityEvent@@@Z
       3263  CBE 001D8740 ?H0x01920092_ReloadChtGiveall_09@CPlayerWeapons@@QAEHABVCEntityEvent@@@Z
       3264  CBF 001D8870 ?H0x01920094_Reload_01@CPlayerWeapons@@QAEHABVCEntityEvent@@@Z
       3265  CC0 001D8920 ?H0x01920095_Reload_02@CPlayerWeapons@@QAEHABVCEntityEvent@@@Z
       3266  CC1 001D8A40 ?H0x01920096_Reload_03@CPlayerWeapons@@QAEHABVCEntityEvent@@@Z
       3267  CC2 001D8AF0 ?H0x01920097_Reload_04@CPlayerWeapons@@QAEHABVCEntityEvent@@@Z
       3268  CC3 001D8C10 ?H0x01920098_Reload_05@CPlayerWeapons@@QAEHABVCEntityEvent@@@Z
       3269  CC4 001D8CC0 ?H0x01920099_Reload_06@CPlayerWeapons@@QAEHABVCEntityEvent@@@Z
       3270  CC5 001D8D30 ?H0x0192009a_Reload_07@CPlayerWeapons@@QAEHABVCEntityEvent@@@Z
       3271  CC6 001D8DA0 ?H0x0192009b_Reload_08@CPlayerWeapons@@QAEHABVCEntityEvent@@@Z
       3272  CC7 001D8B60 ?H0x0192009c_Reload_09@CPlayerWeapons@@QAEHABVCEntityEvent@@@Z
       3273  CC8 001D8E10 ?H0x0192009d_Reload_10@CPlayerWeapons@@QAEHABVCEntityEvent@@@Z
       3274  CC9 001D8990 ?H0x0192009e_Reload_11@CPlayerWeapons@@QAEHABVCEntityEvent@@@Z
       3275  CCA 001E26A0 ?H0x019200a0_Idle_01@CPlayerWeapons@@QAEHABVCEntityEvent@@@Z
       3276  CCB 001D8F00 ?H0x019200a1_Idle_02@CPlayerWeapons@@QAEHABVCEntityEvent@@@Z
       3277  CCC 001D8FD0 ?H0x019200a3_Stopped_01@CPlayerWeapons@@QAEHABVCEntityEvent@@@Z
       3278  CCD 001D90A0 ?H0x019200a4_Stopped_02@CPlayerWeapons@@QAEHABVCEntityEvent@@@Z
       3279  CCE 001E2C40 ?H0x019200a5_Main_01@CPlayerWeapons@@QAEHABVCEntityEvent@@@Z
       3280  CCF 001D90B0 ?H0x019200a6_Main_02@CPlayerWeapons@@QAEHABVCEntityEvent@@@Z
       3281  CD0 001CF500 ?H0x01930001_Main_01@CPlayerView@@QAEHABVCEntityEvent@@@Z
       3282  CD1 001CE6A0 ?H0x01930002_Main_02@CPlayerView@@QAEHABVCEntityEvent@@@Z
       3283  CD2 001CB780 ?H0x01960002_Main_01@CPlayerAnimator@@QAEHABVCEntityEvent@@@Z
       3284  CD3 001CB840 ?H0x01960003_Main_02@CPlayerAnimator@@QAEHABVCEntityEvent@@@Z
       3285  CD4 0023E550 ?H0x01f50005_ProjectileFly_01@CProjectile@@QAEHABVCEntityEvent@@@Z
       3286  CD5 0022F6A0 ?H0x01f50006_ProjectileFly_02@CProjectile@@QAEHABVCEntityEvent@@@Z
       3287  CD6 0022F5D0 ?H0x01f50007_ProjectileFly_03@CProjectile@@QAEHABVCEntityEvent@@@Z
       3288  CD7 00230410 ?H0x01f50008_ProjectileFly_04@CProjectile@@QAEHABVCEntityEvent@@@Z
       3289  CD8 0023EB00 ?H0x01f5000a_ProjectileGuidedFly_01@CProjectile@@QAEHABVCEntityEvent@@@Z
       3290  CD9 0022F710 ?H0x01f5000b_ProjectileGuidedFly_02@CProjectile@@QAEHABVCEntityEvent@@@Z
       3291  CDA 0023BF90 ?H0x01f5000c_ProjectileGuidedFly_03@CProjectile@@QAEHABVCEntityEvent@@@Z
       3292  CDB 00230530 ?H0x01f5000d_ProjectileGuidedFly_04@CProjectile@@QAEHABVCEntityEvent@@@Z
       3293  CDC 0023EF40 ?H0x01f5000f_ProjectileGuidedBoomerang_01@CProjectile@@QAEHABVCEntityEvent@@@Z
       3294  CDD 0022F780 ?H0x01f50010_ProjectileGuidedBoomerang_02@CProjectile@@QAEHABVCEntityEvent@@@Z
       3295  CDE 0023C390 ?H0x01f50011_ProjectileGuidedBoomerang_03@CProjectile@@QAEHABVCEntityEvent@@@Z
       3296  CDF 002305E0 ?H0x01f50012_ProjectileGuidedBoomerang_04@CProjectile@@QAEHABVCEntityEvent@@@Z
       3297  CE0 0023F2F0 ?H0x01f50014_ProjectileGuidedFastFly_01@CProjectile@@QAEHABVCEntityEvent@@@Z
       3298  CE1 0022F7F0 ?H0x01f50015_ProjectileGuidedFastFly_02@CProjectile@@QAEHABVCEntityEvent@@@Z
       3299  CE2 0023C790 ?H0x01f50016_ProjectileGuidedFastFly_03@CProjectile@@QAEHABVCEntityEvent@@@Z
       3300  CE3 00230680 ?H0x01f50017_ProjectileGuidedFastFly_04@CProjectile@@QAEHABVCEntityEvent@@@Z
       3301  CE4 0023F7D0 ?H0x01f50019_ProjectileGuidedSlide_01@CProjectile@@QAEHABVCEntityEvent@@@Z
       3302  CE5 0022F860 ?H0x01f5001a_ProjectileGuidedSlide_02@CProjectile@@QAEHABVCEntityEvent@@@Z
       3303  CE6 0023CB50 ?H0x01f5001b_ProjectileGuidedSlide_03@CProjectile@@QAEHABVCEntityEvent@@@Z
       3304  CE7 00230730 ?H0x01f5001c_ProjectileGuidedSlide_04@CProjectile@@QAEHABVCEntityEvent@@@Z
       3305  CE8 0023FB80 ?H0x01f5001e_ProjectileGuidedFlyForFixed_01@CProjectile@@QAEHABVCEntityEvent@@@Z
       3306  CE9 0022F8D0 ?H0x01f5001f_ProjectileGuidedFlyForFixed_02@CProjectile@@QAEHABVCEntityEvent@@@Z
       3307  CEA 002307E0 ?H0x01f50020_ProjectileGuidedFlyForFixed_03@CProjectile@@QAEHABVCEntityEvent@@@Z
       3308  CEB 00230BC0 ?H0x01f50021_ProjectileGuidedFlyForFixed_04@CProjectile@@QAEHABVCEntityEvent@@@Z
       3309  CEC 0023FFB0 ?H0x01f50023_ProjectileGuidedFlyForNitro_01@CProjectile@@QAEHABVCEntityEvent@@@Z
       3310  CED 0022F940 ?H0x01f50024_ProjectileGuidedFlyForNitro_02@CProjectile@@QAEHABVCEntityEvent@@@Z
       3311  CEE 00230C70 ?H0x01f50025_ProjectileGuidedFlyForNitro_03@CProjectile@@QAEHABVCEntityEvent@@@Z
       3312  CEF 00231050 ?H0x01f50026_ProjectileGuidedFlyForNitro_04@CProjectile@@QAEHABVCEntityEvent@@@Z
       3313  CF0 002403F0 ?H0x01f50028_ProjectileSlide_01@CProjectile@@QAEHABVCEntityEvent@@@Z
       3314  CF1 0022FA80 ?H0x01f50029_ProjectileSlide_02@CProjectile@@QAEHABVCEntityEvent@@@Z
       3315  CF2 0022F9B0 ?H0x01f5002a_ProjectileSlide_03@CProjectile@@QAEHABVCEntityEvent@@@Z
       3316  CF3 00231100 ?H0x01f5002b_ProjectileSlide_04@CProjectile@@QAEHABVCEntityEvent@@@Z
       3317  CF4 00240BC0 ?H0x01f5002d_ProjectileEnemyFlameSlide_01@CProjectile@@QAEHABVCEntityEvent@@@Z
       3318  CF5 002311B0 ?H0x01f5002e_ProjectileEnemyFlameSlide_02@CProjectile@@QAEHABVCEntityEvent@@@Z
       3319  CF6 00241170 ?H0x01f50030_ProjectileNorudomBombSlide_01@CProjectile@@QAEHABVCEntityEvent@@@Z
       3320  CF7 0022FBC0 ?H0x01f50031_ProjectileNorudomBombSlide_02@CProjectile@@QAEHABVCEntityEvent@@@Z
       3321  CF8 0022FAF0 ?H0x01f50032_ProjectileNorudomBombSlide_03@CProjectile@@QAEHABVCEntityEvent@@@Z
       3322  CF9 00231260 ?H0x01f50033_ProjectileNorudomBombSlide_04@CProjectile@@QAEHABVCEntityEvent@@@Z
       3323  CFA 00241900 ?H0x01f50035_ProjectileFlyRebounding_01@CProjectile@@QAEHABVCEntityEvent@@@Z
       3324  CFB 00231310 ?H0x01f50036_ProjectileFlyRebounding_02@CProjectile@@QAEHABVCEntityEvent@@@Z
       3325  CFC 0023D020 ?H0x01f50038_ProjectilePushGun_01@CProjectile@@QAEHABVCEntityEvent@@@Z
       3326  CFD 002313C0 ?H0x01f50039_ProjectilePushGun_02@CProjectile@@QAEHABVCEntityEvent@@@Z
       3327  CFE 00241D70 ?H0x01f5003b_ProjectileMajangRocket_01@CProjectile@@QAEHABVCEntityEvent@@@Z
       3328  CFF 00231470 ?H0x01f5003c_ProjectileMajangRocket_02@CProjectile@@QAEHABVCEntityEvent@@@Z
       3329  D00 00231520 ?H0x01f5003d_Main_01@CProjectile@@QAEHABVCEntityEvent@@@Z
       3330  D01 0023D990 ?H0x01f5003e_Main_02@CProjectile@@QAEHABVCEntityEvent@@@Z
       3331  D02 0022FC30 ?H0x01f5003f_Main_03@CProjectile@@QAEHABVCEntityEvent@@@Z
       3332  D03 0022FCC0 ?H0x01f50040_Main_04@CProjectile@@QAEHABVCEntityEvent@@@Z
       3333  D04 0022FD30 ?H0x01f50041_Main_05@CProjectile@@QAEHABVCEntityEvent@@@Z
       3334  D05 001A0070 ?H0x024f0006_FlyUp_01@CMaria@@QAEHABVCEntityEvent@@@Z
       3335  D06 001A2790 ?H0x024f0007_FlyUp_02@CMaria@@QAEHABVCEntityEvent@@@Z
       3336  D07 001A1110 ?H0x024f0008_FlyUp_03@CMaria@@QAEHABVCEntityEvent@@@Z
       3337  D08 001A0100 ?H0x024f0009_FlyUp_04@CMaria@@QAEHABVCEntityEvent@@@Z
       3338  D09 001A0220 ?H0x024f000b_Fire_01@CMaria@@QAEHABVCEntityEvent@@@Z
       3339  D0A 001A2AD0 ?H0x024f000c_Fire_02@CMaria@@QAEHABVCEntityEvent@@@Z
       3340  D0B 001A13B0 ?H0x024f000d_Fire_03@CMaria@@QAEHABVCEntityEvent@@@Z
       3341  D0C 001A02B0 ?H0x024f000e_Fire_04@CMaria@@QAEHABVCEntityEvent@@@Z
       3342  D0D 001A0350 ?H0x024f000f_Fire_05@CMaria@@QAEHABVCEntityEvent@@@Z
       3343  D0E 001A03E0 ?H0x024f0010_Fire_06@CMaria@@QAEHABVCEntityEvent@@@Z
       3344  D0F 001A0450 ?H0x024f0012_GuidedFlyBack_01@CMaria@@QAEHABVCEntityEvent@@@Z
       3345  D10 001A04F0 ?H0x024f0013_GuidedFlyBack_02@CMaria@@QAEHABVCEntityEvent@@@Z
       3346  D11 001A1B80 ?H0x024f0014_GuidedFlyBack_03@CMaria@@QAEHABVCEntityEvent@@@Z
       3347  D12 001A0560 ?H0x024f0015_GuidedFlyBack_04@CMaria@@QAEHABVCEntityEvent@@@Z
       3348  D13 001A0740 ?H0x024f0016_Main_01@CMaria@@QAEHABVCEntityEvent@@@Z
       3349  D14 001A08F0 ?H0x024f0017_Main_02@CMaria@@QAEHABVCEntityEvent@@@Z
       3350  D15 0005BAB0 ?H0x02bc0003_Active_01@CWatcher@@QAEHABVCEntityEvent@@@Z
       3351  D16 0005BC10 ?H0x02bc0004_Active_02@CWatcher@@QAEHABVCEntityEvent@@@Z
       3352  D17 0005CB80 ?H0x02bc0005_Active_03@CWatcher@@QAEHABVCEntityEvent@@@Z
       3353  D18 0005BC80 ?H0x02bc0006_Active_04@CWatcher@@QAEHABVCEntityEvent@@@Z
       3354  D19 0005BD10 ?H0x02bc0008_Inactive_01@CWatcher@@QAEHABVCEntityEvent@@@Z
       3355  D1A 0005BDA0 ?H0x02bc0009_Inactive_02@CWatcher@@QAEHABVCEntityEvent@@@Z
       3356  D1B 0005BE30 ?H0x02bc000b_Dummy_01@CWatcher@@QAEHABVCEntityEvent@@@Z
       3357  D1C 0005BE40 ?H0x02bc000c_Dummy_02@CWatcher@@QAEHABVCEntityEvent@@@Z
       3358  D1D 0005BE50 ?H0x02bc000d_Main_01@CWatcher@@QAEHABVCEntityEvent@@@Z
       3359  D1E 0005BF00 ?H0x02bc000e_Main_02@CWatcher@@QAEHABVCEntityEvent@@@Z
       3360  D1F 00059350 ?H0x02bf0001_Main_01@CReminder@@QAEHABVCEntityEvent@@@Z
       3361  D20 00059760 ?H0x02bf0002_Main_02@CReminder@@QAEHABVCEntityEvent@@@Z
       3362  D21 000593E0 ?H0x02bf0003_Main_03@CReminder@@QAEHABVCEntityEvent@@@Z
       3363  D22 000C8BF0 ?H0x05140001_BeWounded_01@CEnemyHorse@@QAEHABVCEntityEvent@@@Z
       3364  D23 000C8C80 ?H0x05140002_BeWounded_02@CEnemyHorse@@QAEHABVCEntityEvent@@@Z
       3365  D24 000C8CF0 ?H0x05140003_BeWounded_03@CEnemyHorse@@QAEHABVCEntityEvent@@@Z
       3366  D25 0019C780 ?H0x051b0005_ItemLoop_01@CSkaItem@@QAEHABVCEntityEvent@@@Z
       3367  D26 0019C830 ?H0x051b0006_ItemLoop_02@CSkaItem@@QAEHABVCEntityEvent@@@Z
       3368  D27 0019CEB0 ?H0x051b0007_ItemLoop_03@CSkaItem@@QAEHABVCEntityEvent@@@Z
       3369  D28 0019C8B0 ?H0x051b0008_ItemLoop_04@CSkaItem@@QAEHABVCEntityEvent@@@Z
       3370  D29 0019C940 ?H0x051b0009_ItemLoop_05@CSkaItem@@QAEHABVCEntityEvent@@@Z
       3371  D2A 0019C9D0 ?H0x051b000a_ItemLoop_06@CSkaItem@@QAEHABVCEntityEvent@@@Z
       3372  D2B 0019CA50 ?H0x051b000c_ItemReceived_01@CSkaItem@@QAEHABVCEntityEvent@@@Z
       3373  D2C 0019CAE0 ?H0x051b000d_ItemReceived_02@CSkaItem@@QAEHABVCEntityEvent@@@Z
       3374  D2D 0019CB60 ?H0x051b000e_ItemReceived_03@CSkaItem@@QAEHABVCEntityEvent@@@Z
       3375  D2E 0019D170 ?H0x051b000f_ItemReceived_04@CSkaItem@@QAEHABVCEntityEvent@@@Z
       3376  D2F 001E70C0 ?H0x057a0001_ChangeWeapon_01@CPlayerWeapons_L@@QAEHABVCEntityEvent@@@Z
       3377  D30 001E7170 ?H0x057a0002_ChangeWeapon_02@CPlayerWeapons_L@@QAEHABVCEntityEvent@@@Z
       3378  D31 001E71F0 ?H0x057a0003_ChangeWeapon_03@CPlayerWeapons_L@@QAEHABVCEntityEvent@@@Z
       3379  D32 001E72A0 ?H0x057a0004_ChangeWeapon_04@CPlayerWeapons_L@@QAEHABVCEntityEvent@@@Z
       3380  D33 001E7310 ?H0x057a0005_ChangeWeapon_05@CPlayerWeapons_L@@QAEHABVCEntityEvent@@@Z
       3381  D34 001E7570 ?H0x057a0007_PutDown_01@CPlayerWeapons_L@@QAEHABVCEntityEvent@@@Z
       3382  D35 001E7600 ?H0x057a0008_PutDown_02@CPlayerWeapons_L@@QAEHABVCEntityEvent@@@Z
       3383  D36 001E7670 ?H0x057a0009_PutDown_03@CPlayerWeapons_L@@QAEHABVCEntityEvent@@@Z
       3384  D37 001E78B0 ?H0x057a000b_BringUp_01@CPlayerWeapons_L@@QAEHABVCEntityEvent@@@Z
       3385  D38 001E7940 ?H0x057a000c_BringUp_02@CPlayerWeapons_L@@QAEHABVCEntityEvent@@@Z
       3386  D39 001E79B0 ?H0x057a000d_BringUp_03@CPlayerWeapons_L@@QAEHABVCEntityEvent@@@Z
       3387  D3A 001E7B80 ?H0x057a000f_RigidityWeapon_01@CPlayerWeapons_L@@QAEHABVCEntityEvent@@@Z
       3388  D3B 001E7C10 ?H0x057a0010_RigidityWeapon_02@CPlayerWeapons_L@@QAEHABVCEntityEvent@@@Z
       3389  D3C 001E7C80 ?H0x057a0011_RigidityWeapon_03@CPlayerWeapons_L@@QAEHABVCEntityEvent@@@Z
       3390  D3D 001E7E80 ?H0x057a0013_Fire_01@CPlayerWeapons_L@@QAEHABVCEntityEvent@@@Z
       3391  D3E 001E8140 ?H0x057a0014_Fire_02@CPlayerWeapons_L@@QAEHABVCEntityEvent@@@Z
       3392  D3F 001E7DA0 ?H0x057a0015_Fire_03@CPlayerWeapons_L@@QAEHABVCEntityEvent@@@Z
       3393  D40 001E81B0 ?H0x057a0016_Fire_04@CPlayerWeapons_L@@QAEHABVCEntityEvent@@@Z
       3394  D41 001E8290 ?H0x057a0018_FireShotgun_01@CPlayerWeapons_L@@QAEHABVCEntityEvent@@@Z
       3395  D42 001E8320 ?H0x057a0019_FireShotgun_02@CPlayerWeapons_L@@QAEHABVCEntityEvent@@@Z
       3396  D43 001E83D0 ?H0x057a001a_FireShotgun_03@CPlayerWeapons_L@@QAEHABVCEntityEvent@@@Z
       3397  D44 001E8480 ?H0x057a001b_FireShotgun_04@CPlayerWeapons_L@@QAEHABVCEntityEvent@@@Z
       3398  D45 001E84F0 ?H0x057a001c_FireShotgun_05@CPlayerWeapons_L@@QAEHABVCEntityEvent@@@Z
       3399  D46 001E85D0 ?H0x057a001d_FireShotgun_06@CPlayerWeapons_L@@QAEHABVCEntityEvent@@@Z
       3400  D47 001E8680 ?H0x057a001e_FireShotgun_07@CPlayerWeapons_L@@QAEHABVCEntityEvent@@@Z
       3401  D48 001E86F0 ?H0x057a001f_FireShotgun_08@CPlayerWeapons_L@@QAEHABVCEntityEvent@@@Z
       3402  D49 001E8760 ?H0x057a0020_FireShotgun_09@CPlayerWeapons_L@@QAEHABVCEntityEvent@@@Z
       3403  D4A 001E8560 ?H0x057a0021_FireShotgun_10@CPlayerWeapons_L@@QAEHABVCEntityEvent@@@Z
       3404  D4B 001E88A0 ?H0x057a0023_StopShotgun_01@CPlayerWeapons_L@@QAEHABVCEntityEvent@@@Z
       3405  D4C 001E8A70 ?H0x057a0024_StopShotgun_02@CPlayerWeapons_L@@QAEHABVCEntityEvent@@@Z
       3406  D4D 001E8B50 ?H0x057a0025_StopShotgun_03@CPlayerWeapons_L@@QAEHABVCEntityEvent@@@Z
       3407  D4E 001E8D20 ?H0x057a0026_StopShotgun_04@CPlayerWeapons_L@@QAEHABVCEntityEvent@@@Z
       3408  D4F 001E8F90 ?H0x057a0028_ReloadShotgun_01@CPlayerWeapons_L@@QAEHABVCEntityEvent@@@Z
       3409  D50 001E90B0 ?H0x057a0029_ReloadShotgun_02@CPlayerWeapons_L@@QAEHABVCEntityEvent@@@Z
       3410  D51 001E9130 ?H0x057a002b_FireMachineGun_01@CPlayerWeapons_L@@QAEHABVCEntityEvent@@@Z
       3411  D52 001E91C0 ?H0x057a002c_FireMachineGun_02@CPlayerWeapons_L@@QAEHABVCEntityEvent@@@Z
       3412  D53 001E9270 ?H0x057a002d_FireMachineGun_03@CPlayerWeapons_L@@QAEHABVCEntityEvent@@@Z
       3413  D54 001E9320 ?H0x057a002e_FireMachineGun_04@CPlayerWeapons_L@@QAEHABVCEntityEvent@@@Z
       3414  D55 001E9390 ?H0x057a002f_FireMachineGun_05@CPlayerWeapons_L@@QAEHABVCEntityEvent@@@Z
       3415  D56 001E9470 ?H0x057a0030_FireMachineGun_06@CPlayerWeapons_L@@QAEHABVCEntityEvent@@@Z
       3416  D57 001E9520 ?H0x057a0031_FireMachineGun_07@CPlayerWeapons_L@@QAEHABVCEntityEvent@@@Z
       3417  D58 001E9590 ?H0x057a0032_FireMachineGun_08@CPlayerWeapons_L@@QAEHABVCEntityEvent@@@Z
       3418  D59 001E9600 ?H0x057a0033_FireMachineGun_09@CPlayerWeapons_L@@QAEHABVCEntityEvent@@@Z
       3419  D5A 001E9400 ?H0x057a0034_FireMachineGun_10@CPlayerWeapons_L@@QAEHABVCEntityEvent@@@Z
       3420  D5B 001E9740 ?H0x057a0036_StopMachineGun_01@CPlayerWeapons_L@@QAEHABVCEntityEvent@@@Z
       3421  D5C 001E9910 ?H0x057a0037_StopMachineGun_02@CPlayerWeapons_L@@QAEHABVCEntityEvent@@@Z
       3422  D5D 001E9A30 ?H0x057a0038_StopMachineGun_03@CPlayerWeapons_L@@QAEHABVCEntityEvent@@@Z
       3423  D5E 001E9C00 ?H0x057a0039_StopMachineGun_04@CPlayerWeapons_L@@QAEHABVCEntityEvent@@@Z
       3424  D5F 001E9C70 ?H0x057a003a_StopMachineGun_05@CPlayerWeapons_L@@QAEHABVCEntityEvent@@@Z
       3425  D60 001E9EE0 ?H0x057a003c_ReloadMachinegun_01@CPlayerWeapons_L@@QAEHABVCEntityEvent@@@Z
       3426  D61 001EA010 ?H0x057a003d_ReloadMachinegun_02@CPlayerWeapons_L@@QAEHABVCEntityEvent@@@Z
       3427  D62 001EA090 ?H0x057a003f_FireRocketLauncher_01@CPlayerWeapons_L@@QAEHABVCEntityEvent@@@Z
       3428  D63 001EA120 ?H0x057a0040_FireRocketLauncher_02@CPlayerWeapons_L@@QAEHABVCEntityEvent@@@Z
       3429  D64 001EA190 ?H0x057a0041_FireRocketLauncher_03@CPlayerWeapons_L@@QAEHABVCEntityEvent@@@Z
       3430  D65 001EA240 ?H0x057a0042_FireRocketLauncher_04@CPlayerWeapons_L@@QAEHABVCEntityEvent@@@Z
       3431  D66 001EA2F0 ?H0x057a0043_FireRocketLauncher_05@CPlayerWeapons_L@@QAEHABVCEntityEvent@@@Z
       3432  D67 001EA3A0 ?H0x057a0044_FireRocketLauncher_06@CPlayerWeapons_L@@QAEHABVCEntityEvent@@@Z
       3433  D68 001EA410 ?H0x057a0045_FireRocketLauncher_07@CPlayerWeapons_L@@QAEHABVCEntityEvent@@@Z
       3434  D69 001EA4F0 ?H0x057a0046_FireRocketLauncher_08@CPlayerWeapons_L@@QAEHABVCEntityEvent@@@Z
       3435  D6A 001EA5A0 ?H0x057a0047_FireRocketLauncher_09@CPlayerWeapons_L@@QAEHABVCEntityEvent@@@Z
       3436  D6B 001EA610 ?H0x057a0048_FireRocketLauncher_10@CPlayerWeapons_L@@QAEHABVCEntityEvent@@@Z
       3437  D6C 001EA680 ?H0x057a0049_FireRocketLauncher_11@CPlayerWeapons_L@@QAEHABVCEntityEvent@@@Z
       3438  D6D 001EA480 ?H0x057a004a_FireRocketLauncher_12@CPlayerWeapons_L@@QAEHABVCEntityEvent@@@Z
       3439  D6E 001EA8B0 ?H0x057a004d_ReloadRocket_01@CPlayerWeapons_L@@QAEHABVCEntityEvent@@@Z
       3440  D6F 001EFD60 ?H0x057a004e_ReloadRocket_02@CPlayerWeapons_L@@QAEHABVCEntityEvent@@@Z
       3441  D70 001EA940 ?H0x057a004f_ReloadRocket_03@CPlayerWeapons_L@@QAEHABVCEntityEvent@@@Z
       3442  D71 001EAA60 ?H0x057a0050_ReloadRocket_04@CPlayerWeapons_L@@QAEHABVCEntityEvent@@@Z
       3443  D72 001EAB30 ?H0x057a0051_ReloadRocket_05@CPlayerWeapons_L@@QAEHABVCEntityEvent@@@Z
       3444  D73 001EABC0 ?H0x057a0052_ReloadRocket_06@CPlayerWeapons_L@@QAEHABVCEntityEvent@@@Z
       3445  D74 001EAC40 ?H0x057a0054_FireFixedLaser_01@CPlayerWeapons_L@@QAEHABVCEntityEvent@@@Z
       3446  D75 001EACD0 ?H0x057a0055_FireFixedLaser_02@CPlayerWeapons_L@@QAEHABVCEntityEvent@@@Z
       3447  D76 001EAE20 ?H0x057a0057_ReloadGetAmmo_01@CPlayerWeapons_L@@QAEHABVCEntityEvent@@@Z
       3448  D77 001EAED0 ?H0x057a0058_ReloadGetAmmo_02@CPlayerWeapons_L@@QAEHABVCEntityEvent@@@Z
       3449  D78 001EAF40 ?H0x057a0059_ReloadGetAmmo_03@CPlayerWeapons_L@@QAEHABVCEntityEvent@@@Z
       3450  D79 001EB010 ?H0x057a005a_ReloadGetAmmo_04@CPlayerWeapons_L@@QAEHABVCEntityEvent@@@Z
       3451  D7A 001EB0C0 ?H0x057a005b_ReloadGetAmmo_05@CPlayerWeapons_L@@QAEHABVCEntityEvent@@@Z
       3452  D7B 001EB130 ?H0x057a005c_ReloadGetAmmo_06@CPlayerWeapons_L@@QAEHABVCEntityEvent@@@Z
       3453  D7C 001EB200 ?H0x057a005d_ReloadGetAmmo_07@CPlayerWeapons_L@@QAEHABVCEntityEvent@@@Z
       3454  D7D 001EB2B0 ?H0x057a005e_ReloadGetAmmo_08@CPlayerWeapons_L@@QAEHABVCEntityEvent@@@Z
       3455  D7E 001EB320 ?H0x057a005f_ReloadGetAmmo_09@CPlayerWeapons_L@@QAEHABVCEntityEvent@@@Z
       3456  D7F 001EB440 ?H0x057a0061_ReloadChtGiveall_01@CPlayerWeapons_L@@QAEHABVCEntityEvent@@@Z
       3457  D80 001EB4F0 ?H0x057a0062_ReloadChtGiveall_02@CPlayerWeapons_L@@QAEHABVCEntityEvent@@@Z
       3458  D81 001EB560 ?H0x057a0063_ReloadChtGiveall_03@CPlayerWeapons_L@@QAEHABVCEntityEvent@@@Z
       3459  D82 001EB610 ?H0x057a0064_ReloadChtGiveall_04@CPlayerWeapons_L@@QAEHABVCEntityEvent@@@Z
       3460  D83 001EB6C0 ?H0x057a0065_ReloadChtGiveall_05@CPlayerWeapons_L@@QAEHABVCEntityEvent@@@Z
       3461  D84 001EB730 ?H0x057a0066_ReloadChtGiveall_06@CPlayerWeapons_L@@QAEHABVCEntityEvent@@@Z
       3462  D85 001EB7E0 ?H0x057a0067_ReloadChtGiveall_07@CPlayerWeapons_L@@QAEHABVCEntityEvent@@@Z
       3463  D86 001EB890 ?H0x057a0068_ReloadChtGiveall_08@CPlayerWeapons_L@@QAEHABVCEntityEvent@@@Z
       3464  D87 001EB900 ?H0x057a0069_ReloadChtGiveall_09@CPlayerWeapons_L@@QAEHABVCEntityEvent@@@Z
       3465  D88 001EBA30 ?H0x057a006b_Reload_01@CPlayerWeapons_L@@QAEHABVCEntityEvent@@@Z
       3466  D89 001EBAE0 ?H0x057a006c_Reload_02@CPlayerWeapons_L@@QAEHABVCEntityEvent@@@Z
       3467  D8A 001EBC00 ?H0x057a006d_Reload_03@CPlayerWeapons_L@@QAEHABVCEntityEvent@@@Z
       3468  D8B 001EBCB0 ?H0x057a006e_Reload_04@CPlayerWeapons_L@@QAEHABVCEntityEvent@@@Z
       3469  D8C 001EBDD0 ?H0x057a006f_Reload_05@CPlayerWeapons_L@@QAEHABVCEntityEvent@@@Z
       3470  D8D 001EBE80 ?H0x057a0070_Reload_06@CPlayerWeapons_L@@QAEHABVCEntityEvent@@@Z
       3471  D8E 001EBEF0 ?H0x057a0071_Reload_07@CPlayerWeapons_L@@QAEHABVCEntityEvent@@@Z
       3472  D8F 001EBF60 ?H0x057a0072_Reload_08@CPlayerWeapons_L@@QAEHABVCEntityEvent@@@Z
       3473  D90 001EBD20 ?H0x057a0073_Reload_09@CPlayerWeapons_L@@QAEHABVCEntityEvent@@@Z
       3474  D91 001EBFD0 ?H0x057a0074_Reload_10@CPlayerWeapons_L@@QAEHABVCEntityEvent@@@Z
       3475  D92 001EBB50 ?H0x057a0075_Reload_11@CPlayerWeapons_L@@QAEHABVCEntityEvent@@@Z
       3476  D93 001EC0C0 ?H0x057a0077_Idle_01@CPlayerWeapons_L@@QAEHABVCEntityEvent@@@Z
       3477  D94 001EC5F0 ?H0x057a0078_Idle_02@CPlayerWeapons_L@@QAEHABVCEntityEvent@@@Z
       3478  D95 001EC6C0 ?H0x057a007a_Stopped_01@CPlayerWeapons_L@@QAEHABVCEntityEvent@@@Z
       3479  D96 001EC790 ?H0x057a007b_Stopped_02@CPlayerWeapons_L@@QAEHABVCEntityEvent@@@Z
       3480  D97 001EC8F0 ?H0x057a007c_Main_01@CPlayerWeapons_L@@QAEHABVCEntityEvent@@@Z
       3481  D98 001ECD00 ?H0x057a007d_Main_02@CPlayerWeapons_L@@QAEHABVCEntityEvent@@@Z
       3482  D99 00026BD0 ?HUD_NewGame@@YAXXZ
       3483  D9A 000BFA50 ?HandleEvent@CEnemyBase@@UAEHABVCEntityEvent@@@Z
       3484  D9B 001BA8E0 ?HandleEvent@CPlayer@@UAEHABVCEntityEvent@@@Z
       3485  D9C 001BF230 ?HasMessage@CPlayer@@QAEHABVCTFileName@@@Z
       3486  D9D 003D67F0 ?HawkMovementType_enum@@3VCEntityPropertyEnumType@@A
       3487  D9E 003D67E0 ?HawkMovementType_values@@3PAVCEntityPropertyEnumValue@@A
       3488  D9F 00238160 ?HawkRocket@CProjectile@@QAEXXZ
       3489  DA0 002382C0 ?HawkRocketExplosion@CProjectile@@QAEXXZ
       3490  DA1 001CDB50 ?HideFlare@CPlayerAnimator@@QAEXH@Z
       3491  DA2 001DC160 ?HideFlare@CPlayerWeapons@@QAEXAAVCModelInstance@@@Z
       3492  DA3 001EE620 ?HideFlare@CPlayerWeapons_L@@QAEXAAVCModelInstance@@@Z
       3493  DA4 001DA670 ?HideRocket@CPlayerWeapons@@QAEHABVCEntityEvent@@@Z
       3494  DA5 001EFC60 ?HideRocket@CPlayerWeapons_L@@QAEHABVCEntityEvent@@@Z
       3495  DA6 000C8AD0 ?HigherMass@CEnemyHorse@@UAEHXZ
       3496  DA7 000CA160 ?HigherMass@CEnemyRunInto@@UAEHXZ
       3497  DA8 000B2ED0 ?Hit@CEnemyBase@@QAEHABVCEntityEvent@@@Z
       3498  DA9 000C4350 ?Hit@CEnemyDive@@QAEHABVCEntityEvent@@@Z
       3499  DAA 000C6430 ?Hit@CEnemyFly@@QAEHABVCEntityEvent@@@Z
       3500  DAB 001D1D80 ?HoldingFire@CPlayerWeapons@@QAEHXZ
       3501  DAC 001E6680 ?HoldingFire@CPlayerWeapons_L@@QAEHXZ
       3502  DAD 000B4020 ?Hooker3@CEnemyBase@@QAEHABVCEntityEvent@@@Z
       3503  DAE 003C4C68 ?HorseHwangboType_enum@@3VCEntityPropertyEnumType@@A
       3504  DAF 003C4C58 ?HorseHwangboType_values@@3PAVCEntityPropertyEnumValue@@A
       3505  DB0 002358E0 ?HwangboFlameLongDistance@CProjectile@@QAEXXZ
       3506  DB1 00235A40 ?HwangboFlameLongDistanceExplosion@CProjectile@@QAEXXZ
       3507  DB2 0023B800 ?HwangboFlameShortDistance@CProjectile@@QAEXXZ
       3508  DB3 003C59D0 ?HwangboFlameType_enum@@3VCEntityPropertyEnumType@@A
       3509  DB4 003C59C0 ?HwangboFlameType_values@@3PAVCEntityPropertyEnumValue@@A
       3510  DB5 0023B920 ?HwangboRifle@CProjectile@@QAEXXZ
       3511  DB6 003C5CE8 ?HwangboRifleType_enum@@3VCEntityPropertyEnumType@@A
       3512  DB7 003C5CD8 ?HwangboRifleType_values@@3PAVCEntityPropertyEnumValue@@A
       3513  DB8 001D8E80 ?Idle@CPlayerWeapons@@QAEHABVCEntityEvent@@@Z
       3514  DB9 001EC040 ?Idle@CPlayerWeapons_L@@QAEHABVCEntityEvent@@@Z
       3515  DBA 000B0340 ?IdleSound@CEnemyBase@@UAEXXZ
       3516  DBB 000AF840 ?IfTargetCrushed@CEnemyBase@@QAEHPAVCEntity@@ABV?$Vector@M$02@@@Z
       3517  DBC 000C26C0 ?Inactive@CEnemyBase@@QAEHABVCEntityEvent@@@Z
       3518  DBD 0005BC90 ?Inactive@CWatcher@@QAEHABVCEntityEvent@@@Z
       3519  DBE 000C8A90 ?IncreaseKickedMass@CEnemyHorse@@QAEXPAVCEntity@@@Z
       3520  DBF 000CA110 ?IncreaseKickedMass@CEnemyRunInto@@QAEXPAVCEntity@@@Z
       3521  DC0 00032260 ?InitParticles@@YAXXZ
       3522  DC1 001A6AD0 ?Init_BoosterJump@CPlayer@@QAEXXZ
       3523  DC2 001BAC20 ?Init_Objective@CPlayer@@QAEXXZ
       3524  DC3 000225A0 ?Initialize@CEmiter@@QAEXPAVCEntity@@@Z
       3525  DC4 000C2920 ?InitializeAttack@CEnemyBase@@QAEHABVCEntityEvent@@@Z
       3526  DC5 0019FF20 ?InitializeFromNet@CMaria@@UAEXXZ
       3527  DC6 001A6C40 ?InitializeFromNet@CPlayer@@UAEXXZ
       3528  DC7 001CAB80 ?InitializeFromNet@CPlayerAnimator@@UAEXXZ
       3529  DC8 001D1360 ?InitializeFromNet@CPlayerWeapons@@UAEXXZ
       3530  DC9 001E5EA0 ?InitializeFromNet@CPlayerWeapons_L@@UAEXXZ
       3531  DCA 0022E6D0 ?InitializeFromNet@CProjectile@@UAEXXZ
       3532  DCB 000592B0 ?InitializeFromNet@CReminder@@UAEXXZ
       3533  DCC 0019D2E0 ?InitializeItem@CSkaItem@@QAEXXZ
       3534  DCD 001C4DB0 ?InitializePlayer@CPlayer@@QAEXH@Z
       3535  DCE 001CDCA0 ?InitializeProperties@CPlayerAnimator@@QAEXXZ
       3536  DCF 000BC350 ?InitializeTactics@CEnemyBase@@QAEXXZ
       3537  DD0 001DCE90 ?InitializeWeapons@CPlayerWeapons@@QAEXJJJM@Z
       3538  DD1 001ED2A0 ?InitializeWeapons@CPlayerWeapons_L@@QAEXJJJM@Z
       3539  DD2 001A6CD0 ?IsActionApplied@CPlayer@@UAEHXZ
       3540  DD3 000B0560 ?IsAnimFinished@CEnemyBase@@QAEHXZ
       3541  DD4 001ABB40 ?IsCROUCH@CPlayer@@QAEHXZ
       3542  DD5 001ABC60 ?IsConnected@CPlayer@@QBEHXZ
       3543  DD6 001B2700 ?IsFuss@CPlayer@@QAEHXZ
       3544  DD7 000B9D90 ?IsInFrustum@CEnemyBase@@QAEHPAVCEntity@@M@Z
       3545  DD8 000B9E70 ?IsInFrustumXZPlane@CEnemyBase@@QAEHPAVCEntity@@M@Z
       3546  DD9 000B9F50 ?IsInPlaneFrustum@CEnemyBase@@QAEHPAVCEntity@@M@Z
       3547  DDA 00058CD0 ?IsMarker@CNavigationMarker@@UBEHXZ
       3548  DDB 001A6D00 ?IsReapplyingActions@CPlayer@@UAEHXZ
       3549  DDC 001A3D50 ?IsSentOverNet@CPlayerView@@UBEHXZ
       3550  DDD 0000EAA0 ?IsSentOverNet@CWatcher@@UBEHXZ
       3551  DDE 00010440 ?IsTargetable@CEnemyBase@@UBEHXZ
       3552  DDF 00055470 ?IsTargetable@CNavigationMarker@@UBEHXZ
       3553  DE0 00001940 ?IsTargetable@CSkaItem@@UBEHXZ
       3554  DE1 000AFCC0 ?IsValidForEnemy@CEnemyBase@@QAEHPAVCEntity@@@Z
       3555  DE2 000B5D80 ?IsVisible@CEnemyBase@@QAEHPAVCEntity@@@Z
       3556  DE3 001D9630 ?IsVisible@CPlayerWeapons@@QAEHPAVCEntity@@@Z
       3557  DE4 001ED100 ?IsVisible@CPlayerWeapons_L@@QAEHPAVCEntity@@@Z
       3558  DE5 000B5E40 ?IsVisibleCheckAll@CEnemyBase@@QAEHPAVCEntity@@@Z
       3559  DE6 001D9700 ?IsVisibleCheckAll@CPlayerWeapons@@QAEHPAVCEntity@@@Z
       3560  DE7 001ED1D0 ?IsVisibleCheckAll@CPlayerWeapons_L@@QAEHPAVCEntity@@@Z
       3561  DE8 000B5F00 ?IsVisibleCheckAllNew@CEnemyBase@@QAEHPAVCEntity@@@Z
       3562  DE9 0019C710 ?ItemCollected@CSkaItem@@QAEHABVCEntityEvent@@@Z
       3563  DEA 0019CE00 ?ItemLoop@CSkaItem@@QAEHABVCEntityEvent@@@Z
       3564  DEB 001AAAD0 ?ItemPicked@CPlayer@@QAEXABVCTString@@M@Z
       3565  DEC 0019D070 ?ItemReceived@CSkaItem@@QAEHABVCEntityEvent@@@Z
       3566  DED 002442B0 ?JumpFromBouncer@@YAXPAVCEntity@@0@Z
       3567  DEE 003CDF20 ?KeyItemType_enum@@3VCEntityPropertyEnumType@@A
       3568  DEF 003CDE08 ?KeyItemType_values@@3PAVCEntityPropertyEnumValue@@A
       3569  DF0 00012A80 ?KickEntity@@YAXPAVCEntity@@V?$Vector@M$02@@@Z
       3570  DF1 00012B00 ?KickPlayer@@YAXPAVCEntity@@V?$Vector@M$02@@@Z
       3571  DF2 000B7AD0 ?Kicked@CEnemyBase@@QAEHABVCEntityEvent@@@Z
       3572  DF3 0019CDB0 ?KillSwitchPointer@CSkaItem@@QAEXXZ
       3573  DF4 003BC0B0 ?KillType_enum@@3VCEntityPropertyEnumType@@A
       3574  DF5 003BC090 ?KillType_values@@3PAVCEntityPropertyEnumValue@@A
       3575  DF6 003C6700 ?LamonBikeAttackType_enum@@3VCEntityPropertyEnumType@@A
       3576  DF7 003C66E8 ?LamonBikeAttackType_values@@3PAVCEntityPropertyEnumValue@@A
       3577  DF8 00237EF0 ?LamonRocket@CProjectile@@QAEXXZ
       3578  DF9 00238150 ?LamonRocketExplosion@CProjectile@@QAEXXZ
       3579  DFA 000AFBA0 ?Landing@CEnemyBase@@UAEXXZ
       3580  DFB 0022B260 ?LaunchBullet@CBullet@@QAEXHHH@Z
       3581  DFC 0022B790 ?LaunchShotGunBullet@CBullet@@QAEXHHHJ@Z
       3582  DFD 0022BDF0 ?LaunchSniperBullet@CBullet@@QAEXHHH@Z
       3583  DFE 0022ABB0 ?LaunchTrail@CBullet@@QAEXXZ
       3584  DFF 000BF0F0 ?LeaveStain@CEnemyBase@@UAEXH@Z
       3585  E00 001BB330 ?LeaveStain@CPlayer@@UAEXH@Z
       3586  E01 000BF4A0 ?LeaveStainNew@CEnemyBase@@UAEXHKH@Z
       3587  E02 001CB4B0 ?LegsGroundStillAnimation@CPlayerAnimator@@QAEXXZ
       3588  E03 003D21D8 ?LensFlareType_enum@@3VCEntityPropertyEnumType@@A
       3589  E04 003D2170 ?LensFlareType_values@@3PAVCEntityPropertyEnumValue@@A
       3590  E05 0001A7A0 ?LerpPlacementsPrecise@@YA?AVCPlacement3D@@ABV1@0M@Z
       3591  E06 001B0750 ?LevelChangePlayerClear@CPlayer@@QAEXXZ
       3592  E07 003D2168 ?LightType_enum@@3VCEntityPropertyEnumType@@A
       3593  E08 003D2140 ?LightType_values@@3PAVCEntityPropertyEnumValue@@A
       3594  E09 001B2D40 ?ListenFromEntity@CPlayer@@QAEXPAVCEntity@@ABVCPlacement3D@@@Z
       3595  E0A 000C8AC0 ?LiveEntityTouched@CEnemyHorse@@UAEXVETouch@@@Z
       3596  E0B 000CA150 ?LiveEntityTouched@CEnemyRunInto@@UAEXVETouch@@@Z
       3597  E0C 001C61A0 ?LoadCrazyWarpINI@CPlayer@@QAEXXZ
       3598  E0D 000110F0 ?LoadSkaModel@@YAXAAVCModelInstance@@PAVCEntity@@J@Z
       3599  E0E 000C1F40 ?LockOnEnemy@CEnemyBase@@QAEHABVCEntityEvent@@@Z
       3600  E0F 001A96E0 ?LooseLife@CPlayer@@QAEXXZ
       3601  E10 003CAB90 ?MGType_enum@@3VCEntityPropertyEnumType@@A
       3602  E11 003CAB80 ?MGType_values@@3PAVCEntityPropertyEnumValue@@A
       3603  E12 003D25C8 ?MMH3ModelType_enum@@3VCEntityPropertyEnumType@@A
       3604  E13 003D25B8 ?MMH3ModelType_values@@3PAVCEntityPropertyEnumValue@@A
       3605  E14 002295C0 ?Main@CBullet@@QAEHABVCEntityEvent@@@Z
       3606  E15 000B5810 ?Main@CEnemyBase@@QAEHABVCEntityEvent@@@Z
       3607  E16 000C4520 ?Main@CEnemyDive@@QAEHABVCEntityEvent@@@Z
       3608  E17 000C69D0 ?Main@CEnemyFly@@QAEHABVCEntityEvent@@@Z
       3609  E18 000C8DE0 ?Main@CEnemyHorse@@QAEHABVCEntityEvent@@@Z
       3610  E19 000CABE0 ?Main@CEnemyRunInto@@QAEHABVCEntityEvent@@@Z
       3611  E1A 001A0600 ?Main@CMaria@@QAEHABVCEntityEvent@@@Z
       3612  E1B 00059050 ?Main@CNavigationMarker@@QAEHABVCEntityEvent@@@Z
       3613  E1C 001AE350 ?Main@CPlayer@@QAEHABVCEntityEvent@@@Z
       3614  E1D 001CB690 ?Main@CPlayerAnimator@@QAEHABVCEntityEvent@@@Z
       3615  E1E 001CE4E0 ?Main@CPlayerView@@QAEHABVCEntityEvent@@@Z
       3616  E1F 001DE9A0 ?Main@CPlayerWeapons@@QAEHABVCEntityEvent@@@Z
       3617  E20 001EC7A0 ?Main@CPlayerWeapons_L@@QAEHABVCEntityEvent@@@Z
       3618  E21 0023D2D0 ?Main@CProjectile@@QAEHABVCEntityEvent@@@Z
       3619  E22 000595D0 ?Main@CReminder@@QAEHABVCEntityEvent@@@Z
       3620  E23 0005C0F0 ?Main@CWatcher@@QAEHABVCEntityEvent@@@Z
       3621  E24 000B5490 ?MainLoop@CEnemyBase@@QAEHABVCEntityEvent@@@Z
       3622  E25 000C44B0 ?MainLoop@CEnemyDive@@QAEHABVCEntityEvent@@@Z
       3623  E26 000C6950 ?MainLoop@CEnemyFly@@QAEHABVCEntityEvent@@@Z
       3624  E27 000C8D60 ?MainLoop@CEnemyHorse@@QAEHABVCEntityEvent@@@Z
       3625  E28 000CAB70 ?MainLoop@CEnemyRunInto@@QAEHABVCEntityEvent@@@Z
       3626  E29 000B4FC0 ?MainLoop_internal@CEnemyBase@@QAEHABVCEntityEvent@@@Z
       3627  E2A 00239000 ?MajangRocket@CProjectile@@QAEXXZ
       3628  E2B 00239250 ?MajangRocketExplosion@CProjectile@@QAEXXZ
       3629  E2C 00239AD0 ?MajangSecondRocket@CProjectile@@QAEXXZ
       3630  E2D 00239D30 ?MajangSecondRocketExplosion@CProjectile@@QAEXXZ
       3631  E2E 00005880 ?MakeCopy@EActivate@@UAEPAVCEntityEvent@@XZ
       3632  E2F 001822B0 ?MakeCopy@EActivateBlend@@UAEPAVCEntityEvent@@XZ
       3633  E30 001A4820 ?MakeCopy@EActiveMariaDie@@UAEPAVCEntityEvent@@XZ
       3634  E31 001A5110 ?MakeCopy@EAddBulletSpray@@UAEPAVCEntityEvent@@XZ
       3635  E32 001A5150 ?MakeCopy@EAddGoreSpray@@UAEPAVCEntityEvent@@XZ
       3636  E33 001166D0 ?MakeCopy@EAlert@@UAEPAVCEntityEvent@@XZ
       3637  E34 001954D0 ?MakeCopy@EAmmoPackItem@@UAEPAVCEntityEvent@@XZ
       3638  E35 0024A650 ?MakeCopy@EAnimForDamage@@UAEPAVCEntityEvent@@XZ
       3639  E36 001CA9F0 ?MakeCopy@EAnimatorInit@@UAEPAVCEntityEvent@@XZ
       3640  E37 001A4DE0 ?MakeCopy@EAutoAction@@UAEPAVCEntityEvent@@XZ
       3641  E38 00005EC0 ?MakeCopy@EAvoidProjectiles@@UAEPAVCEntityEvent@@XZ
       3642  E39 000063B0 ?MakeCopy@EBFlame@@UAEPAVCEntityEvent@@XZ
       3643  E3A 00006390 ?MakeCopy@EBGravity@@UAEPAVCEntityEvent@@XZ
       3644  E3B 0019F920 ?MakeCopy@EBackMaria@@UAEPAVCEntityEvent@@XZ
       3645  E3C 00005B60 ?MakeCopy@EBackMariaNPC@@UAEPAVCEntityEvent@@XZ
       3646  E3D 00099920 ?MakeCopy@EBackward@@UAEPAVCEntityEvent@@XZ
       3647  E3E 00005A40 ?MakeCopy@EBasket@@UAEPAVCEntityEvent@@XZ
       3648  E3F 000AEFB0 ?MakeCopy@EBlowUp@@UAEPAVCEntityEvent@@XZ
       3649  E40 00005CC0 ?MakeCopy@EBonus@@UAEPAVCEntityEvent@@XZ
       3650  E41 00196130 ?MakeCopy@EBoosterPack@@UAEPAVCEntityEvent@@XZ
       3651  E42 001A52E0 ?MakeCopy@EBoringWeapon@@UAEPAVCEntityEvent@@XZ
       3652  E43 00116790 ?MakeCopy@EBossWounded@@UAEPAVCEntityEvent@@XZ
       3653  E44 001A5580 ?MakeCopy@EBringUp@@UAEPAVCEntityEvent@@XZ
       3654  E45 0022E000 ?MakeCopy@EBruceDefenseFinished@@UAEPAVCEntityEvent@@XZ
       3655  E46 00066140 ?MakeCopy@EBruceDefenseProjectiles@@UAEPAVCEntityEvent@@XZ
       3656  E47 00066380 ?MakeCopy@EBruceGo@@UAEPAVCEntityEvent@@XZ
       3657  E48 00066320 ?MakeCopy@EBruceReady@@UAEPAVCEntityEvent@@XZ
       3658  E49 000661C0 ?MakeCopy@EBruceTeleport@@UAEPAVCEntityEvent@@XZ
       3659  E4A 00244750 ?MakeCopy@EBrushDeath@@UAEPAVCEntityEvent@@XZ
       3660  E4B 00244630 ?MakeCopy@EBrushDestroyed@@UAEPAVCEntityEvent@@XZ
       3661  E4C 000705C0 ?MakeCopy@EBuffaloMoveThroughMarkers@@UAEPAVCEntityEvent@@XZ
       3662  E4D 00229420 ?MakeCopy@EBulletInit@@UAEPAVCEntityEvent@@XZ
       3663  E4E 001A4B00 ?MakeCopy@ECameraStart@@UAEPAVCEntityEvent@@XZ
       3664  E4F 001A4BE0 ?MakeCopy@ECameraStop@@UAEPAVCEntityEvent@@XZ
       3665  E50 00006490 ?MakeCopy@ECenterMessage@@UAEPAVCEntityEvent@@XZ
       3666  E51 001F20E0 ?MakeCopy@EChangeAnim@@UAEPAVCEntityEvent@@XZ
       3667  E52 0009F0A0 ?MakeCopy@EChangeDance@@UAEPAVCEntityEvent@@XZ
       3668  E53 00201040 ?MakeCopy@EChangeGravity@@UAEPAVCEntityEvent@@XZ
       3669  E54 00211930 ?MakeCopy@EChangeMusic@@UAEPAVCEntityEvent@@XZ
       3670  E55 00079AF0 ?MakeCopy@EChiangWaitMode@@UAEPAVCEntityEvent@@XZ
       3671  E56 000663E0 ?MakeCopy@ECloseAttack@@UAEPAVCEntityEvent@@XZ
       3672  E57 001A4580 ?MakeCopy@ECombo@@UAEPAVCEntityEvent@@XZ
       3673  E58 00006560 ?MakeCopy@EComputerMessage@@UAEPAVCEntityEvent@@XZ
       3674  E59 001F8410 ?MakeCopy@ECopierTrigger@@UAEPAVCEntityEvent@@XZ
       3675  E5A 0025B860 ?MakeCopy@ECoreDamage@@UAEPAVCEntityEvent@@XZ
       3676  E5B 0025B6E0 ?MakeCopy@ECoreFlame@@UAEPAVCEntityEvent@@XZ
       3677  E5C 0025B7A0 ?MakeCopy@ECoreGravity@@UAEPAVCEntityEvent@@XZ
       3678  E5D 0025B680 ?MakeCopy@ECoreGrind@@UAEPAVCEntityEvent@@XZ
       3679  E5E 0025B740 ?MakeCopy@ECorePress@@UAEPAVCEntityEvent@@XZ
       3680  E5F 0025B800 ?MakeCopy@ECoreSwitcher@@UAEPAVCEntityEvent@@XZ
       3681  E60 000C3900 ?MakeCopy@ECounterCount@@UAEPAVCEntityEvent@@XZ
       3682  E61 001A43A0 ?MakeCopy@ECrazyBegin@@UAEPAVCEntityEvent@@XZ
       3683  E62 001A4400 ?MakeCopy@ECrazyEnd@@UAEPAVCEntityEvent@@XZ
       3684  E63 00006430 ?MakeCopy@ECredits@@UAEPAVCEntityEvent@@XZ
       3685  E64 000A3290 ?MakeCopy@EDancerAcrobatRemoved@@UAEPAVCEntityEvent@@XZ
       3686  E65 000A32F0 ?MakeCopy@EDancerNormalCreated@@UAEPAVCEntityEvent@@XZ
       3687  E66 000058A0 ?MakeCopy@EDeactivate@@UAEPAVCEntityEvent@@XZ
       3688  E67 001822D0 ?MakeCopy@EDeactivateBlend@@UAEPAVCEntityEvent@@XZ
       3689  E68 000662A0 ?MakeCopy@EDefenseBullet@@UAEPAVCEntityEvent@@XZ
       3690  E69 0009EF80 ?MakeCopy@EDirectDancers@@UAEPAVCEntityEvent@@XZ
       3691  E6A 001A4D80 ?MakeCopy@EDisconnected@@UAEPAVCEntityEvent@@XZ
       3692  E6B 00120AD0 ?MakeCopy@EDownMode@@UAEPAVCEntityEvent@@XZ
       3693  E6C 001A4460 ?MakeCopy@EDrugmodeBegin@@UAEPAVCEntityEvent@@XZ
       3694  E6D 001A44C0 ?MakeCopy@EDrugmodeEnd@@UAEPAVCEntityEvent@@XZ
       3695  E6E 00005900 ?MakeCopy@EEnd@@UAEPAVCEntityEvent@@XZ
       3696  E6F 000AF370 ?MakeCopy@EEndActor@@UAEPAVCEntityEvent@@XZ
       3697  E70 000AEEB0 ?MakeCopy@EEnemyBaseDamage@@UAEPAVCEntityEvent@@XZ
       3698  E71 000AEF30 ?MakeCopy@EEnemyBaseDeath@@UAEPAVCEntityEvent@@XZ
       3699  E72 00006290 ?MakeCopy@EEntityVoice@@UAEPAVCEntityEvent@@XZ
       3700  E73 000058C0 ?MakeCopy@EEnvironmentStart@@UAEPAVCEntityEvent@@XZ
       3701  E74 000058E0 ?MakeCopy@EEnvironmentStop@@UAEPAVCEntityEvent@@XZ
       3702  E75 0022DF20 ?MakeCopy@EExplode@@UAEPAVCEntityEvent@@XZ
       3703  E76 00005E20 ?MakeCopy@EExtraTeleport@@UAEPAVCEntityEvent@@XZ
       3704  E77 0019F8C0 ?MakeCopy@EFireBombs@@UAEPAVCEntityEvent@@XZ
       3705  E78 00099A60 ?MakeCopy@EFireDagger@@UAEPAVCEntityEvent@@XZ
       3706  E79 000969A0 ?MakeCopy@EFireDaggerNow@@UAEPAVCEntityEvent@@XZ
       3707  E7A 00120920 ?MakeCopy@EFireLightning@@UAEPAVCEntityEvent@@XZ
       3708  E7B 001493A0 ?MakeCopy@EFireRocket@@UAEPAVCEntityEvent@@XZ
       3709  E7C 001A5340 ?MakeCopy@EFireWeapon@@UAEPAVCEntityEvent@@XZ
       3710  E7D 0022C380 ?MakeCopy@EFlame@@UAEPAVCEntityEvent@@XZ
       3711  E7E 0021FDF0 ?MakeCopy@EFlipTheSwitch@@UAEPAVCEntityEvent@@XZ
       3712  E7F 0018D6F0 ?MakeCopy@EFloatingScore@@UAEPAVCEntityEvent@@XZ
       3713  E80 000AEE50 ?MakeCopy@EForceWound@@UAEPAVCEntityEvent@@XZ
       3714  E81 000998C0 ?MakeCopy@EForward@@UAEPAVCEntityEvent@@XZ
       3715  E82 00116810 ?MakeCopy@EGetDamaged@@UAEPAVCEntityEvent@@XZ
       3716  E83 00149560 ?MakeCopy@EGoToBellMarker@@UAEPAVCEntityEvent@@XZ
       3717  E84 001A5820 ?MakeCopy@EGrenadeExplodeNow@@UAEPAVCEntityEvent@@XZ
       3718  E85 00006330 ?MakeCopy@EGrindClose@@UAEPAVCEntityEvent@@XZ
       3719  E86 000062F0 ?MakeCopy@EGrindInit@@UAEPAVCEntityEvent@@XZ
       3720  E87 00006370 ?MakeCopy@EGrindOff@@UAEPAVCEntityEvent@@XZ
       3721  E88 00006350 ?MakeCopy@EGrindOn@@UAEPAVCEntityEvent@@XZ
       3722  E89 00006310 ?MakeCopy@EGrindOpen@@UAEPAVCEntityEvent@@XZ
       3723  E8A 00116650 ?MakeCopy@EGuard@@UAEPAVCEntityEvent@@XZ
       3724  E8B 00113CA0 ?MakeCopy@EGuardState@@UAEPAVCEntityEvent@@XZ
       3725  E8C 00249070 ?MakeCopy@EHarbor@@UAEPAVCEntityEvent@@XZ
       3726  E8D 002445D0 ?MakeCopy@EHit@@UAEPAVCEntityEvent@@XZ
       3727  E8E 00006680 ?MakeCopy@EHitBySpaceShipBeam@@UAEPAVCEntityEvent@@XZ
       3728  E8F 00005BC0 ?MakeCopy@EHooker3@@UAEPAVCEntityEvent@@XZ
       3729  E90 00005BE0 ?MakeCopy@EHooker@@UAEPAVCEntityEvent@@XZ
       3730  E91 000063D0 ?MakeCopy@EHudPicFX@@UAEPAVCEntityEvent@@XZ
       3731  E92 000AEFF0 ?MakeCopy@EInDrugModeItem@@UAEPAVCEntityEvent@@XZ
       3732  E93 000AF1B0 ?MakeCopy@EInRange@@UAEPAVCEntityEvent@@XZ
       3733  E94 0019F780 ?MakeCopy@EInitMaria@@UAEPAVCEntityEvent@@XZ
       3734  E95 00265460 ?MakeCopy@EInitMariaNPC@@UAEPAVCEntityEvent@@XZ
       3735  E96 0026E5A0 ?MakeCopy@EItemHealthyFamily@@UAEPAVCEntityEvent@@XZ
       3736  E97 00079B50 ?MakeCopy@EJump@@UAEPAVCEntityEvent@@XZ
       3737  E98 00073350 ?MakeCopy@EJumpIntoRiceField@@UAEPAVCEntityEvent@@XZ
       3738  E99 000732F0 ?MakeCopy@EJumpOutFromRiceField@@UAEPAVCEntityEvent@@XZ
       3739  E9A 00196AD0 ?MakeCopy@EKey@@UAEPAVCEntityEvent@@XZ
       3740  E9B 00006000 ?MakeCopy@EKilledEnemy@@UAEPAVCEntityEvent@@XZ
       3741  E9C 0010ADC0 ?MakeCopy@ELamonBikeFireRocket@@UAEPAVCEntityEvent@@XZ
       3742  E9D 0010AEF0 ?MakeCopy@ELamonBikeMoveThroughMarkers@@UAEPAVCEntityEvent@@XZ
       3743  E9E 0010AE20 ?MakeCopy@ELamonBikeOnMarker@@UAEPAVCEntityEvent@@XZ
       3744  E9F 0010AE90 ?MakeCopy@ELamonBikeSuicide@@UAEPAVCEntityEvent@@XZ
       3745  EA0 00005A20 ?MakeCopy@ELamonGenerate@@UAEPAVCEntityEvent@@XZ
       3746  EA1 001A4880 ?MakeCopy@ELandingActiveMaria@@UAEPAVCEntityEvent@@XZ
       3747  EA2 001A4640 ?MakeCopy@ELandingMaria@@UAEPAVCEntityEvent@@XZ
       3748  EA3 0019F860 ?MakeCopy@ELaunch@@UAEPAVCEntityEvent@@XZ
       3749  EA4 001A4720 ?MakeCopy@ELaunchActiveMaria@@UAEPAVCEntityEvent@@XZ
       3750  EA5 000060F0 ?MakeCopy@ELaunchAx@@UAEPAVCEntityEvent@@XZ
       3751  EA6 001A45E0 ?MakeCopy@ELaunchMaria@@UAEPAVCEntityEvent@@XZ
       3752  EA7 00005B00 ?MakeCopy@ELaunchMariaNPC@@UAEPAVCEntityEvent@@XZ
       3753  EA8 0022DE20 ?MakeCopy@ELaunchProjectile@@UAEPAVCEntityEvent@@XZ
       3754  EA9 00099800 ?MakeCopy@ELeft@@UAEPAVCEntityEvent@@XZ
       3755  EAA 00005AA0 ?MakeCopy@ELisa@@UAEPAVCEntityEvent@@XZ
       3756  EAB 0019BF90 ?MakeCopy@EMarkPicked@@UAEPAVCEntityEvent@@XZ
       3757  EAC 0024B460 ?MakeCopy@EMarkerPassed@@UAEPAVCEntityEvent@@XZ
       3758  EAD 00197DD0 ?MakeCopy@EMessageItem@@UAEPAVCEntityEvent@@XZ
       3759  EAE 00207600 ?MakeCopy@EModel2Activate@@UAEPAVCEntityEvent@@XZ
       3760  EAF 00207660 ?MakeCopy@EModel2Deactivate@@UAEPAVCEntityEvent@@XZ
       3761  EB0 00209FF0 ?MakeCopy@EModel3Activate@@UAEPAVCEntityEvent@@XZ
       3762  EB1 0020A050 ?MakeCopy@EModel3Deactivate@@UAEPAVCEntityEvent@@XZ
       3763  EB2 00217150 ?MakeCopy@EModelChange@@UAEPAVCEntityEvent@@XZ
       3764  EB3 002046D0 ?MakeCopy@EModelDeath@@UAEPAVCEntityEvent@@XZ
       3765  EB4 00217270 ?MakeCopy@EModelDeathSpawnAmmoItem@@UAEPAVCEntityEvent@@XZ
       3766  EB5 00217210 ?MakeCopy@EModelDeathSpawnArmorItem@@UAEPAVCEntityEvent@@XZ
       3767  EB6 002171B0 ?MakeCopy@EModelDeathSpawnHealthItem@@UAEPAVCEntityEvent@@XZ
       3768  EB7 002172D0 ?MakeCopy@EModelDeathSpawnSpecialItem@@UAEPAVCEntityEvent@@XZ
       3769  EB8 00005D90 ?MakeCopy@EModelSelfDestruction@@UAEPAVCEntityEvent@@XZ
       3770  EB9 001496A0 ?MakeCopy@EMoveToDestMarker@@UAEPAVCEntityEvent@@XZ
       3771  EBA 002116E0 ?MakeCopy@EMusicChangerTrigger@@UAEPAVCEntityEvent@@XZ
       3772  EBB 00211A20 ?MakeCopy@ENetChangeMusic@@UAEPAVCEntityEvent@@XZ
       3773  EBC 001A5700 ?MakeCopy@ENetFireWeapon@@UAEPAVCEntityEvent@@XZ
       3774  EBD 001A5760 ?MakeCopy@ENetReleaseWeapon@@UAEPAVCEntityEvent@@XZ
       3775  EBE 001A57C0 ?MakeCopy@ENetReloadWeapon@@UAEPAVCEntityEvent@@XZ
       3776  EBF 001A56A0 ?MakeCopy@ENetSelectWeapon@@UAEPAVCEntityEvent@@XZ
       3777  EC0 000CBE60 ?MakeCopy@ENetSpawnEntity@@UAEPAVCEntityEvent@@XZ
       3778  EC1 00186E10 ?MakeCopy@ENetTrigger@@UAEPAVCEntityEvent@@XZ
       3779  EC2 00006620 ?MakeCopy@EObjectiveCompletedMessage@@UAEPAVCEntityEvent@@XZ
       3780  EC3 00149480 ?MakeCopy@EOnMarker@@UAEPAVCEntityEvent@@XZ
       3781  EC4 00005FA0 ?MakeCopy@EOnPeerDead@@UAEPAVCEntityEvent@@XZ
       3782  EC5 000AF0D0 ?MakeCopy@EOutDrugModeItem@@UAEPAVCEntityEvent@@XZ
       3783  EC6 000AF290 ?MakeCopy@EOutRange@@UAEPAVCEntityEvent@@XZ
       3784  EC7 002152E0 ?MakeCopy@EParticlesActivate@@UAEPAVCEntityEvent@@XZ
       3785  EC8 00215300 ?MakeCopy@EParticlesDeactivate@@UAEPAVCEntityEvent@@XZ
       3786  EC9 002118D0 ?MakeCopy@EPlayEcstasy@@UAEPAVCEntityEvent@@XZ
       3787  ECA 0021F150 ?MakeCopy@EPlaySoundOnce@@UAEPAVCEntityEvent@@XZ
       3788  ECB 001A4FC0 ?MakeCopy@EPlayerDeath@@UAEPAVCEntityEvent@@XZ
       3789  ECC 00120A70 ?MakeCopy@EPlayerInCloseRange@@UAEPAVCEntityEvent@@XZ
       3790  ECD 001A4ED0 ?MakeCopy@EPlayerKilledEnemy@@UAEPAVCEntityEvent@@XZ
       3791  ECE 001A4D20 ?MakeCopy@EPlayerRebirth@@UAEPAVCEntityEvent@@XZ
       3792  ECF 001A50A0 ?MakeCopy@EPlayerStats@@UAEPAVCEntityEvent@@XZ
       3793  ED0 001986F0 ?MakeCopy@EPowerUp@@UAEPAVCEntityEvent@@XZ
       3794  ED1 00149640 ?MakeCopy@EPriestStart@@UAEPAVCEntityEvent@@XZ
       3795  ED2 002425E0 ?MakeCopy@EProjectileSpawnClient@@UAEPAVCEntityEvent@@XZ
       3796  ED3 00005EA0 ?MakeCopy@EProtectorFire@@UAEPAVCEntityEvent@@XZ
       3797  ED4 00116890 ?MakeCopy@EProtectorsCleared@@UAEPAVCEntityEvent@@XZ
       3798  ED5 001A55E0 ?MakeCopy@EPutDown@@UAEPAVCEntityEvent@@XZ
       3799  ED6 0027E250 ?MakeCopy@ERHawkDeath@@UAEPAVCEntityEvent@@XZ
       3800  ED7 00204670 ?MakeCopy@ERangeModelDestruction@@UAEPAVCEntityEvent@@XZ
       3801  ED8 001A4CC0 ?MakeCopy@ERebirth@@UAEPAVCEntityEvent@@XZ
       3802  ED9 00005CE0 ?MakeCopy@EReceiveScore@@UAEPAVCEntityEvent@@XZ
       3803  EDA 0019BF30 ?MakeCopy@EReceiveSkaItem@@UAEPAVCEntityEvent@@XZ
       3804  EDB 000AEDF0 ?MakeCopy@EReconsiderBehavior@@UAEPAVCEntityEvent@@XZ
       3805  EDC 001A53A0 ?MakeCopy@EReleaseWeapon@@UAEPAVCEntityEvent@@XZ
       3806  EDD 001A5520 ?MakeCopy@EReloadChtGiveall@@UAEPAVCEntityEvent@@XZ
       3807  EDE 001A54C0 ?MakeCopy@EReloadGetAmmo@@UAEPAVCEntityEvent@@XZ
       3808  EDF 001A5400 ?MakeCopy@EReloadWeapon@@UAEPAVCEntityEvent@@XZ
       3809  EE0 00005A00 ?MakeCopy@EReminder@@UAEPAVCEntityEvent@@XZ
       3810  EE1 00059530 ?MakeCopy@EReminderInit@@UAEPAVCEntityEvent@@XZ
       3811  EE2 000AED90 ?MakeCopy@ERestartAttack@@UAEPAVCEntityEvent@@XZ
       3812  EE3 00099860 ?MakeCopy@ERight@@UAEPAVCEntityEvent@@XZ
       3813  EE4 000733B0 ?MakeCopy@ERightAttack@@UAEPAVCEntityEvent@@XZ
       3814  EE5 00079BB0 ?MakeCopy@ERightFire@@UAEPAVCEntityEvent@@XZ
       3815  EE6 001A5640 ?MakeCopy@ERigidityWeapon@@UAEPAVCEntityEvent@@XZ
       3816  EE7 00099980 ?MakeCopy@ERotateLeft@@UAEPAVCEntityEvent@@XZ
       3817  EE8 000999F0 ?MakeCopy@ERotateRight@@UAEPAVCEntityEvent@@XZ
       3818  EE9 000061D0 ?MakeCopy@EScroll@@UAEPAVCEntityEvent@@XZ
       3819  EEA 000060D0 ?MakeCopy@ESecretFound@@UAEPAVCEntityEvent@@XZ
       3820  EEB 001A5280 ?MakeCopy@ESelectWeapon@@UAEPAVCEntityEvent@@XZ
       3821  EEC 001A46A0 ?MakeCopy@ESetPlayerWeapon@@UAEPAVCEntityEvent@@XZ
       3822  EED 0019C080 ?MakeCopy@ESetType@@UAEPAVCEntityEvent@@XZ
       3823  EEE 001F3B80 ?MakeCopy@ESetViewer@@UAEPAVCEntityEvent@@XZ
       3824  EEF 001A5040 ?MakeCopy@EShowConsole@@UAEPAVCEntityEvent@@XZ
       3825  EF0 00199580 ?MakeCopy@ESkaAmmoItem@@UAEPAVCEntityEvent@@XZ
       3826  EF1 0019A1C0 ?MakeCopy@ESkaArmor@@UAEPAVCEntityEvent@@XZ
       3827  EF2 0019AF20 ?MakeCopy@ESkaHealth@@UAEPAVCEntityEvent@@XZ
       3828  EF3 00005D00 ?MakeCopy@ESkaMovingModelDestruction@@UAEPAVCEntityEvent@@XZ
       3829  EF4 0019D450 ?MakeCopy@ESkaSpecialItem@@UAEPAVCEntityEvent@@XZ
       3830  EF5 00006110 ?MakeCopy@ESound@@UAEPAVCEntityEvent@@XZ
       3831  EF6 00183840 ?MakeCopy@ESpawnDebris@@UAEPAVCEntityEvent@@XZ
       3832  EF7 001853F0 ?MakeCopy@ESpawnDebrisSka@@UAEPAVCEntityEvent@@XZ
       3833  EF8 0017CD90 ?MakeCopy@ESpawnEffect@@UAEPAVCEntityEvent@@XZ
       3834  EF9 00188740 ?MakeCopy@ESpawnEffector@@UAEPAVCEntityEvent@@XZ
       3835  EFA 00189BA0 ?MakeCopy@ESpawnFXEmiter@@UAEPAVCEntityEvent@@XZ
       3836  EFB 0022DF60 ?MakeCopy@ESpawnFlame@@UAEPAVCEntityEvent@@XZ
       3837  EFC 001826A0 ?MakeCopy@ESpawnSpray@@UAEPAVCEntityEvent@@XZ
       3838  EFD 002424C0 ?MakeCopy@ESpawnerProjectile@@UAEPAVCEntityEvent@@XZ
       3839  EFE 00099B20 ?MakeCopy@ESpawning@@UAEPAVCEntityEvent@@XZ
       3840  EFF 00005820 ?MakeCopy@EStart@@UAEPAVCEntityEvent@@XZ
       3841  F00 00005C40 ?MakeCopy@EStartAttack@@UAEPAVCEntityEvent@@XZ
       3842  F01 000C3840 ?MakeCopy@EStartCounter@@UAEPAVCEntityEvent@@XZ
       3843  F02 0009EFE0 ?MakeCopy@EStartDancers@@UAEPAVCEntityEvent@@XZ
       3844  F03 001A4940 ?MakeCopy@EStartPulling@@UAEPAVCEntityEvent@@XZ
       3845  F04 00244690 ?MakeCopy@EStartSounds@@UAEPAVCEntityEvent@@XZ
       3846  F05 0019F980 ?MakeCopy@EStealth@@UAEPAVCEntityEvent@@XZ
       3847  F06 001A48E0 ?MakeCopy@EStepBack@@UAEPAVCEntityEvent@@XZ
       3848  F07 00005800 ?MakeCopy@EStop@@UAEPAVCEntityEvent@@XZ
       3849  F08 00005C60 ?MakeCopy@EStopAttack@@UAEPAVCEntityEvent@@XZ
       3850  F09 00005C80 ?MakeCopy@EStopBlindness@@UAEPAVCEntityEvent@@XZ
       3851  F0A 000C38A0 ?MakeCopy@EStopCounter@@UAEPAVCEntityEvent@@XZ
       3852  F0B 00099AC0 ?MakeCopy@EStopDanceMode@@UAEPAVCEntityEvent@@XZ
       3853  F0C 0009F040 ?MakeCopy@EStopDancers@@UAEPAVCEntityEvent@@XZ
       3854  F0D 00005CA0 ?MakeCopy@EStopDeafness@@UAEPAVCEntityEvent@@XZ
       3855  F0E 0022C4A0 ?MakeCopy@EStopFlaming@@UAEPAVCEntityEvent@@XZ
       3856  F0F 00120A10 ?MakeCopy@EStopLightning@@UAEPAVCEntityEvent@@XZ
       3857  F10 001A4A20 ?MakeCopy@EStopPulling@@UAEPAVCEntityEvent@@XZ
       3858  F11 002446F0 ?MakeCopy@EStopSounds@@UAEPAVCEntityEvent@@XZ
       3859  F12 0018ED20 ?MakeCopy@EStormEnvironmentStart@@UAEPAVCEntityEvent@@XZ
       3860  F13 0018ED80 ?MakeCopy@EStormStart@@UAEPAVCEntityEvent@@XZ
       3861  F14 0018EDE0 ?MakeCopy@EStormStop@@UAEPAVCEntityEvent@@XZ
       3862  F15 002210F0 ?MakeCopy@ETeleportActivate@@UAEPAVCEntityEvent@@XZ
       3863  F16 00221150 ?MakeCopy@ETeleportDeactivate@@UAEPAVCEntityEvent@@XZ
       3864  F17 000059E0 ?MakeCopy@ETeleportMovingBrush@@UAEPAVCEntityEvent@@XZ
       3865  F18 00006230 ?MakeCopy@ETextFX@@UAEPAVCEntityEvent@@XZ
       3866  F19 00222EF0 ?MakeCopy@EToasterTrigger@@UAEPAVCEntityEvent@@XZ
       3867  F1A 00224080 ?MakeCopy@ETorpedoDamage@@UAEPAVCEntityEvent@@XZ
       3868  F1B 00224020 ?MakeCopy@ETorpedoExplode@@UAEPAVCEntityEvent@@XZ
       3869  F1C 00005920 ?MakeCopy@ETrigger@@UAEPAVCEntityEvent@@XZ
       3870  F1D 00005980 ?MakeCopy@ETriggerActionMarker@@UAEPAVCEntityEvent@@XZ
       3871  F1E 00188300 ?MakeCopy@ETriggerEffector@@UAEPAVCEntityEvent@@XZ
       3872  F1F 0018D940 ?MakeCopy@ETriggerLightning@@UAEPAVCEntityEvent@@XZ
       3873  F20 001CE2E0 ?MakeCopy@EViewInit@@UAEPAVCEntityEvent@@XZ
       3874  F21 000065C0 ?MakeCopy@EVoiceMessage@@UAEPAVCEntityEvent@@XZ
       3875  F22 00116730 ?MakeCopy@EWaitMode@@UAEPAVCEntityEvent@@XZ
       3876  F23 00073290 ?MakeCopy@EWaitOnRiceField@@UAEPAVCEntityEvent@@XZ
       3877  F24 0005B650 ?MakeCopy@EWatch@@UAEPAVCEntityEvent@@XZ
       3878  F25 0005B560 ?MakeCopy@EWatcherInit@@UAEPAVCEntityEvent@@XZ
       3879  F26 00243470 ?MakeCopy@EWater@@UAEPAVCEntityEvent@@XZ
       3880  F27 001A5460 ?MakeCopy@EWeaponChanged@@UAEPAVCEntityEvent@@XZ
       3881  F28 001E3530 ?MakeCopy@EWeaponEffectInit@@UAEPAVCEntityEvent@@XZ
       3882  F29 0019DEF0 ?MakeCopy@EWeaponItem@@UAEPAVCEntityEvent@@XZ
       3883  F2A 001A5190 ?MakeCopy@EWeaponsInit@@UAEPAVCEntityEvent@@XZ
       3884  F2B 00194C50 ?MakeCopy@EWeatherStart@@UAEPAVCEntityEvent@@XZ
       3885  F2C 00194C70 ?MakeCopy@EWeatherStop@@UAEPAVCEntityEvent@@XZ
       3886  F2D 001A4520 ?MakeCopy@EWhip@@UAEPAVCEntityEvent@@XZ
       3887  F2E 00258220 ?MakeCopy@EbflameOff@@UAEPAVCEntityEvent@@XZ
       3888  F2F 00258160 ?MakeCopy@EbflameOn@@UAEPAVCEntityEvent@@XZ
       3889  F30 002581C0 ?MakeCopy@Ebflame_ing@@UAEPAVCEntityEvent@@XZ
       3890  F31 001A8EC0 ?MariaAnimation@CPlayer@@QAEXJKMMM@Z
       3891  F32 0019C500 ?MarkPickedBy@CSkaItem@@QAEHPAVCEntity@@@Z
       3892  F33 0019C470 ?MarkRecentlyPickedBy@CSkaItem@@QAEHPAVCEntity@@@Z
       3893  F34 000BE620 ?MayMoveToAttack@CEnemyBase@@UAEHXZ
       3894  F35 000C42D0 ?MayMoveToAttack@CEnemyDive@@UAEHXZ
       3895  F36 000C0F10 ?MaybeSwitchToAnotherPlayer@CEnemyBase@@QAEXXZ
       3896  F37 003BC1F0 ?MessageSound_enum@@3VCEntityPropertyEnumType@@A
       3897  F38 003BC1E0 ?MessageSound_values@@3PAVCEntityPropertyEnumValue@@A
       3898  F39 003D2DD0 ?ModelDeathSpawnAmmoItemType_enum@@3VCEntityPropertyEnumType@@A
       3899  F3A 003D2DA8 ?ModelDeathSpawnAmmoItemType_values@@3PAVCEntityPropertyEnumValue@@A
       3900  F3B 003D2DA0 ?ModelDeathSpawnArmorItemType_enum@@3VCEntityPropertyEnumType@@A
       3901  F3C 003D2D80 ?ModelDeathSpawnArmorItemType_values@@3PAVCEntityPropertyEnumValue@@A
       3902  F3D 003D2D78 ?ModelDeathSpawnHealthItemType_enum@@3VCEntityPropertyEnumType@@A
       3903  F3E 003D2D50 ?ModelDeathSpawnHealthItemType_values@@3PAVCEntityPropertyEnumValue@@A
       3904  F3F 003D2D48 ?ModelDeathSpawnItemType_enum@@3VCEntityPropertyEnumType@@A
       3905  F40 003D2D20 ?ModelDeathSpawnItemType_values@@3PAVCEntityPropertyEnumValue@@A
       3906  F41 003D2DE8 ?ModelDeathSpawnSpecialItemType_enum@@3VCEntityPropertyEnumType@@A
       3907  F42 003D2DD8 ?ModelDeathSpawnSpecialItemType_values@@3PAVCEntityPropertyEnumValue@@A
       3908  F43 003D2E08 ?ModelDestructionType_enum@@3VCEntityPropertyEnumType@@A
       3909  F44 003D2DF0 ?ModelDestructionType_values@@3PAVCEntityPropertyEnumValue@@A
       3910  F45 003C4C80 ?MountHwangboType_enum@@3VCEntityPropertyEnumType@@A
       3911  F46 003C4C70 ?MountHwangboType_values@@3PAVCEntityPropertyEnumValue@@A
       3912  F47 000B10D0 ?MoveThroughMarkers@CEnemyBase@@QAEHABVCEntityEvent@@@Z
       3913  F48 000B0820 ?MoveToDestination@CEnemyBase@@QAEHABVCEntityEvent@@@Z
       3914  F49 000BFFB0 ?MoveToRandomPatrolPosition@CEnemyBase@@QAEHABVCEntityEvent@@@Z
       3915  F4A 000AFF50 ?MovementAnimation@CEnemyBase@@UAEXK@Z
       3916  F4B 000AF8E0 ?MovesByTargetedRoute@CEnemyBase@@UBEHAAVCTString@@@Z
       3917  F4C 00058C30 ?MovesByTargetedRoute@CNavigationMarker@@UBEHAAVCTString@@@Z
       3918  F4D 003D27E8 ?MusicType_enum@@3VCEntityPropertyEnumType@@A
       3919  F4E 003D27B0 ?MusicType_values@@3PAVCEntityPropertyEnumValue@@A
       3920  F4F 000C1D20 ?NewEnemySpotted@CEnemyBase@@QAEHABVCEntityEvent@@@Z
       3921  F50 00010C60 ?NewMessage@CCompMessageID@@QAEXABVCTFileName@@@Z
       3922  F51 0023A6A0 ?NorudomBomb@CProjectile@@QAEXXZ
       3923  F52 002354E0 ?NorudomBombExplosion@CProjectile@@QAEXXZ
       3924  F53 000AF9E0 ?OnEnd@CEnemyBase@@UAEXXZ
       3925  F54 001A6B20 ?OnEnd@CPlayer@@UAEXXZ
       3926  F55 0022E820 ?OnEnd@CProjectile@@UAEXXZ
       3927  F56 000AF9C0 ?OnInitialize@CEnemyBase@@UAEXABVCEntityEvent@@@Z
       3928  F57 001D1450 ?OnInitialize@CPlayerWeapons@@UAEXABVCEntityEvent@@@Z
       3929  F58 001E5F40 ?OnInitialize@CPlayerWeapons_L@@UAEXABVCEntityEvent@@@Z
       3930  F59 0022E7F0 ?OnInitialize@CProjectile@@UAEXABVCEntityEvent@@@Z
       3931  F5A 001CDD60 ?OnPreRender@CPlayerAnimator@@QAEXXZ
       3932  F5B 001D22B0 ?OtherWeaponisRock@CPlayerWeapons@@QAEHXZ
       3933  F5C 001E6CD0 ?OtherWeaponisRock@CPlayerWeapons_L@@QAEHXZ
       3934  F5D 00055C20 ?PATH_FindFirstMarker@@YAXPAVCEntity@@ABV?$Vector@M$02@@1AAPAV1@AAV2@@Z
       3935  F5E 00055CC0 ?PATH_FindNextMarker@@YAXPAVCEntity@@ABV?$Vector@M$02@@1AAPAV1@AAV2@@Z
       3936  F5F 00055DD0 ?PATH_FindNextShortestMarker@@YAXPAVCEntity@@ABV?$Vector@M$02@@1AAPAV1@VCEntityPointer@@AAV2@@Z
       3937  F60 003C1D84 ?PFTrialType_enum@@3VCEntityPropertyEnumType@@A
       3938  F61 003C1D74 ?PFTrialType_values@@3PAVCEntityPropertyEnumValue@@A
       3939  F62 001A95B0 ?ParseGender@CPlayer@@QAEXAAVCTString@@@Z
       3940  F63 003BC270 ?ParticleTexture_enum@@3VCEntityPropertyEnumType@@A
       3941  F64 003BC1F8 ?ParticleTexture_values@@3PAVCEntityPropertyEnumValue@@A
       3942  F65 003D2B40 ?ParticlesHolderType_enum@@3VCEntityPropertyEnumType@@A
       3943  F66 003D2AA0 ?ParticlesHolderType_values@@3PAVCEntityPropertyEnumValue@@A
       3944  F67 0004B880 ?Particles_AfterBurner@@YAXPAVCEntity@@MMJ@Z
       3945  F68 00033FD0 ?Particles_AfterBurner_Prepare@@YAXPAVCEntity@@@Z
       3946  F69 00049120 ?Particles_Appearing@@YAXPAVCEntity@@M@Z
       3947  F6A 00041600 ?Particles_Atomic@@YAXPAVCEntity@@MMW4ParticleTexture@@J@Z
       3948  F6B 00051CC0 ?Particles_AutoAiming@@YAXPAVCEntity@@0@Z
       3949  F6C 00036E50 ?Particles_AxeTrail@@YAXPAVCEntity@@M@Z
       3950  F6D 00036410 ?Particles_BeastBigProjectileTrail@@YAXPAVCEntity@@MMMJ@Z
       3951  F6E 00033EE0 ?Particles_BeastBigProjectileTrail_Prepare@@YAXPAVCEntity@@@Z
       3952  F6F 00035BA0 ?Particles_BeastProjectileDebrisTrail@@YAXPAVCEntity@@M@Z
       3953  F70 00033EC0 ?Particles_BeastProjectileDebrisTrail_Prepare@@YAXPAVCEntity@@@Z
       3954  F71 00035D40 ?Particles_BeastProjectileTrail@@YAXPAVCEntity@@MMJ@Z
       3955  F72 00033ED0 ?Particles_BeastProjectileTrail_Prepare@@YAXPAVCEntity@@@Z
       3956  F73 0004A5B0 ?Particles_BloodFountain@@YAXPAVCEntity@@V?$Vector@M$02@@MM1MJK@Z
       3957  F74 00049390 ?Particles_BloodSpray@@YAXW4SprayParticlesType@@V?$Vector@M$02@@1MV?$AABBox@M$02@@1MMK@Z
       3958  F75 0003C450 ?Particles_BloodTrail@@YAXPAVCEntity@@@Z
       3959  F76 0003C700 ?Particles_BloodTrailNew@@YAXPAVCEntity@@K@Z
       3960  F77 00034B70 ?Particles_BombTrail@@YAXPAVCEntity@@@Z
       3961  F78 00033D10 ?Particles_BombTrail_Prepare@@YAXPAVCEntity@@@Z
       3962  F79 0004FA40 ?Particles_BridgeSpray@@YAXPAVCEntity@@V?$AABBox@M$02@@V?$Vector@M$02@@MM2MMKM@Z
       3963  F7A 00048A40 ?Particles_BrushBurning@@YAXPAVCEntity@@QAV?$Vector@M$02@@JV2@MM@Z
       3964  F7B 000401A0 ?Particles_BuffaloRunningDust@@YAXPAVCEntity@@@Z
       3965  F7C 00033F30 ?Particles_BuffaloRunningDust_Prepare@@YAXPAVCEntity@@@Z
       3966  F7D 00037FC0 ?Particles_BulletFlare@@YAXPAVCEntity@@V?$Vector@M$02@@M@Z
       3967  F7E 000459D0 ?Particles_BulletMetalSpray@@YAXJV?$Vector@M$02@@0W4EffectParticlesType@@M0M@Z
       3968  F7F 00044E70 ?Particles_BulletSpray@@YAXJV?$Vector@M$02@@0W4EffectParticlesType@@M0M@Z
       3969  F80 00037B80 ?Particles_BulletTrail@@YAXPAVCEntity@@M@Z
       3970  F81 00033F10 ?Particles_BulletTrail_Prepare@@YAXPAVCEntity@@@Z
       3971  F82 00047FF0 ?Particles_Burning@@YAXPAVCEntity@@MM@Z
       3972  F83 00048380 ?Particles_Burning_Comp@@YAXPAVCModelObject@@MVCPlacement3D@@@Z
       3973  F84 000486E0 ?Particles_Burning_Ska@@YAXPAVCModelInstance@@MVCPlacement3D@@@Z
       3974  F85 00033D70 ?Particles_CannonBall@@YAXPAVCEntity@@M@Z
       3975  F86 00033D60 ?Particles_CannonBall_Prepare@@YAXPAVCEntity@@@Z
       3976  F87 0003B510 ?Particles_ChimneySmoke@@YAXPAVCEntity@@JMM@Z
       3977  F88 0004E550 ?Particles_CollectEnergy@@YAXPAVCEntity@@MMH@Z
       3978  F89 00034390 ?Particles_ColoredStarsTrail@@YAXPAVCEntity@@@Z
       3979  F8A 0003FA60 ?Particles_DamageSmoke@@YAXPAVCEntity@@MV?$AABBox@M$02@@M@Z
       3980  F8B 00037990 ?Particles_DancerDaggerTrail@@YAXPAVCEntity@@M@Z
       3981  F8C 00033F00 ?Particles_DancerDaggerTrail_Prepare@@YAXPAVCEntity@@@Z
       3982  F8D 000479C0 ?Particles_Death@@YAXPAVCEntity@@M@Z
       3983  F8E 0004AA10 ?Particles_DestroyingObelisk@@YAXPAVCEntity@@M@Z
       3984  F8F 0004AE60 ?Particles_DestroyingPylon@@YAXPAVCEntity@@V?$Vector@M$02@@M@Z
       3985  F90 00034070 ?Particles_DisappearDust@@YAXPAVCEntity@@MM@Z
       3986  F91 00040580 ?Particles_DustFall@@YAXPAVCEntity@@MV?$Vector@M$02@@@Z
       3987  F92 00040F90 ?Particles_ElectricitySparks@@YAXPAVCEntity@@MMMJ@Z
       3988  F93 0003E910 ?Particles_Emanate@@YAXPAVCEntity@@MMW4ParticleTexture@@JM@Z
       3989  F94 0003F160 ?Particles_EmanatePlane@@YAXPAVCEntity@@MMMMMMW4ParticleTexture@@JM@Z
       3990  F95 000465D0 ?Particles_EmptyShells@@YAXPAVCEntity@@PAUShellLaunchData@@@Z
       3991  F96 000385A0 ?Particles_ExplosionDebris1@@YAXPAVCEntity@@MV?$Vector@M$02@@K@Z
       3992  F97 00038B60 ?Particles_ExplosionDebris1New@@YAXPAVCEntity@@MV?$Vector@M$02@@MK@Z
       3993  F98 00039120 ?Particles_ExplosionDebris2@@YAXPAVCEntity@@MV?$Vector@M$02@@K@Z
       3994  F99 00039680 ?Particles_ExplosionDebris2New@@YAXPAVCEntity@@MV?$Vector@M$02@@JK@Z
       3995  F9A 00039C40 ?Particles_ExplosionDebris3@@YAXPAVCEntity@@MV?$Vector@M$02@@K@Z
       3996  F9B 0003A5F0 ?Particles_ExplosionDebris3New@@YAXPAVCEntity@@MV?$Vector@M$02@@MK@Z
       3997  F9C 0003AF70 ?Particles_ExplosionSmoke@@YAXPAVCEntity@@MV?$Vector@M$02@@K@Z
       3998  F9D 0003C970 ?Particles_FireBreath@@YAJPAVCEntity@@V?$Vector@M$02@@1MM@Z
       3999  F9E 00035280 ?Particles_Fireball01Trail@@YAXPAVCEntity@@@Z
       4000  F9F 00033D40 ?Particles_Fireball01Trail_Prepare@@YAXPAVCEntity@@@Z
       4001  FA0 0003D710 ?Particles_FlameThrower@@YAXABVCPlacement3D@@0V?$Vector@M$02@@1MMJH@Z
       4002  FA1 0003DA60 ?Particles_FlameThrowerStart@@YAXABVCPlacement3D@@MM@Z
       4003  FA2 00052130 ?Particles_FloatingScore@@YAXPAVCEntity@@MJM@Z
       4004  FA3 0003F5F0 ?Particles_Fountain@@YAXPAVCEntity@@MMW4ParticleTexture@@J@Z
       4005  FA4 00042180 ?Particles_Ghostbuster@@YAXABV?$Vector@M$02@@0JMMM@Z
       4006  FA5 000354E0 ?Particles_GrenadeTrail@@YAXPAVCEntity@@@Z
       4007  FA6 00033D50 ?Particles_GrenadeTrail_Prepare@@YAXPAVCEntity@@@Z
       4008  FA7 00053EA0 ?Particles_Growth@@YAXPAVCEntity@@PAVCTextureData@@AAV?$AABBox@M$02@@0J@Z
       4009  FA8 0004B410 ?Particles_HitGround@@YAXPAVCEntity@@MM@Z
       4010  FA9 00053150 ?Particles_HwangboFlame@@YAXABVCPlacement3D@@0MM@Z
       4011  FAA 00050200 ?Particles_LarvaEnergy@@YAXPAVCEntity@@V?$Vector@M$02@@@Z
       4012  FAB 00034620 ?Particles_LavaErupting@@YAXPAVCEntity@@MMMMMM@Z
       4013  FAC 00044960 ?Particles_LavaFlow@@YAXPAVCEntity@@MMMMMJ@Z
       4014  FAD 0004F2C0 ?Particles_Leaves@@YAXPAVCEntity@@V?$AABBox@M$02@@V?$Vector@M$02@@MM2MMK@Z
       4015  FAE 00043EA0 ?Particles_Lightning@@YAXV?$Vector@M$02@@0M@Z
       4016  FAF 00036B80 ?Particles_MariaTrail@@YAXPAVCEntity@@M@Z
       4017  FB0 00040BE0 ?Particles_MetalParts@@YAXPAVCEntity@@MV?$AABBox@M$02@@M@Z
       4018  FB1 0004F0B0 ?Particles_MeteorTrail@@YAXPAVCEntity@@MMV?$Vector@M$02@@@Z
       4019  FB2 00050D90 ?Particles_ModelGlow2@@YAXPAVCModelObject@@VCPlacement3D@@MW4ParticleTexture@@MMMK@Z
       4020  FB3 00050BC0 ?Particles_ModelGlow@@YAXPAVCEntity@@MW4ParticleTexture@@MMMK@Z
       4021  FB4 00037550 ?Particles_Nitro_RocketTrail@@YAXPAVCEntity@@M@Z
       4022  FB5 000349F0 ?Particles_NorudomBomb@@YAXPAVCEntity@@MMM@Z
       4023  FB6 00034DB0 ?Particles_NorudomBombTrail@@YAXPAVCEntity@@@Z
       4024  FB7 00033D20 ?Particles_NorudomBombTrail_Prepare@@YAXPAVCEntity@@@Z
       4025  FB8 0004D140 ?Particles_ObjectBurning@@YAXPAVCEntity@@MV?$Vector@M$02@@MMM@Z
       4026  FB9 00041BA0 ?Particles_PowerUpIndicator@@YAXPAVCEntity@@W4ParticleTexture@@MMMJJ@Z
       4027  FBA 000529A0 ?Particles_Powerup@@YAXPAVCEntity@@MMK@Z
       4028  FBB 00042CB0 ?Particles_Rain@@YAXPAVCEntity@@MJMPAVCTextureData@@AAV?$AABBox@M$02@@@Z
       4029  FBC 0003CDE0 ?Particles_Regeneration@@YAJPAVCEntity@@MMMH@Z
       4030  FBD 00033F40 ?Particles_RenderLines@@YAXABV?$Vector@M$02@@0M@Z
       4031  FBE 0003E1E0 ?Particles_Rising@@YAXPAVCEntity@@MMMMMMMW4ParticleTexture@@J@Z
       4032  FBF 0004C650 ?Particles_RocketMotorBurning@@YAXPAVCEntity@@MV?$Vector@M$02@@MM@Z
       4033  FC0 00037110 ?Particles_RocketTrail@@YAXPAVCEntity@@M@Z
       4034  FC1 00038160 ?Particles_RocketTrailNew@@YAXPAVCEntity@@MKK@Z
       4035  FC2 00033EF0 ?Particles_RocketTrail_Prepare@@YAXPAVCEntity@@@Z
       4036  FC3 00050F30 ?Particles_RunAfterBurner@@YAXPAVCEntity@@MMJ@Z
       4037  FC4 0003FDC0 ?Particles_RunningDust@@YAXPAVCEntity@@@Z
       4038  FC5 00033F20 ?Particles_RunningDust_Prepare@@YAXPAVCEntity@@@Z
       4039  FC6 00043F60 ?Particles_SandFlow@@YAXPAVCEntity@@MMMMMJ@Z
       4040  FC7 0004E010 ?Particles_Smoke@@YAXPAVCEntity@@V?$Vector@M$02@@JMMMM@Z
       4041  FC8 0004EEB0 ?Particles_SniperResidue@@YAXPAVCEntity@@V?$Vector@M$02@@1@Z
       4042  FC9 00043140 ?Particles_Snow@@YAXPAVCEntity@@MJMPAVCTextureData@@AAV?$AABBox@M$02@@M@Z
       4043  FCA 0003E640 ?Particles_Spiral@@YAXPAVCEntity@@MMW4ParticleTexture@@J@Z
       4044  FCB 00034240 ?Particles_SpiralTrail@@YAXPAVCEntity@@@Z
       4045  FCC 0003DF30 ?Particles_Stardust@@YAXPAVCEntity@@MMW4ParticleTexture@@JM@Z
       4046  FCD 000347D0 ?Particles_SummonerExplode@@YAXPAVCEntity@@V?$Vector@M$02@@MMMM@Z
       4047  FCE 0004DD60 ?Particles_SummonerProjectileExplode@@YAXPAVCEntity@@MMMM@Z
       4048  FCF 00054640 ?Particles_ViewerLocal@@YAXPAVCEntity@@@Z
       4049  FD0 00044460 ?Particles_WaterFlow@@YAXPAVCEntity@@MMMMMJ@Z
       4050  FD1 0003BA00 ?Particles_Waterfall@@YAXPAVCEntity@@JMMMMMMM@Z
       4051  FD2 0003ECD0 ?Particles_WaterfallFoam@@YAXPAVCEntity@@MMMMMMMJ@Z
       4052  FD3 000344C0 ?Particles_WhiteLineTrail@@YAXPAVCEntity@@@Z
       4053  FD4 00235CB0 ?PedroGrenade@CProjectile@@QAEXXZ
       4054  FD5 00235DF0 ?PedroGrenadeExplosion@CProjectile@@QAEXXZ
       4055  FD6 000B2870 ?PerformAttack@CEnemyBase@@QAEHABVCEntityEvent@@@Z
       4056  FD7 000C4F60 ?PerformAttack@CEnemyFly@@QAEHABVCEntityEvent@@@Z
       4057  FD8 0023A1F0 ?PiapongBladeProjectile@CProjectile@@QAEXXZ
       4058  FD9 0023A330 ?PiapongBladeTrajectoryProjectile@CProjectile@@QAEXXZ
       4059  FDA 00236060 ?PiapongCannon@CProjectile@@QAEXXZ
       4060  FDB 002362A0 ?PiapongCannonExplosion@CProjectile@@QAEXXZ
       4061  FDC 0023AC10 ?PiapongLaserBlueRay@CProjectile@@QAEXJ@Z
       4062  FDD 0023B020 ?PiapongLaserBlueWave@CProjectile@@QAEXXZ
       4063  FDE 003C8CC8 ?PiapongState_enum@@3VCEntityPropertyEnumType@@A
       4064  FDF 003C8CB8 ?PiapongState_values@@3PAVCEntityPropertyEnumValue@@A
       4065  FE0 003C9968 ?PigSkinType_enum@@3VCEntityPropertyEnumType@@A
       4066  FE1 003C9958 ?PigSkinType_values@@3PAVCEntityPropertyEnumValue@@A
       4067  FE2 003C9938 ?PigType_enum@@3VCEntityPropertyEnumType@@A
       4068  FE3 003C9928 ?PigType_values@@3PAVCEntityPropertyEnumValue@@A
       4069  FE4 001D22D0 ?PlayDefaultAnim@CPlayerWeapons@@QAEXM@Z
       4070  FE5 001E6CF0 ?PlayDefaultAnim@CPlayerWeapons_L@@QAEXM@Z
       4071  FE6 001AAC00 ?PlayLightAnim@CPlayer@@QAEXJK@Z
       4072  FE7 001D1E70 ?PlayLightAnim@CPlayerWeapons@@QAEXJK@Z
       4073  FE8 001E6770 ?PlayLightAnim@CPlayerWeapons_L@@QAEXJK@Z
       4074  FE9 001AC190 ?PlayPowerUpSound@CPlayer@@QAEXXZ
       4075  FEA 001A6C10 ?PlaySoundA@CPlayer@@QAEXAAVCSoundObject@@ABVCTFileName@@J@Z
       4076  FEB 001A6BE0 ?PlaySoundA@CPlayer@@QAEXAAVCSoundObject@@JJ@Z
       4077  FEC 001D1310 ?PlaySoundA@CPlayerWeapons@@QAEXAAVCSoundObject@@ABVCTFileName@@J@Z
       4078  FED 001D12C0 ?PlaySoundA@CPlayerWeapons@@QAEXAAVCSoundObject@@JJ@Z
       4079  FEE 001E5E50 ?PlaySoundA@CPlayerWeapons_L@@QAEXAAVCSoundObject@@ABVCTFileName@@J@Z
       4080  FEF 001E5E00 ?PlaySoundA@CPlayerWeapons_L@@QAEXAAVCSoundObject@@JJ@Z
       4081  FF0 001AFD90 ?PlaySoundForUpgrade@CPlayer@@QAEXH@Z
       4082  FF1 001D2570 ?PlayWeponChangeforUpgrade@CPlayerWeapons@@QAEXW4WeaponType@@@Z
       4083  FF2 003CF848 ?PlayerAutoAction_enum@@3VCEntityPropertyEnumType@@A
       4084  FF3 003CF6F8 ?PlayerAutoAction_values@@3PAVCEntityPropertyEnumValue@@A
       4085  FF4 000AF810 ?PlayerDestinationPos@CEnemyBase@@UAE?AV?$Vector@M$02@@XZ
       4086  FF5 000C6E20 ?PlayerDestinationPos@CEnemyFly@@UAE?AV?$Vector@M$02@@XZ
       4087  FF6 00236700 ?PlayerFlame@CProjectile@@QAEXXZ
       4088  FF7 002325F0 ?PlayerGomu@CProjectile@@QAEXXZ
       4089  FF8 00232DF0 ?PlayerGrenade@CProjectile@@QAEXXZ
       4090  FF9 00233070 ?PlayerGrenadeExplosion@CProjectile@@QAEXXZ
       4091  FFA 00236A30 ?PlayerLaserRay@CProjectile@@QAEXXZ
       4092  FFB 00236F80 ?PlayerLaserWave@CProjectile@@QAEXXZ
       4093  FFC 00233880 ?PlayerNitro@CProjectile@@QAEXXZ
       4094  FFD 00233B00 ?PlayerNitroExplosion@CProjectile@@QAEXXZ
       4095  FFE 00233F60 ?PlayerNitroGuide@CProjectile@@QAEXXZ
       4096  FFF 00234160 ?PlayerNitroGuideExplosion@CProjectile@@QAEXXZ
       4097 1000 00236CB0 ?PlayerProjectileGuide@CProjectile@@QAEXXZ
       4098 1001 00233490 ?PlayerPush@CProjectile@@QAEXXZ
       4099 1002 002336E0 ?PlayerPushExplosion@CProjectile@@QAEXXZ
       4100 1003 00232720 ?PlayerRocket@CProjectile@@QAEXXZ
       4101 1004 00232990 ?PlayerRocketExplosion@CProjectile@@QAEXXZ
       4102 1005 003CEB08 ?PlayerState_enum@@3VCEntityPropertyEnumType@@A
       4103 1006 003CEAE0 ?PlayerState_values@@3PAVCEntityPropertyEnumValue@@A
       4104 1007 003CEB48 ?PlayerTeleportCause_enum@@3VCEntityPropertyEnumType@@A
       4105 1008 003CEB30 ?PlayerTeleportCause_values@@3PAVCEntityPropertyEnumValue@@A
       4106 1009 003CEAD8 ?PlayerViewType_enum@@3VCEntityPropertyEnumType@@A
       4107 100A 003CEAB8 ?PlayerViewType_values@@3PAVCEntityPropertyEnumValue@@A
       4108 100B 003CEB28 ?PlayerWeaponType_enum@@3VCEntityPropertyEnumType@@A
       4109 100C 003CEB10 ?PlayerWeaponType_values@@3PAVCEntityPropertyEnumValue@@A
       4110 100D 001A6B10 ?PointsForExtraLife@CPlayer@@QAEJXZ
       4111 100E 002348B0 ?PokExplosion@CProjectile@@QAEXXZ
       4112 100F 0023BA40 ?PokFlying@CProjectile@@QAEXXZ
       4113 1010 000AFC60 ?PostEnemyMoving@CEnemyBase@@UAEXXZ
       4114 1011 000C4800 ?PostMoving@CEnemyDive@@UAEXXZ
       4115 1012 001B3910 ?PostMoving@CPlayer@@UAEXXZ
       4116 1013 001CF5E0 ?PostMoving@CPlayerView@@UAEXXZ
       4117 1014 002301E0 ?PostMoving@CProjectile@@UAEXXZ
       4118 1015 000CAB00 ?PostRunAwayFromEnemy@CEnemyRunInto@@QAEHABVCEntityEvent@@@Z
       4119 1016 003CE058 ?PowerUpItemType_enum@@3VCEntityPropertyEnumType@@A
       4120 1017 003CE028 ?PowerUpItemType_values@@3PAVCEntityPropertyEnumValue@@A
       4121 1018 000B4F50 ?PreMainLoop@CEnemyBase@@QAEHABVCEntityEvent@@@Z
       4122 1019 001ABB50 ?PreMoving@CPlayer@@UAEXXZ
       4123 101A 001CE450 ?PreMoving@CPlayerView@@UAEXXZ
       4124 101B 00230120 ?PreMoving@CProjectile@@UAEXXZ
       4125 101C 000AF6E0 ?Precache@CEnemyBase@@UAEXXZ
       4126 101D 000C4CF0 ?Precache@CEnemyFly@@UAEXXZ
       4127 101E 001CABA0 ?Precache@CPlayerAnimator@@UAEXXZ
       4128 101F 001D1D50 ?Precache@CPlayerWeapons@@UAEXXZ
       4129 1020 001E6650 ?Precache@CPlayerWeapons_L@@UAEXXZ
       4130 1021 0019C1C0 ?Precache@CSkaItem@@UAEXXZ
       4131 1022 001DCBB0 ?PrepareBullet@CPlayerWeapons@@QAEXMMM@Z
       4132 1023 001EEB20 ?PrepareBullet@CPlayerWeapons_L@@QAEXMMM@Z
       4133 1024 000BDAA0 ?PrepareFreeFlyingProjectile@CEnemyBase@@QAEXAAVCPlacement3D@@V?$Vector@M$02@@AAV3@2@Z
       4134 1025 0022A620 ?PreparePropelledProjectile@CBullet@@QAEXAAVCPlacement3D@@V?$Vector@M$02@@AAV3@2@Z
       4135 1026 000BD4F0 ?PreparePropelledProjectile@CEnemyBase@@QAEXAAVCPlacement3D@@V?$Vector@M$02@@AAV3@2@Z
       4136 1027 001DEAF0 ?PreparePropelledProjectile@CPlayerWeapons@@QAEXAAVCPlacement3D@@V?$Vector@M$02@@AAV3@2@Z
       4137 1028 001F00A0 ?PreparePropelledProjectile@CPlayerWeapons_L@@QAEXAAVCPlacement3D@@V?$Vector@M$02@@AAV3@2@Z
       4138 1029 001A20A0 ?PrepareRocket@CMaria@@QAEXAAVCPlacement3D@@V?$Vector@M$02@@AAV3@2@Z
       4139 102A 003C9B18 ?PriestAttackType_enum@@3VCEntityPropertyEnumType@@A
       4140 102B 003C9B00 ?PriestAttackType_values@@3PAVCEntityPropertyEnumValue@@A
       4141 102C 00237B20 ?PriestRocket@CProjectile@@QAEXXZ
       4142 102D 00237EE0 ?PriestRocketExplosion@CProjectile@@QAEXXZ
       4143 102E 003CA608 ?PriestSpawnerType_enum@@3VCEntityPropertyEnumType@@A
       4144 102F 003CA5C8 ?PriestSpawnerType_values@@3PAVCEntityPropertyEnumValue@@A
       4145 1030 0001A6F0 ?PrintCenterMessage@@YAXPAVCEntity@@0ABVCTString@@MW4MessageSound@@@Z
       4146 1031 00011920 ?PrintConsole@@YAPBDXZ
       4147 1032 00011930 ?PrintStack@@YAPBDPAVCEntity@@@Z
       4148 1033 00260370 ?Process@CComboManger@@QAEXXZ
       4149 1034 001D1DA0 ?ProcessAutoAim@CPlayerWeapons@@QAEHPAVCEntity@@@Z
       4150 1035 001E66A0 ?ProcessAutoAim@CPlayerWeapons_L@@QAEHPAVCEntity@@@Z
       4151 1036 00240A90 ?ProjectileEnemyFlameSlide@CProjectile@@QAEHABVCEntityEvent@@@Z
       4152 1037 0023E430 ?ProjectileFly@CProjectile@@QAEHABVCEntityEvent@@@Z
       4153 1038 002417D0 ?ProjectileFlyRebounding@CProjectile@@QAEHABVCEntityEvent@@@Z
       4154 1039 0023EDC0 ?ProjectileGuidedBoomerang@CProjectile@@QAEHABVCEntityEvent@@@Z
       4155 103A 0023F1D0 ?ProjectileGuidedFastFly@CProjectile@@QAEHABVCEntityEvent@@@Z
       4156 103B 0023E9A0 ?ProjectileGuidedFly@CProjectile@@QAEHABVCEntityEvent@@@Z
       4157 103C 0023FA60 ?ProjectileGuidedFlyForFixed@CProjectile@@QAEHABVCEntityEvent@@@Z
       4158 103D 0023FE90 ?ProjectileGuidedFlyForNitro@CProjectile@@QAEHABVCEntityEvent@@@Z
       4159 103E 0023F6B0 ?ProjectileGuidedSlide@CProjectile@@QAEHABVCEntityEvent@@@Z
       4160 103F 0023DCE0 ?ProjectileHit@CProjectile@@QAEXXZ
       4161 1040 00241C40 ?ProjectileMajangRocket@CProjectile@@QAEHABVCEntityEvent@@@Z
       4162 1041 003D3DB8 ?ProjectileMovingType_enum@@3VCEntityPropertyEnumType@@A
       4163 1042 003D3D48 ?ProjectileMovingType_values@@3PAVCEntityPropertyEnumValue@@A
       4164 1043 00241040 ?ProjectileNorudomBombSlide@CProjectile@@QAEHABVCEntityEvent@@@Z
       4165 1044 0023CEF0 ?ProjectilePushGun@CProjectile@@QAEHABVCEntityEvent@@@Z
       4166 1045 002402C0 ?ProjectileSlide@CProjectile@@QAEHABVCEntityEvent@@@Z
       4167 1046 0023DE70 ?ProjectileTouch@CProjectile@@QAEXVCEntityPointer@@@Z
       4168 1047 0023BCE0 ?ProjectileTouchPushGun@CProjectile@@QAEXVCEntityPointer@@@Z
       4169 1048 003D3D40 ?ProjectileType_enum@@3VCEntityPropertyEnumType@@A
       4170 1049 003D3BD0 ?ProjectileType_values@@3PAVCEntityPropertyEnumValue@@A
       4171 104A 003CA8A8 ?ProtectorDirectionType_enum@@3VCEntityPropertyEnumType@@A
       4172 104B 003CA860 ?ProtectorDirectionType_values@@3PAVCEntityPropertyEnumValue@@A
       4173 104C 003CAB60 ?ProtectorMGDirectionType_enum@@3VCEntityPropertyEnumType@@A
       4174 104D 003CAB18 ?ProtectorMGDirectionType_values@@3PAVCEntityPropertyEnumValue@@A
       4175 104E 003CAB78 ?ProtectorMGRotateType_enum@@3VCEntityPropertyEnumType@@A
       4176 104F 003CAB68 ?ProtectorMGRotateType_values@@3PAVCEntityPropertyEnumValue@@A
       4177 1050 00238B30 ?ProtectorRocket@CProjectile@@QAEXXZ
       4178 1051 00238D90 ?ProtectorRocketExplosion@CProjectile@@QAEXXZ
       4179 1052 003CA8C0 ?ProtectorRotateType_enum@@3VCEntityPropertyEnumType@@A
       4180 1053 003CA8B0 ?ProtectorRotateType_values@@3PAVCEntityPropertyEnumValue@@A
       4181 1054 003CAE60 ?ProtectorSGDirectionType_enum@@3VCEntityPropertyEnumType@@A
       4182 1055 003CAE18 ?ProtectorSGDirectionType_values@@3PAVCEntityPropertyEnumValue@@A
       4183 1056 003CAE78 ?ProtectorSGRotateType_enum@@3VCEntityPropertyEnumType@@A
       4184 1057 003CAE68 ?ProtectorSGRotateType_values@@3PAVCEntityPropertyEnumValue@@A
       4185 1058 00012B80 ?PullEntity@@YAXPAVCEntity@@V?$Vector@M$02@@@Z
       4186 1059 001AB420 ?PushGunFXBegin@CPlayer@@QAEXPAVCDrawPort@@@Z
       4187 105A 001AB450 ?PushGunFXEnd@CPlayer@@QAEXPAVCDrawPort@@@Z
       4188 105B 001D2D40 ?PutDown@CPlayerWeapons@@QAEHABVCEntityEvent@@@Z
       4189 105C 001E73B0 ?PutDown@CPlayerWeapons_L@@QAEHABVCEntityEvent@@@Z
       4190 105D 001A6FE0 ?Read_net@CPlayer@@UAEXPAVCNetworkMessage@@M@Z
       4191 105E 001A7B00 ?Read_net_brief@CPlayer@@UAEXPAVCNetworkMessage@@M@Z
       4192 105F 00010BF0 ?Read_t@CCompMessageID@@QAEXAAVCTStream@@@Z
       4193 1060 000228C0 ?Read_t@CEmiter@@QAEXAAVCTStream@@H@Z
       4194 1061 000222E0 ?Read_t@CEmittedParticle@@QAEXAAVCTStream@@H@Z
       4195 1062 000C2790 ?Read_t@CEnemyBase@@UAEXPAVCTStream@@H@Z
       4196 1063 00058BD0 ?Read_t@CNavigationMarker@@UAEXPAVCTStream@@H@Z
       4197 1064 001C5460 ?Read_t@CPlayer@@UAEXPAVCTStream@@H@Z
       4198 1065 001CAB90 ?Read_t@CPlayerAnimator@@UAEXPAVCTStream@@H@Z
       4199 1066 001E2150 ?Read_t@CPlayerWeapons@@UAEXPAVCTStream@@H@Z
       4200 1067 001E6560 ?Read_t@CPlayerWeapons_L@@UAEXPAVCTStream@@H@Z
       4201 1068 00230330 ?Read_t@CProjectile@@UAEXPAVCTStream@@H@Z
       4202 1069 0019C400 ?Read_t@CSkaItem@@UAEXPAVCTStream@@H@Z
       4203 106A 001C50A0 ?Rebirth@CPlayer@@QAEHABVCEntityEvent@@@Z
       4204 106B 001D9C20 ?ReceiveAmmo@CPlayerWeapons@@QAEJABVCEntityEvent@@@Z
       4205 106C 001BF2A0 ?ReceiveComputerMessage@CPlayer@@QAEXABVCTFileName@@K@Z
       4206 106D 000BA840 ?ReceiveDamage@CEnemyBase@@UAEXPAVCEntity@@W4DamageType@@MABV?$Vector@M$02@@2@Z
       4207 106E 000C70E0 ?ReceiveDamage@CEnemyFly@@UAEXPAVCEntity@@W4DamageType@@MABV?$Vector@M$02@@2@Z
       4208 106F 001BCBF0 ?ReceiveDamage@CPlayer@@UAEXPAVCEntity@@W4DamageType@@MABV?$Vector@M$02@@2@Z
       4209 1070 0022EFB0 ?ReceiveDamage@CProjectile@@UAEXPAVCEntity@@W4DamageType@@MABV?$Vector@M$02@@2@Z
       4210 1071 001BF3B0 ?ReceiveItem@CPlayer@@UAEHABVCEntityEvent@@@Z
       4211 1072 001B0BE0 ?ReceiveLife@CPlayer@@QAEXJH@Z
       4212 1073 001DA2B0 ?ReceivePackAmmo@CPlayerWeapons@@QAEHABVCEntityEvent@@@Z
       4213 1074 001D9A50 ?ReceiveWeapon@CPlayerWeapons@@QAEHABVCEntityEvent@@@Z
       4214 1075 001B4FC0 ?RecordEndOfLevelData@CPlayer@@QAEXXZ
       4215 1076 001D87B0 ?Reload@CPlayerWeapons@@QAEHABVCEntityEvent@@@Z
       4216 1077 001EB970 ?Reload@CPlayerWeapons_L@@QAEHABVCEntityEvent@@@Z
       4217 1078 001D81D0 ?ReloadChtGiveall@CPlayerWeapons@@QAEHABVCEntityEvent@@@Z
       4218 1079 001EB390 ?ReloadChtGiveall@CPlayerWeapons_L@@QAEHABVCEntityEvent@@@Z
       4219 107A 001D7B90 ?ReloadGetAmmo@CPlayerWeapons@@QAEHABVCEntityEvent@@@Z
       4220 107B 001EAD50 ?ReloadGetAmmo@CPlayerWeapons_L@@QAEHABVCEntityEvent@@@Z
       4221 107C 001D55C0 ?ReloadMachinegun@CPlayerWeapons@@QAEHABVCEntityEvent@@@Z
       4222 107D 001E9CE0 ?ReloadMachinegun@CPlayerWeapons_L@@QAEHABVCEntityEvent@@@Z
       4223 107E 001D7770 ?ReloadNitro@CPlayerWeapons@@QAEHABVCEntityEvent@@@Z
       4224 107F 001D5FD0 ?ReloadRocket@CPlayerWeapons@@QAEHABVCEntityEvent@@@Z
       4225 1080 001EA6F0 ?ReloadRocket@CPlayerWeapons_L@@QAEHABVCEntityEvent@@@Z
       4226 1081 001D4670 ?ReloadShotgun@CPlayerWeapons@@QAEHABVCEntityEvent@@@Z
       4227 1082 001E8D90 ?ReloadShotgun@CPlayerWeapons_L@@QAEHABVCEntityEvent@@@Z
       4228 1083 001AC270 ?RemapLevelNames@CPlayer@@QAEXAAJ@Z
       4229 1084 001CB570 ?ReminderAction@CPlayerAnimator@@QAEHABVCEntityEvent@@@Z
       4230 1085 000110E0 ?RemoveAttachmentFromModel@@YAXAAVCModelObject@@J@Z
       4231 1086 001BF390 ?RemoveComputerMessages@CPlayer@@QAEXXZ
       4232 1087 000C1370 ?RemoveFromFuss@CEnemyBase@@QAEXXZ
       4233 1088 001CD760 ?RemoveWeapon@CPlayerAnimator@@QAEXXZ
       4234 1089 001C3E20 ?RenderCameraView@CPlayer@@QAEXPAVCDrawPort@@H@Z
       4235 108A 001B4960 ?RenderChainsawParticles@CPlayer@@QAEXH@Z
       4236 108B 001AB120 ?RenderCredits@CPlayer@@QAEXPAVCDrawPort@@@Z
       4237 108C 001DB6D0 ?RenderCrosshair@CPlayerWeapons@@QAEXAAVCProjection3D@@PAVCDrawPort@@AAVCPlacement3D@@@Z
       4238 108D 001EDBC0 ?RenderCrosshair@CPlayerWeapons_L@@QAEXAAVCProjection3D@@PAVCDrawPort@@AAVCPlacement3D@@@Z
       4239 108E 001AB1E0 ?RenderDummyView@CPlayer@@QAEXPAVCDrawPort@@@Z
       4240 108F 001AB180 ?RenderEntityVoiceText@CPlayer@@QAEXPAVCDrawPort@@@Z
       4241 1090 001C4170 ?RenderGameView@CPlayer@@UAEXPAVCDrawPort@@PAX@Z
       4242 1091 001B4B40 ?RenderHUD@CPlayer@@QAEXAAVCPerspectiveProjection3D@@PAVCDrawPort@@V?$Vector@M$02@@KKHJ@Z
       4243 1092 001AB1B0 ?RenderHudPicFX@CPlayer@@QAEXPAVCDrawPort@@@Z
       4244 1093 000222F0 ?RenderParticles@CEmiter@@QAEXXZ
       4245 1094 000B04C0 ?RenderParticles@CEnemyBase@@UAEXXZ
       4246 1095 001C5C10 ?RenderParticles@CPlayer@@UAEXXZ
       4247 1096 001CE4C0 ?RenderParticles@CPlayerView@@UAEXXZ
       4248 1097 00231D90 ?RenderParticles@CProjectile@@UAEXXZ
       4249 1098 001C3080 ?RenderPlayerView@CPlayer@@QAEXPAVCDrawPort@@H@Z
       4250 1099 001AB0F0 ?RenderScroll@CPlayer@@QAEXPAVCDrawPort@@@Z
       4251 109A 001AB150 ?RenderTextFX@CPlayer@@QAEXPAVCDrawPort@@@Z
       4252 109B 001DF240 ?RenderWeaponModel@CPlayerWeapons@@QAEXAAVCPerspectiveProjection3D@@PAVCDrawPort@@V?$Vector@M$02@@KKHHM@Z
       4253 109C 001F0710 ?RenderWeaponModel@CPlayerWeapons_L@@QAEXAAVCPerspectiveProjection3D@@PAVCDrawPort@@V?$Vector@M$02@@KKHHM@Z
       4254 109D 001AB340 ?RenderWhip@CPlayer@@QAEXVCPlacement3D@@AAVCPerspectiveProjection3D@@PAVCDrawPort@@@Z
       4255 109E 001D1FF0 ?ResetWeaponMovingOffset@CPlayerWeapons@@QAEXXZ
       4256 109F 001E6CC0 ?ResetWeaponMovingOffset@CPlayerWeapons_L@@QAEXXZ
       4257 10A0 000B0260 ?RestingAnim@CEnemyBase@@UAEXXZ
       4258 10A1 000B1060 ?ReturnToStartPosition@CEnemyBase@@QAEHABVCEntityEvent@@@Z
       4259 10A2 000C4FD0 ?ReturnToStartPosition@CEnemyFly@@QAEHABVCEntityEvent@@@Z
       4260 10A3 003C9950 ?RiderType_enum@@3VCEntityPropertyEnumType@@A
       4261 10A4 003C9940 ?RiderType_values@@3PAVCEntityPropertyEnumValue@@A
       4262 10A5 001D3240 ?RigidityWeapon@CPlayerWeapons@@QAEHABVCEntityEvent@@@Z
       4263 10A6 001E7A30 ?RigidityWeapon@CPlayerWeapons_L@@QAEHABVCEntityEvent@@@Z
       4264 10A7 001CB1A0 ?Rise@CPlayerAnimator@@QAEXXZ
       4265 10A8 003CB208 ?RobertType_enum@@3VCEntityPropertyEnumType@@A
       4266 10A9 003CB1F8 ?RobertType_values@@3PAVCEntityPropertyEnumValue@@A
       4267 10AA 0023B6E0 ?RobertVomitFire@CProjectile@@QAEXXZ
       4268 10AB 000CA220 ?RotateToEnemy@CEnemyRunInto@@QAEHABVCEntityEvent@@@Z
       4269 10AC 000B0240 ?RotatingAnim@CEnemyBase@@UAEXXZ
       4270 10AD 001AC1D0 ?RoundViewAngle@CPlayer@@QAEXAAMM@Z
       4271 10AE 000CA870 ?RunAwayFromEnemy@CEnemyRunInto@@QAEHABVCEntityEvent@@@Z
       4272 10AF 000CA5E0 ?RunIntoEnemy@CEnemyRunInto@@QAEHABVCEntityEvent@@@Z
       4273 10B0 000B0230 ?RunningAnim@CEnemyBase@@UAEXXZ
       4274 10B1 003CAE90 ?SGType_enum@@3VCEntityPropertyEnumType@@A
       4275 10B2 003CAE80 ?SGType_values@@3PAVCEntityPropertyEnumValue@@A
       4276 10B3 001B26D0 ?SayVoiceMessage@CPlayer@@QAEXABVCTFileName@@@Z
       4277 10B4 000BD480 ?SeeEntity@CEnemyBase@@QAEHPAVCEntity@@M@Z
       4278 10B5 000BD4B0 ?SeeEntityInPlane@CEnemyBase@@QAEHPAVCEntity@@M@Z
       4279 10B6 000B64C0 ?SeeNotify@CEnemyBase@@QAEXXZ
       4280 10B7 001D27A0 ?SelectWeaponChange@CPlayerWeapons@@QAEXJ@Z
       4281 10B8 001E6EC0 ?SelectWeaponChange@CPlayerWeapons_L@@QAEXJ@Z
       4282 10B9 000AFB00 ?SendComboEvent@CEnemyBase@@QAEXPAVCEntity@@@Z
       4283 10BA 00012820 ?SendInRange@@YAXPAVCEntity@@W4EventEType@@ABV?$AABBox@M$02@@@Z
       4284 10BB 000122B0 ?SendToTarget@@YAXPAVCEntity@@W4EventEType@@0@Z
       4285 10BC 0005B860 ?SendWatchEvent@CWatcher@@QAEXPAVCEntity@@@Z
       4286 10BD 001A6CE0 ?SetActionApplied@CPlayer@@UAEXXZ
       4287 10BE 000AF400 ?SetBloodColor@CEnemyBase@@QAEXK@Z
       4288 10BF 001CAE10 ?SetBodyAnimation@CPlayerAnimator@@QAEXJKMM@Z
       4289 10C0 00010D60 ?SetBoolFromBoolEType@@YAXAAHW4BoolEType@@@Z
       4290 10C1 001CE8B0 ?SetCameraPosition_MP@CPlayerView@@QAEXXZ
       4291 10C2 00024510 ?SetComboCount@CComboManger@@QAEXI@Z
       4292 10C3 00011010 ?SetComponents@@YAXPAVCEntity@@AAVCModelObject@@KKKKK@Z
       4293 10C4 001ABC20 ?SetConnected@CPlayer@@QAEXXZ
       4294 10C5 001DC210 ?SetCurrentWeaponModel@CPlayerWeapons@@QAEXXZ
       4295 10C6 001E6790 ?SetCurrentWeaponModel@CPlayerWeapons_L@@QAEXXZ
       4296 10C7 002295A0 ?SetDamage@CBullet@@QAEXM@Z
       4297 10C8 001AB090 ?SetDefaultMouthPitch@CPlayer@@QAEXXZ
       4298 10C9 00289940 ?SetDefaultProperties@CAPTest@@UAEXXZ
       4299 10CA 00195540 ?SetDefaultProperties@CAmmoPack@@UAEXXZ
       4300 10CB 001F22C0 ?SetDefaultProperties@CAnimationChanger@@UAEXXZ
       4301 10CC 001F2E70 ?SetDefaultProperties@CAnimationHub@@UAEXXZ
       4302 10CD 001F3610 ?SetDefaultProperties@CAreaMarker@@UAEXXZ
       4303 10CE 001F3BA0 ?SetDefaultProperties@CBackgroundViewer@@UAEXXZ
       4304 10CF 0017ECF0 ?SetDefaultProperties@CBasicEffect@@UAEXXZ
       4305 10D0 002573B0 ?SetDefaultProperties@CBasketBoard@@UAEXXZ
       4306 10D1 00061390 ?SetDefaultProperties@CBigBall@@UAEXXZ
       4307 10D2 00063360 ?SetDefaultProperties@CBigBallMarker@@UAEXXZ
       4308 10D3 000637F0 ?SetDefaultProperties@CBike@@UAEXXZ
       4309 10D4 0026CD00 ?SetDefaultProperties@CBikini2@@UAEXXZ
       4310 10D5 0026B460 ?SetDefaultProperties@CBikini@@UAEXXZ
       4311 10D6 00181E90 ?SetDefaultProperties@CBlendController@@UAEXXZ
       4312 10D7 00182E80 ?SetDefaultProperties@CBloodSpray@@UAEXXZ
       4313 10D8 001961A0 ?SetDefaultProperties@CBoosterPack@@UAEXXZ
       4314 10D9 0025DE70 ?SetDefaultProperties@CBossCore@@UAEXXZ
       4315 10DA 002579B0 ?SetDefaultProperties@CBossCoreLight@@UAEXXZ
       4316 10DB 00258B60 ?SetDefaultProperties@CBossFlame@@UAEXXZ
       4317 10DC 00259A90 ?SetDefaultProperties@CBossGravity@@UAEXXZ
       4318 10DD 00259FD0 ?SetDefaultProperties@CBossGrind@@UAEXXZ
       4319 10DE 0026F1B0 ?SetDefaultProperties@CBossHeli@@UAEXXZ
       4320 10DF 0025FC50 ?SetDefaultProperties@CBossProjectionTV@@UAEXXZ
       4321 10E0 002443B0 ?SetDefaultProperties@CBouncer@@UAEXXZ
       4322 10E1 0006B1C0 ?SetDefaultProperties@CBruce@@UAEXXZ
       4323 10E2 000719D0 ?SetDefaultProperties@CBuffalo@@UAEXXZ
       4324 10E3 00229850 ?SetDefaultProperties@CBullet@@UAEXXZ
       4325 10E4 001F4BC0 ?SetDefaultProperties@CCamera@@UAEXXZ
       4326 10E5 001F7EE0 ?SetDefaultProperties@CCameraMarker@@UAEXXZ
       4327 10E6 0007BED0 ?SetDefaultProperties@CChiang2@@UAEXXZ
       4328 10E7 000757D0 ?SetDefaultProperties@CChiang@@UAEXXZ
       4329 10E8 00082020 ?SetDefaultProperties@CChiangComp@@UAEXXZ
       4330 10E9 0007F210 ?SetDefaultProperties@CChiangExtra@@UAEXXZ
       4331 10EA 00084420 ?SetDefaultProperties@CChicken@@UAEXXZ
       4332 10EB 000880C0 ?SetDefaultProperties@CChickenSticky@@UAEXXZ
       4333 10EC 0019EB90 ?SetDefaultProperties@CChopskiActor@@UAEXXZ
       4334 10ED 0008FE00 ?SetDefaultProperties@CConanMechanic@@UAEXXZ
       4335 10EE 001F87F0 ?SetDefaultProperties@CCopier@@UAEXXZ
       4336 10EF 001F9580 ?SetDefaultProperties@CCounter@@UAEXXZ
       4337 10F0 001FA240 ?SetDefaultProperties@CCreditsHolder@@UAEXXZ
       4338 10F1 001FBBF0 ?SetDefaultProperties@CDamager@@UAEXXZ
       4339 10F2 00098200 ?SetDefaultProperties@CDancerAcrobat@@UAEXXZ
       4340 10F3 0009CA50 ?SetDefaultProperties@CDancerCanCan@@UAEXXZ
       4341 10F4 0009F100 ?SetDefaultProperties@CDancerManager@@UAEXXZ
       4342 10F5 000A2560 ?SetDefaultProperties@CDancerNormal@@UAEXXZ
       4343 10F6 000A3350 ?SetDefaultProperties@CDancerTrapeze@@UAEXXZ
       4344 10F7 00183D90 ?SetDefaultProperties@CDebris@@UAEXXZ
       4345 10F8 001859E0 ?SetDefaultProperties@CDebrisSka@@UAEXXZ
       4346 10F9 000AAC20 ?SetDefaultProperties@CDevilBigBall@@UAEXXZ
       4347 10FA 001FC7D0 ?SetDefaultProperties@CDoorController@@UAEXXZ
       4348 10FB 000AD250 ?SetDefaultProperties@CDummy@@UAEXXZ
       4349 10FC 00187020 ?SetDefaultProperties@CEffectMarker@@UAEXXZ
       4350 10FD 00188E10 ?SetDefaultProperties@CEffector@@UAEXXZ
       4351 10FE 000AD7B0 ?SetDefaultProperties@CEnemyActionMarker@@UAEXXZ
       4352 10FF 000B7EA0 ?SetDefaultProperties@CEnemyBase@@UAEXXZ
       4353 1100 000C3CE0 ?SetDefaultProperties@CEnemyCounter@@UAEXXZ
       4354 1101 000C41C0 ?SetDefaultProperties@CEnemyDive@@UAEXXZ
       4355 1102 000C4C00 ?SetDefaultProperties@CEnemyFly@@UAEXXZ
       4356 1103 000C8E50 ?SetDefaultProperties@CEnemyHorse@@UAEXXZ
       4357 1104 000C9DA0 ?SetDefaultProperties@CEnemyMarker@@UAEXXZ
       4358 1105 000CA0A0 ?SetDefaultProperties@CEnemyRunInto@@UAEXXZ
       4359 1106 000CBEA0 ?SetDefaultProperties@CEnemySpawner@@UAEXXZ
       4360 1107 001FC060 ?SetDefaultProperties@CEntityStateDisplay@@UAEXXZ
       4361 1108 002613B0 ?SetDefaultProperties@CEntityVoiceHolder@@UAEXXZ
       4362 1109 001933A0 ?SetDefaultProperties@CEnvironmentBase@@UAEXXZ
       4363 110A 001942F0 ?SetDefaultProperties@CEnvironmentMarker@@UAEXXZ
       4364 110B 00194F00 ?SetDefaultProperties@CEnvironmentParticlesHolder@@UAEXXZ
       4365 110C 001FE360 ?SetDefaultProperties@CEruptor@@UAEXXZ
       4366 110D 00189CC0 ?SetDefaultProperties@CFXEmiter@@UAEXXZ
       4367 110E 000CFD20 ?SetDefaultProperties@CFernandes@@UAEXXZ
       4368 110F 000D2310 ?SetDefaultProperties@CFernandesScythe@@UAEXXZ
       4369 1110 0018C500 ?SetDefaultProperties@CFireworks@@UAEXXZ
       4370 1111 0022CC30 ?SetDefaultProperties@CFlame@@UAEXXZ
       4371 1112 0018D370 ?SetDefaultProperties@CFloatingScore@@UAEXXZ
       4372 1113 000D72B0 ?SetDefaultProperties@CFlyingMechanic@@UAEXXZ
       4373 1114 001FFAA0 ?SetDefaultProperties@CFogMarker@@UAEXXZ
       4374 1115 00004700 ?SetDefaultProperties@CGlobal@@UAEXXZ
       4375 1116 000DA1A0 ?SetDefaultProperties@CGracia@@UAEXXZ
       4376 1117 000E0F70 ?SetDefaultProperties@CGraciaAxe2@@UAEXXZ
       4377 1118 000DDD00 ?SetDefaultProperties@CGraciaAxe@@UAEXXZ
       4378 1119 000E3270 ?SetDefaultProperties@CGraciaLaser2@@UAEXXZ
       4379 111A 000E6620 ?SetDefaultProperties@CGraciaLaser3@@UAEXXZ
       4380 111B 00200040 ?SetDefaultProperties@CGradientMarker@@UAEXXZ
       4381 111C 00200640 ?SetDefaultProperties@CGravityMarker@@UAEXXZ
       4382 111D 00201010 ?SetDefaultProperties@CGravityRouter@@UAEXXZ
       4383 111E 00271280 ?SetDefaultProperties@CHawk@@UAEXXZ
       4384 111F 00201430 ?SetDefaultProperties@CHazeMarker@@UAEXXZ
       4385 1120 00262760 ?SetDefaultProperties@CHooker@@UAEXXZ
       4386 1121 000EB090 ?SetDefaultProperties@CHorseHwangbo@@UAEXXZ
       4387 1122 000EED30 ?SetDefaultProperties@CHorseMajang@@UAEXXZ
       4388 1123 000F2390 ?SetDefaultProperties@CHorseMaok@@UAEXXZ
       4389 1124 00201AA0 ?SetDefaultProperties@CHudPicHolder@@UAEXXZ
       4390 1125 000F72F0 ?SetDefaultProperties@CHwangboCity@@UAEXXZ
       4391 1126 000FAE80 ?SetDefaultProperties@CHwangboCityRifle@@UAEXXZ
       4392 1127 000FE2D0 ?SetDefaultProperties@CHwangboFlame@@UAEXXZ
       4393 1128 00101F00 ?SetDefaultProperties@CHwangboRifle@@UAEXXZ
       4394 1129 0026E600 ?SetDefaultProperties@CItemHealthyFamily@@UAEXXZ
       4395 112A 00106B80 ?SetDefaultProperties@CJava@@UAEXXZ
       4396 112B 00196E10 ?SetDefaultProperties@CKeyItem@@UAEXXZ
       4397 112C 002729C0 ?SetDefaultProperties@CLamon2@@UAEXXZ
       4398 112D 00108FC0 ?SetDefaultProperties@CLamon@@UAEXXZ
       4399 112E 0010DE70 ?SetDefaultProperties@CLamonBike@@UAEXXZ
       4400 112F 002645F0 ?SetDefaultProperties@CLbomb@@UAEXXZ
       4401 1130 00202C60 ?SetDefaultProperties@CLight@@UAEXXZ
       4402 1131 0018E190 ?SetDefaultProperties@CLightning@@UAEXXZ
       4403 1132 0026A540 ?SetDefaultProperties@CLisa@@UAEXXZ
       4404 1133 00277120 ?SetDefaultProperties@CLouisDevil@@UAEXXZ
       4405 1134 00279AB0 ?SetDefaultProperties@CLouisNormal2@@UAEXXZ
       4406 1135 00119210 ?SetDefaultProperties@CLuisCloseBodyGuard@@UAEXXZ
       4407 1136 00114FF0 ?SetDefaultProperties@CLuisNormal1@@UAEXXZ
       4408 1137 0011B1D0 ?SetDefaultProperties@CMajang@@UAEXXZ
       4409 1138 0011B9A0 ?SetDefaultProperties@CMaok@@UAEXXZ
       4410 1139 0011D200 ?SetDefaultProperties@CMaokCity@@UAEXXZ
       4411 113A 001A0C80 ?SetDefaultProperties@CMaria@@UAEXXZ
       4412 113B 001A2E70 ?SetDefaultProperties@CMariaActor@@UAEXXZ
       4413 113C 00265020 ?SetDefaultProperties@CMariaEventTimer@@UAEXXZ
       4414 113D 002676D0 ?SetDefaultProperties@CMariaNPC@@UAEXXZ
       4415 113E 00203C00 ?SetDefaultProperties@CMarker@@UAEXXZ
       4416 113F 001200E0 ?SetDefaultProperties@CMaxim@@UAEXXZ
       4417 1140 00203F10 ?SetDefaultProperties@CMessageHolder@@UAEXXZ
       4418 1141 00197EC0 ?SetDefaultProperties@CMessageItem@@UAEXXZ
       4419 1142 002042D0 ?SetDefaultProperties@CMirrorMarker@@UAEXXZ
       4420 1143 00204900 ?SetDefaultProperties@CModelDestruction@@UAEXXZ
       4421 1144 00208360 ?SetDefaultProperties@CModelHolder2@@UAEXXZ
       4422 1145 0020AA40 ?SetDefaultProperties@CModelHolder3@@UAEXXZ
       4423 1146 00206A10 ?SetDefaultProperties@CModelHolder@@UAEXXZ
       4424 1147 00246160 ?SetDefaultProperties@CMovingBrush@@UAEXXZ
       4425 1148 00248240 ?SetDefaultProperties@CMovingBrushMarker@@UAEXXZ
       4426 1149 0020D330 ?SetDefaultProperties@CMovingModelHolder@@UAEXXZ
       4427 114A 00211150 ?SetDefaultProperties@CMusicChanger@@UAEXXZ
       4428 114B 00211AD0 ?SetDefaultProperties@CMusicHolder@@UAEXXZ
       4429 114C 00058CE0 ?SetDefaultProperties@CNavigationMarker@@UAEXXZ
       4430 114D 002825F0 ?SetDefaultProperties@CNof@@UAEXXZ
       4431 114E 00126F10 ?SetDefaultProperties@CNorudom@@UAEXXZ
       4432 114F 002139D0 ?SetDefaultProperties@CObjectiveCompletedHolder@@UAEXXZ
       4433 1150 0012E860 ?SetDefaultProperties@COlga@@UAEXXZ
       4434 1151 00214140 ?SetDefaultProperties@CParticleCloudsHolder@@UAEXXZ
       4435 1152 002145E0 ?SetDefaultProperties@CParticleCloudsMarker@@UAEXXZ
       4436 1153 00214B20 ?SetDefaultProperties@CParticlesHolder@@UAEXXZ
       4437 1154 00131EB0 ?SetDefaultProperties@CPedro@@UAEXXZ
       4438 1155 002485C0 ?SetDefaultProperties@CPendulum@@UAEXXZ
       4439 1156 00137700 ?SetDefaultProperties@CPiapongBlade@@UAEXXZ
       4440 1157 0013B170 ?SetDefaultProperties@CPiapongCannon@@UAEXXZ
       4441 1158 0013C9C0 ?SetDefaultProperties@CPiapongDummy@@UAEXXZ
       4442 1159 0013CF40 ?SetDefaultProperties@CPiapongExtra@@UAEXXZ
       4443 115A 0013FF00 ?SetDefaultProperties@CPiapongFixed@@UAEXXZ
       4444 115B 00144430 ?SetDefaultProperties@CPiapongLaser@@UAEXXZ
       4445 115C 00147060 ?SetDefaultProperties@CPig@@UAEXXZ
       4446 115D 001B9FF0 ?SetDefaultProperties@CPlayer@@UAEXXZ
       4447 115E 001CA480 ?SetDefaultProperties@CPlayerActionMarker@@UAEXXZ
       4448 115F 001CBC00 ?SetDefaultProperties@CPlayerAnimator@@UAEXXZ
       4449 1160 001CDDE0 ?SetDefaultProperties@CPlayerMarker@@UAEXXZ
       4450 1161 001CE7D0 ?SetDefaultProperties@CPlayerView@@UAEXXZ
       4451 1162 001DADE0 ?SetDefaultProperties@CPlayerWeapons@@UAEXXZ
       4452 1163 001E3670 ?SetDefaultProperties@CPlayerWeaponsEffects@@UAEXXZ
       4453 1164 001ED450 ?SetDefaultProperties@CPlayerWeapons_L@@UAEXXZ
       4454 1165 0027C410 ?SetDefaultProperties@CPok@@UAEXXZ
       4455 1166 00198750 ?SetDefaultProperties@CPowerUpItem@@UAEXXZ
       4456 1167 00149700 ?SetDefaultProperties@CPriest@@UAEXXZ
       4457 1168 00151E40 ?SetDefaultProperties@CPriestSpawner@@UAEXXZ
       4458 1169 00231AF0 ?SetDefaultProperties@CProjectile@@UAEXXZ
       4459 116A 00155D70 ?SetDefaultProperties@CProtector@@UAEXXZ
       4460 116B 00159730 ?SetDefaultProperties@CProtectorMG@@UAEXXZ
       4461 116C 0015DDE0 ?SetDefaultProperties@CProtectorSG@@UAEXXZ
       4462 116D 00059590 ?SetDefaultProperties@CReminder@@UAEXXZ
       4463 116E 001629A0 ?SetDefaultProperties@CRobert@@UAEXXZ
       4464 116F 00165C00 ?SetDefaultProperties@CRosemari@@UAEXXZ
       4465 1170 00169B20 ?SetDefaultProperties@CRosemariTights@@UAEXXZ
       4466 1171 002160A0 ?SetDefaultProperties@CScrollHolder@@UAEXXZ
       4467 1172 002490F0 ?SetDefaultProperties@CShip@@UAEXXZ
       4468 1173 0024A0C0 ?SetDefaultProperties@CShipMarker@@UAEXXZ
       4469 1174 001995E0 ?SetDefaultProperties@CSkaAmmoItem@@UAEXXZ
       4470 1175 0019A010 ?SetDefaultProperties@CSkaAmmoItemAlone@@UAEXXZ
       4471 1176 0019A220 ?SetDefaultProperties@CSkaArmorItem@@UAEXXZ
       4472 1177 0019AD70 ?SetDefaultProperties@CSkaArmorItemAlone@@UAEXXZ
       4473 1178 0019AF80 ?SetDefaultProperties@CSkaHealthItem@@UAEXXZ
       4474 1179 0019BD30 ?SetDefaultProperties@CSkaHealthItemAlone@@UAEXXZ
       4475 117A 0019C0F0 ?SetDefaultProperties@CSkaItem@@UAEXXZ
       4476 117B 00218210 ?SetDefaultProperties@CSkaMovingModelHolder@@UAEXXZ
       4477 117C 0019D4B0 ?SetDefaultProperties@CSkaSpecialItem@@UAEXXZ
       4478 117D 0019DD30 ?SetDefaultProperties@CSkaSpecialItemAlone@@UAEXXZ
       4479 117E 0016D6F0 ?SetDefaultProperties@CSkiEngineer@@UAEXXZ
       4480 117F 0016F870 ?SetDefaultProperties@CSkiSeaman@@UAEXXZ
       4481 1180 0027D6B0 ?SetDefaultProperties@CSnake@@UAEXXZ
       4482 1181 002854B0 ?SetDefaultProperties@CSolidBox@@UAEXXZ
       4483 1182 00288040 ?SetDefaultProperties@CSolidProne@@UAEXXZ
       4484 1183 0021F1B0 ?SetDefaultProperties@CSoundHolder@@UAEXXZ
       4485 1184 00242650 ?SetDefaultProperties@CSpawnerProjectile@@UAEXXZ
       4486 1185 001716C0 ?SetDefaultProperties@CStationaryWeapon@@UAEXXZ
       4487 1186 0018F4C0 ?SetDefaultProperties@CStormController@@UAEXXZ
       4488 1187 002203E0 ?SetDefaultProperties@CSwitch@@UAEXXZ
       4489 1188 00059C60 ?SetDefaultProperties@CTacticsChanger@@UAEXXZ
       4490 1189 0005A040 ?SetDefaultProperties@CTacticsHolder@@UAEXXZ
       4491 118A 00177FC0 ?SetDefaultProperties@CTao@@UAEXXZ
       4492 118B 002211B0 ?SetDefaultProperties@CTeleport@@UAEXXZ
       4493 118C 0024A360 ?SetDefaultProperties@CTerrainEntity@@UAEXXZ
       4494 118D 00221C20 ?SetDefaultProperties@CTextFXHolder@@UAEXXZ
       4495 118E 00190AC0 ?SetDefaultProperties@CTimeController@@UAEXXZ
       4496 118F 00223620 ?SetDefaultProperties@CToaster@@UAEXXZ
       4497 1190 002240E0 ?SetDefaultProperties@CTorpedo@@UAEXXZ
       4498 1191 00225020 ?SetDefaultProperties@CTouchField@@UAEXXZ
       4499 1192 00226230 ?SetDefaultProperties@CTrigger@@UAEXXZ
       4500 1193 00226F00 ?SetDefaultProperties@CTriggerActionMarker@@UAEXXZ
       4501 1194 00179D50 ?SetDefaultProperties@CTruck@@UAEXXZ
       4502 1195 0017AA70 ?SetDefaultProperties@CTurret@@UAEXXZ
       4503 1196 0024B590 ?SetDefaultProperties@CVehicle@@UAEXXZ
       4504 1197 002286C0 ?SetDefaultProperties@CVideoHolder@@UAEXXZ
       4505 1198 00228B10 ?SetDefaultProperties@CVoiceHolder@@UAEXXZ
       4506 1199 0005AC20 ?SetDefaultProperties@CWatchPlayers@@UAEXXZ
       4507 119A 0005B740 ?SetDefaultProperties@CWatcher@@UAEXXZ
       4508 119B 00243550 ?SetDefaultProperties@CWater@@UAEXXZ
       4509 119C 0019DFE0 ?SetDefaultProperties@CWeaponItem@@UAEXXZ
       4510 119D 0027EC70 ?SetDefaultProperties@CWonHawk@@UAEXXZ
       4511 119E 00280630 ?SetDefaultProperties@CWonSniper@@UAEXXZ
       4512 119F 0024F8C0 ?SetDefaultProperties@CWorldBase@@UAEXXZ
       4513 11A0 00229070 ?SetDefaultProperties@CWorldLink@@UAEXXZ
       4514 11A1 00191E80 ?SetDefaultProperties@CWorldSettingsController@@UAEXXZ
       4515 11A2 00112E20 ?SetDefaultProperties@LamonGenerate@@UAEXXZ
       4516 11A3 000BB810 ?SetDesiredMovement@CEnemyBase@@UAEKXZ
       4517 11A4 000C4980 ?SetDesiredMovement@CEnemyDive@@UAEKXZ
       4518 11A5 000C6F30 ?SetDesiredMovement@CEnemyFly@@UAEKXZ
       4519 11A6 000C42E0 ?SetEntityPosition@CEnemyDive@@QAEXXZ
       4520 11A7 000C4DB0 ?SetEntityPosition@CEnemyFly@@UAEXXZ
       4521 11A8 001D1E60 ?SetFlare@CPlayerWeapons@@QAEXJ@Z
       4522 11A9 001E6760 ?SetFlare@CPlayerWeapons_L@@QAEXJ@Z
       4523 11AA 001B41F0 ?SetGameEnd@CPlayer@@QAEXXZ
       4524 11AB 001CCB80 ?SetItem@CPlayerAnimator@@QAEXPAVCModelInstance@@@Z
       4525 11AC 0019C430 ?SetItemType@CSkaItem@@UAEXJ@Z
       4526 11AD 001A6770 ?SetLisaPlayerWeapon@CPlayer@@QAEXXZ
       4527 11AE 001A9720 ?SetLivesNumber@CPlayer@@QAEXJ@Z
       4528 11AF 001CC270 ?SetMaria@CPlayerAnimator@@QAEXXZ
       4529 11B0 000AF3F0 ?SetOriginNameForBikini@CEnemyBase@@QAEXAAVCTString@@@Z
       4530 11B1 00011790 ?SetPlayerAppearance@@YAHPAVCModelInstance@@PAVCPlayerCharacter@@AAVCTString@@H@Z
       4531 11B2 001A6840 ?SetPlayerSelectWeaponType@CPlayer@@QAEXJ@Z
       4532 11B3 001AFC90 ?SetPlayerWeapon@CPlayer@@UAEXXZ
       4533 11B4 001A3560 ?SetPredictionPair@CPlayerAnimator@@UAEXPAVCEntity@@@Z
       4534 11B5 001A3D20 ?SetPredictionPair@CPlayerView@@UAEXPAVCEntity@@@Z
       4535 11B6 0000A070 ?SetPredictionPair@CProjectile@@UAEXPAVCEntity@@@Z
       4536 11B7 0000EA70 ?SetPredictionPair@CWatcher@@UAEXPAVCEntity@@@Z
       4537 11B8 001B2720 ?SetRandomMouthPitch@CPlayer@@QAEXMM@Z
       4538 11B9 001A6D10 ?SetReapplyingActions@CPlayer@@UAEXXZ
       4539 11BA 001A6B80 ?SetRotation@CPlayer@@QAEXAAJM@Z
       4540 11BB 001AB0C0 ?SetSpeakMouthPitch@CPlayer@@QAEXXZ
       4541 11BC 000C1400 ?SetSpeedsToDesiredPosition@CEnemyBase@@UAEXABV?$Vector@M$02@@MH@Z
       4542 11BD 000AFE50 ?SetTargetHard@CEnemyBase@@QAEHPAVCEntity@@@Z
       4543 11BE 000AFEC0 ?SetTargetHardForce@CEnemyBase@@QAEHPAVCEntity@@@Z
       4544 11BF 000AFDA0 ?SetTargetNone@CEnemyBase@@QAEXXZ
       4545 11C0 000AFDE0 ?SetTargetSoft@CEnemyBase@@QAEHPAVCEntity@@@Z
       4546 11C1 001B3CB0 ?SetUnconnected@CPlayer@@QAEXXZ
       4547 11C2 0005C030 ?SetWatchDelays@CWatcher@@QAEXXZ
       4548 11C3 001CC390 ?SetWeapon@CPlayerAnimator@@QAEXXZ
       4549 11C4 001D9250 ?SetWeaponAmmo@CPlayerWeapons@@QAEXG@Z
       4550 11C5 001ECE80 ?SetWeaponAmmo@CPlayerWeapons_L@@QAEXG@Z
       4551 11C6 001A6B50 ?SetWeaponAndAnimator@CPlayer@@UAEXXZ
       4552 11C7 001CAD70 ?SetWeaponLeft@CPlayerAnimator@@QAEXJ@Z
       4553 11C8 001CAE80 ?SetWholeAnimation@CPlayerAnimator@@QAEXJKMM@Z
       4554 11C9 001D1E90 ?Setup3DSoundParameters@CPlayerWeapons@@QAEXXZ
       4555 11CA 001E6BC0 ?Setup3DSoundParameters@CPlayerWeapons_L@@QAEXXZ
       4556 11CB 001AAB60 ?SetupLightSource@CPlayer@@QAEXXZ
       4557 11CC 0022E900 ?SetupLightSource@CProjectile@@QAEXH@Z
       4558 11CD 001C25F0 ?SetupView@CPlayer@@QAEXPAVCDrawPort@@AAVCAnyProjection3D@@AAPAVCEntity@@AAVCPlacement3D@@AAKH@Z
       4559 11CE 003D2508 ?ShadowType_enum@@3VCEntityPropertyEnumType@@A
       4560 11CF 003D24F0 ?ShadowType_values@@3PAVCEntityPropertyEnumValue@@A
       4561 11D0 000BE2A0 ?ShootPredictedProjectile@CEnemyBase@@QAEXW4ProjectileType@@V?$Vector@M$02@@AAV3@2@Z
       4562 11D1 000BE060 ?ShootProjectile@CEnemyBase@@QAEXW4ProjectileType@@AAV?$Vector@M$02@@1@Z
       4563 11D2 000BE1A0 ?ShootProjectileAt@CEnemyBase@@QAEXV?$Vector@M$02@@W4ProjectileType@@AAV2@2@Z
       4564 11D3 001A2650 ?ShootRocketAt@CMaria@@QAEPAVCEntity@@V?$Vector@M$02@@W4ProjectileType@@AAV3@2@Z
       4565 11D4 000B6330 ?ShouldBlowUp@CEnemyBase@@UAEHXZ
       4566 11D5 001B3D90 ?ShouldBlowUp@CPlayer@@QAEHXZ
       4567 11D6 000AFC70 ?ShouldCeaseAttack@CEnemyBase@@QAEHXZ
       4568 11D7 001CDA40 ?ShowFlare@CPlayerAnimator@@QAEXH@Z
       4569 11D8 001DC010 ?ShowFlare@CPlayerWeapons@@QAEXAAVCModelInstance@@M@Z
       4570 11D9 001EE4D0 ?ShowFlare@CPlayerWeapons_L@@QAEXAAVCModelInstance@@M@Z
       4571 11DA 0019C440 ?ShowItemParticles@CSkaItem@@QAEHXZ
       4572 11DB 00236570 ?Show_ShockHole@CProjectile@@QAEXM@Z
       4573 11DC 000B0350 ?SightSound@CEnemyBase@@UAEXXZ
       4574 11DD 000B6090 ?SizeModel@CEnemyBase@@UAEXXZ
       4575 11DE 003CE128 ?SkaAmmoItemType_enum@@3VCEntityPropertyEnumType@@A
       4576 11DF 003CE0F0 ?SkaAmmoItemType_values@@3PAVCEntityPropertyEnumValue@@A
       4577 11E0 003CE228 ?SkaArmorItemType_enum@@3VCEntityPropertyEnumType@@A
       4578 11E1 003CE210 ?SkaArmorItemType_values@@3PAVCEntityPropertyEnumValue@@A
       4579 11E2 001CABD0 ?SkaComponentIDFromWeaponName@CPlayerAnimator@@QAEJABVCTString@@@Z
       4580 11E3 003CE330 ?SkaHealthItemType_enum@@3VCEntityPropertyEnumType@@A
       4581 11E4 003CE310 ?SkaHealthItemType_values@@3PAVCEntityPropertyEnumValue@@A
       4582 11E5 003CE598 ?SkaSpecialItemType_enum@@3VCEntityPropertyEnumType@@A
       4583 11E6 003CE588 ?SkaSpecialItemType_values@@3PAVCEntityPropertyEnumValue@@A
       4584 11E7 0023A4D0 ?SkiGuidedSpanner@CProjectile@@QAEXXZ
       4585 11E8 003BC2A0 ?SoundType_enum@@3VCEntityPropertyEnumType@@A
       4586 11E9 003BC278 ?SoundType_values@@3PAVCEntityPropertyEnumValue@@A
       4587 11EA 000B0690 ?SpawnBlood_client@CEnemyBase@@QAEXVEEnemyBaseDamage@@@Z
       4588 11EB 001B4460 ?SpawnBubbles@CPlayer@@QAEXJ@Z
       4589 11EC 0022EE90 ?SpawnEffect@CProjectile@@QAEXABVCPlacement3D@@ABVESpawnEffect@@@Z
       4590 11ED 0022EF10 ?SpawnEffectForShockHole@CProjectile@@QAEXABVCPlacement3D@@ABVESpawnEffect@@@Z
       4591 11EE 0022EBE0 ?SpawnExplosion@CProjectile@@QAEXXZ
       4592 11EF 000167D0 ?SpawnFlame@@YA?AVCEntityPointer@@PAVCEntity@@0ABV?$Vector@M$02@@@Z
       4593 11F0 001B5190 ?SpawnFloatingScore@CPlayer@@QAEXPAVCEntity@@J@Z
       4594 11F1 00019FA0 ?SpawnRangeSound@@YAXPAVCEntity@@0W4SoundType@@M@Z
       4595 11F2 001D1F50 ?SpawnRangeSound@CPlayerWeapons@@QAEXM@Z
       4596 11F3 001E6C80 ?SpawnRangeSound@CPlayerWeapons_L@@QAEXM@Z
       4597 11F4 00010D90 ?SpawnReminder@@YA?AVCEntityPointer@@PAVCEntity@@MJ@Z
       4598 11F5 0022A130 ?SpawnSniperRail@CBullet@@QAEXXZ
       4599 11F6 001BEA50 ?SpawnTeleport@CPlayer@@QAEXXZ
       4600 11F7 0022AD60 ?SpawnTrail@CBullet@@QAEXXZ
       4601 11F8 0022ED30 ?SpawnWaterJet@CProjectile@@QAEXXZ
       4602 11F9 00234F50 ?SpawnWaves@CProjectile@@QAEXXZ
       4603 11FA 003BC468 ?SprayParticlesType_enum@@3VCEntityPropertyEnumType@@A
       4604 11FB 003BC3A8 ?SprayParticlesType_values@@3PAVCEntityPropertyEnumValue@@A
       4605 11FC 001CBBE0 ?Stand@CPlayerAnimator@@QAEXXZ
       4606 11FD 000B5780 ?StandardBehavior@CEnemyBase@@QAEHABVCEntityEvent@@@Z
       4607 11FE 000B0200 ?StandingAnim@CEnemyBase@@UAEXXZ
       4608 11FF 000B0210 ?StandingAnimFight@CEnemyBase@@UAEXXZ
       4609 1200 001A0D70 ?StartBomb@CMaria@@QAEXXZ
       4610 1201 00016E80 ?StartDebugTrigger@@YAXPAVCEntity@@@Z
       4611 1202 000B6190 ?StartPathFinding@CEnemyBase@@UAEXXZ
       4612 1203 000C4260 ?StartPathFinding@CEnemyDive@@UAEXXZ
       4613 1204 000C4D30 ?StartPathFinding@CEnemyFly@@UAEXXZ
       4614 1205 00011180 ?StartSkaAnim@@YAXPAVCEntity@@JKJM@Z
       4615 1206 000111C0 ?StartSkaAnimStr@@YAXPAVCModelInstance@@VCTString@@KJM@Z
       4616 1207 000B0120 ?StartTacticsNow@CEnemyBase@@QAEXXZ
       4617 1208 00238660 ?StationaryLaser@CProjectile@@QAEXXZ
       4618 1209 00238780 ?StationaryLaserWave@CProjectile@@QAEXXZ
       4619 120A 002383F0 ?StationaryRocket@CProjectile@@QAEXXZ
       4620 120B 00238650 ?StationaryRocketExplosion@CProjectile@@QAEXXZ
       4621 120C 003CBF18 ?StationaryWeaponType_enum@@3VCEntityPropertyEnumType@@A
       4622 120D 003CBF00 ?StationaryWeaponType_values@@3PAVCEntityPropertyEnumValue@@A
       4623 120E 001B6870 ?StepBack@CPlayer@@QAEHABVCEntityEvent@@@Z
       4624 120F 000C1E70 ?StopAttack@CEnemyBase@@QAEHABVCEntityEvent@@@Z
       4625 1210 001D4F50 ?StopMachineGun@CPlayerWeapons@@QAEHABVCEntityEvent@@@Z
       4626 1211 001E9670 ?StopMachineGun@CPlayerWeapons_L@@QAEHABVCEntityEvent@@@Z
       4627 1212 000C1580 ?StopMoving@CEnemyBase@@QAEXXZ
       4628 1213 000BBD10 ?StopRotating@CEnemyBase@@QAEXXZ
       4629 1214 001D40B0 ?StopShotgun@CPlayerWeapons@@QAEHABVCEntityEvent@@@Z
       4630 1215 001E87D0 ?StopShotgun@CPlayerWeapons_L@@QAEHABVCEntityEvent@@@Z
       4631 1216 000BBD40 ?StopTranslating@CEnemyBase@@QAEXXZ
       4632 1217 001D8F10 ?Stopped@CPlayerWeapons@@QAEHABVCEntityEvent@@@Z
       4633 1218 001EC600 ?Stopped@CPlayerWeapons_L@@QAEHABVCEntityEvent@@@Z
       4634 1219 001CAEF0 ?StoreLast@CPlayerAnimator@@QAEXXZ
       4635 121A 003D29A8 ?StreaksBlendType_enum@@3VCEntityPropertyEnumType@@A
       4636 121B 003D2978 ?StreaksBlendType_values@@3PAVCEntityPropertyEnumValue@@A
       4637 121C 0019D380 ?StretchChildren@CSkaItem@@QAEXV?$Vector@M$02@@@Z
       4638 121D 000B05D0 ?StretchModel@CEnemyBase@@QAEXV?$Vector@M$02@@@Z
       4639 121E 000B0610 ?StretchSingleModel@CEnemyBase@@QAEXV?$Vector@M$02@@@Z
       4640 121F 002601D0 ?SubComboCount@CComboManger@@QAEXKH@Z
       4641 1220 002601B0 ?SubComboCountAll@CComboManger@@QAEXK@Z
       4642 1221 001CB270 ?Swim@CPlayerAnimator@@QAEXXZ
       4643 1222 003D3040 ?SwitchType_enum@@3VCEntityPropertyEnumType@@A
       4644 1223 003D3030 ?SwitchType_values@@3PAVCEntityPropertyEnumValue@@A
       4645 1224 001CBD40 ?SyncWeapon@CPlayerAnimator@@QAEXXZ
       4646 1225 003BD1E8 ?TacticType_enum@@3VCEntityPropertyEnumType@@A
       4647 1226 003BD1C8 ?TacticType_values@@3PAVCEntityPropertyEnumValue@@A
       4648 1227 00058FB0 ?Target@CNavigationMarker@@QAEAAV1@J@Z
       4649 1228 00058C10 ?TargetPointer@CNavigationMarker@@QAEAAVCEntityPointer@@J@Z
       4650 1229 003C1D6C ?TargetType_enum@@3VCEntityPropertyEnumType@@A
       4651 122A 003C1D54 ?TargetType_values@@3PAVCEntityPropertyEnumValue@@A
       4652 122B 001C11D0 ?TeleportPlayer@CPlayer@@QAEXW4WorldLinkType@@W4PlayerTeleportCause@@@Z
       4653 122C 000BFC70 ?TeleportToAutoMarker@CEnemyBase@@QAEXPAVCEnemyActionMarker@@@Z
       4654 122D 001B5350 ?TeleportToAutoMarker@CPlayer@@QAEXPAVCPlayerActionMarker@@@Z
       4655 122E 001DB430 ?TestCollisionSphere@CPlayerWeapons@@QAEHV?$Vector@M$02@@MPAVCPlacement3D@@@Z
       4656 122F 001ED920 ?TestCollisionSphere@CPlayerWeapons_L@@QAEHV?$Vector@M$02@@MPAVCPlacement3D@@@Z
       4657 1230 001B61B0 ?TheEnd@CPlayer@@QAEHABVCEntityEvent@@@Z
       4658 1231 001A7D90 ?TotallyDead@CPlayer@@QAEHXZ
       4659 1232 003D44B0 ?TouchOrDamageEvent_enum@@3VCEntityPropertyEnumType@@A
       4660 1233 003D4498 ?TouchOrDamageEvent_values@@3PAVCEntityPropertyEnumValue@@A
       4661 1234 000B9330 ?TransformFXByBone@CEnemyBase@@QAEXVCEntityPointer@@ABVCTString@@@Z
       4662 1235 003CC608 ?TruckSkinType_enum@@3VCEntityPropertyEnumType@@A
       4663 1236 003CC5F8 ?TruckSkinType_values@@3PAVCEntityPropertyEnumValue@@A
       4664 1237 003CC6E8 ?TurretType_enum@@3VCEntityPropertyEnumType@@A
       4665 1238 003CC6D8 ?TurretType_values@@3PAVCEntityPropertyEnumValue@@A
       4666 1239 001A94D0 ?UpdateLatency@CPlayer@@QAEXM@Z
       4667 123A 001BB120 ?UpdateLevelStats@CPlayer@@QAEXXZ
       4668 123B 001E10F0 ?UpdateTargetingInfo@CPlayerWeapons@@QAEXXZ
       4669 123C 001F16D0 ?UpdateTargetingInfo@CPlayerWeapons_L@@QAEXXZ
       4670 123D 001BFD30 ?UsePressed@CPlayer@@QAEXH@Z
       4671 123E 001A9580 ?ValidateCharacter@CPlayer@@QAEXXZ
       4672 123F 003D49A8 ?VehicleType_enum@@3VCEntityPropertyEnumType@@A
       4673 1240 003D4990 ?VehicleType_values@@3PAVCEntityPropertyEnumValue@@A
       4674 1241 003CF9F8 ?ViewType_enum@@3VCEntityPropertyEnumType@@A
       4675 1242 003CF9D0 ?ViewType_values@@3PAVCEntityPropertyEnumValue@@A
       4676 1243 003BC678 ?VisibilityBits_enum@@3VCEntityPropertyEnumType@@A
       4677 1244 003BC578 ?VisibilityBits_values@@3PAVCEntityPropertyEnumValue@@A
       4678 1245 000B0320 ?WaitForDust@CEnemyBase@@UAEMAAV?$Vector@M$02@@@Z
       4679 1246 000B0220 ?WalkingAnim@CEnemyBase@@UAEXXZ
       4680 1247 003D2338 ?WarpRotation_enum@@3VCEntityPropertyEnumType@@A
       4681 1248 003D2320 ?WarpRotation_values@@3PAVCEntityPropertyEnumValue@@A
       4682 1249 0019C550 ?WasPickedBy@CSkaItem@@QAEHPAVCEntity@@@Z
       4683 124A 0019C4C0 ?WasRecentlyPickedBy@CSkaItem@@QAEHPAVCEntity@@@Z
       4684 124B 0005C440 ?Watch@CWatcher@@QAEXXZ
       4685 124C 003D0680 ?WeaponEffectType_enum@@3VCEntityPropertyEnumType@@A
       4686 124D 003D0670 ?WeaponEffectType_values@@3PAVCEntityPropertyEnumValue@@A
       4687 124E 003CE6A0 ?WeaponItemType_enum@@3VCEntityPropertyEnumType@@A
       4688 124F 003CE680 ?WeaponItemType_values@@3PAVCEntityPropertyEnumValue@@A
       4689 1250 001D9440 ?WeaponMovingOffset@CPlayerWeapons@@QAEXAAV?$Vector@M$02@@@Z
       4690 1251 001ED000 ?WeaponMovingOffset@CPlayerWeapons_L@@QAEXAAV?$Vector@M$02@@@Z
       4691 1252 003CED08 ?WeaponType_enum@@3VCEntityPropertyEnumType@@A
       4692 1253 003CECB0 ?WeaponType_values@@3PAVCEntityPropertyEnumValue@@A
       4693 1254 001C1E50 ?WorldChange@CPlayer@@QAEHABVCEntityEvent@@@Z
       4694 1255 001AC640 ?WorldChangeDead@CPlayer@@QAEHABVCEntityEvent@@@Z
       4695 1256 001ABE50 ?WorldChangedUpdate@CPlayer@@QAEXXZ
       4696 1257 003D3A28 ?WorldLinkType_enum@@3VCEntityPropertyEnumType@@A
       4697 1258 003D3A18 ?WorldLinkType_values@@3PAVCEntityPropertyEnumValue@@A
       4698 1259 000BE4B0 ?WouldNotLeaveAttackRadius@CEnemyBase@@QAEHXZ
       4699 125A 000B0360 ?WoundSound@CEnemyBase@@UAEXXZ
       4700 125B 001AC5D0 ?Wounded@CPlayer@@QAEHABVCEntityEvent@@@Z
       4701 125C 000B6400 ?WoundedNotify@CEnemyBase@@QAEXABVEEnemyBaseDamage@@@Z
       4702 125D 001A75B0 ?Write_net@CPlayer@@UAEXPAVCNetworkMessage@@@Z
       4703 125E 001B0860 ?Write_net_brief@CPlayer@@UAEXPAVCNetworkMessage@@@Z
       4704 125F 00010C30 ?Write_t@CCompMessageID@@QAEXAAVCTStream@@@Z
       4705 1260 00022430 ?Write_t@CEmiter@@QAEXAAVCTStream@@H@Z
       4706 1261 000222D0 ?Write_t@CEmittedParticle@@QAEXAAVCTStream@@H@Z
       4707 1262 001BF080 ?Write_t@CPlayer@@UAEXPAVCTStream@@H@Z
       4708 1263 001DB370 ?Write_t@CPlayerWeapons@@UAEXPAVCTStream@@H@Z
       4709 1264 001E6550 ?Write_t@CPlayerWeapons_L@@UAEXPAVCTStream@@H@Z
       4710 1265 001AB7A0 ?addSilhouettes@CPlayer@@QAEXPAVCDrawPort@@@Z
       4711 1266 00402A3C ?cmp_bInitialStart@@3HA
       4712 1267 00402A2C ?cmp_bLevelStart@@3HA
       4713 1268 00402A38 ?cmp_bUpdateInBackground@@3HA
       4714 1269 00402A34 ?cmp_ppenDHPlayer@@3PAVCPlayer@@A
       4715 126A 00402A30 ?cmp_ppenPlayer@@3PAVCPlayer@@A
       4716 126B 0040512C ?cmp_strVideo1@@3VCTString@@A
       4717 126C 00405130 ?cmp_strVideo2@@3VCTString@@A
       4718 126D 00405134 ?cmp_strVideoInGame@@3VCTString@@A
       4719 126E 001B7110 ?ctl_ComposeActionPacket@@YAXABVCPlayerCharacter@@AAVCPlayerAction@@H@Z
       4720 126F 003CF344 ?ctl_pvPlayerControls@@3PAXA
       4721 1270 00315C70 ?ctl_slPlayerControlsSize@@3JB
       4722 1271 001A5D30 ?currentTimeFactor@@YAMXZ
       4723 1272 001B35E0 ?getNormZBuffer@CPlayer@@QAEXPAVCDrawPort@@AAVCEntity@@AAVCAnyProjection3D@@@Z
       4724 1273 00402A40 ?plr_iHiScore@@3JA
       4725 1274 003D7D38 CAPTest_DLLClass
       4726 1275 003CDD28 CAmmoPack_DLLClass
       4727 1276 003D1108 CAnimationChanger_DLLClass
       4728 1277 003D1218 CAnimationHub_DLLClass
       4729 1278 003D1278 CAreaMarker_DLLClass
       4730 1279 003D12E8 CBackgroundViewer_DLLClass
       4731 127A 003CCC60 CBasicEffect_DLLClass
       4732 127B 003D4CD0 CBasketBoard_DLLClass
       4733 127C 003BDD30 CBigBallMarker_DLLClass
       4734 127D 003BDC28 CBigBall_DLLClass
       4735 127E 003BDEB0 CBike_DLLClass
       4736 127F 003D6538 CBikini2_DLLClass
       4737 1280 003D63E0 CBikini_DLLClass
       4738 1281 003CCD18 CBlendController_DLLClass
       4739 1282 003CCDA8 CBloodSpray_DLLClass
       4740 1283 003CDDB8 CBoosterPack_DLLClass
       4741 1284 003D4D60 CBossCoreLight_DLLClass
       4742 1285 003D5758 CBossCore_DLLClass
       4743 1286 003D4E98 CBossFlame_DLLClass
       4744 1287 003D4F48 CBossGravity_DLLClass
       4745 1288 003D5018 CBossGrind_DLLClass
       4746 1289 003D6758 CBossHeli_DLLClass
       4747 128A 003D5858 CBossProjectionTV_DLLClass
       4748 128B 003D4400 CBouncer_DLLClass
       4749 128C 003BE7E0 CBruce_DLLClass
       4750 128D 003BEA90 CBuffalo_DLLClass
       4751 128E 003D3AB0 CBullet_DLLClass
       4752 128F 003D14C8 CCameraMarker_DLLClass
       4753 1290 003D1458 CCamera_DLLClass
       4754 1291 003BF2C8 CChiang2_DLLClass
       4755 1292 003BF768 CChiangComp_DLLClass
       4756 1293 003BF3C8 CChiangExtra_DLLClass
       4757 1294 003BEEA0 CChiang_DLLClass
       4758 1295 003BFF58 CChickenSticky_DLLClass
       4759 1296 003BFAF0 CChicken_DLLClass
       4760 1297 003CE788 CChopskiActor_DLLClass
       4761 1298 003C0600 CConanMechanic_DLLClass
       4762 1299 003D1598 CCopier_DLLClass
       4763 129A 003D1688 CCounter_DLLClass
       4764 129B 003D1778 CCreditsHolder_DLLClass
       4765 129C 003D1818 CDamager_DLLClass
       4766 129D 003C0850 CDancerAcrobat_DLLClass
       4767 129E 003C0D90 CDancerCanCan_DLLClass
       4768 129F 003C1020 CDancerManager_DLLClass
       4769 12A0 003C1120 CDancerNormal_DLLClass
       4770 12A1 003C1458 CDancerTrapeze_DLLClass
       4771 12A2 003CCF48 CDebrisSka_DLLClass
       4772 12A3 003CCE98 CDebris_DLLClass
       4773 12A4 003C1A38 CDevilBigBall_DLLClass
       4774 12A5 003D1C18 CDoorController_DLLClass
       4775 12A6 003C1B10 CDummy_DLLClass
       4776 12A7 003CD038 CEffectMarker_DLLClass
       4777 12A8 003CD188 CEffector_DLLClass
       4778 12A9 003C1C08 CEnemyActionMarker_DLLClass
       4779 12AA 003C2940 CEnemyBase_DLLClass
       4780 12AB 003C2A08 CEnemyCounter_DLLClass
       4781 12AC 003C2AF8 CEnemyDive_DLLClass
       4782 12AD 003C2F20 CEnemyFly_DLLClass
       4783 12AE 003C2FD0 CEnemyHorse_DLLClass
       4784 12AF 003C3030 CEnemyMarker_DLLClass
       4785 12B0 003C31B0 CEnemyRunInto_DLLClass
       4786 12B1 003C3718 CEnemySpawner_DLLClass
       4787 12B2 003D1900 CEntityStateDisplay_DLLClass
       4788 12B3 003D59E8 CEntityVoiceHolder_DLLClass
       4789 12B4 003CDB70 CEnvironmentBase_DLLClass
       4790 12B5 003CDBD0 CEnvironmentMarker_DLLClass
       4791 12B6 003CDC90 CEnvironmentParticlesHolder_DLLClass
       4792 12B7 003D1D88 CEruptor_DLLClass
       4793 12B8 003CD2C0 CFXEmiter_DLLClass
       4794 12B9 003C3B00 CFernandesScythe_DLLClass
       4795 12BA 003C38D8 CFernandes_DLLClass
       4796 12BB 003CD390 CFireworks_DLLClass
       4797 12BC 003D3B68 CFlame_DLLClass
       4798 12BD 003CD420 CFloatingScore_DLLClass
       4799 12BE 003C3F70 CFlyingMechanic_DLLClass
       4800 12BF 003D1E28 CFogMarker_DLLClass
       4801 12C0 003BC858 CGlobal_DLLClass
       4802 12C1 003C46E0 CGraciaAxe2_DLLClass
       4803 12C2 003C44F8 CGraciaAxe_DLLClass
       4804 12C3 003C4938 CGraciaLaser2_DLLClass
       4805 12C4 003C4B90 CGraciaLaser3_DLLClass
       4806 12C5 003C4238 CGracia_DLLClass
       4807 12C6 003D1E88 CGradientMarker_DLLClass
       4808 12C7 003D1F10 CGravityMarker_DLLClass
       4809 12C8 003D1F80 CGravityRouter_DLLClass
       4810 12C9 003D6998 CHawk_DLLClass
       4811 12CA 003D1FE0 CHazeMarker_DLLClass
       4812 12CB 003D5C18 CHooker_DLLClass
       4813 12CC 003C4E28 CHorseHwangbo_DLLClass
       4814 12CD 003C50D8 CHorseMajang_DLLClass
       4815 12CE 003C5330 CHorseMaok_DLLClass
       4816 12CF 003D20F0 CHudPicHolder_DLLClass
       4817 12D0 003C58F0 CHwangboCityRifle_DLLClass
       4818 12D1 003C5630 CHwangboCity_DLLClass
       4819 12D2 003C5C18 CHwangboFlame_DLLClass
       4820 12D3 003C5EF0 CHwangboRifle_DLLClass
       4821 12D4 003D6610 CItemHealthyFamily_DLLClass
       4822 12D5 003C6468 CJava_DLLClass
       4823 12D6 003CDF58 CKeyItem_DLLClass
       4824 12D7 003D6CE0 CLamon2_DLLClass
       4825 12D8 003C6A78 CLamonBike_DLLClass
       4826 12D9 003C6610 CLamon_DLLClass
       4827 12DA 003D5CD8 CLbomb_DLLClass
       4828 12DB 003D21F0 CLight_DLLClass
       4829 12DC 003CD5A8 CLightning_DLLClass
       4830 12DD 003D6288 CLisa_DLLClass
       4831 12DE 003D6FC8 CLouisDevil_DLLClass
       4832 12DF 003D7268 CLouisNormal2_DLLClass
       4833 12E0 003C70E8 CLuisCloseBodyGuard_DLLClass
       4834 12E1 003C6CC8 CLuisNormal1_DLLClass
       4835 12E2 003C7210 CMajang_DLLClass
       4836 12E3 003C7540 CMaokCity_DLLClass
       4837 12E4 003C7310 CMaok_DLLClass
       4838 12E5 003CEA38 CMariaActor_DLLClass
       4839 12E6 003D5DB8 CMariaEventTimer_DLLClass
       4840 12E7 003D61A8 CMariaNPC_DLLClass
       4841 12E8 003CE9D8 CMaria_DLLClass
       4842 12E9 003D2250 CMarker_DLLClass
       4843 12EA 003C7680 CMaxim_DLLClass
       4844 12EB 003D22D0 CMessageHolder_DLLClass
       4845 12EC 003CDFD8 CMessageItem_DLLClass
       4846 12ED 003D2350 CMirrorMarker_DLLClass
       4847 12EE 003D2410 CModelDestruction_DLLClass
       4848 12EF 003D2558 CModelHolder2_DLLClass
       4849 12F0 003D2618 CModelHolder3_DLLClass
       4850 12F1 003D2470 CModelHolder_DLLClass
       4851 12F2 003D46A0 CMovingBrushMarker_DLLClass
       4852 12F3 003D4640 CMovingBrush_DLLClass
       4853 12F4 003D26B0 CMovingModelHolder_DLLClass
       4854 12F5 003D2760 CMusicChanger_DLLClass
       4855 12F6 003D28A8 CMusicHolder_DLLClass
       4856 12F7 003BCFF8 CNavigationMarker_DLLClass
       4857 12F8 003D78E8 CNof_DLLClass
       4858 12F9 003C81D0 CNorudom_DLLClass
       4859 12FA 003D2928 CObjectiveCompletedHolder_DLLClass
       4860 12FB 003C8318 COlga_DLLClass
       4861 12FC 003D29E0 CParticleCloudsHolder_DLLClass
       4862 12FD 003D2A40 CParticleCloudsMarker_DLLClass
       4863 12FE 003D2BE0 CParticlesHolder_DLLClass
       4864 12FF 003C8928 CPedro_DLLClass
       4865 1300 003D4720 CPendulum_DLLClass
       4866 1301 003C8BF0 CPiapongBlade_DLLClass
       4867 1302 003C8F50 CPiapongCannon_DLLClass
       4868 1303 003C9050 CPiapongDummy_DLLClass
       4869 1304 003C9158 CPiapongExtra_DLLClass
       4870 1305 003C9568 CPiapongFixed_DLLClass
       4871 1306 003C9860 CPiapongLaser_DLLClass
       4872 1307 003C9A40 CPig_DLLClass
       4873 1308 003CF860 CPlayerActionMarker_DLLClass
       4874 1309 003CF920 CPlayerAnimator_DLLClass
       4875 130A 003CF980 CPlayerMarker_DLLClass
       4876 130B 003CFA40 CPlayerView_DLLClass
       4877 130C 003D0788 CPlayerWeaponsEffects_DLLClass
       4878 130D 003D0620 CPlayerWeapons_DLLClass
       4879 130E 003D1078 CPlayerWeapons_L_DLLClass
       4880 130F 003CF6A8 CPlayer_DLLClass
       4881 1310 003D7338 CPok_DLLClass
       4882 1311 003CE090 CPowerUpItem_DLLClass
       4883 1312 003CA810 CPriestSpawner_DLLClass
       4884 1313 003CA200 CPriest_DLLClass
       4885 1314 003D4208 CProjectile_DLLClass
       4886 1315 003CAD68 CProtectorMG_DLLClass
       4887 1316 003CB0F8 CProtectorSG_DLLClass
       4888 1317 003CAA68 CProtector_DLLClass
       4889 1318 003BD098 CReminder_DLLClass
       4890 1319 003CB510 CRobert_DLLClass
       4891 131A 003CB9F0 CRosemariTights_DLLClass
       4892 131B 003CB770 CRosemari_DLLClass
       4893 131C 003D2CD0 CScrollHolder_DLLClass
       4894 131D 003D48D0 CShipMarker_DLLClass
       4895 131E 003D4870 CShip_DLLClass
       4896 131F 003CE1C0 CSkaAmmoItemAlone_DLLClass
       4897 1320 003CE160 CSkaAmmoItem_DLLClass
       4898 1321 003CE2C0 CSkaArmorItemAlone_DLLClass
       4899 1322 003CE260 CSkaArmorItem_DLLClass
       4900 1323 003CE3C8 CSkaHealthItemAlone_DLLClass
       4901 1324 003CE368 CSkaHealthItem_DLLClass
       4902 1325 003CE538 CSkaItem_DLLClass
       4903 1326 003D2EF0 CSkaMovingModelHolder_DLLClass
       4904 1327 003CE630 CSkaSpecialItemAlone_DLLClass
       4905 1328 003CE5D0 CSkaSpecialItem_DLLClass
       4906 1329 003CBBE8 CSkiEngineer_DLLClass
       4907 132A 003CBE40 CSkiSeaman_DLLClass
       4908 132B 003D7478 CSnake_DLLClass
       4909 132C 003D7A78 CSolidBox_DLLClass
       4910 132D 003D7C28 CSolidProne_DLLClass
       4911 132E 003D2FE0 CSoundHolder_DLLClass
       4912 132F 003D42C0 CSpawnerProjectile_DLLClass
       4913 1330 003CC250 CStationaryWeapon_DLLClass
       4914 1331 003CD750 CStormController_DLLClass
       4915 1332 003D3128 CSwitch_DLLClass
       4916 1333 003BD178 CTacticsChanger_DLLClass
       4917 1334 003BD260 CTacticsHolder_DLLClass
       4918 1335 003CC538 CTao_DLLClass
       4919 1336 003D3200 CTeleport_DLLClass
       4920 1337 003D4930 CTerrainEntity_DLLClass
       4921 1338 003D3310 CTextFXHolder_DLLClass
       4922 1339 003CD8F0 CTimeController_DLLClass
       4923 133A 003D3440 CToaster_DLLClass
       4924 133B 003D34D8 CTorpedo_DLLClass
       4925 133C 003D35E8 CTouchField_DLLClass
       4926 133D 003D38A8 CTriggerActionMarker_DLLClass
       4927 133E 003D3748 CTrigger_DLLClass
       4928 133F 003CC660 CTruck_DLLClass
       4929 1340 003CC8B0 CTurret_DLLClass
       4930 1341 003D4AF8 CVehicle_DLLClass
       4931 1342 003D3948 CVideoHolder_DLLClass
       4932 1343 003D39C8 CVoiceHolder_DLLClass
       4933 1344 003BD3C0 CWatchPlayers_DLLClass
       4934 1345 003BD508 CWatcher_DLLClass
       4935 1346 003D43A0 CWater_DLLClass
       4936 1347 003CE728 CWeaponItem_DLLClass
       4937 1348 003D75E0 CWonHawk_DLLClass
       4938 1349 003D7740 CWonSniper_DLLClass
       4939 134A 003D4B60 CWorldBase_DLLClass
       4940 134B 003D3A40 CWorldLink_DLLClass
       4941 134C 003CD950 CWorldSettingsController_DLLClass
       4942 134D 003C6B48 LamonGenerate_DLLClass

  Summary

       5E000 .data
       C6000 .rdata
       68000 .reloc
      2F4000 .text
