LIBRARY ENGINE 
EXPORTS 
?$TSS0@?1??GetString@CUIManager@@QAEAAVCTString@@J@Z@4HA 
??0?$CSingletonBase@VActorMgr@@@@IAE@XZ 
??0?$CSingletonBase@VActorMgr@@@@QAE@ABV0@@Z 
??0?$CSingletonBase@VCBackImageManager@@@@IAE@XZ 
??0?$CSingletonBase@VCBackImageManager@@@@QAE@ABV0@@Z 
??0?$CSingletonBase@VCInterfaceSymbol@@@@IAE@XZ 
??0?$CSingletonBase@VCInterfaceSymbol@@@@QAE@ABV0@@Z 
??0?$CSingletonBase@VCInvenData@@@@IAE@XZ 
??0?$CSingletonBase@VCInvenData@@@@QAE@ABV0@@Z 
??0?$CSingletonBase@VCJobInfo@@@@IAE@XZ 
??0?$CSingletonBase@VCJobInfo@@@@QAE@ABV0@@Z 
??0?$CSingletonBase@VCLoadingImage@@@@IAE@XZ 
??0?$CSingletonBase@VCLoadingImage@@@@QAE@ABV0@@Z 
??0?$CSingletonBase@VCLoginJobInfo@@@@IAE@XZ 
??0?$CSingletonBase@VCLoginJobInfo@@@@QAE@ABV0@@Z 
??0?$CSingletonBase@VCNoticeData@@@@IAE@XZ 
??0?$CSingletonBase@VCNoticeData@@@@QAE@ABV0@@Z 
??0?$CSingletonBase@VCUIFocus@@@@IAE@XZ 
??0?$CSingletonBase@VCUIFocus@@@@QAE@ABV0@@Z 
??0?$CSingletonBase@VCUIManager@@@@IAE@XZ 
??0?$CSingletonBase@VCUIManager@@@@QAE@ABV0@@Z 
??0?$CSingletonBase@VCUISkillToolTip@@@@IAE@XZ 
??0?$CSingletonBase@VCUISkillToolTip@@@@QAE@ABV0@@Z 
??0?$CSingletonBase@VCUISupport@@@@IAE@XZ 
??0?$CSingletonBase@VCUISupport@@@@QAE@ABV0@@Z 
??0?$CSingletonBase@VCUITooltipMgr@@@@IAE@XZ 
??0?$CSingletonBase@VCUITooltipMgr@@@@QAE@ABV0@@Z 
??0?$CSingletonBase@VCWebAddress@@@@IAE@XZ 
??0?$CSingletonBase@VCWebAddress@@@@QAE@ABV0@@Z 
??0?$CSingletonBase@VCZoneInfo@@@@IAE@XZ 
??0?$CSingletonBase@VCZoneInfo@@@@QAE@ABV0@@Z 
??0?$CSingletonBase@VGameDataManager@@@@IAE@XZ 
??0?$CSingletonBase@VGameDataManager@@@@QAE@ABV0@@Z 
??0?$CSingletonBase@VMsgBoxMgr@@@@IAE@XZ 
??0?$CSingletonBase@VMsgBoxMgr@@@@QAE@ABV0@@Z 
??0?$CSingletonBase@VMyInfo@@@@IAE@XZ 
??0?$CSingletonBase@VMyInfo@@@@QAE@ABV0@@Z 
??0?$CSingletonBase@VObjInfo@@@@IAE@XZ 
??0?$CSingletonBase@VObjInfo@@@@QAE@ABV0@@Z 
??0?$CSingletonBase@VServerInfo@@@@IAE@XZ 
??0?$CSingletonBase@VServerInfo@@@@QAE@ABV0@@Z 
??0?$CSingletonBase@VStageMgr@@@@IAE@XZ 
??0?$CSingletonBase@VStageMgr@@@@QAE@ABV0@@Z 
??0?$CSingletonBase@VStringLoader@@@@IAE@XZ 
??0?$CSingletonBase@VStringLoader@@@@QAE@ABV0@@Z 
??0?$CSingletonBase@VUIFactory@@@@IAE@XZ 
??0?$CSingletonBase@VUIFactory@@@@QAE@ABV0@@Z 
??0?$CSingletonBase@VUtilHelp@@@@IAE@XZ 
??0?$CSingletonBase@VUtilHelp@@@@QAE@ABV0@@Z 
??0?$queue@EV?$deque@EV?$allocator@E@std@@@std@@@std@@QAE@$$QAV01@@Z 
??0?$queue@EV?$deque@EV?$allocator@E@std@@@std@@@std@@QAE@$$QAV?$deque@EV?$allocator@E@std@@@1@@Z 
??0?$queue@EV?$deque@EV?$allocator@E@std@@@std@@@std@@QAE@ABV01@@Z 
??0?$queue@EV?$deque@EV?$allocator@E@std@@@std@@@std@@QAE@ABV?$deque@EV?$allocator@E@std@@@1@@Z 
??0?$queue@EV?$deque@EV?$allocator@E@std@@@std@@@std@@QAE@XZ 
??0ActorMgr@@QAE@ABV0@@Z 
??0ActorMgr@@QAE@XZ 
??0ByteQueueData@@QAE@ABV0@@Z 
??0ByteQueueData@@QAE@XZ 
??0CAffinityData@@QAE@ABV0@@Z 
??0CAffinityData@@QAE@XZ 
??0CAnimData@@QAE@XZ 
??0CAnimEffect@@QAE@ABV0@@Z 
??0CAnimEffect@@QAE@ABVCTString@@@Z 
??0CAnimEffect@@QAE@XZ 
??0CAnimObject@@QAE@XZ 
??0CAnimSet@@QAE@ABV0@@Z 
??0CAnimSet@@QAE@XZ 
??0CAnyProjection3D@@QAE@ABV0@@Z 
??0CAnyProjection3D@@QAE@XZ 
??0CAttachedModel@@QAE@ABV0@@Z 
??0CAttachedModel@@QAE@XZ 
??0CAttachedModelPosition@@QAE@XZ 
??0CAttachedSound@@QAE@$$QAV0@@Z 
??0CAttachedSound@@QAE@ABV0@@Z 
??0CAttachedSound@@QAE@XZ 
??0CAttachmentModelObject@@QAE@$$QAV0@@Z 
??0CAttachmentModelObject@@QAE@ABV0@@Z 
??0CAttachmentModelObject@@QAE@XZ 
??0CAutoPrecacheModel@@QAE@XZ 
??0CAutoPrecacheSound@@QAE@XZ 
??0CAutoPrecacheTexture@@QAE@XZ 
??0CBoolDefaultFalse@@QAE@XZ 
??0CBrush3D@@QAE@ABV0@@Z 
??0CBrush3D@@QAE@XZ 
??0CBrushArchive@@QAE@$$QAV0@@Z 
??0CBrushArchive@@QAE@AAV0@@Z 
??0CBrushArchive@@QAE@XZ 
??0CBrushBase@@QAE@$$QAV0@@Z 
??0CBrushBase@@QAE@ABV0@@Z 
??0CBrushBase@@QAE@XZ 
??0CBrushEdge@@QAE@PAVCBrushVertex@@0@Z 
??0CBrushEdge@@QAE@XZ 
??0CBrushMip@@QAE@$$QAV0@@Z 
??0CBrushMip@@QAE@AAV0@@Z 
??0CBrushMip@@QAE@XZ 
??0CBrushPlane@@QAE@XZ 
??0CBrushPolygon@@QAE@ABV0@@Z 
??0CBrushPolygon@@QAE@XZ 
??0CBrushPolygonTexture@@QAE@$$QAV0@@Z 
??0CBrushPolygonTexture@@QAE@ABV0@@Z 
??0CBrushPolygonTexture@@QAE@XZ 
??0CBrushSector@@QAE@ABV0@@Z 
??0CBrushSector@@QAE@XZ 
??0CBrushShadowLayer@@QAE@ABV0@@Z 
??0CBrushShadowLayer@@QAE@XZ 
??0CBrushShadowMap@@QAE@ABV0@@Z 
??0CBrushShadowMap@@QAE@XZ 
??0CBrushVertex@@QAE@XZ 
??0CCameraEffect@@IAE@ABV0@@Z 
??0CCameraEffect@@QAE@XZ 
??0CCashShopData@@QAE@ABV0@@Z 
??0CCashShopData@@QAE@XZ 
??0CCastRay@@QAE@PAVCEntity@@ABV?$Vector@M$02@@1@Z 
??0CCastRay@@QAE@PAVCEntity@@ABVCPlacement3D@@@Z 
??0CCastRay@@QAE@PAVCEntity@@ABVCPlacement3D@@M@Z 
??0CChangeable@@QAE@XZ 
??0CChangeableRT@@QAE@XZ 
??0CCharacterTarget@@QAE@ABV0@@Z 
??0CCharacterTarget@@QAE@XZ 
??0CChunkID@@QAE@PBD@Z 
??0CCollisionInfo@@QAE@ABV0@@Z 
??0CCollisionInfo@@QAE@XZ 
??0CCommunicationInterface@@QAE@ABV0@@Z 
??0CCommunicationInterface@@QAE@XZ 
??0CContentType@@QAE@$$QAV0@@Z 
??0CContentType@@QAE@ABV0@@Z 
??0CContentType@@QAE@XZ 
??0CDamageLogInfo@@QAE@ABV0@@Z 
??0CDamageLogInfo@@QAE@XZ 
??0CDisplayMode@@QAE@XZ 
??0CDrawPort@@QAE@PAV0@ABV?$AABBox@J$01@@@Z 
??0CDrawPort@@QAE@PAV0@J@Z 
??0CDrawPort@@QAE@PAV0@NNNN@Z 
??0CDrawPort@@QAE@PBV0@@Z 
??0CDrawPort@@QAE@XZ 
??0CEditModel@@QAE@AAV0@@Z 
??0CEditModel@@QAE@XZ 
??0CEffect@@IAE@AAV0@@Z 
??0CEffect@@QAE@XZ 
??0CEffectControl@@QAE@ABV0@@Z 
??0CEffectControl@@QAE@XZ 
??0CEffectGroup@@IAE@ABV0@@Z 
??0CEffectGroup@@QAE@XZ 
??0CEffectGroupManager@@AAE@XZ 
??0CEffectGroupManager@@QAE@ABV0@@Z 
??0CEffectManager@@AAE@XZ 
??0CEffectManager@@QAE@ABV0@@Z 
??0CEntity@@QAE@ABV0@@Z 
??0CEntity@@QAE@XZ 
??0CEntityClass@@QAE@ABV0@@Z 
??0CEntityClass@@QAE@PAVCDLLEntityClass@@@Z 
??0CEntityClass@@QAE@XZ 
??0CEntityComponent@@QAE@$$QAV0@@Z 
??0CEntityComponent@@QAE@ABV0@@Z 
??0CEntityComponent@@QAE@W4EntityComponentType@@KKPAD@Z 
??0CEntityComponent@@QAE@XZ 
??0CEntityEffect@@IAE@ABV0@@Z 
??0CEntityEffect@@QAE@XZ 
??0CEntityEvent@@QAE@ABV0@@Z 
??0CEntityEvent@@QAE@J@Z 
??0CEntityID@@QAE@ABV0@@Z 
??0CEntityID@@QAE@PAVCEntity@@@Z 
??0CEntityID@@QAE@XZ 
??0CEntityMessage@@QAE@ABV0@@Z 
??0CEntityMessage@@QAE@XZ 
??0CEntityProperty@@QAE@W4PropertyType@0@PAVCEntityPropertyEnumType@@KJPADDKK@Z 
??0CEntityProperty@@QAE@XZ 
??0CEntityTag@@QAE@AAVCTag@@@Z 
??0CEntityTag@@QAE@ABV0@@Z 
??0CEntityTag@@QAE@XZ 
??0CEnvironmentType@@QAE@$$QAV0@@Z 
??0CEnvironmentType@@QAE@ABV0@@Z 
??0CEnvironmentType@@QAE@XZ 
??0CFieldSettings@@QAE@$$QAV0@@Z 
??0CFieldSettings@@QAE@ABV0@@Z 
??0CFieldSettings@@QAE@XZ 
??0CFileNameNode@@QAE@$$QAV0@@Z 
??0CFileNameNode@@QAE@ABV0@@Z 
??0CFileNameNode@@QAE@PBDPAVCListHead@@@Z 
??0CFontCharData@@QAE@XZ 
??0CFontData@@QAE@ABV0@@Z 
??0CFontData@@QAE@XZ 
??0CGameState@@QAE@ABV0@@Z 
??0CGameState@@QAE@XZ 
??0CGfxLibrary@@QAE@ABV0@@Z 
??0CGfxLibrary@@QAE@XZ 
??0CGroupTag@@QAE@AAVCTag@@@Z 
??0CGroupTag@@QAE@ABV0@@Z 
??0CGroupTag@@QAE@XZ 
??0CIlluminationType@@QAE@$$QAV0@@Z 
??0CIlluminationType@@QAE@ABV0@@Z 
??0CIlluminationType@@QAE@XZ 
??0CImageInfo@@QAE@XZ 
??0CInput@@QAE@XZ 
??0CInputDevice@@QAE@ABV0@@Z 
??0CInputDevice@@QAE@XZ 
??0CInterfaceSymbol@@QAE@$$QAV0@@Z 
??0CInterfaceSymbol@@QAE@ABV0@@Z 
??0CInterfaceSymbol@@QAE@XZ 
??0CIntersector@@QAE@MM@Z 
??0CInvenData@@QAE@ABV0@@Z 
??0CInvenData@@QAE@XZ 
??0CIsometricProjection3D@@QAE@$$QAV0@@Z 
??0CIsometricProjection3D@@QAE@ABV0@@Z 
??0CIsometricProjection3D@@QAE@XZ 
??0CItemData@@QAE@ABV0@@Z 
??0CItemData@@QAE@XZ 
??0CItemEffect@@QAE@ABV0@@Z 
??0CItemEffect@@QAE@XZ 
??0CItemTarget@@QAE@ABV0@@Z 
??0CItemTarget@@QAE@XZ 
??0CJobInfo@@QAE@ABV0@@Z 
??0CJobInfo@@QAE@XZ 
??0CLastPositions@@QAE@ABV0@@Z 
??0CLastPositions@@QAE@XZ 
??0CLensFlareType@@QAE@XZ 
??0CLightEffect@@QAE@AAV0@@Z 
??0CLightEffect@@QAE@XZ 
??0CLightSource@@QAE@ABV0@@Z 
??0CLightSource@@QAE@XZ 
??0CListHead@@QAE@ABV0@@Z 
??0CListHead@@QAE@XZ 
??0CListNode@@QAE@ABV0@@Z 
??0CListNode@@QAE@XZ 
??0CLiveEntity@@QAE@$$QAV0@@Z 
??0CLiveEntity@@QAE@ABV0@@Z 
??0CLiveEntity@@QAE@XZ 
??0CLoadingImage@@QAE@ABV0@@Z 
??0CLoadingImage@@QAE@XZ 
??0CLoginJobInfo@@QAE@ABV0@@Z 
??0CLoginJobInfo@@QAE@XZ 
??0CMappingDefinition@@QAE@XZ 
??0CMappingUndo@@QAE@$$QAV0@@Z 
??0CMappingUndo@@QAE@ABV0@@Z 
??0CMappingUndo@@QAE@XZ 
??0CMappingVectors@@QAE@XZ 
??0CMdlEffect@@IAE@AAV0@@Z 
??0CMdlEffect@@QAE@XZ 
??0CMesh@@QAE@ABV0@@Z 
??0CMesh@@QAE@XZ 
??0CMessageDispatcher@@QAE@ABV0@@Z 
??0CMessageDispatcher@@QAE@XZ 
??0CMissionCase@@QAE@$$QAV0@@Z 
??0CMissionCase@@QAE@ABV0@@Z 
??0CMissionCase@@QAE@XZ 
??0CMobData@@QAE@ABV0@@Z 
??0CMobData@@QAE@XZ 
??0CMobHelp@@QAE@XZ 
??0CMobTarget@@QAE@ABV0@@Z 
??0CMobTarget@@QAE@XZ 
??0CModelCollisionBox@@QAE@$$QAV0@@Z 
??0CModelCollisionBox@@QAE@ABV0@@Z 
??0CModelCollisionBox@@QAE@XZ 
??0CModelData@@QAE@ABV0@@Z 
??0CModelData@@QAE@XZ 
??0CModelInfo@@QAE@$$QAV0@@Z 
??0CModelInfo@@QAE@ABV0@@Z 
??0CModelInfo@@QAE@XZ 
??0CModelInstance@@QAE@AAV0@@Z 
??0CModelInstance@@QAE@XZ 
??0CModelInstanceSerial@@QAE@ABV0@@Z 
??0CModelInstanceSerial@@QAE@XZ 
??0CModelObject@@QAE@ABV0@@Z 
??0CModelObject@@QAE@XZ 
??0CModelPatch@@QAE@$$QAV0@@Z 
??0CModelPatch@@QAE@ABV0@@Z 
??0CModelPatch@@QAE@XZ 
??0CModelRenderPrefs@@QAE@XZ 
??0CMovableBrushEntity@@QAE@$$QAV0@@Z 
??0CMovableBrushEntity@@QAE@ABV0@@Z 
??0CMovableBrushEntity@@QAE@XZ 
??0CMovableEntity@@QAE@ABV0@@Z 
??0CMovableEntity@@QAE@XZ 
??0CMovableModelEntity@@QAE@$$QAV0@@Z 
??0CMovableModelEntity@@QAE@ABV0@@Z 
??0CMovableModelEntity@@QAE@XZ 
??0CMovingSphere@@QAE@XZ 
??0CNetworkLibrary@@QAE@XZ 
??0CNetworkMessage@@QAE@ABV0@@Z 
??0CNetworkMessage@@QAE@E@Z 
??0CNetworkMessage@@QAE@XZ 
??0CNetworkProvider@@QAE@$$QAV0@@Z 
??0CNetworkProvider@@QAE@ABV0@@Z 
??0CNetworkProvider@@QAE@XZ 
??0CNetworkSession@@QAE@$$QAV0@@Z 
??0CNetworkSession@@QAE@ABV0@@Z 
??0CNetworkSession@@QAE@ABVCTString@@@Z 
??0CNetworkSession@@QAE@XZ 
??0CNiceWater@@QAE@ABV0@@Z 
??0CNiceWater@@QAE@PAVCEntity@@@Z 
??0CNiceWater@@QAE@XZ 
??0CNpcHelp@@QAE@XZ 
??0CObject3D@@QAE@AAV0@@Z 
??0CObject3D@@QAE@XZ 
??0CObjectPolygon@@QAE@$$QAV0@@Z 
??0CObjectPolygon@@QAE@AAV0@@Z 
??0CObjectPolygon@@QAE@XZ 
??0CObjectPolygonEdge@@QAE@PAVCObjectEdge@@@Z 
??0CObjectPolygonEdge@@QAE@PAVCObjectEdge@@H@Z 
??0CObjectPolygonEdge@@QAE@XZ 
??0CObjectSector@@QAE@XZ 
??0COneLensFlare@@QAE@$$QAV0@@Z 
??0COneLensFlare@@QAE@ABV0@@Z 
??0COneLensFlare@@QAE@XZ 
??0COptionData@@QAE@$$QAV0@@Z 
??0COptionData@@QAE@ABV0@@Z 
??0COptionData@@QAE@XZ 
??0COrbitEffect@@IAE@ABV0@@Z 
??0COrbitEffect@@QAE@XZ 
??0CParallelProjection3D@@QAE@$$QAV0@@Z 
??0CParallelProjection3D@@QAE@ABV0@@Z 
??0CParallelProjection3D@@QAE@XZ 
??0CParticle@@QAE@XZ 
??0CParticleEffect@@IAE@AAV0@@Z 
??0CParticleEffect@@QAE@XZ 
??0CParticleGroup@@QAE@ABV0@@Z 
??0CParticleGroup@@QAE@XZ 
??0CParticleGroupManager@@AAE@XZ 
??0CParticleGroupManager@@QAE@ABV0@@Z 
??0CParticlePrototype@@QAE@XZ 
??0CParticles@@QAE@$$QAV0@@Z 
??0CParticles@@QAE@ABV0@@Z 
??0CParticles@@QAE@XZ 
??0CParticlesAbsorption@@QAE@ABV0@@Z 
??0CParticlesAbsorption@@QAE@XZ 
??0CParticlesAbsorptionDefault@@QAE@ABV0@@Z 
??0CParticlesAbsorptionDefault@@QAE@XZ 
??0CParticlesAbsorptionSphere@@QAE@ABV0@@Z 
??0CParticlesAbsorptionSphere@@QAE@XZ 
??0CParticlesCommonProcess@@QAE@ABV0@@Z 
??0CParticlesCommonProcess@@QAE@XZ 
??0CParticlesEmitter@@QAE@ABV0@@Z 
??0CParticlesEmitter@@QAE@XZ 
??0CParticlesEmitterCone@@QAE@ABV0@@Z 
??0CParticlesEmitterCone@@QAE@XZ 
??0CParticlesEmitterCylinder@@QAE@ABV0@@Z 
??0CParticlesEmitterCylinder@@QAE@XZ 
??0CParticlesEmitterSphere@@QAE@ABV0@@Z 
??0CParticlesEmitterSphere@@QAE@XZ 
??0CParticlesProcessControl@@QAE@$$QAV0@@Z 
??0CParticlesProcessControl@@QAE@ABV0@@Z 
??0CParticlesProcessControl@@QAE@XZ 
??0CParticlesProcessDynamicState@@QAE@ABV0@@Z 
??0CParticlesProcessDynamicState@@QAE@XZ 
??0CParticlesProcessForce@@QAE@$$QAV0@@Z 
??0CParticlesProcessForce@@QAE@ABV0@@Z 
??0CParticlesProcessForce@@QAE@XZ 
??0CParticlesProcessPointGoal@@QAE@$$QAV0@@Z 
??0CParticlesProcessPointGoal@@QAE@ABV0@@Z 
??0CParticlesProcessPointGoal@@QAE@XZ 
??0CParticlesProcessVelocity@@QAE@$$QAV0@@Z 
??0CParticlesProcessVelocity@@QAE@ABV0@@Z 
??0CParticlesProcessVelocity@@QAE@XZ 
??0CPerspectiveProjection3D@@QAE@ABV0@@Z 
??0CPerspectiveProjection3D@@QAE@XZ 
??0CPetInfo@@QAE@XZ 
??0CPetTarget@@QAE@ABV0@@Z 
??0CPetTarget@@QAE@XZ 
??0CPlacement3D@@QAE@ABV?$Vector@M$02@@0@Z 
??0CPlacement3D@@QAE@XZ 
??0CPlayerAction@@QAE@XZ 
??0CPlayerCharacter@@QAE@ABV0@@Z 
??0CPlayerCharacter@@QAE@ABVCTString@@@Z 
??0CPlayerCharacter@@QAE@XZ 
??0CPlayerEntity@@QAE@$$QAV0@@Z 
??0CPlayerEntity@@QAE@ABV0@@Z 
??0CPlayerEntity@@QAE@XZ 
??0CPlayerSource@@QAE@ABV0@@Z 
??0CPlayerSource@@QAE@XZ 
??0CProgressRoutines@@QAE@XZ 
??0CProjection3D@@QAE@$$QAV0@@Z 
??0CProjection3D@@QAE@ABV0@@Z 
??0CProjection3D@@QAE@XZ 
??0CQuestDynamicData@@QAE@PAVCQuestStaticData@@@Z 
??0CQuestSystem@@IAE@XZ 
??0CQuestSystem@@QAE@ABV0@@Z 
??0CRandomTable@@IAE@XZ 
??0CRationalEntity@@QAE@$$QAV0@@Z 
??0CRationalEntity@@QAE@ABV0@@Z 
??0CRationalEntity@@QAE@XZ 
??0CRelationDst@@QAE@XZ 
??0CRelationSrc@@QAE@XZ 
??0CRenderModel@@QAE@XZ 
??0CRenderTexture@@QAE@ABV0@@Z 
??0CRenderTexture@@QAE@XZ 
??0CSelectedEntities@@QAE@$$QAV0@@Z 
??0CSelectedEntities@@QAE@ABV0@@Z 
??0CSelectedEntities@@QAE@XZ 
??0CSerial@@QAE@ABV0@@Z 
??0CSerial@@QAE@XZ 
??0CServer@@QAE@ABV0@@Z 
??0CServer@@QAE@XZ 
??0CSessionState@@QAE@ABV0@@Z 
??0CSessionState@@QAE@XZ 
??0CSetFPUPrecision@@QAE@W4FPUPrecisionType@@@Z 
??0CShader@@QAE@ABV0@@Z 
??0CShader@@QAE@P6AXXZP6AXAAPAUShaderDesc@@@ZP6AXAAVCTString@@J@ZP6AX3JW4FOGTYPE@@@Z@Z 
??0CShader@@QAE@XZ 
??0CShadingInfo@@QAE@$$QAV0@@Z 
??0CShadingInfo@@QAE@ABV0@@Z 
??0CShadingInfo@@QAE@XZ 
??0CShadowMap@@QAE@ABV0@@Z 
??0CShadowMap@@QAE@XZ 
??0CShell@@QAE@AAV0@@Z 
??0CShell@@QAE@XZ 
??0CShockWaveEffect@@IAE@ABV0@@Z 
??0CShockWaveEffect@@QAE@XZ 
??0CShopData@@QAE@ABV0@@Z 
??0CShopData@@QAE@XZ 
??0CSimpleProjection3D@@QAE@$$QAV0@@Z 
??0CSimpleProjection3D@@QAE@ABV0@@Z 
??0CSimpleProjection3D@@QAE@XZ 
??0CSimpleProjection3D_DOUBLE@@QAE@XZ 
??0CSkaEffect@@IAE@AAV0@@Z 
??0CSkaEffect@@QAE@XZ 
??0CSkaTag@@QAE@AAVCTag@@@Z 
??0CSkaTag@@QAE@ABV0@@Z 
??0CSkaTag@@QAE@XZ 
??0CSkeleton@@QAE@ABV0@@Z 
??0CSkeleton@@QAE@XZ 
??0CSlaveInfo@@QAE@ABV0@@Z 
??0CSlaveInfo@@QAE@XZ 
??0CSlaveTarget@@QAE@ABV0@@Z 
??0CSlaveTarget@@QAE@XZ 
??0CSoundData@@QAE@ABV0@@Z 
??0CSoundData@@QAE@XZ 
??0CSoundEffect@@IAE@AAV0@@Z 
??0CSoundEffect@@QAE@XZ 
??0CSoundLibrary@@QAE@XZ 
??0CSoundObject@@QAE@ABV0@@Z 
??0CSoundObject@@QAE@XZ 
??0CSplineBillboardEffect@@IAE@AAV0@@Z 
??0CSplineBillboardEffect@@QAE@XZ 
??0CSplinePathEffect@@IAE@ABV0@@Z 
??0CSplinePathEffect@@QAE@XZ 
??0CStatusEffect@@QAE@ABV0@@Z 
??0CStatusEffect@@QAE@XZ 
??0CSurfaceType@@QAE@$$QAV0@@Z 
??0CSurfaceType@@QAE@ABV0@@Z 
??0CSurfaceType@@QAE@XZ 
??0CTCriticalSection@@QAE@XZ 
??0CTFileName@@QAE@$$QAV0@@Z 
??0CTFileName@@QAE@ABV0@@Z 
??0CTFileName@@QAE@ABVCTString@@@Z 
??0CTFileName@@QAE@PBD@Z 
??0CTFileName@@QAE@PBDH@Z 
??0CTFileName@@QAE@XZ 
??0CTFileStream@@QAE@AAV0@@Z 
??0CTFileStream@@QAE@XZ 
??0CTMemoryStream@@QAE@AAV0@@Z 
??0CTMemoryStream@@QAE@PAXJW4OpenMode@CTStream@@@Z 
??0CTMemoryStream@@QAE@XZ 
??0CTSingleLock@@QAE@PAVCTCriticalSection@@H@Z 
??0CTStream@@QAE@AAV0@@Z 
??0CTStream@@QAE@XZ 
??0CTString@@QAA@JPBDZZ 
??0CTString@@QAE@ABV0@@Z 
??0CTString@@QAE@PBD@Z 
??0CTString@@QAE@PBG@Z 
??0CTString@@QAE@XZ 
??0CTWString@@QAE@ABV0@@Z 
??0CTWString@@QAE@PBD@Z 
??0CTWString@@QAE@PBG@Z 
??0CTWString@@QAE@XZ 
??0CTag@@QAE@ABV0@@Z 
??0CTag@@QAE@XZ 
??0CTagManager@@QAE@ABV0@@Z 
??0CTagManager@@QAE@XZ 
??0CTerrain@@QAE@ABV0@@Z 
??0CTerrain@@QAE@XZ 
??0CTerrainArchive@@QAE@$$QAV0@@Z 
??0CTerrainArchive@@QAE@AAV0@@Z 
??0CTerrainArchive@@QAE@XZ 
??0CTerrainEffect@@QAE@AAV0@@Z 
??0CTerrainEffect@@QAE@XZ 
??0CTerrainLayer@@QAE@ABV0@@Z 
??0CTerrainLayer@@QAE@XZ 
??0CTextureBlending@@QAE@$$QAV0@@Z 
??0CTextureBlending@@QAE@ABV0@@Z 
??0CTextureBlending@@QAE@XZ 
??0CTextureData@@QAE@ABV0@@Z 
??0CTextureData@@QAE@XZ 
??0CTextureDataInfo@@QAE@$$QAV0@@Z 
??0CTextureDataInfo@@QAE@ABV0@@Z 
??0CTextureDataInfo@@QAE@XZ 
??0CTextureObject@@QAE@$$QAV0@@Z 
??0CTextureObject@@QAE@ABV0@@Z 
??0CTextureObject@@QAE@XZ 
??0CTextureTransformation@@QAE@$$QAV0@@Z 
??0CTextureTransformation@@QAE@ABV0@@Z 
??0CTextureTransformation@@QAE@XZ 
??0CThumbnailSettings@@QAE@$$QAV0@@Z 
??0CThumbnailSettings@@QAE@ABV0@@Z 
??0CThumbnailSettings@@QAE@XZ 
??0CTimer@@QAE@ABV0@@Z 
??0CTimer@@QAE@H@Z 
??0CTraceEffect@@IAE@AAV0@@Z 
??0CTraceEffect@@QAE@XZ 
??0CTransformInfo@@QAE@XZ 
??0CUIArray@@QAE@ABV0@@Z 
??0CUIArray@@QAE@XZ 
??0CUIArrayItem@@QAE@$$QAV0@@Z 
??0CUIArrayItem@@QAE@ABV0@@Z 
??0CUIArrayItem@@QAE@XZ 
??0CUIAutoHelp@@QAE@ABV0@@Z 
??0CUIAutoHelp@@QAE@XZ 
??0CUIBase@@QAE@ABV0@@Z 
??0CUIBase@@QAE@XZ 
??0CUIButton@@QAE@ABV0@@Z 
??0CUIButton@@QAE@XZ 
??0CUICashShopEX@@QAE@ABV0@@Z 
??0CUICashShopEX@@QAE@PBD@Z 
??0CUICharacterCreateNew@@QAE@ABV0@@Z 
??0CUICharacterCreateNew@@QAE@XZ 
??0CUICharacterInfo@@QAE@ABV0@@Z 
??0CUICharacterInfo@@QAE@XZ 
??0CUICheckButton@@QAE@$$QAV0@@Z 
??0CUICheckButton@@QAE@ABV0@@Z 
??0CUICheckButton@@QAE@XZ 
??0CUIComboBox@@QAE@ABV0@@Z 
??0CUIComboBox@@QAE@XZ 
??0CUIEditBox@@QAE@ABV0@@Z 
??0CUIEditBox@@QAE@XZ 
??0CUIExpressSystem@@QAE@ABV0@@Z 
??0CUIExpressSystem@@QAE@XZ 
??0CUIFocus@@QAE@ABV0@@Z 
??0CUIFocus@@QAE@XZ 
??0CUIGuildBattle@@QAE@ABV0@@Z 
??0CUIGuildBattle@@QAE@XZ 
??0CUIIcon@@QAE@ABV0@@Z 
??0CUIIcon@@QAE@XZ 
??0CUIImage@@QAE@ABV0@@Z 
??0CUIImage@@QAE@XZ 
??0CUIImageArray@@QAE@ABV0@@Z 
??0CUIImageArray@@QAE@XZ 
??0CUIImageBox@@QAE@ABV0@@Z 
??0CUIImageBox@@QAE@XZ 
??0CUIImageFont@@QAE@ABV0@@Z 
??0CUIImageFont@@QAE@XZ 
??0CUIImageSplit@@QAE@ABV0@@Z 
??0CUIImageSplit@@QAE@XZ 
??0CUIImageText@@QAE@$$QAV0@@Z 
??0CUIImageText@@QAE@ABV0@@Z 
??0CUIImageText@@QAE@XZ 
??0CUIList@@QAE@ABV0@@Z 
??0CUIList@@QAE@XZ 
??0CUIListBox@@QAE@ABV0@@Z 
??0CUIListBox@@QAE@XZ 
??0CUIListItem@@QAE@ABV0@@Z 
??0CUIListItem@@QAE@XZ 
??0CUILoginNew@@QAE@ABV0@@Z 
??0CUILoginNew@@QAE@XZ 
??0CUIManager@@AAE@XZ 
??0CUIManager@@QAE@ABV0@@Z 
??0CUIMsgBox_Info@@QAE@ABV0@@Z 
??0CUIMsgBox_Info@@QAE@XZ 
??0CUIMultiLineText@@QAE@ABV0@@Z 
??0CUIMultiLineText@@QAE@XZ 
??0CUIOption@@QAE@ABV0@@Z 
??0CUIOption@@QAE@XZ 
??0CUIPetStashSelectEffect@@QAE@ABV0@@Z 
??0CUIPetStashSelectEffect@@QAE@XZ 
??0CUIProgressBar@@QAE@ABV0@@Z 
??0CUIProgressBar@@QAE@XZ 
??0CUIScrollBar@@QAE@ABV0@@Z 
??0CUIScrollBar@@QAE@XZ 
??0CUISignBoard@@QAE@ABV0@@Z 
??0CUISignBoard@@QAE@XZ 
??0CUISingleBattle@@QAE@ABV0@@Z 
??0CUISingleBattle@@QAE@XZ 
??0CUISlideBar@@QAE@ABV0@@Z 
??0CUISlideBar@@QAE@XZ 
??0CUISpinButton@@QAE@$$QAV0@@Z 
??0CUISpinButton@@QAE@ABV0@@Z 
??0CUISpinButton@@QAE@XZ 
??0CUISpinControl@@QAE@ABV0@@Z 
??0CUISpinControl@@QAE@XZ 
??0CUISpriteAni@@QAE@ABV0@@Z 
??0CUISpriteAni@@QAE@XZ 
??0CUITab@@QAE@ABV0@@Z 
??0CUITab@@QAE@XZ 
??0CUITabPage@@QAE@$$QAV0@@Z 
??0CUITabPage@@QAE@ABV0@@Z 
??0CUITabPage@@QAE@XZ 
??0CUITatoo@@QAE@ABV0@@Z 
??0CUITatoo@@QAE@XZ 
??0CUIText@@QAE@ABV0@@Z 
??0CUIText@@QAE@XZ 
??0CUITextBox@@QAE@ABV0@@Z 
??0CUITextBox@@QAE@XZ 
??0CUITextBoxEx@@QAE@ABV0@@Z 
??0CUITextBoxEx@@QAE@XZ 
??0CUITextEx@@QAE@ABV0@@Z 
??0CUITextEx@@QAE@XZ 
??0CUITree@@QAE@ABV0@@Z 
??0CUITree@@QAE@XZ 
??0CUITreeItem@@QAE@$$QAV0@@Z 
??0CUITreeItem@@QAE@ABV0@@Z 
??0CUITreeItem@@QAE@XZ 
??0CUpdateable@@QAE@XZ 
??0CUpdateableRT@@QAE@XZ 
??0CViewPort@@QAE@ABV0@@Z 
??0CViewPort@@QAE@JJPAUHWND__@@@Z 
??0CWebAddress@@AAE@XZ 
??0CWebAddress@@QAE@ABV0@@Z 
??0CWildPetData@@QAE@XZ 
??0CWildPetTarget@@QAE@ABV0@@Z 
??0CWildPetTarget@@QAE@XZ 
??0CWorld@@QAE@XZ 
??0CWorldRenderPrefs@@QAE@XZ 
??0CWorldTag@@QAE@AAVCTag@@@Z 
??0CWorldTag@@QAE@ABV0@@Z 
??0CWorldTag@@QAE@XZ 
??0CZoneInfo@@QAE@ABV0@@Z 
??0CZoneInfo@@QAE@XZ 
??0CharacterCreateNew@@QAE@ABV0@@Z 
??0CharacterCreateNew@@QAE@XZ 
??0Command@@QAE@$$QAV0@@Z 
??0Command@@QAE@ABV0@@Z 
??0Command@@QAE@XZ 
??0EBegin@@QAE@$$QAV0@@Z 
??0EBegin@@QAE@ABV0@@Z 
??0EBegin@@QAE@XZ 
??0EBlock@@QAE@$$QAV0@@Z 
??0EBlock@@QAE@ABV0@@Z 
??0EBlock@@QAE@XZ 
??0EDamage@@QAE@$$QAV0@@Z 
??0EDamage@@QAE@ABV0@@Z 
??0EDamage@@QAE@XZ 
??0EDeath@@QAE@$$QAV0@@Z 
??0EDeath@@QAE@ABV0@@Z 
??0EDeath@@QAE@XZ 
??0EFirstWorldBase@@QAE@$$QAV0@@Z 
??0EFirstWorldBase@@QAE@ABV0@@Z 
??0EFirstWorldBase@@QAE@XZ 
??0EInternal@@QAE@$$QAV0@@Z 
??0EInternal@@QAE@ABV0@@Z 
??0EInternal@@QAE@XZ 
??0EPass@@QAE@$$QAV0@@Z 
??0EPass@@QAE@ABV0@@Z 
??0EPass@@QAE@XZ 
??0EPlayerInit@@QAE@$$QAV0@@Z 
??0EPlayerInit@@QAE@ABV0@@Z 
??0EPlayerInit@@QAE@XZ 
??0EPostLevelChange@@QAE@$$QAV0@@Z 
??0EPostLevelChange@@QAE@ABV0@@Z 
??0EPostLevelChange@@QAE@XZ 
??0EPreLevelChange@@QAE@$$QAV0@@Z 
??0EPreLevelChange@@QAE@ABV0@@Z 
??0EPreLevelChange@@QAE@XZ 
??0EReturn@@QAE@$$QAV0@@Z 
??0EReturn@@QAE@ABV0@@Z 
??0EReturn@@QAE@XZ 
??0ETakingBreath@@QAE@$$QAV0@@Z 
??0ETakingBreath@@QAE@ABV0@@Z 
??0ETakingBreath@@QAE@XZ 
??0ETeleport@@QAE@$$QAV0@@Z 
??0ETeleport@@QAE@ABV0@@Z 
??0ETeleport@@QAE@XZ 
??0ETimer@@QAE@$$QAV0@@Z 
??0ETimer@@QAE@ABV0@@Z 
??0ETimer@@QAE@XZ 
??0ETouch@@QAE@$$QAV0@@Z 
??0ETouch@@QAE@ABV0@@Z 
??0ETouch@@QAE@XZ 
??0EVoid@@QAE@$$QAV0@@Z 
??0EVoid@@QAE@ABV0@@Z 
??0EVoid@@QAE@XZ 
??0EWouldFall@@QAE@$$QAV0@@Z 
??0EWouldFall@@QAE@ABV0@@Z 
??0EWouldFall@@QAE@XZ 
??0ExpressSystem@@QAE@ABV0@@Z 
??0ExpressSystem@@QAE@XZ 
??0GameDataManager@@QAE@ABV0@@Z 
??0GameDataManager@@QAE@XZ 
??0LoginNew@@QAE@ABV0@@Z 
??0LoginNew@@QAE@XZ 
??0MappingSurface@@QAE@ABU0@@Z 
??0MappingSurface@@QAE@XZ 
??0MeshLOD@@QAE@ABU0@@Z 
??0MeshLOD@@QAE@XZ 
??0MeshMorphMap@@QAE@XZ 
??0MeshSurface@@QAE@XZ 
??0MeshTangent@@QAE@MMM@Z 
??0MeshTangent@@QAE@MMMM@Z 
??0MeshTangent@@QAE@XZ 
??0MeshUVMap@@QAE@XZ 
??0MeshWeightMap@@QAE@XZ 
??0ModelFrameInfo@@QAE@XZ 
??0ModelFrameVertex16@@QAE@XZ 
??0ModelFrameVertex16_old@@QAE@XZ 
??0ModelFrameVertex8@@QAE@XZ 
??0ModelMipInfo@@QAE@XZ 
??0ModelPolygon@@QAE@XZ 
??0ModelTextureVertex@@QAE@XZ 
??0MsgBoxMgr@@QAE@ABV0@@Z 
??0MsgBoxMgr@@QAE@XZ 
??0MyInfo@@QAE@$$QAV0@@Z 
??0MyInfo@@QAE@ABV0@@Z 
??0MyInfo@@QAE@XZ 
??0MyInfoSkill@@QAE@$$QAV0@@Z 
??0MyInfoSkill@@QAE@ABV0@@Z 
??0MyInfoSkill@@QAE@XZ 
??0Notice@@QAE@ABV0@@Z 
??0Notice@@QAE@XZ 
??0ObjInfo@@QAE@$$QAV0@@Z 
??0ObjInfo@@QAE@ABV0@@Z 
??0ObjInfo@@QAE@XZ 
??0Party@@QAE@ABV0@@Z 
??0Party@@QAE@XZ 
??0PetStash@@QAE@ABV0@@Z 
??0PetStash@@QAE@XZ 
??0PolygonsPerPatch@@QAE@XZ 
??0Quest@@QAE@ABV0@@Z 
??0Quest@@QAE@XZ 
??0ServerInfo@@QAE@$$QAV0@@Z 
??0ServerInfo@@QAE@ABV0@@Z 
??0ServerInfo@@QAE@XZ 
??0SkeletonBone@@QAE@XZ 
??0SkeletonLOD@@QAE@$$QAU0@@Z 
??0SkeletonLOD@@QAE@ABU0@@Z 
??0SkeletonLOD@@QAE@XZ 
??0StageMgr@@QAE@ABV0@@Z 
??0StageMgr@@QAE@XZ 
??0TitleStaticData@@QAE@XZ 
??0TransformedVertexData@@QAE@XZ 
??0UIFactory@@QAE@ABV0@@Z 
??0UIFactory@@QAE@XZ 
??0cThreadWrapper@@QAE@P6GIPAX@Z@Z 
??0cWeb@@QAE@XZ 
??1?$CSingletonBase@VActorMgr@@@@MAE@XZ 
??1?$CSingletonBase@VCBackImageManager@@@@MAE@XZ 
??1?$CSingletonBase@VCInterfaceSymbol@@@@MAE@XZ 
??1?$CSingletonBase@VCInvenData@@@@MAE@XZ 
??1?$CSingletonBase@VCJobInfo@@@@MAE@XZ 
??1?$CSingletonBase@VCLoadingImage@@@@MAE@XZ 
??1?$CSingletonBase@VCLoginJobInfo@@@@MAE@XZ 
??1?$CSingletonBase@VCNoticeData@@@@MAE@XZ 
??1?$CSingletonBase@VCUIFocus@@@@MAE@XZ 
??1?$CSingletonBase@VCUIManager@@@@MAE@XZ 
??1?$CSingletonBase@VCUISkillToolTip@@@@MAE@XZ 
??1?$CSingletonBase@VCUISupport@@@@MAE@XZ 
??1?$CSingletonBase@VCUITooltipMgr@@@@MAE@XZ 
??1?$CSingletonBase@VCWebAddress@@@@MAE@XZ 
??1?$CSingletonBase@VCZoneInfo@@@@MAE@XZ 
??1?$CSingletonBase@VGameDataManager@@@@MAE@XZ 
??1?$CSingletonBase@VMsgBoxMgr@@@@MAE@XZ 
??1?$CSingletonBase@VMyInfo@@@@MAE@XZ 
??1?$CSingletonBase@VObjInfo@@@@MAE@XZ 
??1?$CSingletonBase@VServerInfo@@@@MAE@XZ 
??1?$CSingletonBase@VStageMgr@@@@MAE@XZ 
??1?$CSingletonBase@VStringLoader@@@@MAE@XZ 
??1?$CSingletonBase@VUIFactory@@@@MAE@XZ 
??1?$CSingletonBase@VUtilHelp@@@@MAE@XZ 
??1?$queue@EV?$deque@EV?$allocator@E@std@@@std@@@std@@QAE@XZ 
??1ActorMgr@@UAE@XZ 
??1ByteQueueData@@UAE@XZ 
??1CAffinityData@@UAE@XZ 
??1CAnimData@@UAE@XZ 
??1CAnimEffect@@QAE@XZ 
??1CAnimObject@@QAE@XZ 
??1CAnimSet@@UAE@XZ 
??1CAttachedModel@@QAE@XZ 
??1CAttachedSound@@QAE@XZ 
??1CAttachmentModelObject@@QAE@XZ 
??1CAutoPrecacheModel@@QAE@XZ 
??1CAutoPrecacheSound@@QAE@XZ 
??1CAutoPrecacheTexture@@QAE@XZ 
??1CBrush3D@@QAE@XZ 
??1CBrushArchive@@UAE@XZ 
??1CBrushMip@@QAE@XZ 
??1CBrushPolygon@@QAE@XZ 
??1CBrushPolygonTexture@@QAE@XZ 
??1CBrushSector@@QAE@XZ 
??1CBrushShadowLayer@@QAE@XZ 
??1CBrushShadowMap@@QAE@XZ 
??1CCameraEffect@@UAE@XZ 
??1CCashShopData@@QAE@XZ 
??1CCastRay@@QAE@XZ 
??1CCharacterTarget@@UAE@XZ 
??1CCollisionInfo@@QAE@XZ 
??1CCommunicationInterface@@QAE@XZ 
??1CContentType@@QAE@XZ 
??1CDamageLogInfo@@UAE@XZ 
??1CDrawPort@@QAE@XZ 
??1CEditModel@@UAE@XZ 
??1CEffect@@UAE@XZ 
??1CEffectControl@@UAE@XZ 
??1CEffectGroup@@QAE@XZ 
??1CEffectGroupManager@@QAE@XZ 
??1CEffectManager@@QAE@XZ 
??1CEntity@@UAE@XZ 
??1CEntityClass@@UAE@XZ 
??1CEntityComponent@@QAE@XZ 
??1CEntityEffect@@UAE@XZ 
??1CEntityEvent@@UAE@XZ 
??1CEntityID@@QAE@XZ 
??1CEntityMessage@@QAE@XZ 
??1CEntityTag@@UAE@XZ 
??1CEnvironmentType@@QAE@XZ 
??1CFieldSettings@@QAE@XZ 
??1CFileNameNode@@QAE@XZ 
??1CFontData@@UAE@XZ 
??1CGameState@@QAE@XZ 
??1CGfxLibrary@@QAE@XZ 
??1CGroupTag@@UAE@XZ 
??1CIlluminationType@@QAE@XZ 
??1CImageInfo@@QAE@XZ 
??1CInput@@QAE@XZ 
??1CInputDevice@@QAE@XZ 
??1CInterfaceSymbol@@UAE@XZ 
??1CInvenData@@UAE@XZ 
??1CItemData@@QAE@XZ 
??1CItemEffect@@QAE@XZ 
??1CItemTarget@@UAE@XZ 
??1CJobInfo@@UAE@XZ 
??1CLastPositions@@QAE@XZ 
??1CLensFlareType@@QAE@XZ 
??1CLightEffect@@UAE@XZ 
??1CLightSource@@QAE@XZ 
??1CListNode@@QAE@XZ 
??1CLiveEntity@@UAE@XZ 
??1CLoadingImage@@UAE@XZ 
??1CLoginJobInfo@@UAE@XZ 
??1CMappingUndo@@QAE@XZ 
??1CMdlEffect@@UAE@XZ 
??1CMesh@@UAE@XZ 
??1CMessageDispatcher@@QAE@XZ 
??1CMissionCase@@QAE@XZ 
??1CMobData@@QAE@XZ 
??1CMobTarget@@UAE@XZ 
??1CModelCollisionBox@@QAE@XZ 
??1CModelData@@UAE@XZ 
??1CModelInfo@@QAE@XZ 
??1CModelInstance@@QAE@XZ 
??1CModelInstanceSerial@@UAE@XZ 
??1CModelObject@@QAE@XZ 
??1CModelPatch@@QAE@XZ 
??1CMovableBrushEntity@@UAE@XZ 
??1CMovableEntity@@UAE@XZ 
??1CMovableModelEntity@@UAE@XZ 
??1CNetworkLibrary@@QAE@XZ 
??1CNetworkMessage@@QAE@XZ 
??1CNetworkProvider@@QAE@XZ 
??1CNetworkSession@@QAE@XZ 
??1CNiceWater@@UAE@XZ 
??1CObject3D@@QAE@XZ 
??1CObjectPolygon@@QAE@XZ 
??1CObjectSector@@QAE@XZ 
??1COneLensFlare@@QAE@XZ 
??1COptionData@@QAE@XZ 
??1COrbitEffect@@UAE@XZ 
??1CParticleEffect@@UAE@XZ 
??1CParticleGroup@@QAE@XZ 
??1CParticleGroupManager@@QAE@XZ 
??1CParticles@@QAE@XZ 
??1CParticlesAbsorption@@UAE@XZ 
??1CParticlesAbsorptionDefault@@UAE@XZ 
??1CParticlesAbsorptionSphere@@UAE@XZ 
??1CParticlesCommonProcess@@UAE@XZ 
??1CParticlesEmitter@@UAE@XZ 
??1CParticlesEmitterCone@@UAE@XZ 
??1CParticlesEmitterCylinder@@UAE@XZ 
??1CParticlesEmitterSphere@@UAE@XZ 
??1CParticlesProcessControl@@UAE@XZ 
??1CParticlesProcessDynamicState@@UAE@XZ 
??1CParticlesProcessForce@@UAE@XZ 
??1CParticlesProcessPointGoal@@UAE@XZ 
??1CParticlesProcessVelocity@@UAE@XZ 
??1CPetInfo@@QAE@XZ 
??1CPetTarget@@UAE@XZ 
??1CPlayerCharacter@@QAE@XZ 
??1CPlayerEntity@@UAE@XZ 
??1CPlayerSource@@QAE@XZ 
??1CQuestDynamicData@@QAE@XZ 
??1CQuestSystem@@QAE@XZ 
??1CRandomTable@@QAE@XZ 
??1CRationalEntity@@UAE@XZ 
??1CRelationDst@@QAE@XZ 
??1CRelationSrc@@QAE@XZ 
??1CRenderModel@@QAE@XZ 
??1CRenderTexture@@QAE@XZ 
??1CSelectedEntities@@QAE@XZ 
??1CSerial@@UAE@XZ 
??1CServer@@QAE@XZ 
??1CSessionState@@QAE@XZ 
??1CSetFPUPrecision@@QAE@XZ 
??1CShader@@UAE@XZ 
??1CShadingInfo@@QAE@XZ 
??1CShadowMap@@QAE@XZ 
??1CShell@@QAE@XZ 
??1CShockWaveEffect@@UAE@XZ 
??1CShopData@@QAE@XZ 
??1CSkaEffect@@UAE@XZ 
??1CSkaTag@@UAE@XZ 
??1CSkeleton@@UAE@XZ 
??1CSlaveInfo@@QAE@XZ 
??1CSlaveTarget@@UAE@XZ 
??1CSoundData@@UAE@XZ 
??1CSoundEffect@@UAE@XZ 
??1CSoundLibrary@@QAE@XZ 
??1CSoundObject@@QAE@XZ 
??1CSplineBillboardEffect@@UAE@XZ 
??1CSplinePathEffect@@UAE@XZ 
??1CStatusEffect@@QAE@XZ 
??1CSurfaceType@@QAE@XZ 
??1CTCriticalSection@@QAE@XZ 
??1CTFileName@@QAE@XZ 
??1CTFileStream@@UAE@XZ 
??1CTMemoryStream@@UAE@XZ 
??1CTSingleLock@@QAE@XZ 
??1CTStream@@UAE@XZ 
??1CTString@@QAE@XZ 
??1CTWString@@QAE@XZ 
??1CTag@@UAE@XZ 
??1CTagManager@@QAE@XZ 
??1CTerrain@@QAE@XZ 
??1CTerrainArchive@@UAE@XZ 
??1CTerrainEffect@@UAE@XZ 
??1CTerrainLayer@@QAE@XZ 
??1CTextureBlending@@QAE@XZ 
??1CTextureData@@UAE@XZ 
??1CTextureDataInfo@@QAE@XZ 
??1CTextureObject@@QAE@XZ 
??1CTextureTransformation@@QAE@XZ 
??1CThumbnailSettings@@QAE@XZ 
??1CTimer@@QAE@XZ 
??1CTraceEffect@@UAE@XZ 
??1CTransformInfo@@QAE@XZ 
??1CUIArray@@UAE@XZ 
??1CUIArrayItem@@UAE@XZ 
??1CUIAutoHelp@@QAE@XZ 
??1CUIBase@@UAE@XZ 
??1CUIButton@@UAE@XZ 
??1CUICashShopEX@@UAE@XZ 
??1CUICharacterCreateNew@@UAE@XZ 
??1CUICharacterInfo@@UAE@XZ 
??1CUICheckButton@@UAE@XZ 
??1CUIComboBox@@UAE@XZ 
??1CUIEditBox@@UAE@XZ 
??1CUIExpressSystem@@UAE@XZ 
??1CUIFocus@@UAE@XZ 
??1CUIGuildBattle@@UAE@XZ 
??1CUIIcon@@UAE@XZ 
??1CUIImage@@UAE@XZ 
??1CUIImageArray@@UAE@XZ 
??1CUIImageBox@@UAE@XZ 
??1CUIImageFont@@UAE@XZ 
??1CUIImageSplit@@UAE@XZ 
??1CUIImageText@@UAE@XZ 
??1CUIList@@UAE@XZ 
??1CUIListBox@@UAE@XZ 
??1CUIListItem@@UAE@XZ 
??1CUILoginNew@@UAE@XZ 
??1CUIManager@@EAE@XZ 
??1CUIMsgBox_Info@@QAE@XZ 
??1CUIMultiLineText@@QAE@XZ 
??1CUIOption@@UAE@XZ 
??1CUIPetStashSelectEffect@@UAE@XZ 
??1CUIProgressBar@@UAE@XZ 
??1CUIScrollBar@@UAE@XZ 
??1CUISignBoard@@QAE@XZ 
??1CUISingleBattle@@UAE@XZ 
??1CUISlideBar@@UAE@XZ 
??1CUISpinButton@@UAE@XZ 
??1CUISpinControl@@UAE@XZ 
??1CUISpriteAni@@UAE@XZ 
??1CUITab@@UAE@XZ 
??1CUITabPage@@UAE@XZ 
??1CUITatoo@@UAE@XZ 
??1CUIText@@UAE@XZ 
??1CUITextBox@@UAE@XZ 
??1CUITextBoxEx@@UAE@XZ 
??1CUITextEx@@UAE@XZ 
??1CUITree@@UAE@XZ 
??1CUITreeItem@@UAE@XZ 
??1CViewPort@@QAE@XZ 
??1CWebAddress@@EAE@XZ 
??1CWildPetTarget@@UAE@XZ 
??1CWorld@@QAE@XZ 
??1CWorldTag@@UAE@XZ 
??1CZoneInfo@@UAE@XZ 
??1CharacterCreateNew@@UAE@XZ 
??1EBegin@@UAE@XZ 
??1EBlock@@UAE@XZ 
??1EDamage@@UAE@XZ 
??1EDeath@@UAE@XZ 
??1EFirstWorldBase@@UAE@XZ 
??1EInternal@@UAE@XZ 
??1EPass@@UAE@XZ 
??1EPlayerInit@@UAE@XZ 
??1EPostLevelChange@@UAE@XZ 
??1EPreLevelChange@@UAE@XZ 
??1EReturn@@UAE@XZ 
??1ETakingBreath@@UAE@XZ 
??1ETeleport@@UAE@XZ 
??1ETimer@@UAE@XZ 
??1ETouch@@UAE@XZ 
??1EVoid@@UAE@XZ 
??1EWouldFall@@UAE@XZ 
??1ExpressSystem@@UAE@XZ 
??1GameDataManager@@UAE@XZ 
??1LoginNew@@UAE@XZ 
??1MappingSurface@@QAE@XZ 
??1MeshLOD@@QAE@XZ 
??1MeshMorphMap@@QAE@XZ 
??1MeshSurface@@QAE@XZ 
??1MeshUVMap@@QAE@XZ 
??1MeshWeightMap@@QAE@XZ 
??1ModelMipInfo@@QAE@XZ 
??1ModelPolygon@@QAE@XZ 
??1MsgBoxMgr@@UAE@XZ 
??1MyInfo@@UAE@XZ 
??1MyInfoSkill@@QAE@XZ 
??1Notice@@UAE@XZ 
??1ObjInfo@@UAE@XZ 
??1Party@@UAE@XZ 
??1PetStash@@UAE@XZ 
??1PolygonsPerPatch@@QAE@XZ 
??1Quest@@UAE@XZ 
??1ServerInfo@@UAE@XZ 
??1SkeletonLOD@@QAE@XZ 
??1StageMgr@@UAE@XZ 
??1UIFactory@@UAE@XZ 
??1cThreadWrapper@@QAE@XZ 
??1cWeb@@QAE@XZ 
??4?$CSingletonBase@VActorMgr@@@@QAEAAV0@ABV0@@Z 
??4?$CSingletonBase@VCBackImageManager@@@@QAEAAV0@ABV0@@Z 
??4?$CSingletonBase@VCInterfaceSymbol@@@@QAEAAV0@ABV0@@Z 
??4?$CSingletonBase@VCInvenData@@@@QAEAAV0@ABV0@@Z 
??4?$CSingletonBase@VCJobInfo@@@@QAEAAV0@ABV0@@Z 
??4?$CSingletonBase@VCLoadingImage@@@@QAEAAV0@ABV0@@Z 
??4?$CSingletonBase@VCLoginJobInfo@@@@QAEAAV0@ABV0@@Z 
??4?$CSingletonBase@VCNoticeData@@@@QAEAAV0@ABV0@@Z 
??4?$CSingletonBase@VCUIFocus@@@@QAEAAV0@ABV0@@Z 
??4?$CSingletonBase@VCUIManager@@@@QAEAAV0@ABV0@@Z 
??4?$CSingletonBase@VCUISkillToolTip@@@@QAEAAV0@ABV0@@Z 
??4?$CSingletonBase@VCUISupport@@@@QAEAAV0@ABV0@@Z 
??4?$CSingletonBase@VCUITooltipMgr@@@@QAEAAV0@ABV0@@Z 
??4?$CSingletonBase@VCWebAddress@@@@QAEAAV0@ABV0@@Z 
??4?$CSingletonBase@VCZoneInfo@@@@QAEAAV0@ABV0@@Z 
??4?$CSingletonBase@VGameDataManager@@@@QAEAAV0@ABV0@@Z 
??4?$CSingletonBase@VMsgBoxMgr@@@@QAEAAV0@ABV0@@Z 
??4?$CSingletonBase@VMyInfo@@@@QAEAAV0@ABV0@@Z 
??4?$CSingletonBase@VObjInfo@@@@QAEAAV0@ABV0@@Z 
??4?$CSingletonBase@VServerInfo@@@@QAEAAV0@ABV0@@Z 
??4?$CSingletonBase@VStageMgr@@@@QAEAAV0@ABV0@@Z 
??4?$CSingletonBase@VStringLoader@@@@QAEAAV0@ABV0@@Z 
??4?$CSingletonBase@VUIFactory@@@@QAEAAV0@ABV0@@Z 
??4?$CSingletonBase@VUtilHelp@@@@QAEAAV0@ABV0@@Z 
??4?$LodLoader@VCItemData@@@@QAEAAV0@$$QAV0@@Z 
??4?$LodLoader@VCItemData@@@@QAEAAV0@ABV0@@Z 
??4?$LodLoader@VCMissionCase@@@@QAEAAV0@$$QAV0@@Z 
??4?$LodLoader@VCMissionCase@@@@QAEAAV0@ABV0@@Z 
??4?$LodLoader@VCMobData@@@@QAEAAV0@$$QAV0@@Z 
??4?$LodLoader@VCMobData@@@@QAEAAV0@ABV0@@Z 
??4?$LodLoader@VCMobHelp@@@@QAEAAV0@$$QAV0@@Z 
??4?$LodLoader@VCMobHelp@@@@QAEAAV0@ABV0@@Z 
??4?$LodLoader@VCNpcHelp@@@@QAEAAV0@$$QAV0@@Z 
??4?$LodLoader@VCNpcHelp@@@@QAEAAV0@ABV0@@Z 
??4?$LodLoader@VCOptionData@@@@QAEAAV0@$$QAV0@@Z 
??4?$LodLoader@VCOptionData@@@@QAEAAV0@ABV0@@Z 
??4?$LodLoader@VCWildPetData@@@@QAEAAV0@$$QAV0@@Z 
??4?$LodLoader@VCWildPetData@@@@QAEAAV0@ABV0@@Z 
??4?$LodLoader@VTitleStaticData@@@@QAEAAV0@$$QAV0@@Z 
??4?$LodLoader@VTitleStaticData@@@@QAEAAV0@ABV0@@Z 
??4?$queue@EV?$deque@EV?$allocator@E@std@@@std@@@std@@QAEAAV01@$$QAV01@@Z 
??4?$queue@EV?$deque@EV?$allocator@E@std@@@std@@@std@@QAEAAV01@ABV01@@Z 
??4ActorMgr@@QAEAAV0@ABV0@@Z 
??4ByteQueueData@@QAEAAV0@ABV0@@Z 
??4CAffinityData@@QAEAAV0@ABV0@@Z 
??4CAnimEffect@@QAEAAV0@ABV0@@Z 
??4CAnimSet@@QAEAAV0@ABV0@@Z 
??4CAnyProjection3D@@QAEXABV0@@Z 
??4CAnyProjection3D@@QAEXABVCIsometricProjection3D@@@Z 
??4CAnyProjection3D@@QAEXABVCParallelProjection3D@@@Z 
??4CAnyProjection3D@@QAEXABVCPerspectiveProjection3D@@@Z 
??4CAnyProjection3D@@QAEXABVCSimpleProjection3D@@@Z 
??4CAttachedModel@@QAEAAV0@ABV0@@Z 
??4CAttachedModelPosition@@QAEAAV0@$$QAV0@@Z 
??4CAttachedModelPosition@@QAEAAV0@ABV0@@Z 
??4CAttachedSound@@QAEAAV0@$$QAV0@@Z 
??4CAttachedSound@@QAEAAV0@ABV0@@Z 
??4CAttachmentModelObject@@QAEAAV0@$$QAV0@@Z 
??4CAttachmentModelObject@@QAEAAV0@ABV0@@Z 
??4CAutoPrecacheModel@@QAEAAV0@ABV0@@Z 
??4CAutoPrecacheSound@@QAEAAV0@ABV0@@Z 
??4CAutoPrecacheTexture@@QAEAAV0@ABV0@@Z 
??4CBoolDefaultFalse@@QAEAAV0@$$QAV0@@Z 
??4CBoolDefaultFalse@@QAEAAV0@ABV0@@Z 
??4CBrush3D@@QAEAAV0@ABV0@@Z 
??4CBrushArchive@@QAEAAV0@$$QAV0@@Z 
??4CBrushArchive@@QAEAAV0@AAV0@@Z 
??4CBrushBase@@QAEAAV0@$$QAV0@@Z 
??4CBrushBase@@QAEAAV0@ABV0@@Z 
??4CBrushEdge@@QAEAAV0@$$QAV0@@Z 
??4CBrushEdge@@QAEAAV0@ABV0@@Z 
??4CBrushMip@@QAEAAV0@$$QAV0@@Z 
??4CBrushMip@@QAEAAV0@AAV0@@Z 
??4CBrushPlane@@QAEAAV0@$$QAV0@@Z 
??4CBrushPlane@@QAEAAV0@ABV0@@Z 
??4CBrushPolygon@@QAEAAV0@ABV0@@Z 
??4CBrushPolygonEdge@@QAEAAV0@$$QAV0@@Z 
??4CBrushPolygonEdge@@QAEAAV0@ABV0@@Z 
??4CBrushPolygonTexture@@QAEAAV0@$$QAV0@@Z 
??4CBrushPolygonTexture@@QAEAAV0@ABV0@@Z 
??4CBrushSector@@QAEAAV0@ABV0@@Z 
??4CBrushShadowLayer@@QAEAAV0@ABV0@@Z 
??4CBrushShadowMap@@QAEAAV0@ABV0@@Z 
??4CBrushVertex@@QAEAAV0@$$QAV0@@Z 
??4CBrushVertex@@QAEAAV0@ABV0@@Z 
??4CCameraEffect@@IAEAAV0@ABV0@@Z 
??4CCashShopData@@QAEAAV0@ABV0@@Z 
??4CCastRay@@QAEAAV0@ABV0@@Z 
??4CChangeable@@QAEAAV0@$$QAV0@@Z 
??4CChangeable@@QAEAAV0@ABV0@@Z 
??4CChangeableRT@@QAEAAV0@$$QAV0@@Z 
??4CChangeableRT@@QAEAAV0@ABV0@@Z 
??4CCharacterAnimation@@QAEAAV0@$$QAV0@@Z 
??4CCharacterAnimation@@QAEAAV0@ABV0@@Z 
??4CCharacterTarget@@QAEAAV0@ABV0@@Z 
??4CChunkID@@QAEAAV0@$$QAV0@@Z 
??4CChunkID@@QAEAAV0@ABV0@@Z 
??4CCollisionInfo@@QAEAAV0@ABV0@@Z 
??4CCommunicationInterface@@QAEAAV0@ABV0@@Z 
??4CContentType@@QAEAAV0@$$QAV0@@Z 
??4CContentType@@QAEAAV0@ABV0@@Z 
??4CDLLEntityClass@@QAEAAV0@$$QAV0@@Z 
??4CDLLEntityClass@@QAEAAV0@ABV0@@Z 
??4CDLLEntityEvent@@QAEAAV0@$$QAV0@@Z 
??4CDLLEntityEvent@@QAEAAV0@ABV0@@Z 
??4CDamageLogInfo@@QAEAAV0@ABV0@@Z 
??4CDisplayMode@@QAEAAV0@$$QAV0@@Z 
??4CDisplayMode@@QAEAAV0@ABV0@@Z 
??4CDrawPort@@QAEAAV0@AAV0@@Z 
??4CEditModel@@QAEAAV0@AAV0@@Z 
??4CEffect@@IAEAAV0@AAV0@@Z 
??4CEffectControl@@QAEAAV0@ABV0@@Z 
??4CEffectGroup@@IAEAAV0@AAV0@@Z 
??4CEffectGroupManager@@QAEAAV0@ABV0@@Z 
??4CEffectManager@@QAEAAV0@ABV0@@Z 
??4CEnemyAnimation@@QAEAAV0@$$QAV0@@Z 
??4CEnemyAnimation@@QAEAAV0@ABV0@@Z 
??4CEntity@@UAEAAV0@AAV0@@Z 
??4CEntityClass@@QAEAAV0@ABV0@@Z 
??4CEntityComponent@@QAEAAV0@$$QAV0@@Z 
??4CEntityComponent@@QAEAAV0@ABV0@@Z 
??4CEntityEffect@@IAEAAV0@ABV0@@Z 
??4CEntityEvent@@QAEAAV0@ABV0@@Z 
??4CEntityID@@QAEABV0@AAV0@@Z 
??4CEntityID@@QAEABV0@K@Z 
??4CEntityID@@QAEABV0@PAVCEntity@@@Z 
??4CEntityMessage@@QAEAAV0@ABV0@@Z 
??4CEntityProperty@@QAEAAV0@$$QAV0@@Z 
??4CEntityProperty@@QAEAAV0@ABV0@@Z 
??4CEntityTag@@QAEAAV0@ABV0@@Z 
??4CEnvironmentType@@QAEAAV0@$$QAV0@@Z 
??4CEnvironmentType@@QAEAAV0@ABV0@@Z 
??4CFieldSettings@@QAEAAV0@$$QAV0@@Z 
??4CFieldSettings@@QAEAAV0@ABV0@@Z 
??4CFileNameNode@@QAEAAV0@$$QAV0@@Z 
??4CFileNameNode@@QAEAAV0@ABV0@@Z 
??4CFontCharData@@QAEAAV0@$$QAV0@@Z 
??4CFontCharData@@QAEAAV0@ABV0@@Z 
??4CFontData@@QAEAAV0@ABV0@@Z 
??4CGameState@@QAEAAV0@ABV0@@Z 
??4CGfxLibrary@@QAEAAV0@ABV0@@Z 
??4CGroupTag@@QAEAAV0@ABV0@@Z 
??4CIlluminationType@@QAEAAV0@$$QAV0@@Z 
??4CIlluminationType@@QAEAAV0@ABV0@@Z 
??4CImageInfo@@QAEAAV0@ABV0@@Z 
??4CInput@@QAEAAV0@ABV0@@Z 
??4CInputDevice@@QAEAAV0@ABV0@@Z 
??4CInterfaceSymbol@@QAEAAV0@$$QAV0@@Z 
??4CInterfaceSymbol@@QAEAAV0@ABV0@@Z 
??4CIntersector@@QAEAAV0@$$QAV0@@Z 
??4CIntersector@@QAEAAV0@ABV0@@Z 
??4CInvenData@@QAEAAV0@ABV0@@Z 
??4CIsometricProjection3D@@QAEAAV0@$$QAV0@@Z 
??4CIsometricProjection3D@@QAEAAV0@ABV0@@Z 
??4CItemData@@QAEAAV0@ABV0@@Z 
??4CItemEffect@@QAEAAV0@ABV0@@Z 
??4CItemTarget@@QAEAAV0@ABV0@@Z 
??4CJobInfo@@QAEAAV0@ABV0@@Z 
??4CLastPositions@@QAEAAV0@ABV0@@Z 
??4CLensFlareType@@QAEAAV0@$$QAV0@@Z 
??4CLensFlareType@@QAEAAV0@ABV0@@Z 
??4CLevelUpGuide@@QAEAAV0@$$QAV0@@Z 
??4CLevelUpGuide@@QAEAAV0@ABV0@@Z 
??4CLightEffect@@QAEAAV0@AAV0@@Z 
??4CLightSource@@QAEAAV0@ABV0@@Z 
??4CListHead@@QAEXABV0@@Z 
??4CListNode@@QAEAAV0@ABV0@@Z 
??4CLiveEntity@@QAEAAV0@$$QAV0@@Z 
??4CLiveEntity@@QAEAAV0@AAV0@@Z 
??4CLoadingImage@@QAEAAV0@ABV0@@Z 
??4CLoginJobInfo@@QAEAAV0@ABV0@@Z 
??4CMappingDefinition@@QAEAAV0@$$QAV0@@Z 
??4CMappingDefinition@@QAEAAV0@ABV0@@Z 
??4CMappingDefinitionUI@@QAEAAV0@$$QAV0@@Z 
??4CMappingDefinitionUI@@QAEAAV0@ABV0@@Z 
??4CMappingUndo@@QAEAAV0@$$QAV0@@Z 
??4CMappingUndo@@QAEAAV0@ABV0@@Z 
??4CMappingVectors@@QAEAAV0@$$QAV0@@Z 
??4CMappingVectors@@QAEAAV0@ABV0@@Z 
??4CMdlEffect@@IAEAAV0@AAV0@@Z 
??4CMesh@@QAEAAV0@ABV0@@Z 
??4CMessageDispatcher@@QAEAAV0@ABV0@@Z 
??4CMipInfo@@QAEAAV0@$$QAV0@@Z 
??4CMipInfo@@QAEAAV0@ABV0@@Z 
??4CMissionCase@@QAEAAV0@$$QAV0@@Z 
??4CMissionCase@@QAEAAV0@ABV0@@Z 
??4CMobData@@QAEAAV0@ABV0@@Z 
??4CMobHelp@@QAEAAV0@$$QAV0@@Z 
??4CMobHelp@@QAEAAV0@ABV0@@Z 
??4CMobTarget@@QAEAAV0@ABV0@@Z 
??4CModelCollisionBox@@QAEAAV0@$$QAV0@@Z 
??4CModelCollisionBox@@QAEAAV0@ABV0@@Z 
??4CModelData@@QAEAAV0@ABV0@@Z 
??4CModelInfo@@QAEAAV0@$$QAV0@@Z 
??4CModelInfo@@QAEAAV0@ABV0@@Z 
??4CModelInstance@@QAEXAAV0@@Z 
??4CModelInstanceSerial@@QAEAAV0@ABV0@@Z 
??4CModelObject@@QAEAAV0@ABV0@@Z 
??4CModelPatch@@QAEAAV0@$$QAV0@@Z 
??4CModelPatch@@QAEAAV0@ABV0@@Z 
??4CModelRenderPrefs@@QAEAAV0@$$QAV0@@Z 
??4CModelRenderPrefs@@QAEAAV0@ABV0@@Z 
??4CMovableBrushEntity@@QAEAAV0@$$QAV0@@Z 
??4CMovableBrushEntity@@QAEAAV0@AAV0@@Z 
??4CMovableEntity@@QAEAAV0@AAV0@@Z 
??4CMovableModelEntity@@QAEAAV0@$$QAV0@@Z 
??4CMovableModelEntity@@QAEAAV0@AAV0@@Z 
??4CMovingSphere@@QAEAAV0@$$QAV0@@Z 
??4CMovingSphere@@QAEAAV0@ABV0@@Z 
??4CNetworkMessage@@QAEXABV0@@Z 
??4CNetworkProvider@@QAEAAV0@$$QAV0@@Z 
??4CNetworkProvider@@QAEAAV0@ABV0@@Z 
??4CNetworkSession@@QAEAAV0@$$QAV0@@Z 
??4CNetworkSession@@QAEAAV0@ABV0@@Z 
??4CNiceWater@@QAEAAV0@ABV0@@Z 
??4CNpcHelp@@QAEAAV0@$$QAV0@@Z 
??4CNpcHelp@@QAEAAV0@ABV0@@Z 
??4CObject3D@@QAEAAV0@AAV0@@Z 
??4CObjectPolygon@@QAEAAV0@$$QAV0@@Z 
??4CObjectPolygon@@QAEAAV0@AAV0@@Z 
??4CObjectPolygonEdge@@QAEAAV0@$$QAV0@@Z 
??4CObjectPolygonEdge@@QAEAAV0@ABV0@@Z 
??4CObjectSector@@QAEAAV0@AAV0@@Z 
??4COneLensFlare@@QAEAAV0@$$QAV0@@Z 
??4COneLensFlare@@QAEAAV0@ABV0@@Z 
??4COptionData@@QAEAAV0@$$QAV0@@Z 
??4COptionData@@QAEAAV0@ABV0@@Z 
??4COrbitEffect@@IAEAAV0@ABV0@@Z 
??4CParallelProjection3D@@QAEAAV0@$$QAV0@@Z 
??4CParallelProjection3D@@QAEAAV0@ABV0@@Z 
??4CParticle@@QAEAAV0@$$QAV0@@Z 
??4CParticle@@QAEAAV0@ABV0@@Z 
??4CParticleEffect@@IAEAAV0@AAV0@@Z 
??4CParticleGroup@@QAEAAV0@ABV0@@Z 
??4CParticleGroupManager@@QAEAAV0@ABV0@@Z 
??4CParticlePrototype@@QAEAAV0@$$QAV0@@Z 
??4CParticlePrototype@@QAEAAV0@ABV0@@Z 
??4CParticles@@QAEAAV0@$$QAV0@@Z 
??4CParticles@@QAEAAV0@ABV0@@Z 
??4CParticlesAbsorption@@QAEAAV0@ABV0@@Z 
??4CParticlesAbsorptionDefault@@QAEAAV0@ABV0@@Z 
??4CParticlesAbsorptionSphere@@QAEAAV0@ABV0@@Z 
??4CParticlesCommonProcess@@QAEAAV0@ABV0@@Z 
??4CParticlesEmitter@@QAEAAV0@ABV0@@Z 
??4CParticlesEmitterCone@@QAEAAV0@ABV0@@Z 
??4CParticlesEmitterCylinder@@QAEAAV0@ABV0@@Z 
??4CParticlesEmitterSphere@@QAEAAV0@ABV0@@Z 
??4CParticlesProcessControl@@QAEAAV0@$$QAV0@@Z 
??4CParticlesProcessControl@@QAEAAV0@ABV0@@Z 
??4CParticlesProcessDynamicState@@QAEAAV0@ABV0@@Z 
??4CParticlesProcessForce@@QAEAAV0@$$QAV0@@Z 
??4CParticlesProcessForce@@QAEAAV0@ABV0@@Z 
??4CParticlesProcessPointGoal@@QAEAAV0@$$QAV0@@Z 
??4CParticlesProcessPointGoal@@QAEAAV0@ABV0@@Z 
??4CParticlesProcessVelocity@@QAEAAV0@$$QAV0@@Z 
??4CParticlesProcessVelocity@@QAEAAV0@ABV0@@Z 
??4CPerspectiveProjection3D@@QAEAAV0@ABV0@@Z 
??4CPetAnimation@@QAEAAV0@$$QAV0@@Z 
??4CPetAnimation@@QAEAAV0@ABV0@@Z 
??4CPetInfo@@QAEAAV0@ABV0@@Z 
??4CPetTarget@@QAEAAV0@ABV0@@Z 
??4CPlacement3D@@QAEAAV0@$$QAV0@@Z 
??4CPlacement3D@@QAEAAV0@ABV0@@Z 
??4CPlayerAction@@QAEAAV0@$$QAV0@@Z 
??4CPlayerAction@@QAEAAV0@ABV0@@Z 
??4CPlayerCharacter@@QAEAAV0@ABV0@@Z 
??4CPlayerEntity@@QAEAAV0@$$QAV0@@Z 
??4CPlayerEntity@@QAEAAV0@AAV0@@Z 
??4CPlayerSource@@QAEAAV0@ABV0@@Z 
??4CProgressRoutines@@QAEAAV0@$$QAV0@@Z 
??4CProgressRoutines@@QAEAAV0@ABV0@@Z 
??4CProjection3D@@QAEAAV0@$$QAV0@@Z 
??4CProjection3D@@QAEAAV0@ABV0@@Z 
??4CQuestSystem@@QAEAAV0@ABV0@@Z 
??4CRandomTable@@QAEAAV0@ABV0@@Z 
??4CRationalEntity@@QAEAAV0@$$QAV0@@Z 
??4CRationalEntity@@QAEAAV0@AAV0@@Z 
??4CRenderModel@@QAEAAV0@ABV0@@Z 
??4CRenderTexture@@QAEAAV0@ABV0@@Z 
??4CSelectedEntities@@QAEAAV0@$$QAV0@@Z 
??4CSelectedEntities@@QAEAAV0@ABV0@@Z 
??4CSerial@@QAEAAV0@ABV0@@Z 
??4CServer@@QAEAAV0@ABV0@@Z 
??4CSessionState@@QAEAAV0@ABV0@@Z 
??4CSetFPUPrecision@@QAEAAV0@ABV0@@Z 
??4CShader@@QAEAAV0@ABV0@@Z 
??4CShadingInfo@@QAEAAV0@$$QAV0@@Z 
??4CShadingInfo@@QAEAAV0@ABV0@@Z 
??4CShadowMap@@QAEAAV0@ABV0@@Z 
??4CShell@@QAEAAV0@AAV0@@Z 
??4CShockWaveEffect@@IAEAAV0@ABV0@@Z 
??4CShopData@@QAEAAV0@ABV0@@Z 
??4CSimpleProjection3D@@QAEAAV0@$$QAV0@@Z 
??4CSimpleProjection3D@@QAEAAV0@ABV0@@Z 
??4CSimpleProjection3D_DOUBLE@@QAEAAV0@$$QAV0@@Z 
??4CSimpleProjection3D_DOUBLE@@QAEAAV0@ABV0@@Z 
??4CSkaEffect@@IAEAAV0@AAV0@@Z 
??4CSkaTag@@QAEAAV0@ABV0@@Z 
??4CSkeleton@@QAEAAV0@ABV0@@Z 
??4CSlaveInfo@@QAEAAV0@ABV0@@Z 
??4CSlaveTarget@@QAEAAV0@ABV0@@Z 
??4CSoundData@@QAEAAV0@ABV0@@Z 
??4CSoundEffect@@IAEAAV0@AAV0@@Z 
??4CSoundObject@@QAEAAV0@ABV0@@Z 
??4CSplineBillboardEffect@@IAEAAV0@AAV0@@Z 
??4CSplinePathEffect@@IAEAAV0@ABV0@@Z 
??4CStatusEffect@@QAEAAV0@ABV0@@Z 
??4CSurfaceType@@QAEAAV0@$$QAV0@@Z 
??4CSurfaceType@@QAEAAV0@ABV0@@Z 
??4CTFileName@@QAEAAV0@$$QAV0@@Z 
??4CTFileName@@QAEAAV0@ABV0@@Z 
??4CTFileName@@QAEAAV0@PBD@Z 
??4CTFileName@@QAEXABVCTString@@@Z 
??4CTString@@QAEAAV0@ABV0@@Z 
??4CTString@@QAEAAV0@PBD@Z 
??4CTWString@@QAEAAV0@ABV0@@Z 
??4CTWString@@QAEAAV0@PBD@Z 
??4CTWString@@QAEAAV0@PBG@Z 
??4CTag@@QAEAAV0@ABV0@@Z 
??4CTagManager@@QAEAAV0@ABV0@@Z 
??4CTerrain@@QAEAAV0@ABV0@@Z 
??4CTerrainArchive@@QAEAAV0@$$QAV0@@Z 
??4CTerrainArchive@@QAEAAV0@AAV0@@Z 
??4CTerrainEffect@@QAEAAV0@AAV0@@Z 
??4CTerrainLayer@@QAEAAV0@ABV0@@Z 
??4CTextureBlending@@QAEAAV0@$$QAV0@@Z 
??4CTextureBlending@@QAEAAV0@ABV0@@Z 
??4CTextureData@@QAEAAV0@ABV0@@Z 
??4CTextureDataInfo@@QAEAAV0@$$QAV0@@Z 
??4CTextureDataInfo@@QAEAAV0@ABV0@@Z 
??4CTextureObject@@QAEAAV0@$$QAV0@@Z 
??4CTextureObject@@QAEAAV0@ABV0@@Z 
??4CTextureTransformation@@QAEAAV0@$$QAV0@@Z 
??4CTextureTransformation@@QAEAAV0@ABV0@@Z 
??4CThumbnailSettings@@QAEAAV0@$$QAV0@@Z 
??4CThumbnailSettings@@QAEAAV0@ABV0@@Z 
??4CTimer@@QAEAAV0@ABV0@@Z 
??4CTraceEffect@@IAEAAV0@AAV0@@Z 
??4CTransformInfo@@QAEAAV0@ABV0@@Z 
??4CUIArray@@QAEAAV0@ABV0@@Z 
??4CUIArrayItem@@QAEAAV0@$$QAV0@@Z 
??4CUIArrayItem@@QAEAAV0@ABV0@@Z 
??4CUIAutoHelp@@QAEAAV0@ABV0@@Z 
??4CUIBase@@QAEAAV0@ABV0@@Z 
??4CUIButton@@QAEAAV0@ABV0@@Z 
??4CUICashShopEX@@QAEAAV0@ABV0@@Z 
??4CUICharacterCreateNew@@QAEAAV0@ABV0@@Z 
??4CUICharacterInfo@@QAEAAV0@ABV0@@Z 
??4CUICheckButton@@QAEAAV0@$$QAV0@@Z 
??4CUICheckButton@@QAEAAV0@ABV0@@Z 
??4CUIComboBox@@QAEAAV0@ABV0@@Z 
??4CUIEditBox@@QAEAAV0@ABV0@@Z 
??4CUIExpressSystem@@QAEAAV0@ABV0@@Z 
??4CUIFocus@@QAEAAV0@ABV0@@Z 
??4CUIGuildBattle@@QAEAAV0@ABV0@@Z 
??4CUIIcon@@QAEAAV0@ABV0@@Z 
??4CUIImage@@QAEAAV0@ABV0@@Z 
??4CUIImageArray@@QAEAAV0@ABV0@@Z 
??4CUIImageBox@@QAEAAV0@ABV0@@Z 
??4CUIImageFont@@QAEAAV0@ABV0@@Z 
??4CUIImageSplit@@QAEAAV0@ABV0@@Z 
??4CUIImageText@@QAEAAV0@$$QAV0@@Z 
??4CUIImageText@@QAEAAV0@ABV0@@Z 
??4CUIList@@QAEAAV0@ABV0@@Z 
??4CUIListBox@@QAEAAV0@ABV0@@Z 
??4CUIListItem@@QAEAAV0@ABV0@@Z 
??4CUILoginNew@@QAEAAV0@ABV0@@Z 
??4CUIManager@@QAEAAV0@ABV0@@Z 
??4CUIMsgBox_Info@@QAEAAV0@ABV0@@Z 
??4CUIMultiLineText@@QAEAAV0@ABV0@@Z 
??4CUIOption@@QAEAAV0@ABV0@@Z 
??4CUIPetStashSelectEffect@@QAEAAV0@ABV0@@Z 
??4CUIProgressBar@@QAEAAV0@ABV0@@Z 
??4CUIScrollBar@@QAEAAV0@ABV0@@Z 
??4CUISignBoard@@QAEAAV0@ABV0@@Z 
??4CUISingleBattle@@QAEAAV0@ABV0@@Z 
??4CUISlideBar@@QAEAAV0@ABV0@@Z 
??4CUISpinButton@@QAEAAV0@$$QAV0@@Z 
??4CUISpinButton@@QAEAAV0@ABV0@@Z 
??4CUISpinControl@@QAEAAV0@ABV0@@Z 
??4CUISpriteAni@@QAEAAV0@ABV0@@Z 
??4CUITab@@QAEAAV0@ABV0@@Z 
??4CUITabPage@@QAEAAV0@$$QAV0@@Z 
??4CUITabPage@@QAEAAV0@ABV0@@Z 
??4CUITatoo@@QAEAAV0@ABV0@@Z 
??4CUIText@@QAEAAV0@ABV0@@Z 
??4CUITextBox@@QAEAAV0@ABV0@@Z 
??4CUITextBoxEx@@QAEAAV0@ABV0@@Z 
??4CUITextEx@@QAEAAV0@ABV0@@Z 
??4CUITree@@QAEAAV0@ABV0@@Z 
??4CUITreeItem@@QAEAAV0@$$QAV0@@Z 
??4CUITreeItem@@QAEAAV0@ABV0@@Z 
??4CUpdateable@@QAEAAV0@$$QAV0@@Z 
??4CUpdateable@@QAEAAV0@ABV0@@Z 
??4CUpdateableRT@@QAEAAV0@$$QAV0@@Z 
??4CUpdateableRT@@QAEAAV0@ABV0@@Z 
??4CViewPort@@QAEAAV0@AAV0@@Z 
??4CWebAddress@@QAEAAV0@ABV0@@Z 
??4CWildPetData@@QAEAAV0@$$QAV0@@Z 
??4CWildPetData@@QAEAAV0@ABV0@@Z 
??4CWildPetTarget@@QAEAAV0@ABV0@@Z 
??4CWorldRenderPrefs@@QAEAAV0@$$QAV0@@Z 
??4CWorldRenderPrefs@@QAEAAV0@ABV0@@Z 
??4CWorldTag@@QAEAAV0@ABV0@@Z 
??4CZoneInfo@@QAEAAV0@ABV0@@Z 
??4CharacterCreateNew@@QAEAAV0@ABV0@@Z 
??4Command@@QAEAAV0@$$QAV0@@Z 
??4Command@@QAEAAV0@ABV0@@Z 
??4CustomTitleData@@QAEAAV0@ABV0@@Z 
??4EBegin@@QAEAAV0@$$QAV0@@Z 
??4EBegin@@QAEAAV0@ABV0@@Z 
??4EBlock@@QAEAAV0@$$QAV0@@Z 
??4EBlock@@QAEAAV0@ABV0@@Z 
??4EDamage@@QAEAAV0@$$QAV0@@Z 
??4EDamage@@QAEAAV0@ABV0@@Z 
??4EDeath@@QAEAAV0@$$QAV0@@Z 
??4EDeath@@QAEAAV0@ABV0@@Z 
??4EFirstWorldBase@@QAEAAV0@$$QAV0@@Z 
??4EFirstWorldBase@@QAEAAV0@ABV0@@Z 
??4EInternal@@QAEAAV0@$$QAV0@@Z 
??4EInternal@@QAEAAV0@ABV0@@Z 
??4EPass@@QAEAAV0@$$QAV0@@Z 
??4EPass@@QAEAAV0@ABV0@@Z 
??4EPlayerInit@@QAEAAV0@$$QAV0@@Z 
??4EPlayerInit@@QAEAAV0@ABV0@@Z 
??4EPostLevelChange@@QAEAAV0@$$QAV0@@Z 
??4EPostLevelChange@@QAEAAV0@ABV0@@Z 
??4EPreLevelChange@@QAEAAV0@$$QAV0@@Z 
??4EPreLevelChange@@QAEAAV0@ABV0@@Z 
??4EReturn@@QAEAAV0@$$QAV0@@Z 
??4EReturn@@QAEAAV0@ABV0@@Z 
??4ETakingBreath@@QAEAAV0@$$QAV0@@Z 
??4ETakingBreath@@QAEAAV0@ABV0@@Z 
??4ETeleport@@QAEAAV0@$$QAV0@@Z 
??4ETeleport@@QAEAAV0@ABV0@@Z 
??4ETimer@@QAEAAV0@$$QAV0@@Z 
??4ETimer@@QAEAAV0@ABV0@@Z 
??4ETouch@@QAEAAV0@$$QAV0@@Z 
??4ETouch@@QAEAAV0@ABV0@@Z 
??4EVoid@@QAEAAV0@$$QAV0@@Z 
??4EVoid@@QAEAAV0@ABV0@@Z 
??4EWouldFall@@QAEAAV0@$$QAV0@@Z 
??4EWouldFall@@QAEAAV0@ABV0@@Z 
??4ExpressSystem@@QAEAAV0@ABV0@@Z 
??4GameDataManager@@QAEAAV0@ABV0@@Z 
??4ItemHelp@@QAEAAV0@$$QAV0@@Z 
??4ItemHelp@@QAEAAV0@ABV0@@Z 
??4LoginNew@@QAEAAV0@ABV0@@Z 
??4MappingSurface@@QAEAAU0@ABU0@@Z 
??4MeshLOD@@QAEXABU0@@Z 
??4MeshMorphMap@@QAEAAU0@$$QAU0@@Z 
??4MeshMorphMap@@QAEAAU0@ABU0@@Z 
??4MeshNormal@@QAEAAU0@$$QAU0@@Z 
??4MeshNormal@@QAEAAU0@ABU0@@Z 
??4MeshSurface@@QAEXABU0@@Z 
??4MeshTangent@@QAEAAU0@$$QAU0@@Z 
??4MeshTangent@@QAEAAU0@ABU0@@Z 
??4MeshTexCoord@@QAEAAU0@$$QAU0@@Z 
??4MeshTexCoord@@QAEAAU0@ABU0@@Z 
??4MeshTriangle@@QAEAAU0@$$QAU0@@Z 
??4MeshTriangle@@QAEAAU0@ABU0@@Z 
??4MeshUVMap@@QAEAAU0@$$QAU0@@Z 
??4MeshUVMap@@QAEAAU0@ABU0@@Z 
??4MeshVertex@@QAEAAU0@$$QAU0@@Z 
??4MeshVertex@@QAEAAU0@ABU0@@Z 
??4MeshVertexMorph@@QAEAAU0@$$QAU0@@Z 
??4MeshVertexMorph@@QAEAAU0@ABU0@@Z 
??4MeshVertexWeight@@QAEAAU0@$$QAU0@@Z 
??4MeshVertexWeight@@QAEAAU0@ABU0@@Z 
??4MeshVertexWeightInfo@@QAEAAU0@$$QAU0@@Z 
??4MeshVertexWeightInfo@@QAEAAU0@ABU0@@Z 
??4MeshWeightMap@@QAEAAU0@$$QAU0@@Z 
??4MeshWeightMap@@QAEAAU0@ABU0@@Z 
??4ModelFrameInfo@@QAEAAU0@$$QAU0@@Z 
??4ModelFrameInfo@@QAEAAU0@ABU0@@Z 
??4ModelFrameVertex16@@QAEAAU0@$$QAU0@@Z 
??4ModelFrameVertex16@@QAEAAU0@ABU0@@Z 
??4ModelFrameVertex16_old@@QAEAAU0@$$QAU0@@Z 
??4ModelFrameVertex16_old@@QAEAAU0@ABU0@@Z 
??4ModelFrameVertex8@@QAEAAU0@$$QAU0@@Z 
??4ModelFrameVertex8@@QAEAAU0@ABU0@@Z 
??4ModelMipInfo@@QAEAAU0@ABU0@@Z 
??4ModelPolygon@@QAEAAU0@ABU0@@Z 
??4ModelPolygonVertex@@QAEAAU0@$$QAU0@@Z 
??4ModelPolygonVertex@@QAEAAU0@ABU0@@Z 
??4ModelTextureVertex@@QAEAAU0@$$QAU0@@Z 
??4ModelTextureVertex@@QAEAAU0@ABU0@@Z 
??4MsgBoxMgr@@QAEAAV0@ABV0@@Z 
??4MyInfo@@QAEAAV0@$$QAV0@@Z 
??4MyInfo@@QAEAAV0@ABV0@@Z 
??4MyInfoSkill@@QAEAAV0@$$QAV0@@Z 
??4MyInfoSkill@@QAEAAV0@ABV0@@Z 
??4Notice@@QAEAAV0@ABV0@@Z 
??4ObjInfo@@QAEAAV0@$$QAV0@@Z 
??4ObjInfo@@QAEAAV0@ABV0@@Z 
??4Party@@QAEAAV0@ABV0@@Z 
??4PetStash@@QAEAAV0@ABV0@@Z 
??4PolygonsPerPatch@@QAEAAU0@ABU0@@Z 
??4Quest@@QAEAAV0@ABV0@@Z 
??4ServerInfo@@QAEAAV0@$$QAV0@@Z 
??4ServerInfo@@QAEAAV0@ABV0@@Z 
??4SkeletonBone@@QAEAAU0@$$QAU0@@Z 
??4SkeletonBone@@QAEAAU0@ABU0@@Z 
??4SkeletonLOD@@QAEAAU0@$$QAU0@@Z 
??4SkeletonLOD@@QAEAAU0@ABU0@@Z 
??4StageMgr@@QAEAAV0@ABV0@@Z 
??4TitleStaticData@@QAEAAV0@$$QAV0@@Z 
??4TitleStaticData@@QAEAAV0@ABV0@@Z 
??4TransformedVertexData@@QAEAAU0@$$QAU0@@Z 
??4TransformedVertexData@@QAEAAU0@ABU0@@Z 
??4UIFactory@@QAEAAV0@ABV0@@Z 
??4cThreadWrapper@@QAEAAV0@ABV0@@Z 
??4cWeb@@QAEAAV0@ABV0@@Z 
??5@YAAAVCTStream@@AAV0@AAVCMappingDefinition@@@Z 
??5@YAAAVCTStream@@AAV0@AAVCPlacement3D@@@Z 
??5@YAAAVCTStream@@AAV0@AAVCPlayerCharacter@@@Z 
??5@YAAAVCTStream@@AAV0@AAVCTFileName@@@Z 
??5@YAAAVCTStream@@AAV0@AAVCTString@@@Z 
??5CNetworkMessage@@QAEAAV0@AAC@Z 
??5CNetworkMessage@@QAEAAV0@AAE@Z 
??5CNetworkMessage@@QAEAAV0@AAF@Z 
??5CNetworkMessage@@QAEAAV0@AAG@Z 
??5CNetworkMessage@@QAEAAV0@AAH@Z 
??5CNetworkMessage@@QAEAAV0@AAJ@Z 
??5CNetworkMessage@@QAEAAV0@AAK@Z 
??5CNetworkMessage@@QAEAAV0@AAM@Z 
??5CNetworkMessage@@QAEAAV0@AAN@Z 
??5CNetworkMessage@@QAEAAV0@AAVCTString@@@Z 
??5CNetworkMessage@@QAEAAV0@AA_J@Z 
??5CTStream@@QAEAAV0@AAC@Z 
??5CTStream@@QAEAAV0@AAE@Z 
??5CTStream@@QAEAAV0@AAF@Z 
??5CTStream@@QAEAAV0@AAG@Z 
??5CTStream@@QAEAAV0@AAH@Z 
??5CTStream@@QAEAAV0@AAJ@Z 
??5CTStream@@QAEAAV0@AAK@Z 
??5CTStream@@QAEAAV0@AAM@Z 
??5CTStream@@QAEAAV0@AAN@Z 
??5CTStream@@QAEAAV0@AA_J@Z 
??6@YAAAVCTStream@@AAV0@AAVCPlayerCharacter@@@Z 
??6@YAAAVCTStream@@AAV0@ABVCMappingDefinition@@@Z 
??6@YAAAVCTStream@@AAV0@ABVCPlacement3D@@@Z 
??6@YAAAVCTStream@@AAV0@ABVCTFileName@@@Z 
??6@YAAAVCTStream@@AAV0@ABVCTString@@@Z 
??6CNetworkMessage@@QAEAAV0@ABC@Z 
??6CNetworkMessage@@QAEAAV0@ABE@Z 
??6CNetworkMessage@@QAEAAV0@ABM@Z 
??6CNetworkMessage@@QAEAAV0@ABN@Z 
??6CNetworkMessage@@QAEAAV0@ABVCTString@@@Z 
??6CNetworkMessage@@QAEAAV0@F@Z 
??6CNetworkMessage@@QAEAAV0@G@Z 
??6CNetworkMessage@@QAEAAV0@J@Z 
??6CNetworkMessage@@QAEAAV0@K@Z 
??6CNetworkMessage@@QAEAAV0@_J@Z 
??6CTStream@@QAEAAV0@ABC@Z 
??6CTStream@@QAEAAV0@ABE@Z 
??6CTStream@@QAEAAV0@ABF@Z 
??6CTStream@@QAEAAV0@ABG@Z 
??6CTStream@@QAEAAV0@ABH@Z 
??6CTStream@@QAEAAV0@ABJ@Z 
??6CTStream@@QAEAAV0@ABK@Z 
??6CTStream@@QAEAAV0@ABM@Z 
??6CTStream@@QAEAAV0@ABN@Z 
??6CTStream@@QAEAAV0@AB_J@Z 
??8@YAHPBDABVCTString@@@Z 
??8CChunkID@@QBEHABV0@@Z 
??8CPlacement3D@@QBEHABV0@@Z 
??8CPlayerCharacter@@QBEHABV0@@Z 
??8CTString@@QBEHABV0@@Z 
??8CTString@@QBEHPBD@Z 
??8CTWString@@QBEHABV0@@Z 
??8CTWString@@QBEHPBG@Z 
??8MappingSurface@@QBEHABU0@@Z 
??9@YAHPBDABVCTString@@@Z 
??9@YAXAAV?$Matrix@N$02$02@@ABV?$Vector@M$02@@@Z 
??9CChunkID@@QBEHABV0@@Z 
??9CTString@@QBEHABV0@@Z 
??9CTString@@QBEHPBD@Z 
??9CTWString@@QBEHABV0@@Z 
??9CTWString@@QBEHPBG@Z 
??ACParticles@@QAEAAVCParticle@@I@Z 
??BCAnyProjection3D@@QAEPAVCProjection3D@@XZ 
??BCChunkID@@QAEPADXZ 
??BCChunkID@@QBEPBDXZ 
??BCEntityID@@QBEPAVCEntity@@XZ 
??BCTString@@QBEPBDXZ 
??BCTWString@@QBEPBGXZ 
??CCAnyProjection3D@@QAEPAVCProjection3D@@XZ 
??CCEntityID@@QAEPAVCEntity@@XZ 
??DCEntityID@@QAEAAVCEntity@@XZ 
??H@YA?AVCTString@@PBDABV0@@Z 
??HCTString@@QBE?AV0@ABV0@@Z 
??HCTWString@@QBE?AV0@ABV0@@Z 
??YCTString@@QAEAAV0@ABV0@@Z 
??YCTWString@@QAEAAV0@ABV0@@Z 
??_6@YAXAAV?$Matrix@N$02$02@@ABV?$Vector@M$02@@@Z 
??_6@YAXAAV?$Vector@M$02@@ABV?$Matrix@N$02$02@@@Z 
??_7?$CSingletonBase@VActorMgr@@@@6B@ 
??_7?$CSingletonBase@VCBackImageManager@@@@6B@ 
??_7?$CSingletonBase@VCInterfaceSymbol@@@@6B@ 
??_7?$CSingletonBase@VCInvenData@@@@6B@ 
??_7?$CSingletonBase@VCJobInfo@@@@6B@ 
??_7?$CSingletonBase@VCLoadingImage@@@@6B@ 
??_7?$CSingletonBase@VCLoginJobInfo@@@@6B@ 
??_7?$CSingletonBase@VCNoticeData@@@@6B@ 
??_7?$CSingletonBase@VCUIFocus@@@@6B@ 
??_7?$CSingletonBase@VCUIManager@@@@6B@ 
??_7?$CSingletonBase@VCUISkillToolTip@@@@6B@ 
??_7?$CSingletonBase@VCUISupport@@@@6B@ 
??_7?$CSingletonBase@VCUITooltipMgr@@@@6B@ 
??_7?$CSingletonBase@VCWebAddress@@@@6B@ 
??_7?$CSingletonBase@VCZoneInfo@@@@6B@ 
??_7?$CSingletonBase@VGameDataManager@@@@6B@ 
??_7?$CSingletonBase@VMsgBoxMgr@@@@6B@ 
??_7?$CSingletonBase@VMyInfo@@@@6B@ 
??_7?$CSingletonBase@VObjInfo@@@@6B@ 
??_7?$CSingletonBase@VServerInfo@@@@6B@ 
??_7?$CSingletonBase@VStageMgr@@@@6B@ 
??_7?$CSingletonBase@VStringLoader@@@@6B@ 
??_7?$CSingletonBase@VUIFactory@@@@6B@ 
??_7?$CSingletonBase@VUtilHelp@@@@6B@ 
??_7ActorMgr@@6B@ 
??_7ByteQueueData@@6B@ 
??_7CAffinityData@@6B@ 
??_7CAnimSet@@6B@ 
??_7CBrush3D@@6B@ 
??_7CBrushArchive@@6B@ 
??_7CBrushBase@@6B@ 
??_7CBrushShadowMap@@6B@ 
??_7CCameraEffect@@6B@ 
??_7CCharacterTarget@@6B@ 
??_7CDamageLogInfo@@6B@ 
??_7CEditModel@@6B@ 
??_7CEffect@@6B@ 
??_7CEffectControl@@6B@ 
??_7CEntity@@6B@ 
??_7CEntityClass@@6B@ 
??_7CEntityEffect@@6B@ 
??_7CEntityEvent@@6B@ 
??_7CEntityTag@@6B@ 
??_7CFontData@@6B@ 
??_7CGroupTag@@6B@ 
??_7CInterfaceSymbol@@6B@ 
??_7CInvenData@@6B@ 
??_7CIsometricProjection3D@@6B@ 
??_7CItemTarget@@6B@ 
??_7CJobInfo@@6B@ 
??_7CLightEffect@@6B@ 
??_7CLiveEntity@@6B@ 
??_7CLoadingImage@@6B?$CSingletonBase@VCLoadingImage@@@@@ 
??_7CLoadingImage@@6BCUIBase@@@ 
??_7CLoginJobInfo@@6B@ 
??_7CMdlEffect@@6B@ 
??_7CMesh@@6B@ 
??_7CMobTarget@@6B@ 
??_7CModelData@@6B@ 
??_7CModelInstanceSerial@@6B@ 
??_7CMovableBrushEntity@@6B@ 
??_7CMovableEntity@@6B@ 
??_7CMovableModelEntity@@6B@ 
??_7CNiceWater@@6B@ 
??_7COrbitEffect@@6B@ 
??_7CParallelProjection3D@@6B@ 
??_7CParticleEffect@@6B@ 
??_7CParticlesAbsorption@@6B@ 
??_7CParticlesAbsorptionDefault@@6B@ 
??_7CParticlesAbsorptionSphere@@6B@ 
??_7CParticlesCommonProcess@@6B@ 
??_7CParticlesEmitter@@6B@ 
??_7CParticlesEmitterCone@@6B@ 
??_7CParticlesEmitterCylinder@@6B@ 
??_7CParticlesEmitterSphere@@6B@ 
??_7CParticlesProcessControl@@6B@ 
??_7CParticlesProcessDynamicState@@6B@ 
??_7CParticlesProcessForce@@6B@ 
??_7CParticlesProcessPointGoal@@6B@ 
??_7CParticlesProcessVelocity@@6B@ 
??_7CPerspectiveProjection3D@@6B@ 
??_7CPetTarget@@6B@ 
??_7CPlayerEntity@@6B@ 
??_7CProjection3D@@6B@ 
??_7CRationalEntity@@6B@ 
??_7CSerial@@6B@ 
??_7CShader@@6B@ 
??_7CShadowMap@@6B@ 
??_7CShockWaveEffect@@6B@ 
??_7CSimpleProjection3D@@6B@ 
??_7CSkaEffect@@6B@ 
??_7CSkaTag@@6B@ 
??_7CSkeleton@@6B@ 
??_7CSlaveTarget@@6B@ 
??_7CSoundData@@6B@ 
??_7CSoundEffect@@6B@ 
??_7CSplineBillboardEffect@@6B@ 
??_7CSplinePathEffect@@6B@ 
??_7CTFileStream@@6B@ 
??_7CTMemoryStream@@6B@ 
??_7CTStream@@6B@ 
??_7CTag@@6B@ 
??_7CTerrain@@6B@ 
??_7CTerrainArchive@@6B@ 
??_7CTerrainEffect@@6B@ 
??_7CTextureData@@6B@ 
??_7CTraceEffect@@6B@ 
??_7CUIArray@@6B@ 
??_7CUIArrayItem@@6B@ 
??_7CUIBase@@6B@ 
??_7CUIButton@@6B@ 
??_7CUICashShopEX@@6B@ 
??_7CUICharacterCreateNew@@6B@ 
??_7CUICharacterInfo@@6B@ 
??_7CUICheckButton@@6B@ 
??_7CUIComboBox@@6B@ 
??_7CUIEditBox@@6B@ 
??_7CUIExpressSystem@@6B@ 
??_7CUIFocus@@6B@ 
??_7CUIGuildBattle@@6B@ 
??_7CUIIcon@@6B@ 
??_7CUIImage@@6B@ 
??_7CUIImageArray@@6B@ 
??_7CUIImageBox@@6B@ 
??_7CUIImageFont@@6B@ 
??_7CUIImageSplit@@6B@ 
??_7CUIImageText@@6B@ 
??_7CUIList@@6B@ 
??_7CUIListBox@@6B@ 
??_7CUIListItem@@6B@ 
??_7CUILoginNew@@6B@ 
??_7CUIManager@@6B?$CSingletonBase@VCUIManager@@@@@ 
??_7CUIManager@@6BCUIWindowDeclare@@@ 
??_7CUIOption@@6B@ 
??_7CUIPetStashSelectEffect@@6B@ 
??_7CUIProgressBar@@6B@ 
??_7CUIScrollBar@@6B@ 
??_7CUISingleBattle@@6B@ 
??_7CUISlideBar@@6B@ 
??_7CUISpinButton@@6B@ 
??_7CUISpinControl@@6B@ 
??_7CUISpriteAni@@6B@ 
??_7CUITab@@6B@ 
??_7CUITabPage@@6B@ 
??_7CUITatoo@@6B@ 
??_7CUIText@@6B@ 
??_7CUITextBox@@6B@ 
??_7CUITextBoxEx@@6B@ 
??_7CUITextEx@@6B@ 
??_7CUITree@@6B@ 
??_7CUITreeItem@@6B@ 
??_7CWebAddress@@6B@ 
??_7CWildPetTarget@@6B@ 
??_7CWorldTag@@6B@ 
??_7CZoneInfo@@6B@ 
??_7CharacterCreateNew@@6B@ 
??_7Command@@6B@ 
??_7EBegin@@6B@ 
??_7EBlock@@6B@ 
??_7EDamage@@6B@ 
??_7EDeath@@6B@ 
??_7EFirstWorldBase@@6B@ 
??_7EInternal@@6B@ 
??_7EPass@@6B@ 
??_7EPlayerInit@@6B@ 
??_7EPostLevelChange@@6B@ 
??_7EPreLevelChange@@6B@ 
??_7EReturn@@6B@ 
??_7ETakingBreath@@6B@ 
??_7ETeleport@@6B@ 
??_7ETimer@@6B@ 
??_7ETouch@@6B@ 
??_7EVoid@@6B@ 
??_7EWouldFall@@6B@ 
??_7ExpressSystem@@6B@ 
??_7GameDataManager@@6B@ 
??_7LoginNew@@6B@ 
??_7MsgBoxMgr@@6B@ 
??_7MyInfo@@6B@ 
??_7Notice@@6B@ 
??_7ObjInfo@@6B@ 
??_7Party@@6B@ 
??_7PetStash@@6B@ 
??_7Quest@@6B@ 
??_7ServerInfo@@6B@ 
??_7StageMgr@@6B@ 
??_7UIFactory@@6B@ 
??_FCChunkID@@QAEXXZ 
??_FCIntersector@@QAEXXZ 
??_FCTimer@@QAEXXZ 
?AbsoluteToRelative@CPlacement3D@@QAEXABV1@@Z 
?AbsoluteToRelativeSmooth@CPlacement3D@@QAEXABV1@@Z 
?Activate@CTag@@QAEXXZ 
?ActivateNextCollisionBox@CEditModel@@QAEXXZ 
?ActivatePreviousCollisionBox@CEditModel@@QAEXXZ 
?Active@CEffectGroup@@QAEHXZ 
?Active@CTag@@QAEHXZ 
?ActiveRemoteSessions@CServer@@QAEJXZ 
?Add@CSelectedEntities@@QAEXPAVCEntity@@@Z 
?AddAccessoryEffect@CItemEffect@@QAEHPBDPAVCTagManager@@@Z 
?AddAffinityRewardNPC@CNetworkLibrary@@QAEXH@Z 
?AddAfter@CListNode@@QAEXAAV1@@Z 
?AddAllSectorsOfBrush@CCastRay@@QAEXPAVCBrush3D@@@Z 
?AddAlpha@CEffectControl@@QAEIME@Z 
?AddAlpha@CParticlesProcessDynamicState@@QAEIME@Z 
?AddAlphaChannel@@YAXPAEPAKJ0@Z 
?AddAngle@CEffectControl@@QAEIMV?$Vector@M$02@@@Z 
?AddAngle@CParticlesProcessDynamicState@@QAEIMV?$Vector@M$02@@@Z 
?AddAnimEffect@CModelInstance@@QAEXABVCTString@@0MK@Z 
?AddAnimSet_t@CModelInstance@@QAEXABVCTFileName@@@Z 
?AddAnimation@CAnimData@@QAEXXZ 
?AddAnimation@CAnimSet@@QAEXPAUAnimation@@@Z 
?AddAnimation@CEntity@@QAEXJKMJJM@Z 
?AddAnimation@CModelInstance@@QAEXJKMJM@Z 
?AddAnimationChild@CModelInstance@@QAEXJKMJM@Z 
?AddArmor@CModelInstance@@QAEPAUMeshInstance@@ABVCTFileName@@@Z 
?AddArrayItem@CUIArray@@QAEXPAVCUIArrayItem@@_N@Z 
?AddAttachment@CEntity@@QAEXJKK@Z 
?AddAttachment@CEntity@@QAEXJVCTFileName@@0@Z 
?AddAttachmentModel@CModelObject@@QAEPAVCAttachmentModelObject@@J@Z 
?AddAttackList@CNetworkLibrary@@QAEXEJEJ@Z 
?AddBandwidthGraphValue@CNetworkLibrary@@QAEXK@Z 
?AddBefore@CListNode@@QAEXAAV1@@Z 
?AddBtn@CUITextBoxEx@@QAEXAAV?$basic_string@DU?$char_traits@D@std@@V?$allocator@D@2@@std@@PAVCommand@@KKKK@Z 
?AddBtn@CUITextEx@@QAEXPBDPAVCommand@@KKKK@Z 
?AddBtnTexture@CDrawPort@@QBEXHMMMMMMMMK@Z 
?AddBtnTexture@CDrawPort@@QBEXHMMMMUUIRectUV@@K@Z 
?AddBuff@CCharacterTarget@@QAEXAAU_BuffInfo@@@Z 
?AddBuff@CMobTarget@@QAEXAAU_BuffInfo@@@Z 
?AddBuff@CSlaveTarget@@QAEXAAU_BuffInfo@@@Z 
?AddChatMessage@CChattingUI@@QAEXEJAAVCTString@@0EJ@Z 
?AddChild@CModelInstance@@QAEXPAV1@J@Z 
?AddChild@CTagManager@@QAEXPAV1@@Z 
?AddColisionBox@CModelInstance@@QAEXVCTString@@V?$Vector@M$02@@1@Z 
?AddCollisionBox@CEditModel@@QAEXXZ 
?AddColor@CEffectControl@@QAEIMK@Z 
?AddColor@CParticlesProcessDynamicState@@QAEIMK@Z 
?AddColorButton@CUITatoo@@AAEXHHK@Z 
?AddColors@@YAKKK@Z 
?AddCommonProcess@CParticleGroup@@QAEXPAVCParticlesCommonProcess@@@Z 
?AddCoolTimeReductionRate@CUIManager@@QAEXH@Z 
?AddCurrentRequest@CQuestSystem@@QAEJXZ 
?AddCurrnetPage@ExpressSystem@@QAEXXZ 
?AddCustomItemInfo@CustomTitleData@@SAXPAUTitleSystemMakeInfo@@@Z 
?AddDamage@CDamageLogInfo@@QAEXULogDamage@1@@Z 
?AddDamageData@CUIManager@@QAEXKCKH@Z 
?AddData@CUISpinButton@@QAEXVCTString@@@Z 
?AddDeathItem@CPlayerEntity@@UAEXPAVCEntity@@V?$Vector@M$02@@PAVCItemTarget@@PAVCItemData@@@Z 
?AddDeltaPos@CParticlesProcessDynamicState@@QAEIMV?$Vector@M$02@@@Z 
?AddDevice@CInput@@QAEHW4DeviceType@@J@Z 
?AddEdge@CIntersector@@QAEXMMMM@Z 
?AddEffect@CEffectGroup@@QAEJMV?$basic_string@DU?$char_traits@D@std@@V?$allocator@D@2@@std@@@Z 
?AddEffectSource@CTextureEffectGlobal@@QAEXKJJJJ@Z 
?AddEntitiesInSector@CWorld@@QAEXPAVCBrushSector@@@Z 
?AddEntityToCollisionGrid@CWorld@@QAEXPAVCEntity@@ABV?$AABBox@M$02@@@Z 
?AddEntityZoningSector@CWorld@@QAEXPAVCBrushSector@@@Z 
?AddExpeditionMember@Party@@QAEXHHHJAAVCTString@@CCHHHHHMMCJ@Z 
?AddExpeditionMember@Party@@QAEXHHUstExpeditionMember@@@Z 
?AddExtension_OGL@CGfxLibrary@@AAEXKPBD@Z 
?AddFlag@CTerrain@@QAEXK@Z 
?AddFlagsToPlayingAnim@CModelInstance@@QAEHJK@Z 
?AddForce@CParticlesProcessForce@@QAEXABVCForce@@@Z 
?AddFrame_t@CTextureData@@QAEXPBVCImageInfo@@@Z 
?AddFromObject3D_t@CBrushMip@@QAEPAVCBrushSector@@AAVCObject3D@@@Z 
?AddGBReqdDescString@CUIGuildBattle@@QAEXAAVCTString@@K@Z 
?AddGoodsBringData@CUICashShopEX@@IAEXXZ 
?AddHandler@CTimer@@QAEXPAVCTimerHandler@@@Z 
?AddHead@CListHead@@QAEXAAVCListNode@@@Z 
?AddHeight@CShockWaveEffect@@QAEIMM@Z 
?AddHolyWaterEffect@CItemEffect@@QAEXHPAVCTagManager@@@Z 
?AddImage@CUIImageArray@@QAEXU_UIRect@@UUIRectUV@@HV?$basic_string@DU?$char_traits@D@std@@V?$allocator@D@2@@std@@@Z 
?AddItemInfoString@CUIManager@@QAEXAAVCTString@@KHH@Z 
?AddLayer@CLightSource@@QAEXAAVCBrushPolygon@@@Z 
?AddLegitList@CNetworkLibrary@@QAEXH@Z 
?AddListItem@CUIList@@QAEXPAVCUIBase@@@Z 
?AddLoadingInfo@CZoneInfo@@QAEXMVCTString@@0@Z 
?AddLoginEffect@CItemEffect@@QAEXPAVCTagManager@@@Z 
?AddMass@CParticlesProcessDynamicState@@QAEIMM@Z 
?AddMeshLod@CMesh@@QAEXAAUMeshLOD@@@Z 
?AddMesh_t@CModelInstance@@QAEXABVCTFileName@@@Z 
?AddMessageBoxLString@CUIManager@@QAEXHHAAVCTString@@HKV2@@Z 
?AddMipBrushFromObject3D_t@CBrush3D@@QAEXAAVCObject3D@@M@Z 
?AddMipModel@CEditModel@@AAEXPAVCObject3D@@@Z 
?AddMoveList@CNetworkLibrary@@QAEXAAVCEntity@@@Z 
?AddMoveList@CNetworkLibrary@@QAEXJMMMM@Z 
?AddNeedMPReductionRate@CUIManager@@QAEXH@Z 
?AddNetGraphValue@CNetworkLibrary@@QAEXW4NetGraphEntryType@@M@Z 
?AddNew@CParticles@@QAEII@Z 
?AddNewTagInfo@CEntityTag@@QAEXAAVTagInfo@@@Z 
?AddNewTagInfo@CEntityTag@@QAEXMAAV?$Quaternion@M@@AAV?$Vector@M$02@@1@Z 
?AddNewTagInfo@CEntityTag@@QAEXMAAY0M@M0@Z 
?AddNewTagInfo@CSkaTag@@QAEXMAAY0M@$$CBM0000000@Z 
?AddNewTagInfo@CSkaTag@@QAEXMAAY0M@$$CBM00000@Z 
?AddNewTagInfo@CSkaTag@@QAEXMAAY0M@$$CBM000@Z 
?AddNewTagInfo@CSkaTag@@QAEXMAAY0M@$$CBM0@Z 
?AddNewTagInfo@CTag@@IAEXABVTagInfo@@@Z 
?AddNewTagInfo@CTag@@IAEXMAAY0M@$$CBM0@Z 
?AddNewTagInfo@CTag@@IAEXMABV?$Quaternion@M@@ABV?$Vector@M$02@@1@Z 
?AddNewTagInfo@CWorldTag@@QAEXAAVTagInfo@@@Z 
?AddNewTagInfo@CWorldTag@@QAEXMAAV?$Quaternion@M@@AAV?$Vector@M$02@@1@Z 
?AddNewTagInfo@CWorldTag@@QAEXMAAY0M@M0@Z 
?AddNickEffect@CItemEffect@@QAEHPBDPAVCTagManager@@@Z 
?AddObject@ActorMgr@@QAEXPAUObjectBase@@@Z 
?AddObjectToBrush@CWorld@@QAEXAAVCObject3D@@AAVCEntity@@@Z 
?AddOrbit@COrbitEffect@@QAEJABUsOrbitInfo@1@@Z 
?AddPartyMember@Party@@QAEXCJAAVCTString@@CCHHHHHMMCJ@Z 
?AddPet@PetStash@@QAEXPAUPetStashData@UpdateClient@@@Z 
?AddPetStashEffect@CItemEffect@@QAEHHPAVCTagManager@@@Z 
?AddPlayer@CSessionState@@QAEXJAAVCPlayerCharacter@@AAK11J@Z 
?AddPlayer_t@CNetworkLibrary@@QAEPAVCPlayerSource@@AAVCPlayerCharacter@@@Z 
?AddPos@CEffectControl@@QAEIMV?$Vector@M$02@@@Z 
?AddPosition@CLastPositions@@QAEXABV?$Vector@M$02@@@Z 
?AddQuadrangle@CDrawPort@@QBEXMMMMKM@Z 
?AddQuest@Quest@@QAEHHH@Z 
?AddQuestList@Quest@@QAEHHH@Z 
?AddQuickSlot@CNetworkLibrary@@QAEXHHHHH@Z 
?AddRadius@CShockWaveEffect@@QAEIMM@Z 
?AddRaidMessage@Quest@@QAEXABH@Z 
?AddRef@CTag@@QAEKXZ 
?AddReference@CEntity@@QAEXXZ 
?AddReference@CEntityClass@@QAEXXZ 
?AddReference@CSoundData@@QAEXXZ 
?AddRegenList@CNetworkLibrary@@QAEXJJMMMMJJ@Z 
?AddRelationPair@@YAXAAVCRelationSrc@@AAVCRelationDst@@@Z 
?AddRelationPairHeadHead@@YAXAAVCRelationSrc@@AAVCRelationDst@@@Z 
?AddRelationPairTailTail@@YAXAAVCRelationSrc@@AAVCRelationDst@@@Z 
?AddRelicEffect@CItemEffect@@QAEHHPAVCTagManager@@@Z 
?AddRenderTickCount@CInvenData@@QAEXXZ 
?AddRescueNPC@CNetworkLibrary@@QAEXPAVCEntity@@@Z 
?AddReservedEG@CAnimEffect@@QAEXABVCTString@@MK@Z 
?AddRestoreQuestList@Quest@@QAEXABHH@Z 
?AddSeal@CUICharacterInfo@@QAEXH_J@Z 
?AddSector@CCastRay@@QAEXPAVCBrushSector@@@Z 
?AddSectorsAroundEntity@CCastRay@@QAEXPAVCEntity@@@Z 
?AddSelectedQuest@Quest@@QAEXABH@Z 
?AddShakeValue@CCameraEffect@@QAEIMABVCCameraValue@1@@Z 
?AddShapeButton@CUITatoo@@AAEXHHHH@Z 
?AddSimpleShadow@CModelInstance@@QAEXMABV?$Plane@M$02@@@Z 
?AddSimpleShadow@CModelObject@@QAEXAAVCRenderModel@@MABV?$Plane@M$02@@@Z 
?AddSimpleShadow_View@CModelObject@@AAEXAAVCRenderModel@@MABV?$Plane@M$02@@@Z 
?AddSize@CParticlesProcessDynamicState@@QAEIMMM@Z 
?AddSkaModel@CEntity@@QAEXABVCTString@@@Z 
?AddSkeleton_t@CModelInstance@@QAEXABVCTFileName@@@Z 
?AddSkill@CUICharacterInfo@@QAEXHCH@Z 
?AddSkletonLod@CSkeleton@@QAEXAAUSkeletonLOD@@@Z 
?AddSplinePath@CSplinePathEffect@@QAEJABUsSplinePathInfo@1@@Z 
?AddStretch@CEffectControl@@QAEIMV?$Vector@M$02@@@Z 
?AddString@CUIComboBox@@QAEXAAVCTString@@@Z 
?AddString@CUIListBox@@QAEXHAAVCTString@@KHPAXH@Z 
?AddString@CUIMsgBox_Info@@QAEXAAVCTString@@KW4TEXT_ALIGN@@@Z 
?AddString@CUIMultiLineText@@QAEXAAVCTString@@KW4TEXT_ALIGN@@@Z 
?AddStringEx@CUIMsgBox_Info@@QAEXAAVCTString@@HHKW4TEXT_ALIGN@@@Z 
?AddStringToList@CUIManager@@QAEXPAVCUIListBox@@AAVCTString@@JKJ@Z 
?AddSysMessage@CChattingUI@@QAEXVCTString@@HK@Z 
?AddTag@CGroupTag@@QAEXABV?$CRefCountPtr@VCTag@@@@@Z 
?AddTagForAllEffect@CEffectGroup@@QAEXMV?$basic_string@DU?$char_traits@D@std@@V?$allocator@D@2@@std@@@Z 
?AddTagForEffect@CEffectGroup@@QAEJMJV?$basic_string@DU?$char_traits@D@std@@V?$allocator@D@2@@std@@@Z 
?AddTail@CListHead@@QAEXAAVCListNode@@@Z 
?AddTexPos@CParticlesProcessDynamicState@@QAEIMEE@Z 
?AddText@CUITextBoxEx@@QAEXAAV?$basic_string@DU?$char_traits@D@std@@V?$allocator@D@2@@std@@K@Z 
?AddText@CUITextEx@@QAEXPBDKH@Z 
?AddTexture@CDrawPort@@QBEXMMMMK@Z 
?AddTexture@CDrawPort@@QBEXMMMMKMMMMKMMMMKMMMMK@Z 
?AddTexture@CDrawPort@@QBEXMMMMMMMMKM@Z 
?AddTexture@CDrawPort@@QBEXMMMMMMMMMMMMK@Z 
?AddTexture@CDrawPort@@QBEXMMMMUUIRectUV@@KM@Z 
?AddTexture_t@CEditModel@@QAEPAVCTextureDataInfo@@ABVCTFileName@@JJ@Z 
?AddTexture_t@CModelInstance@@QAEXABVCTFileName@@JPAUMeshInstance@@@Z 
?AddTexture_t@CModelInstance@@QAEXABVCTFileName@@VCTString@@PAUMeshInstance@@@Z 
?AddTimer@CWorld@@QAEXPAVCRationalEntity@@@Z 
?AddToCRCTable@CEntityClass@@UAEXXZ 
?AddToCRCTable@CEntityComponent@@QAEXXZ 
?AddToCRCTable@CSerial@@UAEXXZ 
?AddToMovers@CMovableEntity@@QAEXXZ 
?AddToMoversDuringMoving@CMovableEntity@@QAEXXZ 
?AddToNoticeList@Notice@@QAEXHW4eNoticeType@1@@Z 
?AddToPendingList@CSoundLibrary@@QAEXAAVCSoundObject@@@Z 
?AddToZoneList@CUIPortal@@QAEXHH@Z 
?AddTranslationTable_t@@YAXABVCTFileName@@@Z 
?AddTranslationTablesDir_t@@YAXABVCTFileName@@0@Z 
?AddTriangle@CDrawPort@@QBEXMMMMMMKM@Z 
?AddUI@CUITextBoxEx@@QAEXPAVCUIBase@@@Z 
?AddWearEffect@CItemEffect@@QAEHPBDHPAVCTagManager@@@Z 
?AddWidth@CShockWaveEffect@@QAEIMM@Z 
?AddressToString@@YA?AVCTString@@K@Z 
?AdjustBitmapColor@@YAXPAK0JJJJ@Z 
?AdjustBones@CEntity@@UAEXXZ 
?AdjustColor@@YAKKJJ@Z 
?AdjustDeadReckoning@CMovableEntity@@QAEXVCPlacement3D@@0M@Z 
?AdjustDeadReckoningNew@CMovableEntity@@QAEXVCPlacement3D@@0MV?$Vector@M$02@@@Z 
?AdjustGamma@@YAKKM@Z 
?AdjustLateTimers@CWorld@@QAEXM@Z 
?AdjustLocalTime@CSessionState@@QAEXXZ 
?AdjustMipFactor@CEntity@@UAEXAAM@Z 
?AdjustPosition@CUICashShopEX@@UAEXJJJJ@Z 
?AdjustPosition@CUICharacterInfo@@UAEXJJJJ@Z 
?AdjustPosition@CUIExpressSystem@@UAEXJJJJ@Z 
?AdjustPosition@CUIGuildBattle@@UAEXJJJJ@Z 
?AdjustPosition@CUIOption@@UAEXJJJJ@Z 
?AdjustPosition@CUIPetStashSelectEffect@@UAEXJJJJ@Z 
?AdjustPosition@CUISingleBattle@@UAEXJJJJ@Z 
?AdjustPosition@CUITatoo@@UAEXJJJJ@Z 
?AdjustShaderParams@CEntity@@UAEXJPAVCShader@@AAUShaderParams@@@Z 
?AdjustShadingParameters@CEntity@@UAEHAAV?$Vector@M$02@@AAK1@Z 
?AdjustSlidePos@CUISlideBar@@IAEXH@Z 
?AdjustUIPos@CUIManager@@QAEXPAVCDrawPort@@@Z 
?AllocMemory@@YAPAXJ@Z 
?AllocMemoryAligned@@YAPAXJJ@Z 
?AllowForGroundPolygon@CMovableEntity@@UAEHPAVCBrushPolygon@@@Z 
?AmILeader@Party@@QAEHXZ 
?AnglesToDirectionVector@@YAXABV?$Vector@M$02@@AAV1@@Z 
?AnyOneArg@CSessionState@@QAEPADPAD0@Z 
?AppearChaPolymoph@CPlayerEntity@@UAEXPAVCEntity@@J@Z 
?AppearChaTransform@CPlayerEntity@@UAEXPAVCEntity@@J@Z 
?AppearWearingWeapon@CPlayerEntity@@UAEXH@Z 
?ApplyAction@CPlayerEntity@@UAEXABVCPlayerAction@@M@Z 
?ApplyActionLocally@CPlayerSource@@QAEXABVCPlayerAction@@@Z 
?ApplyDeadReckoning@CMovableEntity@@QAEXXZ 
?ApplyNewerActions@CPlayerSource@@QAEXK@Z 
?ApplyOption@CUIOption@@QAEXXZ 
?ApplySurfaceToPolygon@CModelObject@@QAEXPAVCDrawPort@@PAVCProjection3D@@JJJK@Z 
?ApplySurfaceToPolygonsInRegion@CModelObject@@QAEXPAVCDrawPort@@PAVCProjection3D@@V?$AABBox@J$01@@JK@Z 
?ArePolygonsPlanar@CObject3D@@QAEHXZ 
?ArrangeItem@CNetworkLibrary@@QAEXH@Z 
?ArrangePurchaseGetGoods@CUICashShopEX@@IAEXXZ 
?AspectRatioL@CProjection3D@@QAEAAMXZ 
?AspectRatioR@CProjection3D@@QBEABMXZ 
?AtEOF@CTFileStream@@UAEHXZ 
?AtEOF@CTMemoryStream@@UAEHXZ 
?Attach@CImageInfo@@QAEXPAEJJJ@Z 
?AttachToTag@CEffect@@QAEXABV?$CRefCountPtr@VCTag@@@@@Z 
?AttackCharReq@CNetworkLibrary@@QAEXXZ 
?AttackGuildReq@CNetworkLibrary@@QAEXXZ 
?AttackReq@CNetworkLibrary@@QAEXXZ 
?AutoMipModelingOff@CModelObject@@QAEXXZ 
?AutoMipModelingOn@CModelObject@@QAEXXZ 
?AutoRef@CUIEditBox@@IAEXH@Z 
?AutoSetAttachments@CModelObject@@QAEXXZ 
?AutoSetTextures@CModelObject@@QAEXXZ 
?BBoxAllShow@CModelRenderPrefs@@QAEXH@Z 
?BBoxAllVisible@CModelRenderPrefs@@QAEHXZ 
?BBoxFrameShow@CModelRenderPrefs@@QAEXH@Z 
?BBoxFrameVisible@CModelRenderPrefs@@QAEHXZ 
?BackToSelChar@CGameState@@QAEXXZ 
?BasicBackgroundInit@CUICashShopEX@@IAEXMM@Z 
?BatchLoading_t@CObject3D@@SAXH@Z 
?BeIsometric@CAnyProjection3D@@QAEXXZ 
?BeParallel@CAnyProjection3D@@QAEXXZ 
?BePerspective@CAnyProjection3D@@QAEXXZ 
?BeSimple@CAnyProjection3D@@QAEXXZ 
?Begin@CRenderTexture@@QAEXXZ 
?Begin@cWeb@@QAEHXZ 
?BeginModelRenderingMask@@YAXAAVCAnyProjection3D@@PAEJJ@Z 
?BeginModelRenderingView@@YAXAAVCAnyProjection3D@@PAVCDrawPort@@@Z 
?BeginRender@CEffect@@UAEHAAVCAnyProjection3D@@PAVCDrawPort@@@Z 
?BeginRender@CLightEffect@@UAEHAAVCAnyProjection3D@@PAVCDrawPort@@@Z 
?BeginRender@CMdlEffect@@UAEHAAVCAnyProjection3D@@PAVCDrawPort@@@Z 
?BeginRender@CParticleEffect@@UAEHAAVCAnyProjection3D@@PAVCDrawPort@@@Z 
?BeginRender@CShockWaveEffect@@UAEHAAVCAnyProjection3D@@PAVCDrawPort@@@Z 
?BeginRender@CSkaEffect@@UAEHAAVCAnyProjection3D@@PAVCDrawPort@@@Z 
?BeginRender@CSplineBillboardEffect@@UAEHAAVCAnyProjection3D@@PAVCDrawPort@@@Z 
?BeginRender@CTerrainEffect@@UAEHAAVCAnyProjection3D@@PAVCDrawPort@@@Z 
?BeginRender@CTraceEffect@@UAEHAAVCAnyProjection3D@@PAVCDrawPort@@@Z 
?Benchmark@CGfxLibrary@@QAEXPAVCViewPort@@PAVCDrawPort@@@Z 
?Bind_t@CCommunicationInterface@@QAEXKK@Z 
?BlendScreen@CDrawPort@@QAEXXZ 
?BreakUpParty@Party@@IAEXXZ 
?Broadcast_Receive@CCommunicationInterface@@QAEHPAXAAJAAVCAddress@@@Z 
?Broadcast_Send@CCommunicationInterface@@QAEXPBXJAAVCAddress@@@Z 
?Broadcast_Update_t@CCommunicationInterface@@QAEXXZ 
?BuffsStartGroupEffect@CMobTarget@@QAEXXZ 
?BuildControlFromElement@UIFactory@@AAEPAVCUIBase@@PAVTiXmlElement@@@Z 
?BuyItem@CNetworkLibrary@@QAEXHH_J@Z 
?CON_DiscardLastLineTimes@@YAXXZ 
?CON_GetBuffer@@YAPBDXZ 
?CON_GetBufferSize@@YAJXZ 
?CON_GetLastLine@@YA?AVCTString@@J@Z 
?CON_NumberOfLinesAfter@@YAJM@Z 
?CPrintF@@YAXPBDZZ 
?CPutString@@YAXPBD@Z 
?CSGAdd@CWorld@@QAEXAAVCEntity@@AAV1@0ABVCPlacement3D@@@Z 
?CSGAddMaterial@CObject3D@@QAEXAAV1@0@Z 
?CSGAddMaterialReverse@CObject3D@@QAEXAAV1@0@Z 
?CSGAddReverse@CWorld@@QAEXAAVCEntity@@AAV1@0ABVCPlacement3D@@@Z 
?CSGAddRooms@CObject3D@@QAEXAAV1@0@Z 
?CSGJoinSectors@CObject3D@@QAEXAAV1@0@Z 
?CSGRemove@CWorld@@QAEXAAVCEntity@@AAV1@0ABVCPlacement3D@@@Z 
?CSGRemoveMaterial@CObject3D@@QAEXAAV1@0@Z 
?CSGSplitPolygons@CObject3D@@QAEXAAV1@0@Z 
?CSGSplitSectors@CObject3D@@QAEXAAV1@0@Z 
?Cache@CShadowMap@@QAEXJ@Z 
?CacheAllShadowmaps@CBrushArchive@@QAEXXZ 
?CacheNearPolygons@CMovableEntity@@QAEXXZ 
?CalcPriceAddition@MyInfo@@QAE_JH@Z 
?CalcPriceRate@MyInfo@@QAE_J_JH@Z 
?CalculateAbsoluteTransformations@CSkeleton@@QAEXJ@Z 
?CalculateArea@CBrushPolygon@@QAENXZ 
?CalculateBoundingBox@CBrushPolygon@@QAEXXZ 
?CalculateBoundingBoxes@CBrush3D@@QAEXXZ 
?CalculateBoundingBoxes@CBrushArchive@@QAEXXZ 
?CalculateBoundingBoxes@CBrushMip@@QAEXAAVCSimpleProjection3D_DOUBLE@@@Z 
?CalculateBoundingBoxes@CBrushSector@@QAEXAAVCSimpleProjection3D_DOUBLE@@@Z 
?CalculateBoundingBoxesForOneMip@CBrush3D@@QAEXPAVCBrushMip@@@Z 
?CalculateDPS@CDamageLogInfo@@QAEXXZ 
?CalculateDirectionalShadows@CWorld@@QAEXXZ 
?CalculateFadeFactor@@YAMABUAnimList@@@Z 
?CalculateMappingForMips@CEditModel@@QAEXXZ 
?CalculateNonDirectionalShadows@CWorld@@QAEXXZ 
?CalculatePatchesPerPolygon@CEditModel@@QAEXXZ 
?CalculateUnwrappedMapping@CEditModel@@QAEXAAVCObject3D@@00@Z 
?CalculateVolume@CBrushSector@@QAENXZ 
?Call@CEntity@@QAEXJJHABVCEntityEvent@@@Z 
?Call@CRationalEntity@@QAEXJJHABVCEntityEvent@@@Z 
?CallPet@CNetworkLibrary@@QAEXJ@Z 
?CanCopySectors@CWorld@@QAEHAAV?$CSelection@VCBrushSector@@$00@@@Z 
?CanIDoQuest@CQuestSystem@@QAEHJ@Z 
?CanJoinAllPossiblePolygons@CWorld@@QAEHAAV?$CSelection@VCBrushPolygon@@$0BAA@@@@Z 
?CanJoinPolygons@CWorld@@QAEHAAV?$CSelection@VCBrushPolygon@@$0BAA@@@@Z 
?CanJoinSectors@CWorld@@QAEHAAV?$CSelection@VCBrushSector@@$00@@@Z 
?CanUse@CItemData@@QAEHH@Z 
?CancelOption@CUIOption@@QAEXXZ 
?CancelProduct@CPlayerEntity@@UAEXXZ 
?CancelRestart@CUISystemMenu@@QAEXXZ 
?CancelSkill@CPlayerEntity@@UAEXHHH@Z 
?CancelSkill@CUIManager@@QAEXHH@Z 
?Cast@CCastRay@@QAEXPAVCWorld@@@Z 
?CastForTerrainShadow@CCastRay@@QAEHPAVCWorld@@HHHH@Z 
?CastRay@CWorld@@QAEXAAVCCastRay@@@Z 
?CategoryFrameInit@CUICashShopEX@@IAEXMM@Z 
?Center@CMappingDefinition@@QAEXABVCMappingVectors@@ABV?$Vector@M$02@@@Z 
?Change@CItemEffect@@QAEXHPAVCItemData@@HHPAVCTagManager@@CH@Z 
?ChangeCharacter@CPlayerSource@@QAEXAAVCPlayerCharacter@@@Z 
?ChangeCheckImg@CUICharacterInfo@@AAEXH@Z 
?ChangeCollisionBoxIndexNow@CMovableModelEntity@@QAEHJ@Z 
?ChangeCollisionBoxIndexNow@CMovableModelEntity@@QAEHJPAPAVCEntity@@@Z 
?ChangeCollisionBoxIndexWhenPossible@CMovableModelEntity@@QAEXJ@Z 
?ChangeEffect@ActorMgr@@QAEXW4eOBJ_TYPE@@JPBD1@Z 
?ChangeExpeditionLeader@Party@@QAEXJJJ@Z 
?ChangeFace@CUICharacterCreateNew@@AAEXH@Z 
?ChangeFaceMesh@CPlayerEntity@@UAEXPAVCModelInstance@@HC@Z 
?ChangeGroup@Party@@QAEXJHH@Z 
?ChangeGuildInfo@ActorMgr@@QAEXJJJJPBD@Z 
?ChangeGuildLevel@ActorMgr@@QAEXJJ@Z 
?ChangeHair@CUICharacterCreateNew@@AAEXH@Z 
?ChangeHairMesh@CPlayerEntity@@UAEXPAVCModelInstance@@HC@Z 
?ChangeItemsPerPage@CUIScrollBar@@QAEXH@Z 
?ChangeJobGiveUp@CNetworkLibrary@@QAEXH@Z 
?ChangeJobReq@CNetworkLibrary@@QAEXCH@Z 
?ChangeLevel@CNetworkLibrary@@QAEXABVCTFileName@@HJ@Z 
?ChangeLevel_client_internal_t@CNetworkLibrary@@QAEXXZ 
?ChangeLevel_internal@CNetworkLibrary@@QAEXXZ 
?ChangeLineCount@CUIListBox@@QAEXH@Z 
?ChangeMailNpc@ExpressSystem@@QAEXW4eMAIL_NPC_STATE@@@Z 
?ChangeNPCQuestMark@CStatusEffect@@QAEXPAVCTagManager@@W4eNpcQuestType@CQuestSystem@@@Z 
?ChangeOrder@CUIManager@@QAEXHH@Z 
?ChangePage@CUICharacterInfo@@AAEXH@Z 
?ChangeParent@CModelInstance@@QAEXPAV1@0@Z 
?ChangeScrollPos@CUIScrollBar@@QAEXH@Z 
?ChangeSize@CTextureData@@QAEXJ@Z 
?ChangeSize@CUIListBox@@QAEXH@Z 
?ChangeSize@CUIScrollBar@@QAEXH@Z 
?ChangeStatus@CCharacterTarget@@QAEXPAVCTagManager@@_JW4eRelation@CStatusEffect@@@Z 
?ChangeStatus@CMobTarget@@QAEXPAVCTagManager@@_J@Z 
?ChangeStatus@CPetTarget@@QAEXPAVCTagManager@@_J@Z 
?ChangeStatus@CSlaveTarget@@QAEXPAVCTagManager@@_J@Z 
?ChangeStatus@CStatusEffect@@QAEXPAVCTagManager@@_JW4eRelation@1@@Z 
?ChangeSurfaceShader_t@@YAXAAUMeshSurface@@VCTString@@@Z 
?ChangeTab@CUICharacterInfo@@QAEXXZ 
?ChangeTabAction@CUICharacterInfo@@QAEXXZ 
?ChangeTabCommunity@CUICharacterInfo@@QAEXXZ 
?ChangeTabPage@CUICharacterInfo@@AAEXH@Z 
?ChangeTabSkill@CUICharacterInfo@@QAEXXZ 
?ChangeWeaponEventReq@CNetworkLibrary@@QAEXJJ@Z 
?ChangeWeaponReq@CNetworkLibrary@@QAEXFFJJJJJ@Z 
?ChangeWindowMode@CUIOption@@QAEXXZ 
?CharMessage@CUIBase@@UAE?AW4WMSG_RESULT@@PAUtagMSG@@@Z 
?CharMessage@CUICashShopEX@@UAE?AW4WMSG_RESULT@@PAUtagMSG@@@Z 
?CharMessage@CUIEditBox@@UAE?AW4WMSG_RESULT@@PAUtagMSG@@@Z 
?CharMessage@CUIGuildBattle@@UAE?AW4WMSG_RESULT@@PAUtagMSG@@@Z 
?CharMessageChild@CUIBase@@UAE?AW4WMSG_RESULT@@PAUtagMSG@@@Z 
?CharMessageProc@CUIBase@@UAE?AW4WMSG_RESULT@@PAUtagMSG@@@Z 
?CharMessageProc@CUITree@@UAE?AW4WMSG_RESULT@@PAUtagMSG@@@Z 
?CharProc@MsgBoxMgr@@QAE?AW4WMSG_RESULT@@PAUtagMSG@@@Z 
?CharacterChanged@CPlayerEntity@@UAEXABVCPlayerCharacter@@@Z 
?CharacterNameIsUsed@CServer@@QAEHAAVCPlayerCharacter@@@Z 
?CheckAnim@CUICharacterCreateNew@@AAEHH@Z 
?CheckAttackTarget@CPlayerEntity@@UAEHJPAVCEntity@@M@Z 
?CheckChangeCondition@CPlayerEntity@@UAEHJJ@Z 
?CheckChildProc@CUITreeItem@@QAE_NXZ 
?CheckClassProperties@CEntityClass@@QAEXXZ 
?CheckDistance@ExpressSystem@@QAE_NXZ 
?CheckDratanWarInside@CUIManager@@QAEHPAVCCharacterTarget@@@Z 
?CheckEngineVersion@@YAXXZ 
?CheckEntityOfTarget@CPlayerEntity@@UAEHPAVCEntity@@0@Z 
?CheckEscKey@CPlayerEntity@@UAEHXZ 
?CheckForCollisionNow@CMovableModelEntity@@QAEHJPAPAVCEntity@@@Z 
?CheckIDs@CEntityEvent@@UAEHXZ 
?CheckIDs@EBegin@@UAEHXZ 
?CheckIDs@EBlock@@UAEHXZ 
?CheckIDs@EDamage@@UAEHXZ 
?CheckIDs@EDeath@@UAEHXZ 
?CheckIDs@EFirstWorldBase@@UAEHXZ 
?CheckIDs@EInternal@@UAEHXZ 
?CheckIDs@EPass@@UAEHXZ 
?CheckIDs@EPlayerInit@@UAEHXZ 
?CheckIDs@EPostLevelChange@@UAEHXZ 
?CheckIDs@EPreLevelChange@@UAEHXZ 
?CheckIDs@EReturn@@UAEHXZ 
?CheckIDs@ETakingBreath@@UAEHXZ 
?CheckIDs@ETeleport@@UAEHXZ 
?CheckIDs@ETimer@@UAEHXZ 
?CheckIDs@ETouch@@UAEHXZ 
?CheckIDs@EVoid@@UAEHXZ 
?CheckIDs@EWouldFall@@UAEHXZ 
?CheckIPFilter@CCommunicationInterface@@IAEHXZ 
?CheckLayersUpToDate@CBrushShadowMap@@UAEXXZ 
?CheckLayersUpToDate@CShadowMap@@UAEXXZ 
?CheckModelRangeDamage@CEntity@@QAEHAAV1@ABV?$Vector@M$02@@AAMAAV2@@Z 
?CheckNPCNotice@ActorMgr@@QAE_NJAAVCTString@@@Z 
?CheckNormalAttack@CPlayerEntity@@UAEHPAVCEntity@@M@Z 
?CheckPetType@CNetworkLibrary@@QAEXCAAJ0@Z 
?CheckSSkill@CUICharacterInfo@@QAEHH@Z 
?CheckSSkillByIndex@CUICharacterInfo@@QAEHHHPAH@Z 
?CheckSellerItem@CUIManager@@QAEHW4UI_TYPE@@H@Z 
?CheckSendSkill@CNetworkLibrary@@AAE_NJ@Z 
?CheckShowCharLength@CDrawPort@@QAEHPADH@Z 
?CheckShowShape@CUITatoo@@AAEXXZ 
?CheckSkillAttack@CNetworkLibrary@@QAEHJPAVCEntity@@@Z 
?CheckSplit@CUITextBox@@IAEXAAH00@Z 
?CheckSyndiMark@ActorMgr@@QAEHJJ@Z 
?CheckVersion_t@CNetworkLibrary@@QAEXAAVCTStream@@HAAH@Z 
?ClampMipLevel@CTextureData@@QBEJM@Z 
?ClampTextureSize@@YAJJJJJ@Z 
?ClassificationShowRender@CUIAutoHelp@@QAEXXZ 
?Clear@CAnimData@@UAEXXZ 
?Clear@CAnimSet@@UAEXXZ 
?Clear@CAttachedModel@@QAEXXZ 
?Clear@CAttachedModelPosition@@QAEXXZ 
?Clear@CAttachedSound@@QAEXXZ 
?Clear@CBrush3D@@QAEXXZ 
?Clear@CBrushEdge@@QAEXXZ 
?Clear@CBrushMip@@QAEXXZ 
?Clear@CBrushPlane@@QAEXXZ 
?Clear@CBrushPolygon@@QAEXXZ 
?Clear@CBrushPolygonEdge@@QAEXXZ 
?Clear@CBrushPolygonTexture@@QAEXXZ 
?Clear@CBrushSector@@QAEXXZ 
?Clear@CBrushVertex@@QAEXXZ 
?Clear@CCollisionInfo@@QAEXXZ 
?Clear@CEffectGroupManager@@QAEXXZ 
?Clear@CEffectManager@@QAEXXZ 
?Clear@CEntity@@QAEXXZ 
?Clear@CEntityClass@@UAEXXZ 
?Clear@CFontData@@UAEXXZ 
?Clear@CGroupTag@@QAEXXZ 
?Clear@CImageInfo@@QAEXXZ 
?Clear@CIntersector@@QAEXXZ 
?Clear@CItemEffect@@QAEXXZ 
?Clear@CListHead@@QAEXXZ 
?Clear@CMesh@@UAEXXZ 
?Clear@CMobTarget@@QAEXXZ 
?Clear@CModelCollisionBox@@QAEXXZ 
?Clear@CModelData@@UAEXXZ 
?Clear@CModelInstance@@QAEXXZ 
?Clear@CModelInstanceSerial@@UAEXXZ 
?Clear@CNiceWater@@QAEXXZ 
?Clear@CObject3D@@QAEXXZ 
?Clear@CObjectPolygon@@QAEXXZ 
?Clear@CObjectPolygonEdge@@QAEXXZ 
?Clear@CParticleGroupManager@@QAEXXZ 
?Clear@CPlayerAction@@QAEXXZ 
?Clear@CRenderModel@@QAEXXZ 
?Clear@CRenderTexture@@QAEXKM@Z 
?Clear@CSelectedEntities@@QAEXXZ 
?Clear@CSerial@@UAEXXZ 
?Clear@CShader@@UAEXXZ 
?Clear@CShadowMap@@QAEXXZ 
?Clear@CSkeleton@@UAEXXZ 
?Clear@CSoundData@@UAEXXZ 
?Clear@CSoundLibrary@@QAEXXZ 
?Clear@CTString@@QAEXXZ 
?Clear@CTWString@@QAEXXZ 
?Clear@CTagManager@@QAEXXZ 
?Clear@CTerrain@@QAEXXZ 
?Clear@CTextureData@@UAEXXZ 
?Clear@CUIAutoHelp@@QAEXXZ 
?Clear@CUIGuildBattle@@QAEXXZ 
?Clear@CUIImageArray@@QAEXXZ 
?Clear@CUIMultiLineText@@QAEXXZ 
?Clear@CUISignBoard@@QAEXXZ 
?Clear@CUISingleBattle@@QAEXXZ 
?Clear@CUITatoo@@QAEXXZ 
?Clear@CWorld@@QAEXXZ 
?Clear@ModelMipInfo@@QAEXXZ 
?Clear@PolygonsPerPatch@@QAEXXZ 
?ClearActionApplied@CMovableEntity@@UAEXXZ 
?ClearAffinityData@CNetworkLibrary@@QAEXXZ 
?ClearAffinityRewardNPC@CNetworkLibrary@@QAEXXZ 
?ClearAllAllowList@CQuestSystem@@QAEXXZ 
?ClearAllDynamicData@CQuestSystem@@QAEXXZ 
?ClearAllRestoreList@Quest@@QAEXXZ 
?ClearAni@CUISpriteAni@@QAEXXZ 
?ClearAnimations@CModelData@@QAEXXZ 
?ClearAttackList@CNetworkLibrary@@QAEXXZ 
?ClearBuffer@CSoundData@@QAEXXZ 
?ClearCashType@CUICashShopEX@@IAEXXZ 
?ClearCharacterSlot@CGameState@@QAEXXZ 
?ClearChild@CTagManager@@QAEXXZ 
?ClearCollisionGrid@CWorld@@QAEXXZ 
?ClearControlsValue@CInputDevice@@QAEXXZ 
?ClearCreated@CEffectGroupManager@@QAEXXZ 
?ClearCreated@CEffectManager@@QAEXXZ 
?ClearCreated@CParticleGroupManager@@QAEXXZ 
?ClearDamageData@CUIManager@@QAEXXZ 
?ClearExpress@CUIExpressSystem@@QAEXXZ 
?ClearGMNNotice@CUIAutoHelp@@QAEXXZ 
?ClearGoodsList@CUICashShopEX@@IAEXXZ 
?ClearInput@CInput@@QAEXXZ 
?ClearInputBuffer@CUIEditBox@@QAEXXZ 
?ClearInstance@CCameraEffect@@IAEXXZ 
?ClearInstance@COrbitEffect@@IAEXXZ 
?ClearInstance@CShockWaveEffect@@IAEXXZ 
?ClearInstance@CSplinePathEffect@@IAEXXZ 
?ClearItemList@CUIExpressSystem@@QAEXXZ 
?ClearLabel@ActorMgr@@QAEXXZ 
?ClearLibrary@CSoundLibrary@@QAEXXZ 
?ClearList@ExpressSystem@@QAEXXZ 
?ClearMarkedForUseFlag@CWorld@@QAEXXZ 
?ClearModelEffect@CGameState@@QAEXHW4eModelUIType@@@Z 
?ClearMove@CPlayerEntity@@UAEXXZ 
?ClearMoveList@CNetworkLibrary@@QAEXXZ 
?ClearMovingTemp@CMovableEntity@@UAEXXZ 
?ClearMovingTemp@CRationalEntity@@UAEXXZ 
?ClearMultiTargets@CPlayerEntity@@UAEXXZ 
?ClearNPCInfo@ExpressSystem@@QAEXXZ 
?ClearNextPosition@CMovableEntity@@QAEXXZ 
?ClearNoTranslate@CAffinityData@@QAEXV?$vector@JV?$allocator@J@std@@@std@@@Z 
?ClearNoTranslate@CItemData@@QAEXXZ 
?ClearNoTranslate@CMissionCase@@QAEXXZ 
?ClearNoTranslate@CMobData@@QAEXXZ 
?ClearNoTranslate@COptionData@@QAEXXZ 
?ClearNoTranslate@CQuestSystem@@QAEXV?$vector@JV?$allocator@J@std@@@std@@@Z 
?ClearOrbit@COrbitEffect@@QAEXXZ 
?ClearPartyTarget@Party@@QAEXJ@Z 
?ClearPetList@CNetworkLibrary@@QAEXXZ 
?ClearPetList@PetStash@@QAEXXZ 
?ClearPetSkill@MyInfoSkill@@QAEXH@Z 
?ClearPetSkill@MyInfoSkill@@QAEXXZ 
?ClearPurchaseItemList@CUICashShopEX@@IAEXXZ 
?ClearQuest@Quest@@QAEXXZ 
?ClearQuestList@Quest@@QAEXXZ 
?ClearQueue@ByteQueueData@@QAEXXZ 
?ClearReapplyingActions@CMovableEntity@@UAEXXZ 
?ClearRecommandList@CUICashShopEX@@IAEXXZ 
?ClearRegenList@CNetworkLibrary@@QAEXXZ 
?ClearSSkill@MyInfoSkill@@QAEXXZ 
?ClearSSkills@CUICharacterInfo@@QAEXXZ 
?ClearSectorList@CCastRay@@QAEXXZ 
?ClearSelectedQuestList@Quest@@QAEXXZ 
?ClearSkill@MyInfoSkill@@QAEXXZ 
?ClearSkills@CUICharacterInfo@@QAEXXZ 
?ClearSplinePath@CSplinePathEffect@@QAEXXZ 
?ClearTargetInfo@CPlayerEntity@@UAEXPAVCEntity@@@Z 
?ClearTargetMark@Party@@QAEXXZ 
?ClearTemporaryData@CMovableEntity@@QAEXXZ 
?ClearToDefault@@YAXAAC@Z 
?ClearToDefault@@YAXAAE@Z 
?ClearToDefault@@YAXAAF@Z 
?ClearToDefault@@YAXAAG@Z 
?ClearToDefault@@YAXAAH@Z 
?ClearToDefault@@YAXAAJ@Z 
?ClearToDefault@@YAXAAK@Z 
?ClearToDefault@@YAXAAM@Z 
?ClearToDefault@@YAXAAPAVCModelData@@@Z 
?ClearToDefault@@YAXAAPAVCTextureData@@@Z 
?ClearToDefault@@YAXAAV?$Plane@M$02@@@Z 
?ClearToDefault@@YAXAAV?$Vector@M$02@@@Z 
?ClearToDefault@@YAXAAVCEntityID@@@Z 
?ClearToDefault@@YAXAAVCEntityPointer@@@Z 
?ClearToDefault@@YAXAAVCTString@@@Z 
?ClearToDefault@@YAXAAVEBegin@@@Z 
?ClearToDefault@@YAXAAVEBlock@@@Z 
?ClearToDefault@@YAXAAVEDamage@@@Z 
?ClearToDefault@@YAXAAVEDeath@@@Z 
?ClearToDefault@@YAXAAVEFirstWorldBase@@@Z 
?ClearToDefault@@YAXAAVEInternal@@@Z 
?ClearToDefault@@YAXAAVEPass@@@Z 
?ClearToDefault@@YAXAAVEPlayerInit@@@Z 
?ClearToDefault@@YAXAAVEPostLevelChange@@@Z 
?ClearToDefault@@YAXAAVEPreLevelChange@@@Z 
?ClearToDefault@@YAXAAVEReturn@@@Z 
?ClearToDefault@@YAXAAVETakingBreath@@@Z 
?ClearToDefault@@YAXAAVETeleport@@@Z 
?ClearToDefault@@YAXAAVETimer@@@Z 
?ClearToDefault@@YAXAAVETouch@@@Z 
?ClearToDefault@@YAXAAVEVoid@@@Z 
?ClearToDefault@@YAXAAVEWouldFall@@@Z 
?ClearToDefault@@YAXAAW4DamageType@@@Z 
?ClearUI@CUITextBoxEx@@QAEXXZ 
?ClearUI@CUITextEx@@QAEXXZ 
?ClearWildPetSkill@MyInfoSkill@@QAEXXZ 
?ClearWishList@CUICashShopEX@@IAEXXZ 
?ClientCacheNearPolygons@CMovableEntity@@QAEXXZ 
?ClientSystemMessage@CNetworkLibrary@@QAEXAAVCTString@@H@Z 
?Client_Clear@CCommunicationInterface@@QAEXXZ 
?Client_Close@CCommunicationInterface@@QAEXXZ 
?Client_Init_t@CCommunicationInterface@@QAEXK@Z 
?Client_Init_t@CCommunicationInterface@@QAEXPAD@Z 
?Client_IsConnected@CCommunicationInterface@@QAEHXZ 
?Client_OpenLocal@CCommunicationInterface@@QAEXXZ 
?Client_OpenNet_t@CCommunicationInterface@@QAEXK@Z 
?Client_PeekSize_Reliable@CCommunicationInterface@@QAEXAAJ0@Z 
?Client_Receive_Reliable@CCommunicationInterface@@QAEHAAVCTStream@@@Z 
?Client_Receive_Reliable@CCommunicationInterface@@QAEHPAXAAJ@Z 
?Client_Receive_Unreliable@CCommunicationInterface@@QAEHPAXAAJ@Z 
?Client_Receive_Unreliable_New@CCommunicationInterface@@QAEHPAXAAJ1@Z 
?Client_Send_Reliable@CCommunicationInterface@@QAEXPBXJ@Z 
?Client_Send_Unreliable@CCommunicationInterface@@QAEXPBXJ@Z 
?Client_Send_Unreliable_New@CCommunicationInterface@@QAEXPBXJH@Z 
?Client_Update@CCommunicationInterface@@QAEHXZ 
?ClipLine@CIsometricProjection3D@@UBEKAAV?$Vector@M$02@@0@Z 
?ClipLine@CParallelProjection3D@@UBEKAAV?$Vector@M$02@@0@Z 
?ClipLine@CPerspectiveProjection3D@@UBEKAAV?$Vector@M$02@@0@Z 
?ClipLine@CSimpleProjection3D@@UBEKAAV?$Vector@M$02@@0@Z 
?ClipMove@CWorld@@QAEXAAVCClipMove@@@Z 
?Clone@CUIArray@@UAEPAVCUIBase@@XZ 
?Clone@CUIArrayItem@@UAEPAVCUIBase@@XZ 
?Clone@CUIBase@@UAEPAV1@XZ 
?Clone@CUIButton@@UAEPAVCUIBase@@XZ 
?Clone@CUICheckButton@@UAEPAVCUIBase@@XZ 
?Clone@CUIComboBox@@UAEPAVCUIBase@@XZ 
?Clone@CUIEditBox@@UAEPAVCUIBase@@XZ 
?Clone@CUIIcon@@UAEPAVCUIBase@@XZ 
?Clone@CUIImage@@UAEPAVCUIBase@@XZ 
?Clone@CUIImageArray@@UAEPAVCUIBase@@XZ 
?Clone@CUIImageFont@@UAEPAVCUIBase@@XZ 
?Clone@CUIImageSplit@@UAEPAVCUIBase@@XZ 
?Clone@CUIImageText@@UAEPAVCUIBase@@XZ 
?Clone@CUIList@@UAEPAVCUIBase@@XZ 
?Clone@CUIListItem@@UAEPAVCUIBase@@XZ 
?Clone@CUIProgressBar@@UAEPAVCUIBase@@XZ 
?Clone@CUIScrollBar@@UAEPAVCUIBase@@XZ 
?Clone@CUISlideBar@@UAEPAVCUIBase@@XZ 
?Clone@CUISpinButton@@UAEPAVCUIBase@@XZ 
?Clone@CUISpriteAni@@UAEPAVCUIBase@@XZ 
?Clone@CUITab@@UAEPAVCUIBase@@XZ 
?Clone@CUITabPage@@UAEPAVCUIBase@@XZ 
?Clone@CUIText@@UAEPAVCUIBase@@XZ 
?Clone@CUITextBox@@UAEPAVCUIBase@@XZ 
?Clone@CUITextBoxEx@@UAEPAVCUIBase@@XZ 
?Clone@CUITextEx@@UAEPAVCUIBase@@XZ 
?Clone@CUITree@@UAEPAVCUIBase@@XZ 
?Clone@CUITreeItem@@UAEPAVCUIBase@@XZ 
?CloneChild@CUIBase@@UAEXPAV1@@Z 
?CloneProcChild@CUIBase@@QAE?AW4WMSG_RESULT@@XZ 
?Close@CCommunicationInterface@@QAEXXZ 
?Close@CTFileStream@@QAEXXZ 
?Close@CUIGuildBattle@@QAEXXZ 
?Close@CUISingleBattle@@QAEXXZ 
?Close@CUITatoo@@QAEXXZ 
?Close@MsgBoxMgr@@QAE_NI_N@Z 
?CloseAllMsgBox@CUIGuildBattle@@QAEXXZ 
?CloseCanvas@CViewPort@@QAEXXZ 
?CloseCashShopEX@CUICashShopEX@@QAEXXZ 
?CloseClient@CServer@@QAEXJ@Z 
?CloseExceptionHandler@@YAXXZ 
?CloseExpressSystem@CUIExpressSystem@@QAEXXZ 
?CloseMessageBox@CUIManager@@QAEXH@Z 
?CloseMessageBoxL@CUIManager@@QAEXH@Z 
?ClosePetStashSelectEffect@CUIPetStashSelectEffect@@QAEXXZ 
?CloseProc@CUIBase@@UAE?AW4WMSG_RESULT@@XZ 
?CloseResurrectionMsgBox@CUIResurrectionMsgBox@@QAEXXZ 
?CloseSelectiveUI@CUIManager@@QAEXH@Z 
?CloseSocketSystem@CUISocketSystem@@QAEXXZ 
?CloseUI@CUICharacterCreateNew@@QAEXXZ 
?CloseUI@CUICharacterInfo@@QAEXXZ 
?CloseUI@CUILoginNew@@QAEXXZ 
?CloseWebPage@cWeb@@QAEHPAUHWND__@@@Z 
?CloseWindowByEsc@CUIExpressSystem@@UAEHXZ 
?CloseWindowByEsc@CUIPetStashSelectEffect@@UAEHXZ 
?CmdErase@CUIBase@@QAEXXZ 
?ColorStringToInt@CustomTitleData@@SAIV?$basic_string@DU?$char_traits@D@std@@V?$allocator@D@2@@std@@@Z 
?ColorToHSV@@YAXKAAE00@Z 
?ColorizePolygon@CModelObject@@QAEXPAVCDrawPort@@PAVCProjection3D@@JJJH@Z 
?ColorizeRegion@CModelObject@@QAEXPAVCDrawPort@@PAVCProjection3D@@V?$AABBox@J$01@@JH@Z 
?CommandAction@CPlayerEntity@@UAEHXZ 
?CommandAttack@CPlayerEntity@@UAEXXZ 
?CommitPlayingBuffer@CSoundLibrary@@AAEJAAVCSoundObject@@AAH@Z 
?CompareChroma@@YAHKK@Z 
?CompleteBringItems@CUICashShopEX@@QAEXXZ 
?CompleteConsensus@CUISiegeWarfareNew@@QAEXK@Z 
?CompleteProgress@CUIProgressBar@@QAEXXZ 
?CompletePurchase@CUICashShopEX@@QAEXXZ 
?ComponentForPointer@CDLLEntityClass@@QAEPAVCEntityComponent@@PAX@Z 
?ComponentForPointer@CEntityClass@@QAEPAVCEntityComponent@@PAX@Z 
?ComponentForTypeAndID@CDLLEntityClass@@QAEPAVCEntityComponent@@W4EntityComponentType@@J@Z 
?ComponentForTypeAndID@CEntity@@QAEPAVCEntityComponent@@KK@Z 
?ComponentForTypeAndID@CEntityClass@@QAEPAVCEntityComponent@@W4EntityComponentType@@J@Z 
?CompoundReq@CNetworkLibrary@@QAEXFFPAF0@Z 
?Compress@CTextureData@@QAEPAEAAJH@Z 
?ConnectLocalSessionState@CServer@@QAEXJAAVCNetworkMessage@@@Z 
?ConnectRemoteSessionState@CServer@@QAEXJAAVCNetworkMessage@@@Z 
?ConnectToLoginServer@LoginNew@@QAEHXZ 
?ConnectToServer@CServerSelect@@QAEXVCTString@@K@Z 
?ContinueAnim@CAnimObject@@QAEXXZ 
?ContinueCast@CCastRay@@QAEXPAVCWorld@@@Z 
?ContinueCast@CWorld@@QAEXAAVCCastRay@@@Z 
?ConvertArraysToO3D@CObject3D@@QAEXXZ 
?ConvertToWindow@CUIBase@@QAEXAAH0@Z 
?Copy@CAnimObject@@QAEXAAV1@@Z 
?Copy@CBrush3D@@QAEXAAV1@MH@Z 
?Copy@CBrushMip@@QAEXAAV1@MH@Z 
?Copy@CCameraEffect@@UAEPAVCEffect@@XZ 
?Copy@CEffectGroup@@QAEPAV1@XZ 
?Copy@CEntity@@UAEXAAV1@K@Z 
?Copy@CEntityEffect@@UAEPAVCEffect@@XZ 
?Copy@CEntityTag@@UAEPAVCTag@@XZ 
?Copy@CGroupTag@@UAEPAVCTag@@XZ 
?Copy@CLightEffect@@UAEPAVCEffect@@XZ 
?Copy@CLiveEntity@@UAEXAAVCEntity@@K@Z 
?Copy@CMdlEffect@@UAEPAVCEffect@@XZ 
?Copy@CModelInstance@@QAEXAAV1@@Z 
?Copy@CModelObject@@QAEXAAV1@@Z 
?Copy@CMovableEntity@@UAEXAAVCEntity@@K@Z 
?Copy@CNetworkSession@@QAEXABV1@@Z 
?Copy@COrbitEffect@@UAEPAVCEffect@@XZ 
?Copy@CParticleEffect@@UAEPAVCEffect@@XZ 
?Copy@CParticleGroup@@QAEPAV1@XZ 
?Copy@CParticlesAbsorptionDefault@@UAEPAVCParticlesAbsorption@@XZ 
?Copy@CParticlesAbsorptionSphere@@UAEPAVCParticlesAbsorption@@XZ 
?Copy@CParticlesEmitterCone@@UAEPAVCParticlesEmitter@@XZ 
?Copy@CParticlesEmitterCylinder@@UAEPAVCParticlesEmitter@@XZ 
?Copy@CParticlesEmitterSphere@@UAEPAVCParticlesEmitter@@XZ 
?Copy@CParticlesProcessControl@@UAEPAVCParticlesCommonProcess@@XZ 
?Copy@CParticlesProcessDynamicState@@UAEPAVCParticlesCommonProcess@@XZ 
?Copy@CParticlesProcessForce@@UAEPAVCParticlesCommonProcess@@XZ 
?Copy@CParticlesProcessPointGoal@@UAEPAVCParticlesCommonProcess@@XZ 
?Copy@CParticlesProcessVelocity@@UAEPAVCParticlesCommonProcess@@XZ 
?Copy@CPlayerEntity@@UAEXAAVCEntity@@K@Z 
?Copy@CRationalEntity@@UAEXAAVCEntity@@K@Z 
?Copy@CShockWaveEffect@@UAEPAVCEffect@@XZ 
?Copy@CSkaEffect@@UAEPAVCEffect@@XZ 
?Copy@CSkaTag@@UAEPAVCTag@@XZ 
?Copy@CSoundEffect@@UAEPAVCEffect@@XZ 
?Copy@CSoundObject@@QAEXAAV1@@Z 
?Copy@CSplineBillboardEffect@@UAEPAVCEffect@@XZ 
?Copy@CSplinePathEffect@@UAEPAVCEffect@@XZ 
?Copy@CTerrainEffect@@UAEPAVCEffect@@XZ 
?Copy@CTextureObject@@QAEXAAV1@@Z 
?Copy@CTraceEffect@@UAEPAVCEffect@@XZ 
?Copy@CUIEditBox@@QAE_NPAUHWND__@@@Z 
?Copy@CUIImage@@QAEXPAV1@@Z 
?Copy@CWorldTag@@UAEPAVCTag@@XZ 
?CopyAllEntitiesExceptOne@CWorld@@QAEXAAV1@AAVCEntity@@ABVCPlacement3D@@@Z 
?CopyCollisionInfo@CEntity@@QAEXAAV1@@Z 
?CopyDictionary@CTStream@@QAEXAAV1@@Z 
?CopyDownUV@CUIScrollBar@@QAEXW4UIBtnState@@0@Z 
?CopyDownUV@CUISpinButton@@QAEXW4UIBtnState@@0@Z 
?CopyEntities@CWorld@@QAEXAAV1@AAV?$CDynamicContainer@VCEntity@@@@AAV?$CSelection@VCEntity@@$00@@ABVCPlacement3D@@@Z 
?CopyEntityInWorld@CWorld@@QAEPAVCEntity@@AAV2@ABVCPlacement3D@@HKH@Z 
?CopyEntityProperties@CEntity@@QAEXAAV1@K@Z 
?CopyFromSameSector@CBrushPolygon@@QAEXAAV1@@Z 
?CopyLowerTo@CParticlePrototype@@QBEXAAVCParticle@@@Z 
?CopyMeshInstance@CModelInstance@@QAEXAAV1@@Z 
?CopyMixerBuffer_dsound@CSoundLibrary@@AAEXJ@Z 
?CopyMixerBuffer_waveout@CSoundLibrary@@AAEXXZ 
?CopyModel@CGameState@@QAEPAVCEntity@@PAV2@0@Z 
?CopyOneEntity@CWorld@@QAEPAVCEntity@@AAV2@ABVCPlacement3D@@@Z 
?CopyOneProperty@CEntity@@QAEXAAVCEntityProperty@@0AAV1@K@Z 
?CopyPolygon@CBrushPolygon@@QAEAAV1@AAV1@@Z 
?CopyPolygonInWorld@CWorld@@QAEXAAVCBrushPolygon@@AAVCBrushSector@@JAAJ2@Z 
?CopyPolygonsToBrush@CWorld@@QAEXAAV?$CSelection@VCBrushPolygon@@$0BAA@@@PAVCEntity@@@Z 
?CopyProperties@CBrushPolygon@@QAEAAV1@AAV1@H@Z 
?CopyPropertiesWithoutTexture@CBrushPolygon@@QAEAAV1@AAV1@@Z 
?CopyRTSurface@CUIButton@@QAEXW4UIBtnState@@0@Z 
?CopyRTSurface@CUIButton@@QAEXW4UIBtnState@@AAVCUIRectSurface@@@Z 
?CopyScrollDownUV@CUIComboBox@@QAEXW4UIBtnState@@0@Z 
?CopyScrollDownUV@CUIListBox@@QAEXW4UIBtnState@@0@Z 
?CopyScrollUpUV@CUIComboBox@@QAEXW4UIBtnState@@0@Z 
?CopyScrollUpUV@CUIListBox@@QAEXW4UIBtnState@@0@Z 
?CopySectors@CWorld@@QAEXAAV?$CSelection@VCBrushSector@@$00@@PAVCEntity@@H@Z 
?CopySourceBrushSectorsToObject@CWorld@@QAEXAAVCEntity@@AAV?$CSelection@VCBrushSector@@$03@@ABVCPlacement3D@@AAVCObject3D@@2AAV?$AABBox@N$02@@@Z 
?CopyTextureProperties@CBrushPolygonTexture@@QAEAAV1@AAV1@H@Z 
?CopyTextures@CBrushPolygon@@QAEAAV1@AAV1@@Z 
?CopyUV@CUIButton@@QAEXW4UIBtnState@@0@Z 
?CopyUV@CUIButton@@QAEXW4UIBtnState@@AAUUIRectUV@@@Z 
?CopyUV@CUICheckButton@@QAEXW4UICheckBtnState@@0@Z 
?CopyUpUV@CUIScrollBar@@QAEXW4UIBtnState@@0@Z 
?CopyUpUV@CUISpinButton@@QAEXW4UIBtnState@@0@Z 
?CopyUpperTo@CParticlePrototype@@QBEXAAVCParticle@@@Z 
?CorrectCollisionBoxSize@CEditModel@@QAEXXZ 
?Cos@@YAMM@Z 
?CosFast@@YAMM@Z 
?Count@CGroupTag@@QAEJXZ 
?Count@CListHead@@QBEJXZ 
?Count@CSelectedEntities@@QAEHXZ 
?CountPatches@CEditModel@@QAEJXZ 
?Create@CEffectGroupManager@@QAEPAVCEffectGroup@@V?$basic_string@DU?$char_traits@D@std@@V?$allocator@D@2@@std@@@Z 
?Create@CEffectManager@@QAEPAVCEffect@@V?$basic_string@DU?$char_traits@D@std@@V?$allocator@D@2@@std@@@Z 
?Create@CParticleGroupManager@@QAEPAVCParticleGroup@@V?$basic_string@DU?$char_traits@D@std@@V?$allocator@D@2@@std@@@Z 
?Create@CQuestSystem@@QAEPAVCQuestDynamicData@@J@Z 
?Create@CUIAutoHelp@@QAEXXZ 
?Create@CUIButton@@QAEXPAVCUIWindow@@AAVCTString@@HHHH@Z 
?Create@CUICashShopEX@@UAEXPAVCUIWindow@@HHHH@Z 
?Create@CUICheckButton@@QAEXPAVCUIWindow@@HHHHAAVCTString@@HHH@Z 
?Create@CUIComboBox@@QAEXPAVCUIWindow@@HHHHHHHHHHHH@Z 
?Create@CUIEditBox@@QAEXPAVCUIWindow@@HHHHHHH@Z 
?Create@CUIExpressSystem@@UAEXPAVCUIWindow@@HHHH@Z 
?Create@CUIGuildBattle@@UAEXPAVCUIWindow@@HHHH@Z 
?Create@CUIIcon@@QAEXPAVCUIWindow@@HHHHHHH@Z 
?Create@CUIImage@@QAEXPAVCUIBase@@HHHH@Z 
?Create@CUIListBox@@QAEXPAVCUIWindow@@HHHHHHHHHH@Z 
?Create@CUIManager@@QAEXXZ 
?Create@CUIOption@@UAEXPAVCUIWindow@@HHHH@Z 
?Create@CUIProgressBar@@UAEXPAVCUIWindow@@HHHH@Z 
?Create@CUISignBoard@@QAEXH@Z 
?Create@CUISingleBattle@@UAEXPAVCUIWindow@@HHHH@Z 
?Create@CUISlideBar@@QAEXPAVCUIWindow@@HHHHHHHHHH@Z 
?Create@CUISpinButton@@QAEXPAVCUIWindow@@HHHHVCTString@@H@Z 
?Create@CUITatoo@@UAEXPAVCUIWindow@@HHHH@Z 
?Create@GameDataManager@@QAEXXZ 
?Create@StageMgr@@QAEXXZ 
?CreateAnimations@CAnimData@@QAEXJVCTString@@JM@Z 
?CreateAttachment@CModelObject@@QAEHAAVCRenderModel@@AAVCAttachmentModelObject@@@Z 
?CreateBSPPolygon@CBrushPolygon@@QAEXAAV?$BSPPolygon@N$02@@@Z 
?CreateBSPPolygonNonPrecise@CBrushPolygon@@QAEXAAV?$BSPPolygon@N$02@@@Z 
?CreateButtons@CUIScrollBar@@QAEXHHHHHH@Z 
?CreateButtons@CUISpinButton@@QAEXHHHH@Z 
?CreateBuyQuarterBox@CUISiegeWarfareNew@@QAEXH@Z 
?CreateCharacter@CUICharacterCreateNew@@AAEXXZ 
?CreateContext_OGL@CGfxLibrary@@AAEHPAUHDC__@@@Z 
?CreateEffectTexture@CTextureData@@QAEXJJJPAV1@K@Z 
?CreateEmptyAttachingSounds@CEditModel@@QAEXXZ 
?CreateEntity@CEntity@@QAEPAV1@ABVCPlacement3D@@JKH@Z 
?CreateEntity@CWorld@@QAEPAVCEntity@@ABVCPlacement3D@@PAVCEntityClass@@KH@Z 
?CreateEntity_t@CWorld@@QAEPAVCEntity@@ABVCPlacement3D@@ABVCTFileName@@KH@Z 
?CreateMessageBox@CUIManager@@QAEHAAVCUIMsgBox_Info@@HH@Z 
?CreateMessageBoxL@CUIManager@@QAEXAAVCTString@@HHHH@Z 
?CreateMipModels_t@CEditModel@@QAEXAAVCObject3D@@0JJ@Z 
?CreateModelInstance@@YAPAVCModelInstance@@VCTString@@@Z 
?CreateMsgBox@MsgBoxMgr@@QAEIPBD0UsMsgBox_Element@@@Z 
?CreateMsgBox@MsgBoxMgr@@QAEIPBD0W4eMSG_TYPE@@_NPAVCommand@@3@Z 
?CreatePolygon@CObjectSector@@QAEPAVCObjectPolygon@@JQAJAAVCObjectMaterial@@KH@Z 
?CreatePolygon@CObjectSector@@QAEPAVCObjectPolygon@@JQAV?$Vector@N$02@@AAVCObjectMaterial@@KH@Z 
?CreatePolygon@CWorld@@QAEXAAV?$CSelection@VCBrushVertex@@$01@@@Z 
?CreateResolutionList@CUIOption@@IAEXXZ 
?CreateScriptFile_t@CEditModel@@QAEXAAVCTFileName@@@Z 
?CreateScroll@CUIComboBox@@QAEXHHHHHH@Z 
?CreateScroll@CUIListBox@@QAEXHHHHHHHHHH@Z 
?CreateSectorBSPs@CObject3D@@QAEXXZ 
?CreateSectorIndices@CObject3D@@QAEXXZ 
?CreateShadowMatrix@@YAXPAVCModelInstance@@ABVCPlacement3D@@AAY0BA@MAAY0M@$$CBMAAY0BA@$$CBMM1@Z 
?CreateSlave@CNetworkLibrary@@QAEXHPAVCEntity@@H@Z 
?CreateSocket_t@CCommunicationInterface@@QAEXXZ 
?CreateSubDrawPort@CDrawPort@@QAE?AV1@ABV?$AABBox@J$01@@@Z 
?CreateSubDrawPortRatio@CDrawPort@@QAE?AV1@ABV?$AABBox@M$01@@@Z 
?CreateTexture@CUIBase@@QAEPAVCTextureData@@VCTFileName@@@Z 
?CreateTexture_t@@YAXABVCTFileName@@0JJK@Z 
?CreateTexture_t@@YAXABVCTFileName@@JJK@Z 
?CreateTo@CParticlePrototype@@QAEXAAVCParticle@@@Z 
?CreateUIModelDefaultWearing@CGameState@@QAEXH@Z 
?CreateUIModelWearing@CGameState@@QAEXHHH@Z 
?CreateWaitQuarterBox@CUISiegeWarfareNew@@QAEXXZ 
?CreateWindowCanvas@CGfxLibrary@@QAEXPAXPAPAVCViewPort@@PAPAVCDrawPort@@@Z 
?CreateWorkCanvas@CGfxLibrary@@QAEXJJPAPAVCDrawPort@@@Z 
?Create_t@CTFileStream@@QAEXABVCTFileName@@W4CreateMode@CTStream@@@Z 
?Create_t@CTextureData@@QAEXPBVCImageInfo@@JJK@Z 
?CurrentTagInfo@CTag@@QAEAAVTagInfo@@XZ 
?CurrentTick@CTimer@@QBE?BMXZ 
?DSFail@CSoundLibrary@@AAEHPAD@Z 
?DSLockBuffer@CSoundLibrary@@AAEHPAUIDirectSoundBuffer@@JAAPAXAAK@Z 
?DSPlayMainBuffers@CSoundLibrary@@AAEXXZ 
?DamageType_enum@@3VCEntityPropertyEnumType@@A 
?DamageType_values@@3PAVCEntityPropertyEnumValue@@A 
?DataAt@CUIImageArray@@QAEXHAAU_UIRect@@AAUUIRectUV@@AAV?$basic_string@DU?$char_traits@D@std@@V?$allocator@D@2@@std@@@Z 
?DataAt@CUISpriteAni@@QAEXHAAUUIRectUV@@@Z 
?Deactivate@CTag@@QAEXXZ 
?DeathNow@CMovableModelEntity@@UAEXXZ 
?DeathYou@CPlayerEntity@@UAEXXZ 
?DebugDump@CObject3D@@QAEXXZ 
?DebugSave@CNetworkLibrary@@QAEXXZ 
?DecRef@CUIEditBox@@IAEXXZ 
?DeclareSymbol@CShell@@QAEXABVCTString@@PAX@Z 
?DecomposeRotationMatrix@@YAXAAV?$Vector@M$02@@ABV?$Matrix@M$02$02@@@Z 
?DecomposeRotationMatrixNoSnap@@YAXAAV?$Vector@M$02@@ABV?$Matrix@M$02$02@@@Z 
?DefaultAnimation@CAnimData@@QAEXXZ 
?DefaultArmorWearing@CGameState@@QAEXPAVCModelInstance@@HH@Z 
?DefenseGuildReq@CNetworkLibrary@@QAEXXZ 
?Del@CSelectedEntities@@QAEXVCEntityPointer@@@Z 
?DelAccessoryEffect@CItemEffect@@QAEHXZ 
?DelChaTarget@CNetworkLibrary@@QAEXK@Z 
?DelChars@CUIEditBox@@QAEXXZ 
?DelFromNoticeList@Notice@@QAEXHW4eNoticeType@1@@Z 
?DelLegitList@CNetworkLibrary@@QAEXH@Z 
?DelMobTarget@CNetworkLibrary@@QAEXK@Z 
?DelQuest@Quest@@QAEHHH@Z 
?DelQuestList@Quest@@QAEHHH@Z 
?DelSkaModel@CEntity@@QAEXABVCTString@@@Z 
?DelTargetInfo@CEntity@@QAEXXZ 
?DelWearEffect@CItemEffect@@QAEHH@Z 
?DelWildPetTarget@CNetworkLibrary@@QAEXK@Z 
?Delete@MsgBoxMgr@@QAEXI@Z 
?DeleteAll@MsgBoxMgr@@QAEXXZ 
?DeleteAllChildren@CModelInstance@@QAEXH@Z 
?DeleteAllListItem@CUIList@@QAE_NXZ 
?DeleteAllMob@CNetworkLibrary@@QAEXXZ 
?DeleteAnimEffect@CModelInstance@@QAEXABVCTString@@@Z 
?DeleteAnimation@CAnimData@@QAEXJ@Z 
?DeleteBrushMip@CBrush3D@@QAEXPAVCBrushMip@@@Z 
?DeleteChar@CTString@@QAEXJ@Z 
?DeleteChar@CUIEditBox@@QAEXH@Z 
?DeleteChars@CTString@@QAEXJJ@Z 
?DeleteChars@CUIEditBox@@QAEXHH@Z 
?DeleteChild@CModelInstance@@QAEXPAV1@@Z 
?DeleteCurrentArmor@CPlayerEntity@@UAEXH@Z 
?DeleteCurrentCollisionBox@CEditModel@@QAEXXZ 
?DeleteCurrentRequest@CQuestSystem@@QAEXXZ 
?DeleteCustomItemInfo@CustomTitleData@@SAXH@Z 
?DeleteDefaultArmor@CGameState@@QAEXPAVCModelInstance@@HH@Z 
?DeleteDefaultArmor@CPlayerEntity@@UAEXH@Z 
?DeleteEffect@CItemEffect@@QAEXHH@Z 
?DeleteHandles@CShader@@QAEXXZ 
?DeleteLoginJinEffect@CItemEffect@@QAEXXZ 
?DeleteMesh@CModelInstance@@QAEXVCTString@@@Z 
?DeleteModelInstance@@YAXPAVCModelInstance@@@Z 
?DeleteNickEffect@CItemEffect@@QAEXXZ 
?DeleteObject@CSessionState@@QAEXCK@Z 
?DeleteOrbit@COrbitEffect@@QAEHJ@Z 
?DeletePet@PetStash@@QAEXH@Z 
?DeletePetStashEffect@CItemEffect@@QAEXXZ 
?DeletePolygons@CWorld@@QAEXAAV?$CDynamicContainer@VCBrushPolygon@@@@@Z 
?DeleteRelicEffect@CItemEffect@@QAEXXZ 
?DeleteReservedEG@CAnimEffect@@QAEHJ@Z 
?DeleteSectors@CWorld@@QAEXAAV?$CSelection@VCBrushSector@@$00@@H@Z 
?DeleteSelectModel@CGameState@@QAEXXZ 
?DeleteSelectedSectors@CBrushMip@@QAEXAAV?$CSelection@VCBrushSector@@$03@@@Z 
?DeleteSelf@CEntity@@QAEXXZ 
?DeleteSplinePath@CSplinePathEffect@@QAEHJ@Z 
?DeleteTag@CGroupTag@@QAEXABV?$CRefCountPtr@VCTag@@@@@Z 
?DeleteUICont@CUITextEx@@AAEXXZ 
?DeleteWearingWeapon@CPlayerEntity@@UAEXHH@Z 
?DepthBufferFarL@CProjection3D@@QAEAAMXZ 
?DepthBufferFarR@CProjection3D@@QBEABMXZ 
?DepthBufferNearL@CProjection3D@@QAEAAMXZ 
?DepthBufferNearR@CProjection3D@@QBEABMXZ 
?DepthString@CDisplayMode@@QBE?AVCTString@@XZ 
?DesaturateColor@@YAKK@Z 
?Deselect@CBrushPolygon@@QAEXK@Z 
?Deselect@CBrushSector@@QAEXK@Z 
?Deselect@CBrushVertex@@QAEXK@Z 
?Deselect@CEntity@@QAEXK@Z 
?DesreaseShadowQuality@CModelRenderPrefs@@QAEXXZ 
?Destroy@CEffectGroupManager@@QAEXAAPAVCEffectGroup@@@Z 
?Destroy@CEffectManager@@QAEXAAPAVCEffect@@@Z 
?Destroy@CEntity@@QAEXH@Z 
?Destroy@CParticleGroupManager@@QAEXAAPAVCParticleGroup@@@Z 
?Destroy@CUIBase@@UAEXXZ 
?Destroy@CUIEditBox@@UAEXXZ 
?DestroyAll@CUIManager@@QAEXXZ 
?DestroyAll@GameDataManager@@QAEXXZ 
?DestroyAll@MsgBoxMgr@@QAEXXZ 
?DestroyAll@StageMgr@@QAEXXZ 
?DestroyCollisionGrid@CWorld@@QAEXXZ 
?DestroyEntities@CWorld@@QAEXAAV?$CSelection@VCEntity@@$00@@@Z 
?DestroyOneEntity@CWorld@@QAEXPAVCEntity@@@Z 
?DestroyRenderTarget@CUICashShopEX@@QAEXXZ 
?DestroyRenderTarget@CUIManager@@QAEXXZ 
?DestroyWindowCanvas@CGfxLibrary@@QAEXPAVCViewPort@@@Z 
?DestroyWorkCanvas@CGfxLibrary@@QAEXPAVCDrawPort@@@Z 
?Detach@CImageInfo@@QAEXXZ 
?DetachTag@CEffect@@QAEXXZ 
?DictionaryPreload_t@CTStream@@QAEXXZ 
?DictionaryReadBegin_t@CTStream@@QAEJXZ 
?DictionaryReadEnd_t@CTStream@@QAEXXZ 
?DictionaryWriteBegin_t@CTStream@@QAEXABVCTFileName@@J@Z 
?DictionaryWriteEnd_t@CTStream@@QAEXXZ 
?DirectionVectorToAngles@@YAXABV?$Vector@M$02@@AAV1@@Z 
?DirectionVectorToAnglesNoSnap@@YAXABV?$Vector@M$02@@AAV1@@Z 
?DisableControl@CInputDevice@@QAEXJ@Z 
?DisableDevice@CInputDevice@@QAEXXZ 
?DisableDynamicAlpha@CEffectControl@@QAEXXZ 
?DisableDynamicAlpha@CParticlesProcessDynamicState@@QAEXXZ 
?DisableDynamicAngle@CEffectControl@@QAEXXZ 
?DisableDynamicAngle@CParticlesProcessDynamicState@@QAEXXZ 
?DisableDynamicColor@CEffectControl@@QAEXXZ 
?DisableDynamicColor@CParticlesProcessDynamicState@@QAEXXZ 
?DisableDynamicDeltaPos@CParticlesProcessDynamicState@@QAEXXZ 
?DisableDynamicMass@CParticlesProcessDynamicState@@QAEXXZ 
?DisableDynamicPos@CEffectControl@@QAEXXZ 
?DisableDynamicSize@CParticlesProcessDynamicState@@QAEXXZ 
?DisableDynamicStretch@CEffectControl@@QAEXXZ 
?DisableDynamicTexPos@CParticlesProcessDynamicState@@QAEXXZ 
?DisableInput@CInput@@QAEXXZ 
?DisableLerp@CTimer@@QAEXXZ 
?DisableStreamHandling@CTStream@@SAXXZ 
?DisableVisTweaks@CWorldRenderPrefs@@QAEXH@Z 
?DiscardAllLayers@CBrushShadowMap@@QAEXXZ 
?DiscardAllShadows@CWorld@@QAEXXZ 
?DiscardCollisionInfo@CEntity@@QAEXXZ 
?DiscardShadingInfos@CBrushPolygon@@QAEXXZ 
?DiscardShadowLayers@CLightSource@@QAEXXZ 
?DiscardShadows@CBrushPolygon@@QAEXXZ 
?DiscardShadows@CBrushShadowLayer@@QAEXXZ 
?DiscardShadows@CBrushShadowMap@@QAEXXZ 
?Disconnect@CCommunicationInterface@@QAEXXZ 
?Disconnect@CPlayerEntity@@UAEXXZ 
?DisplayErrorMessage@CGameState@@QAEXEHHHH@Z 
?DitherBitmap@@YAXJPAK0JJJJ@Z 
?DitherMipmaps@@YAXJPAK0JJ@Z 
?DivideItem@CNetworkLibrary@@QAEXFFFFH@Z 
?DoCSGOperation@CWorld@@QAEXAAVCEntity@@AAV1@0ABVCPlacement3D@@P8CObject3D@@AEXAAV4@3@Z4@Z 
?DoMoving@CMovableBrushEntity@@UAEXXZ 
?DoMoving@CMovableEntity@@UAEXXZ 
?DoMoving@CMovableModelEntity@@UAEXXZ 
?DoMoving@CPlayerEntity@@UAEXXZ 
?DoMoving@CRationalEntity@@UAEXXZ 
?DoesMessageBoxExist@CUIManager@@QAEHH@Z 
?DoesMessageBoxLExist@CUIManager@@QAEHH@Z 
?DoesShowReadingWindow@CUIEditBox@@QAEHXZ 
?DoesUIExist@CUIManager@@QAEHH@Z 
?DrawBorder@CDrawPort@@QBEXJJJJKK@Z 
?DrawCharRadar@ActorMgr@@QAEXHHMPAVCDrawPort@@AAU_UIRect@@AAUUIRectUV@@_N@Z 
?DrawCharacter@ActorMgr@@AAEXPAVCCharacterTarget@@PAVCDrawPort@@PAVCProjection3D@@K_N@Z 
?DrawColon@CUIGuildBattle@@QAEXHH@Z 
?DrawColon@CUISingleBattle@@QAEXHH@Z 
?DrawFilledSurface@CEditModel@@QAEXPAVCDrawPort@@JJMJJKK@Z 
?DrawGuildRankBox@CUIManager@@QAEXU_UIRect@@CM@Z 
?DrawItem@ActorMgr@@AAEXPAVCItemTarget@@PAVCDrawPort@@PAVCProjection3D@@@Z 
?DrawLine3D@CDrawPort@@QBEXV?$Vector@M$02@@0K@Z 
?DrawLine@CDrawPort@@QBEXJJJJKK@Z 
?DrawMob@ActorMgr@@AAEXPAVCMobTarget@@PAVCDrawPort@@PAVCProjection3D@@@Z 
?DrawMobRadar@ActorMgr@@QAEXHHMPAVCDrawPort@@AAU_UIRect@@AAUUIRectUV@@@Z 
?DrawNumber@CUIGuildBattle@@QAEXHHH_N@Z 
?DrawNumber@CUIManager@@QAEXHHHKM@Z 
?DrawNumber@CUISingleBattle@@QAEXHHH_N@Z 
?DrawObjectName@ActorMgr@@QAEXPAVCDrawPort@@PAVCProjection3D@@K_N@Z 
?DrawPet@ActorMgr@@AAEXPAVCPetTarget@@PAVCDrawPort@@PAVCProjection3D@@@Z 
?DrawPoint3D@CDrawPort@@QBEXV?$Vector@M$02@@KM@Z 
?DrawPoint@CDrawPort@@QBEXJJKJ@Z 
?DrawSlave@ActorMgr@@AAEXPAVCSlaveTarget@@PAVCDrawPort@@PAVCProjection3D@@@Z 
?DrawSyndiMark@ActorMgr@@QAEXHPAVCDrawPort@@HHM@Z 
?DrawTextA@CUIManager@@QAEXHHCKM@Z 
?DrawWildPet@ActorMgr@@AAEXPAVCWildPetTarget@@PAVCDrawPort@@PAVCProjection3D@@@Z 
?DrawWireSurface@CEditModel@@QAEXPAVCDrawPort@@JJMJJKK@Z 
?DropDeathItem@CPlayerEntity@@UAEXPAVCEntity@@@Z 
?DropItem@CNetworkLibrary@@QAEXHH_J@Z 
?DropItem@CUIManager@@IAEXHH@Z 
?DropItemCallback@CUIManager@@QAEXXZ 
?DropLaggingClients@CServer@@QAEXXZ 
?DropsMarker@CEntity@@UBEHAAVCTFileName@@AAVCTString@@@Z 
?Dummy@CMovableBrushEntity@@QAEHABVCEntityEvent@@@Z 
?Dummy@CMovableEntity@@QAEHABVCEntityEvent@@@Z 
?Dummy@CMovableModelEntity@@QAEHABVCEntityEvent@@@Z 
?Dummy@CPlayerEntity@@QAEHABVCEntityEvent@@@Z 
?Dump@CNetworkMessage@@QAEXXZ 
?DumpCurrentStack@@YAXPAVCTFileStream@@@Z 
?DumpReferenceInfo@CWorld@@QAEXPAVCEntity@@@Z 
?DumpStats@CServer@@QAEXXZ 
?DumpToConsole@CPlayerEntity@@UAEXXZ 
?EditAddPatch@CEditModel@@QAEHVCTFileName@@V?$Vector@J$01@@AAJ@Z 
?EditRemoveAllPatches@CEditModel@@QAEXXZ 
?EditRemovePatch@CEditModel@@QAEXJ@Z 
?Empty@CGroupTag@@QAE_NXZ 
?Empty@CParticles@@QAE_NXZ 
?Empty@CTagManager@@QAEHXZ 
?EnableControl@CInputDevice@@QAEXJ@Z 
?EnableDevice@CInputDevice@@QAEXXZ 
?EnableDynamicAlpha@CEffectControl@@QAEXXZ 
?EnableDynamicAlpha@CParticlesProcessDynamicState@@QAEXXZ 
?EnableDynamicAngle@CEffectControl@@QAEXXZ 
?EnableDynamicAngle@CParticlesProcessDynamicState@@QAEXXZ 
?EnableDynamicColor@CEffectControl@@QAEXXZ 
?EnableDynamicColor@CParticlesProcessDynamicState@@QAEXXZ 
?EnableDynamicDeltaPos@CParticlesProcessDynamicState@@QAEXXZ 
?EnableDynamicMass@CParticlesProcessDynamicState@@QAEXXZ 
?EnableDynamicPos@CEffectControl@@QAEXXZ 
?EnableDynamicSize@CParticlesProcessDynamicState@@QAEXXZ 
?EnableDynamicStretch@CEffectControl@@QAEXXZ 
?EnableDynamicTexPos@CParticlesProcessDynamicState@@QAEXXZ 
?EnableInitUpdateMasterBuffer@CCommunicationInterface@@QAEXXZ 
?EnableInput@CInput@@QAEXPAUHWND__@@@Z 
?EnableInput@CInput@@QAEXPAVCViewPort@@@Z 
?EnableRotate@CUIImage@@QAEX_N@Z 
?EnableSrcRememberFN@CModelInstance@@SAXH@Z 
?EnableStreamHandling@CTStream@@SAXXZ 
?EnableVertexArrayKeeping@CModelInstance@@SAXH@Z 
?Encrypt@CMessageDispatcher@@QAEXAAVCNetworkMessage@@@Z 
?End@CEntity@@QAEXXZ 
?End@CRenderTexture@@QAEXXZ 
?End@cWeb@@QAEHXZ 
?EndAni@CUIPetStashSelectEffect@@QAEXXZ 
?EndCharData@StageMgr@@QAEXXZ 
?EndDamageMode@CDamageLogInfo@@QAEXXZ 
?EndDriver_D3D@CGfxLibrary@@AAEXXZ 
?EndDriver_OGL@CGfxLibrary@@AAEXXZ 
?EndLodData@@YAXXZ 
?EndModelRenderingMask@@YAXXZ 
?EndModelRenderingView@@YAXH@Z 
?EndOfMessage@CNetworkMessage@@QAEHXZ 
?EndRender@CEffect@@UAEXH@Z 
?EndRender@CLightEffect@@UAEXH@Z 
?EndRender@CMdlEffect@@UAEXH@Z 
?EndRender@CParticleEffect@@UAEXH@Z 
?EndRender@CShockWaveEffect@@UAEXH@Z 
?EndRender@CSkaEffect@@UAEXH@Z 
?EndRender@CSplineBillboardEffect@@UAEXH@Z 
?EndRender@CTerrainEffect@@UAEXH@Z 
?EndRender@CTraceEffect@@UAEXH@Z 
?EndRescueNPC@CNetworkLibrary@@QAEXXZ 
?EndTextEx@CDrawPort@@QAEXH@Z 
?EndWinsock@CCommunicationInterface@@QAEXXZ 
?End_internal@CEntity@@QAEXXZ 
?EnemyTargetSelected_InputTab@CPlayerEntity@@UAEXXZ 
?EntSelectedCompare@CSelectedEntities@@SA_NABVCEntityPointer@@0@Z 
?EntityAdjustBonesCallback@@YAXPAX@Z 
?EntityAdjustShaderParamsCallback@@YAXPAXJPAVCShader@@AAUShaderParams@@@Z 
?EntityExists@CWorld@@QAEHKAAPAVCEntity@@@Z 
?EntityFromID@CWorld@@QAEPAVCEntity@@K@Z 
?EnumDisplayModes@CGfxLibrary@@QAEPAVCDisplayMode@@AAJW4GfxAPIType@@J@Z 
?EnumNetworkProviders@CMessageDispatcher@@QAEXAAVCListHead@@@Z 
?EnumNetworkProviders_startup@CMessageDispatcher@@QAEXAAVCListHead@@@Z 
?EnumSessionsContinue@CNetworkLibrary@@QAEXXZ 
?EnumSessionsStart@CNetworkLibrary@@QAEXH@Z 
?EnumSessionsStop@CNetworkLibrary@@QAEXXZ 
?EraseEffectControl@CEntityEffect@@QAEXXZ 
?EraseEffectControl@CMdlEffect@@QAEXXZ 
?EraseEffectControl@CSkaEffect@@QAEXXZ 
?EraseLast@CParticles@@QAEXI@Z 
?ErrorDescription@@YAPBDPBUErrorTable@@J@Z 
?ErrorF@CShell@@QAAXPBDZZ 
?ErrorName@@YAPBDPBUErrorTable@@J@Z 
?EvocationStart@CPlayerEntity@@UAEXJH@Z 
?EvocationStop@CPlayerEntity@@UAEXJ@Z 
?ExceptionFatalError@CTStream@@SAXXZ 
?ExceptionFilter@CTStream@@SAHKPAU_EXCEPTION_POINTERS@@@Z 
?ExchangeItem_Add@CNetworkLibrary@@QAEXH_J@Z 
?ExchangeItem_Del@CNetworkLibrary@@QAEXH_J@Z 
?ExchangeReq_Ok@CNetworkLibrary@@QAEXXZ 
?ExchangeReq_Ready@CNetworkLibrary@@QAEXXZ 
?ExchangeReq_Rej@CNetworkLibrary@@QAEXXZ 
?ExchangeReq_Rep@CNetworkLibrary@@QAEXXZ 
?ExchangeReq_Req@CNetworkLibrary@@QAEXJAAVCTString@@@Z 
?Execute@CShell@@QAEXABVCTString@@@Z 
?ExpandEdges@CImageInfo@@QAEXJ@Z 
?ExpandFilePath@@YAJKABVCTFileName@@AAV1@@Z 
?ExpectID_t@CTStream@@UAEXABVCChunkID@@@Z 
?ExpectKeyword_t@CTStream@@UAEXABVCTString@@@Z 
?ExpeditionAddCharReq@CNetworkLibrary@@QAEXAAVCTString@@@Z 
?ExpeditionAllowReq@CNetworkLibrary@@QAEXXZ 
?ExpeditionChangeDivisionTypeReq@CNetworkLibrary@@QAEXECC@Z 
?ExpeditionChangeGroupReq@CNetworkLibrary@@QAEXJJJJ@Z 
?ExpeditionChangeLeaderReq@CNetworkLibrary@@QAEXJ@Z 
?ExpeditionChangeSubLeaderReq@CNetworkLibrary@@QAEXHJ@Z 
?ExpeditionCollectQuestItemReq@CNetworkLibrary@@QAEXJ@Z 
?ExpeditionCreateReq@CNetworkLibrary@@QAEXXZ 
?ExpeditionEnd@Party@@QAEXXZ 
?ExpeditionEndReq@CNetworkLibrary@@QAEXXZ 
?ExpeditionInviteReq@CNetworkLibrary@@QAEXJ@Z 
?ExpeditionKick@Party@@QAEXJ@Z 
?ExpeditionKickReq@CNetworkLibrary@@QAEXJ@Z 
?ExpeditionMemberInfo@Party@@QAEXJJHHHHHMMCJ_N@Z 
?ExpeditionMemberOnline@Party@@QAEXJH@Z 
?ExpeditionQuit@Party@@QAEXJJ@Z 
?ExpeditionQuitReq@CNetworkLibrary@@QAEXXZ 
?ExpeditionReject@Party@@QAEXH@Z 
?ExpeditionRejectReq@CNetworkLibrary@@QAEXXZ 
?ExpeditionSetLabelReq@CNetworkLibrary@@QAEXJJJJ@Z 
?ExpeditionViewDetailReq@CNetworkLibrary@@QAEXJJ@Z 
?ExportSurfaceNumbersAndNames@CEditModel@@QAEXVCTFileName@@@Z 
?Export_t@CTextureData@@QAEXAAVCImageInfo@@J@Z 
?ExtractSubMessage@CNetworkMessage@@QAEXAAV1@@Z 
?Extrapolate@CPlacement3D@@QAEXABV1@0M@Z 
?FOVL@CPerspectiveProjection3D@@QAEAAMXZ 
?FOVR@CPerspectiveProjection3D@@QBEABMXZ 
?FPrintF_t@CTStream@@UAAXPBDZZ 
?FRnd@CEntity@@QAEMXZ 
?Fade@CSoundObject@@QAEXMMH@Z 
?FakeJump@CMovableEntity@@QAEXABV?$Vector@M$02@@0MMMMM@Z 
?FallDownToFloor@CEntity@@QAEXXZ 
?FarClipDistanceL@CProjection3D@@QAEAAMXZ 
?FarClipDistanceR@CProjection3D@@QBEABMXZ 
?FatalError@@YAXPBDZZ 
?FetchRow@CTextureData@@QAEXJPAXJH@Z 
?FieldModeOn@CPlayerEntity@@UAEXXZ 
?FieldShopBuyItem@CNetworkLibrary@@QAEXH_J@Z 
?FieldShopSellItem@CNetworkLibrary@@QAEXH_J@Z 
?FileDir@CTFileName@@QBE?AV1@XZ 
?FileExists@@YAHABVCTFileName@@@Z 
?FileExistsForWriting@@YAHABVCTFileName@@@Z 
?FileExt@CTFileName@@QBE?AV1@XZ 
?FileName@CTFileName@@QBE?AV1@XZ 
?FileNameForComponent@CEntity@@QAEABVCTFileName@@JJ@Z 
?Fill@CDrawPort@@QBEXJJJJK@Z 
?Fill@CDrawPort@@QBEXJJJJKKKK@Z 
?Fill@CDrawPort@@QBEXK@Z 
?FillEntityStatistics@CEntity@@UAEHPAUEntityStats@@@Z 
?FillZBuffer@CDrawPort@@QBEXJJJJM@Z 
?FillZBuffer@CDrawPort@@QBEXM@Z 
?FilterBitmap@@YAXJPAK0JJJJ@Z 
?FilterEntitiesBySpawnFlags@CWorld@@QAEXK@Z 
?FinalizeShaders@@YAXXZ 
?FinalizeShaders@CShockWaveEffect@@SAXXZ 
?FinalizeShaders@CSplineBillboardEffect@@SAXXZ 
?FinalizeShaders@CTraceEffect@@SAXXZ 
?Finalize_EffectSystem@@YAHXZ 
?Find@CTagManager@@QAEPAVCTag@@AAV?$basic_string@DU?$char_traits@D@std@@V?$allocator@D@2@@std@@H@Z 
?Find@CTagManager@@QAEPAVCTag@@PBDH@Z 
?FindAnimationByID@CModelInstance@@QAEHJPAJ0@Z 
?FindBestFOV@@YAXABV?$AABBox@M$02@@AAY0M@$$CBMAAM2@Z 
?FindBoneInLOD@CSkeleton@@QBEJJJ@Z 
?FindCollisionInfo@CEntity@@QAEXXZ 
?FindEffectKey@CEffectGroup@@QAEPAUEffectKey@1@J@Z 
?FindEffectKeyValue@CEffectGroup@@QAEJJ@Z 
?FindEntitiesInRange@CEntity@@QAEXABV?$AABBox@M$02@@AAV?$CDynamicContainer@VCEntity@@@@H@Z 
?FindEntitiesInSector@CBrushSector@@QAEXXZ 
?FindEntitiesNearBox@CWorld@@QAEXABV?$AABBox@M$02@@AAV?$CStaticStackArray@PAVCEntity@@@@@Z 
?FindEntityWithCharacter@CWorld@@QAEPAVCPlayerEntity@@AAVCPlayerCharacter@@@Z 
?FindFirstAnimationID@CModelInstance@@QAEJXZ 
?FindHosNameIP@CCommunicationInterface@@IAE_NPBDAAUsIPFilter@@J@Z 
?FindItemForPrize@CQuestDynamicData@@IAEJJJ@Z 
?FindLightRectangle@CBrushShadowMap@@QAEXAAVCLightSource@@AAVCLightRectangle@@@Z 
?FindMeshInstance@CModelInstance@@QAEPAUMeshInstance@@J@Z 
?FindRemappedEntityPointer@CEntity@@SAPAV1@PAV1@@Z 
?FindRememberedLevel@CSessionState@@QAEPAVCRememberedLevel@@ABVCTString@@@Z 
?FindSectorsAroundEntity@CEntity@@QAEXXZ 
?FindSectorsAroundEntityNear@CEntity@@QAEXXZ 
?FindShadingInfo@CEntity@@QAEXXZ 
?FindShadowLayers@CLightSource@@QAEXH@Z 
?FindShadowLayers@CWorld@@QAEXABV?$AABBox@M$02@@HH@Z 
?FindShadowLayersDirectional@CLightSource@@QAEXH@Z 
?FindShadowLayersPoint@CLightSource@@QAEXH@Z 
?FindSubstr@CTString@@QAEJABV1@@Z 
?FindTagKey@CEffectGroup@@QAEPAUTagKey@1@J@Z 
?FindTagKeyValue@CEffectGroup@@QAEJJ@Z 
?FindTargetsInRange@CNetworkLibrary@@QAEXPAVCEntity@@0AAVCSelectedEntities@@MJMJJ@Z 
?FindTargetsInRangeEx@CNetworkLibrary@@QAEXPAVCEntity@@AAVCSelectedEntities@@MJ@Z 
?FindTexureInstance@CModelInstance@@QAEPAUTextureInstance@@J@Z 
?FindTexureInstance@CModelInstance@@QAEPAUTextureInstance@@JAAUMeshInstance@@@Z 
?FindThaiLen@@YAHPBDHH@Z 
?FindVowel@@YAHPBD@Z 
?FinishCRCGather@CNetworkLibrary@@QAEXXZ 
?FinishTranslationTable@@YAXXZ 
?FirstFrame@CAnimObject@@QAEXXZ 
?FirstInactivePlayer@CServer@@QAEPAVCPlayerTarget@@XZ 
?FlipBitmap@@YAXPAE0JJJH@Z 
?FlipPolygon@CWorld@@QAEXAAVCBrushPolygon@@@Z 
?FlowerTreeUpdate@CUIFlowerTree@@QAEXK@Z 
?Flush@CGfxLibrary@@QAEXXZ 
?Flush@CSoundLibrary@@QAEXXZ 
?FlushBtnRenderingQueue@CDrawPort@@QAEXHK@Z 
?FlushRenderingQueue@CDrawPort@@QBEXXZ 
?Force@CTextureData@@QAEXK@Z 
?ForceCollisionBoxIndexChange@CMovableModelEntity@@QAEXJ@Z 
?ForceFullStop@CMovableEntity@@QAEXXZ 
?ForceStopRotation@CMovableEntity@@QAEXXZ 
?ForceStopTranslation@CMovableEntity@@QAEXXZ 
?ForcedExit@CUICashShopEX@@QAEXXZ 
?ForgetOldLevels@CSessionState@@QAEXXZ 
?FreeMemory@@YAXPAX@Z 
?FreeMemoryAligned@@YAXPAX@Z 
?FreeUnused@CStock_CAnimData@@QAEXXZ 
?FreeUnused@CStock_CAnimSet@@QAEXXZ 
?FreeUnused@CStock_CEntityClass@@QAEXXZ 
?FreeUnused@CStock_CFontData@@QAEXXZ 
?FreeUnused@CStock_CMesh@@QAEXXZ 
?FreeUnused@CStock_CModelData@@QAEXXZ 
?FreeUnused@CStock_CModelInstance@@QAEXXZ 
?FreeUnused@CStock_CShader@@QAEXXZ 
?FreeUnused@CStock_CSkeleton@@QAEXXZ 
?FreeUnused@CStock_CSoundData@@QAEXXZ 
?FreeUnused@CStock_CTextureData@@QAEXXZ 
?FromBrush@CCollisionInfo@@QAEXPAVCBrush3D@@@Z 
?FromMappingVectors@CMappingDefinition@@QAEXABVCMappingVectors@@0@Z 
?FromModel@CCollisionInfo@@QAEXPAVCEntity@@J@Z 
?FromObject3D_t@CBrush3D@@QAEXAAVCObject3D@@@Z 
?FromObjectSector_t@CBrushSector@@QAEXAAVCObjectSector@@@Z 
?FromPlane@CMappingVectors@@QAEXABV?$Plane@M$02@@@Z 
?FromPlane_DOUBLE@CMappingVectors@@QAEXABV?$Plane@N$02@@@Z 
?FromSkaModel@CCollisionInfo@@QAEXPAVCEntity@@J@Z 
?FromUI@CMappingDefinition@@QAEXABVCMappingDefinitionUI@@@Z 
?FromXmltoCashData@CUICashShopEX@@IAEPAVTiXmlElement@@AAVCCashTypeNode@@PAV2@W4CTNINFO@3@@Z 
?FrontClipDistanceL@CProjection3D@@QAEAAMXZ 
?FrontClipDistanceR@CProjection3D@@QBEABMXZ 
?GBEnd@CUIGuildBattle@@QAEXHHVCTString@@H0H@Z 
?GBErrorMessage@CUIGuildBattle@@QAEXHVCTString@@@Z 
?GBErrorProcess@CUIGuildBattle@@QAEXH@Z 
?GBMessage@CUIGuildBattle@@QAEXHVCTString@@K@Z 
?GBReq@CNetworkLibrary@@QAEXJJJ@Z 
?GBReq@CUIGuildBattle@@QAEXHVCTString@@HH@Z 
?GBReq@CUIGuildBattle@@QAEXXZ 
?GBReqAccept@CNetworkLibrary@@QAEXXZ 
?GBReqAccept@CUIGuildBattle@@QAEXHVCTString@@H0HHH@Z 
?GBReqReject@CNetworkLibrary@@QAEXXZ 
?GBReqReject@CUIGuildBattle@@QAEXH@Z 
?GBStart@CUIGuildBattle@@QAEXHVCTString@@H0HHH@Z 
?GBStatus@CUIGuildBattle@@QAEXHVCTString@@HH0HHH@Z 
?GBStopReq@CNetworkLibrary@@QAEXJ@Z 
?GBStopReq@CUIGuildBattle@@QAEXHVCTString@@@Z 
?GBStopReqAccept@CNetworkLibrary@@QAEXXZ 
?GBStopReqAccept@CUIGuildBattle@@QAEXXZ 
?GBStopReqReject@CNetworkLibrary@@QAEXXZ 
?GBStopReqReject@CUIGuildBattle@@QAEXH@Z 
?GBStopReqRev@CUIGuildBattle@@QAEXHVCTString@@@Z 
?GameInactive@CNetworkLibrary@@QAEXXZ 
?Get2ByteCharCount@CUIEditBox@@QAEHPADH@Z 
?GetAbsPos@CUIBase@@QAEXAAH0@Z 
?GetAbsPosX@CUIBase@@QBEHXZ 
?GetAbsPosY@CUIBase@@QBEHXZ 
?GetAbsUV@CUIImage@@QAE?AUUIRectUV@@XZ 
?GetAbsorption@CParticleGroup@@QAEPAVCParticlesAbsorption@@XZ 
?GetAcceleration@CParticle@@QBEABV?$Vector@M$02@@XZ 
?GetAccessJob@CZoneInfo@@QBEKH@Z 
?GetAccessoryEffect@CItemEffect@@QAEPAVCEffectGroup@@XZ 
?GetActionAniidx@CUICharacterCreateNew@@AAEHH@Z 
?GetActiveCollisionBoxIndex@CEditModel@@QAEJXZ 
?GetAdminNPCIndex@CAffinityData@@QBE?BHH@Z 
?GetAffinityData@CAffinityData@@QBEPAU_AffinityInfo@1@H@Z 
?GetAffinityData@CNetworkLibrary@@QAEPAVCAffinityData@@XZ 
?GetAffinityDataByIndex@CAffinityData@@QBEPAU_AffinityInfo@1@H@Z 
?GetAffinityIndex@CAffinityData@@QBE?BHH@Z 
?GetAffinityName@CAffinityData@@QBEPBDH@Z 
?GetAffinityNameByIndex@CAffinityData@@QBEPBDH@Z 
?GetAffinityPoint@CAffinityData@@QBE?BHHH@Z 
?GetAffinityPointer@CNetworkLibrary@@QAEPAU_AffinityInfo@1@XZ 
?GetAffinityRewardNPCList@CNetworkLibrary@@QAEABV?$list@HV?$allocator@H@std@@@std@@XZ 
?GetAffinityRewardNPCListCount@CNetworkLibrary@@QAE?BHXZ 
?GetAffinityStringIndex@CAffinityData@@QBE?BHH@Z 
?GetAge@CParticle@@QBEMXZ 
?GetAlBackground@CEntity@@UBEHXZ 
?GetAlignTextH@CUITextBox@@QAE?AW4eALIGN_H@@XZ 
?GetAlignTextV@CUITextBox@@QAE?AW4eALIGN_V@@XZ 
?GetAllFramesBBox@CModelData@@QAEXAAV?$AABBox@M$02@@@Z 
?GetAllFramesBBox@CModelInstance@@QAEXAAV?$AABBox@M$02@@@Z 
?GetAllFramesBBox@CModelObject@@QAEXAAV?$AABBox@M$02@@@Z 
?GetAlphaCount@CEffectControl@@QAEIXZ 
?GetAlphaCount@CParticlesProcessDynamicState@@QAEIXZ 
?GetAlphaTime@CEffectControl@@QAEMI@Z 
?GetAlphaTime@CParticlesProcessDynamicState@@QAEMI@Z 
?GetAlphaValue@CEffectControl@@QAEEI@Z 
?GetAlphaValue@CParticlesProcessDynamicState@@QAEEI@Z 
?GetAmbientMode@CLightEffect@@QAEHXZ 
?GetAngleCount@CEffectControl@@QAEIXZ 
?GetAngleCount@CParticlesProcessDynamicState@@QAEIXZ 
?GetAngleSpeed@CParticlesProcessControl@@QAEMXZ 
?GetAngleTime@CEffectControl@@QAEMI@Z 
?GetAngleTime@CParticlesProcessDynamicState@@QAEMI@Z 
?GetAngleValue@CEffectControl@@QAE?AV?$Vector@M$02@@I@Z 
?GetAngleValue@CParticlesProcessDynamicState@@QAE?AV?$Vector@M$02@@I@Z 
?GetAniCount@CUISpriteAni@@QAEHXZ 
?GetAnim@CAnimObject@@QBEJXZ 
?GetAnimAttack2Name@CMobData@@QAEPBDXZ 
?GetAnimAttack3Name@CMobData@@QAEPBDXZ 
?GetAnimAttack4Name@CMobData@@QAEPBDXZ 
?GetAnimAttackName@CMobData@@QAEPBDXZ 
?GetAnimAttackNameByID@CMobData@@QAE?AVCTString@@H@Z 
?GetAnimData@CEntity@@UAEPAVCAnimData@@J@Z 
?GetAnimDeathName@CMobData@@QAEPBDXZ 
?GetAnimDefault2Name@CMobData@@QAEPBDXZ 
?GetAnimDefaultName@CMobData@@QAEPBDXZ 
?GetAnimEffectByAnimIndex@CModelInstance@@QAEPAVCAnimEffect@@J@Z 
?GetAnimID@CAnimEffect@@QAEJXZ 
?GetAnimInfo@CAnimData@@QBEXJAAVCAnimInfo@@@Z 
?GetAnimInfo@CAnimObject@@QBEXJAAVCAnimInfo@@@Z 
?GetAnimLength@CAnimObject@@QBEMJ@Z 
?GetAnimLength@CModelInstance@@QAEMJH@Z 
?GetAnimName@CAnimEffect@@QBEABVCTString@@XZ 
?GetAnimPlayTime@CGameState@@QAEMPAVCEntity@@J@Z 
?GetAnimPlayingTime@CModelInstance@@QAEMJ@Z 
?GetAnimRunName@CMobData@@QAEPBDXZ 
?GetAnimStartTime@CGameState@@QAEMPAVCEntity@@J@Z 
?GetAnimWalkName@CMobData@@QAEPBDXZ 
?GetAnimWoundName@CMobData@@QAEPBDXZ 
?GetAnimationName@CJobInfo@@QAE?AVCTString@@HH@Z 
?GetAnimationName@CPetInfo@@QBEABVCTString@@HH@Z 
?GetAnimationName@CSlaveInfo@@QBEABVCTString@@HH@Z 
?GetAnimationName@CTransformInfo@@QAE?AVCTString@@HH@Z 
?GetAnimationTime@CPlayerEntity@@UAEMXZ 
?GetAnimsCt@CAnimData@@QBEJXZ 
?GetAnimsCt@CAnimObject@@QBEJXZ 
?GetArea@CTerrainEffect@@QAE?AVCRectFlt@@XZ 
?GetArmor@CharacterCreateNew@@QAEHXZ 
?GetArmorEffectName@CItemData@@QAEPBDXZ 
?GetArrayChildCount@CUIArray@@QAEHXZ 
?GetArrayItem@CUIArray@@QAEPAVCUIArrayItem@@H@Z 
?GetArrayItemTemplate@CUIArray@@QAEPAVCUIArrayItem@@XZ 
?GetAttachmentMatrices@CModelObject@@QAEXPAVCAttachmentModelObject@@AAV?$Matrix@M$02$02@@AAV?$Vector@M$02@@@Z 
?GetAttachmentModel@CModelObject@@QAEPAVCAttachmentModelObject@@J@Z 
?GetAttachmentModelList@CModelObject@@QAAPAVCAttachmentModelObject@@JZZ 
?GetAttachmentPlacement@CModelObject@@QAE?AVCPlacement3D@@AAVCAttachmentModelObject@@@Z 
?GetAttachmentTransformations@CModelObject@@QAEXJAAV?$Matrix@M$02$02@@AAV?$Vector@M$02@@H@Z 
?GetAttackDistance@CMobData@@QBEMXZ 
?GetAttackEffectFile@TitleStaticData@@QBEPBDXZ 
?GetAttackSpeed@CItemData@@QBEHXZ 
?GetAttackSpeed@CMobData@@QBEHXZ 
?GetAttackType@CMobData@@QBEDXZ 
?GetAttackrange@CPlayerEntity@@UAEMXZ 
?GetAttackspeed@CPlayerEntity@@UAECXZ 
?GetAttendance@GameDataManager@@QAEPAVAttendance@@XZ 
?GetAttratt@CMobData@@QBEEXZ 
?GetAttrattLv@CMobData@@QBEEXZ 
?GetAttrdef@CMobData@@QBEEXZ 
?GetAttrdefLv@CMobData@@QBEEXZ 
?GetAuction@GameDataManager@@QAEPAVAuction@@XZ 
?GetAutoInfo@CUIButton@@QAEHXZ 
?GetBGColor@TitleStaticData@@QBEKXZ 
?GetBackGround@CUISpinControl@@QAEXAAU_UIRect@@AAUUIRectUV@@AAH@Z 
?GetBackgroundColor@CWorld@@QAEKXZ 
?GetBackgroundViewer@CWorld@@QAEPAVCEntity@@XZ 
?GetBaseColor@CUITextBoxEx@@QAEKXZ 
?GetBlendType@CParticleGroup@@QAE?AW4PredefinedBlendType@@XZ 
?GetBlendType@CShockWaveEffect@@QAE?AW4PredefinedBlendType@@XZ 
?GetBlendType@CSplineBillboardEffect@@QAE?AW4PredefinedBlendType@@XZ 
?GetBlendType@CTerrainEffect@@QAE?AW4PredefinedBlendType@@XZ 
?GetBlendType@CTraceEffect@@QAE?AW4PredefinedBlendType@@XZ 
?GetBoneAbsPosition@CEntity@@QAEHJAAV?$Vector@M$02@@0@Z 
?GetBoneCount@CSkaTag@@QAEJXZ 
?GetBoneID@CSkaTag@@QAEJJ@Z 
?GetBoneRelPosition@CEntity@@QAEHJAAV?$Vector@M$02@@0@Z 
?GetBoneTransformations@CEntity@@QAEHJAAV?$Matrix@M$02$02@@AAV?$Vector@M$02@@@Z 
?GetBoneWeight@CSkaTag@@QAEMJ@Z 
?GetBound@CMobData@@QAEMXZ 
?GetBoundingBox@CEntity@@QAEXAAV?$AABBox@M$02@@@Z 
?GetBoundingBox@CObject3D@@QAEXAAV?$AABBox@N$02@@@Z 
?GetBoundingSphereRadius@CEffect@@QAEMXZ 
?GetBoxType@CItemData@@QBEHXZ 
?GetBrush@CEntity@@QAEPAVCBrush3D@@XZ 
?GetBrushMip@CWorld@@QAEPAVCBrushMip@@AAVCEntity@@@Z 
?GetBrushMipByDistance@CBrush3D@@QAEPAVCBrushMip@@M@Z 
?GetBrushMipByIndex@CBrush3D@@QAEPAVCBrushMip@@J@Z 
?GetBrushPolygon@CBrushShadowMap@@QAEPAVCBrushPolygon@@XZ 
?GetBrushType@CBrush3D@@UAEJXZ 
?GetBrushType@CBrushBase@@UAEJXZ 
?GetBrushType@CTerrain@@UAEJXZ 
?GetBtnState@CUIButton@@QBE?AW4UIBtnState@@XZ 
?GetBtnType@CUIImageBox@@QAEHXZ 
?GetBuffer@CConsole@@QAEPBDXZ 
?GetBuffer@CNetworkMessage@@QAEPAXXZ 
?GetBufferSize@CConsole@@QAEJXZ 
?GetBuyAddition@MyInfo@@QAEHXZ 
?GetBuyRate@CShopData@@QBEHXZ 
?GetBuyRate@MyInfo@@QAEHXZ 
?GetCalcIndex@CInvenData@@AAEHHH@Z 
?GetCalendarData@GameDataManager@@QAEPAVCalendar@@XZ 
?GetCand@CUIEditBox@@QAE?AW4WMSG_RESULT@@XZ 
?GetCapEnd@CTraceEffect@@QAEHXZ 
?GetCashIndex@CUIIcon@@QAEHXZ 
?GetCashShopData@CCashShopData@@QAEPAVCASH_SHOP_DATA@1@J@Z 
?GetCashShopData@CNetworkLibrary@@QAEAAVCCashShopData@@H@Z 
?GetCashShopData@CNetworkLibrary@@QAEAAVCCashShopData@@XZ 
?GetCashShopLock@CUICashShopEX@@QAEHXZ 
?GetCastleWar@CItemData@@QAEDXZ 
?GetChangeWeapon@GameDataManager@@QAEPAVChangeWeapon@@XZ 
?GetChaosJewelGradeInfo@CNetworkLibrary@@QAEHHAAV?$vector@UJewelInfo@@V?$allocator@UJewelInfo@@@std@@@std@@@Z 
?GetCharCreate@GameDataManager@@QAEPAVCharacterCreateNew@@XZ 
?GetCharFromKey@@YADKH@Z 
?GetCharSelData@GameDataManager@@QAEPAVCCharacterSelect@@XZ 
?GetCharSpacing@CFontData@@QBEJXZ 
?GetCharWidthA@CFontData@@QBEJD@Z 
?GetCharacterTarget@CEntity@@QAEPAVCCharacterTarget@@XZ 
?GetChatMask@CPlayerSource@@QAEKXZ 
?GetCheckRegion@CUICheckButton@@QAEHXZ 
?GetChild@CModelInstance@@QAEPAV1@JH@Z 
?GetChildIndex@CUIBase@@QAEHPAV1@@Z 
?GetChildOfClass@CEntity@@QAEPAV1@PBD@Z 
?GetClass2Desc@CUICharacterCreateNew@@AAE?AVCTString@@W4eJob@@W4eJob2@@@Z 
?GetClass@CEntity@@QAEPAVCEntityClass@@XZ 
?GetClassDesc@CUICharacterCreateNew@@AAE?AVCTString@@W4eJob@@@Z 
?GetClassOfItem@CUIManager@@SAXPAVCItemData@@AAVCTString@@@Z 
?GetClassSex@CUICharacterCreateNew@@AAEHH@Z 
?GetClassificationBoxStretch@CEntity@@UAE?AV?$Vector@M$02@@XZ 
?GetClickObject@CPlayerEntity@@UAEPAVCEntity@@XZ 
?GetClientsCount@CServer@@QAEJXZ 
?GetColisionBox@CModelInstance@@QAEAAUColisionBox@@J@Z 
?GetColisionBoxIndex@CModelInstance@@QAEJJ@Z 
?GetCollisionBoxDimensionEquality@CEditModel@@QAEJXZ 
?GetCollisionBoxDimensionEquality@CModelData@@QAEJJ@Z 
?GetCollisionBoxDimensionEquality@CModelInstance@@QAEJJ@Z 
?GetCollisionBoxDimensionEquality@CModelObject@@QAEJJ@Z 
?GetCollisionBoxIndex@CEntity@@UAEJXZ 
?GetCollisionBoxIndex@CMovableModelEntity@@UAEJXZ 
?GetCollisionBoxMax@CEditModel@@QAEAAV?$Vector@M$02@@XZ 
?GetCollisionBoxMax@CModelData@@QAE?AV?$Vector@M$02@@J@Z 
?GetCollisionBoxMax@CModelInstance@@QAE?AV?$Vector@M$02@@J@Z 
?GetCollisionBoxMax@CModelObject@@QAE?AV?$Vector@M$02@@J@Z 
?GetCollisionBoxMin@CEditModel@@QAEAAV?$Vector@M$02@@XZ 
?GetCollisionBoxMin@CModelData@@QAE?AV?$Vector@M$02@@J@Z 
?GetCollisionBoxMin@CModelInstance@@QAE?AV?$Vector@M$02@@J@Z 
?GetCollisionBoxMin@CModelObject@@QAE?AV?$Vector@M$02@@J@Z 
?GetCollisionBoxName@CEditModel@@QAE?AVCTString@@J@Z 
?GetCollisionBoxName@CEditModel@@QAE?AVCTString@@XZ 
?GetCollisionBoxParameters@CEntity@@UAEXJAAV?$AABBox@M$02@@AAJ@Z 
?GetCollisionFlags@CEntity@@QBEKXZ 
?GetColor@CMdlEffect@@QAEKXZ 
?GetColor@CParticle@@QBEKXZ 
?GetColor@CSkaEffect@@QAEKXZ 
?GetColor@CTerrainEffect@@QAEKXZ 
?GetColor@CUIImage@@QAEKXZ 
?GetColor@CUIImageArray@@QAEKXZ 
?GetColor@TitleStaticData@@QBEKXZ 
?GetColorAndShapeIndex@CUITatoo@@AAEHXZ 
?GetColorBegin@CSplineBillboardEffect@@QAEKXZ 
?GetColorBegin@CTraceEffect@@QAEKXZ 
?GetColorCount@CEffectControl@@QAEIXZ 
?GetColorCount@CParticlesProcessDynamicState@@QAEIXZ 
?GetColorEnd@CSplineBillboardEffect@@QAEKXZ 
?GetColorEnd@CTraceEffect@@QAEKXZ 
?GetColorIntroDesc@CQuestDynamicData@@QAEKXZ 
?GetColorName@CModelObject@@QAE?AVCTString@@J@Z 
?GetColorNeedDesc@CQuestDynamicData@@QAEKJ@Z 
?GetColorNoAlpha@CParticle@@QBEKXZ 
?GetColorOnlyAlpha@CParticle@@QBEKXZ 
?GetColorOptionPrizeDesc@CQuestDynamicData@@QAEKJ@Z 
?GetColorPrizeDesc@CQuestDynamicData@@QAEKJ@Z 
?GetColorStatusDesc@CQuestDynamicData@@QAEKJ@Z 
?GetColorTime@CEffectControl@@QAEMI@Z 
?GetColorTime@CParticlesProcessDynamicState@@QAEMI@Z 
?GetColorTitleDesc@CQuestDynamicData@@QAEKJ@Z 
?GetColorValue@CEffectControl@@QAEKI@Z 
?GetColorValue@CParticlesProcessDynamicState@@QAEKI@Z 
?GetColoredTexFileName@CPetInfo@@QBEABVCTString@@HHH@Z 
?GetColumnCount@CUIListBox@@QBEHXZ 
?GetCommand@CUISummon@@QAEAAJXZ 
?GetCommonProcess@CParticleGroup@@QAEPAVCParticlesCommonProcess@@I@Z 
?GetCommonProcessCount@CParticleGroup@@QAEIXZ 
?GetCompleteQuestCount@Quest@@QAEJXZ 
?GetCompleteQuestIndex@Quest@@QAEJJ@Z 
?GetCompleteText@CUIProgressBar@@QBE?BVCTString@@XZ 
?GetCompleteTextColor@CUIProgressBar@@QBE?BKXZ 
?GetCompletionString@CShellSymbol@@QBE?AVCTString@@XZ 
?GetConditionData@CQuestDynamicData@@QAEJJJ@Z 
?GetConditionIndex@CQuestDynamicData@@QAEJJ@Z 
?GetConditionNum@CQuestDynamicData@@QAEJJ@Z 
?GetConditionType@CQuestDynamicData@@QAEJJ@Z 
?GetContentType@CBrushSector@@QAEJXZ 
?GetControl@CInputDevice@@QAEJABVCTString@@@Z 
?GetControlGID@@YAKJJ@Z 
?GetControlGIDFromString@CInput@@QAEKABVCTString@@0@Z 
?GetControlLID@@YAJK@Z 
?GetControlName@CInput@@QAE?AVCTString@@K@Z 
?GetControlTransName@CInput@@QAE?AVCTString@@K@Z 
?GetControlType@CParticlesProcessControl@@QAE?AW4CONTROL_TYPE@@XZ 
?GetControlValue@CInput@@QAEMK@Z 
?GetControlValue@CInputDevice@@QAEMJ@Z 
?GetControlsCount@CInputDevice@@QAEJXZ 
?GetCoolTime@ItemHelp@@SANNN@Z 
?GetCoolTimeReductionRate@CUIManager@@QAEHXZ 
?GetCountNeedDesc@CQuestDynamicData@@QAEJXZ 
?GetCountOptionPrizeDesc@CQuestDynamicData@@QAEJXZ 
?GetCountPrizeDesc@CQuestDynamicData@@QAEJXZ 
?GetCountStatusDesc@CQuestDynamicData@@QAEJXZ 
?GetCountTitleDesc@CQuestDynamicData@@QAEJXZ 
?GetCreateSet@CItemData@@QBEHXZ 
?GetCreatedList@CEffectGroupManager@@QAEAAV?$list@PAVCEffectGroup@@V?$allocator@PAVCEffectGroup@@@std@@@std@@XZ 
?GetCreatedList@CEffectManager@@QAEAAV?$list@PAVCEffect@@V?$allocator@PAVCEffect@@@std@@@std@@J@Z 
?GetCreatedList@CParticleGroupManager@@QAEAAV?$vector@PAVCParticleGroup@@V?$allocator@PAVCParticleGroup@@@std@@@std@@XZ 
?GetCurItemCount@CUIListBox@@QBEHH@Z 
?GetCurItemCount@CUIScrollBar@@QBEHXZ 
?GetCurOverList@CUIListBox@@QBEHXZ 
?GetCurPos@CUISlideBar@@QBEHXZ 
?GetCurSel@CUIComboBox@@QBEHXZ 
?GetCurSel@CUIListBox@@QAEHXZ 
?GetCurStage@StageMgr@@QAE?AW4eSTAGE@@XZ 
?GetCurrViewPage@Quest@@QAEHXZ 
?GetCurrentAPI@CGfxLibrary@@QAE?AW4GfxAPIType@@XZ 
?GetCurrentAdapter@CGfxLibrary@@QAEJXZ 
?GetCurrentAnimLength@CAnimObject@@QBEMXZ 
?GetCurrentColisionBox@CModelInstance@@QAEAAUColisionBox@@XZ 
?GetCurrentColisionBox@CModelInstance@@QAEXAAV?$AABBox@M$02@@@Z 
?GetCurrentColisionBoxIndex@CModelInstance@@QAEJXZ 
?GetCurrentConditionValueStatus@CQuestDynamicData@@QAEJJ@Z 
?GetCurrentDisplayMode@CGfxLibrary@@QAEXAAVCDisplayMode@@@Z 
?GetCurrentFrameBBox@CModelObject@@QAEXAAV?$AABBox@M$02@@@Z 
?GetCurrentMipBrushingFactor@CWorldRenderPrefs@@QAEMM@Z 
?GetCurrentPage@ExpressSystem@@QAEGXZ 
?GetCurrentPageType@CUICashShopEX@@QAEJXZ 
?GetCurrentRequest@CQuestSystem@@QBEPAVCQuestDynamicData@@XZ 
?GetCurrentWorld@CNetworkLibrary@@QAEAAVCTFileName@@XZ 
?GetCursorIndex@CUIEditBox@@QBEHXZ 
?GetCursorMove@CUIEditBox@@QAEHXZ 
?GetCursorSX@CUIEditBox@@QAEHXZ 
?GetDG_EnvNas@ServerInfo@@QAE_JXZ 
?GetDG_Mode@ServerInfo@@QAE?AW4eTHEOS_DUNGEON_MODE@@XZ 
?GetDG_MonsterNas@ServerInfo@@QAE_JXZ 
?GetDamageEffectFile@TitleStaticData@@QBEPBDXZ 
?GetData@CModelObject@@QAEPAVCModelData@@XZ 
?GetDataToNumber@CUISpinButton@@QAEHH@Z 
?GetDataToString@CUISpinButton@@QAE?AVCTString@@H@Z 
?GetDebugOutMode@CUIManager@@QAE_NXZ 
?GetDelay@CMobData@@QBEMH@Z 
?GetDelayCount@CMobData@@QBEDXZ 
?GetDelayTime@CParticlesEmitterSphere@@QAEMXZ 
?GetDelivery@CMessageDispatcher@@QAE_NXZ 
?GetDeltaPosCount@CParticlesProcessDynamicState@@QAEIXZ 
?GetDeltaPosTime@CParticlesProcessDynamicState@@QAEMI@Z 
?GetDeltaPosValue@CParticlesProcessDynamicState@@QAE?AV?$Vector@M$02@@I@Z 
?GetDependLife@CParticlesAbsorption@@QAEHXZ 
?GetDependRadius@CParticlesProcessControl@@QAEHXZ 
?GetDepthSortOffset@CEntity@@UAEMXZ 
?GetDesc2@CQuestDynamicData@@QAEPBDXZ 
?GetDesc3@CQuestDynamicData@@QAEPBDXZ 
?GetDesc@CItemData@@QAEPBDXZ 
?GetDesc@CMobData@@QAEPBDXZ 
?GetDesc@CQuestDynamicData@@QAEPBDXZ 
?GetDescription@CAnimSet@@UAE?AVCTString@@XZ 
?GetDescription@CEntity@@UBEABVCTString@@XZ 
?GetDescription@CMesh@@UAE?AVCTString@@XZ 
?GetDescription@CModelData@@UAE?AVCTString@@XZ 
?GetDescription@CModelInstanceSerial@@UAE?AVCTString@@XZ 
?GetDescription@CNetworkProvider@@QBEABVCTString@@XZ 
?GetDescription@CSerial@@UAE?AVCTString@@XZ 
?GetDescription@CSkeleton@@UAE?AVCTString@@XZ 
?GetDescription@CSoundData@@UAE?AVCTString@@XZ 
?GetDescription@CTStream@@QAEAAVCTString@@XZ 
?GetDescription@CTextureData@@UAE?AVCTString@@XZ 
?GetDescription@CWorld@@QAEABVCTString@@XZ 
?GetDesiredRotation@CMovableEntity@@QBEABV?$Vector@M$02@@XZ 
?GetDesiredTranslation@CMovableEntity@@QBEABV?$Vector@M$02@@XZ 
?GetDeviceType@CInputDevice@@QAE?AW4DeviceType@@XZ 
?GetDirection@CParticle@@QAEABV?$Quaternion@M@@XZ 
?GetDirection@CParticlesAbsorption@@QAEABV?$Quaternion@M@@XZ 
?GetDirection@CParticlesCommonProcess@@QAEABV?$Quaternion@M@@XZ 
?GetDirection@CParticlesEmitter@@QAEABV?$Quaternion@M@@XZ 
?GetDirectionVector@CPlacement3D@@QAEXAAV?$Vector@M$02@@@Z 
?GetDistance@CIsometricProjection3D@@UBEMABV?$Vector@M$02@@@Z 
?GetDistance@CParallelProjection3D@@UBEMABV?$Vector@M$02@@@Z 
?GetDistance@CPerspectiveProjection3D@@UBEMABV?$Vector@M$02@@@Z 
?GetDistance@CSimpleProjection3D@@UBEMABV?$Vector@M$02@@@Z 
?GetDistanceFromEdges@CBrushPolygon@@QAEMABV?$Vector@M$02@@@Z 
?GetDiveisionTypeExp@Party@@QAECXZ 
?GetDiveisionTypeItem@Party@@QAECXZ 
?GetDiveisionTypeSpItem@Party@@QAECXZ 
?GetDivisionType@Party@@QAECH@Z 
?GetDoingText@CUIProgressBar@@QBE?BVCTString@@XZ 
?GetDoingTextColor@CUIProgressBar@@QBE?BKXZ 
?GetDragBase@CUIManager@@QAEPAVCUIBase@@XZ 
?GetDragIcon@CUIManager@@QAEPAVCUIIcon@@XZ 
?GetDrawPort@CUIManager@@QBEPAVCDrawPort@@XZ 
?GetDst@CRelationLnk@@QAEAAVCRelationDst@@XZ 
?GetDurability@GameDataManager@@QAEPAVCDurability@@XZ 
?GetDynamicDataByQuestIndex@CQuestSystem@@QAEPAVCQuestDynamicData@@J@Z 
?GetDynamicDataByVectorIndex@CQuestSystem@@QAEPAVCQuestDynamicData@@J@Z 
?GetERSubType@CEffect@@QAE?AW4EFF_RENDER_SUB_TYPE@@XZ 
?GetERType@CEffect@@QAE?AW4EFF_RENDER_TYPE@@XZ 
?GetEdge@CUIButton@@QAE_NXZ 
?GetEdgesFillType@CWorldRenderPrefs@@QAE?AW4FillType@1@XZ 
?GetEdgesInkColor@CWorldRenderPrefs@@QAEKXZ 
?GetEffectControl@CEntityEffect@@QAEPAVCEffectControl@@XZ 
?GetEffectControl@CMdlEffect@@QAEPAVCEffectControl@@XZ 
?GetEffectControl@CSkaEffect@@QAEPAVCEffectControl@@XZ 
?GetEffectCount@CEffectGroup@@QAEJXZ 
?GetEffectFile@TitleStaticData@@QBEPBDXZ 
?GetEffectGroup@CEffectGroupManager@@QAEPAVCEffectGroup@@V?$basic_string@DU?$char_traits@D@std@@V?$allocator@D@2@@std@@@Z 
?GetEffectGroup@CEffectGroupManager@@QAEPAVCEffectGroup@@V?$basic_string@DU?$char_traits@D@std@@V?$allocator@D@2@@std@@PAVCEntity@@@Z 
?GetEffectKeyInfo@CEffectGroup@@QAEXJAAMAAV?$basic_string@DU?$char_traits@D@std@@V?$allocator@D@2@@std@@@Z 
?GetEffectKeyVector@CEffectGroup@@QAEABV?$vector@UEffectKey@CEffectGroup@@V?$allocator@UEffectKey@CEffectGroup@@@std@@@std@@XZ 
?GetEffectModelNo@PetStash@@QAEHXZ 
?GetEffectSpeed@CInvenData@@QAEHXZ 
?GetElapsedTime@CSoundObject@@QAEMJ@Z 
?GetEmitAllDir@CParticlesEmitterCylinder@@QAEHXZ 
?GetEmitSpeed@CParticlesEmitter@@QAEMXZ 
?GetEmitter@CParticleGroup@@QAEPAVCParticlesEmitter@@XZ 
?GetEmptyBrushModel@CWorldRenderPrefs@@QAEPAVCModelObject@@XZ 
?GetEntity@CEntityID@@QAEPAVCEntity@@XZ 
?GetEntityByIndexServer@ActorMgr@@QAEPAVCEntity@@W4eOBJ_TYPE@@I@Z 
?GetEntityByTypeIndex@CNetworkLibrary@@QAEPAVCEntity@@CJ@Z 
?GetEntityInfo@CEntity@@UAEPAXXZ 
?GetEntityOfClass@CNetworkLibrary@@QAEPAVCEntity@@ABVCTString@@J@Z 
?GetEntityPointFixed@CEntity@@QAEXABV?$Vector@M$02@@AAV2@@Z 
?GetEntityPointRatio@CEntity@@QAEXABV?$Vector@M$02@@AAV2@H@Z 
?GetEntityWithName@CNetworkLibrary@@QAEPAVCEntity@@ABVCTString@@J@Z 
?GetEnvironmentType@CBrushSector@@QAEJXZ 
?GetEventImg@CUIList@@QAEXAAU_UIRect@@AAUUIRectUV@@H@Z 
?GetExistCharNum@CGameState@@QBEKXZ 
?GetExistingPatchesMask@CEditModel@@QAEKXZ 
?GetExitCode@cThreadWrapper@@QAEKXZ 
?GetExpeditionGroupMemberCount@Party@@QAEHH@Z 
?GetExpeditionMemberHp@Party@@QAEHHH@Z 
?GetExpeditionMemberIndex@Party@@QAEJHH@Z 
?GetExpeditionMemberIndex@Party@@QAEJVCTString@@@Z 
?GetExpeditionMemberJob@Party@@QAECHH@Z 
?GetExpeditionMemberLayer@Party@@QAECHH@Z 
?GetExpeditionMemberLevel@Party@@QAEHHH@Z 
?GetExpeditionMemberMaxHp@Party@@QAEHHH@Z 
?GetExpeditionMemberMaxMp@Party@@QAEHHH@Z 
?GetExpeditionMemberMp@Party@@QAEHHH@Z 
?GetExpeditionMemberName@Party@@QAE?AVCTString@@HH@Z 
?GetExpeditionMemberOnline@Party@@QAEHHH@Z 
?GetExpeditionMemberPosX@Party@@QAEMHH@Z 
?GetExpeditionMemberPosZ@Party@@QAEMHH@Z 
?GetExpeditionMemberPosition@Party@@QAECHH@Z 
?GetExpeditionMemberZone@Party@@QAEJHH@Z 
?GetExpeditionMyGroupCount@Party@@QAEHXZ 
?GetExpeditionMyPosition@Party@@QAEHXZ 
?GetExpressData@GameDataManager@@QAEPAVExpressSystem@@XZ 
?GetExtend@Quest@@QAEHW4eTREE_TYPE@@@Z 
?GetExtensionName@CJobInfo@@QAE?AVCTString@@HH@Z 
?GetExtraCount@CZoneInfo@@QBEHH@Z 
?GetExtraFlag@CMobData@@QBE_KXZ 
?GetExtraName@CZoneInfo@@QAE?AVCTString@@HH@Z 
?GetExtraNum@CItemData@@QBEHXZ 
?GetFLOAT@CShell@@QAEMABVCTString@@@Z 
?GetFPUPrecision@@YA?AW4FPUPrecisionType@@XZ 
?GetFace@CharacterCreateNew@@QAEHXZ 
?GetFadeInDestPhaseMul@COrbitEffect@@QAEMXZ 
?GetFadeInDestRadiusMul@COrbitEffect@@QAEMXZ 
?GetFadeInFlag@COrbitEffect@@QAEKXZ 
?GetFadeInTime@CEffect@@QAEMXZ 
?GetFadeInTime@CEffectControl@@QAEMXZ 
?GetFadeInTime@CParticlesProcessDynamicState@@QAEMXZ 
?GetFadeOutDestPhaseMul@COrbitEffect@@QAEMXZ 
?GetFadeOutDestRadiusMul@COrbitEffect@@QAEMXZ 
?GetFadeOutFlag@COrbitEffect@@QAEKXZ 
?GetFadeOutTime@CEffect@@QAEMXZ 
?GetFadeOutTime@CEffectControl@@QAEMXZ 
?GetFadeOutTime@CParticlesProcessDynamicState@@QAEMXZ 
?GetFadeValue@CEffect@@IAEMM@Z 
?GetFallOff@CSoundEffect@@QAEMXZ 
?GetFame@CItemData@@QBEHXZ 
?GetFieldSettings@CEntity@@UAEPAVCFieldSettings@@XZ 
?GetFileCRC32_t@@YAKABVCTFileName@@@Z 
?GetFileName@CJobInfo@@QAE?AVCTString@@H@Z 
?GetFileName@CLoginJobInfo@@QAE?AVCTString@@W4eJob@@@Z 
?GetFileName@CPetInfo@@QBEABVCTString@@HH@Z 
?GetFileName@CSlaveInfo@@QBEABVCTString@@H@Z 
?GetFileName@CTransformInfo@@QAE?AVCTString@@H@Z 
?GetFileTimeStamp_t@@YAJABVCTFileName@@@Z 
?GetFireEffect0@CMobData@@QAEPBDXZ 
?GetFireEffect1@CMobData@@QAEPBDXZ 
?GetFireEffect2@CMobData@@QAEPBDXZ 
?GetFirstEmptyPatchIndex@CEditModel@@QAEHAAJ@Z 
?GetFirstExFlags@CEntity@@QBEKXZ 
?GetFirstMip@CBrush3D@@QAEPAVCBrushMip@@XZ 
?GetFirstNonReferencedParent@CModelInstance@@QAEPAV1@PAV1@@Z 
?GetFirstSector@CEntity@@QAEPAVCBrushSector@@XZ 
?GetFirstSectorWithName@CEntity@@QAEPAVCBrushSector@@XZ 
?GetFirstValidPatchIndex@CEditModel@@QAEHAAJ@Z 
?GetFlag@CItemData@@QBE_JXZ 
?GetFlag@CParticle@@QAEKXZ 
?GetFlags@CEntity@@QBEKXZ 
?GetFlags@CModelData@@QAEKXZ 
?GetFlags@CTerrain@@QAEKXZ 
?GetFlags@CTextureData@@QBEKXZ 
?GetFlags@CTextureObject@@QBEKXZ 
?GetFog@CEntity@@UAEHJAAVCFogParameters@@@Z 
?GetFogName@CEntity@@UAEABVCTString@@J@Z 
?GetFogType@CBrushSector@@QAEJXZ 
?GetForce@CEntity@@UAEXJABV?$Vector@M$02@@AAVCForceStrength@@1@Z 
?GetForce@CParticlesEmitterSphere@@QAEABVCForce@@XZ 
?GetForce@CParticlesProcessForce@@QAEABVCForce@@I@Z 
?GetForceController@CEntity@@UAEPAV1@J@Z 
?GetForceCount@CParticlesProcessForce@@QAEIXZ 
?GetForceName@CEntity@@UAEABVCTString@@J@Z 
?GetForceType@CBrushSector@@QAEJXZ 
?GetFormat@CSoundLibrary@@QAE?AW4SoundFormat@1@XZ 
?GetFortuneIndex@CItemData@@QBEHXZ 
?GetFrame@CAnimData@@QAEJJJ@Z 
?GetFrame@CAnimObject@@QBEJXZ 
?GetFrame@CAnimObject@@QBEXAAJ0AAM@Z 
?GetFrameBBox@CModelObject@@QAE?AV?$AABBox@M$02@@J@Z 
?GetFrameNumber@CGfxLibrary@@QAEJXZ 
?GetFramesInCurrentAnim@CAnimObject@@QBEJXZ 
?GetFullPath@CUIManager@@QAE?AV?$basic_string@DU?$char_traits@D@std@@V?$allocator@D@2@@std@@V23@@Z 
?GetGIDFromChar@@YAKD@Z 
?GetGIDFromVirtKey@@YAKJ@Z 
?GetGMNoticeColor@CUIAutoHelp@@QAEKXZ 
?GetGPS@GameDataManager@@QAEPAVGPS@@XZ 
?GetGame@CUIManager@@QAEPAVCGame@@XZ 
?GetGameMode@CGameState@@QAEAAJXZ 
?GetGameTime@CNetworkLibrary@@QAEMXZ 
?GetGap@CUIArray@@QAEXAAH0@Z 
?GetGap@CUIList@@QAEHXZ 
?GetGapY@CUITextBox@@QAEHXZ 
?GetGapY@CUITextBoxEx@@QAEHXZ 
?GetGfxFileInfo_t@CImageInfo@@QAEJABVCTFileName@@@Z 
?GetGoalTagName@COrbitEffect@@QBEPBDXZ 
?GetGoalTagName@CParticlesProcessPointGoal@@QBEPBDXZ 
?GetGrade@CItemData@@QBEHXZ 
?GetGradient@CEntity@@UAEHJAAVCGradientParameters@@@Z 
?GetGradientName@CEntity@@UAEABVCTString@@J@Z 
?GetGuildSkillLevel@CUIGuild@@QAEHH@Z 
?GetHair@CharacterCreateNew@@QAEHXZ 
?GetHairBandFilePath@CGameState@@QAEXJHPAVCTString@@0@Z 
?GetHandle@cThreadWrapper@@QAEPAXXZ 
?GetHash@CTString@@QBEKXZ 
?GetHaze@CEntity@@UAEHJAAVCHazeParameters@@AAV?$Vector@M$02@@@Z 
?GetHazeName@CEntity@@UAEABVCTString@@J@Z 
?GetHazeType@CBrushSector@@QAEJXZ 
?GetHead@CListNode@@QAEAAVCListHead@@XZ 
?GetHeadingDirection@CMovableEntity@@QAEXMAAV?$Vector@M$02@@@Z 
?GetHealth@CLiveEntity@@QBEMXZ 
?GetHealth@CMobData@@QBEMXZ 
?GetHeight@CDrawPort@@QBEJXZ 
?GetHeight@CEditModel@@QAEJXZ 
?GetHeight@CFontData@@QBEJXZ 
?GetHeight@CModelObject@@QAEJXZ 
?GetHeight@CParticle@@QBEMXZ 
?GetHeight@CTextureData@@QBEJXZ 
?GetHeight@CTextureObject@@QBEJXZ 
?GetHeight@CUIBase@@QBEHXZ 
?GetHeightCount@CShockWaveEffect@@QAEIXZ 
?GetHeightSpeed@CParticlesProcessControl@@QAEMXZ 
?GetHeightTime@CShockWaveEffect@@QAEMI@Z 
?GetHeightValue@CShockWaveEffect@@QAEMI@Z 
?GetHide@CUIBase@@QAEHXZ 
?GetHighLightMode@CUIIcon@@QAE_NXZ 
?GetHighPrecisionTimer@CTimer@@QAE?AVCTimerValue@@XZ 
?GetHistoryText@CUICharacterInfo@@AAE?AVCTString@@W4eSTRING_TYPE@1@H@Z 
?GetHostName@CCommunicationInterface@@QAEXAAVCTString@@0@Z 
?GetHostName@CNetworkLibrary@@QAEXAAVCTString@@0@Z 
?GetHotSpot@CSoundEffect@@QAEMXZ 
?GetHp@Party@@QBEHH@Z 
?GetID@CDrawPort@@QAEKXZ 
?GetID@CModelInstance@@QAEABJXZ 
?GetID_t@CTStream@@UAE?AVCChunkID@@XZ 
?GetINDEX@CShell@@QAEJABVCTString@@@Z 
?GetIconTexCol@CItemData@@QBEHXZ 
?GetIconTexID@CItemData@@QBEHXZ 
?GetIconTexRow@CItemData@@QBEHXZ 
?GetId@cThreadWrapper@@QAEIXZ 
?GetIdleText@CUIProgressBar@@QBE?BVCTString@@XZ 
?GetIdleTextColor@CUIProgressBar@@QBE?BKXZ 
?GetImageCount@CUIImageArray@@QAEHXZ 
?GetImpactTime@CJobInfo@@QBEMHH@Z 
?GetImpactTime@CTransformInfo@@QBEMHH@Z 
?GetInValidEditBox@CUIEditBox@@QAEHXZ 
?GetInZoneData@CZoneInfo@@QAEPAU_tagObjInZone@1@H@Z 
?GetInZoneData@CZoneInfo@@QAEPAU_tagObjInZone@1@VCTString@@@Z 
?GetIndex@CMissionCase@@QAEHXZ 
?GetIndex@COptionData@@QAEHXZ 
?GetIndex@CShopData@@QBEHXZ 
?GetInkColor@CModelRenderPrefs@@QAEKXZ 
?GetInnerBasis@CShockWaveEffect@@QAEHXZ 
?GetInput@CInput@@QAEXH@Z 
?GetInputDevice@CInput@@QAEPAVCInputDevice@@ABVCTString@@@Z 
?GetInputDevice@CInput@@QAEPAVCInputDevice@@J@Z 
?GetInputDeviceID@@YAJK@Z 
?GetInputDeviceName@CInput@@QAE?AVCTString@@J@Z 
?GetInputDeviceShortName@CInput@@QAE?AVCTString@@J@Z 
?GetInputDevicesCount@CInput@@QAEJXZ 
?GetInstancePosition@CSkaEffect@@QAE?AV?$Vector@M$02@@AAV?$Matrix@M$02$02@@@Z 
?GetInstanceRotation@CSkaEffect@@QAE?AV?$Quaternion@M@@XZ 
?GetIntroDesc@CQuestDynamicData@@QAEAAVCTString@@XZ 
?GetIsPartyPlay@Party@@QAEHXZ 
?GetItemBM2FileName@CItemData@@QAEPBDXZ 
?GetItemBM3FileName@CItemData@@QAEPBDXZ 
?GetItemBMFileName@CItemData@@QAEPBDXZ 
?GetItemBelong@CItemData@@QAEHXZ 
?GetItemCollection@GameDataManager@@QAEPAVCItemCollection@@XZ 
?GetItemCompose@GameDataManager@@QAEPAVCItemCompose@@XZ 
?GetItemCount@CUIList@@QAEHXZ 
?GetItemData@CNetworkLibrary@@QAEPAVCItemData@@H@Z 
?GetItemDesc@CNetworkLibrary@@QAEPBDH@Z 
?GetItemEffectGroup@CItemEffect@@QAEPAU_ITEMEFFECTGROUP@1@XZ 
?GetItemIndex@CItemData@@QBEHXZ 
?GetItemIndex@TitleStaticData@@QBEHXZ 
?GetItemInfo@CInvenData@@QAEPAVCItems@@HH@Z 
?GetItemName@CNetworkLibrary@@QAEPBDH@Z 
?GetItemNameColor@CUIManager@@QAEKH@Z 
?GetItemShowNum@CUIList@@QAEHXZ 
?GetItemSmcFileName@CItemData@@QAEPBDXZ 
?GetItemStart@CUIList@@QAEXAAH0@Z 
?GetItemTEX2FileName@CItemData@@QAEPBDXZ 
?GetItemTEX2NormalFileName@CItemData@@QAEPBDXZ 
?GetItemTEX3FileName@CItemData@@QAEPBDXZ 
?GetItemTEX3NormalFileName@CItemData@@QAEPBDXZ 
?GetItemTEXFileName@CItemData@@QAEPBDXZ 
?GetItemTEXNormalFileName@CItemData@@QAEPBDXZ 
?GetItemTotalHeight@CUIList@@QAEHXZ 
?GetItemsPerPage@CUIScrollBar@@QBEHXZ 
?GetJewelComposNas@CNetworkLibrary@@QAEHH_N@Z 
?GetJewelGradeInfo@CNetworkLibrary@@QAEHHAAV?$vector@UJewelInfo@@V?$allocator@UJewelInfo@@@std@@@std@@@Z 
?GetJobA@CItemData@@QBEHXZ 
?GetJumpingLevel@CItemData@@QBEHXZ 
?GetKillMonIndex@CUIAutoHelp@@QBEHXZ 
?GetLastLineCnt@CUIMultiLineText@@QBE?BHXZ 
?GetLastLineColor@CUIMultiLineText@@QBE?BKXZ 
?GetLastLinePosX@CUIMultiLineText@@QBE?BHXZ 
?GetLastLinePosY@CUIMultiLineText@@QBE?BHXZ 
?GetLastMip@CBrush3D@@QAEPAVCBrushMip@@XZ 
?GetLastPositions@CEntity@@QAEPAVCLastPositions@@J@Z 
?GetLastProcessedTime@CEffect@@QAEMXZ 
?GetLayer@Party@@QBECH@Z 
?GetLeft@CUICheckButton@@QAEHXZ 
?GetLeftCount@CParticlesEmitter@@QAEKXZ 
?GetLeftTime@CEffect@@QAEMXZ 
?GetLensFlares@CWorldRenderPrefs@@QAE?AW4LensFlaresType@1@XZ 
?GetLerpFactor2@CTimer@@QBEMXZ 
?GetLerpFactor@CTimer@@QBEMXZ 
?GetLerpRatio@CParticlesProcessPointGoal@@QAEMXZ 
?GetLerpSpeed@CParticlesProcessPointGoal@@QAEMXZ 
?GetLerpedCurrentTick@CTimer@@QBE?BMXZ 
?GetLerpedEntityTime@CMovableEntity@@QAEMXZ 
?GetLerpedPlacement@CEntity@@UBE?AVCPlacement3D@@XZ 
?GetLerpedPlacement@CMovableEntity@@UBE?AVCPlacement3D@@XZ 
?GetLevel@CItemData@@QBEHXZ 
?GetLevel@CMobData@@QBEHXZ 
?GetLevel@Party@@QBEHH@Z 
?GetLifeTime@CEffect@@QAEMXZ 
?GetLifeTime@CParticle@@QBEMXZ 
?GetLightAmbient@CLightSource@@QBEKXZ 
?GetLightAmbient@CLightSource@@QBEXAAE00@Z 
?GetLightColor@CLightEffect@@QAEKXZ 
?GetLightColor@CLightSource@@QBEKXZ 
?GetLightColor@CLightSource@@QBEXAAE00@Z 
?GetLightColorAndAmbient@CLightSource@@QBEXAAE00000@Z 
?GetLightColorAndAmbient@CLightSource@@QBEXAAK0@Z 
?GetLightSource@CEntity@@QAEPAVCLightSource@@XZ 
?GetLightStrength@CBrushShadowLayer@@QAEMJJMM@Z 
?GetLineCount@CUITextBox@@QAEHXZ 
?GetLineHeight@CUIListBox@@QBEHXZ 
?GetLineHeight@CUITextBox@@QAEHXZ 
?GetLinePerPage@CUIListBox@@QBEHXZ 
?GetLineSpacing@CFontData@@QBEJXZ 
?GetLineString@CUITextBox@@QAE?AVCTString@@H@Z 
?GetLineText@CUITextBoxEx@@QAEPAVCUIBase@@H@Z 
?GetLine_t@CTStream@@UAEXAAVCTString@@D@Z 
?GetLine_t@CTStream@@UAEXPADJD@Z 
?GetListCompleteCount@Quest@@QAEJXZ 
?GetListCompleteIndex@Quest@@QAEJJ@Z 
?GetListCompleteTitle@Quest@@QAE?AVCTString@@J@Z 
?GetListItem@CUIList@@QAEPAVCUIBase@@H@Z 
?GetListItemTemplate@CUIList@@QAEPAVCUIListItem@@XZ 
?GetListProceedCount@Quest@@QAEJXZ 
?GetListProceedIndex@Quest@@QAEJJ@Z 
?GetListProceedTitle@Quest@@QAE?AVCTString@@J@Z 
?GetListRaidCount@Quest@@QAEJXZ 
?GetListRaidIndex@Quest@@QAEJJ@Z 
?GetListRaidTitle@Quest@@QAE?AVCTString@@J@Z 
?GetLoadingInfo@CZoneInfo@@QAEXHAAMAAVCTString@@1@Z 
?GetLoadingState@CLoadingImage@@QAE?AW4ePROGRESS_STATE@1@XZ 
?GetLoadingZone@CNetworkLibrary@@QAEJXZ 
?GetLocalAddress_t@CCommunicationInterface@@QAEXAAK0@Z 
?GetLocalPause@CNetworkLibrary@@QAEHXZ 
?GetLocalPlayerCount@CNetworkLibrary@@QAEJXZ 
?GetLocalPlayerEntity@CNetworkLibrary@@QAEPAVCEntity@@PAVCPlayerSource@@@Z 
?GetLogicalAddress@@YAHPAXPADKAAK2@Z 
?GetLoginData@GameDataManager@@QAEPAVLoginNew@@XZ 
?GetLoginModel@CLoginJobInfo@@QAEPAVCEntity@@W4eJob@@@Z 
?GetLogoType@LoginNew@@QAEHXZ 
?GetLoopCount@CAnimEffect@@QAEJXZ 
?GetLoopState@CUISpriteAni@@QAEHXZ 
?GetLvGuidString@CUIAutoHelp@@QAEXH@Z 
?GetMP@CMobData@@QBEHXZ 
?GetMagicAttack@CItemData@@QAEHXZ 
?GetMagicDefence@CItemData@@QBEHXZ 
?GetMagicspeed@CPlayerEntity@@UAECXZ 
?GetMakeItemData@CNetworkLibrary@@QAEAAVCMakeItemData@@H@Z 
?GetMakePotionCount@CItemData@@QBEHXZ 
?GetMandateName@Party@@QAE?AVCTString@@XZ 
?GetManualMipBrushingFactor@CWorldRenderPrefs@@QAEMXZ 
?GetManualMipLevel@CModelObject@@QAEJXZ 
?GetMass@CParticle@@QBEMXZ 
?GetMassCount@CParticlesProcessDynamicState@@QAEIXZ 
?GetMassTime@CParticlesProcessDynamicState@@QAEMI@Z 
?GetMassValue@CParticlesProcessDynamicState@@QAEMI@Z 
?GetMaxChar@CUIEditBox@@QAEHXZ 
?GetMaxFallOff@CLightEffect@@QAEMXZ 
?GetMaxFloorRadius@CCollisionInfo@@QAEMXZ 
?GetMaxFrame@CUISpriteAni@@QAEHXZ 
?GetMaxI@CUIManager@@QBEJXZ 
?GetMaxJ@CUIManager@@QBEJXZ 
?GetMaxLifeTime@CParticlePrototype@@QAEMXZ 
?GetMaxLine@CUIComboBox@@QAEHXZ 
?GetMaxParticleLifeTime@CParticleGroup@@QAEMXZ 
?GetMaxPlayers@CEntity@@SAJXZ 
?GetMaxPos@CUISlideBar@@QBEHXZ 
?GetMaxTessellationLevel@CEntity@@UAEMXZ 
?GetMaxTimeLength@CTag@@QAEMXZ 
?GetMdlAnimLength@CMdlEffect@@QAEMXZ 
?GetMdlFileName@CMdlEffect@@QAEABVCTFileName@@XZ 
?GetMdlTexFileName@CMdlEffect@@QAEABVCTFileName@@XZ 
?GetMemberCount@Party@@QBEHXZ 
?GetMemberIndex@Party@@QBEJH@Z 
?GetMemberName@Party@@QBE?AVCTString@@H@Z 
?GetMemberTarget@Party@@QAEKH@Z 
?GetMemberTargetType@Party@@QAECH@Z 
?GetMemberZone@Party@@QBEJH@Z 
?GetMeshCnt@CItemData@@QBEHXZ 
?GetMeshLOD@CSkaTag@@QAEPAUMeshLOD@@XZ 
?GetMeshName@CJobInfo@@QAE?AVCTFileName@@HH@Z 
?GetMessageBox@CUIManager@@QAEPAVCUIMessageBox@@H@Z 
?GetMessageBoxL@CUIManager@@QAEPAVCUIMessageBoxL@@H@Z 
?GetMinI@CUIManager@@QBEJXZ 
?GetMinJ@CUIManager@@QBEJXZ 
?GetMinMax@CUISpinControl@@QAEXAAHAA_J@Z 
?GetMinPos@CUISlideBar@@QBEHXZ 
?GetMinimumRenderRange@CWorldRenderPrefs@@QAEMXZ 
?GetMipCt@CEditModel@@QAEJXZ 
?GetMipDistance@CBrushMip@@QAEMXZ 
?GetMipIndex@CBrushMip@@QAEJXZ 
?GetMipModel@CModelObject@@QAEJM@Z 
?GetMipmapOfSize@@YAJJAAPAKAAJ1@Z 
?GetMipmapOffset@@YAJJJJ@Z 
?GetMirror@CEntity@@UAEHJAAVCMirrorParameters@@@Z 
?GetMirrorName@CEntity@@UAEABVCTString@@J@Z 
?GetMissileShotEffect@CItemData@@QAEPBDXZ 
?GetMissileSpeed@CMobData@@QBEMXZ 
?GetMissileType@CMobData@@QBEHXZ 
?GetMobIndex@CMobData@@QBEHXZ 
?GetMobSmcFileName@CMobData@@QAEPBDXZ 
?GetMobTarget@CEntity@@QAEPAVCMobTarget@@XZ 
?GetMode@CUIImageSplit@@QAEHXZ 
?GetModel@CEntity@@QAEABVCTFileName@@XZ 
?GetModelColor@CEntity@@QBEKXZ 
?GetModelColor@CModelInstance@@QAEKXZ 
?GetModelDataForComponent@CEntity@@QAEPAVCModelData@@J@Z 
?GetModelEntity@CGameState@@QAEPAVCEntity@@HH@Z 
?GetModelForRendering@CEntity@@UAEPAVCModelObject@@XZ 
?GetModelInfo@CModelObject@@QAEXAAVCModelInfo@@@Z 
?GetModelInstance@CEntity@@QAEPAVCModelInstance@@XZ 
?GetModelInstance@CSkaEffect@@QAEPAVCModelInstance@@XZ 
?GetModelInstanceForComponent@CEntity@@QAEPAVCModelInstance@@J@Z 
?GetModelInstanceForRendering@CEntity@@UAEPAVCModelInstance@@XZ 
?GetModelMainTexture@CEntity@@QAEABVCTFileName@@XZ 
?GetModelObject@CEntity@@QAEPAVCModelObject@@XZ 
?GetModelVertices@CModelInstance@@QAEXAAV?$CStaticStackArray@V?$Vector@M$02@@@@AAV?$Matrix@M$02$02@@AAV?$Vector@M$02@@MM@Z 
?GetModelVertices@CModelObject@@QAEXAAV?$CStaticStackArray@V?$Vector@M$02@@@@AAV?$Matrix@M$02$02@@AAV?$Vector@M$02@@MM@Z 
?GetModelVerticesAbsolute@CEntity@@QAEXAAV?$CStaticStackArray@V?$Vector@M$02@@@@MM@Z 
?GetMouseCursor@CUIManager@@QAEPAVCUIMouseCursor@@XZ 
?GetMouseEventImage@CUIArray@@QAEXAAU_UIRect@@AAUUIRectUV@@H@Z 
?GetMouseOver@CUIButton@@QBEHXZ 
?GetMouseOverItem@CUIArray@@QAEHXZ 
?GetMoveType@CParticlesAbsorption@@QAE?AW4PARTICLE_MOVE_TYPE@@XZ 
?GetMp@Party@@QBEHH@Z 
?GetMsgBoxPtr@MsgBoxMgr@@QAEPAVCUIMsgBox@@I@Z 
?GetMyApetInfo@ObjInfo@@QAEPAVCWildPetTarget@@XZ 
?GetMyCash@CUICashShopEX@@QAEKXZ 
?GetMyGroupNum@Party@@QAEHXZ 
?GetMyGroupPos@Party@@QAEHXZ 
?GetMyPetInfo@ObjInfo@@QAEPAVCPetTargetInfom@@XZ 
?GetMyPlayerIndex@CPlayerEntity@@QAEJXZ 
?GetMySlaveInfo@ObjInfo@@QAEPAVCSlaveTargetInfom@@H@Z 
?GetNPC@CAffinityData@@QBEPBU_NPCInfo@1@H@Z 
?GetNPCFlag@CAffinityData@@QBE?BHH@Z 
?GetNPCIndex@ExpressSystem@@QAEGXZ 
?GetName@CEffect@@QBEABV?$basic_string@DU?$char_traits@D@std@@V?$allocator@D@2@@std@@XZ 
?GetName@CEffectGroup@@QBEABV?$basic_string@DU?$char_traits@D@std@@V?$allocator@D@2@@std@@XZ 
?GetName@CEntity@@UBEABVCTString@@XZ 
?GetName@CItemData@@QAEPBDXZ 
?GetName@CJobInfo@@QAE?AVCTString@@HH@Z 
?GetName@CMissionCase@@QAEPBDXZ 
?GetName@CMobData@@QAEPBDXZ 
?GetName@CModelInstance@@QAE?AVCTString@@XZ 
?GetName@CModelObject@@QAE?AVCTFileName@@XZ 
?GetName@COptionData@@QBEPBDXZ 
?GetName@CParticleGroup@@QAEABV?$basic_string@DU?$char_traits@D@std@@V?$allocator@D@2@@std@@XZ 
?GetName@CPetInfo@@QBEABVCTString@@HH@Z 
?GetName@CPlayerCharacter@@QBEABVCTString@@XZ 
?GetName@CPlayerEntity@@UBEABVCTString@@XZ 
?GetName@CQuestDynamicData@@QAEPBDXZ 
?GetName@CSerial@@QAEABVCTFileName@@XZ 
?GetName@CSlaveInfo@@QBEABVCTString@@H@Z 
?GetName@CTFileName@@QAEABV1@XZ 
?GetName@CTag@@QAEAAV?$basic_string@DU?$char_traits@D@std@@V?$allocator@D@2@@std@@XZ 
?GetName@CTextureObject@@QAEABVCTFileName@@XZ 
?GetName@CTransformInfo@@QAE?AVCTString@@H@Z 
?GetName@CWorld@@QAEABVCTString@@XZ 
?GetName@CharacterCreateNew@@QAEPBDXZ 
?GetNameForPrinting@CPlayerCharacter@@QBE?BVCTString@@XZ 
?GetNasColor@CUIManager@@QAEKVCTString@@@Z 
?GetNasColor@CUIManager@@QAEK_J@Z 
?GetNearPolygonsInSphere@CEntity@@QAEXMAAV?$CDynamicContainer@VCBrushPolygon@@@@@Z 
?GetNearestPolygon@CEntity@@QAEPAVCBrushPolygon@@AAV?$Vector@M$02@@AAV?$Plane@M$02@@AAM@Z 
?GetNeedDesc@CQuestDynamicData@@QAEAAVCTString@@J@Z 
?GetNeedItemCount@CItemData@@QBEHH@Z 
?GetNeedItemCount@CQuestDynamicData@@QAEJJ@Z 
?GetNeedItemIndex@CItemData@@QBEHH@Z 
?GetNeedItemIndex@CQuestDynamicData@@QAE?BJJ@Z 
?GetNeedJob@CQuestDynamicData@@QAE?BJXZ 
?GetNeedMPReductionRate@CUIManager@@QAEHXZ 
?GetNeedMaxLevel@CQuestDynamicData@@QAE?BJXZ 
?GetNeedMinLevel@CQuestDynamicData@@QAE?BJXZ 
?GetNeedSSkillCount2@CItemData@@QBEHXZ 
?GetNeedSSkillCount@CItemData@@QBEHXZ 
?GetNeedSSkillIndex2@CItemData@@QBEHXZ 
?GetNeedSSkillIndex@CItemData@@QBEHXZ 
?GetNetworkID@CEntity@@QAEJXZ 
?GetNetworkType@CEntity@@UBECXZ 
?GetNewType@CUIButton@@QAEHXZ 
?GetNews@GameDataManager@@QAEPAVCNews@@XZ 
?GetNext@CBrushMip@@QAEPAV1@XZ 
?GetNextPage@ExpressSystem@@QAEEXZ 
?GetNextStage@StageMgr@@QAE?AW4eSTAGE@@XZ 
?GetNextValidPatchIndex@CEditModel@@QAEXAAJ@Z 
?GetNickEffectGroup@CItemEffect@@QAEPAU_ITEMEFFECTGROUP@1@XZ 
?GetNoOfFineMips@CTextureData@@QBEKXZ 
?GetNoOfMips@CTextureData@@QBEKXZ 
?GetNormalBoxName@CMobData@@QAEPBDXZ 
?GetNotice@GameDataManager@@QAEPAVNotice@@XZ 
?GetNoticeBlink@Notice@@QAE_NW4eNoticeType@1@@Z 
?GetNoticeFlag@ExpressSystem@@QAEEXZ 
?GetNoticeList@Notice@@QAEPAV?$vector@UsNoticeInfo@Notice@@V?$allocator@UsNoticeInfo@Notice@@@std@@@std@@W4eNoticeType@1@@Z 
?GetNthPlayerEntity@CNetworkLibrary@@QAEPAVCPlayerEntity@@J@Z 
?GetNthPlayerEntityWithName@CNetworkLibrary@@QAEPAVCPlayerEntity@@ABVCTString@@J@Z 
?GetNum0@CItemData@@QBEHXZ 
?GetNum1@CItemData@@QBEHXZ 
?GetNum2@CItemData@@QBEHXZ 
?GetNum3@CItemData@@QBEHXZ 
?GetNumberOfEntitiesWithName@CNetworkLibrary@@QAEJABVCTString@@@Z 
?GetNumberOfPlayerEntitiesWithName@CNetworkLibrary@@QAEJABVCTString@@@Z 
?GetObjectA@ActorMgr@@QAEPAUObjectBase@@W4eOBJ_TYPE@@I@Z 
?GetObjectByCIndex@ActorMgr@@QAEPAUObjectBase@@W4eOBJ_TYPE@@I@Z 
?GetObjectByDistance@ActorMgr@@QAEPAUObjectBase@@V?$Vector@M$02@@@Z 
?GetObjectByEntity@ActorMgr@@QAEPAUObjectBase@@PAVCEntity@@@Z 
?GetObjectByNPCIdx@ActorMgr@@QAEPAUObjectBase@@I@Z 
?GetObjectByName@ActorMgr@@QAEPAUObjectBase@@PBDW4eOBJ_TYPE@@@Z 
?GetObserversCount@CServer@@QAEJXZ 
?GetOffsetFromStart@CTimer@@QAE?AVCTimerValue@@XZ 
?GetOffsetPos@CModelInstance@@QAE?AV?$Vector@M$02@@XZ 
?GetOffsetPos@CSplinePathEffect@@QAEABV?$Vector@M$02@@XZ 
?GetOffsetPos@CTag@@QAEAAV?$Vector@M$02@@XZ 
?GetOffsetRot@CModelInstance@@QAE?AV?$Vector@M$02@@XZ 
?GetOffsetRot@CTag@@QAEAAV?$Quaternion@M@@XZ 
?GetOnlyIntegerMode@CUIEditBox@@QAEHXZ 
?GetOpacity@CEntity@@UAEMXZ 
?GetOptionIndex@TitleStaticData@@QBEPBHXZ 
?GetOptionLevel@TitleStaticData@@QBEPBEXZ 
?GetOptionOriginLevel@CItemData@@QAEHH@Z 
?GetOptionOriginType@CItemData@@QAEHH@Z 
?GetOptionPrizeData@CQuestDynamicData@@QAEJJ@Z 
?GetOptionPrizeDesc@CQuestDynamicData@@QAEAAVCTString@@J@Z 
?GetOptionPrizeIndex@CQuestDynamicData@@QAEJJ@Z 
?GetOptionPrizePlus@CQuestDynamicData@@QAEJJ@Z 
?GetOptionPrizeType@CQuestDynamicData@@QAEJJ@Z 
?GetOptionSkillLevel@CItemData@@QAEHH@Z 
?GetOptionSkillType@CItemData@@QAEHH@Z 
?GetOptionType@CItemData@@QBEHXZ 
?GetOrbit@COrbitEffect@@QAEPAUsOrbitInfo@1@J@Z 
?GetOrbitCount@COrbitEffect@@QAEJXZ 
?GetOrigPos@CUIBase@@QAEXAAH0@Z 
?GetOrigX@CUIBase@@QAEHXZ 
?GetOrigY@CUIBase@@QAEHXZ 
?GetOriginString@CUITextEx@@QAEPBDXZ 
?GetOverDraw@CMdlEffect@@QAEHXZ 
?GetOverridenState@CDLLEntityClass@@QAEJJ@Z 
?GetOwner@CEffect@@QAEPAVCEntity@@XZ 
?GetOwner@CTagManager@@QAEPAVCEntity@@XZ 
?GetOwnerIndex@CMobData@@QAEJXZ 
?GetPaperColor@CModelRenderPrefs@@QAEKXZ 
?GetParent@CEntity@@QAEPAV1@XZ 
?GetParent@CModelInstance@@QAEPAV1@PAV1@@Z 
?GetParticleGroup@CParticleEffect@@QAEABV?$basic_string@DU?$char_traits@D@std@@V?$allocator@D@2@@std@@XZ 
?GetParticlePrototype@CParticlesEmitter@@QAEAAVCParticlePrototype@@XZ 
?GetParticleType@CParticlesEmitter@@QAE?AW4PARTICLE_RENDER_TYPE@@XZ 
?GetPartyInfo@GameDataManager@@QAEPAVParty@@XZ 
?GetPartyType@Party@@QAECXZ 
?GetPassWord@CUIEditBox@@QAEXAAH0@Z 
?GetPassedTime@CAnimObject@@QBEMXZ 
?GetPassword@LoginNew@@QAE?AVCTString@@XZ 
?GetPatchesMask@CModelObject@@QAEKXZ 
?GetPathCount@CUIManager@@QAEHXZ 
?GetPetAISet0@CItemData@@QBEHXZ 
?GetPetAISet1@CItemData@@QBEHXZ 
?GetPetAISet2@CItemData@@QBEHXZ 
?GetPetAISet3@CItemData@@QBEHXZ 
?GetPetCount@PetStash@@QAEHXZ 
?GetPetDesc@CUIPetInfo@@QAEXXZ 
?GetPetSkillDelay@MyInfoSkill@@QAE_NHH@Z 
?GetPetSkillLevel@MyInfoSkill@@QAEHHH@Z 
?GetPetStashEffectGroup@CItemEffect@@QAEPAU_ITEMEFFECTGROUP@1@XZ 
?GetPetTarget@CEntity@@QAEPAVCPetTarget@@XZ 
?GetPetType@CItemData@@QBEHXZ 
?GetPhysicalAttack@CItemData@@QAEHXZ 
?GetPhysicalDefence@CItemData@@QBEHXZ 
?GetPhysicsFlags@CEntity@@QBEKXZ 
?GetPitch@CSoundEffect@@QAEMXZ 
?GetPitchDirection@CMovableEntity@@QAEXMAAV?$Vector@M$02@@@Z 
?GetPixHeight@CTextureData@@QBEJXZ 
?GetPixWidth@CTextureData@@QBEJXZ 
?GetPkState@CCharacterTarget@@QAEHXZ 
?GetPlacement@CEntity@@QBEABVCPlacement3D@@XZ 
?GetPlayCount@CInvenData@@QAEHXZ 
?GetPlayerAttackCursor@UtilHelp@@QAE?AW4UIMCType@@JH@Z 
?GetPlayerEntity@CEntity@@SAPAV1@J@Z 
?GetPlayerEntityByName@CNetworkLibrary@@QAEPAVCEntity@@ABVCTString@@@Z 
?GetPlayerModelInstance@CPlayerEntity@@UAEPAVCModelInstance@@PAVCEntity@@@Z 
?GetPlayerName@CPlayerEntity@@QAE?AVCTString@@XZ 
?GetPlayerSource@CNetworkLibrary@@QAEPAVCPlayerSource@@PAVCEntity@@@Z 
?GetPlayersCount@CServer@@QAEJXZ 
?GetPlayersCount@CSessionState@@QAEJXZ 
?GetPlayersCountForClient@CServer@@QAEJJ@Z 
?GetPlusEffectGroup@CItemEffect@@QAEPAU_ITEMEFFECTGROUP@1@H@Z 
?GetPointGoal@CParticlesProcessPointGoal@@QAEABV?$Vector@M$02@@XZ 
?GetPolygonsFillType@CWorldRenderPrefs@@QAE?AW4FillType@1@XZ 
?GetPolygonsInkColor@CWorldRenderPrefs@@QAEKXZ 
?GetPos@CUIBase@@QAEXAAH0@Z 
?GetPos@cWeb@@QAEXAAH0@Z 
?GetPosCount@CEffectControl@@QAEIXZ 
?GetPosSpline@CEffectControl@@QAEAAV?$CSampleSpline@V?$Vector@M$02@@V?$CCubicSplineInterpolate@V?$Vector@M$02@@@@@@XZ 
?GetPosTag@CMdlEffect@@QAE?AV?$CRefCountPtr@VCTag@@@@XZ 
?GetPosTag@CSkaEffect@@QAE?AV?$CRefCountPtr@VCTag@@@@XZ 
?GetPosTime@CEffectControl@@QAEMI@Z 
?GetPosValue@CEffectControl@@QAE?AV?$Vector@M$02@@I@Z 
?GetPosX@CUIBase@@QBEHXZ 
?GetPosX@Party@@QBEMH@Z 
?GetPosY@CUIBase@@QBEHXZ 
?GetPosZ@Party@@QBEMH@Z 
?GetPos_t@CTFileStream@@UAEJXZ 
?GetPos_t@CTMemoryStream@@UAEJXZ 
?GetPosition@CLastPositions@@QAEABV?$Vector@M$02@@J@Z 
?GetPosition@CParticle@@QBEABV?$Vector@M$02@@XZ 
?GetPosition@CParticlesAbsorption@@QAEABV?$Vector@M$02@@XZ 
?GetPosition@CParticlesCommonProcess@@QAEABV?$Vector@M$02@@XZ 
?GetPosition@CParticlesEmitter@@QAEABV?$Vector@M$02@@XZ 
?GetPositionType@CMdlEffect@@QAE?AW4EFFECT_OF_TAG_TYPE@@XZ 
?GetPositionType@COrbitEffect@@QAE?AW4EFFECT_OF_TAG_TYPE@@XZ 
?GetPositionType@CShockWaveEffect@@QAE?AW4EFFECT_OF_TAG_TYPE@@XZ 
?GetPositionType@CSkaEffect@@QAE?AW4EFFECT_OF_TAG_TYPE@@XZ 
?GetPositionType@CSplinePathEffect@@QAE?AW4EFFECT_OF_TAG_TYPE@@XZ 
?GetPositionType@CTerrainEffect@@QAE?AW4EFFECT_OF_TAG_TYPE@@XZ 
?GetPreCreate@CUIList@@QAE_NXZ 
?GetPreQuestIndex@CQuestDynamicData@@QAE?BJXZ 
?GetPremiumBenefit@ExpressSystem@@QAE_NXZ 
?GetPremiumChar@GameDataManager@@QAEPAVCPremiumChar@@XZ 
?GetPrev@CBrushMip@@QAEPAV1@XZ 
?GetPreviousValidPatchIndex@CEditModel@@QAEXAAJ@Z 
?GetPrice@CItemData@@QBEHXZ 
?GetPrizeData@CQuestDynamicData@@QAE_JJ@Z 
?GetPrizeDesc@CQuestDynamicData@@QAEAAVCTString@@J@Z 
?GetPrizeIndex@CQuestDynamicData@@QAEJJ@Z 
?GetPrizeNPCIndex@CQuestDynamicData@@QAE?BJXZ 
?GetPrizeNPCZoneIndex@CQuestDynamicData@@QAE?BJXZ 
?GetPrizeType@CQuestDynamicData@@QAEJJ@Z 
?GetProceedQuestCount@Quest@@QAEJXZ 
?GetProceedQuestIndex@Quest@@QAEJJ@Z 
?GetProcessSkill@CItemData@@QBEHXZ 
?GetProcessSubType@CItemData@@QBEHXZ 
?GetProcessType@CItemData@@QBEHXZ 
?GetProductSubType@CItemData@@QBEHXZ 
?GetProductType@CItemData@@QBEHXZ 
?GetProgressPos@CUIProgressBar@@QBE?BHXZ 
?GetProgressRange@CUIProgressBar@@QBEXAAH0@Z 
?GetProgressValue@CParticle@@QBEMXZ 
?GetProjection@CPlayerEntity@@UAEXAAVCAnyProjection3D@@@Z 
?GetProxyPetIndex@PetStash@@QAEHXZ 
?GetQuest@GameDataManager@@QAEPAVQuest@@XZ 
?GetQuestAllow@CQuestSystem@@QAE?AW4eQuestAllowType@1@J@Z 
?GetQuestCategory@CQuestDynamicData@@QAEJXZ 
?GetQuestIndex@CQuestDynamicData@@QAEJXZ 
?GetQuestMaxLevel@CQuestSystem@@QAE?BHH@Z 
?GetQuestMinLevel@CQuestSystem@@QAE?BHH@Z 
?GetQuestName@CQuestSystem@@QAEPBDH@Z 
?GetQuestNoticeElapsedTime@Quest@@QAENXZ 
?GetQuestNum@CItemData@@QBEHXZ 
?GetQuestPartyScale@CQuestDynamicData@@QAE?BJXZ 
?GetQuestType1@CQuestDynamicData@@QAE?BJXZ 
?GetQuestType2@CQuestDynamicData@@QAE?BJXZ 
?GetQuickSlotID@CUIIcon@@QAEHXZ 
?GetQuickSlotWearType@CUIIcon@@QAEHXZ 
?GetRSBackground@CUIScrollBar@@QAEPAVCUIRectSurface@@XZ 
?GetRSButton@CUIScrollBar@@QAEPAVCUIRectSurface@@H@Z 
?GetRSThumb@CUIScrollBar@@QAEPAVCUIRectSurface@@XZ 
?GetRadiusCount@CShockWaveEffect@@QAEIXZ 
?GetRadiusTime@CShockWaveEffect@@QAEMI@Z 
?GetRadiusValue@CShockWaveEffect@@QAEMI@Z 
?GetRaidDungeon@CZoneInfo@@QAEHH@Z 
?GetRaidEvent@CEntity@@UBEJXZ 
?GetRaidObject@CEntity@@UBEHXZ 
?GetRaidReminTime@Quest@@QAENXZ 
?GetRange@CUISlideBar@@QBEHXZ 
?GetRealTimeFactor@CNetworkLibrary@@QAEMXZ 
?GetRealTimeTick@CTimer@@QBEMXZ 
?GetRearrangeMark@CUIBase@@QAEHXZ 
?GetRecentGroup@CSessionState@@QAEHXZ 
?GetRecentServer@CSessionState@@QAEHXZ 
?GetRecoverHP@CItemData@@QBEHXZ 
?GetRecoverMP@CItemData@@QBEHXZ 
?GetRecoverSec@CItemData@@QBEHXZ 
?GetRectSurface@CUIArray@@QAEPAVCUIRectSurface@@XZ 
?GetRectSurface@CUIButton@@QAEAAVCUIRectSurface@@W4UIBtnState@@@Z 
?GetRectSurface@CUIEditBox@@QAEPAVCUIRectSurface@@XZ 
?GetRectSurface@CUIImageFont@@QAEPAVCUIRectSurface@@XZ 
?GetRectSurface@CUIList@@QAEPAVCUIRectSurface@@XZ 
?GetRectSurface@CUITextBox@@QAEPAVCUIRectSurface@@XZ 
?GetRectSurfaceBack@CUIComboBox@@QAEPAVCUIRectSurface@@XZ 
?GetRectSurfaceButton@CUIComboBox@@QAEPAVCUIRectSurface@@XZ 
?GetRectSurfaceDropList@CUIComboBox@@QAEPAVCUIRectSurface@@XZ 
?GetReferenceHeadingDirection@CMovableEntity@@QAEXABV?$Vector@M$02@@MAAV2@@Z 
?GetRefineType@CItemData@@QBEHXZ 
?GetRefreshHz@CGfxLibrary@@QAEJXZ 
?GetRegisteredMap@CEffectGroupManager@@QAEAAV?$map@V?$basic_string@DU?$char_traits@D@std@@V?$allocator@D@2@@std@@PAVCEffectGroup@@U?$less@V?$basic_string@DU?$char_traits@D@std@@V?$allocator@D@2@@std@@@2@V?$allocator@U?$pair@$$CBV?$basic_string@DU?$char_traits@D@std@@V?$allocator@D@2@@std@@PAVCEffectGroup@@@std@@@2@@std@@XZ 
?GetRegisteredMap@CEffectManager@@QAEAAV?$map@V?$basic_string@DU?$char_traits@D@std@@V?$allocator@D@2@@std@@PAVCEffect@@U?$less@V?$basic_string@DU?$char_traits@D@std@@V?$allocator@D@2@@std@@@2@V?$allocator@U?$pair@$$CBV?$basic_string@DU?$char_traits@D@std@@V?$allocator@D@2@@std@@PAVCEffect@@@std@@@2@@std@@XZ 
?GetRegisteredMap@CParticleGroupManager@@QAEAAV?$map@V?$basic_string@DU?$char_traits@D@std@@V?$allocator@D@2@@std@@PAVCParticleGroup@@U?$less@V?$basic_string@DU?$char_traits@D@std@@V?$allocator@D@2@@std@@@2@V?$allocator@U?$pair@$$CBV?$basic_string@DU?$char_traits@D@std@@V?$allocator@D@2@@std@@PAVCParticleGroup@@@std@@@2@@std@@XZ 
?GetRelativeHeading@CEntity@@QAEMABV?$Vector@M$02@@@Z 
?GetRelativeHeading@CMovableEntity@@QAEMABV?$Vector@M$02@@@Z 
?GetRelativePitch@CMovableEntity@@QAEMABV?$Vector@M$02@@@Z 
?GetRelicEffectGroup@CItemEffect@@QAEPAU_ITEMEFFECTGROUP@1@XZ 
?GetRemainSealed@CUIPetInfo@@QAEJH@Z 
?GetRemoteAddress_t@CCommunicationInterface@@QAEXAAK0@Z 
?GetRenderCount@CInvenData@@QAEIXZ 
?GetRenderHeight@CUIMultiLineText@@QBE?BHXZ 
?GetRenderIdx@CUIImageArray@@QAEHXZ 
?GetRenderIdx@CUISpriteAni@@QAEHXZ 
?GetRenderRegion@CUIImageBox@@QAE?AU_UIRect@@XZ 
?GetRenderTarget@CUIManager@@QAEPAVCRenderTexture@@XZ 
?GetRenderType@CEntity@@QAE?AW4RenderType@1@XZ 
?GetRenderType@CModelRenderPrefs@@QAEKXZ 
?GetRenderType@CParticleGroup@@QAEHXZ 
?GetRenderWidth@CUIMultiLineText@@QBE?BHXZ 
?GetRenderingTime@CTextureEffectGlobal@@QAENXZ 
?GetRepeatCount@CEffect@@QAEJXZ 
?GetReservedEG@CAnimEffect@@QAEPAVCReservedEffectGroup@1@J@Z 
?GetReservedEGCount@CAnimEffect@@QAEJXZ 
?GetRestartGameValue@CGameState@@QAEHXZ 
?GetRestoreCount@Quest@@QAEJXZ 
?GetRestoreQuestList@Quest@@QAEABV?$vector@UstRestoreInfo@Quest@@V?$allocator@UstRestoreInfo@Quest@@@std@@@std@@XZ 
?GetRestrictionPosX@CItemData@@QBEHXZ 
?GetRestrictionPosY@CItemData@@QBEHXZ 
?GetRestrictionPosZ@CItemData@@QBEHXZ 
?GetRestrictionRadius@CItemData@@QBEHXZ 
?GetRestrictionZoneNo@CItemData@@QBEHXZ 
?GetReuseItem@MyInfoSkill@@QAENH@Z 
?GetReuseSkill@MyInfoSkill@@QAENH@Z 
?GetRevision@CNews@@QAEHXZ 
?GetRideOffsetPos@CModelInstance@@QAE?AV?$Vector@M$02@@XZ 
?GetRideOffsetRot@CModelInstance@@QAE?AV?$Vector@M$02@@XZ 
?GetRndCylinderDir@CRandomTable@@QAEABV?$Vector@M$02@@XZ 
?GetRndCylinderPos@CRandomTable@@QAEABV?$Vector@M$02@@XZ 
?GetRndDir@CRandomTable@@QAEABV?$Vector@M$02@@XZ 
?GetRndFactor@CRandomTable@@QAEMXZ 
?GetRndOffset@CRandomTable@@QAEMXZ 
?GetRndPos@CRandomTable@@QAEABV?$Vector@M$02@@XZ 
?GetRootTag@CTagManager@@QAEPAVCTag@@XZ 
?GetRotationMatrix@CEntity@@QBEABV?$Matrix@M$02$02@@XZ 
?GetRotationType@CMdlEffect@@QAE?AW4EFFECT_OF_TAG_TYPE@@XZ 
?GetRotationType@COrbitEffect@@QAE?AW4EFFECT_OF_TAG_TYPE@@XZ 
?GetRotationType@CParticleEffect@@QAE?AW4EFFECT_OF_TAG_TYPE@@XZ 
?GetRotationType@CShockWaveEffect@@QAE?AW4EFFECT_OF_TAG_TYPE@@XZ 
?GetRotationType@CSkaEffect@@QAE?AW4EFFECT_OF_TAG_TYPE@@XZ 
?GetRotationType@CSplinePathEffect@@QAE?AW4EFFECT_OF_TAG_TYPE@@XZ 
?GetRotationType@CTerrainEffect@@QAE?AW4EFFECT_OF_TAG_TYPE@@XZ 
?GetRowCol@CUIArray@@QAEXAAH0@Z 
?GetRowPointer@CTextureData@@QAEPAKJ@Z 
?GetRudolphNoseFilePath@CGameState@@QAEXJHAAVCTString@@0@Z 
?GetRunSpeed@CMobData@@QBEMXZ 
?GetRunSpeed@CPetInfo@@QBEMHH@Z 
?GetRunSpeed@CSlaveInfo@@QBEMH@Z 
?GetRunspeed@CPlayerEntity@@UAEMXZ 
?GetSaveID@LoginNew@@QAEHXZ 
?GetScale@CMobData@@QBEMXZ 
?GetScaledSize@CMobData@@QBEMXZ 
?GetScroll@CUIList@@QAEPAVCUIScrollBar@@XZ 
?GetScrollBar@CUIListBox@@QAEHXZ 
?GetScrollBarItemsPerPage@CUIListBox@@QAEHXZ 
?GetScrollBarPos@CUIListBox@@QAEHXZ 
?GetScrollPos@CUIScrollBar@@QBEHXZ 
?GetScrollRange@CUIScrollBar@@QBEHXZ 
?GetSearchType@CUICashShopEX@@IAEJXZ 
?GetSecondExFlags@CEntity@@QBEKXZ 
?GetSecondsLength@CSoundData@@QAENXZ 
?GetSectorFromPoint@CEntity@@QAEPAVCBrushSector@@ABV?$Vector@M$02@@@Z 
?GetSelData@CUIListBox@@QBEPAXH@Z 
?GetSelJob@CharacterCreateNew@@QAEHXZ 
?GetSelNextJob@CharacterCreateNew@@QAEHXZ 
?GetSelPrevJob@CharacterCreateNew@@QAEHXZ 
?GetSelectIdx@CUIArray@@QAEHXZ 
?GetSelectPos@CUISpinButton@@QAEHXZ 
?GetSelectedCount@Quest@@QAEHXZ 
?GetSelectedEntityModel@CWorldRenderPrefs@@QAEPAVCModelObject@@XZ 
?GetSelectedPortalModel@CWorldRenderPrefs@@QAEPAVCModelObject@@XZ 
?GetSelectedQuestIndex@Quest@@QAEHH@Z 
?GetSelectedQuestList@Quest@@QAEABV?$vector@HV?$allocator@H@std@@@std@@XZ 
?GetSelectionType@CWorldRenderPrefs@@QAE?AW4SelectionType@1@XZ 
?GetSellAddition@MyInfo@@QAEHXZ 
?GetSellRate@CShopData@@QBEHXZ 
?GetSellRate@MyInfo@@QAEHXZ 
?GetServerData@GameDataManager@@QAEPAVCServerSelect@@XZ 
?GetSessionProperties@CNetworkLibrary@@QAEPAXXZ 
?GetSetItemIndex@CItemData@@QBEHXZ 
?GetShadowLayersCount@CBrushShadowMap@@QAEJXZ 
?GetShadowQuality@CModelRenderPrefs@@QAEJXZ 
?GetShadowSize@CShadowMap@@QAEKXZ 
?GetShadowsType@CWorldRenderPrefs@@QAE?AW4ShadowsType@1@XZ 
?GetShakeValueCount@CCameraEffect@@QAEIXZ 
?GetShakeValueTime@CCameraEffect@@QAEMI@Z 
?GetShakeValueValue@CCameraEffect@@QAEABVCCameraValue@1@I@Z 
?GetShape@CParticlesEmitterCone@@QAEABVCConeDoubleSpace@@XZ 
?GetShape@CParticlesEmitterCylinder@@QAEABVCCylinderDoubleSpace@@XZ 
?GetShape@CParticlesEmitterSphere@@QAEABVCSphereDoubleSpace@@XZ 
?GetShopData@CNetworkLibrary@@QAEAAVCShopData@@H@Z 
?GetShopName@CShopData@@QBEPBDXZ 
?GetShotHitEffect@CItemData@@QAEPBDXZ 
?GetShow@CUITree@@QAEHXZ 
?GetShowAnotherRelicEffect@CCharacterTarget@@QAEHXZ 
?GetShowAnotherRelicEffect@ObjInfo@@QAEHXZ 
?GetShowRowCount@CUIArray@@QAEHXZ 
?GetSize@CEntity@@QAEXAAV?$AABBox@M$02@@@Z 
?GetSize@CMobData@@QBEMXZ 
?GetSize@cWeb@@QAEXAAH0@Z 
?GetSizeCount@CParticlesProcessDynamicState@@QAEIXZ 
?GetSizeOf@CEntityEvent@@UAEJXZ 
?GetSizeOf@EBegin@@UAEJXZ 
?GetSizeOf@EBlock@@UAEJXZ 
?GetSizeOf@EDamage@@UAEJXZ 
?GetSizeOf@EDeath@@UAEJXZ 
?GetSizeOf@EFirstWorldBase@@UAEJXZ 
?GetSizeOf@EInternal@@UAEJXZ 
?GetSizeOf@EPass@@UAEJXZ 
?GetSizeOf@EPlayerInit@@UAEJXZ 
?GetSizeOf@EPostLevelChange@@UAEJXZ 
?GetSizeOf@EPreLevelChange@@UAEJXZ 
?GetSizeOf@EReturn@@UAEJXZ 
?GetSizeOf@ETakingBreath@@UAEJXZ 
?GetSizeOf@ETeleport@@UAEJXZ 
?GetSizeOf@ETimer@@UAEJXZ 
?GetSizeOf@ETouch@@UAEJXZ 
?GetSizeOf@EVoid@@UAEJXZ 
?GetSizeOf@EWouldFall@@UAEJXZ 
?GetSizeTime@CParticlesProcessDynamicState@@QAEMI@Z 
?GetSizeValue@CParticlesProcessDynamicState@@QAE?AVCParticleSize@@I@Z 
?GetSize_t@CTMemoryStream@@UAEJXZ 
?GetSize_t@CTStream@@UAEJXZ 
?GetSkaFileName@CSkaEffect@@QAEABVCTFileName@@XZ 
?GetSkill0Index@CMobData@@QBEHXZ 
?GetSkill0Level@CMobData@@QBEDXZ 
?GetSkill1Index@CMobData@@QBEHXZ 
?GetSkill1Level@CMobData@@QBEDXZ 
?GetSkillData@CNetworkLibrary@@QAEAAVCSkill@@H@Z 
?GetSkillDelay@MyInfoSkill@@QAE_NH_N@Z 
?GetSkillExp@MyInfoSkill@@QAE_JH@Z 
?GetSkillIndex@CSlaveInfo@@QBEJH@Z 
?GetSkillIndex@CTransformInfo@@QAEHH@Z 
?GetSkillLevel@CItemData@@QBEHXZ 
?GetSkillLevel@MyInfoSkill@@QAEHH_N@Z 
?GetSkillMaster@CMobData@@QBEDXZ 
?GetSkillType@CItemData@@QBEHXZ 
?GetSkillWeponType@CJobInfo@@QBEHHH@Z 
?GetSlaveTarget@CEntity@@QAEPAVCSlaveTarget@@XZ 
?GetSocial@CharacterCreateNew@@QAEHXZ 
?GetSocialShowIdx@CharacterCreateNew@@QAEHXZ 
?GetSocketError@CCommunicationInterface@@QAE?AVCTString@@J@Z 
?GetSocketOptionIndex@CItemData@@QBEHXZ 
?GetSocketOptionLevel@CItemData@@QBEHXZ 
?GetSoundFileName@CSoundEffect@@QAEABVCTFileName@@XZ 
?GetSoundLength@CEntity@@QAENJ@Z 
?GetSoundPlayFlag@CSoundEffect@@QAEKXZ 
?GetSpaceCoordinates@CMappingDefinition@@QBEXABVCMappingVectors@@ABV?$Vector@J$01@@AAV?$Vector@M$02@@@Z 
?GetSpawnFlags@CEntity@@QBEKXZ 
?GetSpawnFlags@CWorld@@QAEKXZ 
?GetSpecialSkillMaster@CMobData@@QBEDXZ 
?GetSpeed@CAnimData@@QAEMJ@Z 
?GetSpeed@CParticlesProcessPointGoal@@QAEMXZ 
?GetSpeedLower@CParticlesEmitterCone@@QAEMXZ 
?GetSpeedLower@CParticlesEmitterCylinder@@QAEMXZ 
?GetSpeedMul@CEffect@@QAEMXZ 
?GetSpeedMul@CEffectGroup@@QAEMXZ 
?GetSpeedUpper@CParticlesEmitterCone@@QAEMXZ 
?GetSpeedUpper@CParticlesEmitterCylinder@@QAEMXZ 
?GetSphere@CParticlesAbsorptionSphere@@QAEABVCSphereDoubleSpace@@XZ 
?GetSplinePath@CSplinePathEffect@@QAEPAUsSplinePathInfo@1@J@Z 
?GetSplinePathCount@CSplinePathEffect@@QAEJXZ 
?GetSplitCount@CShockWaveEffect@@QAEJXZ 
?GetSplitMode@CUITextBox@@QAEHXZ 
?GetSplitMode@CUITextBoxEx@@QAE?AW4eSPLIT_TYPE@@XZ 
?GetSrc@CRelationLnk@@QAEAAVCRelationSrc@@XZ 
?GetStack@CItemData@@QBEHXZ 
?GetStartData@CQuestDynamicData@@QAE?BJXZ 
?GetStartItem@CUIArray@@QAEXAAH0@Z 
?GetStartNPCZoneIndex@CQuestDynamicData@@QAE?BJXZ 
?GetStartTime@CEffectGroup@@QAEMXZ 
?GetStartType@CQuestDynamicData@@QAE?BJXZ 
?GetStartX@CUITextBoxEx@@QAEHXZ 
?GetStartXY@CUITextBox@@QAEXAAH0@Z 
?GetStartY@CUITextBoxEx@@QAEHXZ 
?GetStashData@GameDataManager@@QAEPAVPetStash@@XZ 
?GetStashListAt@PetStash@@QAEPAUPetStashData@UpdateClient@@H@Z 
?GetState@CEffect@@QAE?AW4EFFECT_STATE@@XZ 
?GetStaticData@CQuestSystem@@QAEPAVCQuestStaticData@@J@Z 
?GetStatus@CStatusEffect@@QAE_JXZ 
?GetStatus@CUIProgressBar@@QBE?BW4_tagProgressStatus@@XZ 
?GetStatusDesc@CQuestDynamicData@@QAEAAVCTString@@J@Z 
?GetStrColor@CUICharacterInfo@@IAEKH@Z 
?GetStreamCRC32_t@CTFileStream@@UAEKXZ 
?GetStreamCRC32_t@CTMemoryStream@@UAEKXZ 
?GetStreamCRC32_t@CTStream@@UAEKXZ 
?GetStreamSize@CTFileStream@@UAEJXZ 
?GetStreamSize@CTMemoryStream@@UAEJXZ 
?GetStretch@CMdlEffect@@QAEABV?$Vector@M$02@@XZ 
?GetStretch@CSkaEffect@@QAEABV?$Vector@M$02@@XZ 
?GetStretchCount@CEffectControl@@QAEIXZ 
?GetStretchTime@CEffectControl@@QAEMI@Z 
?GetStretchValue@CEffectControl@@QAE?AV?$Vector@M$02@@I@Z 
?GetString@CShell@@QAE?AVCTString@@ABV2@@Z 
?GetString@CUIEditBox@@QBEPADXZ 
?GetString@CUIListBox@@QAEAAVCTString@@HH@Z 
?GetString@CUIManager@@QAEAAVCTString@@J@Z 
?GetString@CUIManager@@QAEAAVCTString@@JABV2@0@Z 
?GetString@CUIManager@@QAEAAVCTString@@JABV2@@Z 
?GetString@CUIManager@@QAEAAVCTString@@JJ@Z 
?GetString@CUIManager@@QAEAAVCTString@@JPBD0@Z 
?GetString@CUIManager@@QAEAAVCTString@@JPBD@Z 
?GetString@CUITextBox@@QAEPBDXZ 
?GetSubJobName@CUIManager@@QAE?AVCTString@@J@Z 
?GetSubType@CItemData@@QBEHXZ 
?GetSubTypeWeapon@CItemEffect@@QAEHH@Z 
?GetSummonEntity@CUISummon@@QAEPAVCEntity@@XZ 
?GetSurface@CUIImageSplit@@QAEPAVCUIRectSurface@@XZ 
?GetSurfaceColor@CModelObject@@QAEKJJ@Z 
?GetSurfaceName@CEditModel@@QAEPBDJJ@Z 
?GetSurfaceRenderFlags@CModelObject@@QAEXJJAAW4SurfaceShadingType@@AAW4SurfaceTranslucencyType@@AAK@Z 
?GetSuspendCount@cThreadWrapper@@QAEKXZ 
?GetSymbol@CShell@@QAEPAVCShellSymbol@@ABVCTString@@H@Z 
?GetSyndiGrade@CCharacterTarget@@QAEHXZ 
?GetSyndiGrade@CMobTarget@@QAEHXZ 
?GetSyndiType@CCharacterTarget@@QAEHXZ 
?GetSyndiType@CMobTarget@@QAEHXZ 
?GetSyndicate@GameDataManager@@QAEPAVCSyndicate@@XZ 
?GetSyndicateGrade@CItemData@@QAEHXZ 
?GetSyndicateGrade@CMobData@@QAEHXZ 
?GetSyndicateGrade@CQuestDynamicData@@QAEJXZ 
?GetSyndicateType@CItemData@@QAEHXZ 
?GetSyndicateType@CMobData@@QAEHXZ 
?GetSyndicateType@CQuestDynamicData@@QAEJXZ 
?GetTag@CEffect@@QAE?AV?$CRefCountPtr@VCTag@@@@XZ 
?GetTag@CGroupTag@@QAE?AV?$CRefCountPtr@VCTag@@@@J@Z 
?GetTagCount@CEffectGroup@@QAEJXZ 
?GetTagKeyInfo@CEffectGroup@@QAEXJAAMAAJAAV?$basic_string@DU?$char_traits@D@std@@V?$allocator@D@2@@std@@@Z 
?GetTagKeyVector@CEffectGroup@@QAEABV?$vector@UTagKey@CEffectGroup@@V?$allocator@UTagKey@CEffectGroup@@@std@@@std@@XZ 
?GetTagManager@CEffectGroup@@QAEPAVCTagManager@@XZ 
?GetTags@CGroupTag@@QAE?BV?$vector@V?$CRefCountPtr@VCTag@@@@V?$allocator@V?$CRefCountPtr@VCTag@@@@@std@@@std@@XZ 
?GetTarget@CEntity@@UBEPAV1@XZ 
?GetTargetCount@ObjInfo@@QAE_JXZ 
?GetTargetCurHP@ObjInfo@@QAEMW4eTARGET_TYPE@@@Z 
?GetTargetDBIdx@ObjInfo@@QAEHW4eTARGET_TYPE@@@Z 
?GetTargetEntity@ObjInfo@@QAEPAVCEntity@@W4eTARGET_TYPE@@@Z 
?GetTargetGuildColor@ObjInfo@@QAEEXZ 
?GetTargetGuildIdx@ObjInfo@@QAEJXZ 
?GetTargetGuildName@ObjInfo@@QAE?AVCTString@@XZ 
?GetTargetGuildRank@ObjInfo@@QAECXZ 
?GetTargetLevel@ObjInfo@@QAEHW4eTARGET_TYPE@@@Z 
?GetTargetMaxHP@ObjInfo@@QAEMW4eTARGET_TYPE@@@Z 
?GetTargetName@ObjInfo@@QAEPADW4eTARGET_TYPE@@@Z 
?GetTargetNickIdx@ObjInfo@@QAEJXZ 
?GetTargetPKMode@ObjInfo@@QAEHW4eTARGET_TYPE@@@Z 
?GetTargetPKState@ObjInfo@@QAEHW4eTARGET_TYPE@@@Z 
?GetTargetServerIdx@ObjInfo@@QAEHW4eTARGET_TYPE@@@Z 
?GetTargetSyndiGrade@ObjInfo@@QAEHXZ 
?GetTargetSyndiType@ObjInfo@@QAEHXZ 
?GetTargetType@ObjInfo@@QAECW4eTARGET_TYPE@@@Z 
?GetTempValue@CTagManager@@QAEJXZ 
?GetTerMul@CZoneInfo@@QAEMH@Z 
?GetTerrain@CEntity@@QAEPAVCTerrain@@XZ 
?GetTerrain@CTerrainEffect@@SAPAVCTerrain@@XZ 
?GetTex2Cnt@CItemData@@QBEHXZ 
?GetTex3Cnt@CItemData@@QBEHXZ 
?GetTexCnt@CItemData@@QBEHXZ 
?GetTexCol@CParticle@@QAEEXZ 
?GetTexFileName@CParticleGroup@@QAE?BVCTFileName@@XZ 
?GetTexFileName@CShockWaveEffect@@QAEABVCTFileName@@XZ 
?GetTexFileName@CSplineBillboardEffect@@QAEABVCTFileName@@XZ 
?GetTexFileName@CTerrainEffect@@QAEABVCTFileName@@XZ 
?GetTexFileName@CTraceEffect@@QAEABVCTFileName@@XZ 
?GetTexInfoColumn@CParticleGroup@@QAEJXZ 
?GetTexInfoMexHeight@CParticleGroup@@QAEJXZ 
?GetTexInfoMexWidth@CParticleGroup@@QAEJXZ 
?GetTexInfoRow@CParticleGroup@@QAEJXZ 
?GetTexNormalName@CJobInfo@@QAE?AVCTFileName@@HH@Z 
?GetTexPosCount@CParticlesProcessDynamicState@@QAEIXZ 
?GetTexPosTime@CParticlesProcessDynamicState@@QAEMI@Z 
?GetTexPosValue@CParticlesProcessDynamicState@@QAE?AVCParticleTexPos@@I@Z 
?GetTexRow@CParticle@@QAEEXZ 
?GetTexel@CTextureData@@QAEKJJ@Z 
?GetText@CUIButton@@QAE?AVCTString@@XZ 
?GetText@CUIProgressBar@@QBE?BVCTString@@XZ 
?GetText@CUITextBoxEx@@QAEPBDXZ 
?GetTextColor@CUIButton@@QAEKW4UIBtnState@@@Z 
?GetTextColor@CUICheckButton@@QAEXAAK0@Z 
?GetTextColor@CUIEditBox@@QAEHXZ 
?GetTextColor@CUIProgressBar@@QBE?BKXZ 
?GetTextColor@CUITextBox@@QAEKXZ 
?GetTextExCount@CUITextBoxEx@@QAEHXZ 
?GetTextSX@CUICheckButton@@QAEHXZ 
?GetTextSectionWidth@CDrawPort@@QAEHPADHH@Z 
?GetTextTotalHeight@CUITextBox@@QAEHXZ 
?GetTextWidth2@CDrawPort@@QAEKABVCTString@@@Z 
?GetTextWidth@CDrawPort@@QAEKPBD@Z 
?GetTextWidth@CDrawPort@@QBE?AVCTString@@ABV2@J@Z 
?GetTextureCoordinates@CMappingDefinition@@QBEXABVCMappingVectors@@ABV?$Vector@M$02@@AAV?$Vector@J$01@@@Z 
?GetTextureDataForComponent@CEntity@@QAEPAVCTextureData@@J@Z 
?GetTextureDimensions@CModelData@@QAEXAAJ0@Z 
?GetTextureID@CUIImageBox@@QAEHXZ 
?GetTextureName@CJobInfo@@QAE?AVCTFileName@@HH@Z 
?GetTextureQuality@CUIOption@@QBEMH@Z 
?GetTimeInterval@CSplineBillboardEffect@@QAEMXZ 
?GetTimeInterval@CTraceEffect@@QAEMXZ 
?GetTimeReq@CNetworkLibrary@@QAEXXZ 
?GetTip@CLoadingImage@@AAE?AVCTString@@XZ 
?GetTitleDesc@CQuestDynamicData@@QAEAAVCTString@@J@Z 
?GetTitleNetwork@GameDataManager@@QAEPAVTitleNetwork@@XZ 
?GetTooltipIndex@CUIBase@@QAEHXZ 
?GetTooltipString@CUICharacterInfo@@AAE?AVCTString@@HHH@Z 
?GetTotalCount@CParticlesEmitter@@QAEKXZ 
?GetTraceTime@CSplineBillboardEffect@@QAEMXZ 
?GetTraceTime@CTraceEffect@@QAEMXZ 
?GetTransFlag@CItemData@@QAEAAHXZ 
?GetTranslateFlag@CMobData@@QAEAAHXZ 
?GetTwinklePeriod@CEffectControl@@QAEMXZ 
?GetTwinklePeriod@CParticlesProcessDynamicState@@QAEMXZ 
?GetTwinklePeriod@CSplineBillboardEffect@@QAEMXZ 
?GetTwinklePeriod@CTraceEffect@@QAEMXZ 
?GetType@CEffect@@QAE?AW4EFFECT_TYPE@@XZ 
?GetType@CItemData@@QBEHXZ 
?GetType@CMobData@@QBEHXZ 
?GetType@CNetworkMessage@@QBEEXZ 
?GetType@CParticlesAbsorption@@QAE?AW4PARTICLES_ABSORPTION_TYPE@@XZ 
?GetType@CParticlesCommonProcess@@QAE?AW4PARTICLES_COMMON_PROCESS_TYPE@@XZ 
?GetType@CParticlesEmitter@@QAE?AW4PARTICLES_EMITTER_TYPE@@XZ 
?GetType@CParticlesEmitterCone@@QAE?AW4PARTICLES_EMITTER_TYPE@@XZ 
?GetType@CParticlesEmitterCylinder@@QAE?AW4PARTICLES_EMITTER_TYPE@@XZ 
?GetType@CParticlesEmitterSphere@@QAE?AW4PARTICLES_EMITTER_TYPE@@XZ 
?GetType@CShell@@QAE?AW4ShellTypeType@@ABVCTString@@@Z 
?GetType@CStatusEffect@@QAE?AW4eType@1@XZ 
?GetType@CTag@@QAE?AW4TAG_TYPE@@XZ 
?GetType@CTransformInfo@@QAEHH@Z 
?GetUI@CUIManager@@QBEPAVCUIWindow@@H@Z 
?GetUIIndexByOrder@CUIManager@@QAEHH@Z 
?GetUV@CUIButton@@QAE?AUUIRectUV@@W4UIBtnState@@@Z 
?GetUV@CUICheckButton@@QAE?AUUIRectUV@@W4UICheckBtnState@@@Z 
?GetUV@CUIImage@@QAE?AUUIRectUV@@XZ 
?GetUV@CUIImageBox@@QAE?AUUIRectUV@@XZ 
?GetUVbtnEXInfo@CUICashShopEX@@QAEPAUUIRectUV@@XZ 
?GetUnit@CUIImageSplit@@QAEHXZ 
?GetUpStatpoint@CUIAutoHelp@@QAEHXZ 
?GetUseItem@MyInfoSkill@@QAE_JH@Z 
?GetUseItemStartTime@CUIIcon@@QAE_JXZ 
?GetUsePetStash@PetStash@@QAE_NXZ 
?GetUsePos@CParticlesEmitterCone@@QAEHXZ 
?GetUsePos@CParticlesEmitterCylinder@@QAEHXZ 
?GetUseSpeed@CParticlesEmitterCone@@QAEHXZ 
?GetUseSpeed@CParticlesEmitterCylinder@@QAEHXZ 
?GetUsedCount@CSerial@@QAEJXZ 
?GetUsedMemory@CAnimSet@@UAEJXZ 
?GetUsedMemory@CBrushEdge@@QAEJXZ 
?GetUsedMemory@CBrushPlane@@QAEJXZ 
?GetUsedMemory@CBrushPolygon@@QAEJXZ 
?GetUsedMemory@CBrushPolygonTexture@@QAEJXZ 
?GetUsedMemory@CBrushSector@@QAEJXZ 
?GetUsedMemory@CBrushShadowMap@@QAEJXZ 
?GetUsedMemory@CBrushVertex@@QAEJXZ 
?GetUsedMemory@CEntity@@UAEJXZ 
?GetUsedMemory@CEntityClass@@UAEJXZ 
?GetUsedMemory@CLiveEntity@@UAEJXZ 
?GetUsedMemory@CMesh@@UAEJXZ 
?GetUsedMemory@CModelData@@UAEJXZ 
?GetUsedMemory@CModelInstance@@QAEJXZ 
?GetUsedMemory@CModelInstanceSerial@@UAEJXZ 
?GetUsedMemory@CModelObject@@QAEJXZ 
?GetUsedMemory@CMovableEntity@@UAEJXZ 
?GetUsedMemory@CMovableModelEntity@@UAEJXZ 
?GetUsedMemory@CRationalEntity@@UAEJXZ 
?GetUsedMemory@CSerial@@UAEJXZ 
?GetUsedMemory@CShader@@UAEJXZ 
?GetUsedMemory@CShadowMap@@QAEHAAJ00AAM@Z 
?GetUsedMemory@CSkeleton@@UAEJXZ 
?GetUsedMemory@CSoundData@@UAEJXZ 
?GetUsedMemory@CTextureData@@UAEJXZ 
?GetUserId@LoginNew@@QAE?AVCTString@@XZ 
?GetVIPClientsCount@CServer@@QAEJXZ 
?GetVIPPlayersCount@CServer@@QAEJXZ 
?GetValue@COptionData@@QBEHH@Z 
?GetValue@CShell@@QAE?AVCTString@@ABV2@@Z 
?GetVecString@CUIComboBox@@QAE?AV?$vector@VCTString@@V?$allocator@VCTString@@@std@@@std@@XZ 
?GetVectorIndexByGiveNPCIndex@CQuestSystem@@QAEJJ@Z 
?GetVectorIndexByPrizeNPCIndex@CQuestSystem@@QAEJJ@Z 
?GetVelocity@CParticle@@QBEABV?$Vector@M$02@@XZ 
?GetVelocity@CSplineBillboardEffect@@QAEMXZ 
?GetVelocityDir@CParticlesProcessVelocity@@QAEABV?$Vector@M$02@@XZ 
?GetVelocitySpd@CParticlesProcessVelocity@@QAEMXZ 
?GetVersion@CUIManager@@QAEHXZ 
?GetVertexCoordinatesAbsolute@CBrushPolygonEdge@@QAEXAAV?$Vector@M$02@@0@Z 
?GetVertexCoordinatesPreciseAbsolute@CBrushPolygonEdge@@QAEXAAV?$Vector@N$02@@0@Z 
?GetVertexCoordinatesPreciseRelative@CBrushPolygonEdge@@QAEXAAV?$Vector@N$02@@0@Z 
?GetVertexCoordinatesRelative@CBrushPolygonEdge@@QAEXAAV?$Vector@M$02@@0@Z 
?GetVertices@CBrushPolygonEdge@@QAEXAAPAVCBrushVertex@@0@Z 
?GetVertices@CObjectPolygonEdge@@QAEXAAPAVCObjectVertex@@0@Z 
?GetVerticesFillType@CWorldRenderPrefs@@QAE?AW4FillType@1@XZ 
?GetVerticesInkColor@CWorldRenderPrefs@@QAEKXZ 
?GetViewMatrix@@YAXABVCPlacement3D@@AAY0M@M@Z 
?GetVisTweaks@CEntity@@UAEKXZ 
?GetVolume@CSoundEffect@@QAEMXZ 
?GetWalkSpeed@CMobData@@QBEMXZ 
?GetWalkSpeed@CPetInfo@@QBEMHH@Z 
?GetWalkSpeed@CSlaveInfo@@QBEMH@Z 
?GetWalkspeed@CPlayerEntity@@UAEMXZ 
?GetWantTagCount@CEffect@@UAEJXZ 
?GetWantTagCount@COrbitEffect@@UAEJXZ 
?GetWantTagCount@CParticleEffect@@UAEJXZ 
?GetWantTagCount@CParticlesCommonProcess@@UAEJXZ 
?GetWantTagCount@CParticlesProcessPointGoal@@UAEJXZ 
?GetWantTagManager@CEffectGroup@@QAEPAVCTagManager@@XZ 
?GetWantTagName@CEffect@@UAEPBDJ@Z 
?GetWantTagName@COrbitEffect@@UAEPBDJ@Z 
?GetWantTagName@CParticleEffect@@UAEPBDJ@Z 
?GetWantTagName@CParticlesCommonProcess@@UAEPBDJ@Z 
?GetWantTagName@CParticlesProcessPointGoal@@UAEPBDJ@Z 
?GetWarpType@CItemData@@QBEHXZ 
?GetWearingEffect@CNetworkLibrary@@QAE?AVCTString@@W4eEquipment@@J@Z 
?GetWearingPosition@CItemData@@QBEHXZ 
?GetWebDlgCallBack@cWeb@@QAEP6GHPAUHWND__@@IIJ@ZXZ 
?GetWebDlgID@cWeb@@QAEJXZ 
?GetWebHandle@cWeb@@QAEPAUHWND__@@XZ 
?GetWeekToString@CUIManager@@QAE?AVCTString@@H@Z 
?GetWeekToStringIndex@CUIManager@@QAEHH@Z 
?GetWhichUI@CUIIcon@@QAEHXZ 
?GetWidth@CDrawPort@@QBEJXZ 
?GetWidth@CEditModel@@QAEJXZ 
?GetWidth@CFontData@@QBEJXZ 
?GetWidth@CModelObject@@QAEJXZ 
?GetWidth@CParticle@@QBEMXZ 
?GetWidth@CSplineBillboardEffect@@QAEMXZ 
?GetWidth@CTextureData@@QBEJXZ 
?GetWidth@CTextureObject@@QBEJXZ 
?GetWidth@CUIBase@@QBEHXZ 
?GetWidthCount@CShockWaveEffect@@QAEIXZ 
?GetWidthTime@CShockWaveEffect@@QAEMI@Z 
?GetWidthValue@CShockWaveEffect@@QAEMI@Z 
?GetWildPetTargetInfo@CEntity@@QAEPAVCWildPetTarget@@XZ 
?GetWindowsError@@YA?BVCTString@@K@Z 
?GetWorld@CEntity@@QAEPAVCWorld@@XZ 
?GetWorldMatrix@@YAXABVCPlacement3D@@AAY0M@M@Z 
?GetWorldPolygonIndex@CEntity@@QAEJPAVCBrushPolygon@@@Z 
?GetWorldPolygonPointer@CEntity@@QAEPAVCBrushPolygon@@J@Z 
?GetZoneCount@CZoneInfo@@QBEHXZ 
?GetZoneListCount@CUIPortal@@QAEHXZ 
?GetZoneMovingFlag@CMobData@@QBE_KXZ 
?GetZoneName@CZoneInfo@@QAE?AVCTString@@H@Z 
?GetZoneNum@CItemData@@QBEHXZ 
?GetZoneType@CZoneInfo@@QBE?AW4eZone@@H@Z 
?GetZoneWldFile@CZoneInfo@@QAE?AVCTString@@H@Z 
?Get_MyChar_Attack@CNetworkLibrary@@QAE_NHJ@Z 
?Get_MyChar_Job@CNetworkLibrary@@QAEEXZ 
?Get_MyChar_MorphStatus@CNetworkLibrary@@QAEHXZ 
?Get_MyChar_faceStyle@CNetworkLibrary@@QAECXZ 
?Get_MyChar_hairStyle@CNetworkLibrary@@QAECXZ 
?GetgERSubType@CEffectGroup@@QAE?AW4EFF_RENDER_SUB_TYPE@@XZ 
?GetgERType@CEffectGroup@@QAE?AW4EFF_RENDER_TYPE@@XZ 
?GetmaxHp@Party@@QBEHH@Z 
?GetmaxMp@Party@@QBEHH@Z 
?GetvectorEffect@CSplinePathEffect@@QAEAAV?$vector@PAVCEffect@@V?$allocator@PAVCEffect@@@std@@@std@@XZ 
?GiveImpulseTranslationAbsolute@CMovableEntity@@QAEXABV?$Vector@M$02@@@Z 
?GiveImpulseTranslationRelative@CMovableEntity@@QAEXABV?$Vector@M$02@@@Z 
?GoStage@StageMgr@@QAEXXZ 
?GoZone@CNetworkLibrary@@QAEXHHH@Z 
?GrabScreen@CDrawPort@@QBEXAAVCImageInfo@@J@Z 
?GrowMemory@@YAXPAPAXJ@Z 
?GuildAddViceBoss@CNetworkLibrary@@QAEXJ@Z 
?GuildApplicantAccept@CNetworkLibrary@@QAEXJ@Z 
?GuildApplicantReject@CNetworkLibrary@@QAEXC@Z 
?GuildChangeBoss@CNetworkLibrary@@QAEXJ@Z 
?GuildCreate@CNetworkLibrary@@QAEXABVCTString@@@Z 
?GuildDelViceBoss@CNetworkLibrary@@QAEXJ@Z 
?GuildDestroy@CNetworkLibrary@@QAEXXZ 
?GuildJoin@CNetworkLibrary@@QAEXJJJ@Z 
?GuildMemberFire@CNetworkLibrary@@QAEXJ@Z 
?GuildQuit@CNetworkLibrary@@QAEXXZ 
?GuildUpgrade@CNetworkLibrary@@QAEXXZ 
?H0x00020002_WaitUntilScheduledAnimStarts_01@CMovableModelEntity@@QAEHABVCEntityEvent@@@Z 
?H0x00020003_WaitUntilScheduledAnimStarts_02@CMovableModelEntity@@QAEHABVCEntityEvent@@@Z 
?H0x00020004_WaitUntilScheduledAnimStarts_03@CMovableModelEntity@@QAEHABVCEntityEvent@@@Z 
?HSVToColor@@YAKEEE@Z 
?HUD_ChangeFaceMesh@CPlayerEntity@@UAEXJJ@Z 
?HUD_ChangeHairMesh@CPlayerEntity@@UAEXJJ@Z 
?HUD_DrawItemModel@CUIManager@@QAEXXZ 
?HUD_DrawModel@CPlayerEntity@@UAEXPAVCDrawPort@@MMMMJMM@Z 
?HUD_PlayAnimation@CPlayerEntity@@UAEXJJ@Z 
?HUD_PlayAnimation@CPlayerEntity@@UAEXVCTString@@@Z 
?HUD_SetCharModelData@CPlayerEntity@@UAEXJJJ@Z 
?HUD_SetItemModelData@CUIManager@@QAEXJ@Z 
?HUD_SetModelColor@CPlayerEntity@@UAEXK@Z 
?HUD_SetModelData@CPlayerEntity@@UAEXJJJ@Z 
?HUD_SetTitleEffect@CPlayerEntity@@UAEXVCTString@@@Z 
?HUD_WearingModel@CPlayerEntity@@UAEXJJJH@Z 
?Handle@CServer@@QAEXJAAVCNetworkMessage@@@Z 
?HandleAll@CServer@@QAEXXZ 
?HandleAllForAClient@CServer@@QAEXJ@Z 
?HandleClientDisconected@CServer@@QAEXJ@Z 
?HandleEvent@CEntity@@UAEHABVCEntityEvent@@@Z 
?HandleEvent@CRationalEntity@@UAEHABVCEntityEvent@@@Z 
?HandleMovers@CSessionState@@QAEXXZ 
?HandleMovers_client@CSessionState@@QAEXXZ 
?HandleSentEvents@CEntity@@SAXXZ 
?HandleTimerHandlers@CTimer@@QAEXXZ 
?HandleTimers@CSessionState@@QAEXM@Z 
?HandlerForStateAndEvent@CDLLEntityClass@@QAEP8CEntity@@AEHABVCEntityEvent@@@ZJJ@Z 
?HandlerForStateAndEvent@CEntity@@UAEP81@AEHABVCEntityEvent@@@ZJJ@Z 
?HandlerForStateAndEvent@CEntityClass@@QAEP8CEntity@@AEHABVCEntityEvent@@@ZJJ@Z 
?HandlerNameForState@CDLLEntityClass@@QAEPBDJ@Z 
?HasAPI@CGfxLibrary@@QAEHW4GfxAPIType@@@Z 
?HasActiveTag@CTagManager@@QAEHXZ 
?HasAlpha@CModelInstance@@QAEHXZ 
?HasAlpha@CModelObject@@QAEHXZ 
?HasCompression@CGfxLibrary@@QAEHXZ 
?HasDynamicLayers@CBrushShadowMap@@UAEHXZ 
?HasDynamicLayers@CShadowMap@@UAEHXZ 
?HasJoystickPOV@CInputDevice@@QAEHXZ 
?HasOcclusionCulling@CGfxLibrary@@QAEHXZ 
?HasPrefix@CTString@@QBEHABV1@@Z 
?HasReuseTimeItem@ItemHelp@@SA_NAAVCItems@@@Z 
?HasShadow@CModelInstance@@QAEHM@Z 
?HasShadow@CModelObject@@QAEHJ@Z 
?HasSkaModel@CEntity@@QAE_NABVCTString@@@Z 
?HaveItem@ItemHelp@@SA_NHPAF0_J@Z 
?Head@CListHead@@QBEAAVCListNode@@XZ 
?HiddenLines@CModelRenderPrefs@@QAEHXZ 
?Hide@CUIArrayItem@@UAEXH@Z 
?Hide@CUIBase@@UAEXH@Z 
?Hide@CUIIcon@@UAEXH@Z 
?HideNoTranslationString@CUIManager@@QAEXXZ 
?HidePatch@CModelObject@@QAEXJ@Z 
?HideSelectedEntities@CWorld@@QAEXAAV?$CSelection@VCEntity@@$00@@@Z 
?HideSelectedSectors@CWorld@@QAEXAAV?$CSelection@VCBrushSector@@$00@@@Z 
?HideTooltip@CUIIcon@@QAEXXZ 
?HideUnselectedEntities@CWorld@@QAEXXZ 
?HideUnselectedSectors@CWorld@@QAEXXZ 
?HideWeapon@CUICharacterCreateNew@@AAEXHH@Z 
?HitTest@CUIArray@@QAEHHH@Z 
?HitTest@CUIList@@QAEHGG@Z 
?IFeel_ChangeGain@@YAXM@Z 
?IFeel_DeleteDevice@@YAXXZ 
?IFeel_GetProductName@@YA?AVCTString@@XZ 
?IFeel_GetProjectFileName@@YA?AVCTString@@XZ 
?IFeel_InitDevice@@YAHAAPAUHINSTANCE__@@AAPAUHWND__@@@Z 
?IFeel_LoadFile@@YAHVCTFileName@@@Z 
?IFeel_PlayEffect@@YAXPAD@Z 
?IFeel_StopEffect@@YAXPAD@Z 
?IMEMessage@CUIBase@@UAE?AW4WMSG_RESULT@@PAUtagMSG@@@Z 
?IMEMessage@CUICashShopEX@@UAE?AW4WMSG_RESULT@@PAUtagMSG@@@Z 
?IMEMessage@CUIEditBox@@UAE?AW4WMSG_RESULT@@PAUtagMSG@@@Z 
?IMEMessage@CUIGuildBattle@@UAE?AW4WMSG_RESULT@@PAUtagMSG@@@Z 
?IMEMessageBRZ@CUIEditBox@@QAE?AW4WMSG_RESULT@@PAUtagMSG@@@Z 
?IMEMessageCHS@CUIEditBox@@QAE?AW4WMSG_RESULT@@PAUtagMSG@@@Z 
?IMEMessageCHT@CUIEditBox@@QAE?AW4WMSG_RESULT@@PAUtagMSG@@@Z 
?IMEMessageChild@CUIBase@@UAE?AW4WMSG_RESULT@@PAUtagMSG@@@Z 
?IMEMessageJPN@CUIEditBox@@QAE?AW4WMSG_RESULT@@PAUtagMSG@@@Z 
?IMEMessageKOR@CUIEditBox@@QAE?AW4WMSG_RESULT@@PAUtagMSG@@@Z 
?IMEMessageProc@CUIBase@@UAE?AW4WMSG_RESULT@@PAUtagMSG@@@Z 
?IMEMessageProc@CUITree@@UAE?AW4WMSG_RESULT@@PAUtagMSG@@@Z 
?IMEMessageTHAI@CUIEditBox@@QAE?AW4WMSG_RESULT@@PAUtagMSG@@@Z 
?IMEMessageUSA@CUIEditBox@@QAE?AW4WMSG_RESULT@@PAUtagMSG@@@Z 
?IMEProc@MsgBoxMgr@@QAE?AW4WMSG_RESULT@@PAUtagMSG@@@Z 
?IRnd@CEntity@@QAEKXZ 
?IdleProgress@CUIProgressBar@@QAEXXZ 
?IgnoreApplicationPath@@YAXXZ 
?IgnoreContents@CNetworkMessage@@QAEXXZ 
?IncRef@CUIEditBox@@IAEXXZ 
?IncreaseShadowQuality@CModelRenderPrefs@@QAEXXZ 
?IndicesToPtrs@CModelData@@QAEXXZ 
?InflictBoxDamage@CEntity@@UAEXPAV1@W4DamageType@@MABV?$AABBox@M$02@@@Z 
?InflictDirectDamage@CEntity@@UAEXPAV1@0W4DamageType@@MABV?$Vector@M$02@@2@Z 
?InflictRangeDamage@CEntity@@UAEXPAV1@W4DamageType@@MABV?$Vector@M$02@@MM@Z 
?InfoMessage@@YAXPBDZZ 
?InfoReset@CharacterCreateNew@@QAEXXZ 
?Init@CCastRay@@QAEXPAVCEntity@@ABV?$Vector@M$02@@1@Z 
?Init@CCommunicationInterface@@QAEXXZ 
?Init@CGfxLibrary@@QAEXXZ 
?Init@CMessageDispatcher@@QAEXABVCTString@@@Z 
?Init@CMobTarget@@QAEXXZ 
?Init@CNetworkLibrary@@QAEXABVCTString@@@Z 
?Init@CPetTargetInfom@@QAEXXZ 
?Init@CRenderTexture@@QAEHJJKW4_D3DFORMAT@@@Z 
?Init@CSlaveTargetInfom@@QAEXXZ 
?Init@CSoundLibrary@@QAEXXZ 
?Init@CTargetInfom@@QAEXXZ 
?Init@CTargetInfomReal@@QAEXXZ 
?Init@Party@@QAEXXZ 
?InitAPIs@CGfxLibrary@@AAEXXZ 
?InitAsBrush@CEntity@@QAEXXZ 
?InitAsEditorModel@CEntity@@QAEXXZ 
?InitAsFieldBrush@CEntity@@QAEXXZ 
?InitAsModel@CEntity@@QAEXXZ 
?InitAsSkaEditorModel@CEntity@@QAEXXZ 
?InitAsSkaModel@CEntity@@QAEXXZ 
?InitAsTerrain@CEntity@@QAEXXZ 
?InitAsVoid@CEntity@@QAEXXZ 
?InitCRCGather@CNetworkLibrary@@QAEXXZ 
?InitCatalogNameNodes@CUICashShopEX@@IAEXXZ 
?InitCloned@CDrawPort@@QAEXPAV1@NNNN@Z 
?InitCollisionGrid@CWorld@@QAEXXZ 
?InitContext_D3D@CGfxLibrary@@AAEXXZ 
?InitContext_OGL@CGfxLibrary@@AAEXXZ 
?InitCorpsImageBox@CUIImageBox@@QAEXXZ 
?InitCurInfoLines@CUIManager@@QAEXXZ 
?InitDevice@CInputDevice@@QAEHW4DeviceType@@@Z 
?InitDisplay_D3D@CGfxLibrary@@AAEHJJJW4DisplayDepth@@@Z 
?InitDriver_D3D@CGfxLibrary@@AAEHXZ 
?InitDriver_OGL@CGfxLibrary@@AAEHH@Z 
?InitExceptionHandler@@YAXPBD@Z 
?InitExpedition@Party@@QAEXXZ 
?InitHardCoreCreate@CUIManager@@QAEXXZ 
?InitInZoneReq@CNetworkLibrary@@QAEXXZ 
?InitInterface@CUIOption@@QAEXXZ 
?InitItemData@CInvenData@@QAEXPAVCItems@@@Z 
?InitLoadingData@CLoadingImage@@QAEXXZ 
?InitLoginCharacterInfo@CLoginJobInfo@@QAEXXZ 
?InitLoginModelInit@CLoginJobInfo@@QAEXXZ 
?InitOption@CUIOption@@QAEXXZ 
?InitPSAniTIme@CUIPetStashSelectEffect@@AAEXXZ 
?InitParty@Party@@QAEXXZ 
?InitPopupImageBox@CUIImageBox@@QAEXXZ 
?InitPos@CUIBase@@QAEXHHHH@Z 
?InitRenderTarget@CUICashShopEX@@QAEXXZ 
?InitRenderTarget@CUIManager@@QAEXHH@Z 
?InitSEEDEncrypt@CMessageDispatcher@@SAXXZ 
?InitSelectModel@CGameState@@QAEXH@Z 
?InitServerNetProcess@CServer@@QAEXXZ 
?InitSkillIndex@CSlaveInfo@@QAEXXZ 
?InitTexture@CDrawPort@@QBEXPAVCTextureObject@@HKH@Z 
?InitTextureData@CDrawPort@@QBEXPAVCTextureData@@HKH@Z 
?InitTranslation@@YAXXZ 
?InitUIString@CUIManager@@QAEXXZ 
?InitWinsock@CCommunicationInterface@@QAEXXZ 
?Initialize@CEntity@@QAEXABVCEntityEvent@@H@Z 
?Initialize@CInput@@QAEXXZ 
?Initialize@CNetworkMessage@@QAEXABV1@@Z 
?Initialize@CNetworkMessage@@QAEXE@Z 
?Initialize@CNetworkMessage@@QAEXXZ 
?Initialize@CShadowMap@@QAEXJJJJJ@Z 
?Initialize@CShell@@QAEXXZ 
?Initialize@MsgBoxMgr@@QAEXXZ 
?InitializeFromNet@CEntity@@UAEXXZ 
?InitializePlayer@CPlayerEntity@@QAEXKK@Z 
?InitializeShaders@@YAXXZ 
?InitializeShaders@CShockWaveEffect@@SAXXZ 
?InitializeShaders@CSplineBillboardEffect@@SAXXZ 
?InitializeShaders@CTraceEffect@@SAXXZ 
?InitializeShadowMap@CBrushPolygon@@QAEXXZ 
?Initialize_EffectSystem@@YAHPBVCTFileName@@@Z 
?Initialize_internal@CEntity@@QAEXABVCEntityEvent@@@Z 
?InsertChar@CTString@@QAEXJD@Z 
?InsertChar@CUIEditBox@@QAEXHD@Z 
?InsertChars@CUIEditBox@@QAEXHPAD@Z 
?InsertCommaToString@CUIManager@@QAEXAAVCTString@@@Z 
?InsertIMEChar@CUIEditBox@@IAEXPADH@Z 
?InsertString@CUIListBox@@QAEXHHAAVCTString@@KHH@Z 
?InsertSubMessage@CNetworkMessage@@QAEXABV1@@Z 
?InsertSubString@CTString@@QAEXJABV1@@Z 
?InsertVertexIntoTriangle@CBrushSector@@QAEXAAV?$CSelection@VCBrushPolygon@@$0BAA@@@V?$Vector@M$02@@@Z 
?Instance@CEffectGroupManager@@SAAAV1@XZ 
?Instance@CEffectManager@@SAAAV1@XZ 
?Instance@CParticleGroupManager@@SAAAV1@XZ 
?Instance@CPetInfo@@SAAAV1@XZ 
?Instance@CQuestSystem@@SAAAV1@XZ 
?Instance@CRandomTable@@SAAAV1@XZ 
?Instance@CSlaveInfo@@SAAAV1@XZ 
?Instance@CTransformInfo@@SAAAV1@XZ 
?InteractionMsgBoxReject@CUIManager@@QAEXXZ 
?Invalidate@CShadowMap@@QAEXH@Z 
?Invalidate@CUpdateable@@QAEXXZ 
?Invalidate@CUpdateableRT@@QAEXXZ 
?InvenFrameInit@CUICashShopEX@@IAEXMM@Z 
?Inverse@CObject3D@@QAEXXZ 
?Is2ByteChar@CUIEditBox@@IAEHHH@Z 
?Is2rdLocal@CCommunicationInterface@@QAEHXZ 
?IsActionApplied@CMovableEntity@@UAEHXZ 
?IsActionSitting@CPlayerEntity@@UAEHXZ 
?IsActive@CPlayerSource@@QAEHXZ 
?IsActive@CSoundLibrary@@QAEHXZ 
?IsAffinityNPC@CMobData@@QAEHXZ 
?IsAlreadyDie@CPlayerEntity@@UAEHXZ 
?IsAnimFinished@CAnimObject@@QBEHXZ 
?IsAnimationPlaying@CEntity@@QAEHJJ@Z 
?IsAnimationPlaying@CModelInstance@@QAEHJ@Z 
?IsAttackMe@CNetworkLibrary@@QAE_NH@Z 
?IsAttacking@CPlayerEntity@@UAEHXZ 
?IsAuctionChar@CMobData@@QBEHXZ 
?IsAutoFreed@CEntityClass@@UAEHXZ 
?IsAutoFreed@CModelData@@UAEHXZ 
?IsAutoFreed@CModelInstanceSerial@@UAEHXZ 
?IsAutoFreed@CSerial@@UAEHXZ 
?IsAutoFreed@CSoundData@@UAEHXZ 
?IsAutoFreed@CTextureData@@UAEHXZ 
?IsAutoMipBrushingOn@CWorldRenderPrefs@@QAEHXZ 
?IsAutoMipModeling@CModelObject@@QAEHXZ 
?IsAvailableRide@CEntity@@UAEHXZ 
?IsBackgroundTextureOn@CWorldRenderPrefs@@QAEHXZ 
?IsBegin@cWeb@@QAEHXZ 
?IsBigger@@YAHKK@Z 
?IsBlack@@YAHK@Z 
?IsBoss@CMobData@@QBEHXZ 
?IsBuff@CCharacterTarget@@QAEHJ@Z 
?IsBuff@CUIBuff@@QAEHJ@Z 
?IsBuffBySkill@CCharacterTarget@@QAEPAVCEffectGroup@@J@Z 
?IsCSFlagOn@CUIManager@@QAEKK@Z 
?IsCSFlagOnElapsed@CUIManager@@QAEKKM@Z 
?IsCastleGuard@CMobData@@QBEHXZ 
?IsCastleTower@CMobData@@QBEHXZ 
?IsChangeWeapon@CMobData@@QBEHXZ 
?IsChanging@CPlayerEntity@@UAEHXZ 
?IsChannelFlag@CMobData@@QAE_NH@Z 
?IsChaoVill@CMobData@@QBEHXZ 
?IsCharDefined@CFontData@@QBEHD@Z 
?IsCharacter@CEntity@@UBEHXZ 
?IsChecked@CUICheckButton@@QBEHXZ 
?IsCollect@CMobData@@QBEHXZ 
?IsCollectQuest@CMobData@@QBEHXZ 
?IsCollsionModel@CMobData@@QAEHXZ 
?IsComplete@CUIProgressBar@@QBEHXZ 
?IsCompleteQuest@Quest@@QAE_NH@Z 
?IsCompressed@CTextureData@@QAEHXZ 
?IsConfuse@CStatusEffect@@QAEHXZ 
?IsConnectionStable@CNetworkLibrary@@QAEHXZ 
?IsContract@CAffinityData@@QBE?BHH@Z 
?IsCorrectStage@StageMgr@@AAEHW4eSTAGE@@@Z 
?IsCrafting@CMobData@@QBEHXZ 
?IsCreatableNightShadow@CGameState@@QBE?BHXZ 
?IsCrops@CMobData@@QBEHXZ 
?IsCurrentModeAccelerated@CGfxLibrary@@QAEHXZ 
?IsCurrentModeDH@CGfxLibrary@@QAEHXZ 
?IsCurrentModeTH@CGfxLibrary@@QAEHXZ 
?IsDerivedFromClass@@YAHPAVCEntity@@PAVCDLLEntityClass@@@Z 
?IsDerivedFromClass@@YAHPAVCEntity@@PBD@Z 
?IsDisconnected@CNetworkLibrary@@QAEHXZ 
?IsDisconnected@CSessionState@@QAEHXZ 
?IsDoing@CUIProgressBar@@QBEHXZ 
?IsDonate@CAffinityData@@QBE?BHH@Z 
?IsDonationItem@CAffinityData@@QAE_NHH@Z 
?IsDontAttack@CMobData@@QAEHXZ 
?IsDropList@CUIComboBox@@QAEHXZ 
?IsDualHead@CDisplayMode@@QAEHXZ 
?IsDualHead@CDrawPort@@QAEHXZ 
?IsDynamicAlpha@CEffectControl@@QAEHXZ 
?IsDynamicAlpha@CParticlesProcessDynamicState@@QAEHXZ 
?IsDynamicAngle@CEffectControl@@QAEHXZ 
?IsDynamicAngle@CParticlesProcessDynamicState@@QAEHXZ 
?IsDynamicColor@CEffectControl@@QAEHXZ 
?IsDynamicColor@CParticlesProcessDynamicState@@QAEHXZ 
?IsDynamicDeltaPos@CParticlesProcessDynamicState@@QAEHXZ 
?IsDynamicMass@CParticlesProcessDynamicState@@QAEHXZ 
?IsDynamicPos@CEffectControl@@QAEHXZ 
?IsDynamicSize@CParticlesProcessDynamicState@@QAEHXZ 
?IsDynamicStretch@CEffectControl@@QAEHXZ 
?IsDynamicTexPos@CParticlesProcessDynamicState@@QAEHXZ 
?IsEditBoxFocused@CUICashShopEX@@UAEHXZ 
?IsEditBoxFocused@CUIGuildBattle@@UAEHXZ 
?IsEditBoxFocused@CUILoginNew@@UAEHXZ 
?IsEditBoxFocused@MsgBoxMgr@@QAEHXZ 
?IsEditorModelsOn@CWorldRenderPrefs@@QAEHXZ 
?IsEllipsis@CUITextBox@@QAE_NXZ 
?IsEmpty@CListHead@@QBEHXZ 
?IsEmpty@CTString@@QBEHXZ 
?IsEmpty@CUIIcon@@QAE_NXZ 
?IsEmptyBrush@CEntity@@QBEHXZ 
?IsEnemy@CEntity@@UBEHXZ 
?IsEnemy@CUIGuildBattle@@QAEHK@Z 
?IsEnemy@CUIManager@@QAEHPAXW4_tagTargetType@@H@Z 
?IsEnemyGuild@CUIGuildBattle@@QAEHK@Z 
?IsEnemySpawner@CEntity@@UBEHXZ 
?IsEnergy@CMobData@@QBEHXZ 
?IsEqualCaseSensitive@@YAHPBDABVCTString@@@Z 
?IsEqualCaseSensitive@CTString@@QBEHABV1@@Z 
?IsEqualCaseSensitive@CTString@@QBEHPBD@Z 
?IsEternal@CMobData@@QBEHXZ 
?IsEvent@CMobData@@QBEHXZ 
?IsExclusiveSingleMode@CItemData@@QAEHXZ 
?IsExist@MsgBoxMgr@@QAEHI@Z 
?IsExistOfflineMember@Party@@QAEHXZ 
?IsExpedetionDataExist@Party@@QAE_NHH@Z 
?IsExpedetionMember@Party@@QAE_NJ@Z 
?IsExtensionState@CNetworkLibrary@@QAEHHAAVCItemData@@@Z 
?IsF2KeyPressed@CInput@@QAEHXZ 
?IsF3KeyPressed@CInput@@QAEHXZ 
?IsFaceDecoMode@CUIInitJob@@QAEHXZ 
?IsFieldBrushesOn@CWorldRenderPrefs@@QAEHXZ 
?IsFileReadOnly@@YAHABVCTFileName@@@Z 
?IsFirstExtraFlagOff@CEntity@@QAEKK@Z 
?IsFirstExtraFlagOn@CEntity@@QAEKK@Z 
?IsFirstMip@CBrushMip@@QAEHXZ 
?IsFixedWidth@CFontData@@QBEHXZ 
?IsFlag@CItemData@@QBE_N_J@Z 
?IsFlagOff@CEntity@@QAEKK@Z 
?IsFlagOn@CEntity@@QAEKK@Z 
?IsFlat@CShadowMap@@QAEHXZ 
?IsFocusAllEditBox@CUIManager@@QAEHXZ 
?IsFocusInAllEditbox@CUIManager@@QBEHXZ 
?IsFocused@CUIBase@@UBEHXZ 
?IsFocusedInAll@CUIEditBox@@QAE?BHXZ 
?IsFocusingEditBox@CUIEditBox@@SA?BHXZ 
?IsFogOn@CWorldRenderPrefs@@QAEHXZ 
?IsGBReq@CUIGuildBattle@@QAEHXZ 
?IsGameFinished@CNetworkLibrary@@QAEHXZ 
?IsGray@@YAHK@Z 
?IsGuard@CMobData@@QBEHXZ 
?IsGuild@CMobData@@QBEHXZ 
?IsHazeOn@CWorldRenderPrefs@@QAEHXZ 
?IsHead@CListNode@@QBEHXZ 
?IsHeadMarker@CListNode@@QBEHXZ 
?IsHelmet@CPlayerEntity@@UAEHJ@Z 
?IsHiddenLinesOn@CWorldRenderPrefs@@QAEHXZ 
?IsHold@CStatusEffect@@QAEHXZ 
?IsHomePressed@CInput@@QAEHXZ 
?IsHooked@CSoundObject@@QBEHXZ 
?IsHudModel_Used@CPlayerEntity@@UAEHXZ 
?IsHunterVill@CMobData@@QBEHXZ 
?IsIKeyPressed@CInput@@QAEHXZ 
?IsIdle@CPlayerEntity@@UAEHXZ 
?IsIdle@CUIProgressBar@@QBEHXZ 
?IsImportant@CEntity@@UBEHXZ 
?IsInBattle@CUIGuildBattle@@QAEHXZ 
?IsInitUpdateMasterBuffer@CCommunicationInterface@@QAEHXZ 
?IsInputEnabled@CInput@@QBEHXZ 
?IsInputLock@CUIManager@@QAEHXZ 
?IsInside@CUIBase@@QAEHHH@Z 
?IsInsideUpperUIs@CUIManager@@QAEHJHH@Z 
?IsInstantZone@CUIManager@@QAEHH@Z 
?IsInteger@CTString@@QAEHXZ 
?IsIntersecting@CIntersector@@QAEHXZ 
?IsIsometric@CAnyProjection3D@@QAEHXZ 
?IsJKeyPressed@CInput@@QAEHXZ 
?IsKKeyPressed@CInput@@QAEHXZ 
?IsKeepTitleInfo@CustomTitleData@@SA_NH@Z 
?IsLControlKeyPressed@CInput@@QAEHXZ 
?IsLControlKeyPressing@CInput@@QAEHXZ 
?IsLMouseButtonPressed@CInput@@QAEHXZ 
?IsLMousePressed@CInput@@QAEHXZ 
?IsLabeled@Party@@QAEHJJ@Z 
?IsLearnSkill@CWildPetInfoUI@@QAEHH@Z 
?IsLegit@CPlayerEntity@@UAEHXZ 
?IsLegitimate@CCharacterTarget@@QAEHXZ 
?IsLinked@CListNode@@QBEHXZ 
?IsLocalType@CParticlesEmitter@@QAEHXZ 
?IsLocked@CTSingleLock@@QAEHXZ 
?IsLord@CNetworkLibrary@@QAE_NXZ 
?IsLordItem@CItemData@@SA_NH@Z 
?IsLordSymbol@CMobData@@QBEHXZ 
?IsMKeyPressed@CInput@@QAEHXZ 
?IsMakeItemNPC@CMobData@@QAEHXZ 
?IsMarker@CEntity@@UBEHXZ 
?IsMember@CSelectedEntities@@QAEHVCEntityPointer@@@Z 
?IsMercenary@CMobTarget@@QAEHXZ 
?IsMercenaryCardHolder@CItemData@@QAE_NXZ 
?IsMineral@CMobData@@QBEHXZ 
?IsMirrorsOn@CWorldRenderPrefs@@QAEHXZ 
?IsModelVisible@CModelInstance@@QAEHM@Z 
?IsModelVisible@CModelObject@@QAEHM@Z 
?IsModified@CTextureData@@QAEHXZ 
?IsMouseInsideUIs@CUIManager@@QBEHXZ 
?IsMovable@CMobData@@QBEHXZ 
?IsMoving@CPlayerEntity@@UAEHXZ 
?IsMyBadBuffCount@CUIBuff@@QAEEXZ 
?IsMyGoodBuffCount@CUIBuff@@QAEEXZ 
?IsMyQuarter@CMobData@@QBEHXZ 
?IsMySubJob@CNetworkLibrary@@QAEHJ@Z 
?IsNPC@CMobData@@QBEHXZ 
?IsNPC@CMobTarget@@QBEHXZ 
?IsNPCFlag2nd@CMobData@@QBEHK@Z 
?IsNetworkEnabled@CCommunicationInterface@@QAEHXZ 
?IsNetworkEnabled@CNetworkLibrary@@QAEHXZ 
?IsNetworkOn@CCommunicationInterface@@QAEHXZ 
?IsNewItemEffectRender@CInvenData@@QAEHXZ 
?IsNightShadow@CharacterCreateNew@@QAEHXZ 
?IsNotRenderAtThisFrame@CEffect@@QAEHXZ 
?IsNotTranslated@CUIManager@@QAEHW4eNoTransType@@H@Z 
?IsNum0KeyPressed@CInput@@QAEHXZ 
?IsNum1KeyPressed@CInput@@QAEHXZ 
?IsNum2KeyPressed@CInput@@QAEHXZ 
?IsNum3KeyPressed@CInput@@QAEHXZ 
?IsNum4KeyPressed@CInput@@QAEHXZ 
?IsNum5KeyPressed@CInput@@QAEHXZ 
?IsNum6KeyPressed@CInput@@QAEHXZ 
?IsNum9KeyPressed@CInput@@QAEHXZ 
?IsOKeyPressed@CInput@@QAEHXZ 
?IsObjectPlaneVisible@CIsometricProjection3D@@UBEHABV?$Plane@M$02@@@Z 
?IsObjectPlaneVisible@CParallelProjection3D@@UBEHABV?$Plane@M$02@@@Z 
?IsObjectPlaneVisible@CPerspectiveProjection3D@@UBEHABV?$Plane@M$02@@@Z 
?IsObjectPlaneVisible@CSimpleProjection3D@@UBEHABV?$Plane@M$02@@@Z 
?IsOfClass@@YAHPAVCEntity@@PAVCDLLEntityClass@@@Z 
?IsOfClass@@YAHPAVCEntity@@PBD@Z 
?IsOfSameClass@@YAHPAVCEntity@@0@Z 
?IsOnline@Party@@QAE_NH@Z 
?IsOptionPrizeExist@CQuestDynamicData@@QAEJXZ 
?IsOurParty@Party@@QAEHJ@Z 
?IsOurParty@Party@@QAE_NVCTString@@@Z 
?IsOurPartyPos@Party@@QAEHVCTString@@@Z 
?IsOverlappedRendering@CDrawPort@@QBEHXZ 
?IsPKeyPressed@CInput@@QAEHXZ 
?IsParallel@CAnyProjection3D@@QAEHXZ 
?IsParasite@CMobTarget@@QAEHXZ 
?IsPartyFull@Party@@QAEHXZ 
?IsPartyLeader@Party@@QAEHH@Z 
?IsPartyMember@Party@@QAE_NJ@Z 
?IsPartyMob@CMobData@@QBEHXZ 
?IsPartyRequested@Party@@QAEHXZ 
?IsPaused@CAnimObject@@QAEHXZ 
?IsPaused@CNetworkLibrary@@QAEHXZ 
?IsPaused@CSoundObject@@QBEHXZ 
?IsPeaceful@CMobData@@QBEHXZ 
?IsPerspective@CAnyProjection3D@@QAEHXZ 
?IsPerspective@CPerspectiveProjection3D@@UAEHXZ 
?IsPerspective@CProjection3D@@UAEHXZ 
?IsPet@CEntity@@UBEHXZ 
?IsPet@CUIManager@@QAEHPAVCItemData@@@Z 
?IsPetActing@CPlayerEntity@@UAEHXZ 
?IsPlayAnim@CGameState@@QAE_NHHHJ@Z 
?IsPlayInZone@CUIManager@@QAEHXZ 
?IsPlayer@CEntity@@UAEHXZ 
?IsPlayer@CPlayerEntity@@UAEHXZ 
?IsPlayerLocal@CNetworkLibrary@@QAEHPAVCEntity@@@Z 
?IsPlaying@CSoundObject@@QBEHXZ 
?IsPlayingDemo@CNetworkLibrary@@QAEHXZ 
?IsPointVisible@CDrawPort@@QBEHAAVCAnyProjection3D@@JJMJJ@Z 
?IsPolygonBelowPoint@CMovableEntity@@QAEHPAVCBrushPolygon@@ABV?$Vector@M$02@@M@Z 
?IsPolymophing@CPlayerEntity@@UAEHXZ 
?IsPopupOpened@CUICashShopEX@@QAEHXZ 
?IsPreBegin@cWeb@@QAEHXZ 
?IsPresent@CAffinityData@@QBE?BHH@Z 
?IsPrizeExist@CQuestDynamicData@@QAEJXZ 
?IsProduct@CPlayerEntity@@UAEHXZ 
?IsProductionItem@CItemData@@QAEHXZ 
?IsQKeyPressed@CInput@@QAEHXZ 
?IsQuest@CMobData@@QBEHXZ 
?IsQuestComplete@CQuestDynamicData@@QAEHXZ 
?IsRKeyPressed@CInput@@QAEHXZ 
?IsRMouseButtonPressed@CInput@@QAEHXZ 
?IsRMousePressed@CInput@@QAEHXZ 
?IsRaidNow@Quest@@QAEHXZ 
?IsReTripleAvailable@CBrushSector@@QAEHAAV?$CSelection@VCBrushPolygon@@$0BAA@@@@Z 
?IsReadable@CTFileStream@@UAEHXZ 
?IsReadable@CTMemoryStream@@UAEHXZ 
?IsReadyRequest@cWeb@@QAEHXZ 
?IsReadyStart@CNetworkLibrary@@QAEHXZ 
?IsReapplyingActions@CMovableEntity@@UAEHXZ 
?IsRefiner@CMobData@@QBEHXZ 
?IsRegister@CTagManager@@QAEHAAV?$basic_string@DU?$char_traits@D@std@@V?$allocator@D@2@@std@@@Z 
?IsRegister@CTagManager@@QAEHPBD@Z 
?IsRegistered@CEffectGroupManager@@QAEHV?$basic_string@DU?$char_traits@D@std@@V?$allocator@D@2@@std@@@Z 
?IsRegistered@CEffectManager@@QAEHV?$basic_string@DU?$char_traits@D@std@@V?$allocator@D@2@@std@@@Z 
?IsRegistered@CParticleGroupManager@@QAEHV?$basic_string@DU?$char_traits@D@std@@V?$allocator@D@2@@std@@@Z 
?IsRemission@CMobData@@QBEHXZ 
?IsRequest@cWeb@@QAEHXZ 
?IsResetStat@CMobData@@QBEHXZ 
?IsResource@CMobData@@QBEHXZ 
?IsRestartGame@CGameState@@QAEHXZ 
?IsRestritionItem@CUIIcon@@QAE_NXZ 
?IsRide@CPetInfo@@QAEHHH@Z 
?IsRidePet@CPlayerEntity@@UAEHPAVCEntity@@@Z 
?IsRvrZone@CNetworkLibrary@@QAEHXZ 
?IsSSkillMaster@CMobData@@QBEHXZ 
?IsSameTarget@CPlayerEntity@@UAEHPAVCEntity@@@Z 
?IsSecondExtraFlagOff@CEntity@@QAEKK@Z 
?IsSecondExtraFlagOn@CEntity@@QAEKK@Z 
?IsSeekable@CTFileStream@@UAEHXZ 
?IsSeekable@CTMemoryStream@@UAEHXZ 
?IsSelected@CBrushPolygon@@QBEHK@Z 
?IsSelected@CBrushSector@@QBEHK@Z 
?IsSelected@CBrushVertex@@QBEHK@Z 
?IsSelected@CEntity@@QBEHK@Z 
?IsSelectedQuest@Quest@@QAE_NABH@Z 
?IsSentOverNet@CEntity@@UBEHXZ 
?IsServer@CNetworkLibrary@@QAEHXZ 
?IsShadowFlat@CBrushShadowMap@@UAEHAAK@Z 
?IsShadowFlat@CShadowMap@@UAEHAAK@Z 
?IsShadowNPC@CMobData@@QBEHXZ 
?IsShop@CAffinityData@@QBE?BHH@Z 
?IsShopper@CMobData@@QBEHXZ 
?IsShowAni@CUIManager@@QAEHXZ 
?IsShowCompletePercentText@CUIProgressBar@@QBE?BHXZ 
?IsShowDoingPercentText@CUIProgressBar@@QBE?BHXZ 
?IsShowEntityNamesOn@CWorldRenderPrefs@@QAEHXZ 
?IsShowGMNotice@CUIAutoHelp@@QAEHXZ 
?IsShowIdlePercentText@CUIProgressBar@@QBE?BHXZ 
?IsShowPercentText@CUIProgressBar@@QBE?BHXZ 
?IsShowTargetsOn@CWorldRenderPrefs@@QAEHXZ 
?IsSimple@CAnyProjection3D@@QAEHXZ 
?IsSitting@CPlayerEntity@@UAEHXZ 
?IsSkillMaster@CMobData@@QBEHXZ 
?IsSkilling@CPlayerEntity@@UAEHXZ 
?IsSlave@CEntity@@UBEHXZ 
?IsSocialActing@CPlayerEntity@@UAEHXZ 
?IsSomeNearPolygonBelowPoint@CMovableEntity@@QAEHABV?$Vector@M$02@@M@Z 
?IsSomeSectorPolygonBelowPoint@CMovableEntity@@QAEHPAVCBrushSector@@ABV?$Vector@M$02@@M@Z 
?IsSpecial@CUIIcon@@QAE_NXZ 
?IsStandingOnPolygon@CMovableEntity@@QAEHPAVCBrushPolygon@@@Z 
?IsState@CStatusEffect@@QAEHJ@Z 
?IsStatusChanged@CStatusEffect@@QAEH_J@Z 
?IsSturn@CStatusEffect@@QAEHXZ 
?IsSuit@CUIIcon@@QAE_NXZ 
?IsTKeyPressed@CInput@@QAEHXZ 
?IsTabKeyPressed@CInput@@QAEHXZ 
?IsTail@CListNode@@QBEHXZ 
?IsTailMarker@CListNode@@QBEHXZ 
?IsTargetActive@ObjInfo@@QAEHW4eTARGET_TYPE@@@Z 
?IsTargetPKHide@ObjInfo@@QAEHXZ 
?IsTargetValid@CEntity@@UAEHJPAV1@@Z 
?IsTargetable@CEntity@@UBEHXZ 
?IsTextureLayerOn@CWorldRenderPrefs@@QAEHJ@Z 
?IsTotem@CMobTarget@@QAEHXZ 
?IsTotemItem@CMobData@@QBEHXZ 
?IsTransform@CPlayerEntity@@UBE?BHXZ 
?IsTransforming@CPlayerEntity@@UAEHXZ 
?IsTrap@CMobTarget@@QAEHXZ 
?IsTripleHead@CDisplayMode@@QAEHXZ 
?IsTripleHead@CDrawPort@@QAEHXZ 
?IsUIVisible@CUIManager@@QAEHH@Z 
?IsUKeyPressed@CInput@@QAEHXZ 
?IsUniqueItem@CItemData@@SA_NH@Z 
?IsUpToDate@CAnimObject@@QBEHABVCUpdateable@@@Z 
?IsUpToDate@CChangeable@@QBEHABVCUpdateable@@@Z 
?IsUpToDate@CChangeableRT@@QBEHABVCUpdateableRT@@@Z 
?IsUsableSkill@CWildPetInfoUI@@QAEHJ@Z 
?IsUseParticlePos@CParticlesProcessControl@@QAEHXZ 
?IsUsed@CSerial@@QAEHXZ 
?IsVFT_GoodList@CUICashShopEX@@QAE_NXZ 
?IsVKeyPressed@CInput@@QAEHXZ 
?IsValid@CEntityID@@QAEHXZ 
?IsValid@CListHead@@QBEHXZ 
?IsValid@CListNode@@QBEHXZ 
?IsValidCreated@CEffectGroupManager@@QAE_NPAVCEffectGroup@@@Z 
?IsValidCreated@CEffectManager@@QAE_NPAVCEffect@@@Z 
?IsValidDouble@@YAHN@Z 
?IsValidFloat@@YAHM@Z 
?IsValidIP@CCommunicationInterface@@IAEHXZ 
?IsViewerPlaneVisible@CIsometricProjection3D@@UBEHABV?$Plane@M$02@@@Z 
?IsViewerPlaneVisible@CParallelProjection3D@@UBEHABV?$Plane@M$02@@@Z 
?IsViewerPlaneVisible@CPerspectiveProjection3D@@UBEHABV?$Plane@M$02@@@Z 
?IsViewerPlaneVisible@CSimpleProjection3D@@UBEHABV?$Plane@M$02@@@Z 
?IsVisTweaksDisabled@CWorldRenderPrefs@@QAEHXZ 
?IsVisTweaksOn@CWorldRenderPrefs@@QAEHXZ 
?IsVisibleUIs@CUIManager@@QAEHXZ 
?IsWaitingForPlayers@CNetworkLibrary@@QAEHXZ 
?IsWaitingForServer@CNetworkLibrary@@QAEHXZ 
?IsWarCastle@CMobData@@QBEHXZ 
?IsWareHouse@CMobData@@QBEHXZ 
?IsWearTab@CUIIcon@@QAE_NXZ 
?IsWebHandle@cWeb@@QAEHXZ 
?IsWheelPressed@CInput@@QAEHXZ 
?IsWhite@@YAHK@Z 
?IsWideScreen@CDisplayMode@@QAEHXZ 
?IsWideScreen@CDrawPort@@QAEHXZ 
?IsWildPet@CEntity@@UBEHXZ 
?IsWildPet@CUIManager@@QAEHPAVCItemData@@@Z 
?IsWriteable@CTFileStream@@UAEHXZ 
?IsWriteable@CTMemoryStream@@UAEHXZ 
?IsZoneMoving@CMobData@@QBEHXZ 
?Is_MyChar_MorphStatus_MORPH_END@CNetworkLibrary@@QAE_NXZ 
?ItemLevelDown@CNetworkLibrary@@QAEXFF@Z 
?ItemNameColorInI@CUIManager@@QAEXXZ 
?ItemPlusEffectReq@CNetworkLibrary@@QAEXC@Z 
?IterationHead@CListHead@@QBEAAVCListNode@@XZ 
?IterationInsertAfter@CListNode@@QAEXAAV1@@Z 
?IterationInsertBefore@CListNode@@QAEXAAV1@@Z 
?IterationPred@CListNode@@QBEAAV1@XZ 
?IterationSucc@CListNode@@QBEAAV1@XZ 
?IterationTail@CListHead@@QBEAAVCListNode@@XZ 
?JoinAllPossiblePolygons@CWorld@@QAEXAAV?$CSelection@VCBrushPolygon@@$0BAA@@@HJ@Z 
?JoinContinuingEdges@CObjectPolygon@@QAEXAAV?$CDynamicArray@VCObjectEdge@@@@@Z 
?JoinPolygons@CWorld@@QAEXAAV?$CSelection@VCBrushPolygon@@$0BAA@@@@Z 
?JoinSectors@CWorld@@QAEXAAV?$CSelection@VCBrushSector@@$00@@@Z 
?JoinSession_t@CNetworkLibrary@@QAEXABVCNetworkSession@@J@Z 
?JoinTwoSectors@CWorld@@QAEPAVCBrushSector@@AAV2@0@Z 
?Jump@CEntity@@QAEXJJHABVCEntityEvent@@@Z 
?Jump@CRationalEntity@@QAEXJJHABVCEntityEvent@@@Z 
?KeyMessage@CUIBase@@UAE?AW4WMSG_RESULT@@PAUtagMSG@@@Z 
?KeyMessage@CUICashShopEX@@UAE?AW4WMSG_RESULT@@PAUtagMSG@@@Z 
?KeyMessage@CUIEditBox@@UAE?AW4WMSG_RESULT@@PAUtagMSG@@@Z 
?KeyMessage@CUIGuildBattle@@UAE?AW4WMSG_RESULT@@PAUtagMSG@@@Z 
?KeyMessageChild@CUIBase@@UAE?AW4WMSG_RESULT@@PAUtagMSG@@@Z 
?KeyMessageProc@CUIBase@@UAE?AW4WMSG_RESULT@@PAUtagMSG@@@Z 
?KeyMessageProc@CUITree@@UAE?AW4WMSG_RESULT@@PAUtagMSG@@@Z 
?KeyProc@MsgBoxMgr@@QAE?AW4WMSG_RESULT@@PAUtagMSG@@@Z 
?KillFocusEditBox@CUICashShopEX@@UAEXXZ 
?KillFocusEditBox@CUIGuildBattle@@UAEXXZ 
?KillFocusEditBox@CUILoginNew@@UAEXXZ 
?LButtonDBLClick@CUIBase@@UAE?AW4WMSG_RESULT@@GG@Z 
?LButtonDBLClick@CUITree@@UAE?AW4WMSG_RESULT@@GG@Z 
?LButtonDBLClickChild@CUIBase@@UAE?AW4WMSG_RESULT@@GG@Z 
?LButtonDown@CUIBase@@UAE?AW4WMSG_RESULT@@GG@Z 
?LButtonDown@CUITree@@UAE?AW4WMSG_RESULT@@GG@Z 
?LButtonDownChild@CUIBase@@UAE?AW4WMSG_RESULT@@GG@Z 
?LButtonUp@CUIBase@@UAE?AW4WMSG_RESULT@@GG@Z 
?LButtonUp@CUITree@@UAE?AW4WMSG_RESULT@@GG@Z 
?LButtonUpChild@CUIBase@@UAE?AW4WMSG_RESULT@@GG@Z 
?LastFrame@CAnimObject@@QAEXXZ 
?LastUpdateTime@CUpdateable@@QBEMXZ 
?LastUpdateTime@CUpdateableRT@@QBEMXZ 
?LaunchAsFreeProjectile@CMovableEntity@@QAEXABV?$Vector@M$02@@PAV1@@Z 
?LaunchAsPropelledProjectile@CMovableEntity@@QAEXABV?$Vector@M$02@@PAV1@@Z 
?LearnPetSkill@CNetworkLibrary@@QAEXJ@Z 
?LearnTheSkill@CUIAutoHelp@@QAEXH@Z 
?LearnWildPetSkill@CNetworkLibrary@@QAEXJ@Z 
?LeavePet@CNetworkLibrary@@QAEXPAVCEntity@@@Z 
?LeaveWildPet@CNetworkLibrary@@QAEXPAVCEntity@@@Z 
?LeavingPet@CPlayerEntity@@UAEXPAVCEntity@@@Z 
?LeavingWildPet@CPlayerEntity@@UAEXPAVCEntity@@@Z 
?Length@CTString@@QBEJXZ 
?Length@CTWString@@QBEJXZ 
?LengthNaked@CTString@@QBEJXZ 
?Lerp@CPlacement3D@@QAEXABV1@0M@Z 
?Lerp@CPlayerAction@@QAEXABV1@0M@Z 
?LerpColor@@YAKKKM@Z 
?LerpColor@@YAXKKMAAE00@Z 
?LifeProcess@CParticlesAbsorption@@IAEHAAVCParticle@@M@Z 
?LinkDataForSurfaces@CModelData@@QAEXH@Z 
?LinkEntitiesToSectors@CWorld@@QAEXXZ 
?LinkPortalsAndSectors@CBrushArchive@@QAEXXZ 
?Listen@CSoundLibrary@@QAEXAAVCSoundListener@@@Z 
?Live@CParticle@@QAEHM@Z 
?Live@CParticle@@QBEHXZ 
?Load@CQuestSystem@@QAE_NXZ 
?LoadAffinityDataFromFile@CAffinityData@@SAHAAV?$CStaticArray@VCAffinityData@@@@PBD@Z 
?LoadAny3DFormat_t@CObject3D@@QAEXABVCTFileName@@ABV?$Matrix@M$02$02@@W4LoadType@1@@Z 
?LoadAnyGfxFormat_t@CImageInfo@@QAEXABVCTFileName@@@Z 
?LoadBrushes_t@CWorld@@QAEXABVCTFileName@@@Z 
?LoadChannelData@CMobData@@SA_NPBD@Z 
?LoadCustomTitleDataFromFile@CustomTitleData@@SA_NPBD@Z 
?LoadFromScript_t@CAnimData@@QAEXPAVCTStream@@PAVCListHead@@@Z 
?LoadFromScript_t@CEditModel@@QAEXAAVCTFileName@@@Z 
?LoadHelp1Data@CUIManager@@IAEXABVCTFileName@@@Z 
?LoadHelp1String@CUIManager@@IAEXXZ 
?LoadIntVar@@YAXABVCTFileName@@AAJ@Z 
?LoadItemCollection@CWorld@@AAEXXZ 
?LoadItemCompose@CWorld@@AAEXXZ 
?LoadJewelItemDataFromFile@CItemData@@SAHAAV?$CStaticArray@UJewelComosInfo@@@@PBD@Z 
?LoadKeepCRLF_t@CTString@@QAEXABVCTFileName@@@Z 
?LoadLOD@CWorld@@QAEXXZ 
?LoadMapping_t@CEditModel@@QAEXVCTFileName@@J@Z 
?LoadModelAnimationData_t@CEditModel@@AAEXPAVCTStream@@ABV?$Matrix@M$02$02@@@Z 
?LoadObjInZoneData@CZoneInfo@@QAEHXZ 
?LoadPCX_t@CImageInfo@@AAEXABVCTFileName@@@Z 
?LoadRevision@CNews@@QAEXH@Z 
?LoadShopDataFromFile@CCashShopData@@SAHAAV1@PBD@Z 
?LoadShopDataFromFile@CCashShopData@@SAHAAV?$CStaticArray@VCCashShopData@@@@PBD@Z 
?LoadShopDataFromFile@CShopData@@SAHAAV?$CStaticArray@VCShopData@@@@PBD@Z 
?LoadSignBoardTexture@CUISignBoard@@QAEHHH@Z 
?LoadSkillAnimID@CPlayerEntity@@UAEXXZ 
?LoadStringAction@CWorld@@AAEXXZ 
?LoadStringAffinity@CWorld@@AAEXXZ 
?LoadStringCombo@CWorld@@AAEXXZ 
?LoadStringData@CUIManager@@IAEXABVCTFileName@@@Z 
?LoadStringItem@CWorld@@AAEXXZ 
?LoadStringItemCollection@CWorld@@AAEXXZ 
?LoadStringItemSet@CWorld@@AAEXXZ 
?LoadStringLacarette@CWorld@@AAEXXZ 
?LoadStringNPCName@CWorld@@QAEXXZ 
?LoadStringOption@CWorld@@AAEXXZ 
?LoadStringOptionRare@CWorld@@AAEXXZ 
?LoadStringQuest@CWorld@@AAEXXZ 
?LoadStringSkill@CWorld@@AAEXXZ 
?LoadStringSkillSpecial@CWorld@@AAEXXZ 
?LoadStringVar@@YAXABVCTFileName@@AAVCTString@@@Z 
?LoadTGA_t@CImageInfo@@AAEXABVCTFileName@@@Z 
?LoadTooltipString@CUICharacterInfo@@AAEXXZ 
?LoadVar@CTString@@QAEXABVCTFileName@@@Z 
?LoadWAV_t@CSoundData@@QAEXPAVCTStream@@J@Z 
?LoadXML@CUIWindowDeclare@@QAE_NPBD@Z 
?LoadZoneData@CMobData@@SA_NPBD@Z 
?Load_t@CEditModel@@QAEXVCTFileName@@@Z 
?Load_t@CNetworkLibrary@@QAEXABVCTFileName@@@Z 
?Load_t@CPlayerCharacter@@QAEXABVCTFileName@@@Z 
?Load_t@CSerial@@QAEXABVCTFileName@@@Z 
?Load_t@CTString@@QAEXABVCTFileName@@@Z 
?Load_t@CWorld@@QAEXABVCTFileName@@@Z 
?Load_t_ext@CWorld@@QAEXABVCTFileName@@@Z 
?Lock@CDrawPort@@QAEHXZ 
?Lock@CTSingleLock@@QAEXXZ 
?Lock@CUICharacterCreateNew@@QAEXH@Z 
?Lock@CUILoginNew@@QAEXH@Z 
?LockAll@CBrushSector@@QAEXXZ 
?LockAll@CWorld@@QAEXXZ 
?LockBuffer@CTMemoryStream@@QAEXPAPAXPAJ@Z 
?LockDrawPort@CGfxLibrary@@QAEHPAVCDrawPort@@@Z 
?LockRaster@CGfxLibrary@@QAEHPAVCRaster@@@Z 
?Lock_internal@CDrawPort@@QAEHXZ 
?LogOutput@@YAXPBDZZ 
?LogOutputChat@@YAXPBDZZ 
?LoginModelCreate@CLoginJobInfo@@QAEXXZ 
?LoginModelDelete@CLoginJobInfo@@QAEXXZ 
?LoopAnimEffect@CModelInstance@@QAEXJMMM@Z 
?LordCostumeReq@CNetworkLibrary@@QAEXXZ 
?LordGuildCostumeReq@CNetworkLibrary@@QAEXXZ 
?LordGuildTitleReq@CNetworkLibrary@@QAEXXZ 
?LostTarget@CPlayerEntity@@UAEXXZ 
?LostTarget@CUIManager@@QAEXXZ 
?MEM_CAlloc@@YAPAXII@Z 
?MEM_Free@@YAXPAX@Z 
?MEM_GetFreeMemory@@YAIXZ 
?MEM_MAlloc@@YAPAXI@Z 
?MEM_ReAlloc@@YAPAXPAXI@Z 
?MEM_Size@@YAIPAX@Z 
?MainLoop@CNetworkLibrary@@QAEXXZ 
?MainTabFrameInit@CUICashShopEX@@IAEXMM@Z 
?MakeAttributeMap@CBrushArchive@@QAEXJPAGJJJPAVCWorld@@H@Z 
?MakeBoxAtPlacement@CCollisionInfo@@QAEXABV?$Vector@M$02@@ABV?$Matrix@M$02$02@@AAV?$AABBox@M$02@@@Z 
?MakeCopy@CEntityEvent@@UAEPAV1@XZ 
?MakeCopy@EBegin@@UAEPAVCEntityEvent@@XZ 
?MakeCopy@EBlock@@UAEPAVCEntityEvent@@XZ 
?MakeCopy@EDamage@@UAEPAVCEntityEvent@@XZ 
?MakeCopy@EDeath@@UAEPAVCEntityEvent@@XZ 
?MakeCopy@EFirstWorldBase@@UAEPAVCEntityEvent@@XZ 
?MakeCopy@EInternal@@UAEPAVCEntityEvent@@XZ 
?MakeCopy@EPass@@UAEPAVCEntityEvent@@XZ 
?MakeCopy@EPlayerInit@@UAEPAVCEntityEvent@@XZ 
?MakeCopy@EPostLevelChange@@UAEPAVCEntityEvent@@XZ 
?MakeCopy@EPreLevelChange@@UAEPAVCEntityEvent@@XZ 
?MakeCopy@EReturn@@UAEPAVCEntityEvent@@XZ 
?MakeCopy@ETakingBreath@@UAEPAVCEntityEvent@@XZ 
?MakeCopy@ETeleport@@UAEPAVCEntityEvent@@XZ 
?MakeCopy@ETimer@@UAEPAVCEntityEvent@@XZ 
?MakeCopy@ETouch@@UAEPAVCEntityEvent@@XZ 
?MakeCopy@EVoid@@UAEPAVCEntityEvent@@XZ 
?MakeCopy@EWouldFall@@UAEPAVCEntityEvent@@XZ 
?MakeDirList@@YAXAAV?$CDynamicStackArray@VCTFileName@@@@ABVCTFileName@@ABVCTString@@K@Z 
?MakeFreePKAttributeMap@CBrushArchive@@QAEXPAGJJJPAVCWorld@@H@Z 
?MakeIndices@CBrushArchive@@QAEXXZ 
?MakeInfoForCondition@CQuestSystem@@QAE?AVCTString@@HHHHH@Z 
?MakeInverseRotationMatrix@@YAXAAV?$Matrix@M$02$02@@ABV?$Vector@M$02@@@Z 
?MakeInverseRotationMatrixFast@@YAXAAV?$Matrix@M$02$02@@ABV?$Vector@M$02@@@Z 
?MakeMappingVectors@CMappingDefinition@@QBEXABVCMappingVectors@@AAV2@@Z 
?MakeMessageBox@CUITatoo@@AAEXXZ 
?MakeMipmaps@@YAXPAKJJJ@Z 
?MakeOoKGradient@CIsometricProjection3D@@UBEXABV?$Plane@M$02@@AAVCPlanarGradients@@@Z 
?MakeOoKGradient@CParallelProjection3D@@UBEXABV?$Plane@M$02@@AAVCPlanarGradients@@@Z 
?MakeOoKGradient@CPerspectiveProjection3D@@UBEXABV?$Plane@M$02@@AAVCPlanarGradients@@@Z 
?MakeOoKGradient@CSimpleProjection3D@@UBEXABV?$Plane@M$02@@AAVCPlanarGradients@@@Z 
?MakePeaceAttributeMap@CBrushArchive@@QAEXPAGJJJPAVCWorld@@H@Z 
?MakePlanesFromVertices@CBrushSector@@QAEXXZ 
?MakeProductPrivateAttributeMap@CBrushArchive@@QAEXPAGJJJPAVCWorld@@H@Z 
?MakeProductPublicAttributeMap@CBrushArchive@@QAEXPAGJJJPAVCWorld@@H@Z 
?MakeQuestComplete@CQuestDynamicData@@QAEXXZ 
?MakeQuestFirstDesc@CQuestDynamicData@@IAEXXZ 
?MakeQuestNeedDesc@CQuestDynamicData@@IAEXXZ 
?MakeQuestOptionPrizeDesc@CQuestDynamicData@@IAEXXZ 
?MakeQuestPrizeDesc@CQuestDynamicData@@IAEXXZ 
?MakeQuestStatusDesc@CQuestDynamicData@@IAEXXZ 
?MakeQuestTitleDesc@CQuestDynamicData@@IAEXXZ 
?MakeQuestUncomplete@CQuestDynamicData@@QAEXXZ 
?MakeRotationMatrix@@YAXAAV?$Matrix@M$02$02@@ABV?$Vector@M$02@@@Z 
?MakeRotationMatrixFast@@YAXAAV?$Matrix@M$02$02@@ABV?$Vector@M$02@@@Z 
?MakeShadowMap@CBrushPolygon@@QAEXPAVCWorld@@H@Z 
?MakeStairAttributeMap@CBrushArchive@@QAEXPAGJJJPAVCWorld@@H@Z 
?MakeSubMipmap@@YAXPAK0J@Z 
?MakeSvrHeightMap@CBrushArchive@@QAEXPAGJJJH@Z 
?MakeUnWalkableAttributeMap@CBrushArchive@@QAEXPAGJJJPAVCWorld@@H@Z 
?MakeWalkableAttributeMap@CBrushArchive@@QAEXPAGJJJPAVCWorld@@H@Z 
?MakeWarAttributeMap@CBrushArchive@@QAEXPAGJJJPAVCWorld@@H@Z 
?MakeWideScreen@CDrawPort@@QAEXPAV1@@Z 
?Make_t@CFontData@@QAEXABVCTFileName@@JJAAV2@H@Z 
?MandateBoss@Party@@QAEXVCTString@@J0C@Z 
?MandateBossReq@CNetworkLibrary@@QAEXVCTString@@@Z 
?MandateBossReq@Party@@QAEXVCTString@@@Z 
?MarkChanged@CChangeable@@QAEXXZ 
?MarkChanged@CChangeableRT@@QAEXXZ 
?MarkDrawn@CShadowMap@@QAEXXZ 
?MarkDrawn@CTextureData@@QAEXXZ 
?MarkUnused@CSerial@@QAEXXZ 
?MarkUpdated@CUpdateable@@QAEXXZ 
?MarkUpdated@CUpdateableRT@@QAEXXZ 
?MarkUsed@CSerial@@QAEXXZ 
?MaskOfPlayersOnClient@CServer@@QAEKJ@Z 
?Matches@CTString@@QBEHABV1@@Z 
?Matches@CTString@@QBEHPBD@Z 
?Matrix12ToQVect@@YAXAAUQVect@@AAY0M@$$CBM@Z 
?Message@CUICashShopEX@@QAEXHVCTString@@0K@Z 
?Message@CUIGuildStash@@QAEXHVCTString@@K@Z 
?MgrBlock@CNetworkLibrary@@QAEXVCTString@@@Z 
?MgrDeleteMember@CNetworkLibrary@@QAEXHHVCTString@@@Z 
?MgrFriendChat@CNetworkLibrary@@QAEXHHVCTString@@@Z 
?MgrFriendDeleteBlock@CNetworkLibrary@@QAEXH@Z 
?MgrFriendInvite@CNetworkLibrary@@QAEXHHH@Z 
?MgrFriendOut@CNetworkLibrary@@QAEXHH@Z 
?MgrGroupAdd@CNetworkLibrary@@QAEXVCTString@@@Z 
?MgrGroupDel@CNetworkLibrary@@QAEXH@Z 
?MgrGroupMove@CNetworkLibrary@@QAEXHH@Z 
?MgrGroupRename@CNetworkLibrary@@QAEXHVCTString@@@Z 
?MgrOneVsOneConnect@CNetworkLibrary@@QAEXHHVCTString@@@Z 
?MgrRegistAllow@CNetworkLibrary@@QAEXHVCTString@@@Z 
?MgrRegistCancel@CNetworkLibrary@@QAEXHVCTString@@@Z 
?MgrRegistReq@CNetworkLibrary@@QAEXHVCTString@@@Z 
?MgrSetChatColor@CNetworkLibrary@@QAEXH@Z 
?MgrSetCondition@CNetworkLibrary@@QAEXHH@Z 
?MgrUnBlock@CNetworkLibrary@@QAEXH@Z 
?MipFactor@CIsometricProjection3D@@UBEMM@Z 
?MipFactor@CIsometricProjection3D@@UBEMXZ 
?MipFactor@CParallelProjection3D@@UBEMM@Z 
?MipFactor@CParallelProjection3D@@UBEMXZ 
?MipFactor@CPerspectiveProjection3D@@UBEMM@Z 
?MipFactor@CPerspectiveProjection3D@@UBEMXZ 
?MipFactor@CSimpleProjection3D@@UBEMM@Z 
?MipFactor@CSimpleProjection3D@@UBEMXZ 
?MirrorAndStretch@CEntity@@UAEXMH@Z 
?MirrorAndStretch@CWorld@@QAEXAAV1@MW4WorldMirrorType@@@Z 
?MirrorPlaneL@CProjection3D@@QAEAAV?$Plane@M$02@@XZ 
?MirrorPlaneR@CProjection3D@@QBEABV?$Plane@M$02@@XZ 
?MiscDamageInflictor@CMovableEntity@@QAEPAVCEntity@@XZ 
?MixLayers@CBrushShadowMap@@UAEXJJH@Z 
?MixLayers@CShadowMap@@UAEXJJH@Z 
?MixReq@CNetworkLibrary@@QAEXFFPAF0@Z 
?MixSounds@CSoundLibrary@@AAEXXZ 
?ModelChangeFace@CGameState@@QAEXPAVCEntity@@HJ@Z 
?ModelChangeHair@CGameState@@QAEXPAVCEntity@@HJ@Z 
?ModelChangeNotify@CEntity@@QAEXXZ 
?ModelPlayAnimation@CGameState@@QAEXPAVCEntity@@HJK@Z 
?MouseMessage@CUIBase@@UAE?AW4WMSG_RESULT@@PAUtagMSG@@@Z 
?MouseMessage@CUIButton@@UAE?AW4WMSG_RESULT@@PAUtagMSG@@@Z 
?MouseMessage@CUICashShopEX@@UAE?AW4WMSG_RESULT@@PAUtagMSG@@@Z 
?MouseMessage@CUICheckButton@@UAE?AW4WMSG_RESULT@@PAUtagMSG@@@Z 
?MouseMessage@CUIComboBox@@UAE?AW4WMSG_RESULT@@PAUtagMSG@@@Z 
?MouseMessage@CUIEditBox@@UAE?AW4WMSG_RESULT@@PAUtagMSG@@@Z 
?MouseMessage@CUIExpressSystem@@UAE?AW4WMSG_RESULT@@PAUtagMSG@@@Z 
?MouseMessage@CUIGuildBattle@@UAE?AW4WMSG_RESULT@@PAUtagMSG@@@Z 
?MouseMessage@CUIImageBox@@UAE?AW4WMSG_RESULT@@PAUtagMSG@@@Z 
?MouseMessage@CUIListBox@@UAE?AW4WMSG_RESULT@@PAUtagMSG@@@Z 
?MouseMessage@CUIOption@@UAE?AW4WMSG_RESULT@@PAUtagMSG@@@Z 
?MouseMessage@CUIScrollBar@@UAE?AW4WMSG_RESULT@@PAUtagMSG@@@Z 
?MouseMessage@CUISingleBattle@@UAE?AW4WMSG_RESULT@@PAUtagMSG@@@Z 
?MouseMessage@CUISlideBar@@UAE?AW4WMSG_RESULT@@PAUtagMSG@@@Z 
?MouseMessage@CUISpinButton@@UAE?AW4WMSG_RESULT@@PAUtagMSG@@@Z 
?MouseMessage@CUITatoo@@UAE?AW4WMSG_RESULT@@PAUtagMSG@@@Z 
?MouseMove@CUIBase@@UAE?AW4WMSG_RESULT@@GGPAUtagMSG@@@Z 
?MouseMove@CUITree@@UAE?AW4WMSG_RESULT@@GGPAUtagMSG@@@Z 
?MouseMoveChild@CUIBase@@UAE?AW4WMSG_RESULT@@GGPAUtagMSG@@@Z 
?MouseMoveLoop@CUICashShopEX@@IAE?AW4WMSG_RESULT@@PAUtagMSG@@W4CashShopFrame@1@@Z 
?MouseWheel@CUIBase@@UAE?AW4WMSG_RESULT@@GGH@Z 
?MouseWheel@CUITree@@UAE?AW4WMSG_RESULT@@GGH@Z 
?MouseWheelChild@CUIBase@@UAE?AW4WMSG_RESULT@@GGH@Z 
?Move@CUIBase@@QAEXHH@Z 
?MoveAcceleration@CParticle@@QAEXM@Z 
?MoveCursor@CUIEditBox@@IAEXW4MoveDirection@@@Z 
?MoveData@CUISpinControl@@QAEX_N@Z 
?MoveDataIndex@CUISpinButton@@QAEXH@Z 
?MoveEntityInCollisionGrid@CWorld@@QAEXPAVCEntity@@ABV?$AABBox@M$02@@1@Z 
?MoveList@CListHead@@QAEXAAV1@@Z 
?MoveOtherServer@CSessionState@@QAEXKVCTString@@K@Z 
?MovePatchRelative@CEditModel@@QAEXJV?$Vector@J$01@@@Z 
?MovePolygonEdges@CBrushPolygon@@QAEXAAV1@@Z 
?MoveProcess@CParticlesAbsorption@@IAEXAAVCParticle@@M@Z 
?MovePurchaseGoods@CUICashShopEX@@IAEXH@Z 
?MoveScrollPos@CUIScrollBar@@IAEXH@Z 
?MoveString@CUIListBox@@QAEXHHH@Z 
?MoveTargetBrushPartToObject@CWorld@@QAEXAAVCEntity@@AAV?$AABBox@N$02@@AAVCObject3D@@@Z 
?MoveVelocity@CParticle@@QAEXM@Z 
?MovesByTargetedRoute@CEntity@@UBEHAAVCTString@@@Z 
?MsgBoxBtnCommand@CUIManager@@QAEXHHAAVCTString@@@Z 
?MsgBoxCommand@CUICashShopEX@@UAEXHHAAVCTString@@0@Z 
?MsgBoxCommand@CUICashShopEX@@UAEXHHAAVCTString@@@Z 
?MsgBoxCommand@CUICharacterInfo@@UAEXHHAAVCTString@@@Z 
?MsgBoxCommand@CUIExpressSystem@@UAEXHHAAVCTString@@@Z 
?MsgBoxCommand@CUIGuildBattle@@UAEXHHAAVCTString@@@Z 
?MsgBoxCommand@CUIManager@@QAEXHHAAVCTString@@0@Z 
?MsgBoxCommand@CUIManager@@QAEXHHAAVCTString@@@Z 
?MsgBoxLCommand@CUICashShopEX@@UAEXHH@Z 
?MsgBoxLCommand@CUICharacterInfo@@UAEXHH@Z 
?MsgBoxLCommand@CUIGuildBattle@@UAEXHH@Z 
?MsgBoxLCommand@CUIManager@@QAEXHH@Z 
?MsgCommonCommand@CUIManager@@QAEXH@Z 
?MsgProc@CUIManager@@QAEXPAUtagMSG@@PAH@Z 
?MsgProc@MsgBoxMgr@@QAE?AW4WMSG_RESULT@@PAUtagMSG@@@Z 
?MsgProcWeb@CUIManager@@QAEXPAUtagMSG@@@Z 
?MsgSimpleProc@CUIManager@@QAEXPAUtagMSG@@@Z 
?MulColors@@YAKKK@Z 
?Mute@CSoundLibrary@@QAEXM@Z 
?MyCheckDratanWarInside@CUIManager@@QAEHXZ 
?NameForValue@CEntityPropertyEnumType@@QAEPBDJ@Z 
?NasNumToWord@CUIManager@@QAE?AVCTString@@_J@Z 
?NearClipDistanceL@CProjection3D@@QAEAAMXZ 
?NearClipDistanceR@CProjection3D@@QBEABMXZ 
?New@CEntityClass@@QAEPAVCEntity@@XZ 
?NewBrushMipAfter@CBrush3D@@QAEPAVCBrushMip@@PAV2@H@Z 
?NewBrushMipBefore@CBrush3D@@QAEPAVCBrushMip@@PAV2@H@Z 
?NewClearState@CEntity@@QAEXMJ@Z 
?NewClearState@CModelInstance@@QAEXM@Z 
?NewClonedState@CEntity@@QAEXMJ@Z 
?NewClonedState@CModelInstance@@QAEXM@Z 
?NewModel@CEditModel@@AAEXPAVCObject3D@@@Z 
?NextAnim@CAnimObject@@QAEXXZ 
?NextFrame@CAnimObject@@QAEXXZ 
?NextManualMipLevel@CModelObject@@QAEXXZ 
?NextQuestViewPage@Quest@@QAE_NXZ 
?NoExt@CTFileName@@QBE?AV1@XZ 
?Normalize@CPlayerAction@@QAEXXZ 
?NotifyCollisionChanged@CEntity@@QAEXXZ 
?NotifyGravityChanged@CEntity@@QAEXXZ 
?NotifyStatPoint@CUICharacterInfo@@QAEXXZ 
?ObjectFaceForwardL@CProjection3D@@QAEAAHXZ 
?ObjectFaceForwardR@CProjection3D@@QBEABHXZ 
?ObjectHalfFaceForwardL@CProjection3D@@QAEAAHXZ 
?ObjectHalfFaceForwardR@CProjection3D@@QBEABHXZ 
?ObjectHandleL@CProjection3D@@QAEAAV?$Vector@M$02@@XZ 
?ObjectHandleR@CProjection3D@@QBEABV?$Vector@M$02@@XZ 
?ObjectPlacementL@CProjection3D@@QAEAAVCPlacement3D@@XZ 
?ObjectPlacementL@CSimpleProjection3D_DOUBLE@@QAEAAVCPlacement3D@@XZ 
?ObjectPlacementR@CProjection3D@@QBEABVCPlacement3D@@XZ 
?ObjectPlacementR@CSimpleProjection3D_DOUBLE@@QBEABVCPlacement3D@@XZ 
?ObjectStretchL@CProjection3D@@QAEAAV?$Vector@M$02@@XZ 
?ObjectStretchL@CSimpleProjection3D_DOUBLE@@QAEAAV?$Vector@M$02@@XZ 
?ObjectStretchR@CProjection3D@@QBEABV?$Vector@M$02@@XZ 
?ObjectStretchR@CSimpleProjection3D_DOUBLE@@QBEABV?$Vector@M$02@@XZ 
?ObtainComponents_t@CEntityClass@@QAEXXZ 
?ObtainModelInstanceItem_t@@YAPAVCModelInstance@@AAV1@ABVCTString@@@Z 
?ObtainModelInstance_t@@YAPAVCModelInstance@@ABVCTString@@@Z 
?ObtainModelInstance_t@@YAXAAVCModelInstance@@ABVCTString@@@Z 
?ObtainWithCheck@CEntityComponent@@QAEXXZ 
?Obtain_t@CEntityComponent@@QAEXXZ 
?Obtain_t@CStock_CAnimData@@QAEPAVCAnimData@@ABVCTFileName@@@Z 
?Obtain_t@CStock_CAnimSet@@QAEPAVCAnimSet@@ABVCTFileName@@@Z 
?Obtain_t@CStock_CEntityClass@@QAEPAVCEntityClass@@ABVCTFileName@@@Z 
?Obtain_t@CStock_CFontData@@QAEPAVCFontData@@ABVCTFileName@@@Z 
?Obtain_t@CStock_CMesh@@QAEPAVCMesh@@ABVCTFileName@@@Z 
?Obtain_t@CStock_CModelData@@QAEPAVCModelData@@ABVCTFileName@@@Z 
?Obtain_t@CStock_CModelInstance@@QAEPAVCModelInstanceSerial@@ABVCTFileName@@@Z 
?Obtain_t@CStock_CShader@@QAEPAVCShader@@ABVCTFileName@@@Z 
?Obtain_t@CStock_CSkeleton@@QAEPAVCSkeleton@@ABVCTFileName@@@Z 
?Obtain_t@CStock_CSoundData@@QAEPAVCSoundData@@ABVCTFileName@@@Z 
?Obtain_t@CStock_CTextureData@@QAEPAVCTextureData@@ABVCTFileName@@@Z 
?OffSetAnimationQueue@CEntity@@QAEXMJ@Z 
?OffSetAnimationQueue@CModelInstance@@QAEXM@Z 
?OffsetPhase@CAnimObject@@QAEXM@Z 
?OffsetProgressPos@CUIProgressBar@@QAE?B_J_J@Z 
?OnChangeTab@CUITab@@QAEXH@Z 
?OnCharMessage@CUIBase@@UAE?AW4WMSG_RESULT@@PAUtagMSG@@@Z 
?OnCharMessage@CUICharacterCreateNew@@UAE?AW4WMSG_RESULT@@PAUtagMSG@@@Z 
?OnCharMessage@CUIEditBox@@UAE?AW4WMSG_RESULT@@PAUtagMSG@@@Z 
?OnCharMessage@CUISpinControl@@UAE?AW4WMSG_RESULT@@PAUtagMSG@@@Z 
?OnCloseProc@CUIBase@@UAE?AW4WMSG_RESULT@@XZ 
?OnCloseProc@CUIEditBox@@UAE?AW4WMSG_RESULT@@XZ 
?OnCloseProc@CUIIcon@@MAE?AW4WMSG_RESULT@@XZ 
?OnEnd@CEntity@@UAEXXZ 
?OnEnd@CMovableEntity@@UAEXXZ 
?OnEnd@CRationalEntity@@UAEXXZ 
?OnEnter@CUIBase@@UAEXGG@Z 
?OnEnter@CUIButton@@UAEXGG@Z 
?OnEnter@CUIIcon@@UAEXGG@Z 
?OnIMEMessage@CUIBase@@UAE?AW4WMSG_RESULT@@PAUtagMSG@@@Z 
?OnIMEMessage@CUIEditBox@@UAE?AW4WMSG_RESULT@@PAUtagMSG@@@Z 
?OnInitialize@CEntity@@UAEXABVCEntityEvent@@@Z 
?OnInitialize@CMovableEntity@@UAEXABVCEntityEvent@@@Z 
?OnInitialize@CRationalEntity@@UAEXABVCEntityEvent@@@Z 
?OnKeyMessage@CUIBase@@UAE?AW4WMSG_RESULT@@PAUtagMSG@@@Z 
?OnKeyMessage@CUICharacterCreateNew@@UAE?AW4WMSG_RESULT@@PAUtagMSG@@@Z 
?OnKeyMessage@CUIEditBox@@UAE?AW4WMSG_RESULT@@PAUtagMSG@@@Z 
?OnKeyMessage@CUILoginNew@@UAE?AW4WMSG_RESULT@@PAUtagMSG@@@Z 
?OnKeyMessage@CUISpinControl@@UAE?AW4WMSG_RESULT@@PAUtagMSG@@@Z 
?OnLButtonDBLClick@CUIBase@@UAE?AW4WMSG_RESULT@@GG@Z 
?OnLButtonDBLClick@CUIIcon@@UAE?AW4WMSG_RESULT@@GG@Z 
?OnLButtonDBLClick@CUIList@@UAE?AW4WMSG_RESULT@@GG@Z 
?OnLButtonDown@CUIArray@@UAE?AW4WMSG_RESULT@@GG@Z 
?OnLButtonDown@CUIBase@@UAE?AW4WMSG_RESULT@@GG@Z 
?OnLButtonDown@CUIButton@@UAE?AW4WMSG_RESULT@@GG@Z 
?OnLButtonDown@CUICharacterInfo@@UAE?AW4WMSG_RESULT@@GG@Z 
?OnLButtonDown@CUICheckButton@@UAE?AW4WMSG_RESULT@@GG@Z 
?OnLButtonDown@CUIComboBox@@UAE?AW4WMSG_RESULT@@GG@Z 
?OnLButtonDown@CUIEditBox@@UAE?AW4WMSG_RESULT@@GG@Z 
?OnLButtonDown@CUIIcon@@UAE?AW4WMSG_RESULT@@GG@Z 
?OnLButtonDown@CUIList@@UAE?AW4WMSG_RESULT@@GG@Z 
?OnLButtonDown@CUIScrollBar@@UAE?AW4WMSG_RESULT@@GG@Z 
?OnLButtonDown@CUIText@@UAE?AW4WMSG_RESULT@@GG@Z 
?OnLButtonDown@CUITreeItem@@UAE?AW4WMSG_RESULT@@GG@Z 
?OnLButtonUp@CUIBase@@UAE?AW4WMSG_RESULT@@GG@Z 
?OnLButtonUp@CUIButton@@UAE?AW4WMSG_RESULT@@GG@Z 
?OnLButtonUp@CUICharacterInfo@@UAE?AW4WMSG_RESULT@@GG@Z 
?OnLButtonUp@CUIComboBox@@UAE?AW4WMSG_RESULT@@GG@Z 
?OnLButtonUp@CUIEditBox@@UAE?AW4WMSG_RESULT@@GG@Z 
?OnLButtonUp@CUIScrollBar@@UAE?AW4WMSG_RESULT@@GG@Z 
?OnLButtonUp@CUIText@@UAE?AW4WMSG_RESULT@@GG@Z 
?OnLButtonUp@CUITreeItem@@UAE?AW4WMSG_RESULT@@GG@Z 
?OnLeave@CUIBase@@UAEXGG@Z 
?OnLeave@CUIButton@@UAEXGG@Z 
?OnLeave@CUIIcon@@UAEXGG@Z 
?OnMouseMove@CUIArray@@UAE?AW4WMSG_RESULT@@GGPAUtagMSG@@@Z 
?OnMouseMove@CUIBase@@UAE?AW4WMSG_RESULT@@GGPAUtagMSG@@@Z 
?OnMouseMove@CUICharacterInfo@@UAE?AW4WMSG_RESULT@@GGPAUtagMSG@@@Z 
?OnMouseMove@CUIComboBox@@UAE?AW4WMSG_RESULT@@GGPAUtagMSG@@@Z 
?OnMouseMove@CUIEditBox@@UAE?AW4WMSG_RESULT@@GGPAUtagMSG@@@Z 
?OnMouseMove@CUIIcon@@UAE?AW4WMSG_RESULT@@GGPAUtagMSG@@@Z 
?OnMouseMove@CUIList@@UAE?AW4WMSG_RESULT@@GGPAUtagMSG@@@Z 
?OnMouseMove@CUIListItem@@UAE?AW4WMSG_RESULT@@GGPAUtagMSG@@@Z 
?OnMouseMove@CUIScrollBar@@UAE?AW4WMSG_RESULT@@GGPAUtagMSG@@@Z 
?OnMouseWheel@CUIBase@@UAE?AW4WMSG_RESULT@@GGH@Z 
?OnMouseWheel@CUIScrollBar@@UAE?AW4WMSG_RESULT@@GGH@Z 
?OnMouseWheel@CUISpinButton@@UAE?AW4WMSG_RESULT@@GGH@Z 
?OnMouseWheel@CUISpinControl@@UAE?AW4WMSG_RESULT@@GGH@Z 
?OnMouseWheelDown@CUIBase@@UAEXXZ 
?OnMouseWheelUp@CUIBase@@UAEXXZ 
?OnPostRender@CUIArray@@UAEXPAVCDrawPort@@@Z 
?OnPostRender@CUIBase@@UAEXPAVCDrawPort@@@Z 
?OnPostRender@CUIList@@UAEXPAVCDrawPort@@@Z 
?OnRButtonDBLClick@CUIBase@@UAE?AW4WMSG_RESULT@@GG@Z 
?OnRButtonDown@CUIBase@@UAE?AW4WMSG_RESULT@@GG@Z 
?OnRButtonUp@CUIBase@@UAE?AW4WMSG_RESULT@@GG@Z 
?OnRender@CUIArrayItem@@UAEXPAVCDrawPort@@@Z 
?OnRender@CUIBase@@UAEXPAVCDrawPort@@@Z 
?OnRender@CUIButton@@UAEXPAVCDrawPort@@@Z 
?OnRender@CUICheckButton@@UAEXPAVCDrawPort@@@Z 
?OnRender@CUIComboBox@@MAEXPAVCDrawPort@@@Z 
?OnRender@CUIEditBox@@UAEXPAVCDrawPort@@@Z 
?OnRender@CUIIcon@@UAEXPAVCDrawPort@@@Z 
?OnRender@CUIImage@@UAEXPAVCDrawPort@@@Z 
?OnRender@CUIImageArray@@UAEXPAVCDrawPort@@@Z 
?OnRender@CUIImageFont@@UAEXPAVCDrawPort@@@Z 
?OnRender@CUIImageSplit@@UAEXPAVCDrawPort@@@Z 
?OnRender@CUIListItem@@UAEXPAVCDrawPort@@@Z 
?OnRender@CUILoginNew@@UAEXPAVCDrawPort@@@Z 
?OnRender@CUIManager@@UAEXPAVCDrawPort@@@Z 
?OnRender@CUIProgressBar@@MAEXPAVCDrawPort@@@Z 
?OnRender@CUIScrollBar@@UAEXPAVCDrawPort@@@Z 
?OnRender@CUISlideBar@@MAEXPAVCDrawPort@@@Z 
?OnRender@CUISpinButton@@MAEXPAVCDrawPort@@@Z 
?OnRender@CUISpinControl@@UAEXPAVCDrawPort@@@Z 
?OnRender@CUISpriteAni@@UAEXPAVCDrawPort@@@Z 
?OnRender@CUITab@@UAEXPAVCDrawPort@@@Z 
?OnRender@CUITabPage@@UAEXPAVCDrawPort@@@Z 
?OnRender@CUIText@@UAEXPAVCDrawPort@@@Z 
?OnRender@CUITextBox@@UAEXPAVCDrawPort@@@Z 
?OnTabKeyProc@CUILoginNew@@QAEXXZ 
?OnUpdate@CUIBase@@UAEXMK@Z 
?OnUpdate@CUIButton@@UAEXMK@Z 
?OnUpdate@CUICharacterCreateNew@@UAEXMK@Z 
?OnUpdate@CUICharacterInfo@@UAEXMK@Z 
?OnUpdate@CUICheckButton@@UAEXMK@Z 
?OnUpdate@CUIComboBox@@IAEXM@Z 
?OnUpdate@CUIIcon@@UAEXMK@Z 
?OnUpdate@CUILoginNew@@UAEXMK@Z 
?OnUpdate@CUIPetStashSelectEffect@@UAEXMK@Z 
?OnUpdate@CUIProgressBar@@MAEXMK@Z 
?OnUpdate@CUIScrollBar@@QAEXM@Z 
?OnUpdate@CUISpriteAni@@UAEXMK@Z 
?OnUpdateBoxInfo@CUITextBox@@QAEXXZ 
?OnUpdateDropList@CUIComboBox@@QAEXXZ 
?OnUpdatePosition@CUIBase@@UAEXXZ 
?OnUpdatePosition@CUICharacterCreateNew@@UAEXXZ 
?OnUpdateScrollPos@CUITextBox@@QAEXXZ 
?OnlyFirstLine@CTString@@QAEXXZ 
?Open@MsgBoxMgr@@QAE_NI@Z 
?OpenAffinity@CAffinityUI@@QAEXHHMM@Z 
?OpenCanvas@CViewPort@@QAEXXZ 
?OpenCashShopEX@CUICashShopEX@@QAEXXZ 
?OpenChangeWeapon@CUIChangeWeapon@@QAEXHHMM@Z 
?OpenCompound@CUICompound@@QAEXHFF@Z 
?OpenDratanDungeonMsgBox@CUIPortal@@QAEXXZ 
?OpenExpressSystem@CUIExpressSystem@@QAEXXZ 
?OpenGBReq@CUIGuildBattle@@QAEXHVCTString@@@Z 
?OpenGWMix@CUIGWMix@@QAEXXZ 
?OpenGamble@CUIGamble@@QAEXPAVCEntity@@H@Z 
?OpenGate@CPlayerEntity@@UAEXHH@Z 
?OpenGuildStash@CUIGuildStash@@QAEXXZ 
?OpenGuildStash@CUINewGuildStash@@QAEXXZ 
?OpenGuildWarPortal@CUIGuildWarPortal@@QAEXH@Z 
?OpenGuildWarPortalDratan@CUIGuildWarPortal@@QAEXXZ 
?OpenInitJob@CUIInitJob@@QAEXHHHMM@Z 
?OpenMix@CUIMix@@QAEXHFF@Z 
?OpenOption@CUIOption@@QAEXXZ 
?OpenPetFree@CUIPetFree@@QAEXMMH@Z 
?OpenPetInfo@CUIPetInfo@@QAEXXZ 
?OpenPetItemMix@CUIPetItemMix@@QAEXH@Z 
?OpenPetStashSelectEffect@CUIPetStashSelectEffect@@QAEXXZ 
?OpenPetTraining@CUIPetTraining@@QAEXHHMM@Z 
?OpenPop@CUISimplePop@@QAEXVCTString@@HHJJ@Z 
?OpenPopNoTarget@CUISimplePop@@QAEXVCTString@@H_NJJ@Z 
?OpenPortal@CUIPortal@@QAEXMM@Z 
?OpenProcess@CUIProcess@@QAEXHHH@Z 
?OpenProcessList@CUIProcessNPC@@QAEXHH@Z 
?OpenProcessNPC@CUIProcessNPC@@QAEXXZ 
?OpenProduct@CUIProduct@@QAEXHFF@Z 
?OpenQuest@CUIQuest@@QAEXHHHMM@Z 
?OpenRefine@CUIRefine@@QAEXHHMM@Z 
?OpenReformSystem@CUIReformSystem@@QAEXHMM@Z 
?OpenResurrectionMsgBox@CUIResurrectionMsgBox@@QAEXJH@Z 
?OpenRoyalrumbleMgrMenu@CUIRadar@@QAEXJ@Z 
?OpenSelectResource@CUISelectResource@@QAEXHH@Z 
?OpenSingleBattle@CUISingleBattle@@QAEXXZ 
?OpenSkillLearn@CUISkillLearn@@QAEXHHHMM@Z 
?OpenSocketSystem@CUIManager@@QAEXHHMM@Z 
?OpenSocketSystem@CUISocketSystem@@QAEXHHMM@Z 
?OpenSocket_t@CCommunicationInterface@@QAEXKK@Z 
?OpenTatoo@CUITatoo@@QAEXXZ 
?OpenUI@CUICharacterCreateNew@@QAEXXZ 
?OpenUI@CUICharacterInfo@@QAEXH@Z 
?OpenUI@CUILoginNew@@QAEXXZ 
?OpenWaitTime@CUISiegeWarfareNew@@QAEXXZ 
?OpenWebPage@cWeb@@QAEHPAUHWND__@@@Z 
?Open_EffectSystem@@YAHABVCTFileName@@@Z 
?Open_t@CTFileStream@@QAEXABVCTFileName@@W4OpenMode@CTStream@@@Z 
?Optimize@CAnimSet@@QAEXXZ 
?Optimize@CMesh@@QAEXXZ 
?Optimize@CObject3D@@QAEXXZ 
?OptimizeAnimation@CAnimSet@@QAEXAAUAnimation@@M@Z 
?OptimizeLod@CMesh@@QAEXAAUMeshLOD@@@Z 
?OptimizeObject3D@CBrush3D@@SAXAAVCObject3D@@@Z 
?OptionAddItem@CNetworkLibrary@@QAEXGHFFH@Z 
?OptionDelItem@CNetworkLibrary@@QAEXGHFFH@Z 
?Pack@CNetworkMessage@@QAEXAAV1@AAVCCompressor@@@Z 
?PackAngle@@YAKABV?$Vector@M$02@@@Z 
?PackDefault@CNetworkMessage@@QAEXAAV1@@Z 
?PackFloat@@YAKEEEM@Z 
?PackFloatToWord@@YAFM@Z 
?PackFloatsToULONG@@YAKMMM@Z 
?PackVectorToULONG@@YAKAAV?$Vector@M$02@@@Z 
?PaletteColorValues@@3PAKA 
?ParseSmcFile_t@@YAPAVCModelInstance@@ABVCTString@@@Z 
?ParseSmcFile_t@@YAXAAVCModelInstance@@ABVCTString@@@Z 
?Particle_EndSystem@@YAXH@Z 
?Particle_Flush@@YAXXZ 
?Particle_GetDrawPortID@@YAJXZ 
?Particle_GetMipFactor@@YAMXZ 
?Particle_GetProjection@@YAPAVCProjection3D@@XZ 
?Particle_GetViewer@@YAPAVCEntity@@XZ 
?Particle_PrepareEntity@@YAXMHHHPAVCEntity@@@Z 
?Particle_PrepareSystem@@YAXPAVCDrawPort@@AAVCAnyProjection3D@@@Z 
?Particle_PrepareTexture@@YAXPAVCTextureObject@@W4PredefinedBlendType@@@Z 
?Particle_RenderLine@@YAXABV?$Vector@M$02@@0MK@Z 
?Particle_RenderQuad3D@@YAXABV?$Vector@M$02@@000K@Z 
?Particle_RenderSquare@@YAXABV?$Vector@M$02@@MMKM@Z 
?Particle_SetTexturePart@@YAXJJJJ@Z 
?Particle_SetTextureSection@@YAXJJJJ@Z 
?Particle_Sort@@YAXH@Z 
?PartyAddMember@Party@@QAEXCJAAVCTString@@CCHHHHHMMCJ@Z 
?PartyAllow@CNetworkLibrary@@QAEXXZ 
?PartyData2Expedition@Party@@QAEXJH@Z 
?PartyEnd@Party@@QAEXXZ 
?PartyEndReq@CNetworkLibrary@@QAEXXZ 
?PartyError@Party@@QAEXC@Z 
?PartyInvite@CNetworkLibrary@@QAEXCJVCTString@@@Z 
?PartyInvite@Party@@QAEXCJAAVCTString@@CC@Z 
?PartyKick@CNetworkLibrary@@QAEXJ@Z 
?PartyKick@Party@@QAEXJ@Z 
?PartyMemberInfo@Party@@QAEXJHHHHHMMCJ_N@Z 
?PartyQuit@CNetworkLibrary@@QAEXXZ 
?PartyQuit@Party@@QAEXJ@Z 
?PartyReject@CNetworkLibrary@@QAEXXZ 
?PartyReject@Party@@QAEXH@Z 
?Paste@CUIEditBox@@QAE_NPAUHWND__@@@Z 
?Pause@CSoundObject@@QAEXXZ 
?PauseAnim@CAnimObject@@QAEXXZ 
?PeekID_t@CTStream@@UAE?AVCChunkID@@XZ 
?PetStartEffectGroup@@YAHPBDJPAVCEntity@@@Z 
?PickPolyColor@CModelObject@@QAEXPAVCDrawPort@@PAVCProjection3D@@JJAAJH@Z 
?PickPolySurface@CModelObject@@QAEJPAVCDrawPort@@PAVCProjection3D@@JJ@Z 
?PickVertexIndex@CModelObject@@QAEJPAVCDrawPort@@PAVCProjection3D@@JJAAV?$Vector@M$02@@@Z 
?PlAddAccessoryEffect@CPlayerEntity@@UAEXPAVCEntity@@PAVCCharacterTarget@@@Z 
?Play@CSoundObject@@QAEXPAVCSoundData@@K@Z 
?PlayAni@CUISpriteAni@@QAEXXZ 
?PlayAnim@CAnimObject@@QAEXJK@Z 
?PlayBGM@CPlayerEntity@@UAEXVCTFileName@@@Z 
?PlayBuffers@CSoundLibrary@@AAEXXZ 
?PlayButtonSound@CPlayerEntity@@UAEXXZ 
?PlayHolyWaterSound@CPlayerEntity@@UAEXXZ 
?PlayItemEffect@CPlayerEntity@@UAEXJC@Z 
?PlayItemSound@CPlayerEntity@@UAEXHH@Z 
?PlayJewelDullSound@CPlayerEntity@@UAEXXZ 
?PlayJewelRefinementSound@CPlayerEntity@@UAEXXZ 
?PlayJewelShinySound@CPlayerEntity@@UAEXXZ 
?PlayPetStashCardSelSound@CPlayerEntity@@UAEXXZ 
?PlayPetStashEffectSound@CPlayerEntity@@UAEXXZ 
?PlaySoundA@CEntity@@QAEXAAVCSoundObject@@ABVCTFileName@@J@Z 
?PlaySoundA@CEntity@@QAEXAAVCSoundObject@@JJH@Z 
?Play_t@CSoundObject@@QAEXABVCTFileName@@K@Z 
?PlayerInit@CPlayerEntity@@UAEX_N@Z 
?Playing@CEffect@@QAEHXZ 
?PointerInStream@CTFileStream@@UAEHPAX@Z 
?PointerInStream@CTMemoryStream@@UAEHPAX@Z 
?PointerInStream@CTStream@@UAEHPAX@Z 
?PolygonHasLayer@CLightSource@@QAEHAAVCBrushPolygon@@@Z 
?PolygonHit@CModelObject@@QAEPAUModelPolygon@@VCPlacement3D@@0JAAM@Z 
?PolygonHitModelData@CModelObject@@QAEPAUModelPolygon@@PAVCModelData@@VCPlacement3D@@1JAAM@Z 
?PolygonsInSurfaceCt@CModelObject@@QAEJJJ@Z 
?PopupRender@CUIImageBox@@QAEXXZ 
?PostClip@CIsometricProjection3D@@UBEXABV?$Vector@M$02@@AAV2@@Z 
?PostClip@CIsometricProjection3D@@UBEXABV?$Vector@M$02@@MAAV2@AAM@Z 
?PostClip@CParallelProjection3D@@UBEXABV?$Vector@M$02@@AAV2@@Z 
?PostClip@CParallelProjection3D@@UBEXABV?$Vector@M$02@@MAAV2@AAM@Z 
?PostClip@CPerspectiveProjection3D@@UBEXABV?$Vector@M$02@@AAV2@@Z 
?PostClip@CPerspectiveProjection3D@@UBEXABV?$Vector@M$02@@MAAV2@AAM@Z 
?PostClip@CSimpleProjection3D@@UBEXABV?$Vector@M$02@@AAV2@@Z 
?PostClip@CSimpleProjection3D@@UBEXABV?$Vector@M$02@@MAAV2@AAM@Z 
?PostMoving@CMovableEntity@@UAEXXZ 
?PostMoving@CRationalEntity@@UAEXXZ 
?PostProcess@CEffect@@IAEXXZ 
?PostRender@CEffect@@IAEXXZ 
?PostStart@CEffect@@IAEXXZ 
?PreClip@CIsometricProjection3D@@UBEXABV?$Vector@M$02@@AAV2@@Z 
?PreClip@CParallelProjection3D@@UBEXABV?$Vector@M$02@@AAV2@@Z 
?PreClip@CPerspectiveProjection3D@@UBEXABV?$Vector@M$02@@AAV2@@Z 
?PreClip@CSimpleProjection3D@@UBEXABV?$Vector@M$02@@AAV2@@Z 
?PreMoving@CMovableEntity@@UAEXXZ 
?PreMoving@CMovableModelEntity@@UAEXXZ 
?PreMoving@CRationalEntity@@UAEXXZ 
?PreProcess@CEffect@@IAEHMAAH0AAM1@Z 
?PreRender@CEffect@@IAEHXZ 
?PreStart@CEffect@@IAEHMH@Z 
?Precache@CAutoPrecacheModel@@QAEXABVCTFileName@@@Z 
?Precache@CAutoPrecacheSound@@QAEXABVCTFileName@@@Z 
?Precache@CAutoPrecacheTexture@@QAEXABVCTFileName@@@Z 
?Precache@CEntity@@UAEXXZ 
?PrecacheClass@CDLLEntityClass@@QAEXJJ@Z 
?PrecacheClass@CEntity@@QAEXJJ@Z 
?PrecacheEntities_t@CWorld@@QAEXXZ 
?PrecacheModel@CDLLEntityClass@@QAEXJ@Z 
?PrecacheModel@CEntity@@QAEXJ@Z 
?PrecacheSkaModel@CDLLEntityClass@@QAEXJ@Z 
?PrecacheSkaModel@CEntity@@QAEXJ@Z 
?PrecacheSound@CDLLEntityClass@@QAEXJ@Z 
?PrecacheSound@CEntity@@QAEXJ@Z 
?PrecacheTexture@CDLLEntityClass@@QAEXJ@Z 
?PrecacheTexture@CEntity@@QAEXJ@Z 
?Pred@CListNode@@QBEAAV1@XZ 
?Prepare@CIsometricProjection3D@@UAEXXZ 
?Prepare@CParallelProjection3D@@UAEXXZ 
?Prepare@CPerspectiveProjection3D@@UAEXXZ 
?Prepare@CShadowMap@@QAEXXZ 
?Prepare@CSimpleProjection3D@@UAEXXZ 
?Prepare@CSimpleProjection3D_DOUBLE@@QAEXXZ 
?PrepareForUse@CCommunicationInterface@@QAEHHHH@Z 
?PrepareGameStateData_t@CServer@@QAEXAAVCTMemoryStream@@AAJ1@Z 
?PrepareRelativeToAbsoluteProjection@CBrush3D@@QAEXAAVCSimpleProjection3D_DOUBLE@@@Z 
?PrepareRender_EffectSystem@@YAHPAVCTerrain@@PAVCWorld@@@Z 
?PrepareSoundBuffer_dsound@CSoundLibrary@@AAEJXZ 
?PrepareSoundBuffer_waveout@CSoundLibrary@@AAEJXZ 
?PressCheckSave@CUILoginNew@@QAEXXZ 
?PressCloseBtn@CUILoginNew@@QAEXXZ 
?PressLoginBtn@CUILoginNew@@QAEXXZ 
?PressOk@CUICharacterCreateNew@@QAEXXZ 
?PrevAnim@CAnimObject@@QAEXXZ 
?PrevFrame@CAnimObject@@QAEXXZ 
?PrevManualMipLevel@CModelObject@@QAEXXZ 
?PrevQuestViewPage@Quest@@QAE_NXZ 
?PreviewFrameInit@CUICashShopEX@@IAEXMM@Z 
?PrintChatMessage@CSessionState@@QAEXKABVCTString@@0@Z 
?PrintF@CTString@@QAAJPBDZZ 
?PrintStackDebug@CEntity@@UAEPBDXZ 
?PrintStackDebug@CRationalEntity@@UAEPBDXZ 
?PrintSurfaceNumbers@CEditModel@@QAEXPAVCDrawPort@@PAVCFontData@@JMJJK@Z 
?Process@CCameraEffect@@UAEHM@Z 
?Process@CEffectControl@@QAEXPAKPAV?$Vector@M$02@@11MMM@Z 
?Process@CEffectGroup@@QAEHM@Z 
?Process@CEntityEffect@@UAEHM@Z 
?Process@CLightEffect@@UAEHM@Z 
?Process@CMdlEffect@@UAEHM@Z 
?Process@COrbitEffect@@UAEHM@Z 
?Process@CParticleEffect@@UAEHM@Z 
?Process@CParticleGroup@@QAEHM@Z 
?Process@CParticlesAbsorptionDefault@@UAEXAAVCParticles@@M@Z 
?Process@CParticlesAbsorptionSphere@@UAEXAAVCParticles@@M@Z 
?Process@CParticlesEmitterCone@@UAEXAAVCParticles@@M@Z 
?Process@CParticlesEmitterCylinder@@UAEXAAVCParticles@@M@Z 
?Process@CParticlesEmitterSphere@@UAEXAAVCParticles@@M@Z 
?Process@CParticlesProcessControl@@UAEXAAVCParticles@@M@Z 
?Process@CParticlesProcessDynamicState@@UAEXAAVCParticles@@M@Z 
?Process@CParticlesProcessForce@@UAEXAAVCParticles@@M@Z 
?Process@CParticlesProcessPointGoal@@UAEXAAVCParticles@@M@Z 
?Process@CParticlesProcessVelocity@@UAEXAAVCParticles@@M@Z 
?Process@CShockWaveEffect@@UAEHM@Z 
?Process@CSkaEffect@@UAEHM@Z 
?Process@CSoundEffect@@UAEHM@Z 
?Process@CSplineBillboardEffect@@UAEHM@Z 
?Process@CSplinePathEffect@@UAEHM@Z 
?Process@CTerrainEffect@@UAEHM@Z 
?Process@CTraceEffect@@UAEHM@Z 
?ProcessGameStream@CSessionState@@QAEXXZ 
?ProcessGameStreamBlock@CSessionState@@QAEXAAVCNetworkMessage@@@Z 
?ProcessGameTick@CSessionState@@QAEXAAVCNetworkMessage@@M@Z 
?ProcessOneSentence@CSessionState@@QAEXPAD@Z 
?ProcessProduce@CPlayerEntity@@UAEXCJCJJ@Z 
?ProcessReq@CNetworkLibrary@@QAEXFFJJPAUCNeedItems@@@Z 
?ProcessScript_t@@YAXABVCTFileName@@@Z 
?ProductReq@CNetworkLibrary@@QAEXFFJJPAUCNeedItems@@@Z 
?ProgresRoutines@@3VCProgressRoutines@@A 
?ProgressStepIt@CUIProgressBar@@QAE?B_JXZ 
?Project@CIsometricProjection3D@@UBEXABV?$Plane@M$02@@AAV2@@Z 
?Project@CObject3D@@QAEXAAVCSimpleProjection3D_DOUBLE@@@Z 
?Project@CParallelProjection3D@@UBEXABV?$Plane@M$02@@AAV2@@Z 
?Project@CPerspectiveProjection3D@@UBEXABV?$Plane@M$02@@AAV2@@Z 
?Project@CSimpleProjection3D@@UBEXABV?$Plane@M$02@@AAV2@@Z 
?Project@CSimpleProjection3D_DOUBLE@@QBEXABV?$Plane@N$02@@AAV2@@Z 
?ProjectAABBox@CIsometricProjection3D@@UBEXABV?$AABBox@M$02@@AAV2@@Z 
?ProjectAABBox@CParallelProjection3D@@UBEXABV?$AABBox@M$02@@AAV2@@Z 
?ProjectAABBox@CPerspectiveProjection3D@@UBEXABV?$AABBox@M$02@@AAV2@@Z 
?ProjectAABBox@CSimpleProjection3D@@UBEXABV?$AABBox@M$02@@AAV2@@Z 
?ProjectAABBox@CSimpleProjection3D_DOUBLE@@QBEXABV?$AABBox@N$02@@AAV2@@Z 
?ProjectCoordinate@CIsometricProjection3D@@UBEXABV?$Vector@M$02@@AAV2@@Z 
?ProjectCoordinate@CParallelProjection3D@@UBEXABV?$Vector@M$02@@AAV2@@Z 
?ProjectCoordinate@CPerspectiveProjection3D@@UBEXABV?$Vector@M$02@@AAV2@@Z 
?ProjectCoordinate@CSimpleProjection3D@@UBEXABV?$Vector@M$02@@AAV2@@Z 
?ProjectCoordinate@CSimpleProjection3D_DOUBLE@@QBEXABV?$Vector@N$02@@AAV2@@Z 
?ProjectDirection@CIsometricProjection3D@@UBEXABV?$Vector@M$02@@AAV2@@Z 
?ProjectDirection@CParallelProjection3D@@UBEXABV?$Vector@M$02@@AAV2@@Z 
?ProjectDirection@CPerspectiveProjection3D@@UBEXABV?$Vector@M$02@@AAV2@@Z 
?ProjectDirection@CSimpleProjection3D@@UBEXABV?$Vector@M$02@@AAV2@@Z 
?ProjectDirection@CSimpleProjection3D_DOUBLE@@QBEXABV?$Vector@N$02@@AAV2@@Z 
?ProjectFrameVertices@CModelObject@@QAEXPAVCProjection3D@@J@Z 
?ProjectMapping@CMappingDefinition@@QAEXABV?$Plane@M$02@@ABV1@0@Z 
?ProjectMapping@CSimpleProjection3D_DOUBLE@@QBEXABVCMappingDefinition@@ABV?$Plane@N$02@@AAV2@@Z 
?ProjectPlacement@CSimpleProjection3D@@QBEXABVCPlacement3D@@AAV2@@Z 
?ProjectPlacement@CSimpleProjection3D_DOUBLE@@QBEXABVCPlacement3D@@AAV2@@Z 
?ProjectPlacementSmooth@CSimpleProjection3D@@QBEXABVCPlacement3D@@AAV2@@Z 
?PropertyForName@CDLLEntityClass@@QAEPAVCEntityProperty@@ABVCTString@@@Z 
?PropertyForName@CEntity@@QAEPAVCEntityProperty@@ABVCTString@@@Z 
?PropertyForName@CEntityClass@@QAEPAVCEntityProperty@@ABVCTString@@@Z 
?PropertyForTypeAndID@CDLLEntityClass@@QAEPAVCEntityProperty@@W4PropertyType@2@K@Z 
?PropertyForTypeAndID@CEntity@@QAEPAVCEntityProperty@@KK@Z 
?PropertyForTypeAndID@CEntityClass@@QAEPAVCEntityProperty@@KK@Z 
?PtrsToIndices@CModelData@@QAEXXZ 
?PushUV@CUISpriteAni@@QAEXUUIRectUV@@H@Z 
?PutLine_t@CTStream@@UAEXPBD@Z 
?PutString_t@CTStream@@UAEXPBD@Z 
?PutText@CDrawPort@@QBEXABVCTString@@JJK@Z 
?PutTextC@CDrawPort@@QAEXABVCTString@@JJK@Z 
?PutTextCXY@CDrawPort@@QAEXABVCTString@@JJK@Z 
?PutTextCharEx@CDrawPort@@QBEXPBDHJJKMHK@Z 
?PutTextCharExBrz@CDrawPort@@QBEXPBDHJJKMHK@Z 
?PutTextCharExCX@CDrawPort@@QBEXPBDHJJKMHK@Z 
?PutTextCharExChs@CDrawPort@@QBEXPBDHJJKMHK@Z 
?PutTextCharExCht@CDrawPort@@QBEXPBDHJJKMHK@Z 
?PutTextCharExJap@CDrawPort@@QBEXPBDHJJKMHK@Z 
?PutTextCharExKor@CDrawPort@@QBEXPBDHJJKMHK@Z 
?PutTextCharExRX@CDrawPort@@QAEXPBDHJJKMHK@Z 
?PutTextCharExRus@CDrawPort@@QBEXPBDHJJKMHK@Z 
?PutTextCharExThai@CDrawPort@@QBEXPBDHJJKMHK@Z 
?PutTextEx@CDrawPort@@QBEXABVCTString@@JJKMHK@Z 
?PutTextExBrz@CDrawPort@@QBEXABVCTString@@JJKMHK@Z 
?PutTextExCX@CDrawPort@@QAEXABVCTString@@JJKMHK@Z 
?PutTextExChs@CDrawPort@@QBEXABVCTString@@JJKMHK@Z 
?PutTextExCht@CDrawPort@@QBEXABVCTString@@JJKMHK@Z 
?PutTextExJap@CDrawPort@@QBEXABVCTString@@JJKMHK@Z 
?PutTextExKor@CDrawPort@@QBEXABVCTString@@JJKMHK@Z 
?PutTextExRX@CDrawPort@@QAEXABVCTString@@JJKMHK@Z 
?PutTextExRus@CDrawPort@@QBEXABVCTString@@JJKMHK@Z 
?PutTextExThai@CDrawPort@@QBEXABVCTString@@JJKMHK@Z 
?PutTextR@CDrawPort@@QAEXABVCTString@@JJK@Z 
?PutTextRus@CDrawPort@@QAEXABVCTString@@JJK@Z 
?PutTexture@CDrawPort@@QBEXPAVCTextureObject@@ABV?$AABBox@J$01@@1KK@Z 
?PutTexture@CDrawPort@@QBEXPAVCTextureObject@@ABV?$AABBox@J$01@@1KKKKK@Z 
?PutTexture@CDrawPort@@QBEXPAVCTextureObject@@ABV?$AABBox@J$01@@KK@Z 
?PutTexture@CDrawPort@@QBEXPAVCTextureObject@@ABV?$AABBox@J$01@@KKKKK@Z 
?QueueForCalculation@CBrushShadowMap@@QAEXXZ 
?QuitScreen@CGameState@@QAEAAHXZ 
?RButtonDBLClick@CUIBase@@UAE?AW4WMSG_RESULT@@GG@Z 
?RButtonDBLClick@CUITree@@UAE?AW4WMSG_RESULT@@GG@Z 
?RButtonDBLClickChild@CUIBase@@UAE?AW4WMSG_RESULT@@GG@Z 
?RButtonDown@CUIBase@@UAE?AW4WMSG_RESULT@@GG@Z 
?RButtonDown@CUITree@@UAE?AW4WMSG_RESULT@@GG@Z 
?RButtonDownChild@CUIBase@@UAE?AW4WMSG_RESULT@@GG@Z 
?RButtonUp@CUIBase@@UAE?AW4WMSG_RESULT@@GG@Z 
?RButtonUp@CUITree@@UAE?AW4WMSG_RESULT@@GG@Z 
?RButtonUpChild@CUIBase@@UAE?AW4WMSG_RESULT@@GG@Z 
?REG_GetLong@@YAHABVCTString@@AAK@Z 
?REG_GetString@@YAHABVCTString@@AAV1@@Z 
?REG_SetString@@YAHABVCTString@@0@Z 
?RM_AddFlag@@YAXK@Z 
?RM_AddSimpleShadow_View@@YAXAAVCModelInstance@@MABV?$Plane@M$02@@@Z 
?RM_AreHardwareShadersAvailable@@YAHXZ 
?RM_BeginModelRenderingMask@@YAXAAVCAnyProjection3D@@PAEJJ@Z 
?RM_BeginRenderingView@@YAXAAVCAnyProjection3D@@PAVCDrawPort@@@Z 
?RM_EndModelRenderingMask@@YAXXZ 
?RM_EndRenderingView@@YAXH@Z 
?RM_FindRenBone@@YAPAURenBone@@J@Z 
?RM_GetAdjustedMipDistance@@YAMMM@Z 
?RM_GetBoneAbsPosition@@YAHAAVCModelInstance@@JAAV?$Vector@M$02@@1@Z 
?RM_GetBoneRelPosition@@YAHAAVCModelInstance@@JAAV?$Vector@M$02@@1@Z 
?RM_GetBoneTransformations@@YAHAAVCModelInstance@@JPAY0M@M@Z 
?RM_GetFlags@@YAKXZ 
?RM_GetMipAdjustmentFactor@@YAMPBVCProjection3D@@@Z 
?RM_GetModelVertices@@YAXAAVCModelInstance@@AAV?$CStaticStackArray@V?$Vector@M$02@@@@AAV?$Matrix@M$02$02@@AAV?$Vector@M$02@@MM@Z 
?RM_GetRenBoneAbs@@YAHAAVCModelInstance@@JAAURenBone@@@Z 
?RM_GetRenBoneArray@@YAPAURenBone@@AAJ@Z 
?RM_GetRenderFlags@@YAAAKXZ 
?RM_PreviewSKA@@YAXAAVCModelInstance@@PAVCDrawPort@@W4SkaPreviewFlags@@J@Z 
?RM_RemoveFlag@@YAXK@Z 
?RM_RenderBone@@YAXAAVCModelInstance@@J@Z 
?RM_RenderColisionBox@@YAXAAVCModelInstance@@AAUColisionBox@@K@Z 
?RM_RenderCross@@YAXAAV?$Vector@M$02@@K@Z 
?RM_RenderGround@@YAXAAVCTextureData@@K@Z 
?RM_RenderGround@@YAXAAVCTextureObject@@K@Z 
?RM_RenderQuad@@YAXAAVCPlacement3D@@M@Z 
?RM_RenderSKA@@YAXAAVCModelInstance@@H@Z 
?RM_RenderSpline@@YAXHPAV?$Vector@M$02@@HK@Z 
?RM_SetAbsToView@@YAXAAY0M@$$CBM@Z 
?RM_SetBoneAdjustCallback@@YAXP6AXPAX@Z0@Z 
?RM_SetCurrentDistance@@YAXM@Z 
?RM_SetFlags@@YAXK@Z 
?RM_SetLightColor@@YAXKK@Z 
?RM_SetLightDirection@@YAXAAV?$Vector@M$02@@@Z 
?RM_SetMaxWeightsPerVertex@@YAXJ@Z 
?RM_SetObjectMatrices@@YAXAAVCModelInstance@@@Z 
?RM_SetObjectPlacement@@YAXABV?$Matrix@M$02$02@@ABV?$Vector@M$02@@@Z 
?RM_SetObjectPlacement@@YAXABVCPlacement3D@@@Z 
?RM_SetRenderingType@@YAXJ@Z 
?RM_SetShaderParamsAdjustCallback@@YAXP6AXPAXJPAVCShader@@AAUShaderParams@@@Z0@Z 
?RM_TestRayCastHit@@YAMAAVCModelInstance@@AAV?$Matrix@M$02$02@@AAV?$Vector@M$02@@ABV3@3MPAJPAX@Z 
?RM_TestRayCastHitForTerrainShadow@@YAHAAVCModelInstance@@AAV?$Matrix@M$02$02@@AAV?$Vector@M$02@@ABV3@3@Z 
?RaidEnd@Quest@@QAEXXZ 
?RaidInzoneJoinReq@CNetworkLibrary@@QAEXJJ@Z 
?RaidInzoneQuitReq@CNetworkLibrary@@QAEXJJ@Z 
?Ranking_Prize@CNetworkLibrary@@QAEXXZ 
?Ranking_RequestList@CNetworkLibrary@@QAEXC@Z 
?Ranking_RequestPrizeList@CNetworkLibrary@@QAEXXZ 
?RayHitsSphere@@YAHABV?$Vector@M$02@@00MAAM@Z 
?RayHitsTriangle@@YAHABV?$Vector@M$02@@0000PAM@Z 
?RayThroughPoint@CIsometricProjection3D@@UBEXABV?$Vector@M$02@@AAVCPlacement3D@@@Z 
?RayThroughPoint@CParallelProjection3D@@UBEXABV?$Vector@M$02@@AAVCPlacement3D@@@Z 
?RayThroughPoint@CPerspectiveProjection3D@@UBEXABV?$Vector@M$02@@AAVCPlacement3D@@@Z 
?RayThroughPoint@CSimpleProjection3D@@UBEXABV?$Vector@M$02@@AAVCPlacement3D@@@Z 
?ReTriple@CBrushSector@@QAEXAAV?$CSelection@VCBrushPolygon@@$0BAA@@@@Z 
?Read@CAnimEffect@@IAEXPAVCTStream@@@Z 
?Read@CCameraEffect@@UAEXPAVCTStream@@@Z 
?Read@CEffect@@UAEXPAVCTStream@@@Z 
?Read@CEffectControl@@QAEXPAVCTStream@@@Z 
?Read@CEffectGroup@@QAEXPAVCTStream@@@Z 
?Read@CEffectGroupManager@@QAEXPAVCTStream@@@Z 
?Read@CEffectManager@@QAEXPAVCTStream@@@Z 
?Read@CEntityEffect@@UAEXPAVCTStream@@@Z 
?Read@CLightEffect@@UAEXPAVCTStream@@@Z 
?Read@CMdlEffect@@UAEXPAVCTStream@@@Z 
?Read@CNetworkMessage@@QAEXPAXJ@Z 
?Read@COrbitEffect@@UAEXPAVCTStream@@@Z 
?Read@CParticleEffect@@UAEXPAVCTStream@@@Z 
?Read@CParticleGroup@@QAEXPAVCTStream@@@Z 
?Read@CParticleGroupManager@@QAEXPAVCTStream@@@Z 
?Read@CParticlePrototype@@QAEXPAVCTStream@@@Z 
?Read@CParticlesAbsorption@@UAEXPAVCTStream@@@Z 
?Read@CParticlesAbsorptionDefault@@UAEXPAVCTStream@@@Z 
?Read@CParticlesAbsorptionSphere@@UAEXPAVCTStream@@@Z 
?Read@CParticlesEmitter@@UAEXPAVCTStream@@@Z 
?Read@CParticlesEmitterCone@@UAEXPAVCTStream@@@Z 
?Read@CParticlesEmitterCylinder@@UAEXPAVCTStream@@@Z 
?Read@CParticlesEmitterSphere@@UAEXPAVCTStream@@@Z 
?Read@CParticlesProcessControl@@UAEXPAVCTStream@@@Z 
?Read@CParticlesProcessDynamicState@@UAEXPAVCTStream@@@Z 
?Read@CParticlesProcessForce@@UAEXPAVCTStream@@@Z 
?Read@CParticlesProcessPointGoal@@UAEXPAVCTStream@@@Z 
?Read@CParticlesProcessVelocity@@UAEXPAVCTStream@@@Z 
?Read@CShockWaveEffect@@UAEXPAVCTStream@@@Z 
?Read@CSkaEffect@@UAEXPAVCTStream@@@Z 
?Read@CSoundEffect@@UAEXPAVCTStream@@@Z 
?Read@CSplineBillboardEffect@@UAEXPAVCTStream@@@Z 
?Read@CSplinePathEffect@@UAEXPAVCTStream@@@Z 
?Read@CTerrainEffect@@UAEXPAVCTStream@@@Z 
?Read@CTraceEffect@@UAEXPAVCTStream@@@Z 
?Read@cWeb@@QAEHAAV?$basic_string@DU?$char_traits@D@std@@V?$allocator@D@2@@std@@0@Z 
?ReadAddPlayer@CEntityMessage@@QAEXAAKAAJAAVCPlayerCharacter@@001@Z 
?ReadAddSkaString@CEntityMessage@@QAEXAAJAAVCTString@@@Z 
?ReadAnimEffectFile@CModelInstance@@QAEXABVCTFileName@@@Z 
?ReadBasePosition@CEntityMessage@@QAEXAAV?$Vector@M$02@@@Z 
?ReadBits@CNetworkMessage@@QAEXPAXJ@Z 
?ReadBrushes_t@CWorld@@QAEXPAVCTStream@@@Z 
?ReadByte@ByteQueueData@@QAEEXZ 
?ReadChunkAlloc_t@CTStream@@UAEPAXJ@Z 
?ReadChunk_t@CTStream@@UAEXPAXJ@Z 
?ReadDictionary_intenal_t@CTStream@@QAEXJ@Z 
?ReadDouble@ByteQueueData@@QAENXZ 
?ReadDword@ByteQueueData@@QAEKXZ 
?ReadElement@UIFactory@@AAEXPAVTiXmlElement@@PAVCUIBase@@@Z 
?ReadEntityCopy@CEntityMessage@@QAEXAAK0AAVCPlacement3D@@E@Z 
?ReadEntityCreate@CEntityMessage@@QAEXAAKAAVCPlacement3D@@AAG@Z 
?ReadEntityDestroy@CEntityMessage@@QAEXAAK@Z 
?ReadEntityEvent@CEntityMessage@@QAEXAAKAAJPAX1@Z 
?ReadEntityInitialize@CEntityMessage@@QAEXAAKAAJPAX1@Z 
?ReadEntityPointer_t@CEntity@@QAEXPAVCTStream@@AAVCEntityPointer@@@Z 
?ReadEntitySectorLinks_t@CBrushArchive@@QAEXAAVCTStream@@@Z 
?ReadFloat@ByteQueueData@@QAEMXZ 
?ReadFromStreamShort@CTString@@QAEXPAVCTStream@@@Z 
?ReadFromText_t@CTFileName@@QAEXAAVCTStream@@ABVCTString@@@Z 
?ReadFromText_t@CTString@@QAEXAAVCTStream@@ABV1@@Z 
?ReadFullChunk_t@CTStream@@UAEXABVCChunkID@@PAXJ@Z 
?ReadInfo@CCommunicationInterface@@IAEHPAULoginServer@@@Z 
?ReadInfo_t@CWorld@@QAEXPAVCTStream@@H@Z 
?ReadLayers_t@CBrushShadowMap@@UAEXPAVCTStream@@@Z 
?ReadLayers_t@CShadowMap@@UAEXPAVCTStream@@@Z 
?ReadMipSettings_t@CEditModel@@QAEXPAVCTStream@@J@Z 
?ReadModelInstance_t@@YAXAAVCTStream@@AAVCModelInstance@@H@Z 
?ReadName_t@CModelCollisionBox@@QAEXPAVCTStream@@@Z 
?ReadOld_t@CMappingDefinition@@QAEXAAVCTStream@@@Z 
?ReadPause@CEntityMessage@@QAEXAAHAAVCTString@@@Z 
?ReadPlacement@CEntityMessage@@QAEXAAKAAVCPlacement3D@@1@Z 
?ReadPlacementNotify@CEntityMessage@@QAEXAAKAAE@Z 
?ReadPlayerAction@CEntityMessage@@QAEXAAKAAVCPlayerAction@@@Z 
?ReadPlayerUpdate@CEntityMessage@@QAEXAAKAAVCNetworkMessage@@@Z 
?ReadPortalSectorLinks_t@CBrushArchive@@QAEXAAVCTStream@@@Z 
?ReadPreviousId@CUILoginNew@@QAEXXZ 
?ReadProperties_t@CEntity@@QAEXAAVCTStream@@H@Z 
?ReadRawChunk_t@CTStream@@UAEXPAXJ@Z 
?ReadRememberedLevels_t@CSessionState@@QAEXPAVCTStream@@@Z 
?ReadRemovePlayer@CEntityMessage@@QAEXAAJ@Z 
?ReadSKAQueue@CEntity@@QAEXAAVCNetworkMessage@@@Z 
?ReadSKAQueue@CEntity@@QAEXPAVCTStream@@@Z 
?ReadSettings_t@MappingSurface@@QAEXPAVCTStream@@@Z 
?ReadSka@CEntityMessage@@QAEXAAKAAEPAXAAJ@Z 
?ReadSound@CEntityMessage@@QAEXAAKAAEPAXAAJ@Z 
?ReadStartAnim@CEntityMessage@@QAEXAAKAAJ0@Z 
?ReadState_net_t@CWorld@@QAEXPAVCTStream@@@Z 
?ReadState_new_t@CWorld@@QAEXPAVCTStream@@@Z 
?ReadState_old_t@CWorld@@QAEXPAVCTStream@@@Z 
?ReadState_t@CSessionState@@QAEXPAVCTStream@@@Z 
?ReadState_t@CWorld@@QAEXPAVCTStream@@@Z 
?ReadState_veryold_t@CWorld@@QAEXPAVCTStream@@@Z 
?ReadStream_t@CTStream@@UAEXAAV1@@Z 
?ReadString@ByteQueueData@@QAE?AV?$basic_string@DU?$char_traits@D@std@@V?$allocator@D@2@@std@@XZ 
?ReadTextDevPreviousIdPw@CUILoginNew@@QAEXXZ 
?ReadTranslationTable_t@@YAXAAV?$CDynamicArray@VCTranslationPair@@@@ABVCTFileName@@@Z 
?ReadUntilEOF_t@CTString@@QAEXAAVCTStream@@@Z 
?ReadWord@ByteQueueData@@QAEGXZ 
?ReadWorldAndState_t@CSessionState@@QAEXPAVCTStream@@@Z 
?Read_PNG@CTextureData@@QAEXPAVCTStream@@@Z 
?Read_net_Character@CPlayerEntity@@UAEXHHPAVCNetworkMessage@@@Z 
?Read_net_Damage@CPlayerEntity@@UAEXCPAVCNetworkMessage@@@Z 
?Read_net_Damage_Character@CPlayerEntity@@UAEXPAVCNetworkMessage@@@Z 
?Read_net_DissappearEffect@CPlayerEntity@@UAEXPAVCNetworkMessage@@@Z 
?Read_net_Mob@CPlayerEntity@@UAEXHPAVCNetworkMessage@@@Z 
?Read_net_Pet@CPlayerEntity@@UAEXHPAVCNetworkMessage@@@Z 
?Read_net_StatusElemental@CPlayerEntity@@UAEXPAVCNetworkMessage@@@Z 
?Read_net_StatusNPC@CPlayerEntity@@UAEXPAVCNetworkMessage@@@Z 
?Read_net_StatusPC@CPlayerEntity@@UAEXPAVCNetworkMessage@@@Z 
?Read_net_StatusPet@CPlayerEntity@@UAEXPAVCNetworkMessage@@@Z 
?Read_net_Summon@CPlayerEntity@@UAEXHPAVCNetworkMessage@@@Z 
?Read_net_WildPet@CPlayerEntity@@UAEXHPAVCNetworkMessage@@@Z 
?Read_new_t@CBrush3D@@QAEXPAVCTStream@@@Z 
?Read_new_t@CBrushMip@@QAEXPAVCTStream@@@Z 
?Read_old_t@CBrush3D@@QAEXPAVCTStream@@@Z 
?Read_old_t@CBrushMip@@QAEXPAVCTStream@@@Z 
?Read_old_t@CShadowMap@@QAEXPAVCTStream@@@Z 
?Read_t@CAnimSet@@UAEXPAVCTStream@@@Z 
?Read_t@CAttachedModel@@QAEXPAVCTStream@@@Z 
?Read_t@CAttachedModelPosition@@QAEXPAVCTStream@@@Z 
?Read_t@CAttachedSound@@QAEXPAVCTStream@@@Z 
?Read_t@CBrush3D@@QAEXPAVCTStream@@@Z 
?Read_t@CBrushArchive@@UAEXPAVCTStream@@@Z 
?Read_t@CBrushPolygonTexture@@QAEXAAVCTStream@@@Z 
?Read_t@CBrushSector@@QAEXPAVCTStream@@@Z 
?Read_t@CEditModel@@UAEXPAVCTStream@@@Z 
?Read_t@CEntity@@UAEXPAVCTStream@@H@Z 
?Read_t@CEntityClass@@UAEXPAVCTStream@@@Z 
?Read_t@CFontCharData@@QAEXPAVCTStream@@H@Z 
?Read_t@CFontData@@UAEXPAVCTStream@@@Z 
?Read_t@CImageInfo@@QAEXPAVCTStream@@@Z 
?Read_t@CLightSource@@QAEXPAVCTStream@@H@Z 
?Read_t@CLiveEntity@@UAEXPAVCTStream@@H@Z 
?Read_t@CMesh@@UAEXPAVCTStream@@@Z 
?Read_t@CModelCollisionBox@@QAEXPAVCTStream@@@Z 
?Read_t@CModelData@@UAEXPAVCTStream@@@Z 
?Read_t@CModelInstanceSerial@@UAEXPAVCTStream@@@Z 
?Read_t@CModelObject@@QAEXPAVCTStream@@@Z 
?Read_t@CModelPatch@@QAEXPAVCTStream@@@Z 
?Read_t@CModelRenderPrefs@@QAEXPAVCTStream@@@Z 
?Read_t@CMovableBrushEntity@@UAEXPAVCTStream@@H@Z 
?Read_t@CMovableEntity@@UAEXPAVCTStream@@H@Z 
?Read_t@CMovableModelEntity@@UAEXPAVCTStream@@H@Z 
?Read_t@CPlayerCharacter@@QAEXPAVCTStream@@@Z 
?Read_t@CPlayerEntity@@UAEXPAVCTStream@@H@Z 
?Read_t@CRationalEntity@@UAEXPAVCTStream@@H@Z 
?Read_t@CSessionState@@QAEXPAVCTStream@@H@Z 
?Read_t@CShader@@UAEXPAVCTStream@@@Z 
?Read_t@CShadowMap@@QAEXPAVCTStream@@@Z 
?Read_t@CSkeleton@@UAEXPAVCTStream@@@Z 
?Read_t@CSoundData@@UAEXPAVCTStream@@@Z 
?Read_t@CSoundObject@@QAEXPAVCTStream@@H@Z 
?Read_t@CTFileStream@@UAEXPAXJ@Z 
?Read_t@CTMemoryStream@@UAEXPAXJ@Z 
?Read_t@CTerrain@@QAEXPAVCTStream@@@Z 
?Read_t@CTerrainArchive@@UAEXPAVCTStream@@@Z 
?Read_t@CTextureData@@UAEXPAVCTStream@@@Z 
?Read_t@CTextureObject@@QAEXPAVCTStream@@@Z 
?Read_t@CThumbnailSettings@@QAEXPAVCTStream@@@Z 
?Read_t@CWorld@@QAEXPAVCTStream@@@Z 
?Read_t@MappingSurface@@QAEXPAVCTStream@@HH@Z 
?Read_t@ModelMipInfo@@QAEXPAVCTStream@@HHH@Z 
?Read_t@ModelPolygon@@QAEXPAVCTStream@@@Z 
?Read_t@ModelPolygonVertex@@QAEXPAVCTStream@@@Z 
?Read_t_ext@CWorld@@QAEXPAVCTStream@@0@Z 
?Read_t_new@CMesh@@QAEXPAVCTStream@@H@Z 
?Read_t_old@CMesh@@QAEXPAVCTStream@@H@Z 
?ReadcharacterChange@CEntityMessage@@QAEXAAKAAVCPlayerCharacter@@@Z 
?RearrangeOrder@CUIManager@@QAEXHH@Z 
?Rebirth@CPlayerEntity@@UAEXXZ 
?RebuildLinks@CWorld@@QAEXXZ 
?RecalculatePlanes@CObject3D@@QAEXXZ 
?ReceiveAcknowledge@CServer@@QAEXJM@Z 
?ReceiveActionMessage@CSessionState@@QAEXPAVCNetworkMessage@@@Z 
?ReceiveAffinityMessage@CSessionState@@QAEXPAVCNetworkMessage@@@Z 
?ReceiveAssistMessage@CSessionState@@QAEXPAVCNetworkMessage@@@Z 
?ReceiveAttackMessage@CSessionState@@QAEXPAVCNetworkMessage@@@Z 
?ReceiveAttendanceMessage@CSessionState@@QAEXPAVCNetworkMessage@@@Z 
?ReceiveBroadcast@CMessageDispatcher@@QAEHAAVCNetworkMessage@@AAKAAG@Z 
?ReceiveCalendarMessage@CSessionState@@QAEXPAVCNetworkMessage@@@Z 
?ReceiveCashPersonShopMessage@CSessionState@@QAEXPAVCNetworkMessage@@@Z 
?ReceiveChangeJobMessage@CSessionState@@QAEXPAVCNetworkMessage@@@Z 
?ReceiveCharSlot@CGameState@@QAEXAAVCNetworkMessage@@@Z 
?ReceiveChatMessage@CSessionState@@QAEXPAVCNetworkMessage@@@Z 
?ReceiveCostSuitTakeOff@CSessionState@@AAEXXZ 
?ReceiveDamage@CEntity@@UAEXPAV1@W4DamageType@@MABV?$Vector@M$02@@2@Z 
?ReceiveDamage@CLiveEntity@@UAEXPAVCEntity@@W4DamageType@@MABV?$Vector@M$02@@2@Z 
?ReceiveDurabilityMessage@CSessionState@@QAEXPAVCNetworkMessage@@@Z 
?ReceiveEXPMessage@CSessionState@@QAEXPAVCNetworkMessage@@@Z 
?ReceiveEffectMessage@CSessionState@@QAEXPAVCNetworkMessage@@@Z 
?ReceiveElementalDeleteMessage@CSessionState@@QAEXPAVCNetworkMessage@@@Z 
?ReceiveEnvMessage@CSessionState@@QAEXPAVCNetworkMessage@@@Z 
?ReceiveEventMaster@CSessionState@@QAEXPAVCNetworkMessage@@@Z 
?ReceiveEventMessage@CSessionState@@QAEXPAVCNetworkMessage@@@Z 
?ReceiveEvocationStart@CSessionState@@QAEXPAVCNetworkMessage@@@Z 
?ReceiveEvocationStop@CSessionState@@QAEXPAVCNetworkMessage@@@Z 
?ReceiveExHairChange@CSessionState@@QAEXPAVCNetworkMessage@@@Z 
?ReceiveExLoadingEndMessage@CSessionState@@QAEXPAVCNetworkMessage@@@Z 
?ReceiveExPetColorChange@CSessionState@@QAEXPAVCNetworkMessage@@@Z 
?ReceiveExPetNameChange@CSessionState@@QAEXPAVCNetworkMessage@@@Z 
?ReceiveExPlayerStateChange@CSessionState@@QAEXPAVCNetworkMessage@@@Z 
?ReceiveExWildPetMessage@CSessionState@@QAEXEPAVCNetworkMessage@@@Z 
?ReceiveExchangeMessage@CSessionState@@QAEXPAVCNetworkMessage@@@Z 
?ReceiveExpeditionMessage@CSessionState@@QAEXPAVCNetworkMessage@@@Z 
?ReceiveExpressMessage@CSessionState@@QAEXPAVCNetworkMessage@@@Z 
?ReceiveExtendMessage@CSessionState@@QAEXPAVCNetworkMessage@@@Z 
?ReceiveFactoryMessage@CSessionState@@QAEXPAVCNetworkMessage@@@Z 
?ReceiveFailMessage@CSessionState@@QAEXPAVCNetworkMessage@@@Z 
?ReceiveFromClient@CMessageDispatcher@@QAEHJAAVCNetworkMessage@@@Z 
?ReceiveFromClientReliable@CMessageDispatcher@@QAEHJAAVCNetworkMessage@@@Z 
?ReceiveFromServer@CMessageDispatcher@@QAEHAAVCNetworkMessage@@@Z 
?ReceiveFromServerNew@CMessageDispatcher@@QAEHAAVCNetworkMessage@@@Z 
?ReceiveFromServerReliable@CMessageDispatcher@@QAEHAAVCNetworkMessage@@@Z 
?ReceiveFromServerReliable@CMessageDispatcher@@QAEHAAVCTMemoryStream@@@Z 
?ReceiveGmMessage@CSessionState@@QAEXPAVCNetworkMessage@@@Z 
?ReceiveGoToMessage@CSessionState@@QAEXPAVCNetworkMessage@@@Z 
?ReceiveGoZoneMessage@CSessionState@@QAEXPAVCNetworkMessage@@@Z 
?ReceiveGuildMessage@CSessionState@@QAEXPAVCNetworkMessage@@@Z 
?ReceiveInventoryMessage@CSessionState@@QAEXPAVCNetworkMessage@@@Z 
?ReceiveItemCollectionMessage@CSessionState@@QAEXPAVCNetworkMessage@@@Z 
?ReceiveItemComposMessage@CSessionState@@QAEXPAVCNetworkMessage@@@Z 
?ReceiveItemExchange@CSessionState@@AAEXPAVCNetworkMessage@@@Z 
?ReceiveItemMessage@CSessionState@@QAEXPAVCNetworkMessage@@@Z 
?ReceiveItemWearError@CSessionState@@AAEXPAVCNetworkMessage@@@Z 
?ReceiveLegitimateMessage@CSessionState@@QAEXPAVCNetworkMessage@@@Z 
?ReceiveLoginMessage@CSessionState@@QAEXPAVCNetworkMessage@@@Z 
?ReceiveMemPosMessage@CSessionState@@QAEXPAVCNetworkMessage@@@Z 
?ReceiveMercenaryMessage@CUIMonsterMercenary@@QAEHPAVCNetworkMessage@@JJJJ@Z 
?ReceiveMessage@CSessionState@@QAEHXZ 
?ReceiveMessengerExMessage@CSessionState@@QAEXPAVCNetworkMessage@@@Z 
?ReceiveMessengerMessage@CSessionState@@QAEXPAVCNetworkMessage@@@Z 
?ReceiveMoneyMessage@CSessionState@@QAEXPAVCNetworkMessage@@@Z 
?ReceiveMoveMessage@CSessionState@@QAEXPAVCNetworkMessage@@@Z 
?ReceiveNPCPortalMessage@CSessionState@@QAEXPAVCNetworkMessage@@@Z 
?ReceiveNewsMessage@CSessionState@@QAEXPAVCNetworkMessage@@@Z 
?ReceiveNickNameMessage@CSessionState@@QAEXPAVCNetworkMessage@@@Z 
?ReceiveNpcRegenMessage@CSessionState@@QAEXPAVCNetworkMessage@@@Z 
?ReceivePartyMessage@CSessionState@@QAEXPAVCNetworkMessage@@@Z 
?ReceivePartyRecall@CSessionState@@QAEXPAVCNetworkMessage@@@Z 
?ReceivePersonalShopMessage@CSessionState@@QAEXPAVCNetworkMessage@@@Z 
?ReceivePetChangeMountMessage@CSessionState@@QAEXPAVCNetworkMessage@@@Z 
?ReceivePetLearnMessage@CSessionState@@QAEXPAVCNetworkMessage@@@Z 
?ReceivePetLevelUpMessage@CSessionState@@QAEXPAVCNetworkMessage@@@Z 
?ReceivePetMountMessage@CSessionState@@QAEXPAVCNetworkMessage@@@Z 
?ReceivePetResetSkillMessage@CSessionState@@QAEXPAVCNetworkMessage@@@Z 
?ReceivePetSellInfoMessage@CSessionState@@QAEXPAVCNetworkMessage@@@Z 
?ReceivePetSkillListMessage@CSessionState@@QAEXPAVCNetworkMessage@@@Z 
?ReceivePetStashMessage@CSessionState@@QAEXPAVCNetworkMessage@@@Z 
?ReceivePetStatusMessage@CSessionState@@QAEXPAVCNetworkMessage@@@Z 
?ReceivePkMessage@CSessionState@@QAEXPAVCNetworkMessage@@@Z 
?ReceivePremiumCharMessage@CSessionState@@QAEXPAVCNetworkMessage@@@Z 
?ReceiveQuestMessage@CSessionState@@QAEXPAVCNetworkMessage@@@Z 
?ReceiveQuickSlotMessage@CSessionState@@QAEXPAVCNetworkMessage@@@Z 
?ReceiveRVRMessage@CSessionState@@QAEXPAVCNetworkMessage@@@Z 
?ReceiveRaidScene@CPlayerEntity@@UAEXPAVCNetworkMessage@@@Z 
?ReceiveRebirthMessage@CSessionState@@QAEXPAVCNetworkMessage@@@Z 
?ReceiveSSkillMessage@CSessionState@@QAEXPAVCNetworkMessage@@@Z 
?ReceiveServerListMessage@CSessionState@@QAEXPAVCNetworkMessage@@@Z 
?ReceiveSkillMessage@CSessionState@@QAEXPAVCNetworkMessage@@@Z 
?ReceiveStatMessage@CSessionState@@QAEXPAVCNetworkMessage@@@Z 
?ReceiveSystemMessage@CSessionState@@QAEXPAVCNetworkMessage@@@Z 
?ReceiveTakeAgainQuestItem@CSessionState@@QAEXPAVCNetworkMessage@@@Z 
?ReceiveTeachMessage@CSessionState@@QAEXPAVCNetworkMessage@@@Z 
?ReceiveTick@CSessionState@@QAEXMPAEJ@Z 
?ReceiveTimerItemMessage@CSessionState@@QAEXPAVCNetworkMessage@@@Z 
?ReceiveToggleMessage@CSessionState@@QAEXPAVCNetworkMessage@@@Z 
?ReceiveTriggerEvent@CPlayerEntity@@UAEXJJJPAVCNetworkMessage@@@Z 
?ReceiveUIMessage@CSessionState@@QAEXPAVCNetworkMessage@@@Z 
?ReceiveWareHouseMessage@CSessionState@@QAEXPAVCNetworkMessage@@@Z 
?ReceiveWarpMessage@CSessionState@@QAEXPAVCNetworkMessage@@@Z 
?ReceviePetItemChangeMessage@CSessionState@@QAEXPAVCNetworkMessage@@@Z 
?ReceviePetItemMixMessage@CSessionState@@QAEXPAVCNetworkMessage@@@Z 
?ReceviePetRebirthMessage@CSessionState@@QAEXPAVCNetworkMessage@@@Z 
?RecieveCostume2Message@CSessionState@@QAEXPAVCNetworkMessage@@@Z 
?RecieveFaceOffMessage@CSessionState@@QAEXPAVCNetworkMessage@@@Z 
?RecieveLordCostumeMessage@CSessionState@@QAEXPAVCNetworkMessage@@@Z 
?RecieveLuckyDrawBoxMessage@CSessionState@@QAEXPAVCNetworkMessage@@@Z 
?RecieveMasterStoneMessage@CSessionState@@QAEXPAVCNetworkMessage@@@Z 
?RecieveMonsterMercenaryCardMessage@CSessionState@@QAEXPAVCNetworkMessage@@@Z 
?RecieveMsgBoxShow@CSessionState@@QAEXPAVCNetworkMessage@@@Z 
?RecievePromotionEventMessage@CSessionState@@QAEXPAVCNetworkMessage@@@Z 
?RecieveRankingListExMessage@CSessionState@@QAEXPAVCNetworkMessage@@@Z 
?RecieveRoyalrumbleMessage@CSessionState@@QAEXPAVCNetworkMessage@@@Z 
?RecieveSocketSystemMessage@CSessionState@@QAEXPAVCNetworkMessage@@@Z 
?RecieveSubJobMessage@CSessionState@@QAEXPAVCNetworkMessage@@@Z 
?RecieveUsedPartyItemMessage@CSessionState@@QAEXPAVCNetworkMessage@@@Z 
?RecommandFrameInit@CUICashShopEX@@IAEXMM@Z 
?Reconnect@CCommunicationInterface@@QAEXVCTString@@K@Z 
?RecvChangeExpedition@Party@@QAEXPAVCNetworkMessage@@@Z 
?RecvExpeditionError@Party@@QAEXPAVCNetworkMessage@@@Z 
?RecvExpeditionInvite@Party@@QAEXPAVCNetworkMessage@@@Z 
?RecvExpressMessage@ExpressSystem@@QAEXPAVCNetworkMessage@@@Z 
?RecvExtend@CSessionState@@AAE_NPAVCNetworkMessage@@@Z 
?RecvPetStashMessage@PetStash@@QAEXPAVCNetworkMessage@@@Z 
?RecvRaidError@Party@@QAEXPAVCNetworkMessage@@@Z 
?RecvViewDetail@Party@@QAEXCPAVCNetworkMessage@@@Z 
?ReduceShadows@CGfxLibrary@@QAEXXZ 
?RefineReq@CNetworkLibrary@@QAEXFF@Z 
?Refresh@CItemEffect@@QAEXPAVCTagManager@@C@Z 
?Refresh@CStatusEffect@@QAEXPAVCTagManager@@W4eRelation@1@@Z 
?RefreshAccessoryEffect@CItemEffect@@QAEXPAVCTagManager@@@Z 
?RefreshGuildMasterEffect@ActorMgr@@QAEXXZ 
?RefreshNPCQuestMark@ActorMgr@@QAEXJ@Z 
?RefreshPetStashEffect@CItemEffect@@QAEXPAVCTagManager@@@Z 
?RefreshQuestMark@ActorMgr@@QAEXXZ 
?RefreshRelicEffect@CItemEffect@@QAEXPAVCTagManager@@@Z 
?RefreshSiegeWarfareEffect@ActorMgr@@QAEX_N@Z 
?RefreshTagManager@CModelInstance@@QAEXXZ 
?Register@CEffectGroupManager@@QAEHPAVCEffectGroup@@@Z 
?Register@CEffectManager@@QAEHPAVCEffect@@@Z 
?Register@CParticleGroupManager@@QAEHPAVCParticleGroup@@@Z 
?Register@CTagManager@@QAEHPAVCTag@@@Z 
?RegisterActions@CUICharacterInfo@@QAEXXZ 
?RegisterNoCopy@CTagManager@@QAEHPAVCTag@@@Z 
?Reinit@CNetworkMessage@@QAEXXZ 
?Reinitialize@CEntity@@QAEXXZ 
?ReinitializeEntities@CWorld@@QAEXXZ 
?RelativeToAbsolute@CPlacement3D@@QAEXABV1@@Z 
?RelativeToAbsoluteSmooth@CPlacement3D@@QAEXABV1@@Z 
?RelativeToRelative@CPlacement3D@@QAEXABV1@0@Z 
?RelativeToRelativeSmooth@CPlacement3D@@QAEXABV1@0@Z 
?Release@CEntityComponent@@QAEXXZ 
?Release@CStock_CAnimData@@QAEXPAVCAnimData@@@Z 
?Release@CStock_CAnimSet@@QAEXPAVCAnimSet@@@Z 
?Release@CStock_CEntityClass@@QAEXPAVCEntityClass@@@Z 
?Release@CStock_CFontData@@QAEXPAVCFontData@@@Z 
?Release@CStock_CMesh@@QAEXPAVCMesh@@@Z 
?Release@CStock_CModelData@@QAEXPAVCModelData@@@Z 
?Release@CStock_CModelInstance@@QAEXPAVCModelInstanceSerial@@@Z 
?Release@CStock_CShader@@QAEXPAVCShader@@@Z 
?Release@CStock_CSkeleton@@QAEXPAVCSkeleton@@@Z 
?Release@CStock_CSoundData@@QAEXPAVCSoundData@@@Z 
?Release@CStock_CTextureData@@QAEXPAVCTextureData@@@Z 
?Release@CTag@@QAEKXZ 
?Release@CUITextBoxEx@@QAEXXZ 
?ReleaseCache@CDLLEntityClass@@QAEXW4EntityComponentType@@J@Z 
?ReleaseChche@CEntity@@QAEXW4EntityComponentType@@J@Z 
?ReleaseComponents@CEntityClass@@QAEXXZ 
?ReleasePlayingBuffer@CSoundLibrary@@QAEXJH@Z 
?ReleaseTexData@CUIImage@@QAEXXZ 
?ReleaseTexData@CUISpriteAni@@QAEXXZ 
?Reload@CSerial@@QAEXXZ 
?Reload@CTextureData@@QAEXXZ 
?RemAll@CListHead@@QAEXXZ 
?RemAnimation@CEntity@@QAEXJJ@Z 
?RemAnimation@CModelInstance@@QAEXJ@Z 
?RemAnimsWithID@CEntity@@QAEXJJ@Z 
?RemAnimsWithID@CModelInstance@@QAEXJ@Z 
?RemHandler@CTimer@@QAEXPAVCTimerHandler@@@Z 
?RemHead@CListHead@@QAEXXZ 
?RemReference@CEntity@@QAEXXZ 
?RemReference@CEntityClass@@QAEXXZ 
?RemReference@CSoundData@@QAEXXZ 
?RemReference_internal@CModelData@@UAEXXZ 
?RemReference_internal@CTextureData@@UAEXXZ 
?RemTail@CListHead@@QAEXXZ 
?RemakeColorsAndTexCoords@CTraceEffect@@IAEXJ@Z 
?RemapMeshIndices@@YAXAAUMeshLOD@@PBJJ@Z 
?RemapMeshVertices@@YAXAAUMeshLOD@@PBJJ@Z 
?RememberCurrentLevel@CSessionState@@QAEXABVCTString@@@Z 
?RememberUnCompresedRotatations@@YAXH@Z 
?RemoteitemUse@ExpressSystem@@QAEXXZ 
?Remove@CListNode@@QAEXXZ 
?Remove@CQuestSystem@@QAEHJ@Z 
?RemoveAffinityRewardNPC@CNetworkLibrary@@QAEXH@Z 
?RemoveAll@ActorMgr@@QAEXXZ 
?RemoveAllAttachmentModels@CModelObject@@QAEXXZ 
?RemoveAllChildren@CModelInstance@@QAEXH@Z 
?RemoveAlpha@CEffectControl@@QAEIH@Z 
?RemoveAlpha@CParticlesProcessDynamicState@@QAEIH@Z 
?RemoveAlphaChannel@@YAXPAKPAEJ@Z 
?RemoveAngle@CEffectControl@@QAEIH@Z 
?RemoveAngle@CParticlesProcessDynamicState@@QAEIH@Z 
?RemoveAnimation@CAnimSet@@QAEXPAUAnimation@@@Z 
?RemoveApplicationPath_t@CTFileName@@QAEXXZ 
?RemoveAttachment@CEntity@@QAEXJ@Z 
?RemoveAttachmentModel@CModelObject@@QAEXJ@Z 
?RemoveBuff@CCharacterTarget@@QAEXJJ@Z 
?RemoveBuff@CMobTarget@@QAEXJJ@Z 
?RemoveBuff@CSlaveTarget@@QAEXJJ@Z 
?RemoveCMap@ActorMgr@@AAEXW4eOBJ_TYPE@@I@Z 
?RemoveChild@CModelInstance@@QAEXPAV1@@Z 
?RemoveChild@CTagManager@@QAEXPAV1@@Z 
?RemoveColisionBox@CModelInstance@@QAEXJ@Z 
?RemoveColor@CEffectControl@@QAEIH@Z 
?RemoveColor@CParticlesProcessDynamicState@@QAEIH@Z 
?RemoveCommonProcess@CParticleGroup@@QAEXI@Z 
?RemoveDeltaPos@CParticlesProcessDynamicState@@QAEIH@Z 
?RemoveDevice@CInput@@QAEHAAVCInputDevice@@@Z 
?RemoveDummyEdgeReferences@CObjectPolygon@@QAEXXZ 
?RemoveDummyLayers@CBrushArchive@@QAEXXZ 
?RemoveDummyLayers@CBrushShadowMap@@QAEXXZ 
?RemoveDummyPortals@CBrushMip@@QAEXH@Z 
?RemoveEffect@CEffectGroup@@QAEHJ@Z 
?RemoveEmptySectors@CObject3D@@QAEXXZ 
?RemoveEntityFromCollisionGrid@CWorld@@QAEXPAVCEntity@@ABV?$AABBox@M$02@@@Z 
?RemoveExpeditionMember@Party@@QAEXHH@Z 
?RemoveFile@@YAHABVCTFileName@@@Z 
?RemoveFlag@CTerrain@@QAEXK@Z 
?RemoveFromPendingList@CSoundLibrary@@QAEXAAVCSoundObject@@H@Z 
?RemoveHeight@CShockWaveEffect@@QAEIH@Z 
?RemoveImage@CUIImageArray@@QAE_NH@Z 
?RemoveMarkedEdges@CObjectPolygon@@QAEXJ@Z 
?RemoveMass@CParticlesProcessDynamicState@@QAEIH@Z 
?RemoveMember@Party@@QAEXJ@Z 
?RemoveMeshLod@CMesh@@QAEXPAUMeshLOD@@@Z 
?RemoveNMap@ActorMgr@@AAEXI@Z 
?RemoveObject@ActorMgr@@QAEXW4eOBJ_TYPE@@I@Z 
?RemovePassedAnimsFromQueue@CModelInstance@@QAEXXZ 
?RemovePos@CEffectControl@@QAEIH@Z 
?RemovePrefix@CTString@@QAEHABV1@@Z 
?RemoveRadius@CShockWaveEffect@@QAEIH@Z 
?RemoveRaidMessageAll@Quest@@QAEXXZ 
?RemoveRedundantEdges@CObjectPolygon@@QAEXXZ 
?RemoveSelectedQuest@Quest@@QAEXABH@Z 
?RemoveShakeValue@CCameraEffect@@QAEIH@Z 
?RemoveSize@CParticlesProcessDynamicState@@QAEIH@Z 
?RemoveSkeletonLod@CSkeleton@@QAEXPAUSkeletonLOD@@@Z 
?RemoveSpecialCodes@@YA?AVCTString@@ABV1@@Z 
?RemoveStretch@CEffectControl@@QAEIH@Z 
?RemoveString@CUIListBox@@QAEXHH@Z 
?RemoveTag@CEffectGroup@@QAEHJ@Z 
?RemoveTexPos@CParticlesProcessDynamicState@@QAEIH@Z 
?RemoveTexture@CModelInstance@@QAEXPAUTextureInstance@@PAUMeshInstance@@@Z 
?RemoveUV@CUISpriteAni@@QAE_NH@Z 
?RemoveWidth@CShockWaveEffect@@QAEIH@Z 
?Removeforce@CParticlesProcessForce@@QAEXI@Z 
?Render@CCameraEffect@@UAEXXZ 
?Render@CEffect@@UAEXXZ 
?Render@CLightEffect@@UAEXXZ 
?Render@CMdlEffect@@UAEXXZ 
?Render@CNiceWater@@QAEXXZ 
?Render@CParticleEffect@@UAEXXZ 
?Render@CParticleGroup@@QAEXXZ 
?Render@CShockWaveEffect@@UAEXXZ 
?Render@CSkaEffect@@UAEXXZ 
?Render@CSplineBillboardEffect@@UAEXXZ 
?Render@CTag@@QAEXKV?$Vector@M$02@@@Z 
?Render@CTerrainEffect@@UAEXXZ 
?Render@CTraceEffect@@UAEXXZ 
?Render@CUIAutoHelp@@QAEXXZ 
?Render@CUIBase@@UAEXPAVCDrawPort@@@Z 
?Render@CUIBase@@UAEXXZ 
?Render@CUIButton@@QAEXK@Z 
?Render@CUICashShopEX@@UAEXXZ 
?Render@CUICheckButton@@UAEXXZ 
?Render@CUIComboBox@@UAEXXZ 
?Render@CUIEditBox@@UAEXXZ 
?Render@CUIExpressSystem@@UAEXXZ 
?Render@CUIGuildBattle@@UAEXXZ 
?Render@CUIImage@@UAEXPAVCDrawPort@@@Z 
?Render@CUIImage@@UAEXXZ 
?Render@CUIImageBox@@UAEXXZ 
?Render@CUIListBox@@UAEXXZ 
?Render@CUIManager@@QAEXPAVCDrawPort@@PAVCProjection3D@@@Z 
?Render@CUIManager@@UAEXPAVCDrawPort@@@Z 
?Render@CUIMultiLineText@@QAEXXZ 
?Render@CUIOption@@UAEXXZ 
?Render@CUIProgressBar@@UAEXXZ 
?Render@CUIScrollBar@@UAEXXZ 
?Render@CUISignBoard@@QAEXXZ 
?Render@CUISingleBattle@@UAEXXZ 
?Render@CUISlideBar@@UAEXXZ 
?Render@CUISpinButton@@UAEXXZ 
?Render@CUITatoo@@UAEXXZ 
?Render@CUITree@@UAEXPAVCDrawPort@@@Z 
?Render@CUITreeItem@@UAEXPAVCDrawPort@@@Z 
?Render@MsgBoxMgr@@QAEXPAVCDrawPort@@@Z 
?RenderBorder@CUIBase@@UAEXPAVCDrawPort@@@Z 
?RenderBtnInfo@CUIManager@@QAEXPAVCTextureData@@AAVCUIButton@@QAUUIRectUV@@H@Z 
?RenderChild@CUIBase@@QAEXPAVCDrawPort@@@Z 
?RenderColorButtons@CUITatoo@@QAEXXZ 
?RenderCursor@CEntity@@UAEXPAVCDrawPort@@PAX@Z 
?RenderDamage@CUIManager@@IAEXHV?$_Vector_iterator@V?$_Vector_val@U?$_Simple_types@U_tagDAMAGE@@@std@@@std@@@std@@NHH@Z 
?RenderGBReq@CUIGuildBattle@@QAEXXZ 
?RenderGBStatus@CUIGuildBattle@@QAEXXZ 
?RenderGBStatus@CUISingleBattle@@QAEXXZ 
?RenderGMNotice@CUIAutoHelp@@QAEXXZ 
?RenderGameView@CEntity@@UAEXPAVCDrawPort@@PAX@Z 
?RenderHUDObjectNamePopup@CUIManager@@QAEXPAVCEntity@@PAVCDrawPort@@PAVCProjection3D@@@Z 
?RenderHighlight@CUIButton@@QAEXK@Z 
?RenderKillPoint@CUIGuildBattle@@QAEXXZ 
?RenderKillPoint@CUISingleBattle@@QAEXXZ 
?RenderLeftTime@CUIGuildBattle@@QAEXXZ 
?RenderLensFlare@CDrawPort@@QBEXPAVCTextureObject@@MMMMMK@Z 
?RenderLine@CParticle@@QAEXXZ 
?RenderLine@CParticles@@QAEXJJ@Z 
?RenderModel@CModelObject@@QAEXAAVCRenderModel@@@Z 
?RenderModel_Mask@CModelObject@@AAEXAAVCRenderModel@@@Z 
?RenderModel_View@CModelObject@@AAEXAAVCRenderModel@@@Z 
?RenderObjectIndexPopup@CUIManager@@IAEXPAVCProjection3D@@@Z 
?RenderObjectNamePopup@CUIManager@@IAEXPAVCProjection3D@@@Z 
?RenderParticles@CEntity@@UAEXXZ 
?RenderPatches_View@CModelObject@@AAEXAAVCRenderModel@@@Z 
?RenderQuad@CParticle@@QAEXXZ 
?RenderQuad@CParticles@@QAEXJJ@Z 
?RenderReadingWindow@CUIEditBox@@QAEXXZ 
?RenderRectUV3@CUISpinButton@@QAEXHHHHHU_UIRectUV3@@@Z 
?RenderSelectedColorOutline@CUITatoo@@QAEXXZ 
?RenderSelectedShapeOutline@CUITatoo@@QAEXXZ 
?RenderShadow@CModelObject@@QAEXAAVCRenderModel@@ABVCPlacement3D@@MMMABV?$Plane@M$02@@@Z 
?RenderShadow_View@CModelObject@@AAEXAAVCRenderModel@@ABVCPlacement3D@@MMMABV?$Plane@M$02@@@Z 
?RenderShapeButtons@CUITatoo@@QAEXXZ 
?RenderTargetModel_Wearing@CUICharacterCreateNew@@AAEXJHH@Z 
?RenderTrail@CParticle@@QAEXXZ 
?RenderTrail@CParticles@@QAEXJJ@Z 
?RenderTrailVelocity@CParticle@@QAEXXZ 
?RenderTrailVelocity@CParticles@@QAEXJJ@Z 
?RenderView@@YAXAAVCWorld@@AAVCEntity@@AAVCAnyProjection3D@@AAVCDrawPort@@@Z 
?Reoptimize@CBrushMip@@QAEXXZ 
?ReplaceSubstr@CTString@@QAEHABV1@0@Z 
?Report@CProfileForm@@QAEXAAVCTString@@@Z 
?Request@cWeb@@QAEXPBD@Z 
?RequestQuest@CUIQuestAccept@@QAEXHHCMM@Z 
?ResendGameStreamBlocks@CServer@@QAEXJJJ@Z 
?Reset@CProfileForm@@QAEXXZ 
?Reset@CStatusEffect@@QAEXXZ 
?Reset@CUILoginNew@@QAEXXZ 
?Reset@CUIManager@@QAEXXZ 
?Reset@CUIMsgBox_Info@@QAEXXZ 
?Reset@CharacterCreateNew@@QAEXXZ 
?ResetAllDatas@CUISpinButton@@QAEXXZ 
?ResetAllStrings@CUIListBox@@QAEXXZ 
?ResetAnim@CAnimObject@@QAEXXZ 
?ResetArray@CUIArray@@QAEXXZ 
?ResetAttachmentModelPosition@CModelObject@@QAEXJ@Z 
?ResetBtn@CUILoginNew@@QAEXXZ 
?ResetCSFlag@CUIManager@@QAEXXZ 
?ResetCSFlagElapsed@CUIManager@@QAEXXZ 
?ResetChaStatus@CNetworkLibrary@@QAEXK@Z 
?ResetDisplay@CUIOption@@QAEXXZ 
?ResetDisplayMode@CGfxLibrary@@QAEHW4GfxAPIType@@@Z 
?ResetHandles@CShader@@QAEXXZ 
?ResetHoldBtn@CUIManager@@QAEXXZ 
?ResetImageBox@CUIImageBox@@QAEXXZ 
?ResetItemDelayTime@CNetworkLibrary@@QAEXXZ 
?ResetMobStatus@CNetworkLibrary@@QAEXK@Z 
?ResetModelPos@CUICharacterCreateNew@@QAEXHHH@Z 
?ResetName@CUICharacterCreateNew@@QAEXXZ 
?ResetPosition@CUICashShopEX@@UAEXJJJJ@Z 
?ResetPosition@CUICharacterInfo@@UAEXJJJJ@Z 
?ResetPosition@CUIExpressSystem@@UAEXJJJJ@Z 
?ResetPosition@CUIGuildBattle@@UAEXJJJJ@Z 
?ResetPosition@CUIOption@@UAEXJJJJ@Z 
?ResetPosition@CUIPetStashSelectEffect@@UAEXJJJJ@Z 
?ResetPosition@CUISingleBattle@@UAEXJJJJ@Z 
?ResetPosition@CUITatoo@@UAEXJJJJ@Z 
?ResetRND@CSessionState@@QAEXXZ 
?ResetRenderCount@CInvenData@@QAEXXZ 
?ResetSavePosition@CUICharacterInfo@@UAEXJJJJ@Z 
?ResetSelArea@CUIEditBox@@QAEXXZ 
?ResetSelect@CUICharacterCreateNew@@QAEXXZ 
?ResetShop@CUIPersonalshopNew@@QAEX_N@Z 
?ResetShowCount@CUIEditBox@@QAEXXZ 
?ResetSkillDelayTime@CNetworkLibrary@@QAEXXZ 
?ResetStartTime@CSkill@@QAEXXZ 
?ResetStatus@CCharacterTarget@@QAEXXZ 
?ResetStatus@CMobTarget@@QAEXXZ 
?ResetStatus@CPetTarget@@QAEXXZ 
?ResetStatus@CSlaveTarget@@QAEXXZ 
?ResetString@CUIEditBox@@QAEXXZ 
?ResetStrings@CUIComboBox@@QAEXXZ 
?ResetTabPos@CUITab@@QAEXXZ 
?ResetTimer@CSoundObject@@QAEXJ@Z 
?ResetUIPos@CUIManager@@QAEXPAVCDrawPort@@@Z 
?ResetUISavePos@CUIManager@@QAEXPAVCDrawPort@@@Z 
?ResetWearing@CUICharacterCreateNew@@QAEXH@Z 
?ResetZero@CParticle@@QAEXXZ 
?ResetZoneList@CUIPortal@@QAEXXZ 
?Reset_EffectSystem@@YAXXZ 
?Resize@CViewPort@@QAEXXZ 
?ResizeMemory@@YAXPAPAXJ@Z 
?Restart@CParticleGroup@@QAEXXZ 
?Restart@CParticlesEmitter@@QAEXXZ 
?RestartGame@CNetworkLibrary@@QAEXXZ 
?Restart_Internal@CUISystemMenu@@QAEXXZ 
?RestoreOldLevel@CSessionState@@QAEXABVCTString@@@Z 
?Resume@CSoundObject@@QAEXXZ 
?Resume@cThreadWrapper@@QAEXXZ 
?Return@CEntity@@QAEXJABVCEntityEvent@@@Z 
?Return@CRationalEntity@@QAEXJABVCEntityEvent@@@Z 
?ReturnCCC@CNetworkLibrary@@QAEHH@Z 
?ReturnChange@CPlayerEntity@@UAEXH@Z 
?ReturnSorcerer@CPlayerEntity@@UAEXXZ 
?ReturnTransformPet@CPlayerEntity@@UAEXPAVCEntity@@@Z 
?ReturnUI@CUICharacterCreateNew@@QAEXXZ 
?RevGiftList@CUICashShopEX@@QAEXPAVCNetworkMessage@@@Z 
?RevResultGetGift@CUICashShopEX@@QAEXXZ 
?RevWishList@CUICashShopEX@@QAEXPAVCNetworkMessage@@H@Z 
?Rewind@CNetworkMessage@@QAEXXZ 
?RidePet@CNetworkLibrary@@QAEXPAVCEntity@@0J@Z 
?RideWildPet@CNetworkLibrary@@QAEXPAVCEntity@@0VCTString@@@Z 
?RidingPet@CPlayerEntity@@UAEXPAVCEntity@@J@Z 
?RidingWildPet@CPlayerEntity@@UAEXPAVCEntity@@0VCTString@@@Z 
?Rnd@CSessionState@@QAEKXZ 
?Rotate@CMappingDefinition@@QAEXABVCMappingVectors@@ABV?$Vector@M$02@@M@Z 
?Rotate@CParticle@@QAEXABV?$Quaternion@M@@@Z 
?Rotate@CParticle@@QAEXM@Z 
?Rotate@CParticle@@QAEXMABV?$Vector@M$02@@@Z 
?Rotate_Airplane@CPlacement3D@@QAEXABV?$Vector@M$02@@@Z 
?Rotate_HPB@CPlacement3D@@QAEXABV?$Vector@M$02@@@Z 
?Rotate_TrackBall@CPlacement3D@@QAEXABV?$Vector@M$02@@@Z 
?Rotation@CUICharacterCreateNew@@QAEXW4eCreateBtnType@@@Z 
?Run@StageMgr@@QAEXXZ 
?RunRClickMenu@CUICashShopEX@@IAEXJ@Z 
?Running@CGameState@@QAEAAHXZ 
?SE_CheckEngine@@YA_NXZ 
?SE_Destroy_GameDataManagerPtr@@YAXXZ 
?SE_Destroy_UIManagerPtr@@YAXXZ 
?SE_Destroy_WebAddressPtr@@YAXXZ 
?SE_EndEngine@@YAXXZ 
?SE_GetEngineDllRefCnt@@YA?BHXZ 
?SE_Get_GameDataManagerPtr@@YAPAVGameDataManager@@XZ 
?SE_Get_UIManagerPtr@@YAPAVCUIManager@@XZ 
?SE_Get_UtilHelpPtr@@YAPAVUtilHelp@@XZ 
?SE_Get_WebAddressPtr@@YAPAVCWebAddress@@XZ 
?SE_InitEngine@@YAXVCTString@@@Z 
?SE_LoadDefaultFonts@@YAXXZ 
?SE_PretouchIfNeeded@@YAXXZ 
?SE_UpdateWindowHandle@@YAXPAUHWND__@@0@Z 
?STAT_Report@@YAXAAVCTString@@@Z 
?STAT_Reset@@YAXXZ 
?SaveIncludeFile_t@CEditModel@@QAEXVCTFileName@@VCTString@@@Z 
?SaveIntVar@@YAXABVCTFileName@@AAJ@Z 
?SaveInterfaceSymbol@CInterfaceSymbol@@QAEXXZ 
?SaveJPG_t@CImageInfo@@QBEXABVCTFileName@@@Z 
?SaveKeepCRLF_t@CTString@@QAEXABVCTFileName@@@Z 
?SaveMapping_t@CEditModel@@QAEXVCTFileName@@J@Z 
?SaveStringVar@@YAXABVCTFileName@@AAVCTString@@@Z 
?SaveTGA_t@CImageInfo@@QBEXABVCTFileName@@@Z 
?SaveVar@CTString@@QAEXABVCTFileName@@@Z 
?Save_EffectSystem@@YAHABVCTFileName@@@Z 
?Save_t@CEditModel@@QAEXVCTFileName@@@Z 
?Save_t@CNetworkLibrary@@QAEXABVCTFileName@@@Z 
?Save_t@CPlayerCharacter@@QAEXABVCTFileName@@@Z 
?Save_t@CSerial@@QAEXABVCTFileName@@@Z 
?Save_t@CTString@@QAEXABVCTFileName@@@Z 
?Save_t@CWorld@@QAEXABVCTFileName@@@Z 
?Save_t_ext@CWorld@@QAEXABVCTFileName@@@Z 
?ScanF@CTString@@QAAJPBDZZ 
?ScreenBBoxL@CProjection3D@@QAEAAV?$AABBox@M$01@@XZ 
?ScreenBBoxR@CProjection3D@@QBEABV?$AABBox@M$01@@XZ 
?SearchClientChaIndex@CNetworkLibrary@@QAEJK@Z 
?SearchContactQuestIndex@CQuestSystem@@QAEJJ@Z 
?SearchEntityByNetworkID@CNetworkLibrary@@QAEHJCAAPAVCEntity@@@Z 
?SearchExpeditionMember@Party@@QAE_NJAAH0@Z 
?SearchIndex@CFontData@@QBEHG@Z 
?SearchLegitList@CNetworkLibrary@@QAEHHH@Z 
?SearchNearItem@ActorMgr@@QAEXPAVCSelectedEntities@@V?$Vector@M$02@@M@Z 
?SearchNearItem@CPlayerEntity@@UAEXXZ 
?SearchSectorAroundEntity@CWorld@@QAEXPAVCEntity@@ABV?$Vector@M$02@@AAVCAnyProjection3D@@@Z 
?Seek_t@CTFileStream@@UAEXJW4SeekDir@CTStream@@@Z 
?Seek_t@CTMemoryStream@@UAEXJW4SeekDir@CTStream@@@Z 
?SelJob@CUICharacterCreateNew@@QAEXW4eCreateBtnType@@@Z 
?SelSocial@CUICharacterCreateNew@@QAEXW4eCreateBtnType@@@Z 
?Select@CBrushPolygon@@QAEXK@Z 
?Select@CBrushSector@@QAEXK@Z 
?Select@CBrushVertex@@QAEXK@Z 
?Select@CEntity@@QAEXK@Z 
?SelectAllSectors@CBrushMip@@QAEXAAV?$CSelection@VCBrushSector@@$00@@@Z 
?SelectAllSectors@CBrushMip@@QAEXAAV?$CSelection@VCBrushSector@@$03@@@Z 
?SelectArmor@CUICharacterCreateNew@@QAEXXZ 
?SelectByColorInSector@CBrushPolygon@@QAEXAAV?$CSelection@VCBrushPolygon@@$0BAA@@@@Z 
?SelectByTextureInSector@CBrushPolygon@@QAEXAAV?$CSelection@VCBrushPolygon@@$0BAA@@@J@Z 
?SelectByTextureInSelectedSectors@CWorld@@QAEXVCTFileName@@AAV?$CSelection@VCBrushPolygon@@$0BAA@@@J@Z 
?SelectByTextureInWorld@CWorld@@QAEXVCTFileName@@AAV?$CSelection@VCBrushPolygon@@$0BAA@@@J@Z 
?SelectClosedSectors@CBrushMip@@QAEXAAV?$CSelection@VCBrushSector@@$03@@@Z 
?SelectFace@CUICharacterCreateNew@@QAEXXZ 
?SelectFrameInTime@CAnimObject@@QAEXM@Z 
?SelectHair@CUICharacterCreateNew@@QAEXXZ 
?SelectModel@CUIPetStashSelectEffect@@AAEXXZ 
?SelectOpenSector@CBrushMip@@QAEXAAV?$CSelection@VCBrushSector@@$03@@@Z 
?SelectSectorsInRange@CBrushMip@@QAEXAAV?$CSelection@VCBrushSector@@$00@@V?$AABBox@M$02@@@Z 
?SelectSectorsInRange@CBrushMip@@QAEXAAV?$CSelection@VCBrushSector@@$03@@V?$AABBox@M$02@@@Z 
?SelectSimilarByColor@CBrushPolygon@@QAEXAAV?$CSelection@VCBrushPolygon@@$0BAA@@@@Z 
?SelectSimilarByTexture@CBrushPolygon@@QAEXAAV?$CSelection@VCBrushPolygon@@$0BAA@@@J@Z 
?SelectSlot@CGameState@@QAEXHH@Z 
?SelectSocial@CUICharacterCreateNew@@QAEXXZ 
?SelectUIModelwearing@CGameState@@QAEXHHHH@Z 
?SelectedEntitiesSort@CSelectedEntities@@QAEXXZ 
?SelectedSlot@CGameState@@QAEAAJXZ 
?SellItem@CNetworkLibrary@@QAEXHH_J@Z 
?Send2006ChuseokExchange@CNetworkLibrary@@QAEXXZ 
?Send2006ChuseokRainbowMake@CNetworkLibrary@@QAEXXZ 
?Send2006ChuseokRicecakeMake@CNetworkLibrary@@QAEXXZ 
?Send2006XMasEvent@CNetworkLibrary@@QAEXJ@Z 
?Send2p4pLetter@CNetworkLibrary@@QAEXJ@Z 
?SendAcceptReq@Quest@@QAEXHPAVCItems@@@Z 
?SendAcknowledge@CSessionState@@QAEXM@Z 
?SendActionMessage@CNetworkLibrary@@QAEXCCCVCEntityPointer@@@Z 
?SendActionsToServer@CNetworkLibrary@@QAEXXZ 
?SendAdultOpenEventReq@CNetworkLibrary@@QAEXHHHH@Z 
?SendAffinityConnectReq@CNetworkLibrary@@QAEXJ@Z 
?SendAffinityGiftInfoReq@CNetworkLibrary@@QAEXJ@Z 
?SendAffinityGiftReq@CNetworkLibrary@@QAEXJ@Z 
?SendAffinityInfoTabReq@CNetworkLibrary@@QAEXJ@Z 
?SendAffinityShopReq@CNetworkLibrary@@QAEXJ@Z 
?SendApplyTowerSet@CUISiegeWarfareNew@@QAEXXZ 
?SendAttackList@CNetworkLibrary@@QAEXXZ 
?SendAttackMessage@CNetworkLibrary@@QAEXPAVCEntity@@0H@Z 
?SendAttackMessageInContainer@CNetworkLibrary@@QAEXAAVCSelectedEntities@@@Z 
?SendAttackSymbol@CNetworkLibrary@@QAEXXZ 
?SendAttendanceReq@CNetworkLibrary@@QAEXJ@Z 
?SendAttendanceRewardReq@CNetworkLibrary@@QAEXXZ 
?SendBJMono2007Req@CNetworkLibrary@@QAEXEK@Z 
?SendBirthdayMessage@CNetworkLibrary@@QAEXJ@Z 
?SendBlockEvent@CMovableEntity@@QAEXAAVCClipMove@@@Z 
?SendBoosterUpgrade@CNetworkLibrary@@QAEXJ@Z 
?SendBringReq@CUICashShopEX@@QAEXXZ 
?SendBroadcast@CMessageDispatcher@@QAEXABVCNetworkMessage@@KG@Z 
?SendBuddhismEvent@CNetworkLibrary@@QAEXE@Z 
?SendBuyCollectBox@CNetworkLibrary@@QAEXXZ 
?SendCancelSkillMessage@CNetworkLibrary@@QAEXXZ 
?SendCashItemMessage@CNetworkLibrary@@QAEXH@Z 
?SendCashItemMessage@CNetworkLibrary@@QAEXHJJ@Z 
?SendCashMoonStoneReward@CNetworkLibrary@@QAEXXZ 
?SendCashPersonShop@CNetworkLibrary@@QAEXE@Z 
?SendCastleMapRecent@CNetworkLibrary@@QAEXXZ 
?SendCastleMapSignal@CNetworkLibrary@@QAEXMMJJ@Z 
?SendChangGuildName@CNetworkLibrary@@QAEXVCTString@@@Z 
?SendChangMyName@CNetworkLibrary@@QAEXVCTString@@@Z 
?SendChangeExpedition@Party@@QAEXXZ 
?SendChangeGroup@Party@@QAEXHHHH@Z 
?SendChangeSubLeader@Party@@QAEXJ@Z 
?SendChangeWeaponEvent@CNetworkLibrary@@QAEXXZ 
?SendChat@CNetworkLibrary@@QAEXKKABVCTString@@@Z 
?SendChatMessage@CNetworkLibrary@@QAEXHAAVCTString@@0J@Z 
?SendCheckComposition@CNetworkLibrary@@QAEXFFJ@Z 
?SendChuseokExchange@CNetworkLibrary@@QAEXXZ 
?SendChuseokUpgrade@CNetworkLibrary@@QAEXXZ 
?SendClickObject@CNetworkLibrary@@QAEXH@Z 
?SendClientData@CServer@@QAEXJ@Z 
?SendClothesExchange@CNetworkLibrary@@QAEXH@Z 
?SendCollectProduceMessage@CNetworkLibrary@@QAEXJ@Z 
?SendComebackMessage@CNetworkLibrary@@QAEXXZ 
?SendConnectItemReq@CNetworkLibrary@@QAEXXZ 
?SendConsensus@CUISiegeWarfareNew@@QAEXE@Z 
?SendCouponItemReq@CNetworkLibrary@@QAEXVCTString@@@Z 
?SendCreateChar@CharacterCreateNew@@QAEXXZ 
?SendCreateCharacter@CNetworkLibrary@@QAEXAAVCTString@@EEE@Z 
?SendCreatePhoenixCharacter@CNetworkLibrary@@QAEXXZ 
?SendDeleteCharacter@CNetworkLibrary@@QAEXKAAVCTString@@E@Z 
?SendDeleteCharacter@CNetworkLibrary@@QAEXKE@Z 
?SendDeleteReq@ExpressSystem@@QAEXH@Z 
?SendDisconnectMessage@CServer@@QAEXJPBDH@Z 
?SendDivisionType@Party@@QAEXCC@Z 
?SendDratanPortalMessage@CUISiegeWarfareNew@@QAEXH@Z 
?SendDratanSiegeDungeonMSG@CNetworkLibrary@@QAEXEEH@Z 
?SendDropInsect@CNetworkLibrary@@QAEXH@Z 
?SendDropItem@CUIManager@@IAEXHH_J@Z 
?SendEffectReq@PetStash@@QAEXH@Z 
?SendEnergySkillMessage@CNetworkLibrary@@QAEXXZ 
?SendEvent24@CNetworkLibrary@@QAEXHC@Z 
?SendEvent@CEntity@@QAEXABVCEntityEvent@@H@Z 
?SendEventInRange@CEntity@@QAEXABVCEntityEvent@@ABV?$AABBox@M$02@@@Z 
?SendEventItem@CNetworkLibrary@@QAEXHH@Z 
?SendEventKrathongReq@CNetworkLibrary@@QAEXXZ 
?SendEventMaster@CNetworkLibrary@@QAEXXZ 
?SendEventMsg@CNetworkLibrary@@QAEXE@Z 
?SendEventNewyear@CNetworkLibrary@@QAEXH@Z 
?SendEventOpenTreasure@CNetworkLibrary@@QAEXXZ 
?SendEventPrize@CNetworkLibrary@@QAEXXZ 
?SendEventRequital@CNetworkLibrary@@QAEXH@Z 
?SendEventTreasureList@CNetworkLibrary@@QAEXXZ 
?SendExSlotMessage@CNetworkLibrary@@QAEXH@Z 
?SendExpeditionAllow@Party@@QAEXXZ 
?SendExpeditionEnd@Party@@QAEXXZ 
?SendExpeditionInvite@Party@@QAEXAAVCTString@@@Z 
?SendExpeditionInviteReq@Party@@QAEXHAAVCTString@@@Z 
?SendExpeditionKick@Party@@QAEXJ@Z 
?SendExpeditionQuit@Party@@QAEXXZ 
?SendExpeditionReject@Party@@QAEXXZ 
?SendExpeditionViewDetail@Party@@QAEXJVCTString@@@Z 
?SendFaceOffMessage@CNetworkLibrary@@QAEXEEE@Z 
?SendFindFriend@CNetworkLibrary@@QAEXHPAX@Z 
?SendFlowerTreeReq@CNetworkLibrary@@QAEXE@Z 
?SendFriendCatting@CNetworkLibrary@@QAEXHVCTString@@00@Z 
?SendGMCommand@CNetworkLibrary@@QAEXPBD@Z 
?SendGameStart@CNetworkLibrary@@QAEXK@Z 
?SendGameStart@CNetworkLibrary@@QAEXXZ 
?SendGameStateData@CServer@@QAEXJ@Z 
?SendGameStreamBlocks@CServer@@QAEXJ@Z 
?SendGetRevGiftItem@CUICashShopEX@@IAEXJ@Z 
?SendGiftCollectBox@CNetworkLibrary@@QAEXXZ 
?SendGiftReq@CUICashShopEX@@QAEXXZ 
?SendGuildMarkEditEndReq@CNetworkLibrary@@QAEXCCCCFF@Z 
?SendGuildMarkWndOpenReq@CNetworkLibrary@@QAEXXZ 
?SendGuildMasterKickCancelReq@CNetworkLibrary@@QAEXJ@Z 
?SendGuildMasterKickReq@CNetworkLibrary@@QAEXJ@Z 
?SendGuildRecallReq@CNetworkLibrary@@QAEXXZ 
?SendGuildRemoteJoinNOReq@CNetworkLibrary@@QAEXXZ 
?SendGuildRemoteJoinOKReq@CNetworkLibrary@@QAEXVCTString@@J@Z 
?SendGuildRemoteJoinReq@CNetworkLibrary@@QAEXVCTString@@J@Z 
?SendGuildStashHistroyReq@CNetworkLibrary@@QAEXXZ 
?SendGuildStashTakeReq@CNetworkLibrary@@QAEX_J@Z 
?SendGuildStashViewReq@CNetworkLibrary@@QAEXXZ 
?SendGuildWarTimeMenu@CNetworkLibrary@@QAEXXZ 
?SendGuildWarTimeReq@CNetworkLibrary@@QAEXXZ 
?SendHalloween2007Req@CNetworkLibrary@@QAEXE@Z 
?SendHanaposEvent@CNetworkLibrary@@QAEXH@Z 
?SendIMEKeyInput@CInput@@QAEHPAUtagMSG@@@Z 
?SendInitInZone@Party@@QAEXXZ 
?SendInitSSkillReq@CNetworkLibrary@@QAEXXZ 
?SendInput@CNetworkLibrary@@QAEXXZ 
?SendItemDelete@CNetworkLibrary@@QAEXFFJ_J@Z 
?SendItemTransReq@ExpressSystem@@QAEXHHHHHHHVCTString@@@Z 
?SendItemUse@CNetworkLibrary@@QAEXFFJJ@Z 
?SendItemUse@CUITatoo@@QAEXXZ 
?SendItemWearingMSG@CNetworkLibrary@@QAE_NCCFFDH@Z 
?SendKBRewardReq@CNetworkLibrary@@QAEXE@Z 
?SendKeepReq@PetStash@@QAEXHH@Z 
?SendLC1000DayHatUpgradeReq@CNetworkLibrary@@QAEXFJ@Z 
?SendLC1000DayTakeHatReq@CNetworkLibrary@@QAEXXZ 
?SendLacaretteCloseReq@CNetworkLibrary@@QAEXXZ 
?SendLacaretteResultReq@CNetworkLibrary@@QAEXJ@Z 
?SendLacaretteRetteReq@CNetworkLibrary@@QAEXJJJ@Z 
?SendLacaretteTokenReadyReq@CNetworkLibrary@@QAEXXZ 
?SendLacaretteTokenReq@CNetworkLibrary@@QAEXXZ 
?SendLacaretteUseCountReq@CNetworkLibrary@@QAEXXZ 
?SendLeaseItem@CNetworkLibrary@@QAEXH@Z 
?SendLevelChangeNotification@CSessionState@@QAEXAAVCEntityEvent@@@Z 
?SendListReq@ExpressSystem@@QAEXXZ 
?SendLoginMessage@CNetworkLibrary@@QAEXAAVCTString@@0K@Z 
?SendMakeItemList@CNetworkLibrary@@QAEXKE@Z 
?SendMasterStoneUseReq@CNetworkLibrary@@QAEXFFJFFJ@Z 
?SendMessageA@CServer@@QAEXAAVCEntityMessage@@@Z 
?SendMessagetoServer@CNetworkLibrary@@QAEXPAD@Z 
?SendMinigameDefaultMessage@CNetworkLibrary@@QAEXEE@Z 
?SendMinigameSelect@CNetworkLibrary@@QAEXEEE@Z 
?SendMinigameSelectGift@CNetworkLibrary@@QAEXK@Z 
?SendMixItemUse@CNetworkLibrary@@QAEXFFJJJ@Z 
?SendMoonStoneMix@CNetworkLibrary@@QAEXJJ@Z 
?SendMoonStoneResultReq@CNetworkLibrary@@QAEXXZ 
?SendMoonStoneStartReq@CNetworkLibrary@@QAEXXZ 
?SendMoonStoneTryReq@CNetworkLibrary@@QAEXXZ 
?SendMoveList@CNetworkLibrary@@QAEX_N@Z 
?SendMoveMessage@CNetworkLibrary@@QAEXPAVCEntity@@VCPlacement3D@@J@Z 
?SendMovingGuildWarArea@CNetworkLibrary@@QAEXXZ 
?SendNPCPortalGoReq@CNetworkLibrary@@QAEXJ@Z 
?SendNPCPortalLocationReq@CNetworkLibrary@@QAEXJ@Z 
?SendNPCProcessMessage@CNetworkLibrary@@QAEXJJ@Z 
?SendNetCafeOpenBox@CNetworkLibrary@@QAEXXZ 
?SendNetworkMessage@CNetworkLibrary@@QAEXAAVCNetworkMessage@@@Z 
?SendOwnerGuildBuffReq@CNetworkLibrary@@QAEXXZ 
?SendPaperBlendingReq@CNetworkLibrary@@QAEXH@Z 
?SendPaperFoldingReq@CNetworkLibrary@@QAEXHHH@Z 
?SendParentsdayAddPoint@CNetworkLibrary@@QAEXH@Z 
?SendPartyAllow@Party@@QAEXXZ 
?SendPartyEnd@Party@@QAEXXZ 
?SendPartyInvite@Party@@QAEXCAAVCTString@@@Z 
?SendPartyInviteReq@CNetworkLibrary@@QAEXH@Z 
?SendPartyInviteReq@Party@@QAEXCJAAVCTString@@@Z 
?SendPartyJoinAllow@CNetworkLibrary@@QAEXH@Z 
?SendPartyJoinReject@CNetworkLibrary@@QAEXH@Z 
?SendPartyJoinReq@CNetworkLibrary@@QAEXH@Z 
?SendPartyKick@Party@@QAEXAAVCTString@@@Z 
?SendPartyListReq@CNetworkLibrary@@QAEXHHHHH@Z 
?SendPartyQuit@Party@@QAEXXZ 
?SendPartyRecallConfirm@CNetworkLibrary@@QAEXVCTString@@JH@Z 
?SendPartyRegistDelete@CNetworkLibrary@@QAEXXZ 
?SendPartyRegistNormal@CNetworkLibrary@@QAEXH@Z 
?SendPartyRegistParty@CNetworkLibrary@@QAEXVCTString@@KH@Z 
?SendPartyReject@Party@@QAEXXZ 
?SendPetAccumulateUse@CNetworkLibrary@@QAEXCJ@Z 
?SendPetChangeRide@CNetworkLibrary@@QAEXXZ 
?SendPetCommandMessage@CNetworkLibrary@@QAEXHPAVCEntity@@@Z 
?SendPetDestruction@CNetworkLibrary@@QAEXXZ 
?SendPetItemMix@CNetworkLibrary@@QAEXJJ@Z 
?SendPetNameChageReq@CNetworkLibrary@@QAEXHVCTString@@@Z 
?SendPetRebirth@CNetworkLibrary@@QAEXJ@Z 
?SendPetSkillInit@CNetworkLibrary@@QAEXXZ 
?SendPetSkillMessage@CNetworkLibrary@@QAEXHPAVCEntity@@0H@Z 
?SendPetWarpTown@CNetworkLibrary@@QAEXXZ 
?SendPetitemInfo@CNetworkLibrary@@QAEXJH@Z 
?SendPhoenixCharacterCondition@CNetworkLibrary@@QAEXXZ 
?SendPickMessage@CNetworkLibrary@@QAEXPAVCEntity@@KH@Z 
?SendPlayerSearchReq@ExpressSystem@@QAEXVCTString@@@Z 
?SendPremiumCharItemUse@CNetworkLibrary@@QAEXFFH@Z 
?SendPremiumCharJumpReq@CNetworkLibrary@@QAEXVCTString@@@Z 
?SendPresscorpsMessage@CNetworkLibrary@@QAEXKVCTString@@@Z 
?SendProduceMessage@CNetworkLibrary@@QAEXKC@Z 
?SendProlongMessage@CNetworkLibrary@@QAEXHH@Z 
?SendPromotionEventReq@CNetworkLibrary@@QAEXVCTString@@@Z 
?SendProxyCancelReq@PetStash@@QAEXH@Z 
?SendProxyReq@PetStash@@QAEXH@Z 
?SendQuestCancel@Quest@@QAEXH@Z 
?SendQuestMessage@CNetworkLibrary@@QAEXEJ@Z 
?SendQuestPrize@Quest@@QAEXHJJJ@Z 
?SendQuestPrizeMessage@CNetworkLibrary@@QAEXEJJJJ@Z 
?SendQuestReq@Quest@@QAEXH@Z 
?SendRaidInfoReq@CNetworkLibrary@@QAEXXZ 
?SendRaidObjectEvent@CNetworkLibrary@@QAEXK@Z 
?SendRaidScene@CNetworkLibrary@@QAEXJJJ@Z 
?SendRainyDayExchange@CNetworkLibrary@@QAEXXZ 
?SendRankingListEx@CNetworkLibrary@@QAEXEE@Z 
?SendRankingLsit@CNetworkLibrary@@QAEXJJ@Z 
?SendRankingSearchListEx@CNetworkLibrary@@QAEXEEVCTString@@@Z 
?SendRebirthMessage@CNetworkLibrary@@QAEXXZ 
?SendRebirthMessageEx@CNetworkLibrary@@QAEXHHH@Z 
?SendReceiveRestartGame@CNetworkLibrary@@QAEXXZ 
?SendRecoverHPMP@CNetworkLibrary@@QAEXCC@Z 
?SendRecoverItemSeal@CNetworkLibrary@@QAEXFFJ@Z 
?SendRecvReq@ExpressSystem@@QAEXH@Z 
?SendReformItemReq@CNetworkLibrary@@QAEXEFFFFKFFH@Z 
?SendRegenList@CNetworkLibrary@@QAEXXZ 
?SendReqGiftChocoBox@CNetworkLibrary@@QAEXH@Z 
?SendReqServerTime@CNetworkLibrary@@QAEXXZ 
?SendRequestParentsday@CNetworkLibrary@@QAEXH@Z 
?SendRequestTowerSet@CUISiegeWarfareNew@@QAEXXZ 
?SendRestartGame@CNetworkLibrary@@QAEXXZ 
?SendRestoreAbandonQuest@CNetworkLibrary@@QAEX_J@Z 
?SendRestoreQuestItem@CNetworkLibrary@@QAEXJ@Z 
?SendRoyalRumbleJoinReq@CNetworkLibrary@@QAEXXZ 
?SendRoyalRumbleNextTimeReq@CNetworkLibrary@@QAEXXZ 
?SendRoyalRumblePointReq@CNetworkLibrary@@QAEXXZ 
?SendRoyalRumbleRejectReq@CNetworkLibrary@@QAEXXZ 
?SendRoyalRumbleRewardReq@CNetworkLibrary@@QAEXXZ 
?SendRoyalRumbleStartReq@CNetworkLibrary@@QAEXXZ 
?SendSSkillLearn@CNetworkLibrary@@QAEXJH@Z 
?SendSaveBingoItem@CNetworkLibrary@@QAEXEHH@Z 
?SendSecurityMessage@CNetworkLibrary@@QAEXAAVCTString@@@Z 
?SendSelectProduceMessage@CNetworkLibrary@@QAEXJJ@Z 
?SendSessionStateData@CServer@@QAEXJ@Z 
?SendSkillLearn@CNetworkLibrary@@QAEXJH@Z 
?SendSkillMessage@CNetworkLibrary@@QAEXHPAVCEntity@@HHE@Z 
?SendSkillMessageInContainer@CNetworkLibrary@@QAEXHAAVCSelectedEntities@@H@Z 
?SendSlaveSkillMessage@CNetworkLibrary@@QAEXHPAVCEntity@@0H@Z 
?SendSlaveSkillMessageInContainer@CNetworkLibrary@@QAEXHPAVCEntity@@AAVCSelectedEntities@@H@Z 
?SendStopChange@CNetworkLibrary@@QAEXXZ 
?SendStopMessage@CNetworkLibrary@@QAEXPAVCEntity@@VCPlacement3D@@@Z 
?SendSubJobRegister@CNetworkLibrary@@QAEXJ@Z 
?SendSuperStoneReq@CNetworkLibrary@@QAEXXZ 
?SendSupportSkill@CNetworkLibrary@@QAEXE@Z 
?SendTG2007RichYearReq@CNetworkLibrary@@QAEXH@Z 
?SendTG2007ScreenshotReq@CNetworkLibrary@@QAEXXZ 
?SendTakeAgainQuestItem@CNetworkLibrary@@QAEXXZ 
?SendTakeFireCracker@CNetworkLibrary@@QAEXXZ 
?SendTakeReq@PetStash@@QAEXHH@Z 
?SendTargetLabelReSet@Party@@QAEXCJ@Z 
?SendTargetLabelSet@Party@@QAEXCJJ@Z 
?SendTeleportMove@CNetworkLibrary@@QAEXEE@Z 
?SendTeleportWrite@CNetworkLibrary@@QAEXEEAAVCTString@@@Z 
?SendToClient@CMessageDispatcher@@QAEXJABVCNetworkMessage@@@Z 
?SendToClientReliable@CMessageDispatcher@@QAEXJAAVCTMemoryStream@@@Z 
?SendToClientReliable@CMessageDispatcher@@QAEXJABVCNetworkMessage@@@Z 
?SendToServer@CMessageDispatcher@@QAEXABVCNetworkMessage@@@Z 
?SendToServerNew@CMessageDispatcher@@QAEXABVCNetworkMessage@@H@Z 
?SendToServerReliable@CMessageDispatcher@@QAEXABVCNetworkMessage@@@Z 
?SendTouchEvent@CMovableEntity@@QAEXABVCClipMove@@@Z 
?SendTowerRepairStateRequest@CUISiegeWarfareNew@@QAEXH@Z 
?SendTriggerEvent@CPlayerEntity@@UAEXJJ@Z 
?SendUnMixItemUse@CNetworkLibrary@@QAEXFFJJ@Z 
?SendUpdatePlayTime@CNetworkLibrary@@QAEXK@Z 
?SendUsaOpenBetaGift@CNetworkLibrary@@QAEXXZ 
?SendUseGoDungeon@CNetworkLibrary@@QAEXJJJ@Z 
?SendUseStatPoint@CNetworkLibrary@@QAEXE@Z 
?SendUseStatPoint@CUICharacterInfo@@QAEXE@Z 
?SendUseWildPetItem@CNetworkLibrary@@QAEXHHHH@Z 
?SendUserNotice@CNetworkLibrary@@QAEXVCTString@@@Z 
?SendWareHouseChangePassword@CNetworkLibrary@@QAEXABVCTString@@0@Z 
?SendWareHouseDeletePassWord@CNetworkLibrary@@QAEXABVCTString@@@Z 
?SendWareHouseIsSetPassword@CNetworkLibrary@@QAEXXZ 
?SendWareHouseSeal@CNetworkLibrary@@QAEXXZ 
?SendWareHouseSetupPassWord@CNetworkLibrary@@QAEXABVCTString@@0@Z 
?SendWarpCancel@CNetworkLibrary@@QAEXXZ 
?SendWarpItemMessage@CNetworkLibrary@@QAEXEVCTString@@H@Z 
?SendWarpTeleport@CNetworkLibrary@@QAEXH@Z 
?SendWebPageOpenMsg@cWeb@@QAEHH@Z 
?SendWhiteday2007@CNetworkLibrary@@QAEXE@Z 
?SendWhiteday2007Letter@CNetworkLibrary@@QAEXHKVCTString@@@Z 
?SendWhoAmI@CNetworkLibrary@@QAEXXZ 
?SendWildPetMountReq@CNetworkLibrary@@QAEXH@Z 
?SendWildPetRebirth@CNetworkLibrary@@QAEXHHH@Z 
?SendWishItems@CUICashShopEX@@IAEXKH@Z 
?SendWorldCup2010_Event@CNetworkLibrary@@QAEXW4_tagMsgEventWorldcup2010Type@@J@Z 
?SendWorldCupEvent@CNetworkLibrary@@QAEXHH@Z 
?SendWorldCupGoldenBallEvent@CNetworkLibrary@@QAEXHHH@Z 
?SendXMAS2007DecoReq@CNetworkLibrary@@QAEXE@Z 
?SendtargetItemUse@CNetworkLibrary@@QAEXFFJCJ@Z 
?ServerLoop@CServer@@QAEXXZ 
?ServerNetProcess@CServer@@QAEXXZ 
?Server_ClearClient@CCommunicationInterface@@QAEXJ@Z 
?Server_Close@CCommunicationInterface@@QAEXXZ 
?Server_GetClientName@CCommunicationInterface@@QAE?AVCTString@@J@Z 
?Server_GetClientPendingData@CCommunicationInterface@@QAEKJ@Z 
?Server_GetMaxPendingData@CCommunicationInterface@@QAEKXZ 
?Server_GetTotalPendingData@CCommunicationInterface@@QAEKXZ 
?Server_Init_t@CCommunicationInterface@@QAEXXZ 
?Server_IsClientLocal@CCommunicationInterface@@QAEHJ@Z 
?Server_IsClientUsed@CCommunicationInterface@@QAEHJ@Z 
?Server_Receive_Reliable@CCommunicationInterface@@QAEHJPAXAAJ@Z 
?Server_Receive_Unreliable@CCommunicationInterface@@QAEHJPAXAAJ@Z 
?Server_Send_Reliable@CCommunicationInterface@@QAEXJPBXJ@Z 
?Server_Send_Unreliable@CCommunicationInterface@@QAEXJPBXJ@Z 
?Server_Update@CCommunicationInterface@@QAEHXZ 
?SessionStateLoop@CSessionState@@QAEXXZ 
?Set3DParameter@CSoundEffect@@QAEXMMMM@Z 
?Set3DParameters@CSoundObject@@QAEXMMMMH@Z 
?SetAbsolutePath@CTFileName@@QAEXXZ 
?SetAbsolutePosition@CBrushVertex@@QAEXABV?$Vector@N$02@@@Z 
?SetAbsorption@CParticleGroup@@QAEXPAVCParticlesAbsorption@@@Z 
?SetAcceleration@CParticle@@QAEXABV?$Vector@M$02@@@Z 
?SetAccelerationRange@CParticlePrototype@@QAEXABV?$Vector@M$02@@0@Z 
?SetAction@CPlayerSource@@QAEXABVCPlayerAction@@@Z 
?SetAction@CUICharacterInfo@@QAEXXZ 
?SetActionApplied@CMovableEntity@@UAEXXZ 
?SetAdjustedProjectionMatrix@@YAJAAY0BA@MMMMMMMMMH@Z 
?SetAge@CParticle@@QAEXM@Z 
?SetAlignBottom@CUIList@@QAEXXZ 
?SetAlignTextH@CUITextBox@@QAEXH@Z 
?SetAlignTextV@CUITextBox@@QAEXH@Z 
?SetAllNotSelectable@CUIListBox@@QAEXXZ 
?SetAlpha@CUIImage@@QAEXE@Z 
?SetAmbientMode@CLightEffect@@QAEXH@Z 
?SetAngle@CParticlePrototype@@QAEXV?$Vector@M$02@@0@Z 
?SetAnim@CAnimObject@@QAEXJ@Z 
?SetAnimName@CAnimEffect@@QAEXABVCTString@@@Z 
?SetAppearanceData@CPlayerEntity@@UAEXHCC@Z 
?SetArea@CTerrainEffect@@QAEXABVCRectFlt@@@Z 
?SetArmor@CharacterCreateNew@@QAEXH@Z 
?SetArmorEffectName@CItemData@@QAEXPBD@Z 
?SetArrayList@CUICharacterCreateNew@@AAEXPAVCUIArray@@@Z 
?SetArrayTemplate@CUIArray@@QAEXPAVCUIArrayItem@@@Z 
?SetAsCurrent@CDrawPort@@QAEXXZ 
?SetAsCurrent@CShadowMap@@QAEXXZ 
?SetAsCurrent@CTextureData@@QAEXJH@Z 
?SetAttribute@CMobData@@QAEXEEEE@Z 
?SetAutoComplete@CUIProgressBar@@QAEXH@Z 
?SetAutoInfo@CUIButton@@QAEXH@Z 
?SetAutoMipBrushingOn@CWorldRenderPrefs@@QAEXH@Z 
?SetBackGround@CUISpinControl@@QAEXU_UIRect@@UUIRectUV@@H@Z 
?SetBackUV@CUIComboBox@@QAEXMMMMMM@Z 
?SetBackgroundColor@CWorld@@QAEXK@Z 
?SetBackgroundTextureOn@CWorldRenderPrefs@@QAEXH@Z 
?SetBackgroundUV@CUISlideBar@@QAEXMMMMMM@Z 
?SetBackgroundViewer@CWorld@@QAEXPAVCEntity@@@Z 
?SetBarBottomUV@CUIScrollBar@@QAEXMMMMMM@Z 
?SetBarMiddleUV@CUIScrollBar@@QAEXMMMMMM@Z 
?SetBarTopUV@CUIScrollBar@@QAEXMMMMMM@Z 
?SetBarUV@CUISlideBar@@QAEXMMMMMM@Z 
?SetBlendType@CParticleGroup@@QAEXW4PredefinedBlendType@@@Z 
?SetBlendType@CShockWaveEffect@@QAEXW4PredefinedBlendType@@@Z 
?SetBlendType@CSplineBillboardEffect@@QAEXW4PredefinedBlendType@@@Z 
?SetBlendType@CTerrainEffect@@QAEXW4PredefinedBlendType@@@Z 
?SetBlendType@CTraceEffect@@QAEXW4PredefinedBlendType@@@Z 
?SetBold@CUIListBox@@QAEXHHH@Z 
?SetBoneBlendValue@CSkaTag@@QAEXPAUMeshLOD@@@Z 
?SetBoneBlendValue@CSkaTag@@QAEXPAUMeshLOD@@JJMJMJMJM@Z 
?SetBoundingSphereRadius@CEffect@@QAEXM@Z 
?SetBtnState@CUIButton@@QAEXW4UIBtnState@@@Z 
?SetBtnType@CUIMsgBox_Info@@QAEXHHHH@Z 
?SetBuyAddition@MyInfo@@QAEXH@Z 
?SetBuyRate@MyInfo@@QAEXH@Z 
?SetCSFlagOff@CUIManager@@QAEXK@Z 
?SetCSFlagOffElapsed@CUIManager@@QAEXK@Z 
?SetCSFlagOn@CUIManager@@QAEXK@Z 
?SetCSFlagOnElapsed@CUIManager@@QAEXKM@Z 
?SetCameraByJob@CGameState@@QAEXH@Z 
?SetCandidateUV@CUIEditBox@@QAEXMMMMMM@Z 
?SetCapEnd@CTraceEffect@@QAEXH@Z 
?SetCashIndexToBtn@CUICashShopEX@@QAEHHH@Z 
?SetCashShopLock@CUICashShopEX@@QAEXH@Z 
?SetCashType@CUICashShopEX@@QAEXPAVCNetworkMessage@@@Z 
?SetChaData@CPlayerEntity@@UAEXHHKKCCAAVCTString@@GCJ@Z 
?SetChaPkState@CCharacterTarget@@QAEXJ@Z 
?SetChaState@CCharacterTarget@@QAEXJ@Z 
?SetChaWearing@CPlayerEntity@@UAEXPAVCCharacterTarget@@PAVCEntity@@PAVCNetworkMessage@@@Z 
?SetChannelFlag@CMobData@@QAEXF@Z 
?SetCharCostumeWearing@CPlayerEntity@@UAEXPAVCCharacterTarget@@PAVCEntity@@PAVCNetworkMessage@@@Z 
?SetCharSpacing@CFontData@@QAEXJ@Z 
?SetCharacterAppearance@CPlayerEntity@@UAEXPAVCModelInstance@@HCC@Z 
?SetCharacterHairChange@CPlayerEntity@@UAEXJCH@Z 
?SetCharacterState@CPlayerEntity@@UAEXPAVCEntity@@J@Z 
?SetCharaterAngle@CUICharacterCreateNew@@QAEXMM@Z 
?SetCheck@CUICheckButton@@QAEXH@Z 
?SetCheckPointData@CNetworkLibrary@@QAEXHHH@Z 
?SetCheckRegion@CUICheckButton@@QAEXHHH@Z 
?SetChildVisible@CUICharacterInfo@@AAEXPAVCUIArrayItem@@_N@Z 
?SetCircleInfo@CParticlesProcessControl@@QAEXHM@Z 
?SetClientChaId@CCharacterTarget@@QAEXJ@Z 
?SetClientItemId@CItemTarget@@QAEXJ@Z 
?SetClientMobId@CMobTarget@@QAEXJ@Z 
?SetClientPetId@CPetTarget@@QAEXJ@Z 
?SetClientSlaveId@CSlaveTarget@@QAEXJ@Z 
?SetCmdComplete@CUIProgressBar@@QAEXPAVCommand@@@Z 
?SetCmdReturn@CUISpinControl@@QAEXPAVCommand@@@Z 
?SetCollisionBox@CEditModel@@QAEXV?$Vector@M$02@@0@Z 
?SetCollisionBoxDimensionEquality@CEditModel@@QAEXJ@Z 
?SetCollisionBoxName@CEditModel@@QAEXVCTString@@@Z 
?SetCollisionFlags@CEntity@@QAEXK@Z 
?SetColor@CMdlEffect@@QAEXK@Z 
?SetColor@CParticle@@QAEXK@Z 
?SetColor@CSkaEffect@@QAEXK@Z 
?SetColor@CSplineBillboardEffect@@QAEXKK@Z 
?SetColor@CTerrainEffect@@QAEXK@Z 
?SetColor@CTraceEffect@@QAEXKK@Z 
?SetColor@CUIImage@@QAEXK@Z 
?SetColor@CUIImageArray@@QAEXK@Z 
?SetColor@CUIListBox@@QAEXHHK@Z 
?SetColor@CUISpriteAni@@QAEXK@Z 
?SetColorName@CModelObject@@QAEXJAAVCTString@@@Z 
?SetColorNoAlpha@CParticle@@QAEXK@Z 
?SetColorOnlyAlpha@CParticle@@QAEXK@Z 
?SetColumnPosX@CUIListBox@@QAEXHHW4TEXT_ALIGN@@@Z 
?SetColumnWidth@CUIListBox@@QAEXHK@Z 
?SetComboBox@CUICashShopEX@@IAEXW4CashShopCategory@1@@Z 
?SetCommand@CUIBase@@QAEXPAVCommand@@@Z 
?SetCommand@CUISummon@@QAEXJ@Z 
?SetCommandChange@CUITab@@QAEXPAVCommand@@@Z 
?SetCommandClose@MsgBoxMgr@@QAEXIPAVCommand@@_N@Z 
?SetCommandDBL@CUIBase@@QAEXPAVCommand@@@Z 
?SetCommandDrag@CUIIcon@@QAEXPAVCommand@@@Z 
?SetCommandDrag@CUIListItem@@QAEXPAVCommand@@@Z 
?SetCommandEnter@CUIBase@@QAEXPAVCommand@@@Z 
?SetCommandLeave@CUIBase@@QAEXPAVCommand@@@Z 
?SetCommandNo@MsgBoxMgr@@QAEXIPAVCommand@@_N@Z 
?SetCommandOK@MsgBoxMgr@@QAEXIPAVCommand@@_N@Z 
?SetCommandOn@CUIBase@@QAEXPAVCommand@@@Z 
?SetCommandR@CUIBase@@QAEXPAVCommand@@@Z 
?SetCommandRUp@CUIBase@@QAEXPAVCommand@@@Z 
?SetCommandUn@CUIList@@QAEXPAVCommand@@@Z 
?SetCommandUp@CUIBase@@QAEXPAVCommand@@@Z 
?SetCommandWheelDown@CUIBase@@QAEXPAVCommand@@@Z 
?SetCommandWheelUp@CUIBase@@QAEXPAVCommand@@@Z 
?SetCompleteText@CUIProgressBar@@QAEXAAVCTString@@HK@Z 
?SetCompleteTextColor@CUIProgressBar@@QAEXK@Z 
?SetConsensus@CPlayerEntity@@UAEXJ@Z 
?SetContent@CEffect@@IAEXPBV1@@Z 
?SetContent@CParticlesAbsorption@@IAEXAAV1@@Z 
?SetContent@CParticlesEmitter@@IAEXAAV1@@Z 
?SetContent@CTag@@IAEXPAV1@@Z 
?SetContentType@CBrushSector@@QAEXJ@Z 
?SetControlNames@CInput@@QAEXXZ 
?SetControlValue@CInput@@QAEXK@Z 
?SetCoolTimeReductionRate@CUIManager@@QAEXH@Z 
?SetCopyPos@CUIEditBox@@QAEXXZ 
?SetCopyStartPos@CUIEditBox@@QAEXXZ 
?SetCreatableNightShadow@CGameState@@QAEXH@Z 
?SetCreateSet@CItemData@@QAEXH@Z 
?SetCreateUIModelSlot@CGameState@@QAEXHHJJ@Z 
?SetCurItemCount@CUIScrollBar@@QAEXH@Z 
?SetCurPos@CUISlideBar@@QAEXH@Z 
?SetCurSel@CUIComboBox@@QAEXH@Z 
?SetCurSel@CUIListBox@@QAEXH@Z 
?SetCurrentColisionBoxIndex@CModelInstance@@QAEXJ@Z 
?SetCurrentConditionValueStatus@CQuestDynamicData@@QAEXQAJ@Z 
?SetCurrentPage@ExpressSystem@@QAEXG@Z 
?SetCurrentPageNewCharacterInfo@CUICharacterInfo@@IAEXH@Z 
?SetCurrentPageType@CUICashShopEX@@QAEXJ@Z 
?SetCurrentSkillInfo@CUICharacterInfo@@IAEXHH@Z 
?SetCurrentTick@CTimer@@QAEXM@Z 
?SetCurrentViewport@CGfxLibrary@@QAEHPAVCViewPort@@@Z 
?SetCurrentViewport_D3D@CGfxLibrary@@AAEHPAVCViewPort@@@Z 
?SetCurrentViewport_OGL@CGfxLibrary@@AAEHPAVCViewPort@@@Z 
?SetCursorIndex@CUIEditBox@@QAEXH@Z 
?SetCursorMove@CUIEditBox@@QAEXH@Z 
?SetCursorSX@CUIEditBox@@QAEXH@Z 
?SetCustomTitleEffect@CEntity@@UAEXVCTString@@@Z 
?SetCustomTooltip@CUIIcon@@QAEXH@Z 
?SetDG_EnvNas@ServerInfo@@QAEX_J@Z 
?SetDG_Mode@ServerInfo@@QAEXW4eTHEOS_DUNGEON_MODE@@@Z 
?SetDG_MonsterNas@ServerInfo@@QAEX_J@Z 
?SetDamageState@CUIManager@@QAEXXZ 
?SetData@CAnimObject@@QAEXPAVCAnimData@@@Z 
?SetData@CCharacterTarget@@QAEXJJAAVCTString@@PAVCEntity@@CGJ@Z 
?SetData@CItemTarget@@QAEXJJPAVCEntity@@C@Z 
?SetData@CItemTarget@@QAEXJPBDPAVCEntity@@C_JV?$Vector@M$02@@H@Z 
?SetData@CMobTarget@@QAEXJJAAVCTString@@JPAVCEntity@@HC@Z 
?SetData@CModelObject@@QAEXPAVCModelData@@@Z 
?SetData@CPetTarget@@QAEXJAAVCTString@@0JJJPAVCEntity@@CV2@@Z 
?SetData@CShopData@@QAEXHPBDHH@Z 
?SetData@CSlaveTarget@@QAEXJAAVCTString@@0JJPAVCEntity@@C@Z 
?SetDataBackUV3@CUISpinButton@@QAEXMMMMMMMMMMMMMM@Z 
?SetData_t@CAnimObject@@QAEXABVCTFileName@@@Z 
?SetData_t@CModelObject@@QAEXABVCTFileName@@@Z 
?SetData_t@CTextureObject@@QAEXABVCTFileName@@@Z 
?SetDebugOutMode@CUIManager@@QAEX_N@Z 
?SetDecoModeCamera@CPlayerEntity@@UAEXMM@Z 
?SetDefaultArmorWearing@CUICharacterCreateNew@@AAEXXZ 
?SetDefaultProperties@CEntity@@UAEXXZ 
?SetDefaultProperties@CMovableBrushEntity@@UAEXXZ 
?SetDefaultProperties@CMovableEntity@@UAEXXZ 
?SetDefaultProperties@CMovableModelEntity@@UAEXXZ 
?SetDefaultProperties@CPlayerEntity@@UAEXXZ 
?SetDelayTime@CUISpriteAni@@QAEXH@Z 
?SetDelivery@CMessageDispatcher@@QAEX_N@Z 
?SetDependLife@CParticlesAbsorption@@QAEXH@Z 
?SetDependRadius@CParticlesProcessControl@@QAEXH@Z 
?SetDepth@CUIImageArray@@QAEXM@Z 
?SetDepthMode@CUIImageArray@@QAEXH@Z 
?SetDesc@CItemData@@QAEXPBD@Z 
?SetDesc@CMobData@@QAEXPBD@Z 
?SetDescription@CWorld@@QAEXABVCTString@@@Z 
?SetDesiredRotation@CMovableEntity@@QAEXABV?$Vector@M$02@@@Z 
?SetDesiredTranslation@CMovableEntity@@QAEXABV?$Vector@M$02@@@Z 
?SetDesktopSize@CUIOption@@QAEXJJ@Z 
?SetDestName@Party@@QAEXVCTString@@@Z 
?SetDie@CPlayerEntity@@UAEXXZ 
?SetDirection@CParticle@@QAEXABV?$Quaternion@M@@@Z 
?SetDirection@CParticleGroup@@QAEXABV?$Quaternion@M@@@Z 
?SetDirection@CParticlesAbsorption@@QAEXABV?$Quaternion@M@@@Z 
?SetDirection@CParticlesCommonProcess@@QAEXABV?$Quaternion@M@@@Z 
?SetDirection@CParticlesEmitter@@QAEXABV?$Quaternion@M@@@Z 
?SetDisplayMode@CGfxLibrary@@QAEHW4GfxAPIType@@JJJW4DisplayDepth@@@Z 
?SetDivisionType@Party@@QAEXCCC@Z 
?SetDivisionType@Party@@QAEXCCH@Z 
?SetDoingText@CUIProgressBar@@QAEXAAVCTString@@HK@Z 
?SetDoingTextColor@CUIProgressBar@@QAEXK@Z 
?SetDownBtnUV@CUIComboBox@@QAEXMMMMMM@Z 
?SetDownUV@CUIScrollBar@@QAEXW4UIBtnState@@MMMMMM@Z 
?SetDownUV@CUISpinButton@@QAEXW4UIBtnState@@MMMMMM@Z 
?SetDrawPort@CUIManager@@QAEXPAVCDrawPort@@@Z 
?SetDropItemModel@@YAXPAVCEntity@@PAVCItemData@@PAVCItemTarget@@@Z 
?SetDropList@CUIComboBox@@QAEXH@Z 
?SetDropListUV@CUIComboBox@@QAEXMMMMMM@Z 
?SetERSubType@CEffect@@QAEXW4EFF_RENDER_SUB_TYPE@@@Z 
?SetERType@CEffect@@QAEXW4EFF_RENDER_TYPE@@@Z 
?SetEdge@CUIButton@@QAEX_N@Z 
?SetEdgesFillType@CWorldRenderPrefs@@QAEXW4FillType@1@@Z 
?SetEdgesInkColor@CWorldRenderPrefs@@QAEXK@Z 
?SetEditorModelsOn@CWorldRenderPrefs@@QAEXH@Z 
?SetEffectControl@CEntityEffect@@QAEXABVCEffectControl@@@Z 
?SetEffectControl@CMdlEffect@@QAEXABVCEffectControl@@@Z 
?SetEffectControl@CSkaEffect@@QAEXABVCEffectControl@@@Z 
?SetEffectModelNo@PetStash@@QAEXH@Z 
?SetEffectSpeed@CInvenData@@QAEXH@Z 
?SetElementalData@CPlayerEntity@@UAEXPAVCEntity@@JJ@Z 
?SetElementalStatus@CPlayerEntity@@UAEXPAVCEntity@@CCJMMM@Z 
?SetEmitAllDir@CParticlesEmitterCylinder@@QAEXH@Z 
?SetEmitSpeed@CParticlesEmitter@@QAEXM@Z 
?SetEmitter@CParticleGroup@@QAEXPAVCParticlesEmitter@@@Z 
?SetEmptyBrushModel@CWorldRenderPrefs@@QAEXPAVCModelObject@@@Z 
?SetEnable@CUIButton@@UAEXH@Z 
?SetEnable@CUIProgressBar@@UAEXH@Z 
?SetEnablePopup@CUIImageBox@@QAEXH@Z 
?SetEntity@CEntityTag@@QAEXVCEntityPointer@@@Z 
?SetEnvironment@CSoundLibrary@@QAEXW4SndEnvFX@@@Z 
?SetEnvironmentType@CBrushSector@@QAEXJ@Z 
?SetErrorFatalErrorCallback@@YAXP6AXABVCTString@@@Z@Z 
?SetErrorInsufficientMemoryCallback@@YAXP6AXJ@Z@Z 
?SetExpeditionPosition@Party@@QAEXJJ@Z 
?SetExtend@Quest@@QAEXHW4eTREE_TYPE@@@Z 
?SetExtensionName@CJobInfo@@QAEXHHABVCTString@@@Z 
?SetExtraFlag@CMobData@@QAEX_K@Z 
?SetExtraName@CZoneInfo@@QAEXHHPBD@Z 
?SetF2KeyPressed@CInput@@QAEHH@Z 
?SetF3KeyPressed@CInput@@QAEHH@Z 
?SetFLOAT@CShell@@QAEXABVCTString@@M@Z 
?SetFPUPrecision@@YAXW4FPUPrecisionType@@@Z 
?SetFace@CharacterCreateNew@@QAEXH@Z 
?SetFadeInDest@COrbitEffect@@QAEXMM@Z 
?SetFadeInFlag@COrbitEffect@@QAEXK@Z 
?SetFadeOutDest@COrbitEffect@@QAEXMM@Z 
?SetFadeOutFlag@COrbitEffect@@QAEXK@Z 
?SetFadeTime@CEffect@@QAEXMMM@Z 
?SetFadeTime@CEffectControl@@QAEXMM@Z 
?SetFadeTime@CParticlesProcessDynamicState@@QAEXMM@Z 
?SetFieldBrushesOn@CWorldRenderPrefs@@QAEXH@Z 
?SetFirstExtraFlagOff@CEntity@@QAEXK@Z 
?SetFirstExtraFlagOn@CEntity@@QAEXK@Z 
?SetFixedWidth@CFontData@@QAEXXZ 
?SetFlag@CParticle@@QAEXK@Z 
?SetFlagOff@CEntity@@QAEXK@Z 
?SetFlagOn@CEntity@@QAEXK@Z 
?SetFlags@CEntity@@QAEXK@Z 
?SetFlags@CTerrain@@QAEXK@Z 
?SetFocus@CUIEditBox@@UAEXH@Z 
?SetFocus@CUIGuildBattle@@UAEXH@Z 
?SetFocus@CUILoginNew@@UAEXH@Z 
?SetFocus@CUISingleBattle@@UAEXH@Z 
?SetFocus@CUITatoo@@UAEXH@Z 
?SetFogOn@CWorldRenderPrefs@@QAEXH@Z 
?SetFogType@CBrushSector@@QAEXJ@Z 
?SetFont@CDrawPort@@QAEXPAVCFontData@@@Z 
?SetFontCharData@CFontData@@QAEXJ@Z 
?SetForce@CParticlesEmitterSphere@@QAEXABVCForce@@M@Z 
?SetForceType@CBrushSector@@QAEXJ@Z 
?SetFormat@CSoundLibrary@@QAEXW4SoundFormat@1@H@Z 
?SetFormat_internal@CSoundLibrary@@AAEXW4SoundFormat@1@H@Z 
?SetFortune@CUIImageText@@QAEXV?$basic_string@DU?$char_traits@D@std@@V?$allocator@D@2@@std@@HK_N@Z 
?SetFrame@CAnimData@@QAEXJJJ@Z 
?SetFrames@CAnimData@@QAEXJJPAJ@Z 
?SetFrustumMatrix@@YAXAAY0BA@MMMMMMM@Z 
?SetGMNotice@CUIAutoHelp@@QAEXVCTString@@K@Z 
?SetGameFinished@CNetworkLibrary@@QAEXXZ 
?SetGameHandle@CUIManager@@QAEXPAVCGame@@@Z 
?SetGap@CUIArray@@QAEXHH@Z 
?SetGap@CUIList@@QAEXH@Z 
?SetGapY@CUITextBox@@QAEXH@Z 
?SetGapY@CUITextBoxEx@@QAEXH@Z 
?SetGoalTagName@COrbitEffect@@QAEXPBD@Z 
?SetGoalTagName@CParticlesProcessPointGoal@@QAEXPBD@Z 
?SetGoodsList@CUICashShopEX@@QAEXPAVCNetworkMessage@@@Z 
?SetGuild@CUICharacterInfo@@QAEXXZ 
?SetGuildMark@CUIManager@@QAEXXZ 
?SetHair@CharacterCreateNew@@QAEXH@Z 
?SetHazeOn@CWorldRenderPrefs@@QAEXH@Z 
?SetHazeType@CBrushSector@@QAEXJ@Z 
?SetHealth@CLiveEntity@@QAEXM@Z 
?SetHeight@CParticle@@QAEXM@Z 
?SetHeight@CUIBase@@QAEXH@Z 
?SetHiddenLines@CModelRenderPrefs@@QAEXH@Z 
?SetHiddenLinesOn@CWorldRenderPrefs@@QAEXH@Z 
?SetHighLight@CUIIcon@@QAEX_N@Z 
?SetHighLightMode@CUIIcon@@QAEX_N@Z 
?SetHighlight@CUICheckButton@@QAEX_NK@Z 
?SetHighlightTime@CUICheckButton@@QAEXM@Z 
?SetHoldBtn@CUIManager@@QAEXPAVCUIBase@@@Z 
?SetHoldBtn@CUIManager@@QAEXPAVCUIIcon@@@Z 
?SetHomePressed@CInput@@QAEHH@Z 
?SetHudModel_Use@CPlayerEntity@@UAEXH@Z 
?SetIKeyPressed@CInput@@QAEHH@Z 
?SetINDEX@CShell@@QAEXABVCTString@@J@Z 
?SetIPFilter@CCommunicationInterface@@IAEXXZ 
?SetIdleText@CUIProgressBar@@QAEXAAVCTString@@HK@Z 
?SetIdleTextColor@CUIProgressBar@@QAEXK@Z 
?SetImageByType@CUIImageBox@@QAEXW4eImageType@1@HH@Z 
?SetImageForCorps@CUIImageBox@@QAEXW4eImageType@1@H@Z 
?SetImageWidth@CUIImageArray@@QAEXHH@Z 
?SetImportantValues@CPlayerEntity@@UAEXMMMCC@Z 
?SetInValidEditBox@CUIEditBox@@QAEXH@Z 
?SetInfo@CTransformInfo@@QAEXHH@Z 
?SetInfo@CUIAutoHelp@@QAEXK@Z 
?SetInkColor@CModelRenderPrefs@@QAEXK@Z 
?SetInnerBasis@CShockWaveEffect@@QAEXH@Z 
?SetInputBox@CUIMsgBox_Info@@QAEXHHHH@Z 
?SetIsPartyPlay@Party@@QAEXH@Z 
?SetItemBM2FileName@CItemData@@QAEXPBD@Z 
?SetItemBM3FileName@CItemData@@QAEXPBD@Z 
?SetItemBMFileName@CItemData@@QAEXPBD@Z 
?SetItemCount@CUIExpressSystem@@QAEXE@Z 
?SetItemCount@CUIList@@QAEXH@Z 
?SetItemERSubType@CItemEffect@@QAEXW4EFF_RENDER_SUB_TYPE@@@Z 
?SetItemERType@CItemEffect@@QAEXW4EFF_RENDER_TYPE@@@Z 
?SetItemEffect@CGameState@@QAEXPAVCEntity@@HHHH@Z 
?SetItemEffectOption@CCharacterTarget@@QAEXC@Z 
?SetItemShowNum@CUIList@@QAEXH@Z 
?SetItemSkill@CUICharacterInfo@@QAEXXZ 
?SetItemSmcFileName@CItemData@@QAEXPBD@Z 
?SetItemStart@CUIList@@QAEXHH@Z 
?SetItemTEX2FileName@CItemData@@QAEXPBD@Z 
?SetItemTEX2NormalFileName@CItemData@@QAEXPBD@Z 
?SetItemTEX3FileName@CItemData@@QAEXPBD@Z 
?SetItemTEX3NormalFileName@CItemData@@QAEXPBD@Z 
?SetItemTEXFileName@CItemData@@QAEXPBD@Z 
?SetItemTEXNormalFileName@CItemData@@QAEXPBD@Z 
?SetItemsPerPage@CUIScrollBar@@QAEXH@Z 
?SetJKeyPressed@CInput@@QAEHH@Z 
?SetJobA@CharacterCreateNew@@QAEXH@Z 
?SetJoinFlagMerac@ActorMgr@@QAEXC@Z 
?SetJoyPolling@CInput@@QAEXH@Z 
?SetKKeyPressed@CInput@@QAEHH@Z 
?SetKillMonIndex@CUIAutoHelp@@QAEXH@Z 
?SetLControlKeyPressed@CInput@@QAEHH@Z 
?SetLMousePressed@CInput@@QAEHH@Z 
?SetLastProcessedTime@CEffect@@QAEXM@Z 
?SetLayerParameters@CLightSource@@QAEXAAVCBrushShadowLayer@@AAVCBrushPolygon@@AAVCLightRectangle@@@Z 
?SetLegit@CPlayerEntity@@UAEXEJ@Z 
?SetLegitimate@CCharacterTarget@@QAEXH@Z 
?SetLensFlaresType@CWorldRenderPrefs@@QAEXW4LensFlaresType@1@@Z 
?SetLerp2@CTimer@@QAEXM@Z 
?SetLerp@CTimer@@QAEXM@Z 
?SetLerpFactor@CSessionState@@QAEXVCTimerValue@@@Z 
?SetLerpValue@CParticlesProcessPointGoal@@QAEXMM@Z 
?SetLifeTime@CEffect@@QAEXM@Z 
?SetLifeTime@CParticle@@QAEXM@Z 
?SetLightColor@CLightEffect@@QAEXK@Z 
?SetLightSource@CLightSource@@QAEXABV1@@Z 
?SetLightSourceWithNoDiscarding@CLightSource@@QAEXABV1@@Z 
?SetLightTexture@CLightEffect@@SAXPAVCTextureData@@@Z 
?SetLineHeight@CUITextBox@@QAEXH@Z 
?SetLineSpacing@CFontData@@QAEXJ@Z 
?SetLinkData@CUIExpressSystem@@QAE_NXZ 
?SetListBoxPlacement@CUIMsgBox_Info@@QAEXHHHHHH@Z 
?SetListItemTemplate@CUIList@@QAEXPAVCUIListItem@@@Z 
?SetLoadDataState@CUICashShopEX@@QAEXH@Z 
?SetLoadingZone@CNetworkLibrary@@QAEXJ@Z 
?SetLocalPause@CNetworkLibrary@@QAEXH@Z 
?SetLocalType@CParticlesEmitter@@QAEXH@Z 
?SetLogName@CDamageLogInfo@@QAEXPBD@Z 
?SetLogicalRectInLogical@CDrawPort@@QAEXABV?$AABBox@J$01@@@Z 
?SetLogicalRectInPhysical@CDrawPort@@QAEXABV?$AABBox@J$01@@@Z 
?SetLogicalRectInRaster@CDrawPort@@QAEXABV?$AABBox@J$01@@@Z 
?SetLogin@CUILoginNew@@QAEXXZ 
?SetLoginType@CNetworkMessage@@QAEXE@Z 
?SetLogoType@LoginNew@@QAEXH@Z 
?SetLoopCount@CAnimEffect@@QAEXJ@Z 
?SetLower@CParticlePrototype@@QAEXABVCParticle@@@Z 
?SetMKeyPressed@CInput@@QAEHH@Z 
?SetManualMipBrushingFactor@CWorldRenderPrefs@@QAEXM@Z 
?SetManualMipLevel@CModelObject@@QAEXJ@Z 
?SetMass@CParticle@@QAEXM@Z 
?SetMaxChar@CUIEditBox@@QAEXH@Z 
?SetMaxChar@CUITextBox@@QAEXH@Z 
?SetMaxFallOff@CLightEffect@@QAEXM@Z 
?SetMaxPos@CUISlideBar@@QAEXH@Z 
?SetMaxRow@CUIMsgBox_Info@@QAEXH@Z 
?SetMaxTimeLength@CTag@@QAEXM@Z 
?SetMeshCnt@CItemData@@QAEXH@Z 
?SetMinMax@CUISpinControl@@QAEXH_J@Z 
?SetMinPos@CUISlideBar@@QAEXH@Z 
?SetMinimumRenderRange@CWorldRenderPrefs@@QAEXM@Z 
?SetMipDistance@CBrushMip@@QAEXM@Z 
?SetMipSwitchFactor@CModelObject@@QAEXJM@Z 
?SetMirrorsOn@CWorldRenderPrefs@@QAEXH@Z 
?SetMobData@CPlayerEntity@@UAEXPAVCEntity@@JJHHH@Z 
?SetMobDataToNPC@CMobData@@SAHPAVCEntity@@PAV1@PBD@Z 
?SetMobFlowerTree@CUIFlowerTree@@QAEXPAVCMobTarget@@@Z 
?SetMobSmcFileName@CMobData@@QAEXVCTString@@@Z 
?SetModel@CEntity@@QAEXABVCTFileName@@@Z 
?SetModel@CEntity@@QAEXJ@Z 
?SetModelAttachmentReflectionTexture@CEntity@@QAEXJJ@Z 
?SetModelAttachmentSpecularTexture@CEntity@@QAEXJJ@Z 
?SetModelColor@CEntity@@QAEXK@Z 
?SetModelColor@CModelInstance@@QAEXK@Z 
?SetModelInstance@CSkaEffect@@QAEHABVCTFileName@@@Z 
?SetModelMainTexture@CEntity@@QAEXABVCTFileName@@@Z 
?SetModelMainTexture@CEntity@@QAEXJ@Z 
?SetModelObject@CMdlEffect@@QAEHABVCTFileName@@0@Z 
?SetModelReflectionTexture@CEntity@@QAEXJ@Z 
?SetModelSpecularTexture@CEntity@@QAEXJ@Z 
?SetModelView@CRenderModel@@QAEXXZ 
?SetModel_t@CAttachedModel@@QAEXVCTFileName@@@Z 
?SetMouseCursorInsideUIs@CUIManager@@QAEXW4UIMCType@@@Z 
?SetMouseEventImage@CUIArray@@QAEXU_UIRect@@UUIRectUV@@H@Z 
?SetMouseInsideUIs@CUIManager@@QAEXH@Z 
?SetMouseOver@CUIButton@@QAEXH@Z 
?SetMouseOverItem@CUIArray@@QAEXH@Z 
?SetMoveType@CParticlesAbsorption@@QAEXW4PARTICLE_MOVE_TYPE@@@Z 
?SetMsgBoxInfo@CUIMsgBox_Info@@QAEXAAVCTString@@KHHHMM@Z 
?SetMsgBoxInfo@MsgBoxMgr@@AAEXPAVCUIMsgBox@@IHHPBD1PAVCommand@@2_N@Z 
?SetMsgBoxPos@MsgBoxMgr@@QAEXIHH@Z 
?SetMsgBoxTimer@CUIMsgBox_Info@@QAEX_JH@Z 
?SetMyApet@ObjInfo@@QAEXPAVCWildPetTarget@@@Z 
?SetMyCash@CUICashShopEX@@QAEX_J@Z 
?SetMyGroupNum@Party@@QAEXH@Z 
?SetMyGroupPos@Party@@QAEXH@Z 
?SetMyPosition@CNetworkLibrary@@QAEXVCPlacement3D@@M@Z 
?SetNPCInfo@ExpressSystem@@QAEXGMM@Z 
?SetName@CAnimData@@QAEXJVCTString@@@Z 
?SetName@CEffect@@QAEXABV?$basic_string@DU?$char_traits@D@std@@V?$allocator@D@2@@std@@@Z 
?SetName@CEffect@@QAEXPBD@Z 
?SetName@CEffectGroup@@QAEXAAV?$basic_string@DU?$char_traits@D@std@@V?$allocator@D@2@@std@@@Z 
?SetName@CEffectGroup@@QAEXPBD@Z 
?SetName@CItemData@@QAEXPBD@Z 
?SetName@CJobInfo@@QAEXHABVCTString@@@Z 
?SetName@CMissionCase@@QAEXPBD@Z 
?SetName@CMobData@@QAEXPBD@Z 
?SetName@CModelInstance@@QAEXABVCTString@@@Z 
?SetName@COptionData@@QAEXPBD@Z 
?SetName@CParticleGroup@@QAEXAAV?$basic_string@DU?$char_traits@D@std@@V?$allocator@D@2@@std@@@Z 
?SetName@CParticleGroup@@QAEXPBD@Z 
?SetName@CPetInfo@@QAEXHABVCTString@@@Z 
?SetName@CPlayerCharacter@@QAEXVCTString@@@Z 
?SetName@CSlaveInfo@@QAEXHABVCTString@@@Z 
?SetName@CTag@@QAEXABV?$basic_string@DU?$char_traits@D@std@@V?$allocator@D@2@@std@@@Z 
?SetName@CTag@@QAEXPBD@Z 
?SetName@CTransformInfo@@QAEXHABVCTString@@@Z 
?SetName@CWorld@@QAEXABVCTString@@@Z 
?SetNeedMPReductionRate@CUIManager@@QAEXH@Z 
?SetNetworkID@CEntity@@QAEXJ@Z 
?SetNewName@CharacterCreateNew@@QAEXAAVCTString@@@Z 
?SetNewType@CUIButton@@QAEXH@Z 
?SetNextStage@StageMgr@@QAEXW4eSTAGE@@0@Z 
?SetNickNameDamageEffect@CEntity@@UAEXJW4NickNameEffectType@1@@Z 
?SetNightShadowCreate@CharacterCreateNew@@QAEXH@Z 
?SetNoTranslate@CAffinityData@@QAEXV?$vector@JV?$allocator@J@std@@@std@@@Z 
?SetNoTranslate@CItemData@@QAEXXZ 
?SetNoTranslate@CMissionCase@@QAEXXZ 
?SetNoTranslate@CMobData@@QAEXXZ 
?SetNoTranslate@COptionData@@QAEXXZ 
?SetNoTranslate@CQuestSystem@@QAEXV?$vector@JV?$allocator@J@std@@@std@@@Z 
?SetNoTranslateFlag@CUIManager@@QAEXW4eNoTransType@@PAH@Z 
?SetNoTranslationString@CUIManager@@QAEXHH@Z 
?SetNonBlocking_t@CCommunicationInterface@@QAEXXZ 
?SetNotRenderAtThisFrame@CEffect@@UAEXXZ 
?SetNotRenderAtThisFrame@COrbitEffect@@UAEXXZ 
?SetNotRenderAtThisFrame@CSplinePathEffect@@UAEXXZ 
?SetNotice@CUIGuildBattle@@QAEXVCTString@@0@Z 
?SetNoticeBlink@Notice@@QAEXW4eNoticeType@1@_N@Z 
?SetNoticeFlag@ExpressSystem@@QAEXE@Z 
?SetNum0KeyPressed@CInput@@QAEHH@Z 
?SetNum1KeyPressed@CInput@@QAEHH@Z 
?SetNum2KeyPressed@CInput@@QAEHH@Z 
?SetNum3KeyPressed@CInput@@QAEHH@Z 
?SetNum4KeyPressed@CInput@@QAEHH@Z 
?SetNum5KeyPressed@CInput@@QAEHH@Z 
?SetNum6KeyPressed@CInput@@QAEHH@Z 
?SetNum9KeyPressed@CInput@@QAEHH@Z 
?SetOKeyPressed@CInput@@QAEHH@Z 
?SetObjectPlacement@CRenderModel@@QAEXABV?$Vector@M$02@@ABV?$Matrix@M$02$02@@@Z 
?SetObjectPlacement@CRenderModel@@QAEXABVCPlacement3D@@@Z 
?SetOffset@CModelInstance@@QAEXQAM@Z 
?SetOffsetPos@CModelInstance@@QAEXV?$Vector@M$02@@@Z 
?SetOffsetPos@CSplinePathEffect@@QAEXABV?$Vector@M$02@@@Z 
?SetOffsetPos@CTag@@QAEXABV?$Vector@M$02@@@Z 
?SetOffsetPos@CTag@@QAEXMMM@Z 
?SetOffsetRot@CModelInstance@@QAEXV?$Vector@M$02@@@Z 
?SetOffsetRot@CTag@@QAEXABV?$Quaternion@M@@@Z 
?SetOffsetRot@CTag@@QAEXABV?$Vector@M$02@@@Z 
?SetOnlyIntegerMode@CUIEditBox@@QAEXH@Z 
?SetOrtho@CDrawPort@@QBEXXZ 
?SetOrthoMatrix@@YAXAAY0BA@MMMMMMM@Z 
?SetOverColor@CUIListBox@@QAEXK@Z 
?SetOverDraw@CMdlEffect@@QAEXH@Z 
?SetOverlappedRendering@CDrawPort@@QAEXH@Z 
?SetOwner@CEffect@@QAEXPAVCEntity@@@Z 
?SetOwner@CSoundObject@@QAEXPAVCEntity@@@Z 
?SetOwner@CTagManager@@QAEXPAVCEntity@@@Z 
?SetOwnerIndex@CMobData@@QAEXJ@Z 
?SetPKeyPressed@CInput@@QAEHH@Z 
?SetPWFocus@CUILoginNew@@QAEXXZ 
?SetPackageWearingModel@CUICashShopEX@@QAEXPAVCUIIcon@@J@Z 
?SetPaperColor@CModelRenderPrefs@@QAEXK@Z 
?SetParent@CEntity@@QAEXPAV1@@Z 
?SetParentBone@CModelInstance@@QAEXJ@Z 
?SetParticleGroup@CParticleEffect@@QAEHV?$basic_string@DU?$char_traits@D@std@@V?$allocator@D@2@@std@@@Z 
?SetParticlePrototype@CParticlesEmitter@@QAEXAAVCParticlePrototype@@@Z 
?SetParticleType@CParticlesEmitter@@QAEXW4PARTICLE_RENDER_TYPE@@@Z 
?SetParty@CUICharacterInfo@@QAEXXZ 
?SetPartyLeader@Party@@QAEXXZ 
?SetPartyRequested@Party@@QAEXH@Z 
?SetPartyTarget@Party@@QAEXKKC@Z 
?SetPartyType@Party@@QAEXC@Z 
?SetPassWord@CUIEditBox@@QAEXHH@Z 
?SetPassword@LoginNew@@QAEXVCTString@@@Z 
?SetPatchStretch@CEditModel@@QAEXJM@Z 
?SetPatchesMask@CModelObject@@QAEXK@Z 
?SetPetData@CPlayerEntity@@UAEXPAVCEntity@@JJ@Z 
?SetPetDataToEntity@CPetInfo@@QAEXHHPAVCEntity@@H@Z 
?SetPetSkill@MyInfoSkill@@QAEXHHH@Z 
?SetPetSkillDelay@MyInfoSkill@@QAEXHH_N@Z 
?SetPhysicalRectInLogical@CDrawPort@@QAEXABV?$AABBox@J$01@@@Z 
?SetPhysicalRectInPhysical@CDrawPort@@QAEXABV?$AABBox@J$01@@@Z 
?SetPhysicalRectInRaster@CDrawPort@@QAEXABV?$AABBox@J$01@@@Z 
?SetPhysicsFlags@CEntity@@QAEXK@Z 
?SetPitch@CSoundObject@@QAEXMH@Z 
?SetPlacement@CEntity@@QAEXABVCPlacement3D@@@Z 
?SetPlacementFromNextPosition@CMovableEntity@@QAEXXZ 
?SetPlacement_special@CEntity@@UAEXABVCPlacement3D@@ABV?$Matrix@M$02$02@@K@Z 
?SetPlayCount@CInvenData@@QAEXH@Z 
?SetPointColor@CUIText@@QAEXPADK@Z 
?SetPointGoal@CParticlesProcessPointGoal@@QAEXABV?$Vector@M$02@@@Z 
?SetPolygonsFillType@CWorldRenderPrefs@@QAEXW4FillType@1@@Z 
?SetPolygonsInkColor@CWorldRenderPrefs@@QAEXK@Z 
?SetPopupInfo@CUIImageBox@@QAEXVCTString@@HKH@Z 
?SetPopupVisible@CUICashShopEX@@QAEXH@Z 
?SetPortalIdx@CUIGuildWarPortal@@QAEXH@Z 
?SetPos@CUIBase@@QAEXHH@Z 
?SetPos@cWeb@@QAEXHH@Z 
?SetPosTag@CMdlEffect@@QAEXAAV?$CRefCountPtr@VCTag@@@@@Z 
?SetPosTag@CSkaEffect@@QAEXAAV?$CRefCountPtr@VCTag@@@@@Z 
?SetPosX@CUIBase@@QAEXH@Z 
?SetPosY@CUIBase@@QAEXH@Z 
?SetPos_t@CTFileStream@@UAEXJ@Z 
?SetPos_t@CTMemoryStream@@UAEXJ@Z 
?SetPosition@CParticle@@QAEXABV?$Vector@M$02@@@Z 
?SetPosition@CParticleGroup@@QAEXABV?$Vector@M$02@@@Z 
?SetPosition@CParticlesAbsorption@@QAEXABV?$Vector@M$02@@@Z 
?SetPosition@CParticlesCommonProcess@@QAEXABV?$Vector@M$02@@@Z 
?SetPosition@CParticlesEmitter@@QAEXABV?$Vector@M$02@@@Z 
?SetPosition@cWeb@@QAEXJJJJ@Z 
?SetPositionRange@CParticlePrototype@@QAEXABV?$Vector@M$02@@0@Z 
?SetPositionType@CMdlEffect@@QAEXW4EFFECT_OF_TAG_TYPE@@@Z 
?SetPositionType@COrbitEffect@@QAEXW4EFFECT_OF_TAG_TYPE@@@Z 
?SetPositionType@CShockWaveEffect@@QAEXW4EFFECT_OF_TAG_TYPE@@@Z 
?SetPositionType@CSkaEffect@@QAEXW4EFFECT_OF_TAG_TYPE@@@Z 
?SetPositionType@CSplinePathEffect@@QAEXW4EFFECT_OF_TAG_TYPE@@@Z 
?SetPositionType@CTerrainEffect@@QAEXW4EFFECT_OF_TAG_TYPE@@@Z 
?SetPreCreate@CUIList@@QAEX_N@Z 
?SetPremiumBenefit@ExpressSystem@@QAEX_N@Z 
?SetProduct@CPlayerEntity@@UAEXJC@Z 
?SetProgress@CLoadingImage@@QAEXM@Z 
?SetProgressPos@CUIProgressBar@@QAE?B_J_J@Z 
?SetProgressRange@CUIProgressBar@@QAEX_J0@Z 
?SetProgressStep@CUIProgressBar@@QAE?B_J_J@Z 
?SetProjection@CDrawPort@@QAEXAAVCAnyProjection3D@@@Z 
?SetProjection@CEffectGroup@@QAEXAAVCAnyProjection3D@@@Z 
?SetPurchaseItemList@CUICashShopEX@@QAEXPAVCNetworkMessage@@@Z 
?SetPutTextCallback@@YAXP6AXVCTString@@@Z@Z 
?SetPvpMode@CNetworkLibrary@@QAEXXZ 
?SetQKeyPressed@CInput@@QAEHH@Z 
?SetQuestAllow@CQuestSystem@@QAEXJW4eQuestAllowType@1@@Z 
?SetQuestRemainTime@Quest@@QAEXHH@Z 
?SetQuickSlotWearType@CUIIcon@@QAEXH@Z 
?SetRClickMenu@CUICashShopEX@@QAEXJ@Z 
?SetRKeyPressed@CInput@@QAEHH@Z 
?SetRMousePressed@CInput@@QAEHH@Z 
?SetRSBackground@CUIScrollBar@@QAEXPAVCUIRectSurface@@@Z 
?SetRSButton@CUIScrollBar@@QAEXPAVCUIRectSurface@@H@Z 
?SetRSThumb@CUIScrollBar@@QAEXPAVCUIRectSurface@@@Z 
?SetRTSurface@CUIButton@@QAEXW4UIBtnState@@U_UIRect@@UUIRectUV@@@Z 
?SetRTSurfaceEx@CUIButton@@QAEXW4UIBtnState@@U_UIRect@@UUIRectUV@@@Z 
?SetRaidRemainTime@Quest@@QAEXJ@Z 
?SetRange@CSoundObject@@QAEXMMH@Z 
?SetRange@CUISlideBar@@QAEXH@Z 
?SetRareOption@CUIManager@@QAEXPAUitemInfo@UpdateClient@@AAVCItems@@@Z 
?SetRareOption@CUIManager@@QAEXPAVCNetworkMessage@@AAVCItems@@@Z 
?SetReadingWindowUV@CUIEditBox@@QAEXMMMMMM@Z 
?SetReadyStart@CNetworkLibrary@@QAEXH@Z 
?SetRealTimeFactor@CNetworkLibrary@@QAEXM@Z 
?SetRealTimeTick@CTimer@@QAEXM@Z 
?SetReapplyingActions@CMovableEntity@@UAEXXZ 
?SetRearrangeMark@CUIBase@@QAEXH@Z 
?SetRecentServer@CSessionState@@QAEXHH@Z 
?SetRecommandList@CUICashShopEX@@QAEXPAVCNetworkMessage@@@Z 
?SetRectSurface@CUIArray@@QAEXPAVCUIRectSurface@@@Z 
?SetRectSurface@CUIEditBox@@QAEXPAVCUIRectSurface@@@Z 
?SetRectSurface@CUIImageFont@@QAEXPAVCUIRectSurface@@@Z 
?SetRectSurface@CUIList@@QAEXPAVCUIRectSurface@@@Z 
?SetRectSurface@CUITextBox@@QAEXPAVCUIRectSurface@@@Z 
?SetRectSurfaceBack@CUIComboBox@@QAEXPAVCUIRectSurface@@@Z 
?SetRectSurfaceButton@CUIComboBox@@QAEXPAVCUIRectSurface@@@Z 
?SetRectSurfaceDropList@CUIComboBox@@QAEXPAVCUIRectSurface@@@Z 
?SetRenderIdx@CUIImageArray@@QAEXH@Z 
?SetRenderIdx@CUISpriteAni@@QAEXH@Z 
?SetRenderPos@CUIMultiLineText@@QAEXHH@Z 
?SetRenderRect@CUIMultiLineText@@QAEXAAU_UIRect@@@Z 
?SetRenderRect@CUIMultiLineText@@QAEXHHHH@Z 
?SetRenderRegion@CUIImageBox@@QAEXHHHH@Z 
?SetRenderType@CModelRenderPrefs@@QAEXK@Z 
?SetRenderType@CParticleGroup@@QAEXW4PARTICLE_RENDER_TYPE@@@Z 
?SetRenderingParameters@MappingSurface@@QAEXK@Z 
?SetRepairLegit@CPlayerEntity@@UAEXJPAVCCharacterTarget@@@Z 
?SetRepeatCount@CEffect@@QAEXJ@Z 
?SetRestartGameValue@CGameState@@QAEXH@Z 
?SetRevGiftDatas@CUICashShopEX@@IAEXJ@Z 
?SetRideOffset@CModelInstance@@QAEXQAM@Z 
?SetRideOffsetPos@CModelInstance@@QAEXV?$Vector@M$02@@@Z 
?SetRideOffsetRot@CModelInstance@@QAEXV?$Vector@M$02@@@Z 
?SetRotationType@CMdlEffect@@QAEXW4EFFECT_OF_TAG_TYPE@@@Z 
?SetRotationType@COrbitEffect@@QAEXW4EFFECT_OF_TAG_TYPE@@@Z 
?SetRotationType@CParticleEffect@@QAEXW4EFFECT_OF_TAG_TYPE@@@Z 
?SetRotationType@CShockWaveEffect@@QAEXW4EFFECT_OF_TAG_TYPE@@@Z 
?SetRotationType@CSkaEffect@@QAEXW4EFFECT_OF_TAG_TYPE@@@Z 
?SetRotationType@CSplinePathEffect@@QAEXW4EFFECT_OF_TAG_TYPE@@@Z 
?SetRotationType@CTerrainEffect@@QAEXW4EFFECT_OF_TAG_TYPE@@@Z 
?SetRowCol@CUIArray@@QAEXHH@Z 
?SetRvrZone@CNetworkLibrary@@QAEXH@Z 
?SetSDNpc@CMobData@@SAXXZ 
?SetSEInputBox@CUIMsgBox_Info@@QAEXHHHHH@Z 
?SetSSkill@CUICharacterInfo@@QAEXXZ 
?SetSaveID@LoginNew@@QAEXH@Z 
?SetScroll@CUIArray@@QAEXPAVCUIScrollBar@@@Z 
?SetScroll@CUITextBox@@QAEXPAVCUIScrollBar@@@Z 
?SetScrollBar@CUIListBox@@QAEXH@Z 
?SetScrollBarBottomUV@CUIComboBox@@QAEXMMMMMM@Z 
?SetScrollBarBottomUV@CUIListBox@@QAEXMMMMMM@Z 
?SetScrollBarMiddleUV@CUIComboBox@@QAEXMMMMMM@Z 
?SetScrollBarMiddleUV@CUIListBox@@QAEXMMMMMM@Z 
?SetScrollBarPos@CUIListBox@@QAEXH@Z 
?SetScrollBarTopUV@CUIComboBox@@QAEXMMMMMM@Z 
?SetScrollBarTopUV@CUIListBox@@QAEXMMMMMM@Z 
?SetScrollButton@CUIScrollBar@@QAEXHPAVCUIButton@@@Z 
?SetScrollCurPos@CUIScrollBar@@QAEXH@Z 
?SetScrollDownUV@CUIComboBox@@QAEXW4UIBtnState@@MMMMMM@Z 
?SetScrollDownUV@CUIListBox@@QAEXW4UIBtnState@@MMMMMM@Z 
?SetScrollPos@CUIScrollBar@@QAEXH@Z 
?SetScrollPos@CUITree@@QAEXH@Z 
?SetScrollRange@CUIScrollBar@@QAEXH@Z 
?SetScrollUpUV@CUIComboBox@@QAEXW4UIBtnState@@MMMMMM@Z 
?SetScrollUpUV@CUIListBox@@QAEXW4UIBtnState@@MMMMMM@Z 
?SetSeal@CUICharacterInfo@@QAEXXZ 
?SetSecondExtraFlagOff@CEntity@@QAEXK@Z 
?SetSecondExtraFlagOn@CEntity@@QAEXK@Z 
?SetSelBar@CUIListBox@@QAEXHHMMMMMM@Z 
?SetSelect@CUIBase@@QAEXH@Z 
?SetSelectColor@CUIListBox@@QAEXK@Z 
?SetSelectIcon@CUIIcon@@QAEXH@Z 
?SetSelectIdx@CUIArray@@QAEXH@Z 
?SetSelectJobInfo@CUICharacterCreateNew@@AAEXXZ 
?SetSelectPos@CUISpinButton@@QAEXH@Z 
?SetSelectUIModelSlot@CGameState@@QAEXHHJJ@Z 
?SetSelectable@CUIListBox@@QAEXHH@Z 
?SetSelectedEntityModel@CWorldRenderPrefs@@QAEXPAVCModelObject@@@Z 
?SetSelectedPortalModel@CWorldRenderPrefs@@QAEXPAVCModelObject@@@Z 
?SetSelectionType@CWorldRenderPrefs@@QAEXW4SelectionType@1@@Z 
?SetSellAddition@MyInfo@@QAEXH@Z 
?SetSellRate@MyInfo@@QAEXH@Z 
?SetShadingType@CModelRenderPrefs@@QAEXK@Z 
?SetShadowQuality@CModelRenderPrefs@@QAEXJ@Z 
?SetShadowsType@CWorldRenderPrefs@@QAEXW4ShadowsType@1@@Z 
?SetShape@CParticlesEmitterCone@@QAEXABVCConeDoubleSpace@@@Z 
?SetShape@CParticlesEmitterCylinder@@QAEXABVCCylinderDoubleSpace@@@Z 
?SetShape@CParticlesEmitterSphere@@QAEXAAVCSphereDoubleSpace@@@Z 
?SetShapeSize@CParticlesEmitterCone@@UAEXM@Z 
?SetShapeSize@CParticlesEmitterCylinder@@UAEXM@Z 
?SetShapeSize@CParticlesEmitterSphere@@UAEXM@Z 
?SetShopData@CPlayerEntity@@UAEXJC@Z 
?SetShopType@CCharacterTarget@@QAEXC@Z 
?SetShowAni@CUIManager@@QAEXH@Z 
?SetShowCompletePercent@CUIProgressBar@@QAEXH@Z 
?SetShowDoingPercent@CUIProgressBar@@QAEXH@Z 
?SetShowEffectFlag@CInvenData@@QAEXH@Z 
?SetShowEntityNamesOn@CWorldRenderPrefs@@QAEXH@Z 
?SetShowIdlePercent@CUIProgressBar@@QAEXH@Z 
?SetShowPercentText@CUIProgressBar@@QAEXH@Z 
?SetShowRowCount@CUIArray@@QAEXH@Z 
?SetShowTargetsOn@CWorldRenderPrefs@@QAEXH@Z 
?SetShowText@CUIProgressBar@@QAEXH@Z 
?SetSize@CParticle@@QAEXM@Z 
?SetSize@CUIBase@@QAEXHH_N@Z 
?SetSize@cWeb@@QAEXHH@Z 
?SetSkaColisionInfo@CEntity@@QAEXXZ 
?SetSkaModel@CEntity@@QAEHABVCTString@@@Z 
?SetSkaModel@CEntity@@QAEXJ@Z 
?SetSkaModelItem@CEntity@@QAEPAVCModelInstance@@ABVCTString@@@Z 
?SetSkaModelItem_t@CEntity@@QAEPAVCModelInstance@@ABVCTString@@@Z 
?SetSkaModel_t@CEntity@@QAEXABVCTString@@@Z 
?SetSkill@MyInfoSkill@@QAEXHH_N@Z 
?SetSkillCancel@CPlayerEntity@@UAEXH@Z 
?SetSkillDelay@MyInfoSkill@@QAEXH_N0@Z 
?SetSkillExp@MyInfoSkill@@QAEXH_J@Z 
?SetSkillIndex@CSlaveInfo@@QAEXHJ@Z 
?SetSlaveDataToEntity@CSlaveInfo@@QAEXHPAVCEntity@@H@Z 
?SetSocial@CUICharacterInfo@@QAEXXZ 
?SetSocial@CharacterCreateNew@@QAEXH@Z 
?SetSocialInfo@CUICharacterCreateNew@@AAEXXZ 
?SetSocialShowIdx@CharacterCreateNew@@QAEXH@Z 
?SetSocket@CUIImageText@@QAEXV?$basic_string@DU?$char_traits@D@std@@V?$allocator@D@2@@std@@KH_N@Z 
?SetSound@CSoundEffect@@QAEHABVCTFileName@@@Z 
?SetSoundPlayFlag@CSoundEffect@@QAEXK@Z 
?SetSpaceWidth@CFontData@@QAEXM@Z 
?SetSpawnFlags@CEntity@@QAEXK@Z 
?SetSpawnFlags@CWorld@@QAEXK@Z 
?SetSpeed@CAnimData@@QAEXJM@Z 
?SetSpeed@CParticlesEmitterCone@@QAEXMM@Z 
?SetSpeed@CParticlesEmitterCylinder@@QAEXMM@Z 
?SetSpeed@CParticlesProcessPointGoal@@QAEXM@Z 
?SetSpeedMul@CEffect@@QAEXM@Z 
?SetSpeedMul@CEffectGroup@@QAEXM@Z 
?SetSpeedUp@CPlayerEntity@@UAEXHJH@Z 
?SetSphere@CParticlesAbsorptionSphere@@QAEXABVCSphereDoubleSpace@@@Z 
?SetSpinButton@CUIMsgBox_Info@@QAEXHHHVCTString@@@Z 
?SetSpinButton@CUISpinButton@@QAEXHPAVCUIButton@@@Z 
?SetSpiralInfo@CParticlesProcessControl@@QAEXHMM@Z 
?SetSplitCount@CShockWaveEffect@@QAEXJ@Z 
?SetSplitMode@CUIImageSplit@@QAEXW4eSPLIT_TYPE@1@@Z 
?SetSplitMode@CUITextBox@@QAEXW4eSPLIT_TYPE@@@Z 
?SetSplitMode@CUITextBoxEx@@QAEXW4eSPLIT_TYPE@@@Z 
?SetStartItem@CUIArray@@QAEXHH@Z 
?SetStartTime@CSkill@@QAEXH@Z 
?SetStartX@CUITextBoxEx@@QAEXH@Z 
?SetStartXY@CUITextBox@@QAEXHH@Z 
?SetStartY@CUITextBoxEx@@QAEXH@Z 
?SetStatpoint@CUIAutoHelp@@QAEXHH@Z 
?SetStatus@CUIProgressBar@@QAE?BW4_tagProgressStatus@@W42@@Z 
?SetStretch@CMdlEffect@@QAEXABV?$Vector@M$02@@@Z 
?SetStretch@CSkaEffect@@QAEXABV?$Vector@M$02@@@Z 
?SetString@CShell@@QAEXABVCTString@@0@Z 
?SetString@CUIEditBox@@QAEXPAD@Z 
?SetString@CUIListBox@@QAEXHHAAVCTString@@@Z 
?SetSubComboBox@CUICashShopEX@@IAEXW4CashShopCategory@1@JJ@Z 
?SetSubType@CMobTarget@@QAEXW4eMobSubType@1@@Z 
?SetSuit@CUIIcon@@QAEX_N@Z 
?SetSuitWearingModel@CUICashShopEX@@QAEXJJ@Z 
?SetSummonCommand@CPlayerEntity@@UAEXPAVCEntity@@J@Z 
?SetSurface@CUIImageSplit@@QAEXPAVCUIRectSurface@@@Z 
?SetSurfaceColor@CModelObject@@QAEXJJK@Z 
?SetSurfaceRenderFlags@CModelObject@@QAEXJJW4SurfaceShadingType@@W4SurfaceTranslucencyType@@K@Z 
?SetSyndicate@CCharacterTarget@@QAEXJJ@Z 
?SetSyndicateData@CMobTarget@@QAEXJJ@Z 
?SetTKeyPressed@CInput@@QAEHH@Z 
?SetTabKeyPressed@CInput@@QAEHH@Z 
?SetTagManager@CEffectGroup@@QAEXPAVCTagManager@@@Z 
?SetTakeOffModel@CUICashShopEX@@QAEXJ@Z 
?SetTarget@CPlayerEntity@@UAEXJC@Z 
?SetTarget@CPlayerEntity@@UAEXPAVCEntity@@@Z 
?SetTargetActive@ObjInfo@@QAEXW4eTARGET_TYPE@@H@Z 
?SetTargetHealth@ObjInfo@@QAEXMM@Z 
?SetTargetInfo@CEntity@@QAE_NMMHHHHHH@Z 
?SetTargetInfo@ObjInfo@@QAEXVCTargetInfom@@@Z 
?SetTargetInfoReal@CEntity@@QAEXMMHHH_JHPAVCCharacterTarget@@H@Z 
?SetTargetLabel@Party@@QAEXJJJJ@Z 
?SetTargetMe@CPlayerEntity@@UAEXXZ 
?SetTargetPKHide@ObjInfo@@QAEXH@Z 
?SetTargetPKMode@ObjInfo@@QAEXHHHH@Z 
?SetTargetRealInfo@ObjInfo@@QAEXVCTargetInfomReal@@@Z 
?SetTargetSyndicate@ObjInfo@@QAEXHH@Z 
?SetTargetSyndicateInfo@CEntity@@QAEXHH@Z 
?SetTempValue@CTagManager@@QAEXJ@Z 
?SetTerrain@CLightEffect@@SAXPAVCTerrain@@@Z 
?SetTerrain@CTerrainEffect@@SAXPAVCTerrain@@@Z 
?SetTestValue@CEntityEffect@@QAEXPAVCModelInstance@@@Z 
?SetTex2Cnt@CItemData@@QAEXH@Z 
?SetTex3Cnt@CItemData@@QAEXH@Z 
?SetTexCnt@CItemData@@QAEXH@Z 
?SetTexPos@CParticle@@QAEXEE@Z 
?SetTexPos@CParticlePrototype@@QAEXEE@Z 
?SetText@CUIButton@@QAEHAAVCTString@@HH@Z 
?SetText@CUICheckButton@@QAEXAAVCTString@@@Z 
?SetText@CUIProgressBar@@QAEXAAVCTString@@HK@Z 
?SetText@CUIText@@QAEXAAVCTString@@V2@@Z 
?SetText@CUITextBox@@QAEXAAVCTString@@KH@Z 
?SetTextAspect@CDrawPort@@QAEXM@Z 
?SetTextBlendingType@CDrawPort@@QAEXK@Z 
?SetTextCharSpacing@CDrawPort@@QAEXJ@Z 
?SetTextColor@CUIButton@@QAEXW4UIBtnState@@K@Z 
?SetTextColor@CUICheckButton@@QAEXHK@Z 
?SetTextColor@CUIEditBox@@QAEXH@Z 
?SetTextColor@CUIProgressBar@@QAEXK@Z 
?SetTextFlags@CDrawPort@@QAEXK@Z 
?SetTextLineSpacing@CDrawPort@@QAEXJ@Z 
?SetTextMode@CDrawPort@@QAEXJ@Z 
?SetTextScaling@CDrawPort@@QAEXM@Z 
?SetTextShadow@CDrawPort@@QAEXM@Z 
?SetTexture@CParticleGroup@@QAEXABVCTFileName@@@Z 
?SetTexture@CShockWaveEffect@@QAEHABVCTFileName@@@Z 
?SetTexture@CSplineBillboardEffect@@QAEHABVCTFileName@@@Z 
?SetTexture@CTerrainEffect@@QAEHABVCTFileName@@@Z 
?SetTexture@CTraceEffect@@QAEHABVCTFileName@@@Z 
?SetTextureData@CModelObject@@QAEXPAVCTextureData@@@Z 
?SetTextureInfo@CParticleGroup@@QAEXJJJJ@Z 
?SetTextureLayerOn@CWorldRenderPrefs@@QAEXHJ@Z 
?SetTextureType@CModelRenderPrefs@@QAEXK@Z 
?SetTimeInterval@CSplineBillboardEffect@@QAEXM@Z 
?SetTimeInterval@CTraceEffect@@QAEXM@Z 
?SetTimeReq@CNetworkLibrary@@QAEXHHH@Z 
?SetTimerAfter@CEntity@@QAEXM@Z 
?SetTimerAfter@CRationalEntity@@QAEXM@Z 
?SetTimerAt@CEntity@@QAEXM@Z 
?SetTimerAt@CRationalEntity@@QAEXM@Z 
?SetTitle@CUISpinButton@@QAEXVCTString@@@Z 
?SetTitleName@CUIManager@@QAEXJHH@Z 
?SetToggle@CUIIcon@@QAEX_N@Z 
?SetToggle@CUIQuickSlot@@QAEXHH_N@Z 
?SetToggle@CUISkillNew@@QAEXH@Z 
?SetTooltipIndex@CUIBase@@QAEXH@Z 
?SetTotalCount@CParticlesEmitter@@QAEXK@Z 
?SetTowerSet@CUISiegeWarfareNew@@QAEXHD@Z 
?SetTraceTime@CSplineBillboardEffect@@QAEXM@Z 
?SetTraceTime@CTraceEffect@@QAEXM@Z 
?SetTranslateFlag@CMobData@@QAEXH@Z 
?SetTwinklePeriod@CEffectControl@@QAEXM@Z 
?SetTwinklePeriod@CParticlesProcessDynamicState@@QAEXM@Z 
?SetTwinklePeriod@CSplineBillboardEffect@@QAEXM@Z 
?SetTwinklePeriod@CTraceEffect@@QAEXM@Z 
?SetType@CStatusEffect@@QAEXW4eType@1@@Z 
?SetUIGameState@CUIManager@@QAEXH@Z 
?SetUIState@CUISiegeWarfareDoc@@QAEXH@Z 
?SetUKeyPressed@CInput@@QAEHH@Z 
?SetUV@CUIButton@@QAEXW4UIBtnState@@MMMMMM@Z 
?SetUV@CUIButton@@QAEXW4UIBtnState@@UUIRectUV@@@Z 
?SetUV@CUICheckButton@@QAEXW4UICheckBtnState@@AAUUIRectUV@@@Z 
?SetUV@CUICheckButton@@QAEXW4UICheckBtnState@@MMMMMM@Z 
?SetUV@CUIImage@@QAEXMMMM@Z 
?SetUV@CUIImage@@QAEXUUIRectUV@@@Z 
?SetUV@CUIImageBox@@QAEXMMMMMM@Z 
?SetUVTex@CUICheckButton@@QAEXW4UICheckBtnState@@AAUUIRectUV@@@Z 
?SetUnit@CUIImageSplit@@QAEXH@Z 
?SetUpBtnUV@CUIComboBox@@QAEXMMMMMM@Z 
?SetUpUV@CUIScrollBar@@QAEXW4UIBtnState@@MMMMMM@Z 
?SetUpUV@CUISpinButton@@QAEXW4UIBtnState@@MMMMMM@Z 
?SetUpper@CParticlePrototype@@QAEXABVCParticle@@@Z 
?SetUseItem@MyInfoSkill@@QAEXH_J@Z 
?SetUseItemStartTime@CUIIcon@@QAEX_J@Z 
?SetUsePetStash@PetStash@@QAEX_N@Z 
?SetUsePos@CParticlesEmitterCone@@QAEXH@Z 
?SetUsePos@CParticlesEmitterCylinder@@QAEXH@Z 
?SetUseSpeed@CParticlesEmitterCone@@QAEXH@Z 
?SetUseSpeed@CParticlesEmitterCylinder@@QAEXH@Z 
?SetUserBtnName@CUIMsgBox_Info@@QAEXVCTString@@0@Z 
?SetUserId@LoginNew@@QAEXVCTString@@@Z 
?SetVKeyPressed@CInput@@QAEHH@Z 
?SetValue@CShell@@QAEXABVCTString@@0@Z 
?SetVariableWidth@CFontData@@QAEXXZ 
?SetVelocity@CParticle@@QAEXABV?$Vector@M$02@@@Z 
?SetVelocity@CSplineBillboardEffect@@QAEXM@Z 
?SetVelocityDir@CParticlesProcessVelocity@@QAEXABV?$Vector@M$02@@@Z 
?SetVelocityRange@CParticlePrototype@@QAEXABV?$Vector@M$02@@0@Z 
?SetVelocitySpd@CParticlesProcessVelocity@@QAEXM@Z 
?SetVersion@CUIManager@@QAEXH@Z 
?SetVersion@LoginNew@@AAEXXZ 
?SetVerticesFillType@CWorldRenderPrefs@@QAEXW4FillType@1@@Z 
?SetVerticesInkColor@CWorldRenderPrefs@@QAEXK@Z 
?SetVisTweaksOn@CWorldRenderPrefs@@QAEXH@Z 
?SetVolume@CSoundObject@@QAEXMH@Z 
?SetWantTag@CEffect@@UAEXJV?$CRefCountPtr@VCTag@@@@@Z 
?SetWantTag@COrbitEffect@@UAEXJV?$CRefCountPtr@VCTag@@@@@Z 
?SetWantTag@CParticleEffect@@UAEXJV?$CRefCountPtr@VCTag@@@@@Z 
?SetWantTag@CParticlesCommonProcess@@UAEXJV?$CRefCountPtr@VCTag@@@@@Z 
?SetWantTag@CParticlesProcessPointGoal@@UAEXJV?$CRefCountPtr@VCTag@@@@@Z 
?SetWantTagManager@CEffectGroup@@QAEXPAVCTagManager@@@Z 
?SetWeaponAndAnimator@CPlayerEntity@@UAEXXZ 
?SetWearingModel@CUICashShopEX@@QAEXPAVCUIIcon@@J@Z 
?SetWebDlgCallBack@cWeb@@QAEXP6GHPAUHWND__@@IIJ@Z@Z 
?SetWebDlgID@cWeb@@QAEXJ@Z 
?SetWebHandle@cWeb@@QAEXPAUHWND__@@@Z 
?SetWebMoveWindow@cWeb@@QAEXXZ 
?SetWebPosition@cWeb@@QAEXJJ@Z 
?SetWebUrl@cWeb@@QAEXAAV?$basic_string@DU?$char_traits@D@std@@V?$allocator@D@2@@std@@@Z 
?SetWheelPressed@CInput@@QAEHH@Z 
?SetWheelRect@CUIScrollBar@@QAEXHHHH@Z 
?SetWheelRect@CUISpinButton@@QAEXHHHH@Z 
?SetWhichUI@CUIIcon@@QAEXH@Z 
?SetWideScreen@CPlayerEntity@@UAEXPAVCEntity@@HM@Z 
?SetWidth@CParticle@@QAEXM@Z 
?SetWidth@CSplineBillboardEffect@@QAEXM@Z 
?SetWidth@CUIBase@@QAEXH@Z 
?SetWildPetData@CPlayerEntity@@UAEXPAVCEntity@@JJ@Z 
?SetWildPetToEntity@CWildPetTarget@@QAEXPAVCEntity@@JPAJ1@Z 
?SetWire@CModelRenderPrefs@@QAEXH@Z 
?SetWishList@CUICashShopEX@@QAEXPAVCNetworkMessage@@@Z 
?SetWorld@CLightEffect@@SAXPAVCWorld@@@Z 
?SetZoneData@CZoneInfo@@QAEXHHHPBD0M@Z 
?SetZoneMovingFlag@CMobData@@QAEX_K@Z 
?SetZoneName@CZoneInfo@@QAEXHAAVCTString@@@Z 
?Set_MyChar_Effect@CNetworkLibrary@@QAEXHH@Z 
?Set_MyChar_MorphStatus_EVOCATION@CNetworkLibrary@@QAEXXZ 
?Set_MyChar_MorphStatus_EVOCATION_BEGIN@CNetworkLibrary@@QAEXXZ 
?Set_MyChar_MorphStatus_EVOCATION_CONVERTING@CNetworkLibrary@@QAEXXZ 
?Set_MyChar_MorphStatus_MORPH_END@CNetworkLibrary@@QAEXXZ 
?Set_MyChar_MorphStatus_TRANSFORMATION@CNetworkLibrary@@QAEXXZ 
?SetgERSubType@CEffectGroup@@QAEXW4EFF_RENDER_SUB_TYPE@@@Z 
?SetgERType@CEffectGroup@@QAEXW4EFF_RENDER_TYPE@@@Z 
?SetupLightSource@CLightEffect@@IAEXAAVCLightSource@@@Z 
?SetupModelRendering@CModelObject@@QAEXAAVCRenderModel@@@Z 
?SetupPixelFormat_OGL@CGfxLibrary@@AAEHPAUHDC__@@H@Z 
?SetyLayer@CCharacterTarget@@QAEXC@Z 
?ShowAllEntities@CWorld@@QAEXXZ 
?ShowAllSectors@CWorld@@QAEXXZ 
?ShowAutoHelp@CUIAutoHelp@@QAEXH@Z 
?ShowDamage@CUIManager@@QAEXK@Z 
?ShowDamageList@CUIManager@@QAEXV?$Vector@M$02@@MK@Z 
?ShowDisconnMsg@CCommunicationInterface@@IAEXXZ 
?ShowNPCTalk@CChattingUI@@QAEXJJ@Z 
?ShowNoTranslationString@CUIManager@@QAEXXZ 
?ShowPatch@CModelObject@@QAEXJ@Z 
?ShowSignBoard@@YAXH@Z 
?ShowSingBoard@CUISignBoard@@QAEXHJ@Z 
?ShowToolTip@CUIOption@@IAEXHH@Z 
?Shrink@CNetworkMessage@@QAEXXZ 
?ShrinkMemory@@YAXPAPAXJ@Z 
?ShutDown_dsound@CSoundLibrary@@AAEXXZ 
?ShutDown_waveout@CSoundLibrary@@AAEXXZ 
?Sin@@YAMM@Z 
?SinFast@@YAMM@Z 
?SingleModeOn@CPlayerEntity@@UAEXXZ 
?Size@CParticles@@QAEIXZ 
?SkipModelInstance_t@@YAXAAVCTStream@@@Z 
?SkipSpaces@CSessionState@@QAEXPAPAD@Z 
?Snap@@YAXAAMM@Z 
?Snap@@YAXAANN@Z 
?Sort@CListHead@@QAEXP6AHPBX0@ZH@Z 
?SortRestoreQuest@Quest@@QAEXXZ 
?SortSkeleton@CSkeleton@@QAEXXZ 
?SortSkeletonRecursive@CSkeleton@@QAEXJJ@Z 
?Split@CTString@@QAEXJAAV1@0@Z 
?SplitCharCount@CUITextBox@@IAEXXZ 
?SplitHyphen@CUITextBox@@IAEXH@Z 
?SplitMixed@CUITextBox@@IAEXH@Z 
?SplitNone@CUITextBox@@IAEXH@Z 
?SplitOneSector@CWorld@@QAEXAAVCBrushSector@@AAVCObject3D@@@Z 
?SplitPolygons@CWorld@@QAEXAAVCEntity@@AAV?$CSelection@VCBrushPolygon@@$0BAA@@@AAV1@0ABVCPlacement3D@@@Z 
?SplitSectors@CWorld@@QAEXAAVCEntity@@AAV?$CSelection@VCBrushSector@@$00@@AAV1@0ABVCPlacement3D@@@Z 
?SplitSpace@CUITextBox@@IAEXH@Z 
?SplitSurfaces@CMesh@@QAEXAAUMeshLOD@@@Z 
?SpreadFurtherMips@CBrushMip@@QAEXXZ 
?SpreadMipSwitchFactors@CModelData@@QAEXJM@Z 
?StandDown@CPlayerEntity@@UAEXH@Z 
?Start@CCameraEffect@@UAEXMH@Z 
?Start@CEffectGroup@@QAEXM@Z 
?Start@CEffectGroup@@QAEXMABV?$CRefCountPtr@VCTag@@@@@Z 
?Start@CEntityEffect@@UAEXMH@Z 
?Start@CLightEffect@@UAEXMH@Z 
?Start@CMdlEffect@@UAEXMH@Z 
?Start@COrbitEffect@@UAEXMH@Z 
?Start@CParticleEffect@@UAEXMH@Z 
?Start@CShockWaveEffect@@UAEXMH@Z 
?Start@CSkaEffect@@UAEXMH@Z 
?Start@CSoundEffect@@UAEXMH@Z 
?Start@CSplineBillboardEffect@@UAEXMH@Z 
?Start@CSplinePathEffect@@UAEXMH@Z 
?Start@CTerrainEffect@@UAEXMH@Z 
?Start@CTraceEffect@@UAEXMH@Z 
?Start@cThreadWrapper@@QAEHPAX@Z 
?StartAni@CUIPetStashSelectEffect@@QAEXXZ 
?StartAnim@CAnimObject@@QAEXJ@Z 
?StartAnimEffect@CModelInstance@@QAEHJM@Z 
?StartCamera@CPlayerEntity@@UAEXPAVCEntity@@H@Z 
?StartConsensusAni@CUISiegeWarfareNew@@QAEXH@Z 
?StartDamageMode@CDamageLogInfo@@QAE_NPBD@Z 
?StartDisplayMode@CGfxLibrary@@AAEHW4GfxAPIType@@JJJW4DisplayDepth@@@Z 
?StartEffect@CUIGuildBattle@@QAEXXZ 
?StartGame@CSessionState@@QAEXXZ 
?StartGuildEffect@ActorMgr@@QAEXXZ 
?StartGuildEffect@CUIGuildBattle@@QAEXJPAVCEntity@@H@Z 
?StartIdleEffect@CSlaveInfo@@QAEXJCPAVCEntity@@@Z 
?StartModelAnim@CEntity@@QAEXJKH@Z 
?StartModelMainTextureAnim@CEntity@@QAEXJ@Z 
?StartNewTick@CServer@@QAEXM@Z 
?StartPeerToPeer_t@CNetworkLibrary@@QAEXABVCTString@@ABVCTFileName@@KJHPAX@Z 
?StartProgress@CUIProgressBar@@QAEXXZ 
?StartProvider_t@CMessageDispatcher@@QAEXABVCNetworkProvider@@@Z 
?StartSkillDelay@CUICharacterInfo@@QAEXH@Z 
?StartTargetEffect@CUIManager@@QAEXJPAVCEntity@@H@Z 
?StartTimer@CTimer@@QAEXXZ 
?StartUp_dsound@CSoundLibrary@@AAEHH@Z 
?StartUp_waveout@CSoundLibrary@@AAEHH@Z 
?Start_AtServer_t@CSessionState@@QAEXXZ 
?Start_t@CPlayerSource@@QAEXAAVCPlayerCharacter@@@Z 
?Start_t@CServer@@QAEXXZ 
?Start_t@CSessionState@@QAEXJ@Z 
?StatPointError@CUICharacterInfo@@QAEXC@Z 
?StatReset@CNetworkLibrary@@QAEXHHHH@Z 
?Stereo_AdjustProjection@@YAXAAVCProjection3D@@JM@Z 
?Stereo_IsEnabled@@YAHXZ 
?Stereo_SetBuffer@@YAXJ@Z 
?StockCurrentTextureData@CDrawPort@@QAEXPAVCTextureData@@@Z 
?Stop@CCameraEffect@@UAEXM@Z 
?Stop@CEffect@@UAEXM@Z 
?Stop@CEffectGroup@@QAEXM@Z 
?Stop@COrbitEffect@@UAEXM@Z 
?Stop@CParticleEffect@@UAEXM@Z 
?Stop@CParticleGroup@@QAEXXZ 
?Stop@CPlayerSource@@QAEXXZ 
?Stop@CServer@@QAEXXZ 
?Stop@CSessionState@@QAEXXZ 
?Stop@CSoundEffect@@UAEXM@Z 
?Stop@CSoundObject@@QAEXH@Z 
?Stop@CSplinePathEffect@@UAEXM@Z 
?StopAll@CEffectGroupManager@@QAEXXZ 
?StopAllAnimEffect@CModelInstance@@QAEXM@Z 
?StopAllAnimations@CModelInstance@@QAEXM@Z 
?StopAni@CUISpriteAni@@QAEXXZ 
?StopAnimEffect@CModelInstance@@QAEXJM@Z 
?StopComposition@CUIEditBox@@QAEXXZ 
?StopConsensus@CUISiegeWarfareNew@@QAEXK@Z 
?StopDisplayMode@CGfxLibrary@@AAEXXZ 
?StopEffect@CUIGuildBattle@@QAEXXZ 
?StopGame@CNetworkLibrary@@QAEXXZ 
?StopGuildEffect@CUIGuildBattle@@QAEXJ@Z 
?StopIdleEffect@CSlaveInfo@@QAEXJ_N@Z 
?StopLoading@CLoadingImage@@QAEXXZ 
?StopMove@CPlayerEntity@@UAEXXZ 
?StopNetProcess@CServer@@QAEXXZ 
?StopPlayer@CMovableEntity@@UAEXXZ 
?StopProvider@CMessageDispatcher@@QAEXXZ 
?StopTargetEffect@CUIManager@@QAEXJ@Z 
?Stop_internal@CSoundObject@@QAEXH@Z 
?StoreEncodePersistentSymbols@CShell@@QAEXABVCTFileName@@@Z 
?StorePersistentSymbols@CShell@@QAEXABVCTFileName@@@Z 
?StretchModel@CEntity@@QAEXAAV?$Vector@M$02@@J@Z 
?StretchModel@CModelInstance@@QAEXAAV?$Vector@M$02@@@Z 
?StretchModel@CModelObject@@QAEXABV?$Vector@M$02@@@Z 
?StretchModelRelative@CModelObject@@QAEXABV?$Vector@M$02@@@Z 
?StretchSingleModel@CEntity@@QAEXAAV?$Vector@M$02@@J@Z 
?StretchSingleModel@CModelInstance@@QAEXAAV?$Vector@M$02@@@Z 
?StretchSingleModel@CModelObject@@QAEXABV?$Vector@M$02@@@Z 
?StringDuplicate@@YAPADPBD@Z 
?StringDuplicate@@YAPADPBG@Z 
?StringEllipsis@CUITextBox@@QAEXH@Z 
?StringFree@@YAXPAD@Z 
?StringSplit@CUIImageBox@@QAEXAAV?$vector@VCTString@@V?$allocator@VCTString@@@std@@@std@@VCTString@@K@Z 
?StringToAddress@@YAKABVCTString@@@Z 
?SubCurrnetPage@ExpressSystem@@QAEXXZ 
?SubdivideTriangles@CBrushSector@@QAEXAAV?$CSelection@VCBrushPolygon@@$0BAA@@@@Z 
?Succ@CListNode@@QBEAAV1@XZ 
?SurfacesCt@CModelObject@@QAEJJ@Z 
?Suspend@cThreadWrapper@@QAEXXZ 
?Swap@CUIBase@@QAE_NHH@Z 
?SwapBuffers@CGfxLibrary@@QAEXPAVCViewPort@@H@Z 
?SwapBuffers@CViewPort@@QAEXH@Z 
?SwapCommonProcess@CParticleGroup@@QAEXII@Z 
?SwapItem@CNetworkLibrary@@QAEXHHHH@Z 
?SwapQuickSlot@CNetworkLibrary@@QAEXHHHH@Z 
?SwitchToAnim@CAnimObject@@QAEXJ@Z 
?SwitchToEditorModel@CEntity@@QAEXXZ 
?SwitchToModel@CEntity@@QAEXXZ 
?SwitchToNonZoning@CBrush3D@@QAEXXZ 
?SwitchToZoning@CBrush3D@@QAEXXZ 
?Synchronize@CAnimObject@@QAEXAAV1@@Z 
?Synchronize@CModelInstance@@QAEXAAV1@@Z 
?Synchronize@CModelObject@@QAEXAAV1@@Z 
?TRE_Free1ByteBufferForEditing@@YAXPAE@Z 
?TRE_Free4ByteBufferForEditing@@YAXPAK@Z 
?TRE_FreeBufferForEditing@@YAXPAG@Z 
?TRE_Get1ByteBufferForEditing@@YAPAEPAVCTerrain@@VCTRect@@W4BufferType@@J@Z 
?TRE_Get4ByteBufferForEditing@@YAPAKPAVCTerrain@@VCTRect@@W4BufferType@@J@Z 
?TRE_GetBufferForEditing@@YAPAGPAVCTerrain@@VCTRect@@W4BufferType@@J@Z 
?TRE_Set1ByteBufferForEditing@@YAXPAVCTerrain@@PAEVCTRect@@W4BufferType@@J@Z 
?TRE_Set4ByteBufferForEditing@@YAXPAVCTerrain@@PAKVCTRect@@W4BufferType@@J@Z 
?TRE_SetBufferForEditing@@YAXPAVCTerrain@@PAGVCTRect@@W4BufferType@@J@Z 
?TRE_ShowSelection@@YAXPBVCTerrain@@AAVCTRect@@PAVCTextureData@@KMW4SelectionFill@@W4BufferType@@@Z 
?TRL_ApplyLayerMatrix@@YAXPAVCTerrain@@J@Z 
?TRL_CreateLayer_t@@YAJPAVCTerrain@@ABVCTFileName@@@Z 
?TRL_DeleteLayer@@YAXPAVCTerrain@@JH@Z 
?TRL_ExportLayerMask_t@@YAXPAVCTerrain@@JABVCTFileName@@@Z 
?TRL_ExportLayerMask_t@@YAXPAVCTerrain@@PAVCTerrainLayer@@ABVCTFileName@@@Z 
?TRL_FillLayerData@@YAXPAVCTerrain@@JE@Z 
?TRL_GetLayerTexture_t@@YAPAVCTextureData@@PAVCTerrain@@J@Z 
?TRL_GetLayerThumbnail@@YAPAVCTextureData@@PAVCTerrain@@JJJ@Z 
?TRL_ImportLayerMask_t@@YAXPAVCTerrain@@JABVCTFileName@@@Z 
?TRL_ImportLayerMask_t@@YAXPAVCTerrain@@PAVCTerrainLayer@@ABVCTFileName@@@Z 
?TRL_ReadLayerData_t@@YAXPAVCTerrain@@JPAVCTStream@@@Z 
?TRL_SetLayerIndex@@YAJPAVCTerrain@@JJ@Z 
?TRL_SetLayerTexture_t@@YAXPAVCTerrain@@JABVCTFileName@@@Z 
?TRL_SetLayerTexture_t@@YAXPAVCTerrain@@PAVCTerrainLayer@@ABVCTFileName@@@Z 
?TRL_UpdateLayerSize@@YAXPAVCTerrain@@JJJJJ@Z 
?TRL_WriteLayerData_t@@YAXPAVCTerrain@@JPAVCTStream@@@Z 
?TRS_AddDirectionalLight@@YAXKKVCPlacement3D@@@Z 
?TRS_AddPointLight@@YAXMMKVCPlacement3D@@@Z 
?TRS_AddShadowMap@@YAXPAVCTerrain@@@Z 
?TRS_BeginShadowMapUpdate@@YAXPAVCTerrain@@@Z 
?TRS_ClearRealShadowMap@@YAXPAVCTerrain@@J@Z 
?TRS_ColectLightsFromWorld@@YAXPAVCTerrain@@@Z 
?TRS_DeleteShadowMap@@YAXPAVCTerrain@@J@Z 
?TRS_EndShadowMapUpdate@@YAXPAVCTerrain@@@Z 
?TRS_SetShadowMapIndex@@YAXPAVCTerrain@@JJ@Z 
?TRS_SetTerrainPlacement@@YAXAAY0M@$$CBM@Z 
?TRS_SetTerrainPlacement@@YAXABVCPlacement3D@@@Z 
?TRS_UpdateRealShadowMap@@YAXPAVCTerrain@@JUGFXColor@@MHHHH@Z 
?TRS_UpdateShadowMap@@YAXPAVCTerrain@@V?$AABBox@M$02@@H@Z 
?TR_AddTerrainLighting@@YAXPAVCLightSource@@@Z 
?TR_AddTerrainViewer@@YAXPBVCTerrain@@V?$Vector@M$02@@M@Z 
?TR_AreHardwareShadersAvailable@@YAHXZ 
?TR_BeginRenderingView@@YAXAAVCAnyProjection3D@@PAVCDrawPort@@@Z 
?TR_BindTerrainTextures@@YAXPAVCTerrain@@@Z 
?TR_CalcShadingTC@@YA?AV?$Vector@M$01@@PBVCTerrain@@ABV?$Vector@M$02@@AAY0M@$$CBM@Z 
?TR_CleanRender@@YAXPAVCTerrain@@@Z 
?TR_ClearAttributeMap@@YAXPAVCTerrain@@@Z 
?TR_ClearTerrain@@YAXPAVCTerrain@@@Z 
?TR_CopyTerrain@@YAXPAVCTerrain@@PBV1@@Z 
?TR_DiscardShadingInfos@@YAXPAVCTerrain@@@Z 
?TR_DrawModelAttribute@@YAXPAVCWorld@@PAGJ@Z 
?TR_EndRenderingView@@YAXXZ 
?TR_ExportAttributeMap_t@@YAXPAVCTerrain@@AAVCTFileName@@@Z 
?TR_ExportEdgeMap_t@@YAXPAVCTerrain@@ABVCTFileName@@@Z 
?TR_ExportHeightMap_t@@YAXPAVCTerrain@@ABVCTFileName@@H@Z 
?TR_ExportServerHeightMap_t@@YAXPAVCTerrain@@AAVCTFileName@@@Z 
?TR_ExtractPoligonsInRect@@YAXPBVCTerrain@@AAVCTRect@@PAPAV?$Vector@M$02@@AAJPAPAG3@Z 
?TR_ExtractPolygonsInBox@@YAXPBVCTerrain@@ABV?$AABBox@M$02@@AAY0M@$$CBMPAPAV?$Vector@M$02@@AAJPAPAG4@Z 
?TR_FillEdgeMap@@YAXPAVCTerrain@@E@Z 
?TR_FillHeightMap@@YAXPAVCTerrain@@G@Z 
?TR_ForceCustomTileLOD@@YAXJ@Z 
?TR_GenerateAttributeMap@@YAXPAVCTerrain@@PAVCWorld@@@Z 
?TR_GetHeight@@YAMPAVCTerrainImp@@MM@Z 
?TR_GetHeightMapHeight@@YAJPBVCTerrain@@@Z 
?TR_GetHeightMapWidth@@YAJPBVCTerrain@@@Z 
?TR_GetMatrixFromEntity@@YAXAAY0M@MPBVCTerrain@@@Z 
?TR_GetObjToViewMatrix@@YAXAAY0M@M@Z 
?TR_GetPlaneFromPoint@@YA?AV?$Plane@M$02@@PBVCTerrain@@AAY0M@$$CBMABV?$Vector@M$02@@@Z 
?TR_GetShadeColor@@YAKPBVCTerrain@@PAVCShadingInfo@@@Z 
?TR_GetShadingMapAspect@@YAJPBVCTerrain@@@Z 
?TR_GetShadowMapAspect@@YAJPBVCTerrain@@@Z 
?TR_GetStretchMatrix@@YAXAAY0M@M@Z 
?TR_GetStretchedTerrainBBox@@YA?AV?$AABBox@M$02@@PBVCTerrain@@@Z 
?TR_GetTerrainBBox@@YA?AV?$AABBox@M$02@@PBVCTerrain@@@Z 
?TR_GetTerrainInfo@@YA?AVCTString@@PBVCTerrain@@@Z 
?TR_GetTerrainLayerSound@@YAJMM@Z 
?TR_GetTerrainSize@@YA?AV?$Vector@M$02@@PBVCTerrain@@@Z 
?TR_GetTerrainStretch@@YA?AV?$Vector@M$02@@PBVCTerrain@@@Z 
?TR_GetTopMapHeight@@YAJPBVCTerrain@@@Z 
?TR_GetTopMapWidth@@YAJPBVCTerrain@@@Z 
?TR_ImportAttributeMap_t@@YAXPAVCTerrain@@AAVCTFileName@@@Z 
?TR_ImportEdgeMap_t@@YAXPAVCTerrain@@ABVCTFileName@@@Z 
?TR_ImportHeightMap_t@@YAXPAVCTerrain@@ABVCTFileName@@H@Z 
?TR_IsTerrainBelowPoint@@YAHPBVCTerrain@@ABV?$Vector@M$02@@M1@Z 
?TR_RegenerateAll@@YAXPAVCTerrain@@@Z 
?TR_RelFromAbsPoint@@YA?AV?$Vector@J$01@@PBVCTerrain@@ABV?$Vector@M$02@@AAY0M@$$CBMW4BufferType@@J@Z 
?TR_RemoveTerrainLighting@@YAXPAVCLightSource@@@Z 
?TR_RenderTerrain@@YAXPAVCTerrain@@@Z 
?TR_RenderTerrainLighting@@YAXPAVCTerrain@@PAVCTextureData@@@Z 
?TR_RenderWireFrame@@YAXPAVCTerrain@@K@Z 
?TR_SetAttributeMapSize@@YAXPAVCTerrain@@@Z 
?TR_SetCurrentDistance@@YAXM@Z 
?TR_SetDistanceFactor@@YAXPAVCTerrain@@M@Z 
?TR_SetHeightMapSize@@YAXPAVCTerrain@@JJ@Z 
?TR_SetShadowMapSize@@YAXPAVCTerrain@@JJ@Z 
?TR_SetTerrainPlacement@@YAXABV?$Matrix@M$02$02@@ABV?$Vector@M$02@@@Z 
?TR_SetTerrainPlacement@@YAXABVCPlacement3D@@@Z 
?TR_SetTerrainSize@@YAXPAVCTerrain@@V?$Vector@M$02@@@Z 
?TR_SetTopMapSize@@YAXPAVCTerrain@@JJ@Z 
?TR_TestRayCastHit@@YAMPAVCTerrain@@ABV?$Matrix@M$02$02@@ABV?$Vector@M$02@@V3@3MH@Z 
?TR_TestRayCastHit@@YAMPAVCTerrain@@ABV?$Matrix@M$02$02@@ABV?$Vector@M$02@@V3@3MHAAV?$Plane@M$02@@AAV3@@Z 
?TR_UnbindTerrainTextures@@YAXPAVCTerrain@@@Z 
?TR_UpdateShadowMap@@YAXPAVCTerrain@@AAY0M@$$CBMV?$AABBox@M$02@@HH@Z 
?TR_UpdateTopMap@@YAXPAVCTerrain@@@Z 
?Tail@CListHead@@QBEAAVCListNode@@XZ 
?TakeOffArmor@CGameState@@QAEXPAVCModelInstance@@AAVCItemData@@@Z 
?TakeOffArmorTest@CGameState@@QAEXPAVCModelInstance@@J@Z 
?TakeOffHairBand@CGameState@@QAEXPAVCModelInstance@@J@Z 
?TakeOffRudolphNose@CGameState@@QAEXPAVCModelInstance@@J@Z 
?Tan@@YAMM@Z 
?TanFast@@YAMM@Z 
?TargetClear@ObjInfo@@QAEXW4eTARGET_TYPE@@@Z 
?TargetMember@Party@@QAEXH@Z 
?TargetSelectedEnemy_Sort@CWorld@@QAEXXZ 
?TeachGiftReq@CNetworkLibrary@@QAEXXZ 
?TeachRefreshTeacherList@CNetworkLibrary@@QAEXXZ 
?TeachTeacherAccept@CNetworkLibrary@@QAEXJAAVCTString@@J0@Z 
?TeachTeacherCancelRegister@CNetworkLibrary@@QAEXXZ 
?TeachTeacherGiveUp@CNetworkLibrary@@QAEXJAAVCTString@@J0@Z 
?TeachTeacherRegister@CNetworkLibrary@@QAEXCC@Z 
?TeachTeacherReject@CNetworkLibrary@@QAEXHJAAVCTString@@@Z 
?TeachTeacherRequest@CNetworkLibrary@@QAEXJAAVCTString@@@Z 
?Teleport@CEntity@@QAEXABVCPlacement3D@@H@Z 
?Terminate@cThreadWrapper@@QAEHK@Z 
?TerrainChangeNotify@CEntity@@QAEXXZ 
?TestBoxToFrustum@CIsometricProjection3D@@UBEJABV?$OBBox@M@@@Z 
?TestBoxToFrustum@CParallelProjection3D@@UBEJABV?$OBBox@M@@@Z 
?TestBoxToFrustum@CPerspectiveProjection3D@@UBEJABV?$OBBox@M@@@Z 
?TestBoxToFrustum@CSimpleProjection3D@@UBEJABV?$OBBox@M@@@Z 
?TestBreathing@CMovableEntity@@QAEXAAVCContentType@@@Z 
?TestBrushSector@CCastRay@@QAEXPAVCBrushSector@@@Z 
?TestBrushSectorForTerrainShadow@CCastRay@@QAEHPAVCBrushSector@@AAV?$Vector@M$02@@@Z 
?TestContentDamage@CMovableEntity@@QAEXAAVCContentType@@M@Z 
?TestExtension_OGL@CGfxLibrary@@AAEXKPBD@Z 
?TestFields@CMovableEntity@@QAEXAAJ0AAM@Z 
?TestModel@CCastRay@@QAEXPAVCEntity@@@Z 
?TestModelCollisionBox@CCastRay@@QAEXPAVCEntity@@@Z 
?TestModelFull@CCastRay@@QAEXPAVCEntity@@AAVCModelObject@@@Z 
?TestModelSimple@CCastRay@@QAEXPAVCEntity@@AAVCModelObject@@@Z 
?TestNPCForQuest@CQuestSystem@@QAE?AW4eNpcQuestType@1@J@Z 
?TestSkaModel@CCastRay@@QAEXPAVCEntity@@@Z 
?TestSkaModelForTerrainShadow@CCastRay@@QAEHPAVCEntity@@AAV?$Vector@M$02@@@Z 
?TestSkaModelFull@CCastRay@@QAEXPAVCEntity@@AAVCModelInstance@@@Z 
?TestSkaModelSimple@CCastRay@@QAEXPAVCEntity@@AAVCModelInstance@@@Z 
?TestSphereToFrustum@CIsometricProjection3D@@UBEJABV?$Vector@M$02@@M@Z 
?TestSphereToFrustum@CParallelProjection3D@@UBEJABV?$Vector@M$02@@M@Z 
?TestSphereToFrustum@CPerspectiveProjection3D@@UBEJABV?$Vector@M$02@@M@Z 
?TestSphereToFrustum@CSimpleProjection3D@@UBEJABV?$Vector@M$02@@M@Z 
?TestSurfaceDamage@CMovableEntity@@QAEXAAVCSurfaceType@@@Z 
?TestTerrain@CCastRay@@QAEXPAVCEntity@@@Z 
?TestThroughSectors@CCastRay@@QAEXXZ 
?TestWholeWorld@CCastRay@@QAEXPAVCWorld@@@Z 
?ThrowF_t@@YAXPADZZ 
?Throw_t@CTStream@@QAAXPADZZ 
?Throw_t@CTString@@QAEXXZ 
?TickQuantum@CTimer@@2MB 
?TimeProcessAndAddParticle@CParticlesEmitter@@IAEJMAAVCParticles@@@Z 
?TimeToString@@YA?AVCTString@@M@Z 
?ToLower@CTString@@QAEXXZ 
?ToMappingVectors@CMappingDefinition@@QBEXABVCMappingVectors@@AAV2@@Z 
?ToObject3D@CBrushMip@@QAEXAAVCObject3D@@AAV?$CSelection@VCBrushSector@@$00@@@Z 
?ToObject3D@CBrushMip@@QAEXAAVCObject3D@@AAV?$CSelection@VCBrushSector@@$03@@@Z 
?ToObjectSector@CBrushSector@@QAEXAAVCObjectSector@@@Z 
?ToPlane@CMappingVectors@@QBEXAAV?$Plane@M$02@@@Z 
?ToUI@CMappingDefinition@@QBEXAAVCMappingDefinitionUI@@@Z 
?ToUpper@CTString@@QAEXXZ 
?ToggleNoTranslationString@CUIManager@@QAEXXZ 
?ToggleOption@CUIOption@@QAEXXZ 
?TogglePause@CNetworkLibrary@@QAEXXZ 
?ToggleVisible@CUICharacterInfo@@QAEXXZ 
?ToggleVisibleAction@CUICharacterInfo@@QAEXXZ 
?ToggleVisibleGroup@CUICharacterInfo@@QAEXXZ 
?ToggleVisibleSocial@CUICharacterInfo@@QAEXXZ 
?ToggleVisibleStatus@CUICharacterInfo@@QAEXXZ 
?ToggleVisibleSyndicate@CUICharacterInfo@@QAEXXZ 
?ToggleVisibleUIs@CUIManager@@QAEXXZ 
?TouchesInAnySector@CBrushEdge@@QAEHAAV1@@Z 
?TouchesInAnySector@CBrushPolygon@@QAEHAAV1@@Z 
?TouchesInSameSector@CBrushEdge@@QAEHAAV1@@Z 
?TouchesInSameSector@CBrushPolygon@@QAEHAAV1@@Z 
?TouchingEntity@CEntity@@QAEPAV1@P6AHPAV1@@Z0@Z 
?TradePersonalShop@CUIPersonalshopNew@@QAEXJMM_N@Z 
?Transform@CMappingDefinition@@QAEXABV?$Plane@M$02@@ABVCPlacement3D@@1@Z 
?TransformMappingVectors@CMappingDefinition@@QBEXABVCMappingVectors@@AAV2@@Z 
?TransformSorcerer@CPlayerEntity@@UAEXH@Z 
?TransformVertex@@YAXAAUGFXVertex@@AAY0M@$$CBM@Z 
?TransfromPet@CPlayerEntity@@UAEXPAVCEntity@@JJ@Z 
?Translate@@YAPADPADJ@Z 
?Translate@CMappingDefinition@@QAEXABVCMappingVectors@@ABV?$Vector@M$02@@@Z 
?TranslateConst@@YAPBDPBDJ@Z 
?Translate_AbsoluteSystem@CPlacement3D@@QAEXABV?$Vector@M$02@@@Z 
?Translate_OwnSystem@CPlacement3D@@QAEXABV?$Vector@M$02@@@Z 
?TriangularizeForVertices@CBrushSector@@QAEXAAV?$CSelection@VCBrushVertex@@$01@@@Z 
?TriangularizeForVertices@CWorld@@QAEXAAV?$CSelection@VCBrushVertex@@$01@@@Z 
?TriangularizeMarkedPolygons@CBrushSector@@QAEXXZ 
?TriangularizePolygon@CBrushSector@@QAEXPAVCBrushPolygon@@@Z 
?TriangularizePolygons@CWorld@@QAEXAAV?$CDynamicContainer@VCBrushPolygon@@@@@Z 
?Triangulate@CBrushPolygon@@QAEXXZ 
?Triangulate@CBrushSector@@QAEXXZ 
?TrimLeft@CTString@@QAEJJ@Z 
?TrimLeftChar@CTString@@QAEJD@Z 
?TrimRight@CTString@@QAEJJ@Z 
?TrimRightChar@CTString@@QAEJD@Z 
?TrimSpacesLeft@CTString@@QAEJXZ 
?TrimSpacesRight@CTString@@QAEJXZ 
?TryToGoUpstairs@CMovableEntity@@QAEHABV?$Vector@M$02@@ABVCSurfaceType@@H@Z 
?TryToLock@CTSingleLock@@QAEHXZ 
?TryToLogin@CUILoginNew@@QAEHXZ 
?TryToMove@CMovableEntity@@QAEHPAV1@HH@Z 
?TurnOffMirrorPlane@CProjection3D@@QAEXXZ 
?TurnOffWarpPlane@CProjection3D@@QAEXXZ 
?TurnPortalsToWalls@CObject3D@@QAEXXZ 
?Unbind@CMesh@@QAEXXZ 
?Unbind@CTextureData@@QAEXXZ 
?Uncache@CShadowMap@@QAEJXZ 
?UncacheLightMaps@CBrushSector@@QAEXXZ 
?UncacheShadowMaps@CLightSource@@QAEXXZ 
?UncacheShadowsForGradient@CEntity@@QAEXJ@Z 
?Undecorated@CTString@@QBE?AV1@XZ 
?Unlock@CDrawPort@@QAEXXZ 
?Unlock@CTSingleLock@@QAEXXZ 
?UnlockAll@CBrushSector@@QAEXXZ 
?UnlockAll@CWorld@@QAEXXZ 
?UnlockBuffer@CTMemoryStream@@QAEXXZ 
?UnlockDrawPort@CGfxLibrary@@QAEXPAVCDrawPort@@@Z 
?UnlockRaster@CGfxLibrary@@QAEXPAVCRaster@@@Z 
?UnlockStatPoint@CUICharacterInfo@@QAEXXZ 
?Unlock_internal@CDrawPort@@QAEXXZ 
?Unpack@CNetworkMessage@@QAEXAAV1@AAVCCompressor@@@Z 
?UnpackAngle@@YAXKAAV?$Vector@M$02@@@Z 
?UnpackDefault@CNetworkMessage@@QAEXAAV1@@Z 
?UnpackFloat@@YAMEEEK@Z 
?UnpackFloatFromWord@@YAMF@Z 
?UnpackFloatsFromULONG@@YAXKAAM00@Z 
?UnpackVectorFromULONG@@YAXKAAV?$Vector@M$02@@@Z 
?UnpackVertex@CModelObject@@QAEXAAVCRenderModel@@JAAV?$Vector@M$02@@@Z 
?UnpackVertex@CModelObject@@QAEXJJAAV?$Vector@M$02@@@Z 
?Unprepare@CCommunicationInterface@@QAEXXZ 
?Unregister@CEffectGroupManager@@QAEHV?$basic_string@DU?$char_traits@D@std@@V?$allocator@D@2@@std@@@Z 
?Unregister@CEffectManager@@QAEHV?$basic_string@DU?$char_traits@D@std@@V?$allocator@D@2@@std@@@Z 
?Unregister@CParticleGroupManager@@QAEHV?$basic_string@DU?$char_traits@D@std@@V?$allocator@D@2@@std@@@Z 
?Unregister@CTagManager@@QAEHAAV?$basic_string@DU?$char_traits@D@std@@V?$allocator@D@2@@std@@@Z 
?Unregister@CTagManager@@QAEHPBD@Z 
?UnsetTimer@CEntity@@QAEXXZ 
?UnsetTimer@CRationalEntity@@QAEXXZ 
?UntargetEntity@CWorld@@QAEXPAVCEntity@@@Z 
?UnwindStack@CRationalEntity@@QAEXJ@Z 
?UpVectorToAngles@@YAXABV?$Vector@M$02@@AAV1@@Z 
?Update@ActorMgr@@QAEXMM@Z 
?Update@CSoundObject@@QAEXXZ 
?Update@CUIBase@@UAEXMK@Z 
?Update@CUIManager@@QAEXMM@Z 
?Update@MsgBoxMgr@@QAEXMK@Z 
?UpdateAni@CUIPetStashSelectEffect@@QAEXXZ 
?UpdateAni@CUISpriteAni@@QAEXM@Z 
?UpdateAnim@CUICharacterCreateNew@@AAEXH@Z 
?UpdateAnimations_t@CEditModel@@QAEXAAVCTFileName@@@Z 
?UpdateArr@CUICharacterInfo@@AAEXPAVCUIArray@@H@Z 
?UpdateBarPos@CUIProgressBar@@AAEXXZ 
?UpdateBaseInfo@CUICharacterInfo@@AAEXXZ 
?UpdateBoundingBox@CBrushMip@@QAEXXZ 
?UpdateChild@CUIBase@@QAEXMK@Z 
?UpdateDynamicLayers@CShadowMap@@QAEKXZ 
?UpdateExpAndSp@CUICharacterInfo@@QAEXXZ 
?UpdateExpressItemList@CUIExpressSystem@@QAEXXZ 
?UpdateHPMP@CSimplePlayerInfoUI@@QAEXXZ 
?UpdateHeight@CUIList@@QAEXH@Z 
?UpdateItem@CUIArray@@QAEXXZ 
?UpdateLayer@CLightSource@@QAEXAAVCBrushShadowLayer@@@Z 
?UpdateList@CUIList@@QAEXXZ 
?UpdateListBottom@CUIList@@AAEXXZ 
?UpdateListTop@CUIList@@AAEXXZ 
?UpdateMasterBuffers@CCommunicationInterface@@QAEXXZ 
?UpdateMemberStatus@Party@@QAEXJHHHH@Z 
?UpdateMipModels_t@CEditModel@@QAEXAAVCTFileName@@@Z 
?UpdateMySyndiPos@CUICharacterInfo@@QAEXXZ 
?UpdateOneSectorForce@CMovableEntity@@QAEXAAVCBrushSector@@M@Z 
?UpdatePetInfo@PetStash@@QAEXXZ 
?UpdatePetTargetInfo@CNetworkLibrary@@QAEXJ@Z 
?UpdatePlayerBaseInfo@CSimplePlayerInfoUI@@QAEXXZ 
?UpdatePos@CUIImageText@@QAEXPAVCUITextBox@@PAVCUIBase@@V?$basic_string@DU?$char_traits@D@std@@V?$allocator@D@2@@std@@K_N@Z 
?UpdatePos@cWeb@@QAEXXZ 
?UpdateProgress@CLoadingImage@@QAEXXZ 
?UpdateRescueNPC@CNetworkLibrary@@QAEXPAVCEntity@@HH@Z 
?UpdateScroll@CUIList@@QAEXH@Z 
?UpdateScroll@CUITree@@QAEXXZ 
?UpdateScrollBarPos@CUIScrollBar@@IAEXXZ 
?UpdateScrollBarSize@CUIScrollBar@@IAEXXZ 
?UpdateSealExp@CUICharacterInfo@@QAEXH_J@Z 
?UpdateSector@CBrushSector@@QAEXXZ 
?UpdateSectorsAfterVertexChange@CWorld@@QAEXAAV?$CSelection@VCBrushVertex@@$01@@@Z 
?UpdateSectorsDuringVertexChange@CWorld@@QAEXAAV?$CSelection@VCBrushVertex@@$01@@@Z 
?UpdateSelectImage@CUICharacterInfo@@QAEXPAVCUIIcon@@@Z 
?UpdateSize@CUIScrollBar@@QAEXHH@Z 
?UpdateSkillInfo@CUICharacterInfo@@IAEXHH@Z 
?UpdateSounds@CSoundLibrary@@QAEXXZ 
?UpdateSpatialRange@CEntity@@QAEXXZ 
?UpdateSplit@CUIImageSplit@@QAEXXZ 
?UpdateStatTooltip@CUICharacterInfo@@AAEXXZ 
?UpdateStatus@CUICharacterInfo@@QAEXHHHH@Z 
?UpdateSyndiHistory@CUICharacterInfo@@QAEXXZ 
?UpdateSyndicateMark@CUICharacterInfo@@QAEXXZ 
?UpdateTargetInfo@CEntity@@QAEXMMHHH@Z 
?UpdateTerMul@CUIOption@@QAEXXZ 
?UpdateTerrains@CLightSource@@QAEXVCPlacement3D@@0@Z 
?UpdateTerrains@CLightSource@@QAEXXZ 
?UpdateTotalJewel@CUICharacterInfo@@QAEXXZ 
?UpdateVertexChanges@CBrushSector@@QAEXXZ 
?Update_BtnHighlight@CUICharacterCreateNew@@AAEXM@Z 
?UpgradeItem@CNetworkLibrary@@QAEXJJJFFJJFF@Z 
?UploadCompressed@CTextureData@@QAEHXZ 
?UseAction@CPlayerEntity@@UAEXH@Z 
?UseAction@CUICharacterInfo@@QAEXH@Z 
?UseApplicationPath@@YAXXZ 
?UseChangeWeaponItem@CNetworkLibrary@@QAEXFFJJJ@Z 
?UsePetPickItem@CPlayerEntity@@UAEXXZ 
?UsePetSkill@CPlayerEntity@@UAEXH@Z 
?UseSkill@CPlayerEntity@@UAEXH@Z 
?UseSkill@CUICharacterInfo@@QAEXH@Z 
?UseSlaveSkill@CPlayerEntity@@UAEXPAVCEntity@@H@Z 
?UseSlotItem@CNetworkLibrary@@QAEXHHC@Z 
?UseStatPoint@CUICharacterInfo@@QAEXEJ@Z 
?UseWildSkill@CPlayerEntity@@UAEXPAVCEntity@@H@Z 
?VPrintF@CTString@@QAEJPBDPAD@Z 
?VecMove@CUIBase@@QAE_NPAV1@0@Z 
?ViewFrameInit@CUICashShopEX@@IAEXMM@Z 
?ViewStretchL@CProjection3D@@QAEAAMXZ 
?ViewStretchR@CProjection3D@@QBEABMXZ 
?ViewerPlacementL@CProjection3D@@QAEAAVCPlacement3D@@XZ 
?ViewerPlacementL@CSimpleProjection3D_DOUBLE@@QAEAAVCPlacement3D@@XZ 
?ViewerPlacementR@CProjection3D@@QBEABVCPlacement3D@@XZ 
?ViewerPlacementR@CSimpleProjection3D_DOUBLE@@QBEABVCPlacement3D@@XZ 
?WaitStream_t@CSessionState@@QAEXAAVCTMemoryStream@@ABVCTString@@J@Z 
?WaitUntilScheduledAnimStarts@CMovableModelEntity@@QAEHABVCEntityEvent@@@Z 
?WarItemMixReq@CNetworkLibrary@@QAEXPAF0@Z 
?WarmUpWorld@CSessionState@@QAEXXZ 
?WarningMessage@@YAXPBDZZ 
?WarpPlaneL@CProjection3D@@QAEAAV?$Plane@M$02@@XZ 
?WarpPlaneR@CProjection3D@@QBEABV?$Plane@M$02@@XZ 
?WarpTeleport@CPlayerEntity@@UAEXMMMMC@Z 
?WearingArmor@CGameState@@QAEXPAVCModelInstance@@AAVCItemData@@@Z 
?WearingArmorTest@CGameState@@QAEXPAVCModelInstance@@J@Z 
?WearingCostumeArmor@CPlayerEntity@@UAEXPAVCNetworkMessage@@@Z 
?WearingCostumeArmorOneSuit@CPlayerEntity@@UAEXPAVCNetworkMessage@@@Z 
?WearingDefaultArmor@CPlayerEntity@@UAEXH@Z 
?WearingHairBand@CGameState@@QAEXPAVCModelInstance@@J@Z 
?WearingRudolphNose@CGameState@@QAEXPAVCModelInstance@@J@Z 
?WhyDisconnected@CNetworkLibrary@@QAEABVCTString@@XZ 
?WildPetStartEffectGroup@@YAHPBDJPAVCEntity@@@Z 
?WireOn@CModelRenderPrefs@@QAEHXZ 
?WouldFallInNextPosition@CMovableEntity@@QAEHXZ 
?Write@CAnimEffect@@IAEXPAVCTStream@@@Z 
?Write@CCameraEffect@@UAEXPAVCTStream@@@Z 
?Write@CEffect@@UAEXPAVCTStream@@@Z 
?Write@CEffectControl@@QAEXPAVCTStream@@@Z 
?Write@CEffectGroup@@QAEXPAVCTStream@@@Z 
?Write@CEffectGroupManager@@QAEXPAVCTStream@@@Z 
?Write@CEffectManager@@QAEXPAVCTStream@@@Z 
?Write@CEntityEffect@@UAEXPAVCTStream@@@Z 
?Write@CLightEffect@@UAEXPAVCTStream@@@Z 
?Write@CMdlEffect@@UAEXPAVCTStream@@@Z 
?Write@CNetworkMessage@@QAEXPBXJ@Z 
?Write@COrbitEffect@@UAEXPAVCTStream@@@Z 
?Write@CParticleEffect@@UAEXPAVCTStream@@@Z 
?Write@CParticleGroup@@QAEXPAVCTStream@@@Z 
?Write@CParticleGroupManager@@QAEXPAVCTStream@@@Z 
?Write@CParticlePrototype@@QAEXPAVCTStream@@@Z 
?Write@CParticlesAbsorption@@UAEXPAVCTStream@@@Z 
?Write@CParticlesAbsorptionDefault@@UAEXPAVCTStream@@@Z 
?Write@CParticlesAbsorptionSphere@@UAEXPAVCTStream@@@Z 
?Write@CParticlesEmitter@@UAEXPAVCTStream@@@Z 
?Write@CParticlesEmitterCone@@UAEXPAVCTStream@@@Z 
?Write@CParticlesEmitterCylinder@@UAEXPAVCTStream@@@Z 
?Write@CParticlesEmitterSphere@@UAEXPAVCTStream@@@Z 
?Write@CParticlesProcessControl@@UAEXPAVCTStream@@@Z 
?Write@CParticlesProcessDynamicState@@UAEXPAVCTStream@@@Z 
?Write@CParticlesProcessForce@@UAEXPAVCTStream@@@Z 
?Write@CParticlesProcessPointGoal@@UAEXPAVCTStream@@@Z 
?Write@CParticlesProcessVelocity@@UAEXPAVCTStream@@@Z 
?Write@CShockWaveEffect@@UAEXPAVCTStream@@@Z 
?Write@CSkaEffect@@UAEXPAVCTStream@@@Z 
?Write@CSoundEffect@@UAEXPAVCTStream@@@Z 
?Write@CSplineBillboardEffect@@UAEXPAVCTStream@@@Z 
?Write@CSplinePathEffect@@UAEXPAVCTStream@@@Z 
?Write@CTerrainEffect@@UAEXPAVCTStream@@@Z 
?Write@CTraceEffect@@UAEXPAVCTStream@@@Z 
?WriteActionPacket@CPlayerSource@@QAEXAAVCNetworkMessage@@@Z 
?WriteAddPlayer@CEntityMessage@@QAEXAAKAAJAAVCPlayerCharacter@@00J@Z 
?WriteAddSkaString@CEntityMessage@@QAEXJABVCTString@@@Z 
?WriteAnimEffectFile@CModelInstance@@QAEXABVCTFileName@@@Z 
?WriteAttributeMap@CWorld@@QAEXAAVCTFileName@@HJJJAAV?$vector@HV?$allocator@H@std@@@std@@@Z 
?WriteBasePosition@CEntityMessage@@QAEXAAV?$Vector@M$02@@@Z 
?WriteBits@CNetworkMessage@@QAEXPBXJ@Z 
?WriteBrushes_t@CWorld@@QAEXPAVCTStream@@@Z 
?WriteByte@ByteQueueData@@QAEXE@Z 
?WriteCharacterChange@CEntityMessage@@QAEXAAKAAVCPlayerCharacter@@@Z 
?WriteChunk_t@CTStream@@UAEXPAXJ@Z 
?WriteCurrentPos@CNetworkLibrary@@QAEXHPBD@Z 
?WriteDocString@ByteQueueData@@QAEXV?$basic_string@DU?$char_traits@D@std@@V?$allocator@D@2@@std@@@Z 
?WriteDouble@ByteQueueData@@QAEXN@Z 
?WriteDword@ByteQueueData@@QAEXK@Z 
?WriteEntityCopy@CEntityMessage@@QAEXAAK0ABVCPlacement3D@@E@Z 
?WriteEntityCreate@CEntityMessage@@QAEXAAKABVCPlacement3D@@AAG@Z 
?WriteEntityDestroy@CEntityMessage@@QAEXAAK@Z 
?WriteEntityEvent@CEntityMessage@@QAEXAAKAAJPAX1@Z 
?WriteEntityInitialize@CEntityMessage@@QAEXAAKAAJPAX1@Z 
?WriteEntityPointer_t@CEntity@@QAEXPAVCTStream@@VCEntityPointer@@@Z 
?WriteEntitySectorLinks_t@CBrushArchive@@QAEXAAVCTStream@@@Z 
?WriteFloat@ByteQueueData@@QAEXM@Z 
?WriteFullChunk_t@CTStream@@UAEXABVCChunkID@@PAXJ@Z 
?WriteID_t@CTStream@@UAEXABVCChunkID@@@Z 
?WriteInfo_t@CWorld@@QAEXPAVCTStream@@@Z 
?WriteLayers_t@CBrushShadowMap@@UAEXPAVCTStream@@@Z 
?WriteLayers_t@CShadowMap@@UAEXPAVCTStream@@@Z 
?WriteMipSettings_t@CEditModel@@QAEXPAVCTStream@@J@Z 
?WriteModelInstance_t@@YAXAAVCTStream@@AAVCModelInstance@@H@Z 
?WritePause@CEntityMessage@@QAEXAAHAAVCTString@@@Z 
?WritePlacement@CEntityMessage@@QAEXAAKABVCPlacement3D@@1@Z 
?WritePlacementNotify@CEntityMessage@@QAEXAAKE@Z 
?WritePlayerAction@CEntityMessage@@QAEXAAKAAVCPlayerAction@@@Z 
?WritePlayerUpdate@CEntityMessage@@QAEXAAKAAVCNetworkMessage@@@Z 
?WritePortalSectorLinks_t@CBrushArchive@@QAEXAAVCTStream@@@Z 
?WritePreviousId@CUILoginNew@@QAEXXZ 
?WriteProperties_t@CEntity@@QAEXAAVCTStream@@H@Z 
?WriteRawChunk_t@CTStream@@UAEXPAXJ@Z 
?WriteRememberedLevels_t@CSessionState@@QAEXPAVCTStream@@@Z 
?WriteRemovePlayer@CEntityMessage@@QAEXAAJ@Z 
?WriteSKAQueue@CEntity@@QAEXAAVCNetworkMessage@@@Z 
?WriteSKAQueue@CEntity@@QAEXPAVCTStream@@@Z 
?WriteSettings_t@MappingSurface@@QAEXPAVCTStream@@@Z 
?WriteSize_t@CTStream@@UAEXJ@Z 
?WriteSka@CEntityMessage@@QAEXAAKEPAXAAJ@Z 
?WriteSound@CEntityMessage@@QAEXAAKEPAXAAJ@Z 
?WriteStartAnim@CEntityMessage@@QAEXAAKAAJ0@Z 
?WriteState_net_t@CWorld@@QAEXPAVCTStream@@@Z 
?WriteState_t@CSessionState@@QAEXPAVCTStream@@@Z 
?WriteState_t@CWorld@@QAEXPAVCTStream@@H@Z 
?WriteStream_t@CTStream@@UAEXAAV1@@Z 
?WriteString@ByteQueueData@@QAEXV?$basic_string@DU?$char_traits@D@std@@V?$allocator@D@2@@std@@@Z 
?WriteSvrHeightMap@CWorld@@QAEXAAVCTFileName@@HJJJ@Z 
?WriteToStreamShort@CTString@@QAEXPAVCTStream@@@Z 
?WriteVersion_t@CNetworkLibrary@@QAEXAAVCTStream@@@Z 
?WriteWord@ByteQueueData@@QAEXG@Z 
?WriteWorldAndState_t@CSessionState@@QAEXPAVCTStream@@@Z 
?Write_t@CAnimSet@@UAEXPAVCTStream@@@Z 
?Write_t@CAttachedModel@@QAEXPAVCTStream@@@Z 
?Write_t@CAttachedModelPosition@@QAEXPAVCTStream@@@Z 
?Write_t@CAttachedSound@@QAEXPAVCTStream@@@Z 
?Write_t@CBrush3D@@QAEXPAVCTStream@@@Z 
?Write_t@CBrushArchive@@UAEXPAVCTStream@@@Z 
?Write_t@CBrushMip@@QAEXPAVCTStream@@@Z 
?Write_t@CBrushPolygonTexture@@QAEXAAVCTStream@@@Z 
?Write_t@CBrushSector@@QAEXPAVCTStream@@@Z 
?Write_t@CEditModel@@UAEXPAVCTStream@@@Z 
?Write_t@CEntity@@UAEXPAVCTStream@@H@Z 
?Write_t@CEntityClass@@UAEXPAVCTStream@@@Z 
?Write_t@CFontCharData@@QAEXPAVCTStream@@@Z 
?Write_t@CFontData@@UAEXPAVCTStream@@@Z 
?Write_t@CImageInfo@@QBEXPAVCTStream@@@Z 
?Write_t@CLightSource@@QAEXPAVCTStream@@H@Z 
?Write_t@CLiveEntity@@UAEXPAVCTStream@@H@Z 
?Write_t@CMesh@@UAEXPAVCTStream@@@Z 
?Write_t@CModelCollisionBox@@QAEXPAVCTStream@@@Z 
?Write_t@CModelData@@UAEXPAVCTStream@@@Z 
?Write_t@CModelInstanceSerial@@UAEXPAVCTStream@@@Z 
?Write_t@CModelObject@@QAEXPAVCTStream@@@Z 
?Write_t@CModelPatch@@QAEXPAVCTStream@@@Z 
?Write_t@CModelRenderPrefs@@QAEXPAVCTStream@@@Z 
?Write_t@CMovableBrushEntity@@UAEXPAVCTStream@@H@Z 
?Write_t@CMovableEntity@@UAEXPAVCTStream@@H@Z 
?Write_t@CMovableModelEntity@@UAEXPAVCTStream@@H@Z 
?Write_t@CPlayerCharacter@@QAEXPAVCTStream@@@Z 
?Write_t@CPlayerEntity@@UAEXPAVCTStream@@H@Z 
?Write_t@CRationalEntity@@UAEXPAVCTStream@@H@Z 
?Write_t@CSessionState@@QAEXPAVCTStream@@H@Z 
?Write_t@CShader@@UAEXPAVCTStream@@@Z 
?Write_t@CShadowMap@@QAEXPAVCTStream@@@Z 
?Write_t@CSkeleton@@UAEXPAVCTStream@@@Z 
?Write_t@CSoundData@@UAEXPAVCTStream@@@Z 
?Write_t@CSoundObject@@QAEXPAVCTStream@@H@Z 
?Write_t@CTFileStream@@UAEXPBXJ@Z 
?Write_t@CTMemoryStream@@UAEXPBXJ@Z 
?Write_t@CTerrain@@QAEXPAVCTStream@@@Z 
?Write_t@CTerrainArchive@@UAEXPAVCTStream@@@Z 
?Write_t@CTextureData@@UAEXPAVCTStream@@@Z 
?Write_t@CTextureObject@@QAEXPAVCTStream@@@Z 
?Write_t@CThumbnailSettings@@QAEXPAVCTStream@@@Z 
?Write_t@CWorld@@QAEXPAVCTStream@@@Z 
?Write_t@MappingSurface@@QAEXPAVCTStream@@@Z 
?Write_t@ModelMipInfo@@QAEXPAVCTStream@@@Z 
?Write_t@ModelPolygon@@QAEXPAVCTStream@@@Z 
?Write_t@ModelPolygonVertex@@QAEXPAVCTStream@@@Z 
?Write_t_ext@CWorld@@QAEXPAVCTStream@@0@Z 
?Write_t_old@CMesh@@QAEXPAVCTStream@@@Z 
?YesNoMessage@@YAHPBDZZ 
?Zoom@CUICharacterCreateNew@@QAEXW4eCreateBtnType@@@Z 
?ZoomFactorL@CIsometricProjection3D@@QAEAAMXZ 
?ZoomFactorR@CIsometricProjection3D@@QBEABMXZ 
?_CheckExistMsgBox@CUIExpressSystem@@IAEXXZ 
?_CreateMsgBox@CUIExpressSystem@@IAEXW4eMsgType@@@Z 
?_CurrentTickTimer@@3MA 
?_ExpressRender@CUIExpressSystem@@IAEXXZ 
?_FailReset@CUIExpressSystem@@IAEXXZ 
?_GetBtnMiddleSize@CUIExpressSystem@@IAEHVCTString@@H@Z 
?_GetSenderType@CUIExpressSystem@@IAE?AVCTString@@F@Z 
?_Get_container@?$queue@EV?$deque@EV?$allocator@E@std@@@std@@@std@@QBEABV?$deque@EV?$allocator@E@std@@@2@XZ 
?_P1PetAdd@PetStash@@IAEXPAUPetStashData@UpdateClient@@@Z 
?_P1PetDelete@PetStash@@IAEXPAUPetStashData@UpdateClient@@@Z 
?_P2PetAdd@PetStash@@IAEXPAUPetStashData@UpdateClient@@@Z 
?_Particle_bSkipClipping@@3HA 
?_PetErrorSystemMessage@PetStash@@IAEXH@Z 
?_PlaySound@CUIPetStashSelectEffect@@AAEXW4eSoundType@@@Z 
?_RenderString@CUITextBox@@IAEXPAVCDrawPort@@HH@Z 
?_ResetAni@CUIPetStashSelectEffect@@AAEXXZ 
?_ResetString@CUITextBox@@IAEXXZ 
?_SFunc@@YA?AVCTString@@H@Z 
?_SetBtnRect@CUIExpressSystem@@IAEXH@Z 
?_SetItemList@CUIExpressSystem@@IAE_NXZ 
?_SetItemListString@CUIExpressSystem@@IAE_NH_N@Z 
?_SetPage@CUIExpressSystem@@IAEXXZ 
?_StringSplit@CUITextBox@@IAEXXZ 
?_UIAutoHelp@@3PAVCUIAutoHelp@@A 
?_UISignBoard@@3PAVCUISignBoard@@A 
?_UpdateBoxSize@CUITextBox@@IAEXXZ 
?_UpdatePet@PetStash@@IAEXPAUPetStashData@UpdateClient@@@Z 
?_ategtTextureEffectGlobalPresets@@3PAUTextureEffectGlobalType@@A 
?_bAttributemap_DepthTest@@3HA 
?_bClientApp@@3HA 
?_bDedicatedServer@@3HA 
?_bInTestGame@@3HA 
?_bInvisibleOff@@3HA 
?_bLoginProcess@@3HA 
?_bSelectAlternative@@3HA 
?_bShowPolygonAttribute@@3HA 
?_bShowPortalPolygon@@3HA 
?_bSkaStudioApp@@3HA 
?_bTranslucentModel@@3HA 
?_bUseBloomInWorldEditor@@3HA 
?_bWindowChanging@@3HA 
?_bWorldEditorApp@@3HA 
?_calcProgressPercent@CUIProgressBar@@IAE?BMXZ 
?_cmiComm@@3VCCommunicationInterface@@A 
?_colViewerAmbient@@3KA 
?_colViewerLight@@3KA 
?_ctTextureEffectGlobalPresets@@3JA 
?_eeVoid@@3ABVCEntityEvent@@B 
?_fnmApplicationExe@@3VCTFileName@@A 
?_fnmApplicationPath@@3VCTFileName@@A 
?_fnmCDPath@@3VCTFileName@@A 
?_fnmMod@@3VCTFileName@@A 
?_hDlgWeb@@3PAUHWND__@@A 
?_hInstanceMain@@3PAUHINSTANCE__@@A 
?_hwndMain@@3PAUHWND__@@A 
?_iStatsMode@@3JA 
?_iTexForcedQuality@@3JA 
?_loadSymbolIntegerData@CInterfaceSymbol@@AAEXXZ 
?_mapdata@?$LodLoader@VCItemData@@@@2V?$map@HPAVCItemData@@U?$less@H@std@@V?$allocator@U?$pair@$$CBHPAVCItemData@@@std@@@3@@std@@A 
?_mapdata@?$LodLoader@VCMissionCase@@@@2V?$map@HPAVCMissionCase@@U?$less@H@std@@V?$allocator@U?$pair@$$CBHPAVCMissionCase@@@std@@@3@@std@@A 
?_mapdata@?$LodLoader@VCMobData@@@@2V?$map@HPAVCMobData@@U?$less@H@std@@V?$allocator@U?$pair@$$CBHPAVCMobData@@@std@@@3@@std@@A 
?_mapdata@?$LodLoader@VCMobHelp@@@@2V?$map@HPAVCMobHelp@@U?$less@H@std@@V?$allocator@U?$pair@$$CBHPAVCMobHelp@@@std@@@3@@std@@A 
?_mapdata@?$LodLoader@VCNpcHelp@@@@2V?$map@HPAVCNpcHelp@@U?$less@H@std@@V?$allocator@U?$pair@$$CBHPAVCNpcHelp@@@std@@@3@@std@@A 
?_mapdata@?$LodLoader@VCOptionData@@@@2V?$map@HPAVCOptionData@@U?$less@H@std@@V?$allocator@U?$pair@$$CBHPAVCOptionData@@@std@@@3@@std@@A 
?_mapdata@?$LodLoader@VCWildPetData@@@@2V?$map@HPAVCWildPetData@@U?$less@H@std@@V?$allocator@U?$pair@$$CBHPAVCWildPetData@@@std@@@3@@std@@A 
?_mapdata@?$LodLoader@VTitleStaticData@@@@2V?$map@HPAVTitleStaticData@@U?$less@H@std@@V?$allocator@U?$pair@$$CBHPAVTitleStaticData@@@std@@@3@@std@@A 
?_mrpModelRenderPrefs@@3VCModelRenderPrefs@@A 
?_nSize@?$LodLoader@VCItemData@@@@2HA 
?_nSize@?$LodLoader@VCMissionCase@@@@2HA 
?_nSize@?$LodLoader@VCMobData@@@@2HA 
?_nSize@?$LodLoader@VCMobHelp@@@@2HA 
?_nSize@?$LodLoader@VCNpcHelp@@@@2HA 
?_nSize@?$LodLoader@VCOptionData@@@@2HA 
?_nSize@?$LodLoader@VCWildPetData@@@@2HA 
?_nSize@?$LodLoader@VTitleStaticData@@@@2HA 
?_pAnimSetStock@@3PAVCStock_CAnimSet@@A 
?_pAnimStock@@3PAVCStock_CAnimData@@A 
?_pConsole@@3PAVCConsole@@A 
?_pEntityClassStock@@3PAVCStock_CEntityClass@@A 
?_pFontStock@@3PAVCStock_CFontData@@A 
?_pGameState@@3PAVCGameState@@A 
?_pGfx@@3PAVCGfxLibrary@@A 
?_pInput@@3PAVCInput@@A 
?_pMeshStock@@3PAVCStock_CMesh@@A 
?_pModelInstanceStock@@3PAVCStock_CModelInstance@@A 
?_pModelStock@@3PAVCStock_CModelData@@A 
?_pNetwork@@3PAVCNetworkLibrary@@A 
?_pShaderStock@@3PAVCStock_CShader@@A 
?_pShell@@3PAVCShell@@A 
?_pSkeletonStock@@3PAVCStock_CSkeleton@@A 
?_pSound@@3PAVCSoundLibrary@@A 
?_pSoundStock@@3PAVCStock_CSoundData@@A 
?_pTextureStock@@3PAVCStock_CTextureData@@A 
?_pTimer@@3PAVCTimer@@A 
?_pUIBuff@@3PAVCUIBuff@@A 
?_pUISWDoc@@3PAVCUISiegeWarfareDoc@@A 
?_pavpixSelectLasso@@3PAV?$CStaticStackArray@V?$Vector@J$01@@@@A 
?_pdpMain@@3PAVCDrawPort@@A 
?_pdpNormalMain@@3PAVCDrawPort@@A 
?_pdpWideScreenMain@@3PAVCDrawPort@@A 
?_pf1oCosTable@@3PBMB 
?_pf1oSinTable@@3PBMB 
?_pfCosTable@@3PBMB 
?_pfNetworkProfile@@3AAVCProfileForm@@A 
?_pfSinTable@@3PBMB 
?_pfWorldEditingProfile@@3AAVCProfileForm@@A 
?_pfdConsoleFont@@3PAVCFontData@@A 
?_pfdDefaultFont@@3PAVCFontData@@A 
?_pfdDisplayFont@@3PAVCFontData@@A 
?_pfdGameFont@@3PAVCFontData@@A 
?_piACosTable@@3PBJB 
?_piASinTable@@3PBJB 
?_pixDeltaAroundVertex@@3JA 
?_plOrigin@@3VCPlacement3D@@A 
?_precache_bNowPrecaching@@3JA 
?_pselbscVisTweaks@@3PAV?$CSelection@VCBrushSector@@$00@@A 
?_pselbvxtSelectOnRender@@3PAV?$CSelection@VCBrushVertex@@$01@@A 
?_pselenSelectOnRender@@3PAV?$CSelection@VCEntity@@$00@@A 
?_ptdFlat@@3PAVCTextureData@@A 
?_pubClipByte@@3PBEB 
?_pvpViewPortMain@@3PAVCViewPort@@A 
?_setTextureGap@CUIProgressBar@@IAEXXZ 
?_sfStats@@3VCStatForm@@A 
?_strDisplayDriver@@3VCTString@@A 
?_strDisplayDriverVersion@@3VCTString@@A 
?_strEngineBuild@@3VCTString@@A 
?_strLogFile@@3VCTString@@A 
?_strModExt@@3VCTString@@A 
?_strModName@@3VCTString@@A 
?_strModURL@@3VCTString@@A 
?_strSoundDriver@@3VCTString@@A 
?_strTotalMemory@@3VCTString@@A 
?_tcpip@@3VCTcpIpConnection@@A 
?_toSimpleModelShadow@@3VCTextureObject@@A 
?_tpGlobal@@3PAVCTexParams@@A 
?_ulEngineBuildMajor@@3KA 
?_ulEngineBuildMinor@@3KA 
?_vViewerLightDirection@@3V?$Vector@M$02@@A 
?_vecdata@?$LodLoader@VCItemData@@@@2V?$vector@PAVCItemData@@V?$allocator@PAVCItemData@@@std@@@std@@A 
?_vecdata@?$LodLoader@VCMissionCase@@@@2V?$vector@PAVCMissionCase@@V?$allocator@PAVCMissionCase@@@std@@@std@@A 
?_vecdata@?$LodLoader@VCMobData@@@@2V?$vector@PAVCMobData@@V?$allocator@PAVCMobData@@@std@@@std@@A 
?_vecdata@?$LodLoader@VCMobHelp@@@@2V?$vector@PAVCMobHelp@@V?$allocator@PAVCMobHelp@@@std@@@std@@A 
?_vecdata@?$LodLoader@VCNpcHelp@@@@2V?$vector@PAVCNpcHelp@@V?$allocator@PAVCNpcHelp@@@std@@@std@@A 
?_vecdata@?$LodLoader@VCOptionData@@@@2V?$vector@PAVCOptionData@@V?$allocator@PAVCOptionData@@@std@@@std@@A 
?_vecdata@?$LodLoader@VCWildPetData@@@@2V?$vector@PAVCWildPetData@@V?$allocator@PAVCWildPetData@@@std@@@std@@A 
?_vecdata@?$LodLoader@VTitleStaticData@@@@2V?$vector@PAVTitleStaticData@@V?$allocator@PAVTitleStaticData@@@std@@@std@@A 
?_vpixSelectNearPoint@@3V?$Vector@J$01@@A 
?_wrpWorldRenderPrefs@@3VCWorldRenderPrefs@@A 
?addChild@CUIBase@@QAE_NPAV1@@Z 
?addChild@UIFactory@@AAEXPAVCUIBase@@0@Z 
?addEventImage@CUIList@@QAEXU_UIRect@@UUIRectUV@@H@Z 
?addQueue@MsgBoxMgr@@QAEXPAVCommand@@@Z 
?addTabButton@CUITab@@QAEXPAVCUICheckButton@@@Z 
?addTabPage@CUITab@@QAEXPAVCUITabPage@@@Z 
?addTree@CUITree@@QAEXPAV1@_N@Z 
?addUI@CUITextEx@@QAEXPAVCUIBase@@@Z 
?attachCRC@CCommunicationInterface@@QAEXPAVCPacket@@@Z 
?back@?$queue@EV?$deque@EV?$allocator@E@std@@@std@@@std@@QAEAAEXZ 
?back@?$queue@EV?$deque@EV?$allocator@E@std@@@std@@@std@@QBEABEXZ 
?calcLogoAlphaLv@CUILoginNew@@AAEMHM_NM@Z 
?calcSource@CUIImageFont@@AAEXXZ 
?calcSplit@CUITextBoxEx@@AAEXAAV?$basic_string@DU?$char_traits@D@std@@V?$allocator@D@2@@std@@AAH1@Z 
?changeDragPos@CUIScrollBar@@QAEXH@Z 
?checkName@CUIManager@@QAEHVCTString@@H@Z 
?checkSpace@CUITextBoxEx@@AAE_NAAV?$basic_string@DU?$char_traits@D@std@@V?$allocator@D@2@@std@@HAAH@Z 
?checkWidth@CUITextBoxEx@@AAE_NAAV?$basic_string@DU?$char_traits@D@std@@V?$allocator@D@2@@std@@0HAAH@Z 
?clear@CDamageLogInfo@@UAEXXZ 
?clear@MyInfo@@QAEXXZ 
?clear@MyInfoSkill@@QAEXXZ 
?clear@Notice@@QAEXXZ 
?clear@ObjInfo@@QAEXXZ 
?clear@ServerInfo@@QAEXXZ 
?clearChildList@CUITree@@QAEXXZ 
?clearCustomItemInfo@CustomTitleData@@SAXXZ 
?clearIconData@CUIIcon@@QAEXXZ 
?cli_iCurrentFPS@@3JA 
?cloneItem@CUIIcon@@QAEXPAV1@@Z 
?cmd_iWindowLeft@@3JA 
?cmd_iWindowTop@@3JA 
?copyItem@CUIIcon@@QAEXPAV1@@Z 
?crc_aulCRCTable@@3PAKA 
?createArray@UIFactory@@AAEPAVCUIArray@@PAVTiXmlElement@@@Z 
?createArrayItem@UIFactory@@AAEPAVCUIArrayItem@@PAVTiXmlElement@@@Z 
?createBase@UIFactory@@AAEPAVCUIBase@@PAVTiXmlElement@@@Z 
?createButton@UIFactory@@AAEPAVCUIButton@@PAVTiXmlElement@@@Z 
?createCheck@UIFactory@@AAEPAVCUICheckButton@@PAVTiXmlElement@@@Z 
?createComboBox@UIFactory@@AAEPAVCUIComboBox@@PAVTiXmlElement@@@Z 
?createControl@CUITextBoxEx@@AAEXAAV?$basic_string@DU?$char_traits@D@std@@V?$allocator@D@2@@std@@PAVCUITextEx@@AAV?$vector@V?$basic_string@DU?$char_traits@D@std@@V?$allocator@D@2@@std@@V?$allocator@V?$basic_string@DU?$char_traits@D@std@@V?$allocator@D@2@@std@@@2@@3@0@Z 
?createEdit@UIFactory@@AAEPAVCUIEditBox@@PAVTiXmlElement@@@Z 
?createIcon@UIFactory@@AAEPAVCUIIcon@@PAVTiXmlElement@@@Z 
?createImage@UIFactory@@AAEPAVCUIImage@@PAVTiXmlElement@@@Z 
?createImageArray@UIFactory@@AAEPAVCUIImageArray@@PAVTiXmlElement@@@Z 
?createImageFont@UIFactory@@AAEPAVCUIImageFont@@PAVTiXmlElement@@@Z 
?createImageSprit@UIFactory@@AAEPAVCUIImageSplit@@PAVTiXmlElement@@@Z 
?createList@UIFactory@@AAEPAVCUIList@@PAVTiXmlElement@@@Z 
?createListItem@UIFactory@@AAEPAVCUIListItem@@PAVTiXmlElement@@@Z 
?createProgressBar@UIFactory@@AAEPAVCUIProgressBar@@PAVTiXmlElement@@@Z 
?createScroll@UIFactory@@AAEPAVCUIScrollBar@@PAVTiXmlElement@@@Z 
?createSlideBar@UIFactory@@AAEPAVCUISlideBar@@PAVTiXmlElement@@@Z 
?createSpinButton@UIFactory@@AAEPAVCUISpinButton@@PAVTiXmlElement@@@Z 
?createSpinControl@UIFactory@@AAEPAVCUISpinControl@@PAVTiXmlElement@@@Z 
?createSpriteAni@UIFactory@@AAEPAVCUISpriteAni@@PAVTiXmlElement@@@Z 
?createTab@UIFactory@@AAEPAVCUITab@@PAVTiXmlElement@@@Z 
?createTabPage@UIFactory@@AAEPAVCUITabPage@@PAVTiXmlElement@@@Z 
?createText@UIFactory@@AAEPAVCUIText@@PAVTiXmlElement@@@Z 
?createTextBox@UIFactory@@AAEPAVCUITextBox@@PAVTiXmlElement@@@Z 
?createTextBoxEx@UIFactory@@AAEPAVCUITextBoxEx@@PAVTiXmlElement@@@Z 
?createTree@UIFactory@@AAEPAVCUITree@@PAVTiXmlElement@@@Z 
?createTreeItem@UIFactory@@AAEPAVCUITreeItem@@PAVTiXmlElement@@@Z 
?createWindow@UIFactory@@AAEPAVCUIWindow@@PAVTiXmlElement@@@Z 
?dbg_bAtHome@@3JA 
?deleteChild@CUIBase@@QAE_NH@Z 
?deleteChild@CUIBase@@QAE_NPAV1@_N@Z 
?deleteChild@CUIBase@@QAE_NPBD@Z 
?deleteChildAll@CUIBase@@QAE_NXZ 
?deleteChildList@CUIArray@@UAEXXZ 
?deleteChildList@CUIBase@@UAEXXZ 
?deleteChildList@CUIList@@UAEXXZ 
?deleteChildList@CUITab@@UAEXXZ 
?deleteListItem@CUIList@@QAEXH@Z 
?destroy@?$CSingletonBase@VActorMgr@@@@SAXXZ 
?destroy@?$CSingletonBase@VCBackImageManager@@@@SAXXZ 
?destroy@?$CSingletonBase@VCInterfaceSymbol@@@@SAXXZ 
?destroy@?$CSingletonBase@VCInvenData@@@@SAXXZ 
?destroy@?$CSingletonBase@VCJobInfo@@@@SAXXZ 
?destroy@?$CSingletonBase@VCLoadingImage@@@@SAXXZ 
?destroy@?$CSingletonBase@VCLoginJobInfo@@@@SAXXZ 
?destroy@?$CSingletonBase@VCNoticeData@@@@SAXXZ 
?destroy@?$CSingletonBase@VCUIFocus@@@@SAXXZ 
?destroy@?$CSingletonBase@VCUIManager@@@@SAXXZ 
?destroy@?$CSingletonBase@VCUISkillToolTip@@@@SAXXZ 
?destroy@?$CSingletonBase@VCUISupport@@@@SAXXZ 
?destroy@?$CSingletonBase@VCUITooltipMgr@@@@SAXXZ 
?destroy@?$CSingletonBase@VCWebAddress@@@@SAXXZ 
?destroy@?$CSingletonBase@VCZoneInfo@@@@SAXXZ 
?destroy@?$CSingletonBase@VGameDataManager@@@@SAXXZ 
?destroy@?$CSingletonBase@VMsgBoxMgr@@@@SAXXZ 
?destroy@?$CSingletonBase@VMyInfo@@@@SAXXZ 
?destroy@?$CSingletonBase@VObjInfo@@@@SAXXZ 
?destroy@?$CSingletonBase@VServerInfo@@@@SAXXZ 
?destroy@?$CSingletonBase@VStageMgr@@@@SAXXZ 
?destroy@?$CSingletonBase@VStringLoader@@@@SAXXZ 
?destroy@?$CSingletonBase@VUIFactory@@@@SAXXZ 
?destroy@?$CSingletonBase@VUtilHelp@@@@SAXXZ 
?empty@?$queue@EV?$deque@EV?$allocator@E@std@@@std@@@std@@QBE_NXZ 
?eraseChild@CUIBase@@QAE_NPAV1@@Z 
?findUI@CUIBase@@QAEPAV1@PBD@Z 
?front@?$queue@EV?$deque@EV?$allocator@E@std@@@std@@@std@@QAEAAEXZ 
?front@?$queue@EV?$deque@EV?$allocator@E@std@@@std@@@std@@QBEABEXZ 
?g_bAutoLogin@@3HA 
?g_bAutoRestart@@3HA 
?g_bBadWeather@@3HA 
?g_bEntityEffectTestMode@@3HA 
?g_bFirstIntoWorld@@3HA 
?g_bIsMalEng@@3HA 
?g_bNasTrans@@3HA 
?g_bNoPlaySnd@@3HA 
?g_bRenderDecoration@@3JA 
?g_bSlaveNoTarget@@3JA 
?g_bSndTestMode@@3HA 
?g_bTestClient@@3JA 
?g_colWeather@@3KA 
?g_cvCameraShake@@3VCCameraValue@CCameraEffect@@A 
?g_dlls@@3VcDllManager@@A 
?g_fChaLODMul@@3MA 
?g_fEffectDistance@@3MA 
?g_fFramePerSecond@@3MA 
?g_fGWTime@@3MA 
?g_fGWTimeMul@@3MA 
?g_hSocket@@3IA 
?g_iAutoAttack@@3JA 
?g_iCountry@@3JA 
?g_iLocalVersion@@3HA 
?g_iReflectionDetail@@3JA 
?g_iShadowDetail@@3JA 
?g_iUseBloom@@3JA 
?g_mapEvent@@3V?$map@HHU?$less@H@std@@V?$allocator@U?$pair@$$CBHH@std@@@2@@std@@A 
?g_nmCID@@3VCTString@@A 
?g_nmID@@3VCTString@@A 
?g_nmPW@@3VCTString@@A 
?g_nmVER@@3VCTString@@A 
?g_slZone@@3JA 
?g_szExitError@@3PADA 
?g_tmWorld@@3VCTagManager@@A 
?g_web@@3VcWeb@@A 
?gam_iPrecachePolicy@@3JA 
?get@CWebAddress@@QAEPBDPBD@Z 
?getAdjust@CUISpinButton@@QAEHXZ 
?getAlignH@CUIBase@@QAE?AW4eALIGN_H@@XZ 
?getAlignTextH@CUICheckButton@@QAEHXZ 
?getAlignTextH@CUIText@@QAE?AW4eALIGN_H@@XZ 
?getAlignV@CUIBase@@QAE?AW4eALIGN_V@@XZ 
?getAngle@CUIImage@@QAEMXZ 
?getAutoComplete@CUIProgressBar@@QAEHXZ 
?getBackGround@CUIComboBox@@QAEXAAU_UIRect@@AAUUIRectUV@@@Z 
?getBackGround@CUIScrollBar@@QAEXAAU_UIRect@@AAUUIRectUV@@@Z 
?getBackGround@CUIText@@QAEXAAU_UIRect@@AAUUIRectUV@@@Z 
?getBackGround@CUITextBox@@QAEXAAU_UIRect@@AAUUIRectUV@@@Z 
?getBackGroundRect@CUIEditBox@@QAE?AU_UIRect@@XZ 
?getBackGroundUV@CUIEditBox@@QAE?AUUIRectUV@@XZ 
?getBackUV@CUISlideBar@@QAE?AUUIRectUV@@XZ 
?getBarHeight@CUISlideBar@@QAEHXZ 
?getBarPos@CUIScrollBar@@QAEXAAH0@Z 
?getBarStartPos@CUIProgressBar@@QAEXAAH0@Z 
?getBarUV@CUISlideBar@@QAE?AUUIRectUV@@XZ 
?getBarWidth@CUISlideBar@@QAEHXZ 
?getBaseInfo@UIFactory@@AAE?AU_UIRect@@PAVTiXmlElement@@@Z 
?getBaseValue@UIFactory@@AAE_NPAVCUIBase@@PAVTiXmlElement@@@Z 
?getBtnAutoInfo@CUISpinButton@@QAE_NXZ 
?getBtnEtcType@CUIIcon@@QAE?AW4eUIBTN_ETC_TYPE@@XZ 
?getBtnSize@CUIScrollBar@@QAEXAAH0@Z 
?getBtnType@CUIIcon@@QAE?AW4UIBtnExType@@XZ 
?getCandidateUV@CUIEditBox@@QAE?AUUIRectUV@@XZ 
?getCheck@CUITree@@QAEPAVCUICheckButton@@XZ 
?getCheckBtn@CUITab@@QAEPAVCUICheckButton@@H@Z 
?getChildAt@CUIBase@@QAEPAV1@H@Z 
?getChildCount@CUIBase@@QAEHXZ 
?getChildMaxHeight@CUITree@@QAEHXZ 
?getChildTree@CUITree@@QAEPAV1@H@Z 
?getChildTreeCount@CUITree@@QAEHXZ 
?getColProgressText@CUIProgressBar@@QAEKW4_tagProgressStatus@@@Z 
?getComboButton@CUIComboBox@@QAEXAAU_UIRect@@AAUUIRectUV@@1@Z 
?getControlIndex@CUIBase@@QAEHXZ 
?getCount@CUITree@@QAEHXZ 
?getCurSel@CUIList@@QAEHXZ 
?getCurSelTab@CUITab@@QAEHXZ 
?getCursorInGame@CUIManager@@QAE_NXZ 
?getData@?$LodLoader@VCItemData@@@@SAPAVCItemData@@H@Z 
?getData@?$LodLoader@VCMissionCase@@@@SAPAVCMissionCase@@H@Z 
?getData@?$LodLoader@VCMobData@@@@SAPAVCMobData@@H@Z 
?getData@?$LodLoader@VCMobHelp@@@@SAPAVCMobHelp@@H@Z 
?getData@?$LodLoader@VCNpcHelp@@@@SAPAVCNpcHelp@@H@Z 
?getData@?$LodLoader@VCOptionData@@@@SAPAVCOptionData@@H@Z 
?getData@?$LodLoader@VCWildPetData@@@@SAPAVCWildPetData@@H@Z 
?getData@?$LodLoader@VTitleStaticData@@@@SAPAVTitleStaticData@@H@Z 
?getDataBackWidth@CUISpinButton@@QAEHXZ 
?getDataSeq@?$LodLoader@VCItemData@@@@SAPAVCItemData@@H@Z 
?getDataSeq@?$LodLoader@VCMissionCase@@@@SAPAVCMissionCase@@H@Z 
?getDataSeq@?$LodLoader@VCMobData@@@@SAPAVCMobData@@H@Z 
?getDataSeq@?$LodLoader@VCMobHelp@@@@SAPAVCMobHelp@@H@Z 
?getDataSeq@?$LodLoader@VCNpcHelp@@@@SAPAVCNpcHelp@@H@Z 
?getDataSeq@?$LodLoader@VCOptionData@@@@SAPAVCOptionData@@H@Z 
?getDataSeq@?$LodLoader@VCWildPetData@@@@SAPAVCWildPetData@@H@Z 
?getDataSeq@?$LodLoader@VTitleStaticData@@@@SAPAVTitleStaticData@@H@Z 
?getDepth@CUIText@@QAEMXZ 
?getDropArea@CUIComboBox@@QAE?AU_UIRect@@XZ 
?getDropArea@CUIComboBox@@QAEXAAU_UIRect@@AAUUIRectUV@@AAH@Z 
?getEdge@CUICheckButton@@QAE_NXZ 
?getEdge@CUIText@@QAEHXZ 
?getEdgeSize@CUIScrollBar@@QAEHXZ 
?getEllipsisText@CUIText@@QAEPBDXZ 
?getExpressCount@ExpressSystem@@QAEHXZ 
?getExpressListAt@ExpressSystem@@QAEPAUExpressSystemItemInfo@@H@Z 
?getFontColor@CUIText@@QAEKXZ 
?getFontShadow@CUIText@@QAEKXZ 
?getFontSizeGap@CUIImageFont@@QAEXAAH00@Z 
?getID@CUIBase@@QAEPBDXZ 
?getIndex@CUIIcon@@QAEJXZ 
?getInfo@CUIIcon@@QAEXAAHAAC00@Z 
?getItemEtc@CUIIcon@@QAEPAUstItemEtc@@XZ 
?getItemSize@CUIScrollBar@@QAEMXZ 
?getItems@CUIIcon@@QAEPAVCItems@@XZ 
?getListItemCount@CUIList@@QAEHXZ 
?getLogoType@CInterfaceSymbol@@QAEHXZ 
?getMouseOverItem@CUIList@@QAEHXZ 
?getOrigString@CUIImageFont@@QAEPBDXZ 
?getOutputGap@CUIImageFont@@QAEHXZ 
?getPID@CUIBase@@QAEPBDXZ 
?getParent@CUIBase@@QAEPAV1@XZ 
?getParentoffset@CUITree@@IAEHXZ 
?getPreCreate@CUITree@@QAE_NXZ 
?getProgressText@CUIProgressBar@@QAEPADW4_tagProgressStatus@@@Z 
?getReadingWindowUV@CUIEditBox@@QAE?AUUIRectUV@@XZ 
?getRight@CUIScrollBar@@QAE_NXZ 
?getRoot@CUITree@@QAE_NXZ 
?getScrollBtn@CUIScrollBar@@QAEXHAAU_UIRect@@AAUUIRectUV@@1@Z 
?getSeq@CNetworkLibrary@@QAEIXZ 
?getShadow@CUIText@@QAE_NXZ 
?getShowLine@CUIComboBox@@QAEHXZ 
?getShowPercentText@CUIProgressBar@@QAEHW4_tagProgressStatus@@@Z 
?getShowTreeCount@CUITree@@IAEHXZ 
?getSingleton@?$CSingletonBase@VActorMgr@@@@SAPAVActorMgr@@XZ 
?getSingleton@?$CSingletonBase@VCBackImageManager@@@@SAPAVCBackImageManager@@XZ 
?getSingleton@?$CSingletonBase@VCInterfaceSymbol@@@@SAPAVCInterfaceSymbol@@XZ 
?getSingleton@?$CSingletonBase@VCInvenData@@@@SAPAVCInvenData@@XZ 
?getSingleton@?$CSingletonBase@VCJobInfo@@@@SAPAVCJobInfo@@XZ 
?getSingleton@?$CSingletonBase@VCLoadingImage@@@@SAPAVCLoadingImage@@XZ 
?getSingleton@?$CSingletonBase@VCLoginJobInfo@@@@SAPAVCLoginJobInfo@@XZ 
?getSingleton@?$CSingletonBase@VCNoticeData@@@@SAPAVCNoticeData@@XZ 
?getSingleton@?$CSingletonBase@VCUIFocus@@@@SAPAVCUIFocus@@XZ 
?getSingleton@?$CSingletonBase@VCUIManager@@@@SAPAVCUIManager@@XZ 
?getSingleton@?$CSingletonBase@VCUISkillToolTip@@@@SAPAVCUISkillToolTip@@XZ 
?getSingleton@?$CSingletonBase@VCUISupport@@@@SAPAVCUISupport@@XZ 
?getSingleton@?$CSingletonBase@VCUITooltipMgr@@@@SAPAVCUITooltipMgr@@XZ 
?getSingleton@?$CSingletonBase@VCWebAddress@@@@SAPAVCWebAddress@@XZ 
?getSingleton@?$CSingletonBase@VCZoneInfo@@@@SAPAVCZoneInfo@@XZ 
?getSingleton@?$CSingletonBase@VGameDataManager@@@@SAPAVGameDataManager@@XZ 
?getSingleton@?$CSingletonBase@VMsgBoxMgr@@@@SAPAVMsgBoxMgr@@XZ 
?getSingleton@?$CSingletonBase@VMyInfo@@@@SAPAVMyInfo@@XZ 
?getSingleton@?$CSingletonBase@VObjInfo@@@@SAPAVObjInfo@@XZ 
?getSingleton@?$CSingletonBase@VServerInfo@@@@SAPAVServerInfo@@XZ 
?getSingleton@?$CSingletonBase@VStageMgr@@@@SAPAVStageMgr@@XZ 
?getSingleton@?$CSingletonBase@VStringLoader@@@@SAPAVStringLoader@@XZ 
?getSingleton@?$CSingletonBase@VUIFactory@@@@SAPAVUIFactory@@XZ 
?getSingleton@?$CSingletonBase@VUtilHelp@@@@SAPAVUtilHelp@@XZ 
?getSourceImageUV@CUIImageFont@@QAE?AUUIRectUV@@XZ 
?getSpace@CUIComboBox@@QAEXAAH0@Z 
?getSpinButton@CUISpinButton@@QAEXAAH00@Z 
?getStep@CUIProgressBar@@QAEHXZ 
?getString@CUIImageFont@@QAEPBDXZ 
?getStringIdx@CUIButton@@QAEJXZ 
?getStringIdx@CUIProgressBar@@QAEJW4_tagProgressStatus@@@Z 
?getStringIdx@CUIText@@QAEJXZ 
?getStringIdx@CUITextBox@@QAEJXZ 
?getStringIndex@CUICheckButton@@QAEJXZ 
?getSumHeight@CUITree@@QAEHXZ 
?getTagID@CUITextBoxEx@@AAEXAAV?$basic_string@DU?$char_traits@D@std@@V?$allocator@D@2@@std@@0AAH1@Z 
?getTexHeight@CUIBase@@QAEJXZ 
?getTexString@CUIBase@@QAEPBDXZ 
?getTexWidth@CUIBase@@QAEJXZ 
?getText@CUIBase@@SAAAVCTString@@J@Z 
?getText@CUICheckButton@@QAEPBDXZ 
?getText@CUIText@@QAEPBDXZ 
?getTextArea@CUICheckButton@@QAEHXZ 
?getThumb@CUIScrollBar@@QAEXAAU_UIRect@@AAUUIRectUV@@AAH@Z 
?getThumbUV@CUIScrollBar@@QAE?AUUIRectUV@@H@Z 
?getThumbWidth@CUIScrollBar@@QAEHXZ 
?getTitleText@CUISpinButton@@QAEPBDXZ 
?getTooltip@CUIBase@@QAEPBDXZ 
?getTooltipWidth@CUIBase@@QAEHXZ 
?getTreeIndex@CUITree@@IAEHXZ 
?getTreeItemHeight@CUITree@@IAEHXZ 
?getType@CUIBase@@QAE?AW4eUI_CONTROL@@XZ 
?getUI@CUIFocus@@QAEPAVCUIBase@@XZ 
?getUIType@CUIIcon@@QAEHXZ 
?getUV@UIFactory@@AAE_NPAUUIRectUV@@PAVTiXmlElement@@@Z 
?getUVBack@CUIProgressBar@@QAE?AUUIRectUV@@XZ 
?getUVBar@CUIProgressBar@@QAE?AUUIRectUV@@XZ 
?getUVDataBack@CUISpinButton@@QAE?AUUIRectUV@@XZ 
?getUVN@UIFactory@@AAE_NHPAUUIRectUV@@PAVTiXmlElement@@@Z 
?getUncollapse@CUITree@@QAEHXZ 
?getValue@CUITextBoxEx@@AAE_NAAV?$basic_string@DU?$char_traits@D@std@@V?$allocator@D@2@@std@@0AAV?$vector@V?$basic_string@DU?$char_traits@D@std@@V?$allocator@D@2@@std@@V?$allocator@V?$basic_string@DU?$char_traits@D@std@@V?$allocator@D@2@@std@@@2@@3@0@Z 
?getVersion@CUILoginNew@@QAEPBDXZ 
?getVertical@CUIScrollBar@@QAEHXZ 
?getWheelRect@CUISpinButton@@QAE?AU_UIRect@@XZ 
?getlineHeight@CUIComboBox@@QAEHXZ 
?getmapPtr@?$LodLoader@VCItemData@@@@SAPAV?$map@HPAVCItemData@@U?$less@H@std@@V?$allocator@U?$pair@$$CBHPAVCItemData@@@std@@@3@@std@@XZ 
?getmapPtr@?$LodLoader@VCMissionCase@@@@SAPAV?$map@HPAVCMissionCase@@U?$less@H@std@@V?$allocator@U?$pair@$$CBHPAVCMissionCase@@@std@@@3@@std@@XZ 
?getmapPtr@?$LodLoader@VCMobData@@@@SAPAV?$map@HPAVCMobData@@U?$less@H@std@@V?$allocator@U?$pair@$$CBHPAVCMobData@@@std@@@3@@std@@XZ 
?getmapPtr@?$LodLoader@VCMobHelp@@@@SAPAV?$map@HPAVCMobHelp@@U?$less@H@std@@V?$allocator@U?$pair@$$CBHPAVCMobHelp@@@std@@@3@@std@@XZ 
?getmapPtr@?$LodLoader@VCNpcHelp@@@@SAPAV?$map@HPAVCNpcHelp@@U?$less@H@std@@V?$allocator@U?$pair@$$CBHPAVCNpcHelp@@@std@@@3@@std@@XZ 
?getmapPtr@?$LodLoader@VCOptionData@@@@SAPAV?$map@HPAVCOptionData@@U?$less@H@std@@V?$allocator@U?$pair@$$CBHPAVCOptionData@@@std@@@3@@std@@XZ 
?getmapPtr@?$LodLoader@VCWildPetData@@@@SAPAV?$map@HPAVCWildPetData@@U?$less@H@std@@V?$allocator@U?$pair@$$CBHPAVCWildPetData@@@std@@@3@@std@@XZ 
?getmapPtr@?$LodLoader@VTitleStaticData@@@@SAPAV?$map@HPAVTitleStaticData@@U?$less@H@std@@V?$allocator@U?$pair@$$CBHPAVTitleStaticData@@@std@@@3@@std@@XZ 
?getsize@?$LodLoader@VCItemData@@@@SAHXZ 
?getsize@?$LodLoader@VCMissionCase@@@@SAHXZ 
?getsize@?$LodLoader@VCMobData@@@@SAHXZ 
?getsize@?$LodLoader@VCMobHelp@@@@SAHXZ 
?getsize@?$LodLoader@VCNpcHelp@@@@SAHXZ 
?getsize@?$LodLoader@VCOptionData@@@@SAHXZ 
?getsize@?$LodLoader@VCWildPetData@@@@SAHXZ 
?getsize@?$LodLoader@VTitleStaticData@@@@SAHXZ 
?gfxSetBlendType@@YAXW4PredefinedBlendType@@@Z 
?hasTooltip@CUIBase@@QAE_NXZ 
?htonll3@CNetworkMessage@@QAE_J_J@Z 
?idPlayerWhole_Animation@@3PAJA 
?init@ActorMgr@@QAEXXZ 
?initCahrInfo@CUICharacterInfo@@QAEXXZ 
?initCommunity@CUICharacterInfo@@QAEXXZ 
?initSecondTab@CUICharacterInfo@@QAEXXZ 
?initSyndiMark@ActorMgr@@QAEXXZ 
?initSyndicateInfo@CUICharacterInfo@@QAEXXZ 
?initThirdTab@CUICharacterInfo@@QAEXXZ 
?initialize@CLoadingImage@@UAEXXZ 
?initialize@CUIAutoHelp@@QAEXXZ 
?initialize@CUIBase@@UAEXXZ 
?initialize@CUICharacterCreateNew@@UAEXXZ 
?initialize@CUICharacterInfo@@UAEXXZ 
?initialize@CUIComboBox@@MAEXXZ 
?initialize@CUIEditBox@@UAEXXZ 
?initialize@CUIIcon@@UAEXXZ 
?initialize@CUIImageArray@@UAEXXZ 
?initialize@CUIImageText@@UAEXXZ 
?initialize@CUILoginNew@@UAEXXZ 
?initialize@CUIPetStashSelectEffect@@UAEXXZ 
?initialize@CUIProgressBar@@MAEXXZ 
?initialize@CUIScrollBar@@UAEXXZ 
?initialize@CUISpinButton@@MAEXXZ 
?initialize@CUISpinControl@@UAEXXZ 
?initialize@CUISpriteAni@@UAEXXZ 
?initialize@CUITab@@UAEXXZ 
?initialize@CUITextBox@@UAEXXZ 
?initialize@CWebAddress@@QAEXXZ 
?initializeCenterUI@CUICharacterCreateNew@@AAEXXZ 
?initializeLeftUI@CUICharacterCreateNew@@AAEXXZ 
?initializeRightUI@CUICharacterCreateNew@@AAEXXZ 
?insertBtn@CUITextBoxEx@@AAEXPAVCUITextEx@@AAV?$vector@V?$basic_string@DU?$char_traits@D@std@@V?$allocator@D@2@@std@@V?$allocator@V?$basic_string@DU?$char_traits@D@std@@V?$allocator@D@2@@std@@@2@@std@@AAV?$basic_string@DU?$char_traits@D@std@@V?$allocator@D@2@@4@@Z 
?insertChild@CUIBase@@QAE_NPAV1@H@Z 
?insertText@CUITextBoxEx@@AAEXPAVCUITextEx@@AAV?$vector@V?$basic_string@DU?$char_traits@D@std@@V?$allocator@D@2@@std@@V?$allocator@V?$basic_string@DU?$char_traits@D@std@@V?$allocator@D@2@@std@@@2@@std@@AAV?$basic_string@DU?$char_traits@D@std@@V?$allocator@D@2@@4@@Z 
?isCreateVisible@CUIManager@@QAE_NW4UI_TYPE@@@Z 
?isCreated@?$CSingletonBase@VCUIManager@@@@SA_NXZ 
?isRaidMessage@Quest@@QAE_NABH@Z 
?isRef@CUIIcon@@QAE_NXZ 
?is_png@CTStream@@QAE_NXZ 
?loadAction@CWorld@@AAEXXZ 
?loadAffinity@CWorld@@AAEXXZ 
?loadArmorPreview@CWorld@@AAEXXZ 
?loadBigpet@CWorld@@AAEXXZ 
?loadCatalog@CWorld@@AAEXXZ 
?loadChangeEquipment@CWorld@@AAEXXZ 
?loadCombo@CWorld@@AAEXXZ 
?loadEntity@CWorld@@AAEXXZ 
?loadEvent@CWorld@@AAEXXZ 
?loadEx@CLevelUpGuide@@SA_NPBD@Z 
?loadEx@CMissionCase@@SA_NPBD@Z 
?loadEx@CMobData@@SA_NPBD@Z 
?loadEx@CMobHelp@@SA_NPBD@Z 
?loadEx@CNpcHelp@@SA_NPBD@Z 
?loadEx@COptionData@@SA_NPBD@Z 
?loadEx@CWildPetData@@SA_NPBD@Z 
?loadEx@TitleStaticData@@SA_NPBD@Z 
?loadItemData@CWorld@@AAEXXZ 
?loadItemEx@CItemData@@SA_NPBD@Z 
?loadLacarette@CWorld@@AAEXXZ 
?loadLevelUpGuide@CWorld@@AAEXXZ 
?loadLod_file@?$LodLoader@VCItemData@@@@SA_NPBD@Z 
?loadLod_file@?$LodLoader@VCMissionCase@@@@SA_NPBD@Z 
?loadLod_file@?$LodLoader@VCMobData@@@@SA_NPBD@Z 
?loadLod_file@?$LodLoader@VCMobHelp@@@@SA_NPBD@Z 
?loadLod_file@?$LodLoader@VCNpcHelp@@@@SA_NPBD@Z 
?loadLod_file@?$LodLoader@VCOptionData@@@@SA_NPBD@Z 
?loadLod_file@?$LodLoader@VCWildPetData@@@@SA_NPBD@Z 
?loadLod_file@?$LodLoader@VTitleStaticData@@@@SA_NPBD@Z 
?loadMakeItem@CWorld@@AAEXXZ 
?loadMob@CWorld@@AAEXXZ 
?loadNPCHelp@CWorld@@AAEXXZ 
?loadNotice@CWorld@@AAEXXZ 
?loadOption@CWorld@@AAEXXZ 
?loadQuest@CWorld@@AAEXXZ 
?loadRareOption@CWorld@@AAEXXZ 
?loadSSkill@CWorld@@AAEXXZ 
?loadSetItemData@CWorld@@AAEXXZ 
?loadShop@CWorld@@AAEXXZ 
?loadSkill@CWorld@@AAEXXZ 
?loadSkillTree@CWorld@@AAEXXZ 
?loadTEventString@CWorld@@AAEXXZ 
?loadTitleData@CWorld@@AAEXXZ 
?loadTradeItem@CWorld@@QAEXXZ 
?loadXML@UIFactory@@QAE_NPAVCUIBase@@PBD@Z 
?loadZone@CWorld@@AAEXXZ 
?loadZoneData@CWorld@@AAEXXZ 
?m_dummy@?$LodLoader@VCItemData@@@@2PAVCItemData@@A 
?m_dummy@?$LodLoader@VCMissionCase@@@@2PAVCMissionCase@@A 
?m_dummy@?$LodLoader@VCMobData@@@@2PAVCMobData@@A 
?m_dummy@?$LodLoader@VCMobHelp@@@@2PAVCMobHelp@@A 
?m_dummy@?$LodLoader@VCNpcHelp@@@@2PAVCNpcHelp@@A 
?m_dummy@?$LodLoader@VCOptionData@@@@2PAVCOptionData@@A 
?m_dummy@?$LodLoader@VCWildPetData@@@@2PAVCWildPetData@@A 
?m_dummy@?$LodLoader@VTitleStaticData@@@@2PAVTitleStaticData@@A 
?m_iAxisRefCount@CTag@@1JA 
?m_instance@CEffectGroupManager@@1V1@A 
?m_instance@CEffectManager@@1V1@A 
?m_instance@CParticleGroupManager@@1V1@A 
?m_instance@CPetInfo@@1V1@A 
?m_instance@CQuestSystem@@1V1@A 
?m_instance@CRandomTable@@1V1@A 
?m_instance@CSlaveInfo@@1V1@A 
?m_instance@CTransformInfo@@1V1@A 
?m_mapCustomTitleItemInfo@CustomTitleData@@2V?$map@HPAUTitleSystemMakeInfo@@U?$less@H@std@@V?$allocator@U?$pair@$$CBHPAUTitleSystemMakeInfo@@@std@@@3@@std@@A 
?m_pInstance@?$CSingletonBase@VActorMgr@@@@0PAVActorMgr@@A 
?m_pInstance@?$CSingletonBase@VCBackImageManager@@@@0PAVCBackImageManager@@A 
?m_pInstance@?$CSingletonBase@VCInterfaceSymbol@@@@0PAVCInterfaceSymbol@@A 
?m_pInstance@?$CSingletonBase@VCInvenData@@@@0PAVCInvenData@@A 
?m_pInstance@?$CSingletonBase@VCJobInfo@@@@0PAVCJobInfo@@A 
?m_pInstance@?$CSingletonBase@VCLoadingImage@@@@0PAVCLoadingImage@@A 
?m_pInstance@?$CSingletonBase@VCLoginJobInfo@@@@0PAVCLoginJobInfo@@A 
?m_pInstance@?$CSingletonBase@VCNoticeData@@@@0PAVCNoticeData@@A 
?m_pInstance@?$CSingletonBase@VCUIFocus@@@@0PAVCUIFocus@@A 
?m_pInstance@?$CSingletonBase@VCUIManager@@@@0PAVCUIManager@@A 
?m_pInstance@?$CSingletonBase@VCUISkillToolTip@@@@0PAVCUISkillToolTip@@A 
?m_pInstance@?$CSingletonBase@VCUISupport@@@@0PAVCUISupport@@A 
?m_pInstance@?$CSingletonBase@VCUITooltipMgr@@@@0PAVCUITooltipMgr@@A 
?m_pInstance@?$CSingletonBase@VCWebAddress@@@@0PAVCWebAddress@@A 
?m_pInstance@?$CSingletonBase@VCZoneInfo@@@@0PAVCZoneInfo@@A 
?m_pInstance@?$CSingletonBase@VGameDataManager@@@@0PAVGameDataManager@@A 
?m_pInstance@?$CSingletonBase@VMsgBoxMgr@@@@0PAVMsgBoxMgr@@A 
?m_pInstance@?$CSingletonBase@VMyInfo@@@@0PAVMyInfo@@A 
?m_pInstance@?$CSingletonBase@VObjInfo@@@@0PAVObjInfo@@A 
?m_pInstance@?$CSingletonBase@VServerInfo@@@@0PAVServerInfo@@A 
?m_pInstance@?$CSingletonBase@VStageMgr@@@@0PAVStageMgr@@A 
?m_pInstance@?$CSingletonBase@VStringLoader@@@@0PAVStringLoader@@A 
?m_pInstance@?$CSingletonBase@VUIFactory@@@@0PAVUIFactory@@A 
?m_pInstance@?$CSingletonBase@VUtilHelp@@@@0PAVUtilHelp@@A 
?m_pTerrain@CLightEffect@@1PAVCTerrain@@A 
?m_pTerrain@CTerrainEffect@@1PAVCTerrain@@A 
?m_pWorld@CLightEffect@@1PAVCWorld@@A 
?m_ptdLightMap@CLightEffect@@1PAVCTextureData@@A 
?m_szNPCQuestMark@CStatusEffect@@1PAPBDA 
?m_szStatusEffectName@CStatusEffect@@1PAY02PBDA 
?m_uiAllCount@CParticles@@1IA 
?m_ulPixelProgramNoTex@CShockWaveEffect@@1KA 
?m_ulPixelProgramNoTex@CSplineBillboardEffect@@1KA 
?m_ulPixelProgramNoTex@CTraceEffect@@1KA 
?m_ulPixelProgramTex@CShockWaveEffect@@1KA 
?m_ulPixelProgramTex@CSplineBillboardEffect@@1KA 
?m_ulPixelProgramTex@CTraceEffect@@1KA 
?m_ulVertexProgramNoTex@CShockWaveEffect@@1KA 
?m_ulVertexProgramNoTex@CSplineBillboardEffect@@1KA 
?m_ulVertexProgramNoTex@CTraceEffect@@1KA 
?m_ulVertexProgramTex@CShockWaveEffect@@1KA 
?m_ulVertexProgramTex@CSplineBillboardEffect@@1KA 
?m_ulVertexProgramTex@CTraceEffect@@1KA 
?m_vecBackColor@CustomTitleData@@2V?$vector@IV?$allocator@I@std@@@std@@A 
?m_vecCustomTitleEffect@CustomTitleData@@2V?$vector@V?$basic_string@DU?$char_traits@D@std@@V?$allocator@D@2@@std@@V?$allocator@V?$basic_string@DU?$char_traits@D@std@@V?$allocator@D@2@@std@@@2@@std@@A 
?m_vecFrontColor@CustomTitleData@@2V?$vector@IV?$allocator@I@std@@@std@@A 
?net_bLocalPrediction@@3JA 
?ntohll3@CNetworkMessage@@QAE_J_J@Z 
?nullStr@?1??GetString@CUIManager@@QAEAAVCTString@@J@Z@4V3@A 
?onUpdateScroll@CUITree@@IAEXXZ 
?onUpdateTree@CUITree@@IAEXPAVCUIScrollBar@@@Z 
?parseSyntax@CUITextBoxEx@@AAE?AV?$basic_string@DU?$char_traits@D@std@@V?$allocator@D@2@@std@@AAV23@0@Z 
?pctlCurrent@@3UPlayerControls@@A 
?pkPenaltyReformRewardReq@CNetworkLibrary@@QAEXJ@Z 
?pop@?$queue@EV?$deque@EV?$allocator@E@std@@@std@@@std@@QAEXXZ 
?postInit@CUIBase@@UAEXXZ 
?push@?$queue@EV?$deque@EV?$allocator@E@std@@@std@@@std@@QAEX$$QAE@Z 
?push@?$queue@EV?$deque@EV?$allocator@E@std@@@std@@@std@@QAEXABE@Z 
?recvExMonsterCombo@CSessionState@@AAEXPAVCNetworkMessage@@@Z 
?recvExRestart@CSessionState@@AAEXPAVCNetworkMessage@@@Z 
?reg_packet@CSessionState@@AAEXXZ 
?reg_packet_comm@CSessionState@@AAEXXZ 
?reg_packet_info@CSessionState@@AAEXXZ 
?regist@CWebAddress@@AAE_NPBD0@Z 
?release@?$LodLoader@VCItemData@@@@SAXXZ 
?release@?$LodLoader@VCMissionCase@@@@SAXXZ 
?release@?$LodLoader@VCMobData@@@@SAXXZ 
?release@?$LodLoader@VCMobHelp@@@@SAXXZ 
?release@?$LodLoader@VCNpcHelp@@@@SAXXZ 
?release@?$LodLoader@VCOptionData@@@@SAXXZ 
?release@?$LodLoader@VCWildPetData@@@@SAXXZ 
?release@?$LodLoader@VTitleStaticData@@@@SAXXZ 
?release@ActorMgr@@QAEXXZ 
?renderCooltime@CUIIcon@@IAEXHHPAVCDrawPort@@@Z 
?renderDefault@CUIIcon@@IAEXHHPAVCDrawPort@@KMK@Z 
?resetSeq@CNetworkLibrary@@QAEXXZ 
?s_CandList@CUIEditBox@@1UCCandList@@A 
?s_FocusingEditBox@CUIEditBox@@1PAV1@A 
?s_PrevFocus@CUIEditBox@@1PAV1@A 
?s_bShowReadingWindow@CUIEditBox@@1HA 
?s_nReadingStringLength@CUIEditBox@@1HA 
?s_nRefCount@CUIEditBox@@1HA 
?s_nRefCount@CUIMultiEditBox@@1HA 
?s_szReadingString@CUIEditBox@@1PADA 
?sam_bFullScreenActive@@3JA 
?sam_bWideScreen@@3JA 
?sam_iDisplayAdapter@@3JA 
?sam_iDisplayDepth@@3JA 
?sam_iGfxAPI@@3JA 
?sam_iScreenSizeI@@3JA 
?sam_iScreenSizeJ@@3JA 
?sendIP@CUILoginNew@@AAEXXZ 
?setAction@CUIIcon@@AAEXH@Z 
?setAddCheck@CUITree@@QAEX_N@Z 
?setAffinity@CUIIcon@@QAEXH@Z 
?setAffinity@CUIIcon@@QAEXW4eUIBTN_ETC_TYPE@@HHH@Z 
?setAffinityM@CUIIcon@@QAEXHHCHH@Z 
?setAlignH@CUIBase@@QAEXW4eALIGN_H@@@Z 
?setAlignTextH@CUICheckButton@@QAEXW4eALIGN_H@@@Z 
?setAlignTextH@CUIComboBox@@QAEXH@Z 
?setAlignTextH@CUIText@@QAEXW4eALIGN_H@@@Z 
?setAlignV@CUIBase@@QAEXW4eALIGN_V@@@Z 
?setAngle@CUIImage@@QAEXM@Z 
?setBackGround@CUIComboBox@@QAEXU_UIRect@@UUIRectUV@@@Z 
?setBackGround@CUIEditBox@@QAEXU_UIRect@@UUIRectUV@@@Z 
?setBackGround@CUIScrollBar@@QAEXU_UIRect@@UUIRectUV@@@Z 
?setBackGround@CUIText@@QAEXPAVCUIRectSurface@@@Z 
?setBackGround@CUIText@@QAEXU_UIRect@@UUIRectUV@@@Z 
?setBackGround@CUITextBox@@QAEXU_UIRect@@UUIRectUV@@@Z 
?setBackGroundRect@CUIEditBox@@QAEXU_UIRect@@@Z 
?setBackGroundUV@CUIEditBox@@QAEXUUIRectUV@@@Z 
?setBar@CUISlideBar@@QAEXHH@Z 
?setBarPos@CUIScrollBar@@QAEXHH@Z 
?setBarStartPos@CUIProgressBar@@QAEXHH@Z 
?setBaseRect@CUIComboBox@@QAEXU_UIRect@@@Z 
?setBaseUV@CUIComboBox@@QAEXUUIRectUV@@@Z 
?setBtnAutoInfo@CUISpinButton@@QAEX_N@Z 
?setBtnSize@CUIScrollBar@@QAEXHH@Z 
?setButton@CUIScrollBar@@QAEXHU_UIRect@@UUIRectUV@@1@Z 
?setCash@CUIIcon@@QAEXH@Z 
?setCheck@CUITree@@QAEXPAVCUICheckButton@@@Z 
?setComboBtnRect@CUIComboBox@@QAEXU_UIRect@@@Z 
?setComboBtnUV0@CUIComboBox@@QAEXUUIRectUV@@@Z 
?setComboBtnUV1@CUIComboBox@@QAEXUUIRectUV@@@Z 
?setComboButton@CUIComboBox@@QAEXU_UIRect@@UUIRectUV@@1@Z 
?setControlIndex@CUIBase@@QAEXH@Z 
?setCooltime@CUIIcon@@QAEX_N@Z 
?setCount@CUIIcon@@QAEX_J@Z 
?setCount@CUITree@@QAEXH@Z 
?setCurSel@CUIList@@QAEXH@Z 
?setData@CUIIcon@@QAEXPAVCItems@@_N@Z 
?setData@CUIIcon@@QAEXW4UIBtnExType@@HH@Z 
?setDataBackWidth@CUISpinButton@@QAEXH@Z 
?setDataEtc@CUIIcon@@QAEXW4eUIBTN_ETC_TYPE@@H_J@Z 
?setDepth@CUIText@@QAEXM@Z 
?setDropBG@CUIComboBox@@QAEXU_UIRect@@UUIRectUV@@H@Z 
?setEdge@CUICheckButton@@QAEX_N@Z 
?setEdge@CUIText@@QAEXH@Z 
?setEdgeSize@CUIScrollBar@@QAEXH@Z 
?setFontColor@CUIText@@QAEXK@Z 
?setFontShadow@CUIText@@QAEXKH@Z 
?setFontSizeGap@CUIImageFont@@QAEXHHH@Z 
?setID@CUIBase@@QAEXPBD@Z 
?setIPString@CUIManager@@QAEXPBD@Z 
?setIconUV@CUIIcon@@IAEXHH@Z 
?setImage@CUIIcon@@QAEXW4eIMG_TYPE@@_N@Z 
?setImageHide@CUIIcon@@QAEXW4eIMG_TYPE@@H@Z 
?setInfo@CUIIcon@@QAEXW4UIBtnExType@@CHH@Z 
?setInherit@CUIBase@@QAEX_N@Z 
?setInputCallback@CUIEditBox@@QAEXPAVCommand@@@Z 
?setItem@CUIIcon@@AAEXHH@Z 
?setItemInfo@CSessionState@@AAEXHPAUitemInfo@UpdateClient@@@Z 
?setItemSize@CUIScrollBar@@QAEXM@Z 
?setLineHeight@CUIComboBox@@QAEXH@Z 
?setLogoType@CInterfaceSymbol@@QAEXH@Z 
?setMCombo@CUIIcon@@AAEXH@Z 
?setMaxLine@CUIComboBox@@QAEXH@Z 
?setMouseOverItem@CUIList@@QAEXH@Z 
?setNewItemEffect@CSessionState@@AAEXHHH@Z 
?setOrigString@CUIImageFont@@QAEXPBD@Z 
?setOutputGap@CUIImageFont@@QAEXH@Z 
?setPBT@CUIImage@@QAEXH@Z 
?setPID@CUIBase@@QAEXPBD@Z 
?setParent@CUIBase@@QAEXPAV1@@Z 
?setPointAttr@CUIIcon@@QAEXPAVCUIBase@@@Z 
?setPointImage@CUIIcon@@QAEXW4eIMG_TYPE@@PAVCUIImage@@@Z 
?setPointJewel@CUIIcon@@QAEXPAVCUIBase@@@Z 
?setPointPlus@CUIIcon@@QAEXPAVCUIText@@@Z 
?setPointStack@CUIIcon@@QAEXPAVCUIImageFont@@@Z 
?setPointStackError@CUIIcon@@QAEXPAVCUIBase@@@Z 
?setPointToggle@CUIIcon@@QAEXPAVCUISpriteAni@@@Z 
?setPreCreate@CUITree@@QAEX_N@Z 
?setProgressText@CUIProgressBar@@QAEXW4_tagProgressStatus@@AAVCTString@@HK@Z 
?setProgressTextColor@CUIProgressBar@@QAEXW4_tagProgressStatus@@K@Z 
?setQuest@CUIIcon@@AAEXH@Z 
?setRight@CUIScrollBar@@QAEX_N@Z 
?setRoot@CUITree@@QAEXXZ 
?setScroll@CUIComboBox@@QAEXPAVCUIScrollBar@@@Z 
?setScroll@CUIList@@QAEXPAVCUIScrollBar@@@Z 
?setScroll@CUITree@@QAEXPAVCUIScrollBar@@@Z 
?setShow@CUITree@@QAEXH@Z 
?setShowLine@CUIComboBox@@QAEXH@Z 
?setSize@CNetworkMessage@@QAEXH@Z 
?setSkill@CUIIcon@@QAEXH_N0@Z 
?setSourceImage@CUIImageFont@@QAEXUUIRectUV@@@Z 
?setSpace@CUIComboBox@@QAEXHH@Z 
?setSpinButton@CUISpinButton@@QAEXHHH@Z 
?setStack@CUIIcon@@QAEXXZ 
?setString@CUIImageFont@@QAEXPBD@Z 
?setStringIdx@CUIButton@@QAEXH@Z 
?setStringIdx@CUIProgressBar@@QAEXW4_tagProgressStatus@@J@Z 
?setStringIdx@CUIText@@QAEXJ@Z 
?setStringIdx@CUITextBox@@QAEXJ@Z 
?setStringIndex@CUICheckButton@@QAEXJ@Z 
?setTexData@CUIImage@@QAEXPAVCTextureData@@@Z 
?setTexString@CUIBase@@UAEXPBD@Z 
?setTextArea@CUICheckButton@@QAEXH@Z 
?setThumb@CUIScrollBar@@QAEXU_UIRect@@UUIRectUV@@H@Z 
?setThumbUV@CUIScrollBar@@QAEXHUUIRectUV@@@Z 
?setTooltip@CUIBase@@QAEXPBD@Z 
?setTooltipWidth@CUIBase@@QAEXH@Z 
?setType@CUIBase@@QAEXW4eUI_CONTROL@@@Z 
?setUI@CUIFocus@@QAEXPAVCUIBase@@@Z 
?setUIType@CUIIcon@@QAEXH@Z 
?setUVBack@CUIProgressBar@@QAEXUUIRectUV@@@Z 
?setUVBar@CUIProgressBar@@QAEXUUIRectUV@@@Z 
?setUVDataBack@CUISpinButton@@QAEXUUIRectUV@@@Z 
?setUncollapse@CUITree@@QAEXH@Z 
?setVersion@CUILoginNew@@QAEXPBD@Z 
?setVertical@CUIScrollBar@@QAEXH@Z 
?setVerticality@CUIText@@QAEXH@Z 
?setWearCostItemInfo@CSessionState@@AAEXPAUitemInfo@UpdateClient@@@Z 
?setWearItemInfo@CSessionState@@AAEXPAUitemInfo@UpdateClient@@@Z 
?setWearTab@CUIIcon@@QAEX_N@Z 
?shaAttenuateAlphaForFogAndHaze@@YAXXZ 
?shaAttenuateColorForFogAndHaze@@YAXXZ 
?shaBlendFunc@@YAXW4GfxBlend@@0@Z 
?shaCalculateLight@@YAXXZ 
?shaCalculateLightForSpecular@@YAXXZ 
?shaClean@@YAXXZ 
?shaClearTextureMatrix@@YAXJ@Z 
?shaCullFace@@YAXW4GfxFace@@@Z 
?shaDepthFunc@@YAXW4GfxComp@@@Z 
?shaDisableAlphaTest@@YAXXZ 
?shaDisableBlend@@YAXXZ 
?shaDisableDepthTest@@YAXXZ 
?shaDisableDepthWrite@@YAXXZ 
?shaDisableInverted@@YAXXZ 
?shaDisableOverBrightning@@YAXXZ 
?shaDisablePixelProgram@@YAXXZ 
?shaDisableTexture@@YAXJ@Z 
?shaDisableVertexBuffers@@YAXXZ 
?shaDisableVertexProgram@@YAXXZ 
?shaDoFogAndHazePass@@YAXXZ 
?shaEnableAlphaTest@@YAXXZ 
?shaEnableBlend@@YAXXZ 
?shaEnableDepthTest@@YAXXZ 
?shaEnableDepthWrite@@YAXXZ 
?shaEnableInverted@@YAXXZ 
?shaEnableOverBrightning@@YAXXZ 
?shaEnablePixelProgram@@YAXXZ 
?shaEnableVertexBuffers@@YAXXZ 
?shaEnableVertexProgram@@YAXXZ 
?shaFillColorBuffer@@YAXK@Z 
?shaGetAmbientColor@@YAKXZ 
?shaGetColor@@YAKJ@Z 
?shaGetColorArray@@YAPAUGFXColor@@XZ 
?shaGetCurrentColor@@YAKXZ 
?shaGetFirstVertex@@YAJXZ 
?shaGetFlags@@YAAAKXZ 
?shaGetFloat@@YAMJ@Z 
?shaGetIndexArray@@YAPBGXZ 
?shaGetIndexCount@@YAJXZ 
?shaGetLightColor@@YAKXZ 
?shaGetLightDirection@@YA?AV?$Vector@M$02@@XZ 
?shaGetModelColor@@YAKXZ 
?shaGetNewColorArray@@YAPAUGFXColor@@XZ 
?shaGetNewTexCoordArray@@YAPAUGFXTexCoord@@XZ 
?shaGetNewVertexArray@@YAPAUGFXVertex@@XZ 
?shaGetNormalArray@@YAPAUGFXNormal@@XZ 
?shaGetObjToAbsMatrix@@YAPAY0M@MXZ 
?shaGetObjToViewMatrix@@YAPAY0M@MXZ 
?shaGetObjToViewStrMatrix@@YAPAY0M@MXZ 
?shaGetPixelProgramConst@@YAXJAAUShaderRegister@@@Z 
?shaGetProjection@@YAPAVCAnyProjection3D@@XZ 
?shaGetRenFlags@@YAKXZ 
?shaGetTexture@@YAPAVCTextureObject@@J@Z 
?shaGetUVMap@@YAPAUGFXTexCoord@@J@Z 
?shaGetVertexArray@@YAPAUGFXVertex@@XZ 
?shaGetVertexCount@@YAJXZ 
?shaGetVertexProgramConst@@YAXJAAUShaderRegister@@@Z 
?shaGetVertexProgramConst@@YAXJAAY0BA@M@Z 
?shaGetVertexProgramConst@@YAXJAAY0M@M@Z 
?shaHasFog@@YAHAAV?$AABBox@M$02@@@Z 
?shaHasHaze@@YAHAAV?$AABBox@M$02@@@Z 
?shaLockArrays@@YAXXZ 
?shaOverBrightningEnabled@@YAHXZ 
?shaPrepareFogAndHaze@@YAXH@Z 
?shaPrepareForBillboard@@YAXHH@Z 
?shaRender@@YAXXZ 
?shaSetBoneMatrix@@YAXPAY0M@$$CBMJ@Z 
?shaSetColor@@YAXJ@Z 
?shaSetColorArray@@YAXPAUGFXColor@@@Z 
?shaSetConstantColor@@YAXK@Z 
?shaSetDefaultConstantRegisters@@YAXXZ 
?shaSetEMBM@@YAXXZ 
?shaSetFogTextureUnit@@YAXJH@Z 
?shaSetFogUVMap@@YAXPAUGFXTexCoord@@@Z 
?shaSetHazeColorArray@@YAXPAUGFXColor@@@Z 
?shaSetHazeUVMap@@YAXPAUGFXTexCoord@@@Z 
?shaSetIndices@@YAXPBGJ@Z 
?shaSetLightColor@@YAXKK@Z 
?shaSetLightDirection@@YAXABV?$Vector@M$02@@@Z 
?shaSetModelColor@@YAXAAK@Z 
?shaSetNormalArray@@YAXPAUGFXNormal@@@Z 
?shaSetNormalBufferID@@YAXJ@Z 
?shaSetObjToAbsMatrix@@YAXAAY0M@M@Z 
?shaSetObjToViewMatrix@@YAXAAY0M@M@Z 
?shaSetObjToViewStrMatrix@@YAXAAY0M@M@Z 
?shaSetPixelProgram@@YAXJ@Z 
?shaSetPixelProgramConst@@YAXJPBUShaderRegister@@J@Z 
?shaSetPixelProgramConst_WaterColor@@YAXXZ 
?shaSetRenFlags@@YAXK@Z 
?shaSetSurfaceColors@@YAXPAKJ@Z 
?shaSetSurfaceFlags@@YAXK@Z 
?shaSetSurfaceFloats@@YAXPAMJ@Z 
?shaSetSurfaceTextures@@YAXPAPAVCTextureObject@@J@Z 
?shaSetSurfaceUVMaps@@YAXPAPAUGFXTexCoord@@J@Z 
?shaSetSurfaceUVMapsIDs@@YAXPAJJ@Z 
?shaSetTangentBufferID@@YAXJ@Z 
?shaSetTexCoordArray@@YAXPAUGFXTexCoord@@J@Z 
?shaSetTexCoordBufferID@@YAXJJ@Z 
?shaSetTexture@@YAXJJ@Z 
?shaSetTexture@@YAXPAVCTextureData@@J@Z 
?shaSetTextureMatrix@@YAXAAY0M@$$CBMJ@Z 
?shaSetTextureUnit@@YAXJ@Z 
?shaSetTextureWrapping@@YAXW4GfxWrap@@0J@Z 
?shaSetUVMap@@YAXJJ@Z 
?shaSetVertexArray@@YAXPAUGFXVertex@@JJ@Z 
?shaSetVertexBufferID@@YAXJJJ@Z 
?shaSetVertexProgram@@YAXJW4NormalMapMeshType@@@Z 
?shaSetVertexProgramConst@@YAXJPAY0BA@$$CBMJ@Z 
?shaSetVertexProgramConst@@YAXJPAY0M@$$CBMJ@Z 
?shaSetVertexProgramConst@@YAXJPBUShaderRegister@@J@Z 
?shaSetVertexProgramConst_BoneMatrix@@YAXXZ 
?shaSetVertexProgramConst_CoSine@@YAXXZ 
?shaSetVertexProgramConst_EyePos@@YAXXZ 
?shaSetVertexProgramConst_Fixup@@YAXXZ 
?shaSetVertexProgramConst_LightColor@@YAXUGFXColor@@0H@Z 
?shaSetVertexProgramConst_LightDir@@YAXXZ 
?shaSetVertexProgramConst_LightPos@@YAXXZ 
?shaSetVertexProgramConst_Multiply@@YAXXZ 
?shaSetVertexProgramConst_PI@@YAXXZ 
?shaSetVertexProgramConst_ProjectionMatrix@@YAXXZ 
?shaSetVertexProgramConst_Sine@@YAXXZ 
?shaSetVertexProgramConst_Timer@@YAXXZ 
?shaSetVertexProgramConst_TransformMatrix@@YAXXZ 
?shaSetVertexProgramConst_WaterInformation@@YAXXZ 
?shaSetWeightArray@@YAXPAUGFXWeight@@@Z 
?shaSetWeightBufferID@@YAXJ@Z 
?shaSetWeightsPerVertex@@YAXJ@Z 
?shaUnlockArrays@@YAXXZ 
?shaUseHWShaders@@YAHXZ 
?shaUsePixelProgram@@YAHXZ 
?shaUseVertexBuffers@@YAHXZ 
?shaUseVertexProgram@@YAHXZ 
?size@?$queue@EV?$deque@EV?$allocator@E@std@@@std@@@std@@QBEIXZ 
?ska_FindID@@YAJABVCTString@@@Z 
?ska_IDToString@@YA?AVCTString@@J@Z 
?ska_StringToID@@YAJABVCTString@@@Z 
?ska_fLODAdd@@3MA 
?ska_fLODMul@@3MA 
?snd_iFormat@@3JA 
?split@CUITextBoxEx@@AAEXV?$basic_string@DU?$char_traits@D@std@@V?$allocator@D@2@@std@@@Z 
?splitNone@CUITextBoxEx@@AAEXAAV?$basic_string@DU?$char_traits@D@std@@V?$allocator@D@2@@std@@AAV?$vector@V?$basic_string@DU?$char_traits@D@std@@V?$allocator@D@2@@std@@V?$allocator@V?$basic_string@DU?$char_traits@D@std@@V?$allocator@D@2@@std@@@2@@3@0H@Z 
?splitOneLine@CUITextBoxEx@@AAEXAAV?$basic_string@DU?$char_traits@D@std@@V?$allocator@D@2@@std@@AAV?$vector@V?$basic_string@DU?$char_traits@D@std@@V?$allocator@D@2@@std@@V?$allocator@V?$basic_string@DU?$char_traits@D@std@@V?$allocator@D@2@@std@@@2@@3@0@Z 
?splitSpace@CUITextBoxEx@@AAEXAAV?$basic_string@DU?$char_traits@D@std@@V?$allocator@D@2@@std@@AAV?$vector@V?$basic_string@DU?$char_traits@D@std@@V?$allocator@D@2@@std@@V?$allocator@V?$basic_string@DU?$char_traits@D@std@@V?$allocator@D@2@@std@@@2@@3@0H@Z 
?swap@?$queue@EV?$deque@EV?$allocator@E@std@@@std@@@std@@QAEXAAV12@@Z 
?ter_fLODMul@@3MA 
?tmp_af@@3PAMA 
?tmp_ai@@3PAJA 
?tmp_fAdd@@3JA 
?tmp_i@@3JA 
?updateAPetAppear@CSessionState@@AAEXPAVCNetworkMessage@@@Z 
?updateAt@CSessionState@@AAEXPAVCNetworkMessage@@@Z 
?updateCollapse@CUITree@@QAEXXZ 
?updateCostSuitWear@CSessionState@@AAEXPAVCNetworkMessage@@@Z 
?updateCostTakeOff@CSessionState@@AAEXPAVCNetworkMessage@@@Z 
?updateCostWear@CSessionState@@AAEXPAVCNetworkMessage@@@Z 
?updateDamage@CSessionState@@AAEXPAVCNetworkMessage@@@Z 
?updateDisappear@CSessionState@@AAEXPAVCNetworkMessage@@@Z 
?updateDragPos@CUIScrollBar@@IAEXM@Z 
?updateDurabilityForInventory@CSessionState@@AAEXPAVCNetworkMessage@@@Z 
?updateDurabilityForWear@CSessionState@@AAEXPAVCNetworkMessage@@@Z 
?updateElementalAppear@CSessionState@@AAEXPAVCNetworkMessage@@@Z 
?updateElementalStatus@CSessionState@@AAEXPAVCNetworkMessage@@@Z 
?updateEraseAllItem@CSessionState@@AAEXPAVCNetworkMessage@@@Z 
?updateExpedMemberInfo@CSessionState@@AAEXPAVCNetworkMessage@@@Z 
?updateInvenList@CSessionState@@AAEXPAVCNetworkMessage@@@Z 
?updateItemAdd@CSessionState@@AAEXPAVCNetworkMessage@@@Z 
?updateItemComposite@CSessionState@@AAEXPAVCNetworkMessage@@@Z 
?updateItemCount@CSessionState@@AAEXPAVCNetworkMessage@@@Z 
?updateItemCountSwap@CSessionState@@AAEXPAVCNetworkMessage@@@Z 
?updateItemDelete@CSessionState@@AAEXPAVCNetworkMessage@@@Z 
?updateItemFlag@CSessionState@@AAEXPAVCNetworkMessage@@@Z 
?updateItemOption@CSessionState@@AAEXPAVCNetworkMessage@@@Z 
?updateItemOriginVar@CSessionState@@AAEXPAVCNetworkMessage@@@Z 
?updateItemPlus2@CSessionState@@AAEXPAVCNetworkMessage@@@Z 
?updateItemPlus@CSessionState@@AAEXPAVCNetworkMessage@@@Z 
?updateItemSocket@CSessionState@@AAEXPAVCNetworkMessage@@@Z 
?updateItemTakeOff@CSessionState@@AAEXPAVCNetworkMessage@@@Z 
?updateItemUse@CSessionState@@AAEXPAVCNetworkMessage@@@Z 
?updateItemUseError@CSessionState@@AAEXPAVCNetworkMessage@@@Z 
?updateItemUsed2@CSessionState@@AAEXPAVCNetworkMessage@@@Z 
?updateItemUsed@CSessionState@@AAEXPAVCNetworkMessage@@@Z 
?updateItemWear@CSessionState@@AAEXPAVCNetworkMessage@@@Z 
?updateItemWearPos@CSessionState@@AAEXPAVCNetworkMessage@@@Z 
?updateLogo@CUILoginNew@@AAEXXZ 
?updateLogoAlpha@CUILoginNew@@AAEXPAVCUIImage@@M@Z 
?updateLogoHal@CUILoginNew@@AAEXM@Z 
?updateLogoXmas@CUILoginNew@@AAEXM@Z 
?updateMoney@CSessionState@@AAEXPAVCNetworkMessage@@@Z 
?updateMoneyReason@CSessionState@@AAEXPAVCNetworkMessage@@@Z 
?updateNpcAppear@CSessionState@@AAEXPAVCNetworkMessage@@@Z 
?updateOldTimerItem@CSessionState@@AAEXPAVCNetworkMessage@@@Z 
?updatePartyMemberInfo@CSessionState@@AAEXPAVCNetworkMessage@@@Z 
?updatePcAppear@CSessionState@@AAEXPAVCNetworkMessage@@@Z 
?updatePetAppear@CSessionState@@AAEXPAVCNetworkMessage@@@Z 
?updatePosition@CUIBase@@QAEX_N@Z 
?updatePositionChild@CUIBase@@QAEX_N@Z 
?updateStashPasswordFlag@CSessionState@@AAEXPAVCNetworkMessage@@@Z 
?updateStatus@CSessionState@@AAEXPAVCNetworkMessage@@@Z 
?updateStatusAPet@CSessionState@@AAEXPAVCNetworkMessage@@@Z 
?updateStatusElemental@CSessionState@@AAEXPAVCNetworkMessage@@@Z 
?updateStatusNPC@CSessionState@@AAEXPAVCNetworkMessage@@@Z 
?updateStatusPC@CSessionState@@AAEXPAVCNetworkMessage@@@Z 
?updateStatusPet@CSessionState@@AAEXPAVCNetworkMessage@@@Z 
?updateStatusPt@CUICharacterInfo@@IAEXHH@Z 
?updateThumbSize@CUIScrollBar@@IAEXXZ 
?updateTree@CUITree@@QAEXXZ 
?updateTreeChild@CUITree@@IAEXPAVCUIScrollBar@@@Z 
?updateWearCostList@CSessionState@@AAEXPAVCNetworkMessage@@@Z 
?updateWearItemFlag@CSessionState@@AAEXPAVCNetworkMessage@@@Z 
?updateWearItemInfo@CSessionState@@AAEXPAVCNetworkMessage@@@Z 
?updateWearItemList@CSessionState@@AAEXPAVCNetworkMessage@@@Z 
?updateWearItemPlus@CSessionState@@AAEXPAVCNetworkMessage@@@Z 
?updateWearItemUsed@CSessionState@@AAEXPAVCNetworkMessage@@@Z 
?updateWidth@CUIProgressBar@@QAEXXZ 
?writeInfo@CDamageLogInfo@@QAE_NAAULogDamage@1@@Z 
?writeInfo@CDamageLogInfo@@QAE_NABULogEntityInfo@1@_N@Z 
CEntity_DLLClass 
CLiveEntity_DLLClass 
CMovableBrushEntity_DLLClass 
CMovableEntity_DLLClass 
CMovableModelEntity_DLLClass 
CPlayerEntity_DLLClass 
CRationalEntity_DLLClass 
Shader_Desc_TRShader_1TRL 
Shader_Desc_TRShader_2TRL 
Shader_Desc_TRShader_Base 
Shader_Desc_TRShader_Fog 
Shader_Desc_TRShader_Shadow 
Shader_PPCode_TRShader_1TRL 
Shader_PPCode_TRShader_2TRL 
Shader_PPCode_TRShader_Base 
Shader_PPCode_TRShader_Fog 
Shader_PPCode_TRShader_Shadow 
Shader_TRShader_1TRL 
Shader_TRShader_2TRL 
Shader_TRShader_Base 
Shader_TRShader_Fog 
Shader_TRShader_Shadow 
Shader_VPCode_TRShader_1TRL 
Shader_VPCode_TRShader_2TRL 
Shader_VPCode_TRShader_Base 
Shader_VPCode_TRShader_Fog 
Shader_VPCode_TRShader_Shadow 
