Microsoft (R) COFF/PE Dumper Version 10.00.30319.01
Copyright (C) Microsoft Corporation.  All rights reserved.


Dump of file EngineD.dll

File Type: DLL

  Section contains the following exports for EngineD.dll

    00000000 characteristics
    5879AE0D time date stamp Sat Jan 14 07:50:21 2017
        0.00 version
           1 ordinal base
        9371 number of functions
        9371 number of names

    ordinal hint RVA      name

          1    0 003C97D0 ??0?$CSingletonBase@VActorMgr@@@@IAE@XZ
          2    1 000B21A0 ??0?$CSingletonBase@VActorMgr@@@@QAE@ABV0@@Z
          3    2 00219210 ??0?$CSingletonBase@VCBackImageManager@@@@IAE@XZ
          4    3 00218C50 ??0?$CSingletonBase@VCBackImageManager@@@@QAE@ABV0@@Z
          5    4 00113550 ??0?$CSingletonBase@VCInvenData@@@@IAE@XZ
          6    5 00112D90 ??0?$CSingletonBase@VCInvenData@@@@QAE@ABV0@@Z
          7    6 00A67850 ??0?$CSingletonBase@VCJobInfo@@@@IAE@XZ
          8    7 00014AF0 ??0?$CSingletonBase@VCJobInfo@@@@QAE@ABV0@@Z
          9    8 002D0BA0 ??0?$CSingletonBase@VCLoadingImage@@@@IAE@XZ
         10    9 00166E10 ??0?$CSingletonBase@VCLoadingImage@@@@QAE@ABV0@@Z
         11    A 002D2600 ??0?$CSingletonBase@VCLoginJobInfo@@@@IAE@XZ
         12    B 00223EC0 ??0?$CSingletonBase@VCLoginJobInfo@@@@QAE@ABV0@@Z
         13    C 005C8CE0 ??0?$CSingletonBase@VCNoticeData@@@@IAE@XZ
         14    D 000B5D20 ??0?$CSingletonBase@VCNoticeData@@@@QAE@ABV0@@Z
         15    E 002969B0 ??0?$CSingletonBase@VCUIFocus@@@@IAE@XZ
         16    F 0001AFC0 ??0?$CSingletonBase@VCUIFocus@@@@QAE@ABV0@@Z
         17   10 0083E640 ??0?$CSingletonBase@VCUIManager@@@@IAE@XZ
         18   11 0001F030 ??0?$CSingletonBase@VCUIManager@@@@QAE@ABV0@@Z
         19   12 002A7840 ??0?$CSingletonBase@VCUISkillToolTip@@@@IAE@XZ
         20   13 001DC190 ??0?$CSingletonBase@VCUISkillToolTip@@@@QAE@ABV0@@Z
         21   14 00275030 ??0?$CSingletonBase@VCUISupport@@@@IAE@XZ
         22   15 0001D4E0 ??0?$CSingletonBase@VCUISupport@@@@QAE@ABV0@@Z
         23   16 002D1C20 ??0?$CSingletonBase@VCUITooltipMgr@@@@IAE@XZ
         24   17 0001B210 ??0?$CSingletonBase@VCUITooltipMgr@@@@QAE@ABV0@@Z
         25   18 00547690 ??0?$CSingletonBase@VCWebAddress@@@@IAE@XZ
         26   19 00546C30 ??0?$CSingletonBase@VCWebAddress@@@@QAE@ABV0@@Z
         27   1A 00423B00 ??0?$CSingletonBase@VCZoneInfo@@@@IAE@XZ
         28   1B 00011690 ??0?$CSingletonBase@VCZoneInfo@@@@QAE@ABV0@@Z
         29   1C 0026B330 ??0?$CSingletonBase@VGameDataManager@@@@IAE@XZ
         30   1D 000B3C50 ??0?$CSingletonBase@VGameDataManager@@@@QAE@ABV0@@Z
         31   1E 00174F50 ??0?$CSingletonBase@VMsgBoxMgr@@@@IAE@XZ
         32   1F 000B4080 ??0?$CSingletonBase@VMsgBoxMgr@@@@QAE@ABV0@@Z
         33   20 002793C0 ??0?$CSingletonBase@VMyInfo@@@@IAE@XZ
         34   21 000B6160 ??0?$CSingletonBase@VMyInfo@@@@QAE@ABV0@@Z
         35   22 002793E0 ??0?$CSingletonBase@VObjInfo@@@@IAE@XZ
         36   23 000B66D0 ??0?$CSingletonBase@VObjInfo@@@@QAE@ABV0@@Z
         37   24 0027F800 ??0?$CSingletonBase@VServerInfo@@@@IAE@XZ
         38   25 00214080 ??0?$CSingletonBase@VServerInfo@@@@QAE@ABV0@@Z
         39   26 0026F220 ??0?$CSingletonBase@VStageMgr@@@@IAE@XZ
         40   27 00224150 ??0?$CSingletonBase@VStageMgr@@@@QAE@ABV0@@Z
         41   28 0066FC70 ??0?$CSingletonBase@VStringLoader@@@@IAE@XZ
         42   29 002732A0 ??0?$CSingletonBase@VStringLoader@@@@QAE@ABV0@@Z
         43   2A 002968A0 ??0?$CSingletonBase@VUIFactory@@@@IAE@XZ
         44   2B 002962B0 ??0?$CSingletonBase@VUIFactory@@@@QAE@ABV0@@Z
         45   2C 00278440 ??0?$CSingletonBase@VUtilHelp@@@@IAE@XZ
         46   2D 000B6DE0 ??0?$CSingletonBase@VUtilHelp@@@@QAE@ABV0@@Z
         47   2E 000274F0 ??0?$queue@EV?$deque@EV?$allocator@E@std@@@std@@@std@@QAE@$$QAV01@@Z
         48   2F 00027530 ??0?$queue@EV?$deque@EV?$allocator@E@std@@@std@@@std@@QAE@$$QAV?$deque@EV?$allocator@E@std@@@1@@Z
         49   30 00027460 ??0?$queue@EV?$deque@EV?$allocator@E@std@@@std@@@std@@QAE@ABV01@@Z
         50   31 00027490 ??0?$queue@EV?$deque@EV?$allocator@E@std@@@std@@@std@@QAE@ABV?$deque@EV?$allocator@E@std@@@1@@Z
         51   32 00027430 ??0?$queue@EV?$deque@EV?$allocator@E@std@@@std@@@std@@QAE@XZ
         52   33 000B22A0 ??0ActorMgr@@QAE@ABV0@@Z
         53   34 003BBCE0 ??0ActorMgr@@QAE@XZ
         54   35 00014E40 ??0ByteQueueData@@QAE@ABV0@@Z
         55   36 005DB2D0 ??0ByteQueueData@@QAE@XZ
         56   37 00014FC0 ??0CAffinityData@@QAE@ABV0@@Z
         57   38 005802C0 ??0CAffinityData@@QAE@XZ
         58   39 009E3D80 ??0CAnimData@@QAE@XZ
         59   3A 00105040 ??0CAnimEffect@@QAE@ABV0@@Z
         60   3B 00646CC0 ??0CAnimEffect@@QAE@ABVCTString@@@Z
         61   3C 00646C40 ??0CAnimEffect@@QAE@XZ
         62   3D 009E6100 ??0CAnimObject@@QAE@XZ
         63   3E 000B15C0 ??0CAnimSet@@QAE@ABV0@@Z
         64   3F 00622F30 ??0CAnimSet@@QAE@XZ
         65   40 00004CE0 ??0CAnyProjection3D@@QAE@ABV0@@Z
         66   41 00004C80 ??0CAnyProjection3D@@QAE@XZ
         67   42 003E28F0 ??0CAttachedModel@@QAE@ABV0@@Z
         68   43 003E6B30 ??0CAttachedModel@@QAE@XZ
         69   44 003FEF90 ??0CAttachedModelPosition@@QAE@XZ
         70   45 003E2AC0 ??0CAttachedSound@@QAE@ABV0@@Z
         71   46 003E7050 ??0CAttachedSound@@QAE@XZ
         72   47 003E2300 ??0CAttachmentModelObject@@QAE@ABV0@@Z
         73   48 003E2210 ??0CAttachmentModelObject@@QAE@XZ
         74   49 0059F360 ??0CAutoPrecacheModel@@QAE@XZ
         75   4A 0059F120 ??0CAutoPrecacheSound@@QAE@XZ
         76   4B 0059F4D0 ??0CAutoPrecacheTexture@@QAE@XZ
         77   4C 00009910 ??0CBoolDefaultFalse@@QAE@XZ
         78   4D 00009750 ??0CBrush3D@@QAE@ABV0@@Z
         79   4E 00A2D1C0 ??0CBrush3D@@QAE@XZ
         80   4F 0041BD40 ??0CBrushArchive@@QAE@AAV0@@Z
         81   50 0041BC10 ??0CBrushArchive@@QAE@XZ
         82   51 00007E40 ??0CBrushBase@@QAE@ABV0@@Z
         83   52 00007E20 ??0CBrushBase@@QAE@XZ
         84   53 000080B0 ??0CBrushEdge@@QAE@PAVCBrushVertex@@0@Z
         85   54 00008090 ??0CBrushEdge@@QAE@XZ
         86   55 00009580 ??0CBrushMip@@QAE@AAV0@@Z
         87   56 00A3E2D0 ??0CBrushMip@@QAE@XZ
         88   57 00007FD0 ??0CBrushPlane@@QAE@XZ
         89   58 00008DE0 ??0CBrushPolygon@@QAE@ABV0@@Z
         90   59 00008B40 ??0CBrushPolygon@@QAE@XZ
         91   5A 00008A10 ??0CBrushPolygonTexture@@QAE@ABV0@@Z
         92   5B 00008830 ??0CBrushPolygonTexture@@QAE@XZ
         93   5C 00A42250 ??0CBrushSector@@QAE@ABV0@@Z
         94   5D 00A424A0 ??0CBrushSector@@QAE@XZ
         95   5E 00008510 ??0CBrushShadowLayer@@QAE@ABV0@@Z
         96   5F 00A48040 ??0CBrushShadowLayer@@QAE@XZ
         97   60 00008700 ??0CBrushShadowMap@@QAE@ABV0@@Z
         98   61 00A49490 ??0CBrushShadowMap@@QAE@XZ
         99   62 00007E80 ??0CBrushVertex@@QAE@XZ
        100   63 00671050 ??0CCameraEffect@@IAE@ABV0@@Z
        101   64 006712A0 ??0CCameraEffect@@QAE@XZ
        102   65 00011610 ??0CCashShopData@@QAE@ABV0@@Z
        103   66 000115E0 ??0CCashShopData@@QAE@XZ
        104   67 0045C620 ??0CCastRay@@QAE@PAVCEntity@@ABV?$Vector@M$02@@1@Z
        105   68 0045C3B0 ??0CCastRay@@QAE@PAVCEntity@@ABVCPlacement3D@@@Z
        106   69 0045C550 ??0CCastRay@@QAE@PAVCEntity@@ABVCPlacement3D@@M@Z
        107   6A 009E8AA0 ??0CChangeable@@QAE@XZ
        108   6B 009E8B40 ??0CChangeableRT@@QAE@XZ
        109   6C 0048FF00 ??0CCharacterTarget@@QAE@ABV0@@Z
        110   6D 0048F970 ??0CCharacterTarget@@QAE@XZ
        111   6E 00002F20 ??0CChunkID@@QAE@PBD@Z
        112   6F 00596C40 ??0CCollisionInfo@@QAE@ABV0@@Z
        113   70 0043E610 ??0CCollisionInfo@@QAE@XZ
        114   71 0000E300 ??0CCommunicationInterface@@QAE@ABV0@@Z
        115   72 004D0F80 ??0CCommunicationInterface@@QAE@XZ
        116   73 003D5380 ??0CContentType@@QAE@ABV0@@Z
        117   74 003D52A0 ??0CContentType@@QAE@XZ
        118   75 0001CD40 ??0CDamageLogInfo@@QAE@ABV0@@Z
        119   76 0001B310 ??0CDamageLogInfo@@QAE@XZ
        120   77 00309F60 ??0CDisplayMode@@QAE@XZ
        121   78 0030B0E0 ??0CDrawPort@@QAE@PAV0@ABV?$AABBox@J$01@@@Z
        122   79 0030B360 ??0CDrawPort@@QAE@PAV0@J@Z
        123   7A 0030B080 ??0CDrawPort@@QAE@PAV0@NNNN@Z
        124   7B 0030A730 ??0CDrawPort@@QAE@PBV0@@Z
        125   7C 0030A4A0 ??0CDrawPort@@QAE@XZ
        126   7D 003E2EF0 ??0CEditModel@@QAE@AAV0@@Z
        127   7E 003E3560 ??0CEditModel@@QAE@XZ
        128   7F 0000F530 ??0CEffect@@IAE@AAV0@@Z
        129   80 00675FA0 ??0CEffect@@QAE@XZ
        130   81 002324C0 ??0CEffectControl@@QAE@ABV0@@Z
        131   82 00676A20 ??0CEffectControl@@QAE@XZ
        132   83 0000FB40 ??0CEffectGroup@@IAE@ABV0@@Z
        133   84 0067E3C0 ??0CEffectGroup@@QAE@XZ
        134   85 00684090 ??0CEffectGroupManager@@AAE@XZ
        135   86 00012000 ??0CEffectGroupManager@@QAE@ABV0@@Z
        136   87 00686DF0 ??0CEffectManager@@AAE@XZ
        137   88 00423740 ??0CEffectManager@@QAE@ABV0@@Z
        138   89 0000D5B0 ??0CEntity@@QAE@ABV0@@Z
        139   8A 005912A0 ??0CEntity@@QAE@XZ
        140   8B 00267F00 ??0CEntityClass@@QAE@ABV0@@Z
        141   8C 005A7B10 ??0CEntityClass@@QAE@PAVCDLLEntityClass@@@Z
        142   8D 005A7A70 ??0CEntityClass@@QAE@XZ
        143   8E 000B4580 ??0CEntityComponent@@QAE@ABV0@@Z
        144   8F 000B44B0 ??0CEntityComponent@@QAE@W4EntityComponentType@@KKPAD@Z
        145   90 000B4510 ??0CEntityComponent@@QAE@XZ
        146   91 00689BE0 ??0CEntityEffect@@IAE@ABV0@@Z
        147   92 00689D40 ??0CEntityEffect@@QAE@XZ
        148   93 00009A50 ??0CEntityEvent@@QAE@ABV0@@Z
        149   94 00009960 ??0CEntityEvent@@QAE@J@Z
        150   95 00590F10 ??0CEntityID@@QAE@ABV0@@Z
        151   96 00590F60 ??0CEntityID@@QAE@PAVCEntity@@@Z
        152   97 00590EB0 ??0CEntityID@@QAE@XZ
        153   98 0000E8C0 ??0CEntityMessage@@QAE@ABV0@@Z
        154   99 0000E860 ??0CEntityMessage@@QAE@XZ
        155   9A 000B4400 ??0CEntityProperty@@QAE@W4PropertyType@0@PAVCEntityPropertyEnumType@@KJPADDKK@Z
        156   9B 000B4460 ??0CEntityProperty@@QAE@XZ
        157   9C 006CFA70 ??0CEntityTag@@QAE@AAVCTag@@@Z
        158   9D 0000A1D0 ??0CEntityTag@@QAE@ABV0@@Z
        159   9E 006CF9F0 ??0CEntityTag@@QAE@XZ
        160   9F 003D5590 ??0CEnvironmentType@@QAE@ABV0@@Z
        161   A0 003D5520 ??0CEnvironmentType@@QAE@XZ
        162   A1 0054C470 ??0CFieldSettings@@QAE@ABV0@@Z
        163   A2 0054C410 ??0CFieldSettings@@QAE@XZ
        164   A3 00005A40 ??0CFileNameNode@@QAE@ABV0@@Z
        165   A4 009E3C60 ??0CFileNameNode@@QAE@PBDPAVCListHead@@@Z
        166   A5 00328300 ??0CFontCharData@@QAE@XZ
        167   A6 00278080 ??0CFontData@@QAE@ABV0@@Z
        168   A7 00328430 ??0CFontData@@QAE@XZ
        169   A8 000B19E0 ??0CGameState@@QAE@ABV0@@Z
        170   A9 000B1710 ??0CGameState@@QAE@XZ
        171   AA 00006310 ??0CGfxLibrary@@QAE@ABV0@@Z
        172   AB 00352FD0 ??0CGfxLibrary@@QAE@XZ
        173   AC 006D0420 ??0CGroupTag@@QAE@AAVCTag@@@Z
        174   AD 0063F950 ??0CGroupTag@@QAE@ABV0@@Z
        175   AE 006D03A0 ??0CGroupTag@@QAE@XZ
        176   AF 003D5670 ??0CIlluminationType@@QAE@ABV0@@Z
        177   B0 003D5610 ??0CIlluminationType@@QAE@XZ
        178   B1 00362030 ??0CImageInfo@@QAE@XZ
        179   B2 009F8E80 ??0CInput@@QAE@XZ
        180   B3 00222EE0 ??0CInputDevice@@QAE@ABV0@@Z
        181   B4 009FAA80 ??0CInputDevice@@QAE@XZ
        182   B5 002F3770 ??0CIntersector@@QAE@MM@Z
        183   B6 00112E90 ??0CInvenData@@QAE@ABV0@@Z
        184   B7 00113070 ??0CInvenData@@QAE@XZ
        185   B8 000049C0 ??0CIsometricProjection3D@@QAE@ABV0@@Z
        186   B9 00004990 ??0CIsometricProjection3D@@QAE@XZ
        187   BA 000147B0 ??0CItemData@@QAE@ABV0@@Z
        188   BB 005B3990 ??0CItemData@@QAE@XZ
        189   BC 005BC4E0 ??0CItemEffect@@QAE@ABV0@@Z
        190   BD 005BC360 ??0CItemEffect@@QAE@XZ
        191   BE 000AD680 ??0CItemTarget@@QAE@ABV0@@Z
        192   BF 004E7E50 ??0CItemTarget@@QAE@XZ
        193   C0 00014BF0 ??0CJobInfo@@QAE@ABV0@@Z
        194   C1 00A5FA80 ??0CJobInfo@@QAE@XZ
        195   C2 005C4280 ??0CLastPositions@@QAE@ABV0@@Z
        196   C3 00493AB0 ??0CLastPositions@@QAE@XZ
        197   C4 0054C670 ??0CLensFlareType@@QAE@XZ
        198   C5 0067E210 ??0CLightEffect@@QAE@AAV0@@Z
        199   C6 0068A9F0 ??0CLightEffect@@QAE@XZ
        200   C7 0041C280 ??0CLightSource@@QAE@ABV0@@Z
        201   C8 005E9570 ??0CLightSource@@QAE@XZ
        202   C9 00001030 ??0CListHead@@QAE@ABV0@@Z
        203   CA 00001000 ??0CListHead@@QAE@XZ
        204   CB 000011A0 ??0CListNode@@QAE@ABV0@@Z
        205   CC 00001170 ??0CListNode@@QAE@XZ
        206   CD 0000DD10 ??0CLiveEntity@@QAE@ABV0@@Z
        207   CE 005A22F0 ??0CLiveEntity@@QAE@XZ
        208   CF 00166F10 ??0CLoadingImage@@QAE@ABV0@@Z
        209   D0 002CFBF0 ??0CLoadingImage@@QAE@XZ
        210   D1 00223FC0 ??0CLoginJobInfo@@QAE@ABV0@@Z
        211   D2 002D1F40 ??0CLoginJobInfo@@QAE@XZ
        212   D3 00003D00 ??0CMappingDefinition@@QAE@XZ
        213   D4 003E2770 ??0CMappingUndo@@QAE@ABV0@@Z
        214   D5 003E26C0 ??0CMappingUndo@@QAE@XZ
        215   D6 00003C90 ??0CMappingVectors@@QAE@XZ
        216   D7 00563520 ??0CMdlEffect@@IAE@AAV0@@Z
        217   D8 0068B580 ??0CMdlEffect@@QAE@XZ
        218   D9 00106380 ??0CMesh@@QAE@ABV0@@Z
        219   DA 006285A0 ??0CMesh@@QAE@XZ
        220   DB 00011DA0 ??0CMessageDispatcher@@QAE@ABV0@@Z
        221   DC 004E86A0 ??0CMessageDispatcher@@QAE@XZ
        222   DD 00011390 ??0CMissionCase@@QAE@ABV0@@Z
        223   DE 00011320 ??0CMissionCase@@QAE@XZ
        224   DF 00010BA0 ??0CMobData@@QAE@ABV0@@Z
        225   E0 005C47A0 ??0CMobData@@QAE@XZ
        226   E1 00011120 ??0CMobHelp@@QAE@XZ
        227   E2 004EA0E0 ??0CMobTarget@@QAE@ABV0@@Z
        228   E3 004E9D30 ??0CMobTarget@@QAE@XZ
        229   E4 00351E10 ??0CModelCollisionBox@@QAE@ABV0@@Z
        230   E5 003FEC70 ??0CModelCollisionBox@@QAE@XZ
        231   E6 003FB4D0 ??0CModelData@@QAE@ABV0@@Z
        232   E7 003FC130 ??0CModelData@@QAE@XZ
        233   E8 00352060 ??0CModelInfo@@QAE@ABV0@@Z
        234   E9 00351F90 ??0CModelInfo@@QAE@XZ
        235   EA 006400A0 ??0CModelInstance@@QAE@AAV0@@Z
        236   EB 0063FAD0 ??0CModelInstance@@QAE@XZ
        237   EC 00105250 ??0CModelInstanceSerial@@QAE@ABV0@@Z
        238   ED 00644930 ??0CModelInstanceSerial@@QAE@XZ
        239   EE 003E1F80 ??0CModelObject@@QAE@ABV0@@Z
        240   EF 00400F10 ??0CModelObject@@QAE@XZ
        241   F0 00351500 ??0CModelPatch@@QAE@ABV0@@Z
        242   F1 003FBEB0 ??0CModelPatch@@QAE@XZ
        243   F2 003FBA80 ??0CModelRenderPrefs@@QAE@XZ
        244   F3 000B5860 ??0CMovableBrushEntity@@QAE@ABV0@@Z
        245   F4 000B5800 ??0CMovableBrushEntity@@QAE@XZ
        246   F5 000B4910 ??0CMovableEntity@@QAE@ABV0@@Z
        247   F6 00A70480 ??0CMovableEntity@@QAE@XZ
        248   F7 000B5680 ??0CMovableModelEntity@@QAE@ABV0@@Z
        249   F8 000B5620 ??0CMovableModelEntity@@QAE@XZ
        250   F9 0043E590 ??0CMovingSphere@@QAE@XZ
        251   FA 00495D90 ??0CNetworkLibrary@@QAE@XZ
        252   FB 004EB390 ??0CNetworkMessage@@QAE@ABV0@@Z
        253   FC 004EB340 ??0CNetworkMessage@@QAE@E@Z
        254   FD 004EB2F0 ??0CNetworkMessage@@QAE@XZ
        255   FE 00011CA0 ??0CNetworkProvider@@QAE@ABV0@@Z
        256   FF 004E83A0 ??0CNetworkProvider@@QAE@XZ
        257  100 00018060 ??0CNetworkSession@@QAE@ABV0@@Z
        258  101 004E84F0 ??0CNetworkSession@@QAE@ABVCTString@@@Z
        259  102 004E8430 ??0CNetworkSession@@QAE@XZ
        260  103 001053A0 ??0CNiceWater@@QAE@ABV0@@Z
        261  104 006D56E0 ??0CNiceWater@@QAE@PAVCEntity@@@Z
        262  105 006D55D0 ??0CNiceWater@@QAE@XZ
        263  106 0000EF70 ??0CNickNameData@@QAE@XZ
        264  107 00011070 ??0CNpcHelp@@QAE@XZ
        265  108 002D4D50 ??0CObject3D@@QAE@AAV0@@Z
        266  109 002D4F60 ??0CObject3D@@QAE@XZ
        267  10A 002D4B50 ??0CObjectPolygon@@QAE@AAV0@@Z
        268  10B 002D4A20 ??0CObjectPolygon@@QAE@XZ
        269  10C 002D4970 ??0CObjectPolygonEdge@@QAE@PAVCObjectEdge@@@Z
        270  10D 002D49A0 ??0CObjectPolygonEdge@@QAE@PAVCObjectEdge@@H@Z
        271  10E 002D4940 ??0CObjectPolygonEdge@@QAE@XZ
        272  10F 002E67C0 ??0CObjectSector@@QAE@XZ
        273  110 0054C550 ??0COneLensFlare@@QAE@ABV0@@Z
        274  111 0054C4F0 ??0COneLensFlare@@QAE@XZ
        275  112 0000ECD0 ??0COptionData@@QAE@ABV0@@Z
        276  113 0000EBE0 ??0COptionData@@QAE@XZ
        277  114 0068CE30 ??0COrbitEffect@@IAE@ABV0@@Z
        278  115 0068CFF0 ??0COrbitEffect@@QAE@XZ
        279  116 00004AB0 ??0CParallelProjection3D@@QAE@ABV0@@Z
        280  117 00004A50 ??0CParallelProjection3D@@QAE@XZ
        281  118 00230040 ??0CParticle@@QAE@XZ
        282  119 00694280 ??0CParticleEffect@@IAE@AAV0@@Z
        283  11A 006943F0 ??0CParticleEffect@@QAE@XZ
        284  11B 00423250 ??0CParticleGroup@@QAE@ABV0@@Z
        285  11C 006BC820 ??0CParticleGroup@@QAE@XZ
        286  11D 006C2190 ??0CParticleGroupManager@@AAE@XZ
        287  11E 004235A0 ??0CParticleGroupManager@@QAE@ABV0@@Z
        288  11F 00231260 ??0CParticlePrototype@@QAE@XZ
        289  120 002317B0 ??0CParticles@@QAE@ABV0@@Z
        290  121 00231750 ??0CParticles@@QAE@XZ
        291  122 004226B0 ??0CParticlesAbsorption@@QAE@ABV0@@Z
        292  123 006C6B30 ??0CParticlesAbsorption@@QAE@XZ
        293  124 006BDFF0 ??0CParticlesAbsorptionDefault@@QAE@ABV0@@Z
        294  125 006C7050 ??0CParticlesAbsorptionDefault@@QAE@XZ
        295  126 006BE180 ??0CParticlesAbsorptionSphere@@QAE@ABV0@@Z
        296  127 006C74D0 ??0CParticlesAbsorptionSphere@@QAE@XZ
        297  128 00231A50 ??0CParticlesCommonProcess@@QAE@ABV0@@Z
        298  129 006C7C30 ??0CParticlesCommonProcess@@QAE@XZ
        299  12A 00422160 ??0CParticlesEmitter@@QAE@ABV0@@Z
        300  12B 006C7CA0 ??0CParticlesEmitter@@QAE@XZ
        301  12C 006BD9D0 ??0CParticlesEmitterCone@@QAE@ABV0@@Z
        302  12D 006C81C0 ??0CParticlesEmitterCone@@QAE@XZ
        303  12E 006BDD90 ??0CParticlesEmitterCylinder@@QAE@ABV0@@Z
        304  12F 006C8E30 ??0CParticlesEmitterCylinder@@QAE@XZ
        305  130 006BD680 ??0CParticlesEmitterSphere@@QAE@ABV0@@Z
        306  131 006C9A50 ??0CParticlesEmitterSphere@@QAE@XZ
        307  132 006BEC70 ??0CParticlesProcessControl@@QAE@ABV0@@Z
        308  133 006CA530 ??0CParticlesProcessControl@@QAE@XZ
        309  134 00693D60 ??0CParticlesProcessDynamicState@@QAE@ABV0@@Z
        310  135 006CAEA0 ??0CParticlesProcessDynamicState@@QAE@XZ
        311  136 006BE4E0 ??0CParticlesProcessForce@@QAE@ABV0@@Z
        312  137 006CDD00 ??0CParticlesProcessForce@@QAE@XZ
        313  138 006BE940 ??0CParticlesProcessPointGoal@@QAE@ABV0@@Z
        314  139 006CE3C0 ??0CParticlesProcessPointGoal@@QAE@XZ
        315  13A 006BEEE0 ??0CParticlesProcessVelocity@@QAE@ABV0@@Z
        316  13B 006CED60 ??0CParticlesProcessVelocity@@QAE@XZ
        317  13C 000048C0 ??0CPerspectiveProjection3D@@QAE@ABV0@@Z
        318  13D 002F8760 ??0CPerspectiveProjection3D@@QAE@XZ
        319  13E 00A67EB0 ??0CPetInfo@@QAE@XZ
        320  13F 004EFF80 ??0CPetTarget@@QAE@ABV0@@Z
        321  140 004EFC30 ??0CPetTarget@@QAE@XZ
        322  141 00003FC0 ??0CPlacement3D@@QAE@ABV?$Vector@M$02@@0@Z
        323  142 00003F80 ??0CPlacement3D@@QAE@XZ
        324  143 004ED510 ??0CPlayerAction@@QAE@XZ
        325  144 00018B20 ??0CPlayerCharacter@@QAE@ABV0@@Z
        326  145 005CB740 ??0CPlayerCharacter@@QAE@ABVCTString@@@Z
        327  146 005CB6D0 ??0CPlayerCharacter@@QAE@XZ
        328  147 000B5AA0 ??0CPlayerEntity@@QAE@ABV0@@Z
        329  148 000B5990 ??0CPlayerEntity@@QAE@XZ
        330  149 00493B90 ??0CPlayerSource@@QAE@ABV0@@Z
        331  14A 004F0F70 ??0CPlayerSource@@QAE@XZ
        332  14B 003E38A0 ??0CProgressRoutines@@QAE@XZ
        333  14C 00004180 ??0CProjection3D@@QAE@ABV0@@Z
        334  14D 002F3480 ??0CProjection3D@@QAE@XZ
        335  14E 005CC830 ??0CQuestDynamicData@@QAE@PAVCQuestStaticData@@@Z
        336  14F 005CECD0 ??0CQuestSystem@@IAE@XZ
        337  150 000134F0 ??0CQuestSystem@@QAE@ABV0@@Z
        338  151 006CF400 ??0CRandomTable@@IAE@XZ
        339  152 0000DF30 ??0CRationalEntity@@QAE@ABV0@@Z
        340  153 005A25D0 ??0CRationalEntity@@QAE@XZ
        341  154 00A05ED0 ??0CRelationDst@@QAE@XZ
        342  155 00A05D90 ??0CRelationSrc@@QAE@XZ
        343  156 0040B1A0 ??0CRenderModel@@QAE@XZ
        344  157 00007900 ??0CRenderTexture@@QAE@ABV0@@Z
        345  158 003801D0 ??0CRenderTexture@@QAE@XZ
        346  159 00011B40 ??0CSelectedEntities@@QAE@ABV0@@Z
        347  15A 004EAB50 ??0CSelectedEntities@@QAE@XZ
        348  15B 00005860 ??0CSerial@@QAE@ABV0@@Z
        349  15C 00A0AAD0 ??0CSerial@@QAE@XZ
        350  15D 000AE490 ??0CServer@@QAE@ABV0@@Z
        351  15E 004F3240 ??0CServer@@QAE@XZ
        352  15F 000ADA50 ??0CSessionState@@QAE@ABV0@@Z
        353  160 004F9A40 ??0CSessionState@@QAE@XZ
        354  161 002D2840 ??0CSetFPUPrecision@@QAE@W4FPUPrecisionType@@@Z
        355  162 00105930 ??0CShader@@QAE@ABV0@@Z
        356  163 001057C0 ??0CShader@@QAE@P6AXXZP6AXAAPAUShaderDesc@@@ZP6AXAAVCTString@@J@ZP6AX3JW4FOGTYPE@@@Z@Z
        357  164 001056F0 ??0CShader@@QAE@XZ
        358  165 00493970 ??0CShadingInfo@@QAE@ABV0@@Z
        359  166 004938D0 ??0CShadingInfo@@QAE@XZ
        360  167 00007A90 ??0CShadowMap@@QAE@ABV0@@Z
        361  168 0036F960 ??0CShadowMap@@QAE@XZ
        362  169 002D4D80 ??0CShell@@QAE@AAV0@@Z
        363  16A 00A0BCB0 ??0CShell@@QAE@XZ
        364  16B 006A2670 ??0CShockWaveEffect@@IAE@ABV0@@Z
        365  16C 006A2880 ??0CShockWaveEffect@@QAE@XZ
        366  16D 00010F90 ??0CShopData@@QAE@ABV0@@Z
        367  16E 005D4140 ??0CShopData@@QAE@XZ
        368  16F 00004C10 ??0CSimpleProjection3D@@QAE@ABV0@@Z
        369  170 00004BE0 ??0CSimpleProjection3D@@QAE@XZ
        370  171 002FCBD0 ??0CSimpleProjection3D_DOUBLE@@QAE@XZ
        371  172 00232A00 ??0CSkaEffect@@IAE@AAV0@@Z
        372  173 006AB4B0 ??0CSkaEffect@@QAE@XZ
        373  174 006D1790 ??0CSkaTag@@QAE@AAVCTag@@@Z
        374  175 001049B0 ??0CSkaTag@@QAE@ABV0@@Z
        375  176 006D1730 ??0CSkaTag@@QAE@XZ
        376  177 001047A0 ??0CSkeleton@@QAE@ABV0@@Z
        377  178 0066BE80 ??0CSkeleton@@QAE@XZ
        378  179 003AF250 ??0CSlaveInfo@@QAE@ABV0@@Z
        379  17A 00A697F0 ??0CSlaveInfo@@QAE@XZ
        380  17B 00543690 ??0CSlaveTarget@@QAE@ABV0@@Z
        381  17C 00543320 ??0CSlaveTarget@@QAE@XZ
        382  17D 003D1500 ??0CSoundData@@QAE@ABV0@@Z
        383  17E 003D1780 ??0CSoundData@@QAE@XZ
        384  17F 006ACA00 ??0CSoundEffect@@IAE@AAV0@@Z
        385  180 006ACB70 ??0CSoundEffect@@QAE@XZ
        386  181 003D56D0 ??0CSoundLibrary@@QAE@XZ
        387  182 0001D0C0 ??0CSoundObject@@QAE@ABV0@@Z
        388  183 003DE7A0 ??0CSoundObject@@QAE@XZ
        389  184 006AD760 ??0CSplineBillboardEffect@@IAE@AAV0@@Z
        390  185 006AD930 ??0CSplineBillboardEffect@@QAE@XZ
        391  186 006B1500 ??0CSplinePathEffect@@IAE@ABV0@@Z
        392  187 006B16C0 ??0CSplinePathEffect@@QAE@XZ
        393  188 005E25D0 ??0CStatusEffect@@QAE@ABV0@@Z
        394  189 005E2490 ??0CStatusEffect@@QAE@XZ
        395  18A 003D5160 ??0CSurfaceType@@QAE@ABV0@@Z
        396  18B 003D50A0 ??0CSurfaceType@@QAE@XZ
        397  18C 00A23A20 ??0CTCriticalSection@@QAE@XZ
        398  18D 00002E00 ??0CTFileName@@QAE@ABV0@@Z
        399  18E 00002CF0 ??0CTFileName@@QAE@ABVCTString@@@Z
        400  18F 00002C70 ??0CTFileName@@QAE@PBD@Z
        401  190 00002D30 ??0CTFileName@@QAE@PBDH@Z
        402  191 00002CB0 ??0CTFileName@@QAE@XZ
        403  192 00003730 ??0CTFileStream@@QAE@AAV0@@Z
        404  193 00A1E140 ??0CTFileStream@@QAE@XZ
        405  194 00003860 ??0CTMemoryStream@@QAE@AAV0@@Z
        406  195 00A200C0 ??0CTMemoryStream@@QAE@PAXJW4OpenMode@CTStream@@@Z
        407  196 00A1FF80 ??0CTMemoryStream@@QAE@XZ
        408  197 00A23B60 ??0CTSingleLock@@QAE@PAVCTCriticalSection@@H@Z
        409  198 000034A0 ??0CTStream@@QAE@AAV0@@Z
        410  199 00A1D880 ??0CTStream@@QAE@XZ
        411  19A 00002870 ??0CTString@@QAA@JPBDZZ
        412  19B 00002660 ??0CTString@@QAE@ABV0@@Z
        413  19C 00002710 ??0CTString@@QAE@PBD@Z
        414  19D 000027C0 ??0CTString@@QAE@PBG@Z
        415  19E 00002620 ??0CTString@@QAE@XZ
        416  19F 009F21F0 ??0CTWString@@QAE@ABV0@@Z
        417  1A0 009F24E0 ??0CTWString@@QAE@PBD@Z
        418  1A1 009F2430 ??0CTWString@@QAE@PBG@Z
        419  1A2 009F1E60 ??0CTWString@@QAE@XZ
        420  1A3 00009F00 ??0CTag@@QAE@ABV0@@Z
        421  1A4 006D2670 ??0CTag@@QAE@XZ
        422  1A5 0000A620 ??0CTagManager@@QAE@ABV0@@Z
        423  1A6 006D2F70 ??0CTagManager@@QAE@XZ
        424  1A7 00352350 ??0CTerrain@@QAE@ABV0@@Z
        425  1A8 005EBCC0 ??0CTerrain@@QAE@XZ
        426  1A9 0041C050 ??0CTerrainArchive@@QAE@AAV0@@Z
        427  1AA 0041BF60 ??0CTerrainArchive@@QAE@XZ
        428  1AB 004BADA0 ??0CTerrainEffect@@QAE@AAV0@@Z
        429  1AC 006B4CE0 ??0CTerrainEffect@@QAE@XZ
        430  1AD 00590B70 ??0CTerrainLayer@@QAE@ABV0@@Z
        431  1AE 00606DD0 ??0CTerrainLayer@@QAE@XZ
        432  1AF 003D5000 ??0CTextureBlending@@QAE@ABV0@@Z
        433  1B0 0041D710 ??0CTextureBlending@@QAE@XZ
        434  1B1 00007290 ??0CTextureData@@QAE@ABV0@@Z
        435  1B2 00372F60 ??0CTextureData@@QAE@XZ
        436  1B3 003E25E0 ??0CTextureDataInfo@@QAE@ABV0@@Z
        437  1B4 003E2500 ??0CTextureDataInfo@@QAE@XZ
        438  1B5 00007750 ??0CTextureObject@@QAE@ABV0@@Z
        439  1B6 00378360 ??0CTextureObject@@QAE@XZ
        440  1B7 003D4F10 ??0CTextureTransformation@@QAE@ABV0@@Z
        441  1B8 0041D690 ??0CTextureTransformation@@QAE@XZ
        442  1B9 003E2BB0 ??0CThumbnailSettings@@QAE@ABV0@@Z
        443  1BA 003E3290 ??0CThumbnailSettings@@QAE@XZ
        444  1BB 00005D40 ??0CTimer@@QAE@ABV0@@Z
        445  1BC 00A244E0 ??0CTimer@@QAE@H@Z
        446  1BD 006B6CB0 ??0CTraceEffect@@IAE@AAV0@@Z
        447  1BE 006B6E60 ??0CTraceEffect@@QAE@XZ
        448  1BF 00A6CB50 ??0CTransformInfo@@QAE@XZ
        449  1C0 000ABB40 ??0CUIArray@@QAE@ABV0@@Z
        450  1C1 0027F850 ??0CUIArray@@QAE@XZ
        451  1C2 000AC040 ??0CUIArrayItem@@QAE@ABV0@@Z
        452  1C3 00281720 ??0CUIArrayItem@@QAE@XZ
        453  1C4 000B3280 ??0CUIAutoHelp@@QAE@ABV0@@Z
        454  1C5 006EBB20 ??0CUIAutoHelp@@QAE@XZ
        455  1C6 00016390 ??0CUIBase@@QAE@ABV0@@Z
        456  1C7 00281920 ??0CUIBase@@QAE@XZ
        457  1C8 00017410 ??0CUIButton@@QAE@ABV0@@Z
        458  1C9 006FB450 ??0CUIButton@@QAE@XZ
        459  1CA 002BE530 ??0CUICashShopEX@@QAE@ABV0@@Z
        460  1CB 00707C10 ??0CUICashShopEX@@QAE@PBD@Z
        461  1CC 0022F600 ??0CUICharacterCreateNew@@QAE@ABV0@@Z
        462  1CD 0022B120 ??0CUICharacterCreateNew@@QAE@XZ
        463  1CE 00138EB0 ??0CUICharacterInfo@@QAE@ABV0@@Z
        464  1CF 0014F7E0 ??0CUICharacterInfo@@QAE@XZ
        465  1D0 000A56A0 ??0CUICheckButton@@QAE@ABV0@@Z
        466  1D1 007261A0 ??0CUICheckButton@@QAE@XZ
        467  1D2 000A6980 ??0CUIComboBox@@QAE@ABV0@@Z
        468  1D3 0072F7D0 ??0CUIComboBox@@QAE@XZ
        469  1D4 00019240 ??0CUIEditBox@@QAE@ABV0@@Z
        470  1D5 00736B40 ??0CUIEditBox@@QAE@XZ
        471  1D6 00107AF0 ??0CUIExpressSystem@@QAE@ABV0@@Z
        472  1D7 0016B460 ??0CUIExpressSystem@@QAE@XZ
        473  1D8 0001B0C0 ??0CUIFocus@@QAE@ABV0@@Z
        474  1D9 00296910 ??0CUIFocus@@QAE@XZ
        475  1DA 0015A790 ??0CUIGuildBattle@@QAE@ABV0@@Z
        476  1DB 00790480 ??0CUIGuildBattle@@QAE@XZ
        477  1DC 0001DD70 ??0CUIIcon@@QAE@ABV0@@Z
        478  1DD 00296A00 ??0CUIIcon@@QAE@XZ
        479  1DE 000A9280 ??0CUIImage@@QAE@ABV0@@Z
        480  1DF 0029A3B0 ??0CUIImage@@QAE@XZ
        481  1E0 000AC650 ??0CUIImageArray@@QAE@ABV0@@Z
        482  1E1 0029B2C0 ??0CUIImageArray@@QAE@XZ
        483  1E2 000A8C10 ??0CUIImageBox@@QAE@ABV0@@Z
        484  1E3 007D52E0 ??0CUIImageBox@@QAE@XZ
        485  1E4 000AB5E0 ??0CUIImageFont@@QAE@ABV0@@Z
        486  1E5 0029C870 ??0CUIImageFont@@QAE@XZ
        487  1E6 000AC930 ??0CUIImageSplit@@QAE@ABV0@@Z
        488  1E7 002A78A0 ??0CUIImageSplit@@QAE@XZ
        489  1E8 000ACB00 ??0CUIImageText@@QAE@ABV0@@Z
        490  1E9 0029D0C0 ??0CUIImageText@@QAE@XZ
        491  1EA 000A9CE0 ??0CUIList@@QAE@ABV0@@Z
        492  1EB 002A02E0 ??0CUIList@@QAE@XZ
        493  1EC 000A77A0 ??0CUIListBox@@QAE@ABV0@@Z
        494  1ED 00808F60 ??0CUIListBox@@QAE@XZ
        495  1EE 000AA2F0 ??0CUIListItem@@QAE@ABV0@@Z
        496  1EF 002A1E20 ??0CUIListItem@@QAE@XZ
        497  1F0 0022A700 ??0CUILoginNew@@QAE@ABV0@@Z
        498  1F1 002459B0 ??0CUILoginNew@@QAE@XZ
        499  1F2 0081F780 ??0CUIManager@@AAE@XZ
        500  1F3 0001F130 ??0CUIManager@@QAE@ABV0@@Z
        501  1F4 000A7E50 ??0CUIMsgBox_Info@@QAE@ABV0@@Z
        502  1F5 008608C0 ??0CUIMsgBox_Info@@QAE@XZ
        503  1F6 000A8870 ??0CUIMultiLineText@@QAE@ABV0@@Z
        504  1F7 000A85A0 ??0CUIMultiLineText@@QAE@XZ
        505  1F8 0026CA70 ??0CUIOption@@QAE@ABV0@@Z
        506  1F9 008B1010 ??0CUIOption@@QAE@XZ
        507  1FA 0011B680 ??0CUIPetStashSelectEffect@@QAE@ABV0@@Z
        508  1FB 0019D640 ??0CUIPetStashSelectEffect@@QAE@XZ
        509  1FC 000AF500 ??0CUIProgressBar@@QAE@ABV0@@Z
        510  1FD 0091C430 ??0CUIProgressBar@@QAE@XZ
        511  1FE 0001A500 ??0CUIScrollBar@@QAE@ABV0@@Z
        512  1FF 00947C60 ??0CUIScrollBar@@QAE@XZ
        513  200 0083D9E0 ??0CUISignBoard@@QAE@ABV0@@Z
        514  201 0097CAF0 ??0CUISignBoard@@QAE@XZ
        515  202 0026C5E0 ??0CUISingleBattle@@QAE@ABV0@@Z
        516  203 009800E0 ??0CUISingleBattle@@QAE@XZ
        517  204 000A4ED0 ??0CUISlideBar@@QAE@ABV0@@Z
        518  205 009920B0 ??0CUISlideBar@@QAE@XZ
        519  206 000A4760 ??0CUISpinButton@@QAE@ABV0@@Z
        520  207 009A5670 ??0CUISpinButton@@QAE@XZ
        521  208 000B0450 ??0CUISpinControl@@QAE@ABV0@@Z
        522  209 002A7F70 ??0CUISpinControl@@QAE@XZ
        523  20A 000AC2B0 ??0CUISpriteAni@@QAE@ABV0@@Z
        524  20B 002A8B80 ??0CUISpriteAni@@QAE@XZ
        525  20C 000A9760 ??0CUITab@@QAE@ABV0@@Z
        526  20D 002AA1F0 ??0CUITab@@QAE@XZ
        527  20E 000A9560 ??0CUITabPage@@QAE@ABV0@@Z
        528  20F 002AA090 ??0CUITabPage@@QAE@XZ
        529  210 002CF5D0 ??0CUITatoo@@QAE@ABV0@@Z
        530  211 009B1D50 ??0CUITatoo@@QAE@XZ
        531  212 000AA6D0 ??0CUIText@@QAE@ABV0@@Z
        532  213 002AB8B0 ??0CUIText@@QAE@XZ
        533  214 000AAEA0 ??0CUITextBox@@QAE@ABV0@@Z
        534  215 002AD4E0 ??0CUITextBox@@QAE@XZ
        535  216 000ACDB0 ??0CUITextBoxEx@@QAE@ABV0@@Z
        536  217 002AF8C0 ??0CUITextBoxEx@@QAE@XZ
        537  218 002AF670 ??0CUITextEx@@QAE@ABV0@@Z
        538  219 002B1E20 ??0CUITextEx@@QAE@XZ
        539  21A 000B0080 ??0CUITree@@QAE@ABV0@@Z
        540  21B 002C8D90 ??0CUITree@@QAE@XZ
        541  21C 000AFDA0 ??0CUITreeItem@@QAE@ABV0@@Z
        542  21D 002C8910 ??0CUITreeItem@@QAE@XZ
        543  21E 00A2D0A0 ??0CUpdateable@@QAE@XZ
        544  21F 00A2D130 ??0CUpdateableRT@@QAE@XZ
        545  220 002D0940 ??0CViewPort@@QAE@ABV0@@Z
        546  221 003808A0 ??0CViewPort@@QAE@JJPAUHWND__@@@Z
        547  222 00546EE0 ??0CWebAddress@@AAE@XZ
        548  223 00546D30 ??0CWebAddress@@QAE@ABV0@@Z
        549  224 000114A0 ??0CWildPetData@@QAE@XZ
        550  225 004F0640 ??0CWildPetTarget@@QAE@ABV0@@Z
        551  226 004F0310 ??0CWildPetTarget@@QAE@XZ
        552  227 0041D790 ??0CWorld@@QAE@XZ
        553  228 0054CD50 ??0CWorldRenderPrefs@@QAE@XZ
        554  229 006D5400 ??0CWorldTag@@QAE@AAVCTag@@@Z
        555  22A 0000FCA0 ??0CWorldTag@@QAE@ABV0@@Z
        556  22B 006D53C0 ??0CWorldTag@@QAE@XZ
        557  22C 00011790 ??0CZoneInfo@@QAE@ABV0@@Z
        558  22D 0041C440 ??0CZoneInfo@@QAE@XZ
        559  22E 0022AEE0 ??0CharacterCreateNew@@QAE@ABV0@@Z
        560  22F 0022AA10 ??0CharacterCreateNew@@QAE@XZ
        561  230 000153F0 ??0Command@@QAE@ABV0@@Z
        562  231 000153D0 ??0Command@@QAE@XZ
        563  232 0000B090 ??0EBegin@@QAE@ABV0@@Z
        564  233 00A6E340 ??0EBegin@@QAE@XZ
        565  234 0000B9B0 ??0EBlock@@QAE@ABV0@@Z
        566  235 00A6E860 ??0EBlock@@QAE@XZ
        567  236 0000C550 ??0EDamage@@QAE@ABV0@@Z
        568  237 00A6EED0 ??0EDamage@@QAE@XZ
        569  238 0000C870 ??0EDeath@@QAE@ABV0@@Z
        570  239 00A6F090 ??0EDeath@@QAE@XZ
        571  23A 0000C350 ??0EFirstWorldBase@@QAE@ABV0@@Z
        572  23B 00A6EDB0 ??0EFirstWorldBase@@QAE@XZ
        573  23C 0000AB80 ??0EInternal@@QAE@ABV0@@Z
        574  23D 00A6E0A0 ??0EInternal@@QAE@XZ
        575  23E 0000B710 ??0EPass@@QAE@ABV0@@Z
        576  23F 00A6E6E0 ??0EPass@@QAE@XZ
        577  240 0000CC80 ??0EPlayerInit@@QAE@ABV0@@Z
        578  241 00A6F2E0 ??0EPlayerInit@@QAE@XZ
        579  242 0000C180 ??0EPostLevelChange@@QAE@ABV0@@Z
        580  243 00A6EC90 ??0EPostLevelChange@@QAE@XZ
        581  244 0000BFB0 ??0EPreLevelChange@@QAE@ABV0@@Z
        582  245 00A6EB70 ??0EPreLevelChange@@QAE@XZ
        583  246 0000AEE0 ??0EReturn@@QAE@ABV0@@Z
        584  247 00A6E260 ??0EReturn@@QAE@XZ
        585  248 0000CAB0 ??0ETakingBreath@@QAE@ABV0@@Z
        586  249 00A6F1C0 ??0ETakingBreath@@QAE@XZ
        587  24A 0000BE00 ??0ETeleport@@QAE@ABV0@@Z
        588  24B 00A6EA90 ??0ETeleport@@QAE@XZ
        589  24C 0000B240 ??0ETimer@@QAE@ABV0@@Z
        590  24D 00A6E420 ??0ETimer@@QAE@XZ
        591  24E 0000B430 ??0ETouch@@QAE@ABV0@@Z
        592  24F 00A6E540 ??0ETouch@@QAE@XZ
        593  250 0000AD30 ??0EVoid@@QAE@ABV0@@Z
        594  251 00A6E180 ??0EVoid@@QAE@XZ
        595  252 0000BC50 ??0EWouldFall@@QAE@ABV0@@Z
        596  253 00A6E9B0 ??0EWouldFall@@QAE@XZ
        597  254 00104310 ??0ExpressSystem@@QAE@ABV0@@Z
        598  255 001069D0 ??0ExpressSystem@@QAE@XZ
        599  256 000B3D50 ??0GameDataManager@@QAE@ABV0@@Z
        600  257 0026A080 ??0GameDataManager@@QAE@XZ
        601  258 0022A4B0 ??0LoginNew@@QAE@ABV0@@Z
        602  259 00229D80 ??0LoginNew@@QAE@XZ
        603  25A 00351960 ??0MappingSurface@@QAE@ABU0@@Z
        604  25B 00400E20 ??0MappingSurface@@QAE@XZ
        605  25C 00105DA0 ??0MeshLOD@@QAE@ABU0@@Z
        606  25D 00627430 ??0MeshLOD@@QAE@XZ
        607  25E 001062A0 ??0MeshMorphMap@@QAE@XZ
        608  25F 006282C0 ??0MeshSurface@@QAE@XZ
        609  260 00105FA0 ??0MeshTangent@@QAE@MMM@Z
        610  261 00105F60 ??0MeshTangent@@QAE@MMMM@Z
        611  262 00105F20 ??0MeshTangent@@QAE@XZ
        612  263 001060B0 ??0MeshUVMap@@QAE@XZ
        613  264 001061D0 ??0MeshWeightMap@@QAE@XZ
        614  265 00351820 ??0ModelFrameInfo@@QAE@XZ
        615  266 003517C0 ??0ModelFrameVertex16@@QAE@XZ
        616  267 00351760 ??0ModelFrameVertex16_old@@QAE@XZ
        617  268 00351700 ??0ModelFrameVertex8@@QAE@XZ
        618  269 003FDE80 ??0ModelMipInfo@@QAE@XZ
        619  26A 00400C20 ??0ModelPolygon@@QAE@XZ
        620  26B 003FCCA0 ??0ModelTextureVertex@@QAE@XZ
        621  26C 000B4180 ??0MsgBoxMgr@@QAE@ABV0@@Z
        622  26D 00172520 ??0MsgBoxMgr@@QAE@XZ
        623  26E 000B62D0 ??0MyInfo@@QAE@ABV0@@Z
        624  26F 00278610 ??0MyInfo@@QAE@XZ
        625  270 000B5EB0 ??0MyInfoSkill@@QAE@ABV0@@Z
        626  271 00279430 ??0MyInfoSkill@@QAE@XZ
        627  272 00115F20 ??0Notice@@QAE@ABV0@@Z
        628  273 00116120 ??0Notice@@QAE@XZ
        629  274 000B6880 ??0ObjInfo@@QAE@ABV0@@Z
        630  275 00278800 ??0ObjInfo@@QAE@XZ
        631  276 000B0CD0 ??0Party@@QAE@ABV0@@Z
        632  277 000F78B0 ??0Party@@QAE@XZ
        633  278 00119A00 ??0PetStash@@QAE@ABV0@@Z
        634  279 00119BD0 ??0PetStash@@QAE@XZ
        635  27A 00351CB0 ??0PolygonsPerPatch@@QAE@XZ
        636  27B 00122C50 ??0Quest@@QAE@ABV0@@Z
        637  27C 001201A0 ??0Quest@@QAE@XZ
        638  27D 002141B0 ??0ServerInfo@@QAE@ABV0@@Z
        639  27E 0027F780 ??0ServerInfo@@QAE@XZ
        640  27F 00104700 ??0SkeletonBone@@QAE@XZ
        641  280 001045F0 ??0SkeletonLOD@@QAE@ABU0@@Z
        642  281 001044F0 ??0SkeletonLOD@@QAE@XZ
        643  282 00224250 ??0StageMgr@@QAE@ABV0@@Z
        644  283 0026E930 ??0StageMgr@@QAE@XZ
        645  284 00351D60 ??0TransformedVertexData@@QAE@XZ
        646  285 002963B0 ??0UIFactory@@QAE@ABV0@@Z
        647  286 0028E260 ??0UIFactory@@QAE@XZ
        648  287 00A90370 ??0_Mutex@std@@QAE@W4_Uninitialized@1@@Z
        649  288 00545690 ??0cThreadWrapper@@QAE@P6GIPAX@Z@Z
        650  289 00546020 ??0cWeb@@QAE@XZ
        651  28A 000BC2E0 ??1?$CSingletonBase@VActorMgr@@@@MAE@XZ
        652  28B 00219230 ??1?$CSingletonBase@VCBackImageManager@@@@MAE@XZ
        653  28C 00113570 ??1?$CSingletonBase@VCInvenData@@@@MAE@XZ
        654  28D 00027410 ??1?$CSingletonBase@VCJobInfo@@@@MAE@XZ
        655  28E 00167490 ??1?$CSingletonBase@VCLoadingImage@@@@MAE@XZ
        656  28F 00224850 ??1?$CSingletonBase@VCLoginJobInfo@@@@MAE@XZ
        657  290 000BCB80 ??1?$CSingletonBase@VCNoticeData@@@@MAE@XZ
        658  291 00028BC0 ??1?$CSingletonBase@VCUIFocus@@@@MAE@XZ
        659  292 000297C0 ??1?$CSingletonBase@VCUIManager@@@@MAE@XZ
        660  293 001DD310 ??1?$CSingletonBase@VCUISkillToolTip@@@@MAE@XZ
        661  294 000297A0 ??1?$CSingletonBase@VCUISupport@@@@MAE@XZ
        662  295 00028C90 ??1?$CSingletonBase@VCUITooltipMgr@@@@MAE@XZ
        663  296 005476B0 ??1?$CSingletonBase@VCWebAddress@@@@MAE@XZ
        664  297 00025210 ??1?$CSingletonBase@VCZoneInfo@@@@MAE@XZ
        665  298 000BC8B0 ??1?$CSingletonBase@VGameDataManager@@@@MAE@XZ
        666  299 000BC980 ??1?$CSingletonBase@VMsgBoxMgr@@@@MAE@XZ
        667  29A 000BCFB0 ??1?$CSingletonBase@VMyInfo@@@@MAE@XZ
        668  29B 000BCFD0 ??1?$CSingletonBase@VObjInfo@@@@MAE@XZ
        669  29C 00214B40 ??1?$CSingletonBase@VServerInfo@@@@MAE@XZ
        670  29D 00224920 ??1?$CSingletonBase@VStageMgr@@@@MAE@XZ
        671  29E 00273950 ??1?$CSingletonBase@VStringLoader@@@@MAE@XZ
        672  29F 002968C0 ??1?$CSingletonBase@VUIFactory@@@@MAE@XZ
        673  2A0 000BD0A0 ??1?$CSingletonBase@VUtilHelp@@@@MAE@XZ
        674  2A1 00014E10 ??1?$queue@EV?$deque@EV?$allocator@E@std@@@std@@@std@@QAE@XZ
        675  2A2 003BC110 ??1ActorMgr@@UAE@XZ
        676  2A3 005DB310 ??1ByteQueueData@@UAE@XZ
        677  2A4 00580340 ??1CAffinityData@@UAE@XZ
        678  2A5 009E3DD0 ??1CAnimData@@UAE@XZ
        679  2A6 00646D40 ??1CAnimEffect@@QAE@XZ
        680  2A7 009E6160 ??1CAnimObject@@QAE@XZ
        681  2A8 00622FB0 ??1CAnimSet@@UAE@XZ
        682  2A9 003E6BD0 ??1CAttachedModel@@QAE@XZ
        683  2AA 003E2A90 ??1CAttachedSound@@QAE@XZ
        684  2AB 003E2290 ??1CAttachmentModelObject@@QAE@XZ
        685  2AC 0059F380 ??1CAutoPrecacheModel@@QAE@XZ
        686  2AD 0059F140 ??1CAutoPrecacheSound@@QAE@XZ
        687  2AE 0059F4F0 ??1CAutoPrecacheTexture@@QAE@XZ
        688  2AF 00A2D280 ??1CBrush3D@@QAE@XZ
        689  2B0 0041BCB0 ??1CBrushArchive@@UAE@XZ
        690  2B1 00009510 ??1CBrushMip@@QAE@XZ
        691  2B2 00008C90 ??1CBrushPolygon@@QAE@XZ
        692  2B3 000089E0 ??1CBrushPolygonTexture@@QAE@XZ
        693  2B4 00A42630 ??1CBrushSector@@QAE@XZ
        694  2B5 00A48110 ??1CBrushShadowLayer@@QAE@XZ
        695  2B6 00A497F0 ??1CBrushShadowMap@@QAE@XZ
        696  2B7 00671340 ??1CCameraEffect@@UAE@XZ
        697  2B8 0058CBA0 ??1CCashShopData@@QAE@XZ
        698  2B9 0045C6F0 ??1CCastRay@@QAE@XZ
        699  2BA 0048FC70 ??1CCharacterTarget@@UAE@XZ
        700  2BB 0043E6B0 ??1CCollisionInfo@@QAE@XZ
        701  2BC 0000E120 ??1CCommunicationInterface@@QAE@XZ
        702  2BD 003D5350 ??1CContentType@@QAE@XZ
        703  2BE 0001B4B0 ??1CDamageLogInfo@@UAE@XZ
        704  2BF 0030A5A0 ??1CDrawPort@@QAE@XZ
        705  2C0 003E3680 ??1CEditModel@@UAE@XZ
        706  2C1 006760B0 ??1CEffect@@UAE@XZ
        707  2C2 00676B20 ??1CEffectControl@@UAE@XZ
        708  2C3 0067E4B0 ??1CEffectGroup@@QAE@XZ
        709  2C4 00684100 ??1CEffectGroupManager@@QAE@XZ
        710  2C5 00686E70 ??1CEffectManager@@QAE@XZ
        711  2C6 00591640 ??1CEntity@@UAE@XZ
        712  2C7 005A7BB0 ??1CEntityClass@@UAE@XZ
        713  2C8 000B4550 ??1CEntityComponent@@QAE@XZ
        714  2C9 00689DE0 ??1CEntityEffect@@UAE@XZ
        715  2CA 00009990 ??1CEntityEvent@@UAE@XZ
        716  2CB 00590ED0 ??1CEntityID@@QAE@XZ
        717  2CC 0000E890 ??1CEntityMessage@@QAE@XZ
        718  2CD 006CFB70 ??1CEntityTag@@UAE@XZ
        719  2CE 003D5560 ??1CEnvironmentType@@QAE@XZ
        720  2CF 0054C440 ??1CFieldSettings@@QAE@XZ
        721  2D0 00005A10 ??1CFileNameNode@@QAE@XZ
        722  2D1 00328540 ??1CFontData@@UAE@XZ
        723  2D2 00A5A8E0 ??1CGameState@@QAE@XZ
        724  2D3 00353350 ??1CGfxLibrary@@QAE@XZ
        725  2D4 006D0520 ??1CGroupTag@@UAE@XZ
        726  2D5 003D5640 ??1CIlluminationType@@QAE@XZ
        727  2D6 00362060 ??1CImageInfo@@QAE@XZ
        728  2D7 009F9390 ??1CInput@@QAE@XZ
        729  2D8 009FAB20 ??1CInputDevice@@QAE@XZ
        730  2D9 00113140 ??1CInvenData@@UAE@XZ
        731  2DA 005B3B30 ??1CItemData@@QAE@XZ
        732  2DB 005BC4B0 ??1CItemEffect@@QAE@XZ
        733  2DC 004E7F70 ??1CItemTarget@@UAE@XZ
        734  2DD 00A67110 ??1CJobInfo@@UAE@XZ
        735  2DE 00493AE0 ??1CLastPositions@@QAE@XZ
        736  2DF 0054C6A0 ??1CLensFlareType@@QAE@XZ
        737  2E0 0068AA60 ??1CLightEffect@@UAE@XZ
        738  2E1 005E9610 ??1CLightSource@@QAE@XZ
        739  2E2 000011D0 ??1CListNode@@QAE@XZ
        740  2E3 0000DCE0 ??1CLiveEntity@@UAE@XZ
        741  2E4 002CFD10 ??1CLoadingImage@@UAE@XZ
        742  2E5 002D2030 ??1CLoginJobInfo@@UAE@XZ
        743  2E6 003E2740 ??1CMappingUndo@@QAE@XZ
        744  2E7 0068B6F0 ??1CMdlEffect@@UAE@XZ
        745  2E8 00628620 ??1CMesh@@UAE@XZ
        746  2E9 004E8740 ??1CMessageDispatcher@@QAE@XZ
        747  2EA 00011360 ??1CMissionCase@@QAE@XZ
        748  2EB 005C4870 ??1CMobData@@QAE@XZ
        749  2EC 004E9E90 ??1CMobTarget@@UAE@XZ
        750  2ED 00351DE0 ??1CModelCollisionBox@@QAE@XZ
        751  2EE 003FCB60 ??1CModelData@@UAE@XZ
        752  2EF 00352020 ??1CModelInfo@@QAE@XZ
        753  2F0 0063FE10 ??1CModelInstance@@QAE@XZ
        754  2F1 00644970 ??1CModelInstanceSerial@@UAE@XZ
        755  2F2 00401060 ??1CModelObject@@QAE@XZ
        756  2F3 00351490 ??1CModelPatch@@QAE@XZ
        757  2F4 000B5830 ??1CMovableBrushEntity@@UAE@XZ
        758  2F5 00A70680 ??1CMovableEntity@@UAE@XZ
        759  2F6 000B5650 ??1CMovableModelEntity@@UAE@XZ
        760  2F7 004966B0 ??1CNetworkLibrary@@QAE@XZ
        761  2F8 004EB510 ??1CNetworkMessage@@QAE@XZ
        762  2F9 00011C30 ??1CNetworkProvider@@QAE@XZ
        763  2FA 00017FA0 ??1CNetworkSession@@QAE@XZ
        764  2FB 006D57F0 ??1CNiceWater@@UAE@XZ
        765  2FC 002D4F90 ??1CObject3D@@QAE@XZ
        766  2FD 002D4B20 ??1CObjectPolygon@@QAE@XZ
        767  2FE 002E68C0 ??1CObjectSector@@QAE@XZ
        768  2FF 0054C520 ??1COneLensFlare@@QAE@XZ
        769  300 0000EC60 ??1COptionData@@QAE@XZ
        770  301 0068D110 ??1COrbitEffect@@UAE@XZ
        771  302 006944B0 ??1CParticleEffect@@UAE@XZ
        772  303 006BC8F0 ??1CParticleGroup@@QAE@XZ
        773  304 006C2210 ??1CParticleGroupManager@@QAE@XZ
        774  305 00231780 ??1CParticles@@QAE@XZ
        775  306 006C6BB0 ??1CParticlesAbsorption@@UAE@XZ
        776  307 006C7090 ??1CParticlesAbsorptionDefault@@UAE@XZ
        777  308 006C75A0 ??1CParticlesAbsorptionSphere@@UAE@XZ
        778  309 006C7C80 ??1CParticlesCommonProcess@@UAE@XZ
        779  30A 006C7D20 ??1CParticlesEmitter@@UAE@XZ
        780  30B 006C8260 ??1CParticlesEmitterCone@@UAE@XZ
        781  30C 006C8EC0 ??1CParticlesEmitterCylinder@@UAE@XZ
        782  30D 006C9AE0 ??1CParticlesEmitterSphere@@UAE@XZ
        783  30E 006BEC40 ??1CParticlesProcessControl@@UAE@XZ
        784  30F 006CAFF0 ??1CParticlesProcessDynamicState@@UAE@XZ
        785  310 006BE470 ??1CParticlesProcessForce@@UAE@XZ
        786  311 006BE8C0 ??1CParticlesProcessPointGoal@@UAE@XZ
        787  312 006BEEB0 ??1CParticlesProcessVelocity@@UAE@XZ
        788  313 00A68A20 ??1CPetInfo@@QAE@XZ
        789  314 004EFDC0 ??1CPetTarget@@UAE@XZ
        790  315 00018AF0 ??1CPlayerCharacter@@QAE@XZ
        791  316 000B5A30 ??1CPlayerEntity@@UAE@XZ
        792  317 004F1030 ??1CPlayerSource@@QAE@XZ
        793  318 005CCCB0 ??1CQuestDynamicData@@QAE@XZ
        794  319 005CED80 ??1CQuestSystem@@QAE@XZ
        795  31A 006CF9D0 ??1CRandomTable@@QAE@XZ
        796  31B 0000DEB0 ??1CRationalEntity@@UAE@XZ
        797  31C 00A05F00 ??1CRelationDst@@QAE@XZ
        798  31D 00A05DC0 ??1CRelationSrc@@QAE@XZ
        799  31E 0040B270 ??1CRenderModel@@QAE@XZ
        800  31F 00380210 ??1CRenderTexture@@QAE@XZ
        801  320 00011B10 ??1CSelectedEntities@@QAE@XZ
        802  321 00A0AB20 ??1CSerial@@UAE@XZ
        803  322 004F3480 ??1CServer@@QAE@XZ
        804  323 004F9CC0 ??1CSessionState@@QAE@XZ
        805  324 002D2890 ??1CSetFPUPrecision@@QAE@XZ
        806  325 00105890 ??1CShader@@UAE@XZ
        807  326 00493940 ??1CShadingInfo@@QAE@XZ
        808  327 0036FAA0 ??1CShadowMap@@QAE@XZ
        809  328 00A0BD30 ??1CShell@@QAE@XZ
        810  329 006A29F0 ??1CShockWaveEffect@@UAE@XZ
        811  32A 005D4190 ??1CShopData@@QAE@XZ
        812  32B 006AB600 ??1CSkaEffect@@UAE@XZ
        813  32C 006D1890 ??1CSkaTag@@UAE@XZ
        814  32D 0066BF00 ??1CSkeleton@@UAE@XZ
        815  32E 00A69E50 ??1CSlaveInfo@@QAE@XZ
        816  32F 005434B0 ??1CSlaveTarget@@UAE@XZ
        817  330 003D1810 ??1CSoundData@@UAE@XZ
        818  331 006ACC20 ??1CSoundEffect@@UAE@XZ
        819  332 003D5870 ??1CSoundLibrary@@QAE@XZ
        820  333 003DE940 ??1CSoundObject@@QAE@XZ
        821  334 006ADA90 ??1CSplineBillboardEffect@@UAE@XZ
        822  335 006B17D0 ??1CSplinePathEffect@@UAE@XZ
        823  336 005E25A0 ??1CStatusEffect@@QAE@XZ
        824  337 003D5130 ??1CSurfaceType@@QAE@XZ
        825  338 00A23A80 ??1CTCriticalSection@@QAE@XZ
        826  339 00002DD0 ??1CTFileName@@QAE@XZ
        827  33A 00A1E230 ??1CTFileStream@@UAE@XZ
        828  33B 00A20230 ??1CTMemoryStream@@UAE@XZ
        829  33C 00A23C40 ??1CTSingleLock@@QAE@XZ
        830  33D 00A1DB40 ??1CTStream@@UAE@XZ
        831  33E 000028C0 ??1CTString@@QAE@XZ
        832  33F 009F2590 ??1CTWString@@QAE@XZ
        833  340 006D27A0 ??1CTag@@UAE@XZ
        834  341 006D3010 ??1CTagManager@@QAE@XZ
        835  342 005EBDF0 ??1CTerrain@@QAE@XZ
        836  343 0041BFE0 ??1CTerrainArchive@@UAE@XZ
        837  344 006B4E40 ??1CTerrainEffect@@UAE@XZ
        838  345 006074B0 ??1CTerrainLayer@@QAE@XZ
        839  346 003D4FD0 ??1CTextureBlending@@QAE@XZ
        840  347 003730D0 ??1CTextureData@@UAE@XZ
        841  348 003E2570 ??1CTextureDataInfo@@QAE@XZ
        842  349 00007720 ??1CTextureObject@@QAE@XZ
        843  34A 003D4EE0 ??1CTextureTransformation@@QAE@XZ
        844  34B 003E2B80 ??1CThumbnailSettings@@QAE@XZ
        845  34C 00A24CA0 ??1CTimer@@QAE@XZ
        846  34D 006B6F90 ??1CTraceEffect@@UAE@XZ
        847  34E 00A6D130 ??1CTransformInfo@@QAE@XZ
        848  34F 0027F9D0 ??1CUIArray@@UAE@XZ
        849  350 000AC010 ??1CUIArrayItem@@UAE@XZ
        850  351 006EBC60 ??1CUIAutoHelp@@QAE@XZ
        851  352 00281AC0 ??1CUIBase@@UAE@XZ
        852  353 006FB610 ??1CUIButton@@UAE@XZ
        853  354 00708190 ??1CUICashShopEX@@UAE@XZ
        854  355 0022B3D0 ??1CUICharacterCreateNew@@UAE@XZ
        855  356 0014FED0 ??1CUICharacterInfo@@UAE@XZ
        856  357 000A5600 ??1CUICheckButton@@UAE@XZ
        857  358 0072FA50 ??1CUIComboBox@@UAE@XZ
        858  359 00736E40 ??1CUIEditBox@@UAE@XZ
        859  35A 0016B710 ??1CUIExpressSystem@@UAE@XZ
        860  35B 0001AF70 ??1CUIFocus@@UAE@XZ
        861  35C 00790780 ??1CUIGuildBattle@@UAE@XZ
        862  35D 00296C80 ??1CUIIcon@@UAE@XZ
        863  35E 0029A490 ??1CUIImage@@UAE@XZ
        864  35F 0029B380 ??1CUIImageArray@@UAE@XZ
        865  360 007D5440 ??1CUIImageBox@@UAE@XZ
        866  361 0029C960 ??1CUIImageFont@@UAE@XZ
        867  362 002A7940 ??1CUIImageSplit@@UAE@XZ
        868  363 000ACAD0 ??1CUIImageText@@UAE@XZ
        869  364 002A0490 ??1CUIList@@UAE@XZ
        870  365 008090F0 ??1CUIListBox@@UAE@XZ
        871  366 002A1EB0 ??1CUIListItem@@UAE@XZ
        872  367 00245AA0 ??1CUILoginNew@@UAE@XZ
        873  368 008201C0 ??1CUIManager@@EAE@XZ
        874  369 00860980 ??1CUIMsgBox_Info@@QAE@XZ
        875  36A 000A8720 ??1CUIMultiLineText@@QAE@XZ
        876  36B 008B1560 ??1CUIOption@@UAE@XZ
        877  36C 0019D780 ??1CUIPetStashSelectEffect@@UAE@XZ
        878  36D 0091C740 ??1CUIProgressBar@@UAE@XZ
        879  36E 00947FA0 ??1CUIScrollBar@@UAE@XZ
        880  36F 0097CBC0 ??1CUISignBoard@@QAE@XZ
        881  370 00980220 ??1CUISingleBattle@@UAE@XZ
        882  371 009921B0 ??1CUISlideBar@@UAE@XZ
        883  372 000A4680 ??1CUISpinButton@@UAE@XZ
        884  373 002A80A0 ??1CUISpinControl@@UAE@XZ
        885  374 002A8C70 ??1CUISpriteAni@@UAE@XZ
        886  375 000A96E0 ??1CUITab@@UAE@XZ
        887  376 000A9530 ??1CUITabPage@@UAE@XZ
        888  377 009B1E80 ??1CUITatoo@@UAE@XZ
        889  378 002ABA00 ??1CUIText@@UAE@XZ
        890  379 002AD6B0 ??1CUITextBox@@UAE@XZ
        891  37A 002AF9D0 ??1CUITextBoxEx@@UAE@XZ
        892  37B 002B1EE0 ??1CUITextEx@@UAE@XZ
        893  37C 002C8E80 ??1CUITree@@UAE@XZ
        894  37D 000AFD70 ??1CUITreeItem@@UAE@XZ
        895  37E 00380960 ??1CViewPort@@QAE@XZ
        896  37F 00546F60 ??1CWebAddress@@EAE@XZ
        897  380 004F0510 ??1CWildPetTarget@@UAE@XZ
        898  381 0041DE10 ??1CWorld@@QAE@XZ
        899  382 006D54F0 ??1CWorldTag@@UAE@XZ
        900  383 0041C580 ??1CZoneInfo@@UAE@XZ
        901  384 0022AAB0 ??1CharacterCreateNew@@UAE@XZ
        902  385 0000B060 ??1EBegin@@UAE@XZ
        903  386 0000B940 ??1EBlock@@UAE@XZ
        904  387 0000C4E0 ??1EDamage@@UAE@XZ
        905  388 0000C800 ??1EDeath@@UAE@XZ
        906  389 0000C320 ??1EFirstWorldBase@@UAE@XZ
        907  38A 0000AB50 ??1EInternal@@UAE@XZ
        908  38B 0000B6A0 ??1EPass@@UAE@XZ
        909  38C 0000CC50 ??1EPlayerInit@@UAE@XZ
        910  38D 0000C150 ??1EPostLevelChange@@UAE@XZ
        911  38E 0000BF80 ??1EPreLevelChange@@UAE@XZ
        912  38F 0000AEB0 ??1EReturn@@UAE@XZ
        913  390 0000CA80 ??1ETakingBreath@@UAE@XZ
        914  391 0000BDD0 ??1ETeleport@@UAE@XZ
        915  392 0000B210 ??1ETimer@@UAE@XZ
        916  393 0000B3C0 ??1ETouch@@UAE@XZ
        917  394 0000AD00 ??1EVoid@@UAE@XZ
        918  395 0000BC20 ??1EWouldFall@@UAE@XZ
        919  396 00106A40 ??1ExpressSystem@@UAE@XZ
        920  397 0026A1D0 ??1GameDataManager@@UAE@XZ
        921  398 00229E30 ??1LoginNew@@UAE@XZ
        922  399 00400DA0 ??1MappingSurface@@QAE@XZ
        923  39A 00627560 ??1MeshLOD@@QAE@XZ
        924  39B 001062D0 ??1MeshMorphMap@@QAE@XZ
        925  39C 00628370 ??1MeshSurface@@QAE@XZ
        926  39D 001060F0 ??1MeshUVMap@@QAE@XZ
        927  39E 00106200 ??1MeshWeightMap@@QAE@XZ
        928  39F 00400CD0 ??1ModelMipInfo@@QAE@XZ
        929  3A0 00400C60 ??1ModelPolygon@@QAE@XZ
        930  3A1 00172610 ??1MsgBoxMgr@@UAE@XZ
        931  3A2 000B6260 ??1MyInfo@@UAE@XZ
        932  3A3 000B5E20 ??1MyInfoSkill@@QAE@XZ
        933  3A4 001161D0 ??1Notice@@UAE@XZ
        934  3A5 000B67D0 ??1ObjInfo@@UAE@XZ
        935  3A6 000F79C0 ??1Party@@UAE@XZ
        936  3A7 00119C70 ??1PetStash@@UAE@XZ
        937  3A8 00351C00 ??1PolygonsPerPatch@@QAE@XZ
        938  3A9 001202F0 ??1Quest@@UAE@XZ
        939  3AA 00214180 ??1ServerInfo@@UAE@XZ
        940  3AB 00104570 ??1SkeletonLOD@@QAE@XZ
        941  3AC 0026E9E0 ??1StageMgr@@UAE@XZ
        942  3AD 0028E290 ??1UIFactory@@UAE@XZ
        943  3AE 00545700 ??1cThreadWrapper@@QAE@XZ
        944  3AF 00546190 ??1cWeb@@QAE@XZ
        945  3B0 000B21C0 ??4?$CSingletonBase@VActorMgr@@@@QAEAAV0@ABV0@@Z
        946  3B1 00218C70 ??4?$CSingletonBase@VCBackImageManager@@@@QAEAAV0@ABV0@@Z
        947  3B2 00112DB0 ??4?$CSingletonBase@VCInvenData@@@@QAEAAV0@ABV0@@Z
        948  3B3 00014B10 ??4?$CSingletonBase@VCJobInfo@@@@QAEAAV0@ABV0@@Z
        949  3B4 00166E30 ??4?$CSingletonBase@VCLoadingImage@@@@QAEAAV0@ABV0@@Z
        950  3B5 00223EE0 ??4?$CSingletonBase@VCLoginJobInfo@@@@QAEAAV0@ABV0@@Z
        951  3B6 000B5D40 ??4?$CSingletonBase@VCNoticeData@@@@QAEAAV0@ABV0@@Z
        952  3B7 0001AFE0 ??4?$CSingletonBase@VCUIFocus@@@@QAEAAV0@ABV0@@Z
        953  3B8 0001F050 ??4?$CSingletonBase@VCUIManager@@@@QAEAAV0@ABV0@@Z
        954  3B9 001DC1B0 ??4?$CSingletonBase@VCUISkillToolTip@@@@QAEAAV0@ABV0@@Z
        955  3BA 0001D500 ??4?$CSingletonBase@VCUISupport@@@@QAEAAV0@ABV0@@Z
        956  3BB 0001B230 ??4?$CSingletonBase@VCUITooltipMgr@@@@QAEAAV0@ABV0@@Z
        957  3BC 00546C50 ??4?$CSingletonBase@VCWebAddress@@@@QAEAAV0@ABV0@@Z
        958  3BD 000116B0 ??4?$CSingletonBase@VCZoneInfo@@@@QAEAAV0@ABV0@@Z
        959  3BE 000B3C70 ??4?$CSingletonBase@VGameDataManager@@@@QAEAAV0@ABV0@@Z
        960  3BF 000B40A0 ??4?$CSingletonBase@VMsgBoxMgr@@@@QAEAAV0@ABV0@@Z
        961  3C0 000B6180 ??4?$CSingletonBase@VMyInfo@@@@QAEAAV0@ABV0@@Z
        962  3C1 000B66F0 ??4?$CSingletonBase@VObjInfo@@@@QAEAAV0@ABV0@@Z
        963  3C2 002140A0 ??4?$CSingletonBase@VServerInfo@@@@QAEAAV0@ABV0@@Z
        964  3C3 00224170 ??4?$CSingletonBase@VStageMgr@@@@QAEAAV0@ABV0@@Z
        965  3C4 002732C0 ??4?$CSingletonBase@VStringLoader@@@@QAEAAV0@ABV0@@Z
        966  3C5 002962D0 ??4?$CSingletonBase@VUIFactory@@@@QAEAAV0@ABV0@@Z
        967  3C6 000B6E00 ??4?$CSingletonBase@VUtilHelp@@@@QAEAAV0@ABV0@@Z
        968  3C7 00014790 ??4?$LodLoader@VCItemData@@@@QAEAAV0@ABV0@@Z
        969  3C8 00011300 ??4?$LodLoader@VCMissionCase@@@@QAEAAV0@ABV0@@Z
        970  3C9 00010B80 ??4?$LodLoader@VCMobData@@@@QAEAAV0@ABV0@@Z
        971  3CA 00011100 ??4?$LodLoader@VCMobHelp@@@@QAEAAV0@ABV0@@Z
        972  3CB 0000EF50 ??4?$LodLoader@VCNickNameData@@@@QAEAAV0@ABV0@@Z
        973  3CC 00011050 ??4?$LodLoader@VCNpcHelp@@@@QAEAAV0@ABV0@@Z
        974  3CD 0000EBC0 ??4?$LodLoader@VCOptionData@@@@QAEAAV0@ABV0@@Z
        975  3CE 00011480 ??4?$LodLoader@VCWildPetData@@@@QAEAAV0@ABV0@@Z
        976  3CF 00027570 ??4?$queue@EV?$deque@EV?$allocator@E@std@@@std@@@std@@QAEAAV01@$$QAV01@@Z
        977  3D0 000274C0 ??4?$queue@EV?$deque@EV?$allocator@E@std@@@std@@@std@@QAEAAV01@ABV01@@Z
        978  3D1 000B2B00 ??4ActorMgr@@QAEAAV0@ABV0@@Z
        979  3D2 00014EA0 ??4ByteQueueData@@QAEAAV0@ABV0@@Z
        980  3D3 00015050 ??4CAffinityData@@QAEAAV0@ABV0@@Z
        981  3D4 001050D0 ??4CAnimEffect@@QAEAAV0@ABV0@@Z
        982  3D5 000B1610 ??4CAnimSet@@QAEAAV0@ABV0@@Z
        983  3D6 00005510 ??4CAnyProjection3D@@QAEXABV0@@Z
        984  3D7 000056E0 ??4CAnyProjection3D@@QAEXABVCIsometricProjection3D@@@Z
        985  3D8 00005780 ??4CAnyProjection3D@@QAEXABVCParallelProjection3D@@@Z
        986  3D9 00005730 ??4CAnyProjection3D@@QAEXABVCPerspectiveProjection3D@@@Z
        987  3DA 000056A0 ??4CAnyProjection3D@@QAEXABVCSimpleProjection3D@@@Z
        988  3DB 003E2990 ??4CAttachedModel@@QAEAAV0@ABV0@@Z
        989  3DC 00351F30 ??4CAttachedModelPosition@@QAEAAV0@ABV0@@Z
        990  3DD 003E2B20 ??4CAttachedSound@@QAEAAV0@ABV0@@Z
        991  3DE 003E23D0 ??4CAttachmentModelObject@@QAEAAV0@ABV0@@Z
        992  3DF 0041BBB0 ??4CAutoPrecacheModel@@QAEAAV0@ABV0@@Z
        993  3E0 0041BB80 ??4CAutoPrecacheSound@@QAEAAV0@ABV0@@Z
        994  3E1 0041BBE0 ??4CAutoPrecacheTexture@@QAEAAV0@ABV0@@Z
        995  3E2 00009930 ??4CBoolDefaultFalse@@QAEAAV0@ABV0@@Z
        996  3E3 00009830 ??4CBrush3D@@QAEAAV0@ABV0@@Z
        997  3E4 0041BE10 ??4CBrushArchive@@QAEAAV0@AAV0@@Z
        998  3E5 00007E60 ??4CBrushBase@@QAEAAV0@ABV0@@Z
        999  3E6 00008130 ??4CBrushEdge@@QAEAAV0@ABV0@@Z
       1000  3E7 00009670 ??4CBrushMip@@QAEAAV0@AAV0@@Z
       1001  3E8 00008060 ??4CBrushPlane@@QAEAAV0@ABV0@@Z
       1002  3E9 00009000 ??4CBrushPolygon@@QAEAAV0@ABV0@@Z
       1003  3EA 000084E0 ??4CBrushPolygonEdge@@QAEAAV0@ABV0@@Z
       1004  3EB 00008A90 ??4CBrushPolygonTexture@@QAEAAV0@ABV0@@Z
       1005  3EC 00A42400 ??4CBrushSector@@QAEAAV0@ABV0@@Z
       1006  3ED 00008610 ??4CBrushShadowLayer@@QAEAAV0@ABV0@@Z
       1007  3EE 000087C0 ??4CBrushShadowMap@@QAEAAV0@ABV0@@Z
       1008  3EF 00007FA0 ??4CBrushVertex@@QAEAAV0@ABV0@@Z
       1009  3F0 006711C0 ??4CCameraEffect@@IAEAAV0@ABV0@@Z
       1010  3F1 00011640 ??4CCashShopData@@QAEAAV0@ABV0@@Z
       1011  3F2 001064D0 ??4CCastRay@@QAEAAV0@ABV0@@Z
       1012  3F3 000057D0 ??4CChangeable@@QAEAAV0@ABV0@@Z
       1013  3F4 009E8A40 ??4CChangeableRT@@QAEAAV0@ABV0@@Z
       1014  3F5 00014D80 ??4CCharacterAnimation@@QAEAAV0@ABV0@@Z
       1015  3F6 00490360 ??4CCharacterTarget@@QAEAAV0@ABV0@@Z
       1016  3F7 00002EC0 ??4CChunkID@@QAEAAV0@ABV0@@Z
       1017  3F8 0043E6E0 ??4CCollisionInfo@@QAEAAV0@ABV0@@Z
       1018  3F9 0000E4C0 ??4CCommunicationInterface@@QAEAAV0@ABV0@@Z
       1019  3FA 003D5450 ??4CContentType@@QAEAAV0@ABV0@@Z
       1020  3FB 000B46F0 ??4CDLLEntityClass@@QAEAAV0@ABV0@@Z
       1021  3FC 000B46C0 ??4CDLLEntityEvent@@QAEAAV0@ABV0@@Z
       1022  3FD 0001CDF0 ??4CDamageLogInfo@@QAEAAV0@ABV0@@Z
       1023  3FE 00006030 ??4CDisplayMode@@QAEAAV0@ABV0@@Z
       1024  3FF 0030A5D0 ??4CDrawPort@@QAEAAV0@AAV0@@Z
       1025  400 003E3090 ??4CEditModel@@QAEAAV0@AAV0@@Z
       1026  401 0000F5E0 ??4CEffect@@IAEAAV0@AAV0@@Z
       1027  402 00676BD0 ??4CEffectControl@@QAEAAV0@ABV0@@Z
       1028  403 0000FBD0 ??4CEffectGroup@@IAEAAV0@AAV0@@Z
       1029  404 00012080 ??4CEffectGroupManager@@QAEAAV0@ABV0@@Z
       1030  405 004237A0 ??4CEffectManager@@QAEAAV0@ABV0@@Z
       1031  406 00014DB0 ??4CEnemyAnimation@@QAEAAV0@ABV0@@Z
       1032  407 0000CE50 ??4CEntity@@UAEAAV0@AAV0@@Z
       1033  408 00267FA0 ??4CEntityClass@@QAEAAV0@ABV0@@Z
       1034  409 000B4620 ??4CEntityComponent@@QAEAAV0@ABV0@@Z
       1035  40A 00689C60 ??4CEntityEffect@@IAEAAV0@ABV0@@Z
       1036  40B 00009A80 ??4CEntityEvent@@QAEAAV0@ABV0@@Z
       1037  40C 00591010 ??4CEntityID@@QAEABV0@AAV0@@Z
       1038  40D 00591060 ??4CEntityID@@QAEABV0@K@Z
       1039  40E 00590FB0 ??4CEntityID@@QAEABV0@PAVCEntity@@@Z
       1040  40F 0000E930 ??4CEntityMessage@@QAEAAV0@ABV0@@Z
       1041  410 000B4480 ??4CEntityProperty@@QAEAAV0@ABV0@@Z
       1042  411 0000A250 ??4CEntityTag@@QAEAAV0@ABV0@@Z
       1043  412 003D55D0 ??4CEnvironmentType@@QAEAAV0@ABV0@@Z
       1044  413 0054C4B0 ??4CFieldSettings@@QAEAAV0@ABV0@@Z
       1045  414 00005A90 ??4CFileNameNode@@QAEAAV0@ABV0@@Z
       1046  415 00277DA0 ??4CFontCharData@@QAEAAV0@ABV0@@Z
       1047  416 00278190 ??4CFontData@@QAEAAV0@ABV0@@Z
       1048  417 000B1B20 ??4CGameState@@QAEAAV0@ABV0@@Z
       1049  418 000067F0 ??4CGfxLibrary@@QAEAAV0@ABV0@@Z
       1050  419 0063F9D0 ??4CGroupTag@@QAEAAV0@ABV0@@Z
       1051  41A 003D56A0 ??4CIlluminationType@@QAEAAV0@ABV0@@Z
       1052  41B 0030A1F0 ??4CImageInfo@@QAEAAV0@ABV0@@Z
       1053  41C 002238E0 ??4CInput@@QAEAAV0@ABV0@@Z
       1054  41D 00222FA0 ??4CInputDevice@@QAEAAV0@ABV0@@Z
       1055  41E 002F3800 ??4CIntersector@@QAEAAV0@ABV0@@Z
       1056  41F 00112F40 ??4CInvenData@@QAEAAV0@ABV0@@Z
       1057  420 00004A10 ??4CIsometricProjection3D@@QAEAAV0@ABV0@@Z
       1058  421 005B3BA0 ??4CItemData@@QAEAAV0@ABV0@@Z
       1059  422 005BC630 ??4CItemEffect@@QAEAAV0@ABV0@@Z
       1060  423 000AD6F0 ??4CItemTarget@@QAEAAV0@ABV0@@Z
       1061  424 00014C40 ??4CJobInfo@@QAEAAV0@ABV0@@Z
       1062  425 00493B10 ??4CLastPositions@@QAEAAV0@ABV0@@Z
       1063  426 0054C6D0 ??4CLensFlareType@@QAEAAV0@ABV0@@Z
       1064  427 00264170 ??4CLevelUpGuide@@QAEAAV0@ABV0@@Z
       1065  428 0067E290 ??4CLightEffect@@QAEAAV0@AAV0@@Z
       1066  429 0041C360 ??4CLightSource@@QAEAAV0@ABV0@@Z
       1067  42A 000010D0 ??4CListHead@@QAEXABV0@@Z
       1068  42B 00001200 ??4CListNode@@QAEAAV0@ABV0@@Z
       1069  42C 0000DD60 ??4CLiveEntity@@QAEAAV0@AAV0@@Z
       1070  42D 001670B0 ??4CLoadingImage@@QAEAAV0@ABV0@@Z
       1071  42E 00224010 ??4CLoginJobInfo@@QAEAAV0@ABV0@@Z
       1072  42F 00003D50 ??4CMappingDefinition@@QAEAAV0@ABV0@@Z
       1073  430 00003C50 ??4CMappingDefinitionUI@@QAEAAV0@ABV0@@Z
       1074  431 003E2830 ??4CMappingUndo@@QAEAAV0@ABV0@@Z
       1075  432 00003CD0 ??4CMappingVectors@@QAEAAV0@ABV0@@Z
       1076  433 00563600 ??4CMdlEffect@@IAEAAV0@AAV0@@Z
       1077  434 001063D0 ??4CMesh@@QAEAAV0@ABV0@@Z
       1078  435 00011E00 ??4CMessageDispatcher@@QAEAAV0@ABV0@@Z
       1079  436 00351F60 ??4CMipInfo@@QAEAAV0@ABV0@@Z
       1080  437 00011400 ??4CMissionCase@@QAEAAV0@ABV0@@Z
       1081  438 00010D60 ??4CMobData@@QAEAAV0@ABV0@@Z
       1082  439 00011150 ??4CMobHelp@@QAEAAV0@ABV0@@Z
       1083  43A 004EA2F0 ??4CMobTarget@@QAEAAV0@ABV0@@Z
       1084  43B 00351E90 ??4CModelCollisionBox@@QAEAAV0@ABV0@@Z
       1085  43C 003FB690 ??4CModelData@@QAEAAV0@ABV0@@Z
       1086  43D 00352150 ??4CModelInfo@@QAEAAV0@ABV0@@Z
       1087  43E 00640220 ??4CModelInstance@@QAEXAAV0@@Z
       1088  43F 001052A0 ??4CModelInstanceSerial@@QAEAAV0@ABV0@@Z
       1089  440 003E20F0 ??4CModelObject@@QAEAAV0@ABV0@@Z
       1090  441 003515A0 ??4CModelPatch@@QAEAAV0@ABV0@@Z
       1091  442 003E2460 ??4CModelRenderPrefs@@QAEAAV0@ABV0@@Z
       1092  443 000B58A0 ??4CMovableBrushEntity@@QAEAAV0@AAV0@@Z
       1093  444 000B4F60 ??4CMovableEntity@@QAEAAV0@AAV0@@Z
       1094  445 000B56E0 ??4CMovableModelEntity@@QAEAAV0@AAV0@@Z
       1095  446 0043E5E0 ??4CMovingSphere@@QAEAAV0@ABV0@@Z
       1096  447 004EB3E0 ??4CNetworkMessage@@QAEXABV0@@Z
       1097  448 00011D20 ??4CNetworkProvider@@QAEAAV0@ABV0@@Z
       1098  449 00018190 ??4CNetworkSession@@QAEAAV0@ABV0@@Z
       1099  44A 00105510 ??4CNiceWater@@QAEAAV0@ABV0@@Z
       1100  44B 0000EFA0 ??4CNickNameData@@QAEAAV0@ABV0@@Z
       1101  44C 000110A0 ??4CNpcHelp@@QAEAAV0@ABV0@@Z
       1102  44D 002D55D0 ??4CObject3D@@QAEAAV0@AAV0@@Z
       1103  44E 002D4C20 ??4CObjectPolygon@@QAEAAV0@AAV0@@Z
       1104  44F 002D49F0 ??4CObjectPolygonEdge@@QAEAAV0@ABV0@@Z
       1105  450 002EA9F0 ??4CObjectSector@@QAEAAV0@AAV0@@Z
       1106  451 0054C5E0 ??4COneLensFlare@@QAEAAV0@ABV0@@Z
       1107  452 0000ED90 ??4COptionData@@QAEAAV0@ABV0@@Z
       1108  453 0068CF10 ??4COrbitEffect@@IAEAAV0@ABV0@@Z
       1109  454 00004B50 ??4CParallelProjection3D@@QAEAAV0@ABV0@@Z
       1110  455 00230AE0 ??4CParticle@@QAEAAV0@ABV0@@Z
       1111  456 00694310 ??4CParticleEffect@@IAEAAV0@AAV0@@Z
       1112  457 00423370 ??4CParticleGroup@@QAEAAV0@ABV0@@Z
       1113  458 00423620 ??4CParticleGroupManager@@QAEAAV0@ABV0@@Z
       1114  459 002312A0 ??4CParticlePrototype@@QAEAAV0@ABV0@@Z
       1115  45A 002317E0 ??4CParticles@@QAEAAV0@ABV0@@Z
       1116  45B 004227B0 ??4CParticlesAbsorption@@QAEAAV0@ABV0@@Z
       1117  45C 006BE030 ??4CParticlesAbsorptionDefault@@QAEAAV0@ABV0@@Z
       1118  45D 006BE1E0 ??4CParticlesAbsorptionSphere@@QAEAAV0@ABV0@@Z
       1119  45E 00231AC0 ??4CParticlesCommonProcess@@QAEAAV0@ABV0@@Z
       1120  45F 00422250 ??4CParticlesEmitter@@QAEAAV0@ABV0@@Z
       1121  460 006BDA70 ??4CParticlesEmitterCone@@QAEAAV0@ABV0@@Z
       1122  461 006BDE60 ??4CParticlesEmitterCylinder@@QAEAAV0@ABV0@@Z
       1123  462 006BD720 ??4CParticlesEmitterSphere@@QAEAAV0@ABV0@@Z
       1124  463 006BECF0 ??4CParticlesProcessControl@@QAEAAV0@ABV0@@Z
       1125  464 00693F10 ??4CParticlesProcessDynamicState@@QAEAAV0@ABV0@@Z
       1126  465 006BE560 ??4CParticlesProcessForce@@QAEAAV0@ABV0@@Z
       1127  466 006BEA20 ??4CParticlesProcessPointGoal@@QAEAAV0@ABV0@@Z
       1128  467 006BEF40 ??4CParticlesProcessVelocity@@QAEAAV0@ABV0@@Z
       1129  468 002F8340 ??4CPerspectiveProjection3D@@QAEAAV0@ABV0@@Z
       1130  469 00014DE0 ??4CPetAnimation@@QAEAAV0@ABV0@@Z
       1131  46A 00014D50 ??4CPetInfo@@QAEAAV0@ABV0@@Z
       1132  46B 004F0100 ??4CPetTarget@@QAEAAV0@ABV0@@Z
       1133  46C 00003F40 ??4CPlacement3D@@QAEAAV0@ABV0@@Z
       1134  46D 000025B0 ??4CPlayerAction@@QAEAAV0@ABV0@@Z
       1135  46E 005CBF90 ??4CPlayerCharacter@@QAEAAV0@ABV0@@Z
       1136  46F 000B5BA0 ??4CPlayerEntity@@QAEAAV0@AAV0@@Z
       1137  470 00493C20 ??4CPlayerSource@@QAEAAV0@ABV0@@Z
       1138  471 003E24D0 ??4CProgressRoutines@@QAEAAV0@ABV0@@Z
       1139  472 00004510 ??4CProjection3D@@QAEAAV0@ABV0@@Z
       1140  473 000135B0 ??4CQuestSystem@@QAEAAV0@ABV0@@Z
       1141  474 00230000 ??4CRandomTable@@QAEAAV0@ABV0@@Z
       1142  475 0000DFF0 ??4CRationalEntity@@QAEAAV0@AAV0@@Z
       1143  476 003E24A0 ??4CRenderModel@@QAEAAV0@ABV0@@Z
       1144  477 00007990 ??4CRenderTexture@@QAEAAV0@ABV0@@Z
       1145  478 00011B70 ??4CSelectedEntities@@QAEAAV0@ABV0@@Z
       1146  479 000058E0 ??4CSerial@@QAEAAV0@ABV0@@Z
       1147  47A 000AE610 ??4CServer@@QAEAAV0@ABV0@@Z
       1148  47B 000ADDF0 ??4CSessionState@@QAEAAV0@ABV0@@Z
       1149  47C 002D2620 ??4CSetFPUPrecision@@QAEAAV0@ABV0@@Z
       1150  47D 00105A30 ??4CShader@@QAEAAV0@ABV0@@Z
       1151  47E 00493A10 ??4CShadingInfo@@QAEAAV0@ABV0@@Z
       1152  47F 00007C10 ??4CShadowMap@@QAEAAV0@ABV0@@Z
       1153  480 002D4E00 ??4CShell@@QAEAAV0@AAV0@@Z
       1154  481 006A27A0 ??4CShockWaveEffect@@IAEAAV0@ABV0@@Z
       1155  482 00010FF0 ??4CShopData@@QAEAAV0@ABV0@@Z
       1156  483 00004C50 ??4CSimpleProjection3D@@QAEAAV0@ABV0@@Z
       1157  484 002D4F30 ??4CSimpleProjection3D_DOUBLE@@QAEAAV0@ABV0@@Z
       1158  485 00232AD0 ??4CSkaEffect@@IAEAAV0@AAV0@@Z
       1159  486 00104A60 ??4CSkaTag@@QAEAAV0@ABV0@@Z
       1160  487 001047F0 ??4CSkeleton@@QAEAAV0@ABV0@@Z
       1161  488 003AF290 ??4CSlaveInfo@@QAEAAV0@ABV0@@Z
       1162  489 00543880 ??4CSlaveTarget@@QAEAAV0@ABV0@@Z
       1163  48A 003D15E0 ??4CSoundData@@QAEAAV0@ABV0@@Z
       1164  48B 006ACA90 ??4CSoundEffect@@IAEAAV0@AAV0@@Z
       1165  48C 0001D2D0 ??4CSoundObject@@QAEAAV0@ABV0@@Z
       1166  48D 006AD850 ??4CSplineBillboardEffect@@IAEAAV0@AAV0@@Z
       1167  48E 006B15E0 ??4CSplinePathEffect@@IAEAAV0@ABV0@@Z
       1168  48F 005E2670 ??4CStatusEffect@@QAEAAV0@ABV0@@Z
       1169  490 003D5200 ??4CSurfaceType@@QAEAAV0@ABV0@@Z
       1170  491 00002E40 ??4CTFileName@@QAEAAV0@ABV0@@Z
       1171  492 009F5B30 ??4CTFileName@@QAEAAV0@PBD@Z
       1172  493 00002D70 ??4CTFileName@@QAEXABVCTString@@@Z
       1173  494 00002B50 ??4CTString@@QAEAAV0@ABV0@@Z
       1174  495 00002A40 ??4CTString@@QAEAAV0@PBD@Z
       1175  496 009F2780 ??4CTWString@@QAEAAV0@ABV0@@Z
       1176  497 009F29C0 ??4CTWString@@QAEAAV0@PBD@Z
       1177  498 009F28A0 ??4CTWString@@QAEAAV0@PBG@Z
       1178  499 00009FD0 ??4CTag@@QAEAAV0@ABV0@@Z
       1179  49A 0000A6D0 ??4CTagManager@@QAEAAV0@ABV0@@Z
       1180  49B 00352430 ??4CTerrain@@QAEAAV0@ABV0@@Z
       1181  49C 0041C0E0 ??4CTerrainArchive@@QAEAAV0@AAV0@@Z
       1182  49D 004BAEF0 ??4CTerrainEffect@@QAEAAV0@AAV0@@Z
       1183  49E 00607410 ??4CTerrainLayer@@QAEAAV0@ABV0@@Z
       1184  49F 003D5050 ??4CTextureBlending@@QAEAAV0@ABV0@@Z
       1185  4A0 000073F0 ??4CTextureData@@QAEAAV0@ABV0@@Z
       1186  4A1 003E2670 ??4CTextureDataInfo@@QAEAAV0@ABV0@@Z
       1187  4A2 00007830 ??4CTextureObject@@QAEAAV0@ABV0@@Z
       1188  4A3 003D4F70 ??4CTextureTransformation@@QAEAAV0@ABV0@@Z
       1189  4A4 003E2D10 ??4CThumbnailSettings@@QAEAAV0@ABV0@@Z
       1190  4A5 00005E70 ??4CTimer@@QAEAAV0@ABV0@@Z
       1191  4A6 006B6D80 ??4CTraceEffect@@IAEAAV0@AAV0@@Z
       1192  4A7 0015B370 ??4CTransformInfo@@QAEAAV0@ABV0@@Z
       1193  4A8 000ABD40 ??4CUIArray@@QAEAAV0@ABV0@@Z
       1194  4A9 000AC080 ??4CUIArrayItem@@QAEAAV0@ABV0@@Z
       1195  4AA 000B35D0 ??4CUIAutoHelp@@QAEAAV0@ABV0@@Z
       1196  4AB 00016680 ??4CUIBase@@QAEAAV0@ABV0@@Z
       1197  4AC 00017B90 ??4CUIButton@@QAEAAV0@ABV0@@Z
       1198  4AD 002BEEF0 ??4CUICashShopEX@@QAEAAV0@ABV0@@Z
       1199  4AE 0022F940 ??4CUICharacterCreateNew@@QAEAAV0@ABV0@@Z
       1200  4AF 00139450 ??4CUICharacterInfo@@QAEAAV0@ABV0@@Z
       1201  4B0 000A58A0 ??4CUICheckButton@@QAEAAV0@ABV0@@Z
       1202  4B1 000A6D90 ??4CUIComboBox@@QAEAAV0@ABV0@@Z
       1203  4B2 00019720 ??4CUIEditBox@@QAEAAV0@ABV0@@Z
       1204  4B3 00107F20 ??4CUIExpressSystem@@QAEAAV0@ABV0@@Z
       1205  4B4 0001B110 ??4CUIFocus@@QAEAAV0@ABV0@@Z
       1206  4B5 0015ADF0 ??4CUIGuildBattle@@QAEAAV0@ABV0@@Z
       1207  4B6 0001E0D0 ??4CUIIcon@@QAEAAV0@ABV0@@Z
       1208  4B7 000A9370 ??4CUIImage@@QAEAAV0@ABV0@@Z
       1209  4B8 000AC720 ??4CUIImageArray@@QAEAAV0@ABV0@@Z
       1210  4B9 000A8E10 ??4CUIImageBox@@QAEAAV0@ABV0@@Z
       1211  4BA 000AB710 ??4CUIImageFont@@QAEAAV0@ABV0@@Z
       1212  4BB 000AC9A0 ??4CUIImageSplit@@QAEAAV0@ABV0@@Z
       1213  4BC 000ACB40 ??4CUIImageText@@QAEAAV0@ABV0@@Z
       1214  4BD 000A9F40 ??4CUIList@@QAEAAV0@ABV0@@Z
       1215  4BE 000A7A50 ??4CUIListBox@@QAEAAV0@ABV0@@Z
       1216  4BF 000AA350 ??4CUIListItem@@QAEAAV0@ABV0@@Z
       1217  4C0 0022A820 ??4CUILoginNew@@QAEAAV0@ABV0@@Z
       1218  4C1 0001FF40 ??4CUIManager@@QAEAAV0@ABV0@@Z
       1219  4C2 000A81D0 ??4CUIMsgBox_Info@@QAEAAV0@ABV0@@Z
       1220  4C3 000A8920 ??4CUIMultiLineText@@QAEAAV0@ABV0@@Z
       1221  4C4 0026D2E0 ??4CUIOption@@QAEAAV0@ABV0@@Z
       1222  4C5 0011B7E0 ??4CUIPetStashSelectEffect@@QAEAAV0@ABV0@@Z
       1223  4C6 000AF8E0 ??4CUIProgressBar@@QAEAAV0@ABV0@@Z
       1224  4C7 0001A9B0 ??4CUIScrollBar@@QAEAAV0@ABV0@@Z
       1225  4C8 0083DB30 ??4CUISignBoard@@QAEAAV0@ABV0@@Z
       1226  4C9 0026C7D0 ??4CUISingleBattle@@QAEAAV0@ABV0@@Z
       1227  4CA 000A5000 ??4CUISlideBar@@QAEAAV0@ABV0@@Z
       1228  4CB 000A4980 ??4CUISpinButton@@QAEAAV0@ABV0@@Z
       1229  4CC 000B0550 ??4CUISpinControl@@QAEAAV0@ABV0@@Z
       1230  4CD 000AC3B0 ??4CUISpriteAni@@QAEAAV0@ABV0@@Z
       1231  4CE 000A9840 ??4CUITab@@QAEAAV0@ABV0@@Z
       1232  4CF 000A95A0 ??4CUITabPage@@QAEAAV0@ABV0@@Z
       1233  4D0 002CF790 ??4CUITatoo@@QAEAAV0@ABV0@@Z
       1234  4D1 000AA890 ??4CUIText@@QAEAAV0@ABV0@@Z
       1235  4D2 000AB100 ??4CUITextBox@@QAEAAV0@ABV0@@Z
       1236  4D3 000ACF10 ??4CUITextBoxEx@@QAEAAV0@ABV0@@Z
       1237  4D4 002AF740 ??4CUITextEx@@QAEAAV0@ABV0@@Z
       1238  4D5 000B01B0 ??4CUITree@@QAEAAV0@ABV0@@Z
       1239  4D6 000AFDE0 ??4CUITreeItem@@QAEAAV0@ABV0@@Z
       1240  4D7 003728A0 ??4CUpdateable@@QAEAAV0@ABV0@@Z
       1241  4D8 009E8A70 ??4CUpdateableRT@@QAEAAV0@ABV0@@Z
       1242  4D9 002D09C0 ??4CViewPort@@QAEAAV0@AAV0@@Z
       1243  4DA 00546DB0 ??4CWebAddress@@QAEAAV0@ABV0@@Z
       1244  4DB 000114D0 ??4CWildPetData@@QAEAAV0@ABV0@@Z
       1245  4DC 004F06C0 ??4CWildPetTarget@@QAEAAV0@ABV0@@Z
       1246  4DD 00444730 ??4CWorldRenderPrefs@@QAEAAV0@ABV0@@Z
       1247  4DE 0000FCE0 ??4CWorldTag@@QAEAAV0@ABV0@@Z
       1248  4DF 00011850 ??4CZoneInfo@@QAEAAV0@ABV0@@Z
       1249  4E0 0022AF90 ??4CharacterCreateNew@@QAEAAV0@ABV0@@Z
       1250  4E1 00015410 ??4Command@@QAEAAV0@ABV0@@Z
       1251  4E2 0000B0D0 ??4EBegin@@QAEAAV0@ABV0@@Z
       1252  4E3 0000BA60 ??4EBlock@@QAEAAV0@ABV0@@Z
       1253  4E4 0000C620 ??4EDamage@@QAEAAV0@ABV0@@Z
       1254  4E5 0000C8F0 ??4EDeath@@QAEAAV0@ABV0@@Z
       1255  4E6 0000C390 ??4EFirstWorldBase@@QAEAAV0@ABV0@@Z
       1256  4E7 0000ABC0 ??4EInternal@@QAEAAV0@ABV0@@Z
       1257  4E8 0000B7A0 ??4EPass@@QAEAAV0@ABV0@@Z
       1258  4E9 0000CCE0 ??4EPlayerInit@@QAEAAV0@ABV0@@Z
       1259  4EA 0000C1D0 ??4EPostLevelChange@@QAEAAV0@ABV0@@Z
       1260  4EB 0000C000 ??4EPreLevelChange@@QAEAAV0@ABV0@@Z
       1261  4EC 0000AF20 ??4EReturn@@QAEAAV0@ABV0@@Z
       1262  4ED 0000CB00 ??4ETakingBreath@@QAEAAV0@ABV0@@Z
       1263  4EE 0000BE40 ??4ETeleport@@QAEAAV0@ABV0@@Z
       1264  4EF 0000B280 ??4ETimer@@QAEAAV0@ABV0@@Z
       1265  4F0 0000B4E0 ??4ETouch@@QAEAAV0@ABV0@@Z
       1266  4F1 0000AD70 ??4EVoid@@QAEAAV0@ABV0@@Z
       1267  4F2 0000BC90 ??4EWouldFall@@QAEAAV0@ABV0@@Z
       1268  4F3 001043A0 ??4ExpressSystem@@QAEAAV0@ABV0@@Z
       1269  4F4 000B3E90 ??4GameDataManager@@QAEAAV0@ABV0@@Z
       1270  4F5 001BDDA0 ??4ItemHelp@@QAEAAV0@ABV0@@Z
       1271  4F6 0022A550 ??4LoginNew@@QAEAAV0@ABV0@@Z
       1272  4F7 00351AB0 ??4MappingSurface@@QAEAAU0@ABU0@@Z
       1273  4F8 00627A80 ??4MeshLOD@@QAEXABU0@@Z
       1274  4F9 00106300 ??4MeshMorphMap@@QAEAAU0@ABU0@@Z
       1275  4FA 00106050 ??4MeshNormal@@QAEAAU0@ABU0@@Z
       1276  4FB 00628420 ??4MeshSurface@@QAEXABU0@@Z
       1277  4FC 00105FE0 ??4MeshTangent@@QAEAAU0@ABU0@@Z
       1278  4FD 00106170 ??4MeshTexCoord@@QAEAAU0@ABU0@@Z
       1279  4FE 001061A0 ??4MeshTriangle@@QAEAAU0@ABU0@@Z
       1280  4FF 00106120 ??4MeshUVMap@@QAEAAU0@ABU0@@Z
       1281  500 00106020 ??4MeshVertex@@QAEAAU0@ABU0@@Z
       1282  501 00106350 ??4MeshVertexMorph@@QAEAAU0@ABU0@@Z
       1283  502 00106270 ??4MeshVertexWeight@@QAEAAU0@ABU0@@Z
       1284  503 00106080 ??4MeshVertexWeightInfo@@QAEAAU0@ABU0@@Z
       1285  504 00106230 ??4MeshWeightMap@@QAEAAU0@ABU0@@Z
       1286  505 00351850 ??4ModelFrameInfo@@QAEAAU0@ABU0@@Z
       1287  506 003517F0 ??4ModelFrameVertex16@@QAEAAU0@ABU0@@Z
       1288  507 00351790 ??4ModelFrameVertex16_old@@QAEAAU0@ABU0@@Z
       1289  508 00351730 ??4ModelFrameVertex8@@QAEAAU0@ABU0@@Z
       1290  509 00351600 ??4ModelMipInfo@@QAEAAU0@ABU0@@Z
       1291  50A 003518F0 ??4ModelPolygon@@QAEAAU0@ABU0@@Z
       1292  50B 003518C0 ??4ModelPolygonVertex@@QAEAAU0@ABU0@@Z
       1293  50C 00351890 ??4ModelTextureVertex@@QAEAAU0@ABU0@@Z
       1294  50D 000B4260 ??4MsgBoxMgr@@QAEAAV0@ABV0@@Z
       1295  50E 000B6380 ??4MyInfo@@QAEAAV0@ABV0@@Z
       1296  50F 000B5F60 ??4MyInfoSkill@@QAEAAV0@ABV0@@Z
       1297  510 00115F90 ??4Notice@@QAEAAV0@ABV0@@Z
       1298  511 000B6970 ??4ObjInfo@@QAEAAV0@ABV0@@Z
       1299  512 000B0EB0 ??4Party@@QAEAAV0@ABV0@@Z
       1300  513 00119A70 ??4PetStash@@QAEAAV0@ABV0@@Z
       1301  514 00351D20 ??4PolygonsPerPatch@@QAEAAU0@ABU0@@Z
       1302  515 00122DF0 ??4Quest@@QAEAAV0@ABV0@@Z
       1303  516 00214220 ??4ServerInfo@@QAEAAV0@ABV0@@Z
       1304  517 00104730 ??4SkeletonBone@@QAEAAU0@ABU0@@Z
       1305  518 00104690 ??4SkeletonLOD@@QAEAAU0@ABU0@@Z
       1306  519 00224300 ??4StageMgr@@QAEAAV0@ABV0@@Z
       1307  51A 00351D90 ??4TransformedVertexData@@QAEAAU0@ABU0@@Z
       1308  51B 002963F0 ??4UIFactory@@QAEAAV0@ABV0@@Z
       1309  51C 00A90390 ??4_Init_locks@std@@QAEAAV01@ABV01@@Z
       1310  51D 00018C10 ??4cThreadWrapper@@QAEAAV0@ABV0@@Z
       1311  51E 001E4D70 ??4cWeb@@QAEAAV0@ABV0@@Z
       1312  51F 002FFB30 ??5@YAAAVCTStream@@AAV0@AAVCMappingDefinition@@@Z
       1313  520 002F1F60 ??5@YAAAVCTStream@@AAV0@AAVCPlacement3D@@@Z
       1314  521 005CC110 ??5@YAAAVCTStream@@AAV0@AAVCPlayerCharacter@@@Z
       1315  522 009F6020 ??5@YAAAVCTStream@@AAV0@AAVCTFileName@@@Z
       1316  523 009EE2A0 ??5@YAAAVCTStream@@AAV0@AAVCTString@@@Z
       1317  524 00002130 ??5CNetworkMessage@@QAEAAV0@AAC@Z
       1318  525 00002060 ??5CNetworkMessage@@QAEAAV0@AAE@Z
       1319  526 000020E0 ??5CNetworkMessage@@QAEAAV0@AAF@Z
       1320  527 00002010 ??5CNetworkMessage@@QAEAAV0@AAG@Z
       1321  528 00001F70 ??5CNetworkMessage@@QAEAAV0@AAH@Z
       1322  529 00002090 ??5CNetworkMessage@@QAEAAV0@AAJ@Z
       1323  52A 00001FC0 ??5CNetworkMessage@@QAEAAV0@AAK@Z
       1324  52B 00001F10 ??5CNetworkMessage@@QAEAAV0@AAM@Z
       1325  52C 00001F40 ??5CNetworkMessage@@QAEAAV0@AAN@Z
       1326  52D 004EBAA0 ??5CNetworkMessage@@QAEAAV0@AAVCTString@@@Z
       1327  52E 00002160 ??5CNetworkMessage@@QAEAAV0@AA_J@Z
       1328  52F 00003210 ??5CTStream@@QAEAAV0@AAC@Z
       1329  530 00003180 ??5CTStream@@QAEAAV0@AAE@Z
       1330  531 000031E0 ??5CTStream@@QAEAAV0@AAF@Z
       1331  532 00003150 ??5CTStream@@QAEAAV0@AAG@Z
       1332  533 00003240 ??5CTStream@@QAEAAV0@AAH@Z
       1333  534 000031B0 ??5CTStream@@QAEAAV0@AAJ@Z
       1334  535 00003120 ??5CTStream@@QAEAAV0@AAK@Z
       1335  536 000030C0 ??5CTStream@@QAEAAV0@AAM@Z
       1336  537 000030F0 ??5CTStream@@QAEAAV0@AAN@Z
       1337  538 00003270 ??5CTStream@@QAEAAV0@AA_J@Z
       1338  539 005CC0F0 ??6@YAAAVCTStream@@AAV0@AAVCPlayerCharacter@@@Z
       1339  53A 002FFB50 ??6@YAAAVCTStream@@AAV0@ABVCMappingDefinition@@@Z
       1340  53B 002F1F80 ??6@YAAAVCTStream@@AAV0@ABVCPlacement3D@@@Z
       1341  53C 009F65D0 ??6@YAAAVCTStream@@AAV0@ABVCTFileName@@@Z
       1342  53D 009EE630 ??6@YAAAVCTStream@@AAV0@ABVCTString@@@Z
       1343  53E 00002380 ??6CNetworkMessage@@QAEAAV0@ABC@Z
       1344  53F 000022B0 ??6CNetworkMessage@@QAEAAV0@ABE@Z
       1345  540 000021B0 ??6CNetworkMessage@@QAEAAV0@ABM@Z
       1346  541 000021E0 ??6CNetworkMessage@@QAEAAV0@ABN@Z
       1347  542 004EBBC0 ??6CNetworkMessage@@QAEAAV0@ABVCTString@@@Z
       1348  543 00002330 ??6CNetworkMessage@@QAEAAV0@F@Z
       1349  544 00002260 ??6CNetworkMessage@@QAEAAV0@G@Z
       1350  545 000022E0 ??6CNetworkMessage@@QAEAAV0@J@Z
       1351  546 00002210 ??6CNetworkMessage@@QAEAAV0@K@Z
       1352  547 000023B0 ??6CNetworkMessage@@QAEAAV0@_J@Z
       1353  548 000033F0 ??6CTStream@@QAEAAV0@ABC@Z
       1354  549 00003360 ??6CTStream@@QAEAAV0@ABE@Z
       1355  54A 000033C0 ??6CTStream@@QAEAAV0@ABF@Z
       1356  54B 00003330 ??6CTStream@@QAEAAV0@ABG@Z
       1357  54C 00003420 ??6CTStream@@QAEAAV0@ABH@Z
       1358  54D 00003390 ??6CTStream@@QAEAAV0@ABJ@Z
       1359  54E 00003300 ??6CTStream@@QAEAAV0@ABK@Z
       1360  54F 000032A0 ??6CTStream@@QAEAAV0@ABM@Z
       1361  550 000032D0 ??6CTStream@@QAEAAV0@ABN@Z
       1362  551 00003450 ??6CTStream@@QAEAAV0@AB_J@Z
       1363  552 009ECAA0 ??8@YAHPBDABVCTString@@@Z
       1364  553 00002FE0 ??8CChunkID@@QBEHABV0@@Z
       1365  554 00004010 ??8CPlacement3D@@QBEHABV0@@Z
       1366  555 005CC090 ??8CPlayerCharacter@@QBEHABV0@@Z
       1367  556 009EC900 ??8CTString@@QBEHABV0@@Z
       1368  557 009EC9D0 ??8CTString@@QBEHPBD@Z
       1369  558 009F2AE0 ??8CTWString@@QBEHABV0@@Z
       1370  559 009F2BB0 ??8CTWString@@QBEHPBG@Z
       1371  55A 003FD1A0 ??8MappingSurface@@QBEHABU0@@Z
       1372  55B 009ECCD0 ??9@YAHPBDABVCTString@@@Z
       1373  55C 002D3EC0 ??9@YAXAAV?$Matrix@N$02$02@@ABV?$Vector@M$02@@@Z
       1374  55D 00003010 ??9CChunkID@@QBEHABV0@@Z
       1375  55E 009ECB50 ??9CTString@@QBEHABV0@@Z
       1376  55F 009ECC10 ??9CTString@@QBEHPBD@Z
       1377  560 009F2C80 ??9CTWString@@QBEHABV0@@Z
       1378  561 009F2D40 ??9CTWString@@QBEHPBG@Z
       1379  562 002316C0 ??ACParticles@@QAEAAVCParticle@@I@Z
       1380  563 000054F0 ??BCAnyProjection3D@@QAEPAVCProjection3D@@XZ
       1381  564 00002EA0 ??BCChunkID@@QAEPADXZ
       1382  565 00002E80 ??BCChunkID@@QBEPBDXZ
       1383  566 005910F0 ??BCEntityID@@QBEPAVCEntity@@XZ
       1384  567 000029A0 ??BCTString@@QBEPBDXZ
       1385  568 008BA240 ??BCTWString@@QBEPBGXZ
       1386  569 000054D0 ??CCAnyProjection3D@@QAEPAVCProjection3D@@XZ
       1387  56A 005910C0 ??CCEntityID@@QAEPAVCEntity@@XZ
       1388  56B 00591120 ??DCEntityID@@QAEAAVCEntity@@XZ
       1389  56C 009ED0D0 ??H@YA?AVCTString@@PBDABV0@@Z
       1390  56D 009ECFC0 ??HCTString@@QBE?AV0@ABV0@@Z
       1391  56E 009F2E00 ??HCTWString@@QBE?AV0@ABV0@@Z
       1392  56F 009ED1D0 ??YCTString@@QAEAAV0@ABV0@@Z
       1393  570 009F3010 ??YCTWString@@QAEAAV0@ABV0@@Z
       1394  571 002D3AF0 ??_6@YAXAAV?$Matrix@N$02$02@@ABV?$Vector@M$02@@@Z
       1395  572 002D4290 ??_6@YAXAAV?$Vector@M$02@@ABV?$Matrix@N$02$02@@@Z
       1396  573 00CD40E4 ??_7?$CSingletonBase@VActorMgr@@@@6B@
       1397  574 00D3EE44 ??_7?$CSingletonBase@VCBackImageManager@@@@6B@
       1398  575 00CE1E04 ??_7?$CSingletonBase@VCInvenData@@@@6B@
       1399  576 00CC0A04 ??_7?$CSingletonBase@VCJobInfo@@@@6B@
       1400  577 00CFDAE0 ??_7?$CSingletonBase@VCLoadingImage@@@@6B@
       1401  578 00D43340 ??_7?$CSingletonBase@VCLoginJobInfo@@@@6B@
       1402  579 00CD48FC ??_7?$CSingletonBase@VCNoticeData@@@@6B@
       1403  57A 00CC1010 ??_7?$CSingletonBase@VCUIFocus@@@@6B@
       1404  57B 00CC11F0 ??_7?$CSingletonBase@VCUIManager@@@@6B@
       1405  57C 00D2078C ??_7?$CSingletonBase@VCUISkillToolTip@@@@6B@
       1406  57D 00CC10B0 ??_7?$CSingletonBase@VCUISupport@@@@6B@
       1407  57E 00CC1018 ??_7?$CSingletonBase@VCUITooltipMgr@@@@6B@
       1408  57F 00E5A628 ??_7?$CSingletonBase@VCWebAddress@@@@6B@
       1409  580 00CC0908 ??_7?$CSingletonBase@VCZoneInfo@@@@6B@
       1410  581 00CD40F4 ??_7?$CSingletonBase@VGameDataManager@@@@6B@
       1411  582 00CD4104 ??_7?$CSingletonBase@VMsgBoxMgr@@@@6B@
       1412  583 00CD4904 ??_7?$CSingletonBase@VMyInfo@@@@6B@
       1413  584 00CD4914 ??_7?$CSingletonBase@VObjInfo@@@@6B@
       1414  585 00D3C614 ??_7?$CSingletonBase@VServerInfo@@@@6B@
       1415  586 00D43350 ??_7?$CSingletonBase@VStageMgr@@@@6B@
       1416  587 00D6D17C ??_7?$CSingletonBase@VStringLoader@@@@6B@
       1417  588 00D7DFC4 ??_7?$CSingletonBase@VUIFactory@@@@6B@
       1418  589 00CD4924 ??_7?$CSingletonBase@VUtilHelp@@@@6B@
       1419  58A 00CD40EC ??_7ActorMgr@@6B@
       1420  58B 00CC0A14 ??_7ByteQueueData@@6B@
       1421  58C 00CC0A1C ??_7CAffinityData@@6B@
       1422  58D 00CD40C0 ??_7CAnimSet@@6B@
       1423  58E 00CC0214 ??_7CBrush3D@@6B@
       1424  58F 00DFEDF0 ??_7CBrushArchive@@6B@
       1425  590 00CC01F0 ??_7CBrushBase@@6B@
       1426  591 00CC01F8 ??_7CBrushShadowMap@@6B@
       1427  592 00ECA838 ??_7CCameraEffect@@6B@
       1428  593 00E2C108 ??_7CCharacterTarget@@6B@
       1429  594 00CC1020 ??_7CDamageLogInfo@@6B@
       1430  595 00DED9C4 ??_7CEditModel@@6B@
       1431  596 00CC0894 ??_7CEffect@@6B@
       1432  597 00D50750 ??_7CEffectControl@@6B@
       1433  598 00CC04B4 ??_7CEntity@@6B@
       1434  599 00D5BE70 ??_7CEntityClass@@6B@
       1435  59A 00ECE654 ??_7CEntityEffect@@6B@
       1436  59B 00CC021C ??_7CEntityEvent@@6B@
       1437  59C 00CC023C ??_7CEntityTag@@6B@
       1438  59D 00D70574 ??_7CFontData@@6B@
       1439  59E 00EBDF4C ??_7CGroupTag@@6B@
       1440  59F 00CE1E0C ??_7CInvenData@@6B@
       1441  5A0 00CBFE84 ??_7CIsometricProjection3D@@6B@
       1442  5A1 00CD3BB4 ??_7CItemTarget@@6B@
       1443  5A2 00CC0A0C ??_7CJobInfo@@6B@
       1444  5A3 00ECBD9C ??_7CLightEffect@@6B@
       1445  5A4 00CC060C ??_7CLiveEntity@@6B@
       1446  5A5 00CFDAE8 ??_7CLoadingImage@@6B?$CSingletonBase@VCLoadingImage@@@@@
       1447  5A6 00CFDAF4 ??_7CLoadingImage@@6BCUIBase@@@
       1448  5A7 00D43348 ??_7CLoginJobInfo@@6B@
       1449  5A8 00E65240 ??_7CMdlEffect@@6B@
       1450  5A9 00CE12F0 ??_7CMesh@@6B@
       1451  5AA 00E458B0 ??_7CMobTarget@@6B@
       1452  5AB 00DF47D4 ??_7CModelData@@6B@
       1453  5AC 00CE12A0 ??_7CModelInstanceSerial@@6B@
       1454  5AD 00CD43DC ??_7CMovableBrushEntity@@6B@
       1455  5AE 00CD4114 ??_7CMovableEntity@@6B@
       1456  5AF 00CD4274 ??_7CMovableModelEntity@@6B@
       1457  5B0 00CE12C4 ??_7CNiceWater@@6B@
       1458  5B1 00ED1B70 ??_7COrbitEffect@@6B@
       1459  5B2 00CBFED4 ??_7CParallelProjection3D@@6B@
       1460  5B3 00ED3E2C ??_7CParticleEffect@@6B@
       1461  5B4 00DFEE58 ??_7CParticlesAbsorption@@6B@
       1462  5B5 00EDD7C8 ??_7CParticlesAbsorptionDefault@@6B@
       1463  5B6 00EDD7E0 ??_7CParticlesAbsorptionSphere@@6B@
       1464  5B7 00D5072C ??_7CParticlesCommonProcess@@6B@
       1465  5B8 00DFEE3C ??_7CParticlesEmitter@@6B@
       1466  5B9 00EDD790 ??_7CParticlesEmitterCone@@6B@
       1467  5BA 00EDD7AC ??_7CParticlesEmitterCylinder@@6B@
       1468  5BB 00EDD774 ??_7CParticlesEmitterSphere@@6B@
       1469  5BC 00EDD840 ??_7CParticlesProcessControl@@6B@
       1470  5BD 00ED3E08 ??_7CParticlesProcessDynamicState@@6B@
       1471  5BE 00EDD7F8 ??_7CParticlesProcessForce@@6B@
       1472  5BF 00EDD81C ??_7CParticlesProcessPointGoal@@6B@
       1473  5C0 00EDD864 ??_7CParticlesProcessVelocity@@6B@
       1474  5C1 00CBFE34 ??_7CPerspectiveProjection3D@@6B@
       1475  5C2 00E47CA0 ??_7CPetTarget@@6B@
       1476  5C3 00CD453C ??_7CPlayerEntity@@6B@
       1477  5C4 00CBFDE4 ??_7CProjection3D@@6B@
       1478  5C5 00CC073C ??_7CRationalEntity@@6B@
       1479  5C6 00CBFFFC ??_7CSerial@@6B@
       1480  5C7 00CE12CC ??_7CShader@@6B@
       1481  5C8 00CC0180 ??_7CShadowMap@@6B@
       1482  5C9 00ED7054 ??_7CShockWaveEffect@@6B@
       1483  5CA 00CBFF24 ??_7CSimpleProjection3D@@6B@
       1484  5CB 00D50758 ??_7CSkaEffect@@6B@
       1485  5CC 00CE1294 ??_7CSkaTag@@6B@
       1486  5CD 00CE1270 ??_7CSkeleton@@6B@
       1487  5CE 00E577B8 ??_7CSlaveTarget@@6B@
       1488  5CF 00DE34F4 ??_7CSoundData@@6B@
       1489  5D0 00ED959C ??_7CSoundEffect@@6B@
       1490  5D1 00EDADC4 ??_7CSplineBillboardEffect@@6B@
       1491  5D2 00EDB198 ??_7CSplinePathEffect@@6B@
       1492  5D3 00CBFD04 ??_7CTFileStream@@6B@
       1493  5D4 00CBFD20 ??_7CTMemoryStream@@6B@
       1494  5D5 00CBFCE8 ??_7CTStream@@6B@
       1495  5D6 00CC0230 ??_7CTag@@6B@
       1496  5D7 00DC7968 ??_7CTerrain@@6B@
       1497  5D8 00DFEE14 ??_7CTerrainArchive@@6B@
       1498  5D9 00E36BC0 ??_7CTerrainEffect@@6B@
       1499  5DA 00CC00E0 ??_7CTextureData@@6B@
       1500  5DB 00EDD0F4 ??_7CTraceEffect@@6B@
       1501  5DC 00CD34EC ??_7CUIArray@@6B@
       1502  5DD 00CD35E4 ??_7CUIArrayItem@@6B@
       1503  5DE 00CC0A2C ??_7CUIBase@@6B@
       1504  5DF 00CC0B24 ??_7CUIButton@@6B@
       1505  5E0 00D9652C ??_7CUICashShopEX@@6B@
       1506  5E1 00D505EC ??_7CUICharacterCreateNew@@6B@
       1507  5E2 00CEDCF4 ??_7CUICharacterInfo@@6B@
       1508  5E3 00CD27AC ??_7CUICheckButton@@6B@
       1509  5E4 00CD28EC ??_7CUIComboBox@@6B@
       1510  5E5 00CC0D9C ??_7CUIEditBox@@6B@
       1511  5E6 00CE131C ??_7CUIExpressSystem@@6B@
       1512  5E7 00CC1008 ??_7CUIFocus@@6B@
       1513  5E8 00CFB4AC ??_7CUIGuildBattle@@6B@
       1514  5E9 00CC10BC ??_7CUIIcon@@6B@
       1515  5EA 00CD2D2C ??_7CUIImage@@6B@
       1516  5EB 00CD37D4 ??_7CUIImageArray@@6B@
       1517  5EC 00CD2BF4 ??_7CUIImageBox@@6B@
       1518  5ED 00CD33F4 ??_7CUIImageFont@@6B@
       1519  5EE 00CD38CC ??_7CUIImageSplit@@6B@
       1520  5EF 00CD39C4 ??_7CUIImageText@@6B@
       1521  5F0 00CD3014 ??_7CUIList@@6B@
       1522  5F1 00CD2ABC ??_7CUIListBox@@6B@
       1523  5F2 00CD310C ??_7CUIListItem@@6B@
       1524  5F3 00D48E94 ??_7CUILoginNew@@6B@
       1525  5F4 00CC11F8 ??_7CUIManager@@6B?$CSingletonBase@VCUIManager@@@@@
       1526  5F5 00CC1204 ??_7CUIManager@@6BCUIWindowDeclare@@@
       1527  5F6 00D66144 ??_7CUIOption@@6B@
       1528  5F7 00CE675C ??_7CUIPetStashSelectEffect@@6B@
       1529  5F8 00CD3C5C ??_7CUIProgressBar@@6B@
       1530  5F9 00CC0ED4 ??_7CUIScrollBar@@6B@
       1531  5FA 00D6600C ??_7CUISingleBattle@@6B@
       1532  5FB 00CD2674 ??_7CUISlideBar@@6B@
       1533  5FC 00CD253C ??_7CUISpinButton@@6B@
       1534  5FD 00CD3F84 ??_7CUISpinControl@@6B@
       1535  5FE 00CD36DC ??_7CUISpriteAni@@6B@
       1536  5FF 00CD2F1C ??_7CUITab@@6B@
       1537  600 00CD2E24 ??_7CUITabPage@@6B@
       1538  601 00D9B034 ??_7CUITatoo@@6B@
       1539  602 00CD3204 ??_7CUIText@@6B@
       1540  603 00CD32FC ??_7CUITextBox@@6B@
       1541  604 00CD3ABC ??_7CUITextBoxEx@@6B@
       1542  605 00D92EC4 ??_7CUITextEx@@6B@
       1543  606 00CD3E8C ??_7CUITree@@6B@
       1544  607 00CD3D94 ??_7CUITreeItem@@6B@
       1545  608 00E5A630 ??_7CWebAddress@@6B@
       1546  609 00E47CA8 ??_7CWildPetTarget@@6B@
       1547  60A 00CC08DC ??_7CWorldTag@@6B@
       1548  60B 00CC0910 ??_7CZoneInfo@@6B@
       1549  60C 00D4B208 ??_7CharacterCreateNew@@6B@
       1550  60D 00CC0A24 ??_7Command@@6B@
       1551  60E 00CC0348 ??_7EBegin@@6B@
       1552  60F 00CC0398 ??_7EBlock@@6B@
       1553  610 00CC0410 ??_7EDamage@@6B@
       1554  611 00CC0424 ??_7EDeath@@6B@
       1555  612 00CC03FC ??_7EFirstWorldBase@@6B@
       1556  613 00CC030C ??_7EInternal@@6B@
       1557  614 00CC0384 ??_7EPass@@6B@
       1558  615 00CC044C ??_7EPlayerInit@@6B@
       1559  616 00CC03E8 ??_7EPostLevelChange@@6B@
       1560  617 00CC03D4 ??_7EPreLevelChange@@6B@
       1561  618 00CC0334 ??_7EReturn@@6B@
       1562  619 00CC0438 ??_7ETakingBreath@@6B@
       1563  61A 00CC03C0 ??_7ETeleport@@6B@
       1564  61B 00CC035C ??_7ETimer@@6B@
       1565  61C 00CC0370 ??_7ETouch@@6B@
       1566  61D 00CC0320 ??_7EVoid@@6B@
       1567  61E 00CC03AC ??_7EWouldFall@@6B@
       1568  61F 00CE1268 ??_7ExpressSystem@@6B@
       1569  620 00CD40FC ??_7GameDataManager@@6B@
       1570  621 00D48E8C ??_7LoginNew@@6B@
       1571  622 00CD410C ??_7MsgBoxMgr@@6B@
       1572  623 00CD490C ??_7MyInfo@@6B@
       1573  624 00CE3280 ??_7Notice@@6B@
       1574  625 00CD491C ??_7ObjInfo@@6B@
       1575  626 00CD40B8 ??_7Party@@6B@
       1576  627 00CE6750 ??_7PetStash@@6B@
       1577  628 00CE83C8 ??_7Quest@@6B@
       1578  629 00D3C61C ??_7ServerInfo@@6B@
       1579  62A 00D43358 ??_7StageMgr@@6B@
       1580  62B 00D7DFCC ??_7UIFactory@@6B@
       1581  62C 011C4064 ??_B?1??GetString@CUIManager@@QAEAAVCTString@@J@Z@51
       1582  62D 00002EF0 ??_FCChunkID@@QAEXXZ
       1583  62E 002F3830 ??_FCIntersector@@QAEXXZ
       1584  62F 00005F70 ??_FCTimer@@QAEXXZ
       1585  630 002F1FA0 ?AbsoluteToRelative@CPlacement3D@@QAEXABV1@@Z
       1586  631 002F20F0 ?AbsoluteToRelativeSmooth@CPlacement3D@@QAEXABV1@@Z
       1587  632 00009DF0 ?Activate@CTag@@QAEXXZ
       1588  633 003EF390 ?ActivateNextCollisionBox@CEditModel@@QAEXXZ
       1589  634 003EF340 ?ActivatePreviousCollisionBox@CEditModel@@QAEXXZ
       1590  635 0000F940 ?Active@CEffectGroup@@QAEHXZ
       1591  636 00009E60 ?Active@CTag@@QAEHXZ
       1592  637 004F72B0 ?ActiveRemoteSessions@CServer@@QAEJXZ
       1593  638 004EAB80 ?Add@CSelectedEntities@@QAEXPAVCEntity@@@Z
       1594  639 005BCB40 ?AddAccessoryEffect@CItemEffect@@QAEHPBDPAVCTagManager@@@Z
       1595  63A 004A79D0 ?AddAffinityRewardNPC@CNetworkLibrary@@QAEXH@Z
       1596  63B 00A000A0 ?AddAfter@CListNode@@QAEXAAV1@@Z
       1597  63C 0045E080 ?AddAllSectorsOfBrush@CCastRay@@QAEXPAVCBrush3D@@@Z
       1598  63D 00231E60 ?AddAlpha@CEffectControl@@QAEIME@Z
       1599  63E 006935B0 ?AddAlpha@CParticlesProcessDynamicState@@QAEIME@Z
       1600  63F 0035F450 ?AddAlphaChannel@@YAXPAEPAKJ0@Z
       1601  640 00232360 ?AddAngle@CEffectControl@@QAEIMV?$Vector@M$02@@@Z
       1602  641 00693C00 ?AddAngle@CParticlesProcessDynamicState@@QAEIMV?$Vector@M$02@@@Z
       1603  642 00646200 ?AddAnimEffect@CModelInstance@@QAEXABVCTString@@0MK@Z
       1604  643 00641B00 ?AddAnimSet_t@CModelInstance@@QAEXABVCTFileName@@@Z
       1605  644 009E5860 ?AddAnimation@CAnimData@@QAEXXZ
       1606  645 00624100 ?AddAnimation@CAnimSet@@QAEXPAUAnimation@@@Z
       1607  646 0059C040 ?AddAnimation@CEntity@@QAEXJKMJJM@Z
       1608  647 00642480 ?AddAnimation@CModelInstance@@QAEXJKMJM@Z
       1609  648 006427C0 ?AddAnimationChild@CModelInstance@@QAEXJKMJM@Z
       1610  649 00644770 ?AddArmor@CModelInstance@@QAEPAUMeshInstance@@ABVCTFileName@@@Z
       1611  64A 00280150 ?AddArrayItem@CUIArray@@QAEXPAVCUIArrayItem@@@Z
       1612  64B 0059E500 ?AddAttachment@CEntity@@QAEXJKK@Z
       1613  64C 0059E590 ?AddAttachment@CEntity@@QAEXJVCTFileName@@0@Z
       1614  64D 00405CB0 ?AddAttachmentModel@CModelObject@@QAEPAVCAttachmentModelObject@@J@Z
       1615  64E 004A63D0 ?AddAttackList@CNetworkLibrary@@QAEXEJEJ@Z
       1616  64F 0049E040 ?AddBandwidthGraphValue@CNetworkLibrary@@QAEXK@Z
       1617  650 00A00190 ?AddBefore@CListNode@@QAEXAAV1@@Z
       1618  651 002AFBC0 ?AddBtn@CUITextBoxEx@@QAEXAAV?$basic_string@DU?$char_traits@D@std@@V?$allocator@D@2@@std@@PAVCommand@@KKKK@Z
       1619  652 002B2310 ?AddBtn@CUITextEx@@QAEXPBDPAVCommand@@KKKK@Z
       1620  653 0031BCD0 ?AddBtnTexture@CDrawPort@@QBEXHMMMMMMMMK@Z
       1621  654 0031BEC0 ?AddBtnTexture@CDrawPort@@QBEXHMMMMUUIRectUV@@K@Z
       1622  655 000AD160 ?AddBuff@CCharacterTarget@@QAEXAAU_BuffInfo@@@Z
       1623  656 000AD300 ?AddBuff@CMobTarget@@QAEXAAU_BuffInfo@@@Z
       1624  657 000AD5A0 ?AddBuff@CSlaveTarget@@QAEXAAU_BuffInfo@@@Z
       1625  658 0009CDC0 ?AddChatMessage@CChattingUI@@QAEXEJAAVCTString@@0EJ@Z
       1626  659 00640D90 ?AddChild@CModelInstance@@QAEXPAV1@J@Z
       1627  65A 0000A3B0 ?AddChild@CTagManager@@QAEXPAV1@@Z
       1628  65B 00640A40 ?AddColisionBox@CModelInstance@@QAEXVCTString@@V?$Vector@M$02@@1@Z
       1629  65C 003EF250 ?AddCollisionBox@CEditModel@@QAEXXZ
       1630  65D 00231D00 ?AddColor@CEffectControl@@QAEIMK@Z
       1631  65E 006932A0 ?AddColor@CParticlesProcessDynamicState@@QAEIMK@Z
       1632  65F 009B3040 ?AddColorButton@CUITatoo@@AAEXHHK@Z
       1633  660 003069A0 ?AddColors@@YAKKK@Z
       1634  661 00422D20 ?AddCommonProcess@CParticleGroup@@QAEXPAVCParticlesCommonProcess@@@Z
       1635  662 0001EC80 ?AddCoolTimeReductionRate@CUIManager@@QAEXH@Z
       1636  663 005CF250 ?AddCurrentRequest@CQuestSystem@@QAEJXZ
       1637  664 001076E0 ?AddCurrnetPage@ExpressSystem@@QAEXXZ
       1638  665 0001B570 ?AddDamage@CDamageLogInfo@@QAEXULogDamage@1@@Z
       1639  666 00837B60 ?AddDamageData@CUIManager@@QAEXKCKH@Z
       1640  667 009A6100 ?AddData@CUISpinButton@@QAEXVCTString@@@Z
       1641  668 00A805D0 ?AddDeathItem@CPlayerEntity@@UAEXPAVCEntity@@V?$Vector@M$02@@PAVCItemTarget@@PAVCItemData@@@Z
       1642  669 00693A40 ?AddDeltaPos@CParticlesProcessDynamicState@@QAEIMV?$Vector@M$02@@@Z
       1643  66A 009FA4A0 ?AddDevice@CInput@@QAEHW4DeviceType@@J@Z
       1644  66B 002F3860 ?AddEdge@CIntersector@@QAEXMMMM@Z
       1645  66C 0067E770 ?AddEffect@CEffectGroup@@QAEJMV?$basic_string@DU?$char_traits@D@std@@V?$allocator@D@2@@std@@@Z
       1646  66D 0037EC00 ?AddEffectSource@CTextureEffectGlobal@@QAEXKJJJJ@Z
       1647  66E 00421330 ?AddEntitiesInSector@CWorld@@QAEXPAVCBrushSector@@@Z
       1648  66F 00441A90 ?AddEntityToCollisionGrid@CWorld@@QAEXPAVCEntity@@ABV?$AABBox@M$02@@@Z
       1649  670 00421520 ?AddEntityZoningSector@CWorld@@QAEXPAVCBrushSector@@@Z
       1650  671 000FC400 ?AddExpeditionMember@Party@@QAEXHHHJAAVCTString@@CCHHHHHMMCJ@Z
       1651  672 000FC530 ?AddExpeditionMember@Party@@QAEXHHUstExpeditionMember@@@Z
       1652  673 00333040 ?AddExtension_OGL@CGfxLibrary@@AAEXKPBD@Z
       1653  674 003522B0 ?AddFlag@CTerrain@@QAEXK@Z
       1654  675 00643900 ?AddFlagsToPlayingAnim@CModelInstance@@QAEHJK@Z
       1655  676 006BE300 ?AddForce@CParticlesProcessForce@@QAEXABVCForce@@@Z
       1656  677 003731C0 ?AddFrame_t@CTextureData@@QAEXPBVCImageInfo@@@Z
       1657  678 00A3AEA0 ?AddFromObject3D_t@CBrushMip@@QAEPAVCBrushSector@@AAVCObject3D@@@Z
       1658  679 00792F80 ?AddGBReqdDescString@CUIGuildBattle@@QAEXAAVCTString@@K@Z
       1659  67A 00722570 ?AddGoodsBringData@CUICashShopEX@@IAEXXZ
       1660  67B 00A24E70 ?AddHandler@CTimer@@QAEXPAVCTimerHandler@@@Z
       1661  67C 009FF620 ?AddHead@CListHead@@QAEXAAVCListNode@@@Z
       1662  67D 006A2480 ?AddHeight@CShockWaveEffect@@QAEIMM@Z
       1663  67E 005BD860 ?AddHolyWaterEffect@CItemEffect@@QAEXHPAVCTagManager@@@Z
       1664  67F 0029B8E0 ?AddImage@CUIImageArray@@QAEXU_UIRect@@UUIRectUV@@HV?$basic_string@DU?$char_traits@D@std@@V?$allocator@D@2@@std@@@Z
       1665  680 0083B0C0 ?AddItemInfoString@CUIManager@@QAEXAAVCTString@@KHH@Z
       1666  681 005E9F50 ?AddLayer@CLightSource@@QAEXAAVCBrushPolygon@@@Z
       1667  682 004A7780 ?AddLegitList@CNetworkLibrary@@QAEXH@Z
       1668  683 002A0B40 ?AddListItem@CUIList@@QAEXPAVCUIBase@@@Z
       1669  684 0041D510 ?AddLoadingInfo@CZoneInfo@@QAEXMVCTString@@0@Z
       1670  685 005BD790 ?AddLoginEffect@CItemEffect@@QAEXPAVCTagManager@@@Z
       1671  686 006938D0 ?AddMass@CParticlesProcessDynamicState@@QAEIMM@Z
       1672  687 0062E490 ?AddMeshLod@CMesh@@QAEXAAUMeshLOD@@@Z
       1673  688 00641A30 ?AddMesh_t@CModelInstance@@QAEXABVCTFileName@@@Z
       1674  689 00823A40 ?AddMessageBoxLString@CUIManager@@QAEXHHAAVCTString@@HKV2@@Z
       1675  68A 00A3ACE0 ?AddMipBrushFromObject3D_t@CBrush3D@@QAEXAAVCObject3D@@M@Z
       1676  68B 003EA0E0 ?AddMipModel@CEditModel@@AAEXPAVCObject3D@@@Z
       1677  68C 004A6E20 ?AddMoveList@CNetworkLibrary@@QAEXAAVCEntity@@@Z
       1678  68D 004A6D60 ?AddMoveList@CNetworkLibrary@@QAEXJMMMM@Z
       1679  68E 0001ECB0 ?AddNeedMPReductionRate@CUIManager@@QAEXH@Z
       1680  68F 0049DF20 ?AddNetGraphValue@CNetworkLibrary@@QAEXW4NetGraphEntryType@@M@Z
       1681  690 006C57A0 ?AddNew@CParticles@@QAEII@Z
       1682  691 006D01C0 ?AddNewTagInfo@CEntityTag@@QAEXAAVTagInfo@@@Z
       1683  692 006CFCA0 ?AddNewTagInfo@CEntityTag@@QAEXMAAV?$Quaternion@M@@AAV?$Vector@M$02@@1@Z
       1684  693 006CFDF0 ?AddNewTagInfo@CEntityTag@@QAEXMAAY0M@M0@Z
       1685  694 006D2240 ?AddNewTagInfo@CSkaTag@@QAEXMAAY0M@$$CBM0000000@Z
       1686  695 006D1EF0 ?AddNewTagInfo@CSkaTag@@QAEXMAAY0M@$$CBM00000@Z
       1687  696 006D1CA0 ?AddNewTagInfo@CSkaTag@@QAEXMAAY0M@$$CBM000@Z
       1688  697 006D1B50 ?AddNewTagInfo@CSkaTag@@QAEXMAAY0M@$$CBM0@Z
       1689  698 006D2E70 ?AddNewTagInfo@CTag@@IAEXABVTagInfo@@@Z
       1690  699 006D2BE0 ?AddNewTagInfo@CTag@@IAEXMAAY0M@$$CBM0@Z
       1691  69A 006D29A0 ?AddNewTagInfo@CTag@@IAEXMABV?$Quaternion@M@@ABV?$Vector@M$02@@1@Z
       1692  69B 0000FBF0 ?AddNewTagInfo@CWorldTag@@QAEXAAVTagInfo@@@Z
       1693  69C 0000FC60 ?AddNewTagInfo@CWorldTag@@QAEXMAAV?$Quaternion@M@@AAV?$Vector@M$02@@1@Z
       1694  69D 0000FC20 ?AddNewTagInfo@CWorldTag@@QAEXMAAY0M@M0@Z
       1695  69E 005BD610 ?AddNickEffect@CItemEffect@@QAEHPBDPAVCTagManager@@@Z
       1696  69F 003BD750 ?AddObject@ActorMgr@@QAEXPAUObjectBase@@@Z
       1697  6A0 00444DD0 ?AddObjectToBrush@CWorld@@QAEXAAVCObject3D@@AAVCEntity@@@Z
       1698  6A1 0068E270 ?AddOrbit@COrbitEffect@@QAEJABUsOrbitInfo@1@@Z
       1699  6A2 000F9FB0 ?AddPartyMember@Party@@QAEXCJAAVCTString@@CCHHHHHMMCJ@Z
       1700  6A3 0011A710 ?AddPet@PetStash@@QAEXPAUPetStashData@UpdateClient@@@Z
       1701  6A4 005BD6F0 ?AddPetStashEffect@CItemEffect@@QAEHHPAVCTagManager@@@Z
       1702  6A5 004FCC20 ?AddPlayer@CSessionState@@QAEXJAAVCPlayerCharacter@@AAK11J@Z
       1703  6A6 0049D960 ?AddPlayer_t@CNetworkLibrary@@QAEPAVCPlayerSource@@AAVCPlayerCharacter@@@Z
       1704  6A7 00232180 ?AddPos@CEffectControl@@QAEIMV?$Vector@M$02@@@Z
       1705  6A8 005C4320 ?AddPosition@CLastPositions@@QAEXABV?$Vector@M$02@@@Z
       1706  6A9 0031CEC0 ?AddQuadrangle@CDrawPort@@QBEXMMMMKM@Z
       1707  6AA 001207C0 ?AddQuest@Quest@@QAEHHH@Z
       1708  6AB 00121450 ?AddQuestList@Quest@@QAEHHH@Z
       1709  6AC 004A4AE0 ?AddQuickSlot@CNetworkLibrary@@QAEXHHHHH@Z
       1710  6AD 006A2270 ?AddRadius@CShockWaveEffect@@QAEIMM@Z
       1711  6AE 00121B10 ?AddRaidMessage@Quest@@QAEXABH@Z
       1712  6AF 00009E80 ?AddRef@CTag@@QAEKXZ
       1713  6B0 0000DB00 ?AddReference@CEntity@@QAEXXZ
       1714  6B1 005A7C30 ?AddReference@CEntityClass@@QAEXXZ
       1715  6B2 003D2230 ?AddReference@CSoundData@@QAEXXZ
       1716  6B3 004A7470 ?AddRegenList@CNetworkLibrary@@QAEXJJMMMMJJ@Z
       1717  6B4 00A06150 ?AddRelationPair@@YAXAAVCRelationSrc@@AAVCRelationDst@@@Z
       1718  6B5 00A06550 ?AddRelationPairHeadHead@@YAXAAVCRelationSrc@@AAVCRelationDst@@@Z
       1719  6B6 00A06430 ?AddRelationPairTailTail@@YAXAAVCRelationSrc@@AAVCRelationDst@@@Z
       1720  6B7 005BDAD0 ?AddRelicEffect@CItemEffect@@QAEHHPAVCTagManager@@@Z
       1721  6B8 00112C80 ?AddRenderTickCount@CInvenData@@QAEXXZ
       1722  6B9 004A7FB0 ?AddRescueNPC@CNetworkLibrary@@QAEXPAVCEntity@@@Z
       1723  6BA 00104CF0 ?AddReservedEG@CAnimEffect@@QAEXABVCTString@@MK@Z
       1724  6BB 001227C0 ?AddRestoreQuestList@Quest@@QAEXABHH@Z
       1725  6BC 00150930 ?AddSeal@CUICharacterInfo@@QAEXH_J@Z
       1726  6BD 0045F470 ?AddSector@CCastRay@@QAEXPAVCBrushSector@@@Z
       1727  6BE 0045E180 ?AddSectorsAroundEntity@CCastRay@@QAEXPAVCEntity@@@Z
       1728  6BF 00122250 ?AddSelectedQuest@Quest@@QAEXABH@Z
       1729  6C0 00670F50 ?AddShakeValue@CCameraEffect@@QAEIMABVCCameraValue@1@@Z
       1730  6C1 009B3200 ?AddShapeButton@CUITatoo@@AAEXHHHH@Z
       1731  6C2 00643D50 ?AddSimpleShadow@CModelInstance@@QAEXMABV?$Plane@M$02@@@Z
       1732  6C3 0040E370 ?AddSimpleShadow@CModelObject@@QAEXAAVCRenderModel@@MABV?$Plane@M$02@@@Z
       1733  6C4 004177E0 ?AddSimpleShadow_View@CModelObject@@AAEXAAVCRenderModel@@MABV?$Plane@M$02@@@Z
       1734  6C5 00693710 ?AddSize@CParticlesProcessDynamicState@@QAEIMMM@Z
       1735  6C6 0059AED0 ?AddSkaModel@CEntity@@QAEXABVCTString@@@Z
       1736  6C7 00641AC0 ?AddSkeleton_t@CModelInstance@@QAEXABVCTFileName@@@Z
       1737  6C8 001506D0 ?AddSkill@CUICharacterInfo@@QAEXHCH@Z
       1738  6C9 0066C350 ?AddSkletonLod@CSkeleton@@QAEXAAUSkeletonLOD@@@Z
       1739  6CA 006B2280 ?AddSplinePath@CSplinePathEffect@@QAEJABUsSplinePathInfo@1@@Z
       1740  6CB 00231FC0 ?AddStretch@CEffectControl@@QAEIMV?$Vector@M$02@@@Z
       1741  6CC 0072FFE0 ?AddString@CUIComboBox@@QAEXAAVCTString@@@Z
       1742  6CD 00809BF0 ?AddString@CUIListBox@@QAEXHAAVCTString@@KHPAXH@Z
       1743  6CE 00860D60 ?AddString@CUIMsgBox_Info@@QAEXAAVCTString@@KW4TEXT_ALIGN@@@Z
       1744  6CF 00861DC0 ?AddString@CUIMultiLineText@@QAEXAAVCTString@@KW4TEXT_ALIGN@@@Z
       1745  6D0 00861380 ?AddStringEx@CUIMsgBox_Info@@QAEXAAVCTString@@HHKW4TEXT_ALIGN@@@Z
       1746  6D1 00839DE0 ?AddStringToList@CUIManager@@QAEXPAVCUIListBox@@AAVCTString@@JKJ@Z
       1747  6D2 0009D840 ?AddSysMessage@CChattingUI@@QAEXVCTString@@HK@Z
       1748  6D3 006D0650 ?AddTag@CGroupTag@@QAEXABV?$CRefCountPtr@VCTag@@@@@Z
       1749  6D4 0067EB10 ?AddTagForAllEffect@CEffectGroup@@QAEXMV?$basic_string@DU?$char_traits@D@std@@V?$allocator@D@2@@std@@@Z
       1750  6D5 0067E970 ?AddTagForEffect@CEffectGroup@@QAEJMJV?$basic_string@DU?$char_traits@D@std@@V?$allocator@D@2@@std@@@Z
       1751  6D6 009FF700 ?AddTail@CListHead@@QAEXAAVCListNode@@@Z
       1752  6D7 00693400 ?AddTexPos@CParticlesProcessDynamicState@@QAEIMEE@Z
       1753  6D8 002AFA70 ?AddText@CUITextBoxEx@@QAEXAAV?$basic_string@DU?$char_traits@D@std@@V?$allocator@D@2@@std@@K@Z
       1754  6D9 002B2110 ?AddText@CUITextEx@@QAEXPBDKH@Z
       1755  6DA 0031C930 ?AddTexture@CDrawPort@@QBEXMMMMK@Z
       1756  6DB 0031D050 ?AddTexture@CDrawPort@@QBEXMMMMKMMMMKMMMMKMMMMK@Z
       1757  6DC 0031CAF0 ?AddTexture@CDrawPort@@QBEXMMMMMMMMKM@Z
       1758  6DD 0031D270 ?AddTexture@CDrawPort@@QBEXMMMMMMMMMMMMK@Z
       1759  6DE 0031CCC0 ?AddTexture@CDrawPort@@QBEXMMMMUUIRectUV@@KM@Z
       1760  6DF 003E69B0 ?AddTexture_t@CEditModel@@QAEPAVCTextureDataInfo@@ABVCTFileName@@JJ@Z
       1761  6E0 00641B50 ?AddTexture_t@CModelInstance@@QAEXABVCTFileName@@JPAUMeshInstance@@@Z
       1762  6E1 00641C20 ?AddTexture_t@CModelInstance@@QAEXABVCTFileName@@VCTString@@PAUMeshInstance@@@Z
       1763  6E2 0041ED20 ?AddTimer@CWorld@@QAEXPAVCRationalEntity@@@Z
       1764  6E3 005A8A40 ?AddToCRCTable@CEntityClass@@UAEXXZ
       1765  6E4 005B3130 ?AddToCRCTable@CEntityComponent@@QAEXXZ
       1766  6E5 00A0B270 ?AddToCRCTable@CSerial@@UAEXXZ
       1767  6E6 00A70FD0 ?AddToMovers@CMovableEntity@@QAEXXZ
       1768  6E7 00A71080 ?AddToMoversDuringMoving@CMovableEntity@@QAEXXZ
       1769  6E8 00116250 ?AddToNoticeList@Notice@@QAEXHW4eNoticeType@1@@Z
       1770  6E9 003D99A0 ?AddToPendingList@CSoundLibrary@@QAEXAAVCSoundObject@@@Z
       1771  6EA 00210650 ?AddToZoneList@CUIPortal@@QAEXHH@Z
       1772  6EB 00A262B0 ?AddTranslationTable_t@@YAXABVCTFileName@@@Z
       1773  6EC 00A262D0 ?AddTranslationTablesDir_t@@YAXABVCTFileName@@0@Z
       1774  6ED 0031CD70 ?AddTriangle@CDrawPort@@QBEXMMMMMMKM@Z
       1775  6EE 002B1490 ?AddUI@CUITextBoxEx@@QAEXPAVCUIBase@@@Z
       1776  6EF 005BCC50 ?AddWearEffect@CItemEffect@@QAEHPBDHPAVCTagManager@@@Z
       1777  6F0 006A2370 ?AddWidth@CShockWaveEffect@@QAEIMM@Z
       1778  6F1 004D0DF0 ?AddressToString@@YA?AVCTString@@K@Z
       1779  6F2 00361170 ?AdjustBitmapColor@@YAXPAK0JJJJ@Z
       1780  6F3 0059EFA0 ?AdjustBones@CEntity@@UAEXXZ
       1781  6F4 003062E0 ?AdjustColor@@YAKKJJ@Z
       1782  6F5 00A702C0 ?AdjustDeadReckoning@CMovableEntity@@QAEXVCPlacement3D@@0M@Z
       1783  6F6 00A70390 ?AdjustDeadReckoningNew@CMovableEntity@@QAEXVCPlacement3D@@0MV?$Vector@M$02@@@Z
       1784  6F7 003064B0 ?AdjustGamma@@YAKKM@Z
       1785  6F8 0041EE00 ?AdjustLateTimers@CWorld@@QAEXM@Z
       1786  6F9 004FE950 ?AdjustLocalTime@CSessionState@@QAEXXZ
       1787  6FA 00592D90 ?AdjustMipFactor@CEntity@@UAEXAAM@Z
       1788  6FB 007088A0 ?AdjustPosition@CUICashShopEX@@UAEXJJJJ@Z
       1789  6FC 00150060 ?AdjustPosition@CUICharacterInfo@@UAEXJJJJ@Z
       1790  6FD 0016F980 ?AdjustPosition@CUIExpressSystem@@UAEXJJJJ@Z
       1791  6FE 00793990 ?AdjustPosition@CUIGuildBattle@@UAEXJJJJ@Z
       1792  6FF 008B4E20 ?AdjustPosition@CUIOption@@UAEXJJJJ@Z
       1793  700 0019E260 ?AdjustPosition@CUIPetStashSelectEffect@@UAEXJJJJ@Z
       1794  701 00980DB0 ?AdjustPosition@CUISingleBattle@@UAEXJJJJ@Z
       1795  702 009B2FA0 ?AdjustPosition@CUITatoo@@UAEXJJJJ@Z
       1796  703 0059EFC0 ?AdjustShaderParams@CEntity@@UAEXJPAVCShader@@AAUShaderParams@@@Z
       1797  704 00592D70 ?AdjustShadingParameters@CEntity@@UAEHAAV?$Vector@M$02@@AAK1@Z
       1798  705 00992410 ?AdjustSlidePos@CUISlideBar@@IAEXH@Z
       1799  706 00823EC0 ?AdjustUIPos@CUIManager@@QAEXPAVCDrawPort@@@Z
       1800  707 00A02070 ?AllocMemory@@YAPAXJ@Z
       1801  708 00A01FF0 ?AllocMemoryAligned@@YAPAXJJ@Z
       1802  709 00A1DC80 ?AllocateVirtualMemory@CTStream@@QAEXK@Z
       1803  70A 00A73DB0 ?AllowForGroundPolygon@CMovableEntity@@UAEHPAVCBrushPolygon@@@Z
       1804  70B 000B0CB0 ?AmILeader@Party@@QAEHXZ
       1805  70C 002D3620 ?AnglesToDirectionVector@@YAXABV?$Vector@M$02@@AAV1@@Z
       1806  70D 004FED60 ?AnyOneArg@CSessionState@@QAEPADPAD0@Z
       1807  70E 00A803B0 ?AppearChaPolymoph@CPlayerEntity@@UAEXPAVCEntity@@J@Z
       1808  70F 00A80450 ?AppearChaTransform@CPlayerEntity@@UAEXPAVCEntity@@J@Z
       1809  710 00A7FE40 ?AppearWearingWeapon@CPlayerEntity@@UAEXH@Z
       1810  711 00A80B30 ?ApplyAction@CPlayerEntity@@UAEXABVCPlayerAction@@M@Z
       1811  712 004F1AC0 ?ApplyActionLocally@CPlayerSource@@QAEXABVCPlayerAction@@@Z
       1812  713 00A6FDD0 ?ApplyDeadReckoning@CMovableEntity@@QAEXXZ
       1813  714 004F1D20 ?ApplyNewerActions@CPlayerSource@@QAEXK@Z
       1814  715 008B6AC0 ?ApplyOption@CUIOption@@QAEXXZ
       1815  716 00403E20 ?ApplySurfaceToPolygon@CModelObject@@QAEXPAVCDrawPort@@PAVCProjection3D@@JJJK@Z
       1816  717 00402B80 ?ApplySurfaceToPolygonsInRegion@CModelObject@@QAEXPAVCDrawPort@@PAVCProjection3D@@V?$AABBox@J$01@@JK@Z
       1817  718 002D50B0 ?ArePolygonsPlanar@CObject3D@@QAEHXZ
       1818  719 0049ED40 ?ArrangeItem@CNetworkLibrary@@QAEXH@Z
       1819  71A 00721DC0 ?ArrangePurchaseGetGoods@CUICashShopEX@@IAEXXZ
       1820  71B 00004F70 ?AspectRatioL@CProjection3D@@QAEAAMXZ
       1821  71C 00004FA0 ?AspectRatioR@CProjection3D@@QBEABMXZ
       1822  71D 00A1AA90 ?AtEOF@CTStream@@QAEHXZ
       1823  71E 00362280 ?Attach@CImageInfo@@QAEXPAEJJJ@Z
       1824  71F 0000F090 ?AttachToTag@CEffect@@QAEXABV?$CRefCountPtr@VCTag@@@@@Z
       1825  720 004AE160 ?AttackCharReq@CNetworkLibrary@@QAEXXZ
       1826  721 004AE230 ?AttackGuildReq@CNetworkLibrary@@QAEXXZ
       1827  722 004ADFC0 ?AttackReq@CNetworkLibrary@@QAEXXZ
       1828  723 00401F10 ?AutoMipModelingOff@CModelObject@@QAEXXZ
       1829  724 00401EE0 ?AutoMipModelingOn@CModelObject@@QAEXXZ
       1830  725 00018C90 ?AutoRef@CUIEditBox@@IAEXH@Z
       1831  726 004056E0 ?AutoSetAttachments@CModelObject@@QAEXXZ
       1832  727 004050D0 ?AutoSetTextures@CModelObject@@QAEXXZ
       1833  728 003FBD70 ?BBoxAllShow@CModelRenderPrefs@@QAEXH@Z
       1834  729 003FBD50 ?BBoxAllVisible@CModelRenderPrefs@@QAEHXZ
       1835  72A 003FBD30 ?BBoxFrameShow@CModelRenderPrefs@@QAEXH@Z
       1836  72B 003FBD10 ?BBoxFrameVisible@CModelRenderPrefs@@QAEHXZ
       1837  72C 00A5B440 ?BackToSelChar@CGameState@@QAEXXZ
       1838  72D 00711720 ?BasicBackgroundInit@CUICashShopEX@@IAEXMM@Z
       1839  72E 002E0590 ?BatchLoading_t@CObject3D@@SAXH@Z
       1840  72F 00005380 ?BeIsometric@CAnyProjection3D@@QAEXXZ
       1841  730 000053E0 ?BeParallel@CAnyProjection3D@@QAEXXZ
       1842  731 000053B0 ?BePerspective@CAnyProjection3D@@QAEXXZ
       1843  732 00005360 ?BeSimple@CAnyProjection3D@@QAEXXZ
       1844  733 00380570 ?Begin@CRenderTexture@@QAEXXZ
       1845  734 00546250 ?Begin@cWeb@@QAEHXZ
       1846  735 0040B040 ?BeginModelRenderingMask@@YAXAAVCAnyProjection3D@@PAEJJ@Z
       1847  736 0040ACF0 ?BeginModelRenderingView@@YAXAAVCAnyProjection3D@@PAVCDrawPort@@@Z
       1848  737 00676550 ?BeginRender@CEffect@@UAEHAAVCAnyProjection3D@@PAVCDrawPort@@@Z
       1849  738 0068B080 ?BeginRender@CLightEffect@@UAEHAAVCAnyProjection3D@@PAVCDrawPort@@@Z
       1850  739 0068C030 ?BeginRender@CMdlEffect@@UAEHAAVCAnyProjection3D@@PAVCDrawPort@@@Z
       1851  73A 00695040 ?BeginRender@CParticleEffect@@UAEHAAVCAnyProjection3D@@PAVCDrawPort@@@Z
       1852  73B 006A4610 ?BeginRender@CShockWaveEffect@@UAEHAAVCAnyProjection3D@@PAVCDrawPort@@@Z
       1853  73C 006AC070 ?BeginRender@CSkaEffect@@UAEHAAVCAnyProjection3D@@PAVCDrawPort@@@Z
       1854  73D 006AF730 ?BeginRender@CSplineBillboardEffect@@UAEHAAVCAnyProjection3D@@PAVCDrawPort@@@Z
       1855  73E 006B5FF0 ?BeginRender@CTerrainEffect@@UAEHAAVCAnyProjection3D@@PAVCDrawPort@@@Z
       1856  73F 006B85F0 ?BeginRender@CTraceEffect@@UAEHAAVCAnyProjection3D@@PAVCDrawPort@@@Z
       1857  740 003011D0 ?Benchmark@CGfxLibrary@@QAEXPAVCViewPort@@PAVCDrawPort@@@Z
       1858  741 004D1E80 ?Bind_t@CCommunicationInterface@@QAEXKK@Z
       1859  742 0031D470 ?BlendScreen@CDrawPort@@QAEXXZ
       1860  743 000FA6C0 ?BreakUpParty@Party@@IAEXXZ
       1861  744 004D3740 ?Broadcast_Receive@CCommunicationInterface@@QAEHPAXAAJAAVCAddress@@@Z
       1862  745 004D3650 ?Broadcast_Send@CCommunicationInterface@@QAEXPBXJAAVCAddress@@@Z
       1863  746 004D3810 ?Broadcast_Update_t@CCommunicationInterface@@QAEXXZ
       1864  747 004EA950 ?BuffsStartGroupEffect@CMobTarget@@QAEXXZ
       1865  748 0028EA20 ?BuildControlFromElement@UIFactory@@AAEPAVCUIBase@@PAVTiXmlElement@@@Z
       1866  749 004A84C0 ?BuyItem@CNetworkLibrary@@QAEXHH_J@Z
       1867  74A 009E9950 ?CON_DiscardLastLineTimes@@YAXXZ
       1868  74B 009E9980 ?CON_GetBuffer@@YAPBDXZ
       1869  74C 009E99B0 ?CON_GetBufferSize@@YAJXZ
       1870  74D 009E98E0 ?CON_GetLastLine@@YA?AVCTString@@J@Z
       1871  74E 009E98B0 ?CON_NumberOfLinesAfter@@YAJM@Z
       1872  74F 009E97A0 ?CPrintF@@YAXPBDZZ
       1873  750 009E9880 ?CPutString@@YAXPBD@Z
       1874  751 00445330 ?CSGAdd@CWorld@@QAEXAAVCEntity@@AAV1@0ABVCPlacement3D@@@Z
       1875  752 002DCC70 ?CSGAddMaterial@CObject3D@@QAEXAAV1@0@Z
       1876  753 002DCD30 ?CSGAddMaterialReverse@CObject3D@@QAEXAAV1@0@Z
       1877  754 004453D0 ?CSGAddReverse@CWorld@@QAEXAAVCEntity@@AAV1@0ABVCPlacement3D@@@Z
       1878  755 002DCBB0 ?CSGAddRooms@CObject3D@@QAEXAAV1@0@Z
       1879  756 002DCF80 ?CSGJoinSectors@CObject3D@@QAEXAAV1@0@Z
       1880  757 00445470 ?CSGRemove@CWorld@@QAEXAAVCEntity@@AAV1@0ABVCPlacement3D@@@Z
       1881  758 002DCDF0 ?CSGRemoveMaterial@CObject3D@@QAEXAAV1@0@Z
       1882  759 002DD040 ?CSGSplitPolygons@CObject3D@@QAEXAAV1@0@Z
       1883  75A 002DCEC0 ?CSGSplitSectors@CObject3D@@QAEXAAV1@0@Z
       1884  75B 00A20F40 ?CTDeleteFile@@YAHABVCTFileName@@@Z
       1885  75C 00A21070 ?CTMoveFile@@YAHABVCTFileName@@0@Z
       1886  75D 0036FC00 ?Cache@CShadowMap@@QAEXJ@Z
       1887  75E 00A2EE50 ?CacheAllShadowmaps@CBrushArchive@@QAEXXZ
       1888  75F 00A79040 ?CacheNearPolygons@CMovableEntity@@QAEXXZ
       1889  760 002787B0 ?CalcPriceAddition@MyInfo@@QAE_JH@Z
       1890  761 00278700 ?CalcPriceRate@MyInfo@@QAE_J_JH@Z
       1891  762 0066C260 ?CalculateAbsoluteTransformations@CSkeleton@@QAEXJ@Z
       1892  763 00A40730 ?CalculateArea@CBrushPolygon@@QAENXZ
       1893  764 00A3F710 ?CalculateBoundingBox@CBrushPolygon@@QAEXXZ
       1894  765 00A2DCD0 ?CalculateBoundingBoxes@CBrush3D@@QAEXXZ
       1895  766 00A2E2B0 ?CalculateBoundingBoxes@CBrushArchive@@QAEXXZ
       1896  767 00A3E950 ?CalculateBoundingBoxes@CBrushMip@@QAEXAAVCSimpleProjection3D_DOUBLE@@@Z
       1897  768 00A42770 ?CalculateBoundingBoxes@CBrushSector@@QAEXAAVCSimpleProjection3D_DOUBLE@@@Z
       1898  769 00A2DD00 ?CalculateBoundingBoxesForOneMip@CBrush3D@@QAEXPAVCBrushMip@@@Z
       1899  76A 009F3920 ?CalculateDPS@CDamageLogInfo@@QAEXXZ
       1900  76B 0041F130 ?CalculateDirectionalShadows@CWorld@@QAEXXZ
       1901  76C 006536A0 ?CalculateFadeFactor@@YAMABUAnimList@@@Z
       1902  76D 003EB000 ?CalculateMappingForMips@CEditModel@@QAEXXZ
       1903  76E 0041F2B0 ?CalculateNonDirectionalShadows@CWorld@@QAEXXZ
       1904  76F 003EDBB0 ?CalculatePatchesPerPolygon@CEditModel@@QAEXXZ
       1905  770 003EAA80 ?CalculateUnwrappedMapping@CEditModel@@QAEXAAVCObject3D@@00@Z
       1906  771 00A43440 ?CalculateVolume@CBrushSector@@QAENXZ
       1907  772 0000CF10 ?Call@CEntity@@QAEXJJHABVCEntityEvent@@@Z
       1908  773 005A2CA0 ?Call@CRationalEntity@@QAEXJJHABVCEntityEvent@@@Z
       1909  774 004AE430 ?CallPet@CNetworkLibrary@@QAEXJ@Z
       1910  775 00446F60 ?CanCopySectors@CWorld@@QAEHAAV?$CSelection@VCBrushSector@@$00@@@Z
       1911  776 005CFB30 ?CanIDoQuest@CQuestSystem@@QAEHJ@Z
       1912  777 00446B00 ?CanJoinAllPossiblePolygons@CWorld@@QAEHAAV?$CSelection@VCBrushPolygon@@$0BAA@@@@Z
       1913  778 004465F0 ?CanJoinPolygons@CWorld@@QAEHAAV?$CSelection@VCBrushPolygon@@$0BAA@@@@Z
       1914  779 00445F20 ?CanJoinSectors@CWorld@@QAEHAAV?$CSelection@VCBrushSector@@$00@@@Z
       1915  77A 00013740 ?CanUse@CItemData@@QAEHH@Z
       1916  77B 008B7010 ?CancelOption@CUIOption@@QAEXXZ
       1917  77C 00A7FE00 ?CancelProduct@CPlayerEntity@@UAEXXZ
       1918  77D 009AC830 ?CancelRestart@CUISystemMenu@@QAEXXZ
       1919  77E 00A7FA70 ?CancelSkill@CPlayerEntity@@UAEXHHH@Z
       1920  77F 00837850 ?CancelSkill@CUIManager@@QAEXHH@Z
       1921  780 0045E8D0 ?Cast@CCastRay@@QAEXPAVCWorld@@@Z
       1922  781 0045EB90 ?CastForTerrainShadow@CCastRay@@QAEHPAVCWorld@@HHHH@Z
       1923  782 0045EB30 ?CastRay@CWorld@@QAEXAAVCCastRay@@@Z
       1924  783 00712A80 ?CategoryFrameInit@CUICashShopEX@@IAEXMM@Z
       1925  784 002FF8D0 ?Center@CMappingDefinition@@QAEXABVCMappingVectors@@ABV?$Vector@M$02@@@Z
       1926  785 005BCDD0 ?Change@CItemEffect@@QAEXHPAVCItemData@@HHPAVCTagManager@@CH@Z
       1927  786 004F14E0 ?ChangeCharacter@CPlayerSource@@QAEXAAVCPlayerCharacter@@@Z
       1928  787 00156510 ?ChangeCheckImg@CUICharacterInfo@@AAEXH@Z
       1929  788 00A7B320 ?ChangeCollisionBoxIndexNow@CMovableModelEntity@@QAEHJ@Z
       1930  789 00A7B260 ?ChangeCollisionBoxIndexNow@CMovableModelEntity@@QAEHJPAPAVCEntity@@@Z
       1931  78A 00A7B400 ?ChangeCollisionBoxIndexWhenPossible@CMovableModelEntity@@QAEXJ@Z
       1932  78B 003BF240 ?ChangeEffect@ActorMgr@@QAEXW4eOBJ_TYPE@@JPBD1@Z
       1933  78C 000FCFE0 ?ChangeExpeditionLeader@Party@@QAEXJJJ@Z
       1934  78D 0022D040 ?ChangeFace@CUICharacterCreateNew@@AAEXH@Z
       1935  78E 00A7FDC0 ?ChangeFaceMesh@CPlayerEntity@@UAEXPAVCModelInstance@@HC@Z
       1936  78F 000FC100 ?ChangeGroup@Party@@QAEXJHH@Z
       1937  790 003C8F20 ?ChangeGuildInfo@ActorMgr@@QAEXJJJJPBD@Z
       1938  791 003C8E00 ?ChangeGuildLevel@ActorMgr@@QAEXJJ@Z
       1939  792 0022D1B0 ?ChangeHair@CUICharacterCreateNew@@AAEXH@Z
       1940  793 00A7FDE0 ?ChangeHairMesh@CPlayerEntity@@UAEXPAVCModelInstance@@HC@Z
       1941  794 00019FE0 ?ChangeItemsPerPage@CUIScrollBar@@QAEXH@Z
       1942  795 004A3900 ?ChangeJobGiveUp@CNetworkLibrary@@QAEXH@Z
       1943  796 004A3810 ?ChangeJobReq@CNetworkLibrary@@QAEXCH@Z
       1944  797 0049B320 ?ChangeLevel@CNetworkLibrary@@QAEXABVCTFileName@@HJ@Z
       1945  798 0049C050 ?ChangeLevel_client_internal_t@CNetworkLibrary@@QAEXXZ
       1946  799 0049B430 ?ChangeLevel_internal@CNetworkLibrary@@QAEXXZ
       1947  79A 00809860 ?ChangeLineCount@CUIListBox@@QAEXH@Z
       1948  79B 00107910 ?ChangeMailNpc@ExpressSystem@@QAEXW4eMAIL_NPC_STATE@@@Z
       1949  79C 005E2E10 ?ChangeNPCQuestMark@CStatusEffect@@QAEXPAVCTagManager@@W4eNpcQuestType@CQuestSystem@@@Z
       1950  79D 0082E230 ?ChangeOrder@CUIManager@@QAEXHH@Z
       1951  79E 00156650 ?ChangePage@CUICharacterInfo@@AAEXH@Z
       1952  79F 00642030 ?ChangeParent@CModelInstance@@QAEXPAV1@0@Z
       1953  7A0 00019ED0 ?ChangeScrollPos@CUIScrollBar@@QAEXH@Z
       1954  7A1 00007220 ?ChangeSize@CTextureData@@QAEXJ@Z
       1955  7A2 008097D0 ?ChangeSize@CUIListBox@@QAEXH@Z
       1956  7A3 00948BE0 ?ChangeSize@CUIScrollBar@@QAEXH@Z
       1957  7A4 000AD1F0 ?ChangeStatus@CCharacterTarget@@QAEXPAVCTagManager@@_JW4eRelation@CStatusEffect@@@Z
       1958  7A5 000AD350 ?ChangeStatus@CMobTarget@@QAEXPAVCTagManager@@_J@Z
       1959  7A6 000AD520 ?ChangeStatus@CPetTarget@@QAEXPAVCTagManager@@_J@Z
       1960  7A7 000AD5F0 ?ChangeStatus@CSlaveTarget@@QAEXPAVCTagManager@@_J@Z
       1961  7A8 005E2990 ?ChangeStatus@CStatusEffect@@QAEXPAVCTagManager@@_JW4eRelation@1@@Z
       1962  7A9 006286A0 ?ChangeSurfaceShader_t@@YAXAAUMeshSurface@@VCTString@@@Z
       1963  7AA 00155CF0 ?ChangeTab@CUICharacterInfo@@QAEXXZ
       1964  7AB 00155DE0 ?ChangeTabAction@CUICharacterInfo@@QAEXXZ
       1965  7AC 00155E40 ?ChangeTabCommunity@CUICharacterInfo@@QAEXXZ
       1966  7AD 001566C0 ?ChangeTabPage@CUICharacterInfo@@AAEXH@Z
       1967  7AE 00155D80 ?ChangeTabSkill@CUICharacterInfo@@QAEXXZ
       1968  7AF 004A3B00 ?ChangeWeaponEventReq@CNetworkLibrary@@QAEXJJ@Z
       1969  7B0 004A39E0 ?ChangeWeaponReq@CNetworkLibrary@@QAEXFFJJJJJ@Z
       1970  7B1 008BA110 ?ChangeWindowMode@CUIOption@@QAEXXZ
       1971  7B2 002856C0 ?CharMessage@CUIBase@@UAE?AW4WMSG_RESULT@@PAUtagMSG@@@Z
       1972  7B3 0070E6C0 ?CharMessage@CUICashShopEX@@UAE?AW4WMSG_RESULT@@PAUtagMSG@@@Z
       1973  7B4 0073A8D0 ?CharMessage@CUIEditBox@@UAE?AW4WMSG_RESULT@@PAUtagMSG@@@Z
       1974  7B5 00794160 ?CharMessage@CUIGuildBattle@@UAE?AW4WMSG_RESULT@@PAUtagMSG@@@Z
       1975  7B6 00285170 ?CharMessageChild@CUIBase@@UAE?AW4WMSG_RESULT@@PAUtagMSG@@@Z
       1976  7B7 002850E0 ?CharMessageProc@CUIBase@@UAE?AW4WMSG_RESULT@@PAUtagMSG@@@Z
       1977  7B8 002CA670 ?CharMessageProc@CUITree@@UAE?AW4WMSG_RESULT@@PAUtagMSG@@@Z
       1978  7B9 00173CB0 ?CharProc@MsgBoxMgr@@QAE?AW4WMSG_RESULT@@PAUtagMSG@@@Z
       1979  7BA 00A80B70 ?CharacterChanged@CPlayerEntity@@UAEXABVCPlayerCharacter@@@Z
       1980  7BB 004F4590 ?CharacterNameIsUsed@CServer@@QAEHAAVCPlayerCharacter@@@Z
       1981  7BC 0022EC20 ?CheckAnim@CUICharacterCreateNew@@AAEHH@Z
       1982  7BD 00A80570 ?CheckAttackTarget@CPlayerEntity@@UAEHJPAVCEntity@@M@Z
       1983  7BE 00A804F0 ?CheckChangeCondition@CPlayerEntity@@UAEHJJ@Z
       1984  7BF 002C8C20 ?CheckChildProc@CUITreeItem@@QAE_NXZ
       1985  7C0 005A7D10 ?CheckClassProperties@CEntityClass@@QAEXXZ
       1986  7C1 00107870 ?CheckDistance@ExpressSystem@@QAE_NXZ
       1987  7C2 0083C8D0 ?CheckDratanWarInside@CUIManager@@QAEHPAVCCharacterTarget@@@Z
       1988  7C3 00A51AC0 ?CheckEngineVersion@@YAXXZ
       1989  7C4 00A80590 ?CheckEntityOfTarget@CPlayerEntity@@UAEHPAVCEntity@@0@Z
       1990  7C5 00A802F0 ?CheckEscKey@CPlayerEntity@@UAEHXZ
       1991  7C6 00A7B220 ?CheckForCollisionNow@CMovableModelEntity@@QAEHJPAPAVCEntity@@@Z
       1992  7C7 00009A30 ?CheckIDs@CEntityEvent@@UAEHXZ
       1993  7C8 00A6E380 ?CheckIDs@EBegin@@UAEHXZ
       1994  7C9 00A6E910 ?CheckIDs@EBlock@@UAEHXZ
       1995  7CA 00A6EFB0 ?CheckIDs@EDamage@@UAEHXZ
       1996  7CB 00A6F120 ?CheckIDs@EDeath@@UAEHXZ
       1997  7CC 00A6EDF0 ?CheckIDs@EFirstWorldBase@@UAEHXZ
       1998  7CD 00A6E0E0 ?CheckIDs@EInternal@@UAEHXZ
       1999  7CE 00A6E780 ?CheckIDs@EPass@@UAEHXZ
       2000  7CF 00A6F380 ?CheckIDs@EPlayerInit@@UAEHXZ
       2001  7D0 00A6ED10 ?CheckIDs@EPostLevelChange@@UAEHXZ
       2002  7D1 00A6EBF0 ?CheckIDs@EPreLevelChange@@UAEHXZ
       2003  7D2 00A6E2A0 ?CheckIDs@EReturn@@UAEHXZ
       2004  7D3 00A6F240 ?CheckIDs@ETakingBreath@@UAEHXZ
       2005  7D4 00A6EAD0 ?CheckIDs@ETeleport@@UAEHXZ
       2006  7D5 00A6E460 ?CheckIDs@ETimer@@UAEHXZ
       2007  7D6 00A6E600 ?CheckIDs@ETouch@@UAEHXZ
       2008  7D7 00A6E1C0 ?CheckIDs@EVoid@@UAEHXZ
       2009  7D8 00A6E9F0 ?CheckIDs@EWouldFall@@UAEHXZ
       2010  7D9 004D2310 ?CheckIPFilter@CCommunicationInterface@@IAEHXZ
       2011  7DA 00A49F50 ?CheckLayersUpToDate@CBrushShadowMap@@UAEXXZ
       2012  7DB 00371130 ?CheckLayersUpToDate@CShadowMap@@UAEXXZ
       2013  7DC 005A05A0 ?CheckModelRangeDamage@CEntity@@QAEHAAV1@ABV?$Vector@M$02@@AAMAAV2@@Z
       2014  7DD 003BF480 ?CheckNPCNotice@ActorMgr@@QAE_NJAAVCTString@@@Z
       2015  7DE 00A80530 ?CheckNormalAttack@CPlayerEntity@@UAEHPAVCEntity@@M@Z
       2016  7DF 004AE500 ?CheckPetType@CNetworkLibrary@@QAEXCAAJ0@Z
       2017  7E0 001509C0 ?CheckSSkill@CUICharacterInfo@@QAEHH@Z
       2018  7E1 00150A60 ?CheckSSkillByIndex@CUICharacterInfo@@QAEHHHPAH@Z
       2019  7E2 0083AF70 ?CheckSellerItem@CUIManager@@QAEHW4UI_TYPE@@H@Z
       2020  7E3 004BA770 ?CheckSendSkill@CNetworkLibrary@@AAE_NJ@Z
       2021  7E4 0031D810 ?CheckShowCharLength@CDrawPort@@QAEHPADH@Z
       2022  7E5 009B33C0 ?CheckShowShape@CUITatoo@@AAEXXZ
       2023  7E6 004A61F0 ?CheckSkillAttack@CNetworkLibrary@@QAEHJPAVCEntity@@@Z
       2024  7E7 002AE470 ?CheckSplit@CUITextBox@@IAEXAAH00@Z
       2025  7E8 003C9060 ?CheckSyndiMark@ActorMgr@@QAEHJJ@Z
       2026  7E9 0049DD40 ?CheckVersion_t@CNetworkLibrary@@QAEXAAVCTStream@@HAAH@Z
       2027  7EA 00373140 ?ClampMipLevel@CTextureData@@QBEJM@Z
       2028  7EB 0035F280 ?ClampTextureSize@@YAJJJJJ@Z
       2029  7EC 006EDE00 ?ClassificationShowRender@CUIAutoHelp@@QAEXXZ
       2030  7ED 009E3E40 ?Clear@CAnimData@@UAEXXZ
       2031  7EE 00625300 ?Clear@CAnimSet@@UAEXXZ
       2032  7EF 003E6C50 ?Clear@CAttachedModel@@QAEXXZ
       2033  7F0 00351F10 ?Clear@CAttachedModelPosition@@QAEXXZ
       2034  7F1 003E2A00 ?Clear@CAttachedSound@@QAEXXZ
       2035  7F2 00A2D920 ?Clear@CBrush3D@@QAEXXZ
       2036  7F3 000080F0 ?Clear@CBrushEdge@@QAEXXZ
       2037  7F4 00A3E710 ?Clear@CBrushMip@@QAEXXZ
       2038  7F5 00008020 ?Clear@CBrushPlane@@QAEXXZ
       2039  7F6 00A402F0 ?Clear@CBrushPolygon@@QAEXXZ
       2040  7F7 00008160 ?Clear@CBrushPolygonEdge@@QAEXXZ
       2041  7F8 00008990 ?Clear@CBrushPolygonTexture@@QAEXXZ
       2042  7F9 00A43370 ?Clear@CBrushSector@@QAEXXZ
       2043  7FA 00007EE0 ?Clear@CBrushVertex@@QAEXXZ
       2044  7FB 0043E680 ?Clear@CCollisionInfo@@QAEXXZ
       2045  7FC 00684180 ?Clear@CEffectGroupManager@@QAEXXZ
       2046  7FD 00686EF0 ?Clear@CEffectManager@@QAEXXZ
       2047  7FE 0000CFD0 ?Clear@CEntity@@QAEXXZ
       2048  7FF 005A7CA0 ?Clear@CEntityClass@@UAEXXZ
       2049  800 003285C0 ?Clear@CFontData@@UAEXXZ
       2050  801 0063F810 ?Clear@CGroupTag@@QAEXXZ
       2051  802 003623D0 ?Clear@CImageInfo@@QAEXXZ
       2052  803 002F37B0 ?Clear@CIntersector@@QAEXXZ
       2053  804 005BC720 ?Clear@CItemEffect@@QAEXXZ
       2054  805 009FF370 ?Clear@CListHead@@QAEXXZ
       2055  806 00634930 ?Clear@CMesh@@UAEXXZ
       2056  807 004EA6C0 ?Clear@CMobTarget@@QAEXXZ
       2057  808 00351DC0 ?Clear@CModelCollisionBox@@QAEXXZ
       2058  809 003FC3C0 ?Clear@CModelData@@UAEXXZ
       2059  80A 00644380 ?Clear@CModelInstance@@QAEXXZ
       2060  80B 00644E50 ?Clear@CModelInstanceSerial@@UAEXXZ
       2061  80C 006D58B0 ?Clear@CNiceWater@@QAEXXZ
       2062  80D 002D5000 ?Clear@CObject3D@@QAEXXZ
       2063  80E 002D4AF0 ?Clear@CObjectPolygon@@QAEXXZ
       2064  80F 002D49D0 ?Clear@CObjectPolygonEdge@@QAEXXZ
       2065  810 006C2290 ?Clear@CParticleGroupManager@@QAEXXZ
       2066  811 004ED560 ?Clear@CPlayerAction@@QAEXXZ
       2067  812 0040B2A0 ?Clear@CRenderModel@@QAEXXZ
       2068  813 00380620 ?Clear@CRenderTexture@@QAEXKM@Z
       2069  814 004EADD0 ?Clear@CSelectedEntities@@QAEXXZ
       2070  815 00A0ABD0 ?Clear@CSerial@@UAEXXZ
       2071  816 0036DA10 ?Clear@CShader@@UAEXXZ
       2072  817 003708F0 ?Clear@CShadowMap@@QAEXXZ
       2073  818 0066CF60 ?Clear@CSkeleton@@UAEXXZ
       2074  819 003D20C0 ?Clear@CSoundData@@UAEXXZ
       2075  81A 003D8340 ?Clear@CSoundLibrary@@QAEXXZ
       2076  81B 00002970 ?Clear@CTString@@QAEXXZ
       2077  81C 009F2750 ?Clear@CTWString@@QAEXXZ
       2078  81D 006D3A00 ?Clear@CTagManager@@QAEXXZ
       2079  81E 005EF910 ?Clear@CTerrain@@QAEXXZ
       2080  81F 00378100 ?Clear@CTextureData@@UAEXXZ
       2081  820 006EBD80 ?Clear@CUIAutoHelp@@QAEXXZ
       2082  821 00790AA0 ?Clear@CUIGuildBattle@@QAEXXZ
       2083  822 000AC620 ?Clear@CUIImageArray@@QAEXXZ
       2084  823 00862710 ?Clear@CUIMultiLineText@@QAEXXZ
       2085  824 0097CCA0 ?Clear@CUISignBoard@@QAEXXZ
       2086  825 00980360 ?Clear@CUISingleBattle@@QAEXXZ
       2087  826 009B1FF0 ?Clear@CUITatoo@@QAEXXZ
       2088  827 0041E110 ?Clear@CWorld@@QAEXXZ
       2089  828 00400BC0 ?Clear@ModelMipInfo@@QAEXXZ
       2090  829 00351C80 ?Clear@PolygonsPerPatch@@QAEXXZ
       2091  82A 00A6FD30 ?ClearActionApplied@CMovableEntity@@UAEXXZ
       2092  82B 004B6C00 ?ClearAffinityData@CNetworkLibrary@@QAEXXZ
       2093  82C 004A7AD0 ?ClearAffinityRewardNPC@CNetworkLibrary@@QAEXXZ
       2094  82D 005CEF50 ?ClearAllAllowList@CQuestSystem@@QAEXXZ
       2095  82E 005CEEC0 ?ClearAllDynamicData@CQuestSystem@@QAEXXZ
       2096  82F 00122840 ?ClearAllRestoreList@Quest@@QAEXXZ
       2097  830 002A9230 ?ClearAni@CUISpriteAni@@QAEXXZ
       2098  831 003FC730 ?ClearAnimations@CModelData@@QAEXXZ
       2099  832 004A6CB0 ?ClearAttackList@CNetworkLibrary@@QAEXXZ
       2100  833 003D1880 ?ClearBuffer@CSoundData@@QAEXXZ
       2101  834 007204E0 ?ClearCashType@CUICashShopEX@@IAEXXZ
       2102  835 00A5A970 ?ClearCharacterSlot@CGameState@@QAEXXZ
       2103  836 0000A540 ?ClearChild@CTagManager@@QAEXXZ
       2104  837 00441A60 ?ClearCollisionGrid@CWorld@@QAEXXZ
       2105  838 009FADC0 ?ClearControlsValue@CInputDevice@@QAEXXZ
       2106  839 00684310 ?ClearCreated@CEffectGroupManager@@QAEXXZ
       2107  83A 006870A0 ?ClearCreated@CEffectManager@@QAEXXZ
       2108  83B 006C2420 ?ClearCreated@CParticleGroupManager@@QAEXXZ
       2109  83C 00837E30 ?ClearDamageData@CUIManager@@QAEXXZ
       2110  83D 0016BBC0 ?ClearExpress@CUIExpressSystem@@QAEXXZ
       2111  83E 006ED560 ?ClearGMNNotice@CUIAutoHelp@@QAEXXZ
       2112  83F 0071FAB0 ?ClearGoodsList@CUICashShopEX@@IAEXXZ
       2113  840 009FA400 ?ClearInput@CInput@@QAEXXZ
       2114  841 00739340 ?ClearInputBuffer@CUIEditBox@@QAEXXZ
       2115  842 006713C0 ?ClearInstance@CCameraEffect@@IAEXXZ
       2116  843 0068D270 ?ClearInstance@COrbitEffect@@IAEXXZ
       2117  844 006A2B20 ?ClearInstance@CShockWaveEffect@@IAEXXZ
       2118  845 006B1920 ?ClearInstance@CSplinePathEffect@@IAEXXZ
       2119  846 0016BBF0 ?ClearItemList@CUIExpressSystem@@QAEXXZ
       2120  847 003BFD60 ?ClearLabel@ActorMgr@@QAEXXZ
       2121  848 003D8370 ?ClearLibrary@CSoundLibrary@@QAEXXZ
       2122  849 00107760 ?ClearList@ExpressSystem@@QAEXXZ
       2123  84A 00421150 ?ClearMarkedForUseFlag@CWorld@@QAEXXZ
       2124  84B 00A5F220 ?ClearModelEffect@CGameState@@QAEXHW4eModelUIType@@@Z
       2125  84C 00A7FAF0 ?ClearMove@CPlayerEntity@@UAEXXZ
       2126  84D 004A7430 ?ClearMoveList@CNetworkLibrary@@QAEXXZ
       2127  84E 00A75FA0 ?ClearMovingTemp@CMovableEntity@@UAEXXZ
       2128  84F 005A2660 ?ClearMovingTemp@CRationalEntity@@UAEXXZ
       2129  850 00A7FC10 ?ClearMultiTargets@CPlayerEntity@@UAEXXZ
       2130  851 00107830 ?ClearNPCInfo@ExpressSystem@@QAEXXZ
       2131  852 00A74430 ?ClearNextPosition@CMovableEntity@@QAEXXZ
       2132  853 00581B50 ?ClearNoTranslate@CAffinityData@@QAEXV?$vector@JV?$allocator@J@std@@@std@@@Z
       2133  854 005B4B10 ?ClearNoTranslate@CItemData@@QAEXXZ
       2134  855 00011250 ?ClearNoTranslate@CMissionCase@@QAEXXZ
       2135  856 005C5C40 ?ClearNoTranslate@CMobData@@QAEXXZ
       2136  857 0000EB90 ?ClearNoTranslate@COptionData@@QAEXXZ
       2137  858 005D0270 ?ClearNoTranslate@CQuestSystem@@QAEXV?$vector@JV?$allocator@J@std@@@std@@@Z
       2138  859 0068CC80 ?ClearOrbit@COrbitEffect@@QAEXXZ
       2139  85A 000F7E20 ?ClearPartyTarget@Party@@QAEXJ@Z
       2140  85B 004AEA90 ?ClearPetList@CNetworkLibrary@@QAEXXZ
       2141  85C 00119CF0 ?ClearPetList@PetStash@@QAEXXZ
       2142  85D 0027AB20 ?ClearPetSkill@MyInfoSkill@@QAEXH@Z
       2143  85E 0027AAF0 ?ClearPetSkill@MyInfoSkill@@QAEXXZ
       2144  85F 0071FBD0 ?ClearPurchaseItemList@CUICashShopEX@@IAEXXZ
       2145  860 00120780 ?ClearQuest@Quest@@QAEXXZ
       2146  861 00121A90 ?ClearQuestList@Quest@@QAEXXZ
       2147  862 005DBE60 ?ClearQueue@ByteQueueData@@QAEXXZ
       2148  863 00A6FD90 ?ClearReapplyingActions@CMovableEntity@@UAEXXZ
       2149  864 0071FB10 ?ClearRecommandList@CUICashShopEX@@IAEXXZ
       2150  865 004A7740 ?ClearRegenList@CNetworkLibrary@@QAEXXZ
       2151  866 0027AD60 ?ClearSSkill@MyInfoSkill@@QAEXXZ
       2152  867 00152950 ?ClearSSkills@CUICharacterInfo@@QAEXXZ
       2153  868 0045C720 ?ClearSectorList@CCastRay@@QAEXXZ
       2154  869 001225E0 ?ClearSelectedQuestList@Quest@@QAEXXZ
       2155  86A 0027AD30 ?ClearSkill@MyInfoSkill@@QAEXXZ
       2156  86B 001528C0 ?ClearSkills@CUICharacterInfo@@QAEXXZ
       2157  86C 006B13E0 ?ClearSplinePath@CSplinePathEffect@@QAEXXZ
       2158  86D 00A1A350 ?ClearStreamHandling@CTStream@@SAXXZ
       2159  86E 00A7FD60 ?ClearTargetInfo@CPlayerEntity@@UAEXPAVCEntity@@@Z
       2160  86F 000F7EC0 ?ClearTargetMark@Party@@QAEXXZ
       2161  870 00A70A70 ?ClearTemporaryData@CMovableEntity@@QAEXXZ
       2162  871 000B4750 ?ClearToDefault@@YAXAAC@Z
       2163  872 000B4740 ?ClearToDefault@@YAXAAE@Z
       2164  873 000B4770 ?ClearToDefault@@YAXAAF@Z
       2165  874 000B4760 ?ClearToDefault@@YAXAAG@Z
       2166  875 000B4780 ?ClearToDefault@@YAXAAH@Z
       2167  876 000B4730 ?ClearToDefault@@YAXAAJ@Z
       2168  877 000B48D0 ?ClearToDefault@@YAXAAK@Z
       2169  878 000B4720 ?ClearToDefault@@YAXAAM@Z
       2170  879 000B48E0 ?ClearToDefault@@YAXAAPAVCModelData@@@Z
       2171  87A 000B48F0 ?ClearToDefault@@YAXAAPAVCTextureData@@@Z
       2172  87B 000B47D0 ?ClearToDefault@@YAXAAV?$Plane@M$02@@@Z
       2173  87C 000B4860 ?ClearToDefault@@YAXAAV?$Vector@M$02@@@Z
       2174  87D 000B4900 ?ClearToDefault@@YAXAAVCEntityID@@@Z
       2175  87E 000B4790 ?ClearToDefault@@YAXAAVCEntityPointer@@@Z
       2176  87F 000B47B0 ?ClearToDefault@@YAXAAVCTString@@@Z
       2177  880 0000B1C0 ?ClearToDefault@@YAXAAVEBegin@@@Z
       2178  881 0000BB90 ?ClearToDefault@@YAXAAVEBlock@@@Z
       2179  882 0000C770 ?ClearToDefault@@YAXAAVEDamage@@@Z
       2180  883 0000C9F0 ?ClearToDefault@@YAXAAVEDeath@@@Z
       2181  884 0000C480 ?ClearToDefault@@YAXAAVEFirstWorldBase@@@Z
       2182  885 0000ACB0 ?ClearToDefault@@YAXAAVEInternal@@@Z
       2183  886 0000B8B0 ?ClearToDefault@@YAXAAVEPass@@@Z
       2184  887 0000CE00 ?ClearToDefault@@YAXAAVEPlayerInit@@@Z
       2185  888 0000C2D0 ?ClearToDefault@@YAXAAVEPostLevelChange@@@Z
       2186  889 0000C100 ?ClearToDefault@@YAXAAVEPreLevelChange@@@Z
       2187  88A 0000B010 ?ClearToDefault@@YAXAAVEReturn@@@Z
       2188  88B 0000CC00 ?ClearToDefault@@YAXAAVETakingBreath@@@Z
       2189  88C 0000BF30 ?ClearToDefault@@YAXAAVETeleport@@@Z
       2190  88D 0000B370 ?ClearToDefault@@YAXAAVETimer@@@Z
       2191  88E 0000B610 ?ClearToDefault@@YAXAAVETouch@@@Z
       2192  88F 0000AE60 ?ClearToDefault@@YAXAAVEVoid@@@Z
       2193  890 0000BD80 ?ClearToDefault@@YAXAAVEWouldFall@@@Z
       2194  891 0000C4D0 ?ClearToDefault@@YAXAAW4DamageType@@@Z
       2195  892 002B1770 ?ClearUI@CUITextBoxEx@@QAEXXZ
       2196  893 002B26B0 ?ClearUI@CUITextEx@@QAEXXZ
       2197  894 0027AC20 ?ClearWildPetSkill@MyInfoSkill@@QAEXXZ
       2198  895 0071FB70 ?ClearWishList@CUICashShopEX@@IAEXXZ
       2199  896 00A79120 ?ClientCacheNearPolygons@CMovableEntity@@QAEXXZ
       2200  897 004ABBD0 ?ClientSystemMessage@CNetworkLibrary@@QAEXAAVCTString@@H@Z
       2201  898 004D5570 ?Client_Clear@CCommunicationInterface@@QAEXXZ
       2202  899 004D4FC0 ?Client_Close@CCommunicationInterface@@QAEXXZ
       2203  89A 004D4E10 ?Client_Init_t@CCommunicationInterface@@QAEXK@Z
       2204  89B 004D4C60 ?Client_Init_t@CCommunicationInterface@@QAEXPAD@Z
       2205  89C 004D5630 ?Client_IsConnected@CCommunicationInterface@@QAEHXZ
       2206  89D 004D5140 ?Client_OpenLocal@CCommunicationInterface@@QAEXXZ
       2207  89E 004D5230 ?Client_OpenNet_t@CCommunicationInterface@@QAEXK@Z
       2208  89F 004D5930 ?Client_PeekSize_Reliable@CCommunicationInterface@@QAEXAAJ0@Z
       2209  8A0 004D5860 ?Client_Receive_Reliable@CCommunicationInterface@@QAEHAAVCTStream@@@Z
       2210  8A1 004D5790 ?Client_Receive_Reliable@CCommunicationInterface@@QAEHPAXAAJ@Z
       2211  8A2 004D5A50 ?Client_Receive_Unreliable@CCommunicationInterface@@QAEHPAXAAJ@Z
       2212  8A3 004D5C10 ?Client_Receive_Unreliable_New@CCommunicationInterface@@QAEHPAXAAJ1@Z
       2213  8A4 004D56B0 ?Client_Send_Reliable@CCommunicationInterface@@QAEXPBXJ@Z
       2214  8A5 004D5970 ?Client_Send_Unreliable@CCommunicationInterface@@QAEXPBXJ@Z
       2215  8A6 004D5B20 ?Client_Send_Unreliable_New@CCommunicationInterface@@QAEXPBXJH@Z
       2216  8A7 004D5EE0 ?Client_Update@CCommunicationInterface@@QAEHXZ
       2217  8A8 002F5010 ?ClipLine@CIsometricProjection3D@@UBEKAAV?$Vector@M$02@@0@Z
       2218  8A9 002F7DD0 ?ClipLine@CParallelProjection3D@@UBEKAAV?$Vector@M$02@@0@Z
       2219  8AA 002FAA10 ?ClipLine@CPerspectiveProjection3D@@UBEKAAV?$Vector@M$02@@0@Z
       2220  8AB 002FC3E0 ?ClipLine@CSimpleProjection3D@@UBEKAAV?$Vector@M$02@@0@Z
       2221  8AC 0043E560 ?ClipMove@CWorld@@QAEXAAVCClipMove@@@Z
       2222  8AD 0027FBA0 ?Clone@CUIArray@@UAEPAVCUIBase@@XZ
       2223  8AE 002817A0 ?Clone@CUIArrayItem@@UAEPAVCUIBase@@XZ
       2224  8AF 00281E20 ?Clone@CUIBase@@UAEPAV1@XZ
       2225  8B0 006FB6D0 ?Clone@CUIButton@@UAEPAVCUIBase@@XZ
       2226  8B1 00726370 ?Clone@CUICheckButton@@UAEPAVCUIBase@@XZ
       2227  8B2 00732860 ?Clone@CUIComboBox@@UAEPAVCUIBase@@XZ
       2228  8B3 0073C5D0 ?Clone@CUIEditBox@@UAEPAVCUIBase@@XZ
       2229  8B4 002989B0 ?Clone@CUIIcon@@UAEPAVCUIBase@@XZ
       2230  8B5 0029A570 ?Clone@CUIImage@@UAEPAVCUIBase@@XZ
       2231  8B6 0029B410 ?Clone@CUIImageArray@@UAEPAVCUIBase@@XZ
       2232  8B7 0029CA70 ?Clone@CUIImageFont@@UAEPAVCUIBase@@XZ
       2233  8B8 002A7A10 ?Clone@CUIImageSplit@@UAEPAVCUIBase@@XZ
       2234  8B9 0029D0F0 ?Clone@CUIImageText@@UAEPAVCUIBase@@XZ
       2235  8BA 002A0800 ?Clone@CUIList@@UAEPAVCUIBase@@XZ
       2236  8BB 002A1F60 ?Clone@CUIListItem@@UAEPAVCUIBase@@XZ
       2237  8BC 0091C8A0 ?Clone@CUIProgressBar@@UAEPAVCUIBase@@XZ
       2238  8BD 00948290 ?Clone@CUIScrollBar@@UAEPAVCUIBase@@XZ
       2239  8BE 00992270 ?Clone@CUISlideBar@@UAEPAVCUIBase@@XZ
       2240  8BF 009A5830 ?Clone@CUISpinButton@@UAEPAVCUIBase@@XZ
       2241  8C0 002A8D00 ?Clone@CUISpriteAni@@UAEPAVCUIBase@@XZ
       2242  8C1 002AA2B0 ?Clone@CUITab@@UAEPAVCUIBase@@XZ
       2243  8C2 002AA110 ?Clone@CUITabPage@@UAEPAVCUIBase@@XZ
       2244  8C3 002ABB40 ?Clone@CUIText@@UAEPAVCUIBase@@XZ
       2245  8C4 002AD7D0 ?Clone@CUITextBox@@UAEPAVCUIBase@@XZ
       2246  8C5 002B15D0 ?Clone@CUITextBoxEx@@UAEPAVCUIBase@@XZ
       2247  8C6 002B1F80 ?Clone@CUITextEx@@UAEPAVCUIBase@@XZ
       2248  8C7 002C9930 ?Clone@CUITree@@UAEPAVCUIBase@@XZ
       2249  8C8 002C8A50 ?Clone@CUITreeItem@@UAEPAVCUIBase@@XZ
       2250  8C9 00285740 ?CloneChild@CUIBase@@UAEXPAV1@@Z
       2251  8CA 00285900 ?CloneProcChild@CUIBase@@QAE?AW4WMSG_RESULT@@XZ
       2252  8CB 004D1230 ?Close@CCommunicationInterface@@QAEXXZ
       2253  8CC 00A1F640 ?Close@CTFileStream@@QAEXXZ
       2254  8CD 007918C0 ?Close@CUIGuildBattle@@QAEXXZ
       2255  8CE 009806F0 ?Close@CUISingleBattle@@QAEXXZ
       2256  8CF 009B25F0 ?Close@CUITatoo@@QAEXXZ
       2257  8D0 001733B0 ?Close@MsgBoxMgr@@QAE_NI_N@Z
       2258  8D1 00790220 ?CloseAllMsgBox@CUIGuildBattle@@QAEXXZ
       2259  8D2 003815C0 ?CloseCanvas@CViewPort@@QAEXXZ
       2260  8D3 004F6D20 ?CloseClient@CServer@@QAEXJ@Z
       2261  8D4 00A148F0 ?CloseExceptionHandler@@YAXXZ
       2262  8D5 0016BAF0 ?CloseExpressSystem@CUIExpressSystem@@QAEXXZ
       2263  8D6 00823780 ?CloseMessageBox@CUIManager@@QAEXH@Z
       2264  8D7 00823BB0 ?CloseMessageBoxL@CUIManager@@QAEXH@Z
       2265  8D8 0019E0D0 ?ClosePetStashSelectEffect@CUIPetStashSelectEffect@@QAEXXZ
       2266  8D9 002858B0 ?CloseProc@CUIBase@@UAE?AW4WMSG_RESULT@@XZ
       2267  8DA 00947B60 ?CloseResurrectionMsgBox@CUIResurrectionMsgBox@@QAEXXZ
       2268  8DB 0083AD20 ?CloseSelectiveUI@CUIManager@@QAEXH@Z
       2269  8DC 002CF5A0 ?CloseSocketSystem@CUISocketSystem@@QAEXXZ
       2270  8DD 0022B510 ?CloseUI@CUICharacterCreateNew@@QAEXXZ
       2271  8DE 00155F30 ?CloseUI@CUICharacterInfo@@QAEXXZ
       2272  8DF 002462A0 ?CloseUI@CUILoginNew@@QAEXXZ
       2273  8E0 00546640 ?CloseWebPage@cWeb@@QAEHPAUHWND__@@@Z
       2274  8E1 00170770 ?CloseWindowByEsc@CUIExpressSystem@@UAEHXZ
       2275  8E2 0011B650 ?CloseWindowByEsc@CUIPetStashSelectEffect@@UAEHXZ
       2276  8E3 00285A70 ?CmdErase@CUIBase@@QAEXXZ
       2277  8E4 00305A40 ?ColorToHSV@@YAXKAAE00@Z
       2278  8E5 00403C10 ?ColorizePolygon@CModelObject@@QAEXPAVCDrawPort@@PAVCProjection3D@@JJJH@Z
       2279  8E6 004029A0 ?ColorizeRegion@CModelObject@@QAEXPAVCDrawPort@@PAVCProjection3D@@V?$AABBox@J$01@@JH@Z
       2280  8E7 00A801A0 ?CommandAction@CPlayerEntity@@UAEHXZ
       2281  8E8 00A80180 ?CommandAttack@CPlayerEntity@@UAEXXZ
       2282  8E9 00A1DDC0 ?CommitPage@CTStream@@QAEXJ@Z
       2283  8EA 003D9AB0 ?CommitPlayingBuffer@CSoundLibrary@@AAEJAAVCSoundObject@@AAH@Z
       2284  8EB 00305F80 ?CompareChroma@@YAHKK@Z
       2285  8EC 00721D40 ?CompleteBringItems@CUICashShopEX@@QAEXXZ
       2286  8ED 0097B270 ?CompleteConsensus@CUISiegeWarfareNew@@QAEXK@Z
       2287  8EE 0091E1E0 ?CompleteProgress@CUIProgressBar@@QAEXXZ
       2288  8EF 00721C90 ?CompletePurchase@CUICashShopEX@@QAEXXZ
       2289  8F0 005A8FE0 ?ComponentForPointer@CDLLEntityClass@@QAEPAVCEntityComponent@@PAX@Z
       2290  8F1 005A8CE0 ?ComponentForPointer@CEntityClass@@QAEPAVCEntityComponent@@PAX@Z
       2291  8F2 005A8F20 ?ComponentForTypeAndID@CDLLEntityClass@@QAEPAVCEntityComponent@@W4EntityComponentType@@J@Z
       2292  8F3 005A2220 ?ComponentForTypeAndID@CEntity@@QAEPAVCEntityComponent@@KK@Z
       2293  8F4 005A8CA0 ?ComponentForTypeAndID@CEntityClass@@QAEPAVCEntityComponent@@W4EntityComponentType@@J@Z
       2294  8F5 0049F750 ?CompoundReq@CNetworkLibrary@@QAEXFFPAF0@Z
       2295  8F6 00376E70 ?Compress@CTextureData@@QAEPAEAAJH@Z
       2296  8F7 004F49E0 ?ConnectLocalSessionState@CServer@@QAEXJAAVCNetworkMessage@@@Z
       2297  8F8 004F4B00 ?ConnectRemoteSessionState@CServer@@QAEXJAAVCNetworkMessage@@@Z
       2298  8F9 0022A0A0 ?ConnectToLoginServer@LoginNew@@QAEHXZ
       2299  8FA 0021A8E0 ?ConnectToServer@CServerSelect@@QAEXVCTString@@K@Z
       2300  8FB 009E6720 ?ContinueAnim@CAnimObject@@QAEXXZ
       2301  8FC 0045EA40 ?ContinueCast@CCastRay@@QAEXPAVCWorld@@@Z
       2302  8FD 0045EB60 ?ContinueCast@CWorld@@QAEXAAVCCastRay@@@Z
       2303  8FE 002E1C70 ?ConvertArraysToO3D@CObject3D@@QAEXXZ
       2304  8FF 000159B0 ?ConvertToWindow@CUIBase@@QAEXAAH0@Z
       2305  900 009E6190 ?Copy@CAnimObject@@QAEXAAV1@@Z
       2306  901 00A2DA10 ?Copy@CBrush3D@@QAEXAAV1@MH@Z
       2307  902 00A3E360 ?Copy@CBrushMip@@QAEXAAV1@MH@Z
       2308  903 00671790 ?Copy@CCameraEffect@@UAEPAVCEffect@@XZ
       2309  904 0067F000 ?Copy@CEffectGroup@@QAEPAV1@XZ
       2310  905 005AF760 ?Copy@CEntity@@UAEXAAV1@K@Z
       2311  906 0068A640 ?Copy@CEntityEffect@@UAEPAVCEffect@@XZ
       2312  907 006CFBE0 ?Copy@CEntityTag@@UAEPAVCTag@@XZ
       2313  908 006D0590 ?Copy@CGroupTag@@UAEPAVCTag@@XZ
       2314  909 0068AB20 ?Copy@CLightEffect@@UAEPAVCEffect@@XZ
       2315  90A 005A2330 ?Copy@CLiveEntity@@UAEXAAVCEntity@@K@Z
       2316  90B 0068BB60 ?Copy@CMdlEffect@@UAEPAVCEffect@@XZ
       2317  90C 00643F30 ?Copy@CModelInstance@@QAEXAAV1@@Z
       2318  90D 00401140 ?Copy@CModelObject@@QAEXAAV1@@Z
       2319  90E 00A70950 ?Copy@CMovableEntity@@UAEXAAVCEntity@@K@Z
       2320  90F 004E85C0 ?Copy@CNetworkSession@@QAEXABV1@@Z
       2321  910 0068E0E0 ?Copy@COrbitEffect@@UAEPAVCEffect@@XZ
       2322  911 006946F0 ?Copy@CParticleEffect@@UAEPAVCEffect@@XZ
       2323  912 006BCAA0 ?Copy@CParticleGroup@@QAEPAV1@XZ
       2324  913 006C70C0 ?Copy@CParticlesAbsorptionDefault@@UAEPAVCParticlesAbsorption@@XZ
       2325  914 006C75D0 ?Copy@CParticlesAbsorptionSphere@@UAEPAVCParticlesAbsorption@@XZ
       2326  915 006C82E0 ?Copy@CParticlesEmitterCone@@UAEPAVCParticlesEmitter@@XZ
       2327  916 006C8EF0 ?Copy@CParticlesEmitterCylinder@@UAEPAVCParticlesEmitter@@XZ
       2328  917 006C9B10 ?Copy@CParticlesEmitterSphere@@UAEPAVCParticlesEmitter@@XZ
       2329  918 006CA5A0 ?Copy@CParticlesProcessControl@@UAEPAVCParticlesCommonProcess@@XZ
       2330  919 006CB0D0 ?Copy@CParticlesProcessDynamicState@@UAEPAVCParticlesCommonProcess@@XZ
       2331  91A 006CDD80 ?Copy@CParticlesProcessForce@@UAEPAVCParticlesCommonProcess@@XZ
       2332  91B 006CE480 ?Copy@CParticlesProcessPointGoal@@UAEPAVCParticlesCommonProcess@@XZ
       2333  91C 006CEE00 ?Copy@CParticlesProcessVelocity@@UAEPAVCParticlesCommonProcess@@XZ
       2334  91D 00A80980 ?Copy@CPlayerEntity@@UAEXAAVCEntity@@K@Z
       2335  91E 005A26E0 ?Copy@CRationalEntity@@UAEXAAVCEntity@@K@Z
       2336  91F 006A3940 ?Copy@CShockWaveEffect@@UAEPAVCEffect@@XZ
       2337  920 006AB870 ?Copy@CSkaEffect@@UAEPAVCEffect@@XZ
       2338  921 006D18C0 ?Copy@CSkaTag@@UAEPAVCTag@@XZ
       2339  922 006ACDB0 ?Copy@CSoundEffect@@UAEPAVCEffect@@XZ
       2340  923 003DE9B0 ?Copy@CSoundObject@@QAEXAAV1@@Z
       2341  924 006ADCA0 ?Copy@CSplineBillboardEffect@@UAEPAVCEffect@@XZ
       2342  925 006B2140 ?Copy@CSplinePathEffect@@UAEPAVCEffect@@XZ
       2343  926 006B5000 ?Copy@CTerrainEffect@@UAEPAVCEffect@@XZ
       2344  927 00378390 ?Copy@CTextureObject@@QAEXAAV1@@Z
       2345  928 006B71A0 ?Copy@CTraceEffect@@UAEPAVCEffect@@XZ
       2346  929 0073CE60 ?Copy@CUIEditBox@@QAE_NPAUHWND__@@@Z
       2347  92A 006D5520 ?Copy@CWorldTag@@UAEPAVCTag@@XZ
       2348  92B 005B0FD0 ?CopyAllEntitiesExceptOne@CWorld@@QAEXAAV1@AAVCEntity@@ABVCPlacement3D@@@Z
       2349  92C 00597B10 ?CopyCollisionInfo@CEntity@@QAEXAAV1@@Z
       2350  92D 00A1CB90 ?CopyDictionary@CTStream@@QAEXAAV1@@Z
       2351  92E 00019E50 ?CopyDownUV@CUIScrollBar@@QAEXW4UIBtnState@@0@Z
       2352  92F 000A4440 ?CopyDownUV@CUISpinButton@@QAEXW4UIBtnState@@0@Z
       2353  930 005B0410 ?CopyEntities@CWorld@@QAEXAAV1@AAV?$CDynamicContainer@VCEntity@@@@AAV?$CSelection@VCEntity@@$00@@ABVCPlacement3D@@@Z
       2354  931 005B10E0 ?CopyEntityInWorld@CWorld@@QAEPAVCEntity@@AAV2@ABVCPlacement3D@@HKH@Z
       2355  932 005B02F0 ?CopyEntityProperties@CEntity@@QAEXAAV1@K@Z
       2356  933 00A40460 ?CopyFromSameSector@CBrushPolygon@@QAEXAAV1@@Z
       2357  934 00231050 ?CopyLowerTo@CParticlePrototype@@QBEXAAVCParticle@@@Z
       2358  935 00643E30 ?CopyMeshInstance@CModelInstance@@QAEXAAV1@@Z
       2359  936 003D92A0 ?CopyMixerBuffer_dsound@CSoundLibrary@@AAEXJ@Z
       2360  937 003D9480 ?CopyMixerBuffer_waveout@CSoundLibrary@@AAEXXZ
       2361  938 00A5E220 ?CopyModel@CGameState@@QAEPAVCEntity@@PAV2@0@Z
       2362  939 005B0DF0 ?CopyOneEntity@CWorld@@QAEPAVCEntity@@AAV2@ABVCPlacement3D@@@Z
       2363  93A 005AFF00 ?CopyOneProperty@CEntity@@QAEXAAVCEntityProperty@@0AAV1@K@Z
       2364  93B 00A41580 ?CopyPolygon@CBrushPolygon@@QAEAAV1@AAV1@@Z
       2365  93C 00447AA0 ?CopyPolygonInWorld@CWorld@@QAEXAAVCBrushPolygon@@AAVCBrushSector@@JAAJ2@Z
       2366  93D 00447EE0 ?CopyPolygonsToBrush@CWorld@@QAEXAAV?$CSelection@VCBrushPolygon@@$0BAA@@@PAVCEntity@@@Z
       2367  93E 00A40560 ?CopyProperties@CBrushPolygon@@QAEAAV1@AAV1@H@Z
       2368  93F 00A40640 ?CopyPropertiesWithoutTexture@CBrushPolygon@@QAEAAV1@AAV1@@Z
       2369  940 000171C0 ?CopyRTSurface@CUIButton@@QAEXW4UIBtnState@@0@Z
       2370  941 00017260 ?CopyRTSurface@CUIButton@@QAEXW4UIBtnState@@AAVCUIRectSurface@@@Z
       2371  942 000A6390 ?CopyScrollDownUV@CUIComboBox@@QAEXW4UIBtnState@@0@Z
       2372  943 000A7630 ?CopyScrollDownUV@CUIListBox@@QAEXW4UIBtnState@@0@Z
       2373  944 000A61D0 ?CopyScrollUpUV@CUIComboBox@@QAEXW4UIBtnState@@0@Z
       2374  945 000A7470 ?CopyScrollUpUV@CUIListBox@@QAEXW4UIBtnState@@0@Z
       2375  946 004470A0 ?CopySectors@CWorld@@QAEXAAV?$CSelection@VCBrushSector@@$00@@PAVCEntity@@H@Z
       2376  947 004448E0 ?CopySourceBrushSectorsToObject@CWorld@@QAEXAAVCEntity@@AAV?$CSelection@VCBrushSector@@$03@@ABVCPlacement3D@@AAVCObject3D@@2AAV?$AABBox@N$02@@@Z
       2377  948 000088C0 ?CopyTextureProperties@CBrushPolygonTexture@@QAEAAV1@AAV1@H@Z
       2378  949 00A406C0 ?CopyTextures@CBrushPolygon@@QAEAAV1@AAV1@@Z
       2379  94A 00016C00 ?CopyUV@CUIButton@@QAEXW4UIBtnState@@0@Z
       2380  94B 00016CA0 ?CopyUV@CUIButton@@QAEXW4UIBtnState@@AAUUIRectUV@@@Z
       2381  94C 000A5430 ?CopyUV@CUICheckButton@@QAEXW4UICheckBtnState@@0@Z
       2382  94D 00019C90 ?CopyUpUV@CUIScrollBar@@QAEXW4UIBtnState@@0@Z
       2383  94E 000A43A0 ?CopyUpUV@CUISpinButton@@QAEXW4UIBtnState@@0@Z
       2384  94F 00231020 ?CopyUpperTo@CParticlePrototype@@QBEXAAVCParticle@@@Z
       2385  950 003EF7F0 ?CorrectCollisionBoxSize@CEditModel@@QAEXXZ
       2386  951 002D2BB0 ?Cos@@YAMM@Z
       2387  952 00003E20 ?CosFast@@YAMM@Z
       2388  953 0063F920 ?Count@CGroupTag@@QAEJXZ
       2389  954 009FFB20 ?Count@CListHead@@QBEJXZ
       2390  955 00011980 ?Count@CSelectedEntities@@QAEHXZ
       2391  956 003EDAA0 ?CountPatches@CEditModel@@QAEJXZ
       2392  957 006848A0 ?Create@CEffectGroupManager@@QAEPAVCEffectGroup@@V?$basic_string@DU?$char_traits@D@std@@V?$allocator@D@2@@std@@@Z
       2393  958 00687690 ?Create@CEffectManager@@QAEPAVCEffect@@V?$basic_string@DU?$char_traits@D@std@@V?$allocator@D@2@@std@@@Z
       2394  959 006C28D0 ?Create@CParticleGroupManager@@QAEPAVCParticleGroup@@V?$basic_string@DU?$char_traits@D@std@@V?$allocator@D@2@@std@@@Z
       2395  95A 005CF190 ?Create@CQuestSystem@@QAEPAVCQuestDynamicData@@J@Z
       2396  95B 006EBEF0 ?Create@CUIAutoHelp@@QAEXXZ
       2397  95C 006FB7B0 ?Create@CUIButton@@QAEXPAVCUIWindow@@AAVCTString@@HHHH@Z
       2398  95D 0070A3A0 ?Create@CUICashShopEX@@UAEXPAVCUIWindow@@HHHH@Z
       2399  95E 00726450 ?Create@CUICheckButton@@QAEXPAVCUIWindow@@HHHHAAVCTString@@HHH@Z
       2400  95F 0072FCC0 ?Create@CUIComboBox@@QAEXPAVCUIWindow@@HHHHHHHHHHHH@Z
       2401  960 00737070 ?Create@CUIEditBox@@QAEXPAVCUIWindow@@HHHHHHH@Z
       2402  961 0016D920 ?Create@CUIExpressSystem@@UAEXPAVCUIWindow@@HHHH@Z
       2403  962 00790BC0 ?Create@CUIGuildBattle@@UAEXPAVCUIWindow@@HHHH@Z
       2404  963 00296D70 ?Create@CUIIcon@@QAEXPAVCUIWindow@@HHHHHHH@Z
       2405  964 0029A530 ?Create@CUIImage@@QAEXPAVCUIBase@@HHHH@Z
       2406  965 00809220 ?Create@CUIListBox@@QAEXPAVCUIWindow@@HHHHHHHHHH@Z
       2407  966 008207C0 ?Create@CUIManager@@QAEXXZ
       2408  967 008B1990 ?Create@CUIOption@@UAEXPAVCUIWindow@@HHHH@Z
       2409  968 0091C970 ?Create@CUIProgressBar@@UAEXPAVCUIWindow@@HHHH@Z
       2410  969 0097CD20 ?Create@CUISignBoard@@QAEXH@Z
       2411  96A 00980380 ?Create@CUISingleBattle@@UAEXPAVCUIWindow@@HHHH@Z
       2412  96B 00992320 ?Create@CUISlideBar@@QAEXPAVCUIWindow@@HHHHHHHHHH@Z
       2413  96C 009A58E0 ?Create@CUISpinButton@@QAEXPAVCUIWindow@@HHHHVCTString@@H@Z
       2414  96D 009B2020 ?Create@CUITatoo@@UAEXPAVCUIWindow@@HHHH@Z
       2415  96E 0026A860 ?Create@GameDataManager@@QAEXXZ
       2416  96F 0026EBA0 ?Create@StageMgr@@QAEXXZ
       2417  970 009E4020 ?CreateAnimations@CAnimData@@QAEXJVCTString@@JM@Z
       2418  971 0040B970 ?CreateAttachment@CModelObject@@QAEHAAVCRenderModel@@AAVCAttachmentModelObject@@@Z
       2419  972 00A3F890 ?CreateBSPPolygon@CBrushPolygon@@QAEXAAV?$BSPPolygon@N$02@@@Z
       2420  973 00A3FA00 ?CreateBSPPolygonNonPrecise@CBrushPolygon@@QAEXAAV?$BSPPolygon@N$02@@@Z
       2421  974 009484F0 ?CreateButtons@CUIScrollBar@@QAEXHHHHHH@Z
       2422  975 009A59C0 ?CreateButtons@CUISpinButton@@QAEXHHHH@Z
       2423  976 0097C510 ?CreateBuyQuarterBox@CUISiegeWarfareNew@@QAEXH@Z
       2424  977 0022D910 ?CreateCharacter@CUICharacterCreateNew@@AAEXXZ
       2425  978 00333200 ?CreateContext_OGL@CGfxLibrary@@AAEHPAUHDC__@@@Z
       2426  979 003739C0 ?CreateEffectTexture@CTextureData@@QAEXJJJPAV1@K@Z
       2427  97A 003E71D0 ?CreateEmptyAttachingSounds@CEditModel@@QAEXXZ
       2428  97B 005A2290 ?CreateEntity@CEntity@@QAEPAV1@ABVCPlacement3D@@JKH@Z
       2429  97C 0041E450 ?CreateEntity@CWorld@@QAEPAVCEntity@@ABVCPlacement3D@@PAVCEntityClass@@KH@Z
       2430  97D 0041E680 ?CreateEntity_t@CWorld@@QAEPAVCEntity@@ABVCPlacement3D@@ABVCTFileName@@KH@Z
       2431  97E 008236F0 ?CreateMessageBox@CUIManager@@QAEHAAVCUIMsgBox_Info@@HH@Z
       2432  97F 008239B0 ?CreateMessageBoxL@CUIManager@@QAEXAAVCTString@@HHHH@Z
       2433  980 003EB810 ?CreateMipModels_t@CEditModel@@QAEXAAVCObject3D@@0JJ@Z
       2434  981 00644F80 ?CreateModelInstance@@YAPAVCModelInstance@@VCTString@@@Z
       2435  982 00172E50 ?CreateMsgBox@MsgBoxMgr@@QAEIPBD0UsMsgBox_Element@@@Z
       2436  983 00172B00 ?CreateMsgBox@MsgBoxMgr@@QAEIPBD0W4eMSG_TYPE@@_NPAVCommand@@3@Z
       2437  984 002E7080 ?CreatePolygon@CObjectSector@@QAEPAVCObjectPolygon@@JQAJAAVCObjectMaterial@@KH@Z
       2438  985 002E6BE0 ?CreatePolygon@CObjectSector@@QAEPAVCObjectPolygon@@JQAV?$Vector@N$02@@AAVCObjectMaterial@@KH@Z
       2439  986 00448680 ?CreatePolygon@CWorld@@QAEXAAV?$CSelection@VCBrushVertex@@$01@@@Z
       2440  987 008B55B0 ?CreateResolutionList@CUIOption@@IAEXXZ
       2441  988 003E7DE0 ?CreateScriptFile_t@CEditModel@@QAEXAAVCTFileName@@@Z
       2442  989 0072FE10 ?CreateScroll@CUIComboBox@@QAEXHHHHHH@Z
       2443  98A 00809550 ?CreateScroll@CUIListBox@@QAEXHHHHHHHHHH@Z
       2444  98B 002D5600 ?CreateSectorBSPs@CObject3D@@QAEXXZ
       2445  98C 002D5030 ?CreateSectorIndices@CObject3D@@QAEXXZ
       2446  98D 006580E0 ?CreateShadowMatrix@@YAXPAVCModelInstance@@ABVCPlacement3D@@AAY0BA@MAAY0M@$$CBMAAY0BA@$$CBMM1@Z
       2447  98E 004B12A0 ?CreateSlave@CNetworkLibrary@@QAEXHPAVCEntity@@H@Z
       2448  98F 004D1D70 ?CreateSocket_t@CCommunicationInterface@@QAEXXZ
       2449  990 0030ACC0 ?CreateSubDrawPort@CDrawPort@@QAE?AV1@ABV?$AABBox@J$01@@@Z
       2450  991 0030AE10 ?CreateSubDrawPortRatio@CDrawPort@@QAE?AV1@ABV?$AABBox@M$01@@@Z
       2451  992 00015C10 ?CreateTexture@CUIBase@@QAEPAVCTextureData@@VCTFileName@@@Z
       2452  993 00378DF0 ?CreateTexture_t@@YAXABVCTFileName@@0JJK@Z
       2453  994 00378FD0 ?CreateTexture_t@@YAXABVCTFileName@@JJK@Z
       2454  995 002312D0 ?CreateTo@CParticlePrototype@@QAEXAAVCParticle@@@Z
       2455  996 00A5E880 ?CreateUIModelDefaultWearing@CGameState@@QAEXH@Z
       2456  997 00A5E620 ?CreateUIModelWearing@CGameState@@QAEXHHH@Z
       2457  998 0097C310 ?CreateWaitQuarterBox@CUISiegeWarfareNew@@QAEXXZ
       2458  999 00358A90 ?CreateWindowCanvas@CGfxLibrary@@QAEXPAXPAPAVCViewPort@@PAPAVCDrawPort@@@Z
       2459  99A 00358C60 ?CreateWorkCanvas@CGfxLibrary@@QAEXJJPAPAVCDrawPort@@@Z
       2460  99B 00A1EC40 ?Create_t@CTFileStream@@QAEXABVCTFileName@@W4CreateMode@CTStream@@@Z
       2461  99C 003736B0 ?Create_t@CTextureData@@QAEXPBVCImageInfo@@JJK@Z
       2462  99D 00009B70 ?CurrentTagInfo@CTag@@QAEAAVTagInfo@@XZ
       2463  99E 00005BA0 ?CurrentTick@CTimer@@QBE?BMXZ
       2464  99F 003D5D80 ?DSFail@CSoundLibrary@@AAEHPAD@Z
       2465  9A0 003D5DC0 ?DSLockBuffer@CSoundLibrary@@AAEHPAUIDirectSoundBuffer@@JAAPAXAAK@Z
       2466  9A1 003D5EC0 ?DSPlayMainBuffers@CSoundLibrary@@AAEXXZ
       2467  9A2 011BE280 ?DamageType_enum@@3VCEntityPropertyEnumType@@A
       2468  9A3 011BE1E0 ?DamageType_values@@3PAVCEntityPropertyEnumValue@@A
       2469  9A4 0029BA80 ?DataAt@CUIImageArray@@QAEXHAAU_UIRect@@AAUUIRectUV@@AAV?$basic_string@DU?$char_traits@D@std@@V?$allocator@D@2@@std@@@Z
       2470  9A5 002A9270 ?DataAt@CUISpriteAni@@QAEXHAAUUIRectUV@@@Z
       2471  9A6 00009E20 ?Deactivate@CTag@@QAEXXZ
       2472  9A7 00A7B4B0 ?DeathNow@CMovableModelEntity@@UAEXXZ
       2473  9A8 00A7FF80 ?DeathYou@CPlayerEntity@@UAEXXZ
       2474  9A9 002D5EB0 ?DebugDump@CObject3D@@QAEXXZ
       2475  9AA 0049A780 ?DebugSave@CNetworkLibrary@@QAEXXZ
       2476  9AB 00018C70 ?DecRef@CUIEditBox@@IAEXXZ
       2477  9AC 00A0E390 ?DeclareSymbol@CShell@@QAEXABVCTString@@PAX@Z
       2478  9AD 00A1DF00 ?DecommitPage@CTStream@@QAEXJ@Z
       2479  9AE 002D35B0 ?DecomposeRotationMatrix@@YAXAAV?$Vector@M$02@@ABV?$Matrix@M$02$02@@@Z
       2480  9AF 002D3440 ?DecomposeRotationMatrixNoSnap@@YAXAAV?$Vector@M$02@@ABV?$Matrix@M$02$02@@@Z
       2481  9B0 009E4370 ?DefaultAnimation@CAnimData@@QAEXXZ
       2482  9B1 00A5E970 ?DefaultArmorWearing@CGameState@@QAEXPAVCModelInstance@@HH@Z
       2483  9B2 004AE090 ?DefenseGuildReq@CNetworkLibrary@@QAEXXZ
       2484  9B3 004EAC70 ?Del@CSelectedEntities@@QAEXVCEntityPointer@@@Z
       2485  9B4 005BCD70 ?DelAccessoryEffect@CItemEffect@@QAEHXZ
       2486  9B5 004AD220 ?DelChaTarget@CNetworkLibrary@@QAEXK@Z
       2487  9B6 0073D310 ?DelChars@CUIEditBox@@QAEXXZ
       2488  9B7 00116570 ?DelFromNoticeList@Notice@@QAEXHW4eNoticeType@1@@Z
       2489  9B8 004A79A0 ?DelLegitList@CNetworkLibrary@@QAEXH@Z
       2490  9B9 004AD1B0 ?DelMobTarget@CNetworkLibrary@@QAEXK@Z
       2491  9BA 00120C00 ?DelQuest@Quest@@QAEHHH@Z
       2492  9BB 00121860 ?DelQuestList@Quest@@QAEHHH@Z
       2493  9BC 0059AC70 ?DelSkaModel@CEntity@@QAEXABVCTString@@@Z
       2494  9BD 00592360 ?DelTargetInfo@CEntity@@QAEXXZ
       2495  9BE 005BCD00 ?DelWearEffect@CItemEffect@@QAEHH@Z
       2496  9BF 004AD290 ?DelWildPetTarget@CNetworkLibrary@@QAEXK@Z
       2497  9C0 00173550 ?Delete@MsgBoxMgr@@QAEXI@Z
       2498  9C1 00172760 ?DeleteAll@MsgBoxMgr@@QAEXXZ
       2499  9C2 006411F0 ?DeleteAllChildren@CModelInstance@@QAEXH@Z
       2500  9C3 002A18E0 ?DeleteAllListItem@CUIList@@QAE_NXZ
       2501  9C4 004AC090 ?DeleteAllMob@CNetworkLibrary@@QAEXXZ
       2502  9C5 00646360 ?DeleteAnimEffect@CModelInstance@@QAEXABVCTString@@@Z
       2503  9C6 009E5D20 ?DeleteAnimation@CAnimData@@QAEXJ@Z
       2504  9C7 00A2D2B0 ?DeleteBrushMip@CBrush3D@@QAEXPAVCBrushMip@@@Z
       2505  9C8 009EF270 ?DeleteChar@CTString@@QAEXJ@Z
       2506  9C9 00739FA0 ?DeleteChar@CUIEditBox@@QAEXH@Z
       2507  9CA 009EF560 ?DeleteChars@CTString@@QAEXJJ@Z
       2508  9CB 0073A290 ?DeleteChars@CUIEditBox@@QAEXHH@Z
       2509  9CC 00641090 ?DeleteChild@CModelInstance@@QAEXPAV1@@Z
       2510  9CD 00A7FEA0 ?DeleteCurrentArmor@CPlayerEntity@@UAEXH@Z
       2511  9CE 003EF2A0 ?DeleteCurrentCollisionBox@CEditModel@@QAEXXZ
       2512  9CF 005CF2B0 ?DeleteCurrentRequest@CQuestSystem@@QAEXXZ
       2513  9D0 00A5B820 ?DeleteDefaultArmor@CGameState@@QAEXPAVCModelInstance@@HH@Z
       2514  9D1 00A7FE60 ?DeleteDefaultArmor@CPlayerEntity@@UAEXH@Z
       2515  9D2 005BCAC0 ?DeleteEffect@CItemEffect@@QAEXHH@Z
       2516  9D3 0036D8E0 ?DeleteHandles@CShader@@QAEXXZ
       2517  9D4 005BD810 ?DeleteLoginJinEffect@CItemEffect@@QAEXXZ
       2518  9D5 00644560 ?DeleteMesh@CModelInstance@@QAEXVCTString@@@Z
       2519  9D6 00645040 ?DeleteModelInstance@@YAXPAVCModelInstance@@@Z
       2520  9D7 005BD5C0 ?DeleteNickEffect@CItemEffect@@QAEXXZ
       2521  9D8 00529D60 ?DeleteObject@CSessionState@@QAEXCK@Z
       2522  9D9 0068E2B0 ?DeleteOrbit@COrbitEffect@@QAEHJ@Z
       2523  9DA 0011A780 ?DeletePet@PetStash@@QAEXH@Z
       2524  9DB 005BD6A0 ?DeletePetStashEffect@CItemEffect@@QAEXXZ
       2525  9DC 00448400 ?DeletePolygons@CWorld@@QAEXAAV?$CDynamicContainer@VCBrushPolygon@@@@@Z
       2526  9DD 005BDBB0 ?DeleteRelicEffect@CItemEffect@@QAEXXZ
       2527  9DE 00104F00 ?DeleteReservedEG@CAnimEffect@@QAEHJ@Z
       2528  9DF 00447740 ?DeleteSectors@CWorld@@QAEXAAV?$CSelection@VCBrushSector@@$00@@H@Z
       2529  9E0 00A5F130 ?DeleteSelectModel@CGameState@@QAEXXZ
       2530  9E1 00A3E1F0 ?DeleteSelectedSectors@CBrushMip@@QAEXAAV?$CSelection@VCBrushSector@@$03@@@Z
       2531  9E2 00591530 ?DeleteSelf@CEntity@@QAEXXZ
       2532  9E3 006B22C0 ?DeleteSplinePath@CSplinePathEffect@@QAEHJ@Z
       2533  9E4 006D0860 ?DeleteTag@CGroupTag@@QAEXABV?$CRefCountPtr@VCTag@@@@@Z
       2534  9E5 002B2520 ?DeleteUICont@CUITextEx@@AAEXXZ
       2535  9E6 00A7FE20 ?DeleteWearingWeapon@CPlayerEntity@@UAEXHH@Z
       2536  9E7 00005270 ?DepthBufferFarL@CProjection3D@@QAEAAMXZ
       2537  9E8 000052A0 ?DepthBufferFarR@CProjection3D@@QBEABMXZ
       2538  9E9 00005220 ?DepthBufferNearL@CProjection3D@@QAEAAMXZ
       2539  9EA 00005250 ?DepthBufferNearR@CProjection3D@@QBEABMXZ
       2540  9EB 00309FA0 ?DepthString@CDisplayMode@@QBE?AVCTString@@XZ
       2541  9EC 00306200 ?DesaturateColor@@YAKK@Z
       2542  9ED 00008D90 ?Deselect@CBrushPolygon@@QAEXK@Z
       2543  9EE 000092A0 ?Deselect@CBrushSector@@QAEXK@Z
       2544  9EF 00007F30 ?Deselect@CBrushVertex@@QAEXK@Z
       2545  9F0 0000D020 ?Deselect@CEntity@@QAEXK@Z
       2546  9F1 003FBC90 ?DesreaseShadowQuality@CModelRenderPrefs@@QAEXXZ
       2547  9F2 00684A40 ?Destroy@CEffectGroupManager@@QAEXAAPAVCEffectGroup@@@Z
       2548  9F3 00687A40 ?Destroy@CEffectManager@@QAEXAAPAVCEffect@@@Z
       2549  9F4 00595720 ?Destroy@CEntity@@QAEXH@Z
       2550  9F5 006C2A50 ?Destroy@CParticleGroupManager@@QAEXAAPAVCParticleGroup@@@Z
       2551  9F6 00281BC0 ?Destroy@CUIBase@@UAEXXZ
       2552  9F7 00737670 ?Destroy@CUIEditBox@@UAEXXZ
       2553  9F8 00823300 ?DestroyAll@CUIManager@@QAEXXZ
       2554  9F9 0026A240 ?DestroyAll@GameDataManager@@QAEXXZ
       2555  9FA 001726B0 ?DestroyAll@MsgBoxMgr@@QAEXXZ
       2556  9FB 0026EA60 ?DestroyAll@StageMgr@@QAEXXZ
       2557  9FC 004419F0 ?DestroyCollisionGrid@CWorld@@QAEXXZ
       2558  9FD 0041E750 ?DestroyEntities@CWorld@@QAEXAAV?$CSelection@VCEntity@@$00@@@Z
       2559  9FE 0041E6F0 ?DestroyOneEntity@CWorld@@QAEXPAVCEntity@@@Z
       2560  9FF 007087E0 ?DestroyRenderTarget@CUICashShopEX@@QAEXXZ
       2561  A00 0083C570 ?DestroyRenderTarget@CUIManager@@QAEXXZ
       2562  A01 00358C00 ?DestroyWindowCanvas@CGfxLibrary@@QAEXPAVCViewPort@@@Z
       2563  A02 00358E60 ?DestroyWorkCanvas@CGfxLibrary@@QAEXPAVCDrawPort@@@Z
       2564  A03 00362390 ?Detach@CImageInfo@@QAEXXZ
       2565  A04 0000F0D0 ?DetachTag@CEffect@@QAEXXZ
       2566  A05 00A1D340 ?DictionaryPreload_t@CTStream@@QAEXXZ
       2567  A06 00A1CC90 ?DictionaryReadBegin_t@CTStream@@QAEJXZ
       2568  A07 00A1D000 ?DictionaryReadEnd_t@CTStream@@QAEXXZ
       2569  A08 00A1C4D0 ?DictionaryWriteBegin_t@CTStream@@QAEXABVCTFileName@@J@Z
       2570  A09 00A1C750 ?DictionaryWriteEnd_t@CTStream@@QAEXXZ
       2571  A0A 002D37F0 ?DirectionVectorToAngles@@YAXABV?$Vector@M$02@@AAV1@@Z
       2572  A0B 002D3700 ?DirectionVectorToAnglesNoSnap@@YAXABV?$Vector@M$02@@AAV1@@Z
       2573  A0C 009FAEF0 ?DisableControl@CInputDevice@@QAEXJ@Z
       2574  A0D 009FAE70 ?DisableDevice@CInputDevice@@QAEXXZ
       2575  A0E 00231E20 ?DisableDynamicAlpha@CEffectControl@@QAEXXZ
       2576  A0F 00693570 ?DisableDynamicAlpha@CParticlesProcessDynamicState@@QAEXXZ
       2577  A10 00232320 ?DisableDynamicAngle@CEffectControl@@QAEXXZ
       2578  A11 00693BC0 ?DisableDynamicAngle@CParticlesProcessDynamicState@@QAEXXZ
       2579  A12 00231CC0 ?DisableDynamicColor@CEffectControl@@QAEXXZ
       2580  A13 00693260 ?DisableDynamicColor@CParticlesProcessDynamicState@@QAEXXZ
       2581  A14 00693A00 ?DisableDynamicDeltaPos@CParticlesProcessDynamicState@@QAEXXZ
       2582  A15 00693890 ?DisableDynamicMass@CParticlesProcessDynamicState@@QAEXXZ
       2583  A16 00232140 ?DisableDynamicPos@CEffectControl@@QAEXXZ
       2584  A17 006936D0 ?DisableDynamicSize@CParticlesProcessDynamicState@@QAEXXZ
       2585  A18 00231F80 ?DisableDynamicStretch@CEffectControl@@QAEXXZ
       2586  A19 006933C0 ?DisableDynamicTexPos@CParticlesProcessDynamicState@@QAEXXZ
       2587  A1A 009FA1F0 ?DisableInput@CInput@@QAEXXZ
       2588  A1B 00A25480 ?DisableLerp@CTimer@@QAEXXZ
       2589  A1C 00A1A2A0 ?DisableStreamHandling@CTStream@@SAXXZ
       2590  A1D 00444120 ?DisableVisTweaks@CWorldRenderPrefs@@QAEXH@Z
       2591  A1E 00A49540 ?DiscardAllLayers@CBrushShadowMap@@QAEXXZ
       2592  A1F 0041F4F0 ?DiscardAllShadows@CWorld@@QAEXXZ
       2593  A20 00597A50 ?DiscardCollisionInfo@CEntity@@QAEXXZ
       2594  A21 00A40360 ?DiscardShadingInfos@CBrushPolygon@@QAEXXZ
       2595  A22 005E9D20 ?DiscardShadowLayers@CLightSource@@QAEXXZ
       2596  A23 00A481F0 ?DiscardShadows@CBrushPolygon@@QAEXXZ
       2597  A24 00A48190 ?DiscardShadows@CBrushShadowLayer@@QAEXXZ
       2598  A25 00A49630 ?DiscardShadows@CBrushShadowMap@@QAEXXZ
       2599  A26 004D15E0 ?Disconnect@CCommunicationInterface@@QAEXXZ
       2600  A27 00A80B50 ?Disconnect@CPlayerEntity@@UAEXXZ
       2601  A28 00A5ABA0 ?DisplayErrorMessage@CGameState@@QAEXEHHHH@Z
       2602  A29 00360200 ?DitherBitmap@@YAXJPAK0JJJJ@Z
       2603  A2A 00360770 ?DitherMipmaps@@YAXJPAK0JJ@Z
       2604  A2B 0049EC30 ?DivideItem@CNetworkLibrary@@QAEXFFFFH@Z
       2605  A2C 00444EE0 ?DoCSGOperation@CWorld@@QAEXAAVCEntity@@AAV1@0ABVCPlacement3D@@P8CObject3D@@AEXAAV4@3@Z4@Z
       2606  A2D 00A6F4E0 ?DoMoving@CMovableBrushEntity@@UAEXXZ
       2607  A2E 00A785E0 ?DoMoving@CMovableEntity@@UAEXXZ
       2608  A2F 00A7B1D0 ?DoMoving@CMovableModelEntity@@UAEXXZ
       2609  A30 00A80950 ?DoMoving@CPlayerEntity@@UAEXXZ
       2610  A31 005A26A0 ?DoMoving@CRationalEntity@@UAEXXZ
       2611  A32 00823810 ?DoesMessageBoxExist@CUIManager@@QAEHH@Z
       2612  A33 00823C40 ?DoesMessageBoxLExist@CUIManager@@QAEHH@Z
       2613  A34 00018F80 ?DoesShowReadingWindow@CUIEditBox@@QAEHXZ
       2614  A35 0083ADC0 ?DoesUIExist@CUIManager@@QAEHH@Z
       2615  A36 0030D2A0 ?DrawBorder@CDrawPort@@QBEXJJJJKK@Z
       2616  A37 003BF990 ?DrawCharRadar@ActorMgr@@QAEXHHMPAVCDrawPort@@AAU_UIRect@@AAUUIRectUV@@_N@Z
       2617  A38 003C1980 ?DrawCharacter@ActorMgr@@AAEXPAVCCharacterTarget@@PAVCDrawPort@@PAVCProjection3D@@K_N@Z
       2618  A39 00792ED0 ?DrawColon@CUIGuildBattle@@QAEXHH@Z
       2619  A3A 00980CA0 ?DrawColon@CUISingleBattle@@QAEXHH@Z
       2620  A3B 003EC8C0 ?DrawFilledSurface@CEditModel@@QAEXPAVCDrawPort@@JJMJJKK@Z
       2621  A3C 0081F4C0 ?DrawGuildRankBox@CUIManager@@QAEXU_UIRect@@CM@Z
       2622  A3D 003C5490 ?DrawItem@ActorMgr@@AAEXPAVCItemTarget@@PAVCDrawPort@@PAVCProjection3D@@@Z
       2623  A3E 0030CFA0 ?DrawLine3D@CDrawPort@@QBEXV?$Vector@M$02@@0K@Z
       2624  A3F 0030CB50 ?DrawLine@CDrawPort@@QBEXJJJJKK@Z
       2625  A40 003C01C0 ?DrawMob@ActorMgr@@AAEXPAVCMobTarget@@PAVCDrawPort@@PAVCProjection3D@@@Z
       2626  A41 003BF610 ?DrawMobRadar@ActorMgr@@QAEXHHMPAVCDrawPort@@AAU_UIRect@@AAUUIRectUV@@@Z
       2627  A42 00792940 ?DrawNumber@CUIGuildBattle@@QAEXHHH_N@Z
       2628  A43 00838700 ?DrawNumber@CUIManager@@QAEXHHHKM@Z
       2629  A44 009809A0 ?DrawNumber@CUISingleBattle@@QAEXHHH_N@Z
       2630  A45 003BFF20 ?DrawObjectName@ActorMgr@@QAEXPAVCDrawPort@@PAVCProjection3D@@K_N@Z
       2631  A46 003C6E50 ?DrawPet@ActorMgr@@AAEXPAVCPetTarget@@PAVCDrawPort@@PAVCProjection3D@@@Z
       2632  A47 0030C810 ?DrawPoint3D@CDrawPort@@QBEXV?$Vector@M$02@@KM@Z
       2633  A48 0030C4E0 ?DrawPoint@CDrawPort@@QBEXJJKJ@Z
       2634  A49 003C5F90 ?DrawSlave@ActorMgr@@AAEXPAVCSlaveTarget@@PAVCDrawPort@@PAVCProjection3D@@@Z
       2635  A4A 003C9100 ?DrawSyndiMark@ActorMgr@@QAEXHPAVCDrawPort@@HHM@Z
       2636  A4B 00838540 ?DrawTextA@CUIManager@@QAEXHHCKM@Z
       2637  A4C 003C7DD0 ?DrawWildPet@ActorMgr@@AAEXPAVCWildPetTarget@@PAVCDrawPort@@PAVCProjection3D@@@Z
       2638  A4D 003EC3B0 ?DrawWireSurface@CEditModel@@QAEXPAVCDrawPort@@JJMJJKK@Z
       2639  A4E 00A806B0 ?DropDeathItem@CPlayerEntity@@UAEXPAVCEntity@@@Z
       2640  A4F 0049E9F0 ?DropItem@CNetworkLibrary@@QAEXHH_J@Z
       2641  A50 008332D0 ?DropItem@CUIManager@@IAEXHH@Z
       2642  A51 0083D3D0 ?DropItemCallback@CUIManager@@QAEXXZ
       2643  A52 004F6E10 ?DropLaggingClients@CServer@@QAEXXZ
       2644  A53 00592B70 ?DropsMarker@CEntity@@UBEHAAVCTFileName@@AAVCTString@@@Z
       2645  A54 00A6F570 ?Dummy@CMovableBrushEntity@@QAEHABVCEntityEvent@@@Z
       2646  A55 00A793B0 ?Dummy@CMovableEntity@@QAEHABVCEntityEvent@@@Z
       2647  A56 00A7B4D0 ?Dummy@CMovableModelEntity@@QAEHABVCEntityEvent@@@Z
       2648  A57 00A80BA0 ?Dummy@CPlayerEntity@@QAEHABVCEntityEvent@@@Z
       2649  A58 004EC3A0 ?Dump@CNetworkMessage@@QAEXXZ
       2650  A59 00A14A80 ?DumpCurrentStack@@YAXPAVCTFileStream@@@Z
       2651  A5A 0041EA20 ?DumpReferenceInfo@CWorld@@QAEXPAVCEntity@@@Z
       2652  A5B 004F71D0 ?DumpStats@CServer@@QAEXXZ
       2653  A5C 00A7F590 ?DumpToConsole@CPlayerEntity@@UAEXXZ
       2654  A5D 003ED850 ?EditAddPatch@CEditModel@@QAEHVCTFileName@@V?$Vector@J$01@@AAJ@Z
       2655  A5E 003EDA40 ?EditRemoveAllPatches@CEditModel@@QAEXXZ
       2656  A5F 003EDA00 ?EditRemovePatch@CEditModel@@QAEXJ@Z
       2657  A60 0063F8F0 ?Empty@CGroupTag@@QAE_NXZ
       2658  A61 002316F0 ?Empty@CParticles@@QAE_NXZ
       2659  A62 0000A350 ?Empty@CTagManager@@QAEHXZ
       2660  A63 009FAEB0 ?EnableControl@CInputDevice@@QAEXJ@Z
       2661  A64 009FAE30 ?EnableDevice@CInputDevice@@QAEXXZ
       2662  A65 00231E00 ?EnableDynamicAlpha@CEffectControl@@QAEXXZ
       2663  A66 00693550 ?EnableDynamicAlpha@CParticlesProcessDynamicState@@QAEXXZ
       2664  A67 00232300 ?EnableDynamicAngle@CEffectControl@@QAEXXZ
       2665  A68 00693BA0 ?EnableDynamicAngle@CParticlesProcessDynamicState@@QAEXXZ
       2666  A69 00231CA0 ?EnableDynamicColor@CEffectControl@@QAEXXZ
       2667  A6A 00693240 ?EnableDynamicColor@CParticlesProcessDynamicState@@QAEXXZ
       2668  A6B 006939E0 ?EnableDynamicDeltaPos@CParticlesProcessDynamicState@@QAEXXZ
       2669  A6C 00693870 ?EnableDynamicMass@CParticlesProcessDynamicState@@QAEXXZ
       2670  A6D 00232120 ?EnableDynamicPos@CEffectControl@@QAEXXZ
       2671  A6E 006936B0 ?EnableDynamicSize@CParticlesProcessDynamicState@@QAEXXZ
       2672  A6F 00231F60 ?EnableDynamicStretch@CEffectControl@@QAEXXZ
       2673  A70 006933A0 ?EnableDynamicTexPos@CParticlesProcessDynamicState@@QAEXXZ
       2674  A71 0000E2C0 ?EnableInitUpdateMasterBuffer@CCommunicationInterface@@QAEXXZ
       2675  A72 009F9BC0 ?EnableInput@CInput@@QAEXPAUHWND__@@@Z
       2676  A73 009F9B90 ?EnableInput@CInput@@QAEXPAVCViewPort@@@Z
       2677  A74 000A9220 ?EnableRotate@CUIImage@@QAEX_N@Z
       2678  A75 00644910 ?EnableSrcRememberFN@CModelInstance@@SAXH@Z
       2679  A76 00A1A190 ?EnableStreamHandling@CTStream@@SAXXZ
       2680  A77 00644920 ?EnableVertexArrayKeeping@CModelInstance@@SAXH@Z
       2681  A78 004E9A90 ?Encrypt@CMessageDispatcher@@QAEXAAVCNetworkMessage@@@Z
       2682  A79 00593A10 ?End@CEntity@@QAEXXZ
       2683  A7A 00380680 ?End@CRenderTexture@@QAEXXZ
       2684  A7B 005462B0 ?End@cWeb@@QAEHXZ
       2685  A7C 0019DA40 ?EndAni@CUIPetStashSelectEffect@@QAEXXZ
       2686  A7D 0026EFF0 ?EndCharData@StageMgr@@QAEXXZ
       2687  A7E 009F3880 ?EndDamageMode@CDamageLogInfo@@QAEXXZ
       2688  A7F 0032A780 ?EndDriver_D3D@CGfxLibrary@@AAEXXZ
       2689  A80 0033A4C0 ?EndDriver_OGL@CGfxLibrary@@AAEXXZ
       2690  A81 00A51BF0 ?EndLodData@@YAXXZ
       2691  A82 0040B100 ?EndModelRenderingMask@@YAXXZ
       2692  A83 0040AF10 ?EndModelRenderingView@@YAXH@Z
       2693  A84 004EB9E0 ?EndOfMessage@CNetworkMessage@@QAEHXZ
       2694  A85 00676570 ?EndRender@CEffect@@UAEXH@Z
       2695  A86 0068B0C0 ?EndRender@CLightEffect@@UAEXH@Z
       2696  A87 0068C080 ?EndRender@CMdlEffect@@UAEXH@Z
       2697  A88 00695090 ?EndRender@CParticleEffect@@UAEXH@Z
       2698  A89 006A4980 ?EndRender@CShockWaveEffect@@UAEXH@Z
       2699  A8A 006AC120 ?EndRender@CSkaEffect@@UAEXH@Z
       2700  A8B 006AFAA0 ?EndRender@CSplineBillboardEffect@@UAEXH@Z
       2701  A8C 006B64A0 ?EndRender@CTerrainEffect@@UAEXH@Z
       2702  A8D 006B8940 ?EndRender@CTraceEffect@@UAEXH@Z
       2703  A8E 004A82A0 ?EndRescueNPC@CNetworkLibrary@@QAEXXZ
       2704  A8F 0031BB70 ?EndTextEx@CDrawPort@@QAEXH@Z
       2705  A90 004D1510 ?EndWinsock@CCommunicationInterface@@QAEXXZ
       2706  A91 00593A40 ?End_internal@CEntity@@QAEXXZ
       2707  A92 00A80490 ?EnemyTargetSelected_InputTab@CPlayerEntity@@UAEXXZ
       2708  A93 004EAF10 ?EntSelectedCompare@CSelectedEntities@@SA_NABVCEntityPointer@@0@Z
       2709  A94 0059EB80 ?EntityAdjustBonesCallback@@YAXPAX@Z
       2710  A95 0059EBB0 ?EntityAdjustShaderParamsCallback@@YAXPAXJPAVCShader@@AAUShaderParams@@@Z
       2711  A96 00420F50 ?EntityExists@CWorld@@QAEHKAAPAVCEntity@@@Z
       2712  A97 00420E90 ?EntityFromID@CWorld@@QAEPAVCEntity@@K@Z
       2713  A98 0035A310 ?EnumDisplayModes@CGfxLibrary@@QAEPAVCDisplayMode@@AAJW4GfxAPIType@@J@Z
       2714  A99 004E8AE0 ?EnumNetworkProviders@CMessageDispatcher@@QAEXAAVCListHead@@@Z
       2715  A9A 004E88B0 ?EnumNetworkProviders_startup@CMessageDispatcher@@QAEXAAVCListHead@@@Z
       2716  A9B 0049E770 ?EnumSessionsContinue@CNetworkLibrary@@QAEXXZ
       2717  A9C 0049E640 ?EnumSessionsStart@CNetworkLibrary@@QAEXH@Z
       2718  A9D 0049E790 ?EnumSessionsStop@CNetworkLibrary@@QAEXXZ
       2719  A9E 00689F60 ?EraseEffectControl@CEntityEffect@@QAEXXZ
       2720  A9F 0068BAE0 ?EraseEffectControl@CMdlEffect@@QAEXXZ
       2721  AA0 006AB7F0 ?EraseEffectControl@CSkaEffect@@QAEXXZ
       2722  AA1 00231550 ?EraseLast@CParticles@@QAEXI@Z
       2723  AA2 009F5810 ?ErrorDescription@@YAPBDPBUErrorTable@@J@Z
       2724  AA3 00A0F1A0 ?ErrorF@CShell@@QAAXPBDZZ
       2725  AA4 009F57A0 ?ErrorName@@YAPBDPBUErrorTable@@J@Z
       2726  AA5 00A804B0 ?EvocationStart@CPlayerEntity@@UAEXJH@Z
       2727  AA6 00A804D0 ?EvocationStop@CPlayerEntity@@UAEXJ@Z
       2728  AA7 00A1A530 ?ExceptionFatalError@CTStream@@SAXXZ
       2729  AA8 00A1A390 ?ExceptionFilter@CTStream@@SAHKPAU_EXCEPTION_POINTERS@@@Z
       2730  AA9 004A4900 ?ExchangeItem_Add@CNetworkLibrary@@QAEXH_J@Z
       2731  AAA 004A49F0 ?ExchangeItem_Del@CNetworkLibrary@@QAEXH_J@Z
       2732  AAB 004A4830 ?ExchangeReq_Ok@CNetworkLibrary@@QAEXXZ
       2733  AAC 004A4760 ?ExchangeReq_Ready@CNetworkLibrary@@QAEXXZ
       2734  AAD 004A4690 ?ExchangeReq_Rej@CNetworkLibrary@@QAEXXZ
       2735  AAE 004A45C0 ?ExchangeReq_Rep@CNetworkLibrary@@QAEXXZ
       2736  AAF 004A44B0 ?ExchangeReq_Req@CNetworkLibrary@@QAEXJAAVCTString@@@Z
       2737  AB0 00A0E4C0 ?Execute@CShell@@QAEXABVCTString@@@Z
       2738  AB1 00362410 ?ExpandEdges@CImageInfo@@QAEXJ@Z
       2739  AB2 00A21200 ?ExpandFilePath@@YAJKABVCTFileName@@AAV1@@Z
       2740  AB3 00A1B900 ?ExpectID_t@CTStream@@QAEXABVCChunkID@@@Z
       2741  AB4 00A1BA60 ?ExpectKeyword_t@CTStream@@QAEXABVCTString@@@Z
       2742  AB5 004B5FE0 ?ExpeditionAddCharReq@CNetworkLibrary@@QAEXAAVCTString@@@Z
       2743  AB6 004B5860 ?ExpeditionAllowReq@CNetworkLibrary@@QAEXXZ
       2744  AB7 004B5C40 ?ExpeditionChangeDivisionTypeReq@CNetworkLibrary@@QAEXECC@Z
       2745  AB8 004B5EF0 ?ExpeditionChangeGroupReq@CNetworkLibrary@@QAEXJJJJ@Z
       2746  AB9 004B5D20 ?ExpeditionChangeLeaderReq@CNetworkLibrary@@QAEXJ@Z
       2747  ABA 004B5E00 ?ExpeditionChangeSubLeaderReq@CNetworkLibrary@@QAEXHJ@Z
       2748  ABB 004B6280 ?ExpeditionCollectQuestItemReq@CNetworkLibrary@@QAEXJ@Z
       2749  ABC 004B56D0 ?ExpeditionCreateReq@CNetworkLibrary@@QAEXXZ
       2750  ABD 000FC040 ?ExpeditionEnd@Party@@QAEXXZ
       2751  ABE 004B5B80 ?ExpeditionEndReq@CNetworkLibrary@@QAEXXZ
       2752  ABF 004B5790 ?ExpeditionInviteReq@CNetworkLibrary@@QAEXJ@Z
       2753  AC0 000FBE20 ?ExpeditionKick@Party@@QAEXJ@Z
       2754  AC1 004B5AB0 ?ExpeditionKickReq@CNetworkLibrary@@QAEXJ@Z
       2755  AC2 000FC7F0 ?ExpeditionMemberInfo@Party@@QAEXJJHHHHHMMCJ_N@Z
       2756  AC3 000FCB80 ?ExpeditionMemberOnline@Party@@QAEXJH@Z
       2757  AC4 000FBBE0 ?ExpeditionQuit@Party@@QAEXJJ@Z
       2758  AC5 004B59E0 ?ExpeditionQuitReq@CNetworkLibrary@@QAEXXZ
       2759  AC6 000FBB10 ?ExpeditionReject@Party@@QAEXH@Z
       2760  AC7 004B5920 ?ExpeditionRejectReq@CNetworkLibrary@@QAEXXZ
       2761  AC8 004B6190 ?ExpeditionSetLabelReq@CNetworkLibrary@@QAEXJJJJ@Z
       2762  AC9 004B60B0 ?ExpeditionViewDetailReq@CNetworkLibrary@@QAEXJJ@Z
       2763  ACA 003ED040 ?ExportSurfaceNumbersAndNames@CEditModel@@QAEXVCTFileName@@@Z
       2764  ACB 00376AF0 ?Export_t@CTextureData@@QAEXAAVCImageInfo@@J@Z
       2765  ACC 004EBD80 ?ExtractSubMessage@CNetworkMessage@@QAEXAAV1@@Z
       2766  ACD 002F28E0 ?Extrapolate@CPlacement3D@@QAEXABV1@0M@Z
       2767  ACE 000052C0 ?FOVL@CPerspectiveProjection3D@@QAEAAMXZ
       2768  ACF 000052F0 ?FOVR@CPerspectiveProjection3D@@QBEABMXZ
       2769  AD0 00A1B5D0 ?FPrintF_t@CTStream@@QAAXPBDZZ
       2770  AD1 005A2060 ?FRnd@CEntity@@QAEMXZ
       2771  AD2 003DF570 ?Fade@CSoundObject@@QAEXMMH@Z
       2772  AD3 00A71850 ?FakeJump@CMovableEntity@@QAEXABV?$Vector@M$02@@0MMMMM@Z
       2773  AD4 00594310 ?FallDownToFloor@CEntity@@QAEXXZ
       2774  AD5 00004ED0 ?FarClipDistanceL@CProjection3D@@QAEAAMXZ
       2775  AD6 00004F00 ?FarClipDistanceR@CProjection3D@@QBEABMXZ
       2776  AD7 009F5220 ?FatalError@@YAXPBDZZ
       2777  AD8 003795D0 ?FetchRow@CTextureData@@QAEXJPAXJH@Z
       2778  AD9 00A7FB90 ?FieldModeOn@CPlayerEntity@@UAEXXZ
       2779  ADA 004A8830 ?FieldShopBuyItem@CNetworkLibrary@@QAEXH_J@Z
       2780  ADB 004A89A0 ?FieldShopSellItem@CNetworkLibrary@@QAEXH_J@Z
       2781  ADC 00A1F840 ?FileCommitPage@CTFileStream@@QAEXJ@Z
       2782  ADD 00A1FAB0 ?FileDecommitPage@CTFileStream@@QAEXJ@Z
       2783  ADE 009F59D0 ?FileDir@CTFileName@@QBE?AV1@XZ
       2784  ADF 00A20770 ?FileExists@@YAHABVCTFileName@@@Z
       2785  AE0 00A208A0 ?FileExistsForWriting@@YAHABVCTFileName@@@Z
       2786  AE1 009F5D50 ?FileExt@CTFileName@@QBE?AV1@XZ
       2787  AE2 009F5BD0 ?FileName@CTFileName@@QBE?AV1@XZ
       2788  AE3 0059F640 ?FileNameForComponent@CEntity@@QAEABVCTFileName@@JJ@Z
       2789  AE4 00A1FB80 ?FileReadAhead_t@CTFileStream@@QAEXJJ@Z
       2790  AE5 0030D960 ?Fill@CDrawPort@@QBEXJJJJK@Z
       2791  AE6 0030E2C0 ?Fill@CDrawPort@@QBEXJJJJKKKK@Z
       2792  AE7 0030E700 ?Fill@CDrawPort@@QBEXK@Z
       2793  AE8 005A1450 ?FillEntityStatistics@CEntity@@UAEHPAUEntityStats@@@Z
       2794  AE9 0030E950 ?FillZBuffer@CDrawPort@@QBEXJJJJM@Z
       2795  AEA 0030EBD0 ?FillZBuffer@CDrawPort@@QBEXM@Z
       2796  AEB 00360870 ?FilterBitmap@@YAXJPAK0JJJJ@Z
       2797  AEC 004205D0 ?FilterEntitiesBySpawnFlags@CWorld@@QAEXK@Z
       2798  AED 006D58F0 ?FinalizeShaders@@YAXXZ
       2799  AEE 006A4A90 ?FinalizeShaders@CShockWaveEffect@@SAXXZ
       2800  AEF 006AFBB0 ?FinalizeShaders@CSplineBillboardEffect@@SAXXZ
       2801  AF0 006B8A40 ?FinalizeShaders@CTraceEffect@@SAXXZ
       2802  AF1 006D5B40 ?Finalize_EffectSystem@@YAHXZ
       2803  AF2 006D3860 ?Find@CTagManager@@QAEPAVCTag@@AAV?$basic_string@DU?$char_traits@D@std@@V?$allocator@D@2@@std@@H@Z
       2804  AF3 006D37B0 ?Find@CTagManager@@QAEPAVCTag@@PBDH@Z
       2805  AF4 006434E0 ?FindAnimationByID@CModelInstance@@QAEHJPAJ0@Z
       2806  AF5 006587C0 ?FindBestFOV@@YAXABV?$AABBox@M$02@@AAY0M@$$CBMAAM2@Z
       2807  AF6 0066BF70 ?FindBoneInLOD@CSkeleton@@QBEJJJ@Z
       2808  AF7 005976D0 ?FindCollisionInfo@CEntity@@QAEXXZ
       2809  AF8 006801C0 ?FindEffectKey@CEffectGroup@@QAEPAUEffectKey@1@J@Z
       2810  AF9 0000F800 ?FindEffectKeyValue@CEffectGroup@@QAEJJ@Z
       2811  AFA 005990B0 ?FindEntitiesInRange@CEntity@@QAEXABV?$AABBox@M$02@@AAV?$CDynamicContainer@VCEntity@@@@H@Z
       2812  AFB 00A43050 ?FindEntitiesInSector@CBrushSector@@QAEXXZ
       2813  AFC 00442170 ?FindEntitiesNearBox@CWorld@@QAEXABV?$AABBox@M$02@@AAV?$CStaticStackArray@PAVCEntity@@@@@Z
       2814  AFD 0041EBA0 ?FindEntityWithCharacter@CWorld@@QAEPAVCPlayerEntity@@AAVCPlayerCharacter@@@Z
       2815  AFE 006435C0 ?FindFirstAnimationID@CModelInstance@@QAEJXZ
       2816  AFF 004D7910 ?FindHosNameIP@CCommunicationInterface@@IAE_NPBDAAUsIPFilter@@J@Z
       2817  B00 005CCDA0 ?FindItemForPrize@CQuestDynamicData@@IAEJJJ@Z
       2818  B01 00A49940 ?FindLightRectangle@CBrushShadowMap@@QAEXAAVCLightSource@@AAVCLightRectangle@@@Z
       2819  B02 00641E50 ?FindMeshInstance@CModelInstance@@QAEPAUMeshInstance@@J@Z
       2820  B03 005AF650 ?FindRemappedEntityPointer@CEntity@@SAPAV1@PAV1@@Z
       2821  B04 004FE620 ?FindRememberedLevel@CSessionState@@QAEPAVCRememberedLevel@@ABVCTString@@@Z
       2822  B05 00598160 ?FindSectorsAroundEntity@CEntity@@QAEXXZ
       2823  B06 00598550 ?FindSectorsAroundEntityNear@CEntity@@QAEXXZ
       2824  B07 00595C70 ?FindShadingInfo@CEntity@@QAEXXZ
       2825  B08 005EAE10 ?FindShadowLayers@CLightSource@@QAEXH@Z
       2826  B09 0041F390 ?FindShadowLayers@CWorld@@QAEXABV?$AABBox@M$02@@HH@Z
       2827  B0A 005EA1F0 ?FindShadowLayersDirectional@CLightSource@@QAEXH@Z
       2828  B0B 005EA640 ?FindShadowLayersPoint@CLightSource@@QAEXH@Z
       2829  B0C 009ED590 ?FindSubstr@CTString@@QAEJABV1@@Z
       2830  B0D 00680320 ?FindTagKey@CEffectGroup@@QAEPAUTagKey@1@J@Z
       2831  B0E 0000F830 ?FindTagKeyValue@CEffectGroup@@QAEJJ@Z
       2832  B0F 004A5200 ?FindTargetsInRange@CNetworkLibrary@@QAEXPAVCEntity@@0AAVCSelectedEntities@@MJMJJ@Z
       2833  B10 004A5C50 ?FindTargetsInRangeEx@CNetworkLibrary@@QAEXPAVCEntity@@AAVCSelectedEntities@@MJ@Z
       2834  B11 00641EF0 ?FindTexureInstance@CModelInstance@@QAEPAUTextureInstance@@J@Z
       2835  B12 00641FB0 ?FindTexureInstance@CModelInstance@@QAEPAUTextureInstance@@JAAUMeshInstance@@@Z
       2836  B13 0030A350 ?FindThaiLen@@YAHPBDHH@Z
       2837  B14 0030A290 ?FindVowel@@YAHPBD@Z
       2838  B15 0049E470 ?FinishCRCGather@CNetworkLibrary@@QAEXXZ
       2839  B16 00A26220 ?FinishTranslationTable@@YAXXZ
       2840  B17 009E6A90 ?FirstFrame@CAnimObject@@QAEXXZ
       2841  B18 004F4490 ?FirstInactivePlayer@CServer@@QAEPAVCPlayerTarget@@XZ
       2842  B19 0035F5F0 ?FlipBitmap@@YAXPAE0JJJH@Z
       2843  B1A 00448EC0 ?FlipPolygon@CWorld@@QAEXAAVCBrushPolygon@@@Z
       2844  B1B 0074DEC0 ?FlowerTreeUpdate@CUIFlowerTree@@QAEXK@Z
       2845  B1C 000062D0 ?Flush@CGfxLibrary@@QAEXXZ
       2846  B1D 003D8840 ?Flush@CSoundLibrary@@QAEXXZ
       2847  B1E 0031BF70 ?FlushBtnRenderingQueue@CDrawPort@@QAEXHK@Z
       2848  B1F 0031D440 ?FlushRenderingQueue@CDrawPort@@QBEXXZ
       2849  B20 00376D20 ?Force@CTextureData@@QAEXK@Z
       2850  B21 00A7B390 ?ForceCollisionBoxIndexChange@CMovableModelEntity@@QAEXJ@Z
       2851  B22 00A71820 ?ForceFullStop@CMovableEntity@@QAEXXZ
       2852  B23 00A71750 ?ForceStopRotation@CMovableEntity@@QAEXXZ
       2853  B24 00A71670 ?ForceStopTranslation@CMovableEntity@@QAEXXZ
       2854  B25 00722F50 ?ForcedExit@CUICashShopEX@@QAEXXZ
       2855  B26 004FE870 ?ForgetOldLevels@CSessionState@@QAEXXZ
       2856  B27 00A1DA20 ?FreeBuffer@CTStream@@QAEXXZ
       2857  B28 00A02090 ?FreeMemory@@YAXPAX@Z
       2858  B29 00A02050 ?FreeMemoryAligned@@YAXPAX@Z
       2859  B2A 0046E000 ?FreeUnused@CStock_CAnimData@@QAEXXZ
       2860  B2B 004717F0 ?FreeUnused@CStock_CAnimSet@@QAEXXZ
       2861  B2C 00474750 ?FreeUnused@CStock_CEntityClass@@QAEXXZ
       2862  B2D 004776B0 ?FreeUnused@CStock_CFontData@@QAEXXZ
       2863  B2E 0047A610 ?FreeUnused@CStock_CMesh@@QAEXXZ
       2864  B2F 0047D0A0 ?FreeUnused@CStock_CModelData@@QAEXXZ
       2865  B30 0047FB30 ?FreeUnused@CStock_CModelInstance@@QAEXXZ
       2866  B31 00482A90 ?FreeUnused@CStock_CShader@@QAEXXZ
       2867  B32 00485860 ?FreeUnused@CStock_CSkeleton@@QAEXXZ
       2868  B33 004887C0 ?FreeUnused@CStock_CSoundData@@QAEXXZ
       2869  B34 0048B250 ?FreeUnused@CStock_CTextureData@@QAEXXZ
       2870  B35 00597280 ?FromBrush@CCollisionInfo@@QAEXPAVCBrush3D@@@Z
       2871  B36 002FEF20 ?FromMappingVectors@CMappingDefinition@@QAEXABVCMappingVectors@@0@Z
       2872  B37 00596D30 ?FromModel@CCollisionInfo@@QAEXPAVCEntity@@J@Z
       2873  B38 00A3ADC0 ?FromObject3D_t@CBrush3D@@QAEXAAVCObject3D@@@Z
       2874  B39 00A3B000 ?FromObjectSector_t@CBrushSector@@QAEXAAVCObjectSector@@@Z
       2875  B3A 002FE440 ?FromPlane@CMappingVectors@@QAEXABV?$Plane@M$02@@@Z
       2876  B3B 002FE580 ?FromPlane_DOUBLE@CMappingVectors@@QAEXABV?$Plane@N$02@@@Z
       2877  B3C 00597260 ?FromSkaModel@CCollisionInfo@@QAEXPAVCEntity@@J@Z
       2878  B3D 002FE810 ?FromUI@CMappingDefinition@@QAEXABVCMappingDefinitionUI@@@Z
       2879  B3E 00708920 ?FromXmltoCashData@CUICashShopEX@@IAEPAVTiXmlElement@@AAVCCashTypeNode@@PAV2@W4CTNINFO@3@@Z
       2880  B3F 00004E30 ?FrontClipDistanceL@CProjection3D@@QAEAAMXZ
       2881  B40 00004E60 ?FrontClipDistanceR@CProjection3D@@QBEABMXZ
       2882  B41 007955D0 ?GBEnd@CUIGuildBattle@@QAEXHHVCTString@@H0H@Z
       2883  B42 00795A50 ?GBErrorMessage@CUIGuildBattle@@QAEXHVCTString@@@Z
       2884  B43 00795D00 ?GBErrorProcess@CUIGuildBattle@@QAEXH@Z
       2885  B44 00795BA0 ?GBMessage@CUIGuildBattle@@QAEXHVCTString@@K@Z
       2886  B45 004A2CC0 ?GBReq@CNetworkLibrary@@QAEXJJJ@Z
       2887  B46 00794680 ?GBReq@CUIGuildBattle@@QAEXHVCTString@@HH@Z
       2888  B47 00794330 ?GBReq@CUIGuildBattle@@QAEXXZ
       2889  B48 004A2E70 ?GBReqAccept@CNetworkLibrary@@QAEXXZ
       2890  B49 007949C0 ?GBReqAccept@CUIGuildBattle@@QAEXHVCTString@@H0HHH@Z
       2891  B4A 004A2DB0 ?GBReqReject@CNetworkLibrary@@QAEXXZ
       2892  B4B 00794870 ?GBReqReject@CUIGuildBattle@@QAEXH@Z
       2893  B4C 00794C50 ?GBStart@CUIGuildBattle@@QAEXHVCTString@@H0HHH@Z
       2894  B4D 00794FA0 ?GBStatus@CUIGuildBattle@@QAEXHVCTString@@HH0HHH@Z
       2895  B4E 004A2F30 ?GBStopReq@CNetworkLibrary@@QAEXJ@Z
       2896  B4F 007951C0 ?GBStopReq@CUIGuildBattle@@QAEXHVCTString@@@Z
       2897  B50 004A30C0 ?GBStopReqAccept@CNetworkLibrary@@QAEXXZ
       2898  B51 00795570 ?GBStopReqAccept@CUIGuildBattle@@QAEXXZ
       2899  B52 004A3000 ?GBStopReqReject@CNetworkLibrary@@QAEXXZ
       2900  B53 00795430 ?GBStopReqReject@CUIGuildBattle@@QAEXH@Z
       2901  B54 00795300 ?GBStopReqRev@CUIGuildBattle@@QAEXHVCTString@@@Z
       2902  B55 0049E140 ?GameInactive@CNetworkLibrary@@QAEXXZ
       2903  B56 0073C300 ?Get2ByteCharCount@CUIEditBox@@QAEHPADH@Z
       2904  B57 00015880 ?GetAbsPos@CUIBase@@QAEXAAH0@Z
       2905  B58 00015910 ?GetAbsPosX@CUIBase@@QBEHXZ
       2906  B59 00015960 ?GetAbsPosY@CUIBase@@QBEHXZ
       2907  B5A 000A9130 ?GetAbsUV@CUIImage@@QAE?AUUIRectUV@@XZ
       2908  B5B 00423230 ?GetAbsorption@CParticleGroup@@QAEPAVCParticlesAbsorption@@XZ
       2909  B5C 002304E0 ?GetAcceleration@CParticle@@QBEABV?$Vector@M$02@@XZ
       2910  B5D 0041C7A0 ?GetAccessJob@CZoneInfo@@QBEKH@Z
       2911  B5E 00014AD0 ?GetAccessoryEffect@CItemEffect@@QAEPAVCEffectGroup@@XZ
       2912  B5F 0022E720 ?GetActionAniidx@CUICharacterCreateNew@@AAEHH@Z
       2913  B60 003E2ED0 ?GetActiveCollisionBoxIndex@CEditModel@@QAEJXZ
       2914  B61 00580A00 ?GetAdminNPCIndex@CAffinityData@@QBE?BHH@Z
       2915  B62 005808D0 ?GetAffinityData@CAffinityData@@QBEPAU_AffinityInfo@1@H@Z
       2916  B63 00018970 ?GetAffinityData@CNetworkLibrary@@QAEPAVCAffinityData@@XZ
       2917  B64 00580D10 ?GetAffinityDataByIndex@CAffinityData@@QBEPAU_AffinityInfo@1@H@Z
       2918  B65 00580CB0 ?GetAffinityIndex@CAffinityData@@QBE?BHH@Z
       2919  B66 005806D0 ?GetAffinityName@CAffinityData@@QBEPBDH@Z
       2920  B67 00580710 ?GetAffinityNameByIndex@CAffinityData@@QBEPBDH@Z
       2921  B68 00580750 ?GetAffinityPoint@CAffinityData@@QBE?BHHH@Z
       2922  B69 00018950 ?GetAffinityPointer@CNetworkLibrary@@QAEPAU_AffinityInfo@1@XZ
       2923  B6A 004A7B40 ?GetAffinityRewardNPCList@CNetworkLibrary@@QAEABV?$list@HV?$allocator@H@std@@@std@@XZ
       2924  B6B 004A7B10 ?GetAffinityRewardNPCListCount@CNetworkLibrary@@QAE?BHXZ
       2925  B6C 00580CE0 ?GetAffinityStringIndex@CAffinityData@@QBE?BHH@Z
       2926  B6D 00230140 ?GetAge@CParticle@@QBEMXZ
       2927  B6E 00592BD0 ?GetAlBackground@CEntity@@UBEHXZ
       2928  B6F 000AACC0 ?GetAlignTextH@CUITextBox@@QAE?AW4eALIGN_H@@XZ
       2929  B70 000AACE0 ?GetAlignTextV@CUITextBox@@QAE?AW4eALIGN_V@@XZ
       2930  B71 003FC7B0 ?GetAllFramesBBox@CModelData@@QAEXAAV?$AABBox@M$02@@@Z
       2931  B72 006402C0 ?GetAllFramesBBox@CModelInstance@@QAEXAAV?$AABBox@M$02@@@Z
       2932  B73 00404920 ?GetAllFramesBBox@CModelObject@@QAEXAAV?$AABBox@M$02@@@Z
       2933  B74 00231F30 ?GetAlphaCount@CEffectControl@@QAEIXZ
       2934  B75 00693680 ?GetAlphaCount@CParticlesProcessDynamicState@@QAEIXZ
       2935  B76 00231F00 ?GetAlphaTime@CEffectControl@@QAEMI@Z
       2936  B77 00693650 ?GetAlphaTime@CParticlesProcessDynamicState@@QAEMI@Z
       2937  B78 00231ED0 ?GetAlphaValue@CEffectControl@@QAEEI@Z
       2938  B79 00693620 ?GetAlphaValue@CParticlesProcessDynamicState@@QAEEI@Z
       2939  B7A 0067E140 ?GetAmbientMode@CLightEffect@@QAEHXZ
       2940  B7B 00232490 ?GetAngleCount@CEffectControl@@QAEIXZ
       2941  B7C 00693D30 ?GetAngleCount@CParticlesProcessDynamicState@@QAEIXZ
       2942  B7D 006BEBE0 ?GetAngleSpeed@CParticlesProcessControl@@QAEMXZ
       2943  B7E 00232460 ?GetAngleTime@CEffectControl@@QAEMI@Z
       2944  B7F 00693D00 ?GetAngleTime@CParticlesProcessDynamicState@@QAEMI@Z
       2945  B80 00232410 ?GetAngleValue@CEffectControl@@QAE?AV?$Vector@M$02@@I@Z
       2946  B81 00693CB0 ?GetAngleValue@CParticlesProcessDynamicState@@QAE?AV?$Vector@M$02@@I@Z
       2947  B82 000AC1F0 ?GetAniCount@CUISpriteAni@@QAEHXZ
       2948  B83 009E7600 ?GetAnim@CAnimObject@@QBEJXZ
       2949  B84 00010720 ?GetAnimAttack2Name@CMobData@@QAEPBDXZ
       2950  B85 00010760 ?GetAnimAttack3Name@CMobData@@QAEPBDXZ
       2951  B86 00010780 ?GetAnimAttack4Name@CMobData@@QAEPBDXZ
       2952  B87 00010680 ?GetAnimAttackName@CMobData@@QAEPBDXZ
       2953  B88 005C4910 ?GetAnimAttackNameByID@CMobData@@QAE?AVCTString@@H@Z
       2954  B89 00592C10 ?GetAnimData@CEntity@@UAEPAVCAnimData@@J@Z
       2955  B8A 000106C0 ?GetAnimDeathName@CMobData@@QAEPBDXZ
       2956  B8B 00010740 ?GetAnimDefault2Name@CMobData@@QAEPBDXZ
       2957  B8C 000106A0 ?GetAnimDefaultName@CMobData@@QAEPBDXZ
       2958  B8D 00646B90 ?GetAnimEffectByAnimIndex@CModelInstance@@QAEPAVCAnimEffect@@J@Z
       2959  B8E 00104C50 ?GetAnimID@CAnimEffect@@QAEJXZ
       2960  B8F 009E57E0 ?GetAnimInfo@CAnimData@@QBEXJAAVCAnimInfo@@@Z
       2961  B90 009E7210 ?GetAnimInfo@CAnimObject@@QBEXJAAVCAnimInfo@@@Z
       2962  B91 009E6280 ?GetAnimLength@CAnimObject@@QBEMJ@Z
       2963  B92 00643680 ?GetAnimLength@CModelInstance@@QAEMJH@Z
       2964  B93 00104C30 ?GetAnimName@CAnimEffect@@QBEABVCTString@@XZ
       2965  B94 00A5F770 ?GetAnimPlayTime@CGameState@@QAEMPAVCEntity@@J@Z
       2966  B95 00643780 ?GetAnimPlayingTime@CModelInstance@@QAEMJ@Z
       2967  B96 00010660 ?GetAnimRunName@CMobData@@QAEPBDXZ
       2968  B97 00A5F7C0 ?GetAnimStartTime@CGameState@@QAEMPAVCEntity@@J@Z
       2969  B98 00010640 ?GetAnimWalkName@CMobData@@QAEPBDXZ
       2970  B99 000106E0 ?GetAnimWoundName@CMobData@@QAEPBDXZ
       2971  B9A 00A67440 ?GetAnimationName@CJobInfo@@QAE?AVCTString@@HH@Z
       2972  B9B 00A68B90 ?GetAnimationName@CPetInfo@@QBEABVCTString@@HH@Z
       2973  B9C 00A69FA0 ?GetAnimationName@CSlaveInfo@@QBEABVCTString@@HH@Z
       2974  B9D 00A6D2C0 ?GetAnimationName@CTransformInfo@@QAE?AVCTString@@HH@Z
       2975  B9E 00A806F0 ?GetAnimationTime@CPlayerEntity@@UAEMXZ
       2976  B9F 009E5D00 ?GetAnimsCt@CAnimData@@QBEJXZ
       2977  BA0 009E7540 ?GetAnimsCt@CAnimObject@@QBEJXZ
       2978  BA1 004BAC00 ?GetArea@CTerrainEffect@@QAE?AVCRectFlt@@XZ
       2979  BA2 0022AE40 ?GetArmor@CharacterCreateNew@@QAEHXZ
       2980  BA3 00013B40 ?GetArmorEffectName@CItemData@@QAEPBDXZ
       2981  BA4 000AB8E0 ?GetArrayChildCount@CUIArray@@QAEHXZ
       2982  BA5 00280630 ?GetArrayItem@CUIArray@@QAEPAVCUIArrayItem@@H@Z
       2983  BA6 000AB8A0 ?GetArrayItemTemplate@CUIArray@@QAEPAVCUIArrayItem@@XZ
       2984  BA7 0041A920 ?GetAttachmentMatrices@CModelObject@@QAEXPAVCAttachmentModelObject@@AAV?$Matrix@M$02$02@@AAV?$Vector@M$02@@@Z
       2985  BA8 00405EB0 ?GetAttachmentModel@CModelObject@@QAEPAVCAttachmentModelObject@@J@Z
       2986  BA9 00405F50 ?GetAttachmentModelList@CModelObject@@QAAPAVCAttachmentModelObject@@JZZ
       2987  BAA 00403110 ?GetAttachmentPlacement@CModelObject@@QAE?AVCPlacement3D@@AAVCAttachmentModelObject@@@Z
       2988  BAB 0041B060 ?GetAttachmentTransformations@CModelObject@@QAEXJAAV?$Matrix@M$02$02@@AAV?$Vector@M$02@@H@Z
       2989  BAC 00010470 ?GetAttackDistance@CMobData@@QBEMXZ
       2990  BAD 0000EE70 ?GetAttackEffectFile@CNickNameData@@QBEPBDXZ
       2991  BAE 00014210 ?GetAttackSpeed@CItemData@@QBEHXZ
       2992  BAF 000104D0 ?GetAttackSpeed@CMobData@@QBEHXZ
       2993  BB0 000107A0 ?GetAttackType@CMobData@@QBEDXZ
       2994  BB1 00A7F8D0 ?GetAttackrange@CPlayerEntity@@UAEMXZ
       2995  BB2 00A7F8F0 ?GetAttackspeed@CPlayerEntity@@UAECXZ
       2996  BB3 000B3BB0 ?GetAttendance@GameDataManager@@QAEPAVAttendance@@XZ
       2997  BB4 00010960 ?GetAttratt@CMobData@@QBEEXZ
       2998  BB5 000109A0 ?GetAttrattLv@CMobData@@QBEEXZ
       2999  BB6 00010980 ?GetAttrdef@CMobData@@QBEEXZ
       3000  BB7 000109C0 ?GetAttrdefLv@CMobData@@QBEEXZ
       3001  BB8 000B39F0 ?GetAuction@GameDataManager@@QAEPAVAuction@@XZ
       3002  BB9 00017370 ?GetAutoInfo@CUIButton@@QAEHXZ
       3003  BBA 0000EED0 ?GetBGColor@CNickNameData@@QBEKXZ
       3004  BBB 002A89D0 ?GetBackGround@CUISpinControl@@QAEXAAU_UIRect@@AAUUIRectUV@@AAH@Z
       3005  BBC 0041EF70 ?GetBackgroundColor@CWorld@@QAEKXZ
       3006  BBD 0041EFE0 ?GetBackgroundViewer@CWorld@@QAEPAVCEntity@@XZ
       3007  BBE 000ACD30 ?GetBaseColor@CUITextBoxEx@@QAEKXZ
       3008  BBF 00422AB0 ?GetBlendType@CParticleGroup@@QAE?AW4PredefinedBlendType@@XZ
       3009  BC0 006A2650 ?GetBlendType@CShockWaveEffect@@QAE?AW4PredefinedBlendType@@XZ
       3010  BC1 006AD740 ?GetBlendType@CSplineBillboardEffect@@QAE?AW4PredefinedBlendType@@XZ
       3011  BC2 004BACE0 ?GetBlendType@CTerrainEffect@@QAE?AW4PredefinedBlendType@@XZ
       3012  BC3 006B6C90 ?GetBlendType@CTraceEffect@@QAE?AW4PredefinedBlendType@@XZ
       3013  BC4 0059ED20 ?GetBoneAbsPosition@CEntity@@QAEHJAAV?$Vector@M$02@@0@Z
       3014  BC5 00104940 ?GetBoneCount@CSkaTag@@QAEJXZ
       3015  BC6 00104960 ?GetBoneID@CSkaTag@@QAEJJ@Z
       3016  BC7 0059EBE0 ?GetBoneRelPosition@CEntity@@QAEHJAAV?$Vector@M$02@@0@Z
       3017  BC8 0059EE40 ?GetBoneTransformations@CEntity@@QAEHJAAV?$Matrix@M$02$02@@AAV?$Vector@M$02@@@Z
       3018  BC9 00104980 ?GetBoneWeight@CSkaTag@@QAEMJ@Z
       3019  BCA 00010A70 ?GetBound@CMobData@@QAEMXZ
       3020  BCB 00591A80 ?GetBoundingBox@CEntity@@QAEXAAV?$AABBox@M$02@@@Z
       3021  BCC 002D5D30 ?GetBoundingBox@CObject3D@@QAEXAAV?$AABBox@N$02@@@Z
       3022  BCD 0000F2E0 ?GetBoundingSphereRadius@CEffect@@QAEMXZ
       3023  BCE 000140B0 ?GetBoxType@CItemData@@QBEHXZ
       3024  BCF 0000D410 ?GetBrush@CEntity@@QAEPAVCBrush3D@@XZ
       3025  BD0 00444800 ?GetBrushMip@CWorld@@QAEPAVCBrushMip@@AAVCEntity@@@Z
       3026  BD1 00A2D6F0 ?GetBrushMipByDistance@CBrush3D@@QAEPAVCBrushMip@@M@Z
       3027  BD2 00A2D7C0 ?GetBrushMipByIndex@CBrush3D@@QAEPAVCBrushMip@@J@Z
       3028  BD3 00009250 ?GetBrushPolygon@CBrushShadowMap@@QAEPAVCBrushPolygon@@XZ
       3029  BD4 00009730 ?GetBrushType@CBrush3D@@UAEJXZ
       3030  BD5 00007D80 ?GetBrushType@CBrushBase@@UAEJXZ
       3031  BD6 00352290 ?GetBrushType@CTerrain@@UAEJXZ
       3032  BD7 00016B30 ?GetBtnState@CUIButton@@QBE?AW4UIBtnState@@XZ
       3033  BD8 000A8BF0 ?GetBtnType@CUIImageBox@@QAEHXZ
       3034  BD9 009E8F60 ?GetBuffer@CConsole@@QAEPBDXZ
       3035  BDA 00001CD0 ?GetBuffer@CNetworkMessage@@QAEPAXXZ
       3036  BDB 009E8FA0 ?GetBufferSize@CConsole@@QAEJXZ
       3037  BDC 000B60E0 ?GetBuyAddition@MyInfo@@QAEHXZ
       3038  BDD 00010F50 ?GetBuyRate@CShopData@@QBEHXZ
       3039  BDE 000B6100 ?GetBuyRate@MyInfo@@QAEHXZ
       3040  BDF 001133A0 ?GetCalcIndex@CInvenData@@AAEHHH@Z
       3041  BE0 000B3A10 ?GetCalendarData@GameDataManager@@QAEPAVCalendar@@XZ
       3042  BE1 0073BEC0 ?GetCand@CUIEditBox@@QAE?AW4WMSG_RESULT@@XZ
       3043  BE2 006B6C50 ?GetCapEnd@CTraceEffect@@QAEHXZ
       3044  BE3 0001DB80 ?GetCashIndex@CUIIcon@@QAEHXZ
       3045  BE4 0058CC10 ?GetCashShopData@CCashShopData@@QAEPAVCASH_SHOP_DATA@1@J@Z
       3046  BE5 00018850 ?GetCashShopData@CNetworkLibrary@@QAEAAVCCashShopData@@H@Z
       3047  BE6 00018830 ?GetCashShopData@CNetworkLibrary@@QAEAAVCCashShopData@@XZ
       3048  BE7 002BE360 ?GetCashShopLock@CUICashShopEX@@QAEHXZ
       3049  BE8 00014710 ?GetCastleWar@CItemData@@QAEDXZ
       3050  BE9 000B3B70 ?GetChangeWeapon@GameDataManager@@QAEPAVChangeWeapon@@XZ
       3051  BEA 00018600 ?GetChaosJewelGradeInfo@CNetworkLibrary@@QAEHHAAV?$vector@UJewelInfo@@V?$allocator@UJewelInfo@@@std@@@std@@@Z
       3052  BEB 000B3AB0 ?GetCharCreate@GameDataManager@@QAEPAVCharacterCreateNew@@XZ
       3053  BEC 009FCC90 ?GetCharFromKey@@YADKH@Z
       3054  BED 000B3A70 ?GetCharSelData@GameDataManager@@QAEPAVCCharacterSelect@@XZ
       3055  BEE 00277E90 ?GetCharSpacing@CFontData@@QBEJXZ
       3056  BEF 00277E20 ?GetCharWidthA@CFontData@@QBEJD@Z
       3057  BF0 0000D4D0 ?GetCharacterTarget@CEntity@@QAEPAVCCharacterTarget@@XZ
       3058  BF1 004F1700 ?GetChatMask@CPlayerSource@@QAEKXZ
       3059  BF2 000A5560 ?GetCheckRegion@CUICheckButton@@QAEHXZ
       3060  BF3 00642280 ?GetChild@CModelInstance@@QAEPAV1@JH@Z
       3061  BF4 002835A0 ?GetChildIndex@CUIBase@@QAEHPAV1@@Z
       3062  BF5 00595670 ?GetChildOfClass@CEntity@@QAEPAV1@PBD@Z
       3063  BF6 0022F310 ?GetClass2Desc@CUICharacterCreateNew@@AAE?AVCTString@@W4eJob@@W4eJob2@@@Z
       3064  BF7 0000D3D0 ?GetClass@CEntity@@QAEPAVCEntityClass@@XZ
       3065  BF8 0022EFA0 ?GetClassDesc@CUICharacterCreateNew@@AAE?AVCTString@@W4eJob@@@Z
       3066  BF9 00838950 ?GetClassOfItem@CUIManager@@SAXPAVCItemData@@AAVCTString@@@Z
       3067  BFA 0022E6C0 ?GetClassSex@CUICharacterCreateNew@@AAEHH@Z
       3068  BFB 005930B0 ?GetClassificationBoxStretch@CEntity@@UAE?AV?$Vector@M$02@@XZ
       3069  BFC 00A80690 ?GetClickObject@CPlayerEntity@@UAEPAVCEntity@@XZ
       3070  BFD 004F41E0 ?GetClientsCount@CServer@@QAEJXZ
       3071  BFE 006405E0 ?GetColisionBox@CModelInstance@@QAEAAUColisionBox@@J@Z
       3072  BFF 00640560 ?GetColisionBoxIndex@CModelInstance@@QAEJJ@Z
       3073  C00 003EFE80 ?GetCollisionBoxDimensionEquality@CEditModel@@QAEJXZ
       3074  C01 003FCA00 ?GetCollisionBoxDimensionEquality@CModelData@@QAEJJ@Z
       3075  C02 006408A0 ?GetCollisionBoxDimensionEquality@CModelInstance@@QAEJJ@Z
       3076  C03 00404A60 ?GetCollisionBoxDimensionEquality@CModelObject@@QAEJJ@Z
       3077  C04 00593140 ?GetCollisionBoxIndex@CEntity@@UAEJXZ
       3078  C05 00A7B200 ?GetCollisionBoxIndex@CMovableModelEntity@@UAEJXZ
       3079  C06 003EFE20 ?GetCollisionBoxMax@CEditModel@@QAEAAV?$Vector@M$02@@XZ
       3080  C07 003FC900 ?GetCollisionBoxMax@CModelData@@QAE?AV?$Vector@M$02@@J@Z
       3081  C08 006407C0 ?GetCollisionBoxMax@CModelInstance@@QAE?AV?$Vector@M$02@@J@Z
       3082  C09 00404A20 ?GetCollisionBoxMax@CModelObject@@QAE?AV?$Vector@M$02@@J@Z
       3083  C0A 003EFDC0 ?GetCollisionBoxMin@CEditModel@@QAEAAV?$Vector@M$02@@XZ
       3084  C0B 003FC810 ?GetCollisionBoxMin@CModelData@@QAE?AV?$Vector@M$02@@J@Z
       3085  C0C 006406E0 ?GetCollisionBoxMin@CModelInstance@@QAE?AV?$Vector@M$02@@J@Z
       3086  C0D 004049E0 ?GetCollisionBoxMin@CModelObject@@QAE?AV?$Vector@M$02@@J@Z
       3087  C0E 003EF4C0 ?GetCollisionBoxName@CEditModel@@QAE?AVCTString@@J@Z
       3088  C0F 003EF640 ?GetCollisionBoxName@CEditModel@@QAE?AVCTString@@XZ
       3089  C10 00593160 ?GetCollisionBoxParameters@CEntity@@UAEXJAAV?$AABBox@M$02@@AAJ@Z
       3090  C11 0000D390 ?GetCollisionFlags@CEntity@@QBEKXZ
       3091  C12 005632C0 ?GetColor@CMdlEffect@@QAEKXZ
       3092  C13 0000EEB0 ?GetColor@CNickNameData@@QBEKXZ
       3093  C14 00230390 ?GetColor@CParticle@@QBEKXZ
       3094  C15 00232820 ?GetColor@CSkaEffect@@QAEKXZ
       3095  C16 004BACA0 ?GetColor@CTerrainEffect@@QAEKXZ
       3096  C17 000A90B0 ?GetColor@CUIImage@@QAEKXZ
       3097  C18 000AC590 ?GetColor@CUIImageArray@@QAEKXZ
       3098  C19 009B3610 ?GetColorAndShapeIndex@CUITatoo@@AAEHXZ
       3099  C1A 006AD660 ?GetColorBegin@CSplineBillboardEffect@@QAEKXZ
       3100  C1B 006B6BF0 ?GetColorBegin@CTraceEffect@@QAEKXZ
       3101  C1C 00231DD0 ?GetColorCount@CEffectControl@@QAEIXZ
       3102  C1D 00693370 ?GetColorCount@CParticlesProcessDynamicState@@QAEIXZ
       3103  C1E 006AD680 ?GetColorEnd@CSplineBillboardEffect@@QAEKXZ
       3104  C1F 006B6C10 ?GetColorEnd@CTraceEffect@@QAEKXZ
       3105  C20 00012FE0 ?GetColorIntroDesc@CQuestDynamicData@@QAEKXZ
       3106  C21 00402210 ?GetColorName@CModelObject@@QAE?AVCTString@@J@Z
       3107  C22 00013250 ?GetColorNeedDesc@CQuestDynamicData@@QAEKJ@Z
       3108  C23 002302F0 ?GetColorNoAlpha@CParticle@@QBEKXZ
       3109  C24 00230350 ?GetColorOnlyAlpha@CParticle@@QBEKXZ
       3110  C25 000131D0 ?GetColorOptionPrizeDesc@CQuestDynamicData@@QAEKJ@Z
       3111  C26 00013150 ?GetColorPrizeDesc@CQuestDynamicData@@QAEKJ@Z
       3112  C27 000130D0 ?GetColorStatusDesc@CQuestDynamicData@@QAEKJ@Z
       3113  C28 00231DA0 ?GetColorTime@CEffectControl@@QAEMI@Z
       3114  C29 00693340 ?GetColorTime@CParticlesProcessDynamicState@@QAEMI@Z
       3115  C2A 00013050 ?GetColorTitleDesc@CQuestDynamicData@@QAEKJ@Z
       3116  C2B 00231D70 ?GetColorValue@CEffectControl@@QAEKI@Z
       3117  C2C 00693310 ?GetColorValue@CParticlesProcessDynamicState@@QAEKI@Z
       3118  C2D 00A68B40 ?GetColoredTexFileName@CPetInfo@@QBEABVCTString@@HHH@Z
       3119  C2E 000A72F0 ?GetColumnCount@CUIListBox@@QBEHXZ
       3120  C2F 009A84C0 ?GetCommand@CUISummon@@QAEAAJXZ
       3121  C30 00423050 ?GetCommonProcess@CParticleGroup@@QAEPAVCParticlesCommonProcess@@I@Z
       3122  C31 00423080 ?GetCommonProcessCount@CParticleGroup@@QAEIXZ
       3123  C32 00122A00 ?GetCompleteQuestCount@Quest@@QAEJXZ
       3124  C33 001206F0 ?GetCompleteQuestIndex@Quest@@QAEJJ@Z
       3125  C34 000AF120 ?GetCompleteText@CUIProgressBar@@QBE?BVCTString@@XZ
       3126  C35 000AEFC0 ?GetCompleteTextColor@CUIProgressBar@@QBE?BKXZ
       3127  C36 00A0BB80 ?GetCompletionString@CShellSymbol@@QBE?AVCTString@@XZ
       3128  C37 00012740 ?GetConditionData@CQuestDynamicData@@QAEJJJ@Z
       3129  C38 000125E0 ?GetConditionIndex@CQuestDynamicData@@QAEJJ@Z
       3130  C39 00012690 ?GetConditionNum@CQuestDynamicData@@QAEJJ@Z
       3131  C3A 00012530 ?GetConditionType@CQuestDynamicData@@QAEJJ@Z
       3132  C3B 000092F0 ?GetContentType@CBrushSector@@QAEJXZ
       3133  C3C 009FACF0 ?GetControl@CInputDevice@@QAEJABVCTString@@@Z
       3134  C3D 00223E50 ?GetControlGID@@YAKJJ@Z
       3135  C3E 009FA660 ?GetControlGIDFromString@CInput@@QAEKABVCTString@@0@Z
       3136  C3F 00223E60 ?GetControlLID@@YAJK@Z
       3137  C40 009FA7D0 ?GetControlName@CInput@@QAE?AVCTString@@K@Z
       3138  C41 009FA870 ?GetControlTransName@CInput@@QAE?AVCTString@@K@Z
       3139  C42 006BEBC0 ?GetControlType@CParticlesProcessControl@@QAE?AW4CONTROL_TYPE@@XZ
       3140  C43 009FA6E0 ?GetControlValue@CInput@@QAEMK@Z
       3141  C44 009FAD70 ?GetControlValue@CInputDevice@@QAEMJ@Z
       3142  C45 009FACC0 ?GetControlsCount@CInputDevice@@QAEJXZ
       3143  C46 00270250 ?GetCoolTime@ItemHelp@@SANNN@Z
       3144  C47 0001EC00 ?GetCoolTimeReductionRate@CUIManager@@QAEHXZ
       3145  C48 00013200 ?GetCountNeedDesc@CQuestDynamicData@@QAEJXZ
       3146  C49 00013180 ?GetCountOptionPrizeDesc@CQuestDynamicData@@QAEJXZ
       3147  C4A 00013100 ?GetCountPrizeDesc@CQuestDynamicData@@QAEJXZ
       3148  C4B 00013080 ?GetCountStatusDesc@CQuestDynamicData@@QAEJXZ
       3149  C4C 00013000 ?GetCountTitleDesc@CQuestDynamicData@@QAEJXZ
       3150  C4D 00013D30 ?GetCreateSet@CItemData@@QBEHXZ
       3151  C4E 00011E70 ?GetCreatedList@CEffectGroupManager@@QAEAAV?$list@PAVCEffectGroup@@V?$allocator@PAVCEffectGroup@@@std@@@std@@XZ
       3152  C4F 00423670 ?GetCreatedList@CEffectManager@@QAEAAV?$list@PAVCEffect@@V?$allocator@PAVCEffect@@@std@@@std@@J@Z
       3153  C50 00423560 ?GetCreatedList@CParticleGroupManager@@QAEAAV?$vector@PAVCParticleGroup@@V?$allocator@PAVCParticleGroup@@@std@@@std@@XZ
       3154  C51 000A7310 ?GetCurItemCount@CUIListBox@@QBEHH@Z
       3155  C52 0001A080 ?GetCurItemCount@CUIScrollBar@@QBEHXZ
       3156  C53 000A7780 ?GetCurOverList@CUIListBox@@QBEHXZ
       3157  C54 000A4D10 ?GetCurPos@CUISlideBar@@QBEHXZ
       3158  C55 000A5B50 ?GetCurSel@CUIComboBox@@QBEHXZ
       3159  C56 000A72D0 ?GetCurSel@CUIListBox@@QAEHXZ
       3160  C57 00224110 ?GetCurStage@StageMgr@@QAE?AW4eSTAGE@@XZ
       3161  C58 001229B0 ?GetCurrViewPage@Quest@@QAEHXZ
       3162  C59 00006080 ?GetCurrentAPI@CGfxLibrary@@QAE?AW4GfxAPIType@@XZ
       3163  C5A 000060A0 ?GetCurrentAdapter@CGfxLibrary@@QAEJXZ
       3164  C5B 009E63D0 ?GetCurrentAnimLength@CAnimObject@@QBEMXZ
       3165  C5C 00640400 ?GetCurrentColisionBox@CModelInstance@@QAEAAUColisionBox@@XZ
       3166  C5D 00640360 ?GetCurrentColisionBox@CModelInstance@@QAEXAAV?$AABBox@M$02@@@Z
       3167  C5E 00640CA0 ?GetCurrentColisionBoxIndex@CModelInstance@@QAEJXZ
       3168  C5F 00012EB0 ?GetCurrentConditionValueStatus@CQuestDynamicData@@QAEJJ@Z
       3169  C60 000060C0 ?GetCurrentDisplayMode@CGfxLibrary@@QAEXAAVCDisplayMode@@@Z
       3170  C61 004047E0 ?GetCurrentFrameBBox@CModelObject@@QAEXAAV?$AABBox@M$02@@@Z
       3171  C62 0054CEB0 ?GetCurrentMipBrushingFactor@CWorldRenderPrefs@@QAEMM@Z
       3172  C63 00104210 ?GetCurrentPage@ExpressSystem@@QAEGXZ
       3173  C64 002BE380 ?GetCurrentPageType@CUICashShopEX@@QAEJXZ
       3174  C65 000132E0 ?GetCurrentRequest@CQuestSystem@@QBEPAVCQuestDynamicData@@XZ
       3175  C66 00018310 ?GetCurrentWorld@CNetworkLibrary@@QAEAAVCTFileName@@XZ
       3176  C67 000190E0 ?GetCursorIndex@CUIEditBox@@QBEHXZ
       3177  C68 00019180 ?GetCursorMove@CUIEditBox@@QAEHXZ
       3178  C69 00018F60 ?GetCursorSX@CUIEditBox@@QAEHXZ
       3179  C6A 00214040 ?GetDG_EnvNas@ServerInfo@@QAE_JXZ
       3180  C6B 00214020 ?GetDG_Mode@ServerInfo@@QAE?AW4eTHEOS_DUNGEON_MODE@@XZ
       3181  C6C 00214060 ?GetDG_MonsterNas@ServerInfo@@QAE_JXZ
       3182  C6D 0000EE90 ?GetDamageEffectFile@CNickNameData@@QBEPBDXZ
       3183  C6E 004050A0 ?GetData@CModelObject@@QAEPAVCModelData@@XZ
       3184  C6F 009A6180 ?GetDataToNumber@CUISpinButton@@QAEHH@Z
       3185  C70 009A6210 ?GetDataToString@CUISpinButton@@QAE?AVCTString@@H@Z
       3186  C71 0001EFF0 ?GetDebugOutMode@CUIManager@@QAE_NXZ
       3187  C72 000107E0 ?GetDelay@CMobData@@QBEMH@Z
       3188  C73 000107C0 ?GetDelayCount@CMobData@@QBEDXZ
       3189  C74 006BD600 ?GetDelayTime@CParticlesEmitterSphere@@QAEMXZ
       3190  C75 00011D80 ?GetDelivery@CMessageDispatcher@@QAE_NXZ
       3191  C76 00693B70 ?GetDeltaPosCount@CParticlesProcessDynamicState@@QAEIXZ
       3192  C77 00693B40 ?GetDeltaPosTime@CParticlesProcessDynamicState@@QAEMI@Z
       3193  C78 00693AF0 ?GetDeltaPosValue@CParticlesProcessDynamicState@@QAE?AV?$Vector@M$02@@I@Z
       3194  C79 00422480 ?GetDependLife@CParticlesAbsorption@@QAEHXZ
       3195  C7A 006BEBA0 ?GetDependRadius@CParticlesProcessControl@@QAEHXZ
       3196  C7B 005933A0 ?GetDepthSortOffset@CEntity@@UAEMXZ
       3197  C7C 00012DF0 ?GetDesc2@CQuestDynamicData@@QAEPBDXZ
       3198  C7D 00012E50 ?GetDesc3@CQuestDynamicData@@QAEPBDXZ
       3199  C7E 00014350 ?GetDesc@CItemData@@QAEPBDXZ
       3200  C7F 00010B20 ?GetDesc@CMobData@@QAEPBDXZ
       3201  C80 00012D90 ?GetDesc@CQuestDynamicData@@QAEPBDXZ
       3202  C81 00625590 ?GetDescription@CAnimSet@@UAE?AVCTString@@XZ
       3203  C82 00592940 ?GetDescription@CEntity@@UBEABVCTString@@XZ
       3204  C83 00634C30 ?GetDescription@CMesh@@UAE?AVCTString@@XZ
       3205  C84 00400AB0 ?GetDescription@CModelData@@UAE?AVCTString@@XZ
       3206  C85 00644F30 ?GetDescription@CModelInstanceSerial@@UAE?AVCTString@@XZ
       3207  C86 004E8410 ?GetDescription@CNetworkProvider@@QBEABVCTString@@XZ
       3208  C87 00A0AC10 ?GetDescription@CSerial@@UAE?AVCTString@@XZ
       3209  C88 0066D060 ?GetDescription@CSkeleton@@UAE?AVCTString@@XZ
       3210  C89 003D1FA0 ?GetDescription@CSoundData@@UAE?AVCTString@@XZ
       3211  C8A 000030A0 ?GetDescription@CTStream@@QAEAAVCTString@@XZ
       3212  C8B 00379880 ?GetDescription@CTextureData@@UAE?AVCTString@@XZ
       3213  C8C 0041F080 ?GetDescription@CWorld@@QAEABVCTString@@XZ
       3214  C8D 00A71260 ?GetDesiredRotation@CMovableEntity@@QBEABV?$Vector@M$02@@XZ
       3215  C8E 00A71410 ?GetDesiredTranslation@CMovableEntity@@QBEABV?$Vector@M$02@@XZ
       3216  C8F 00222EC0 ?GetDeviceType@CInputDevice@@QAE?AW4DeviceType@@XZ
       3217  C90 00230440 ?GetDirection@CParticle@@QAEABV?$Quaternion@M@@XZ
       3218  C91 00422620 ?GetDirection@CParticlesAbsorption@@QAEABV?$Quaternion@M@@XZ
       3219  C92 002319C0 ?GetDirection@CParticlesCommonProcess@@QAEABV?$Quaternion@M@@XZ
       3220  C93 00421FE0 ?GetDirection@CParticlesEmitter@@QAEABV?$Quaternion@M@@XZ
       3221  C94 00004120 ?GetDirectionVector@CPlacement3D@@QAEXAAV?$Vector@M$02@@@Z
       3222  C95 00A21D80 ?GetDiskFreeSpaceA@@YA_JABVCTString@@@Z
       3223  C96 002F4D10 ?GetDistance@CIsometricProjection3D@@UBEMABV?$Vector@M$02@@@Z
       3224  C97 002F7930 ?GetDistance@CParallelProjection3D@@UBEMABV?$Vector@M$02@@@Z
       3225  C98 002FA580 ?GetDistance@CPerspectiveProjection3D@@UBEMABV?$Vector@M$02@@@Z
       3226  C99 002FBD60 ?GetDistance@CSimpleProjection3D@@UBEMABV?$Vector@M$02@@@Z
       3227  C9A 00A412C0 ?GetDistanceFromEdges@CBrushPolygon@@QAEMABV?$Vector@M$02@@@Z
       3228  C9B 000B0B60 ?GetDiveisionTypeExp@Party@@QAECXZ
       3229  C9C 000B0B80 ?GetDiveisionTypeItem@Party@@QAECXZ
       3230  C9D 000B0BA0 ?GetDiveisionTypeSpItem@Party@@QAECXZ
       3231  C9E 000F98E0 ?GetDivisionType@Party@@QAECH@Z
       3232  C9F 000AF170 ?GetDoingText@CUIProgressBar@@QBE?BVCTString@@XZ
       3233  CA0 000AEFE0 ?GetDoingTextColor@CUIProgressBar@@QBE?BKXZ
       3234  CA1 0001E960 ?GetDragBase@CUIManager@@QAEPAVCUIBase@@XZ
       3235  CA2 0001E940 ?GetDragIcon@CUIManager@@QAEPAVCUIIcon@@XZ
       3236  CA3 0001E4B0 ?GetDrawPort@CUIManager@@QBEPAVCDrawPort@@XZ
       3237  CA4 00A06130 ?GetDst@CRelationLnk@@QAEAAVCRelationDst@@XZ
       3238  CA5 000B3AF0 ?GetDurability@GameDataManager@@QAEPAVCDurability@@XZ
       3239  CA6 005CEFB0 ?GetDynamicDataByQuestIndex@CQuestSystem@@QAEPAVCQuestDynamicData@@J@Z
       3240  CA7 00013290 ?GetDynamicDataByVectorIndex@CQuestSystem@@QAEPAVCQuestDynamicData@@J@Z
       3241  CA8 0000F510 ?GetERSubType@CEffect@@QAE?AW4EFF_RENDER_SUB_TYPE@@XZ
       3242  CA9 0000F4D0 ?GetERType@CEffect@@QAE?AW4EFF_RENDER_TYPE@@XZ
       3243  CAA 000173B0 ?GetEdge@CUIButton@@QAE_NXZ
       3244  CAB 00444480 ?GetEdgesFillType@CWorldRenderPrefs@@QAE?AW4FillType@1@XZ
       3245  CAC 004444C0 ?GetEdgesInkColor@CWorldRenderPrefs@@QAEKXZ
       3246  CAD 00689BA0 ?GetEffectControl@CEntityEffect@@QAEPAVCEffectControl@@XZ
       3247  CAE 00563440 ?GetEffectControl@CMdlEffect@@QAEPAVCEffectControl@@XZ
       3248  CAF 002329E0 ?GetEffectControl@CSkaEffect@@QAEPAVCEffectControl@@XZ
       3249  CB0 0000F860 ?GetEffectCount@CEffectGroup@@QAEJXZ
       3250  CB1 0000EE50 ?GetEffectFile@CNickNameData@@QBEPBDXZ
       3251  CB2 00011EB0 ?GetEffectGroup@CEffectGroupManager@@QAEPAVCEffectGroup@@V?$basic_string@DU?$char_traits@D@std@@V?$allocator@D@2@@std@@@Z
       3252  CB3 00685210 ?GetEffectGroup@CEffectGroupManager@@QAEPAVCEffectGroup@@V?$basic_string@DU?$char_traits@D@std@@V?$allocator@D@2@@std@@PAVCEntity@@@Z
       3253  CB4 0067E5B0 ?GetEffectKeyInfo@CEffectGroup@@QAEXJAAMAAV?$basic_string@DU?$char_traits@D@std@@V?$allocator@D@2@@std@@@Z
       3254  CB5 0000FA00 ?GetEffectKeyVector@CEffectGroup@@QAEABV?$vector@UEffectKey@CEffectGroup@@V?$allocator@UEffectKey@CEffectGroup@@@std@@@std@@XZ
       3255  CB6 001199E0 ?GetEffectModelNo@PetStash@@QAEHXZ
       3256  CB7 00112D10 ?GetEffectSpeed@CInvenData@@QAEHXZ
       3257  CB8 003E1D20 ?GetElapsedTime@CSoundObject@@QAEMJ@Z
       3258  CB9 006BDD70 ?GetEmitAllDir@CParticlesEmitterCylinder@@QAEHXZ
       3259  CBA 00421F30 ?GetEmitSpeed@CParticlesEmitter@@QAEMXZ
       3260  CBB 00423150 ?GetEmitter@CParticleGroup@@QAEPAVCParticlesEmitter@@XZ
       3261  CBC 004446D0 ?GetEmptyBrushModel@CWorldRenderPrefs@@QAEPAVCModelObject@@XZ
       3262  CBD 00590DD0 ?GetEntity@CEntityID@@QAEPAVCEntity@@XZ
       3263  CBE 003BE750 ?GetEntityByIndexServer@ActorMgr@@QAEPAVCEntity@@W4eOBJ_TYPE@@I@Z
       3264  CBF 0049D630 ?GetEntityByTypeIndex@CNetworkLibrary@@QAEPAVCEntity@@CJ@Z
       3265  CC0 005A1430 ?GetEntityInfo@CEntity@@UAEPAXXZ
       3266  CC1 0049D510 ?GetEntityOfClass@CNetworkLibrary@@QAEPAVCEntity@@ABVCTString@@J@Z
       3267  CC2 0059FF30 ?GetEntityPointFixed@CEntity@@QAEXABV?$Vector@M$02@@AAV2@@Z
       3268  CC3 0059FAD0 ?GetEntityPointRatio@CEntity@@QAEXABV?$Vector@M$02@@AAV2@H@Z
       3269  CC4 0049D010 ?GetEntityWithName@CNetworkLibrary@@QAEPAVCEntity@@ABVCTString@@J@Z
       3270  CC5 000094B0 ?GetEnvironmentType@CBrushSector@@QAEJXZ
       3271  CC6 000A9C90 ?GetEventImg@CUIList@@QAEXAAU_UIRect@@AAUUIRectUV@@H@Z
       3272  CC7 000B18F0 ?GetExistCharNum@CGameState@@QBEKXZ
       3273  CC8 003EDB20 ?GetExistingPatchesMask@CEditModel@@QAEKXZ
       3274  CC9 00545740 ?GetExitCode@cThreadWrapper@@QAEKXZ
       3275  CCA 000F93C0 ?GetExpeditionGroupMemberCount@Party@@QAEHH@Z
       3276  CCB 000F9480 ?GetExpeditionMemberHp@Party@@QAEHHH@Z
       3277  CCC 000F9580 ?GetExpeditionMemberIndex@Party@@QAEJHH@Z
       3278  CCD 000F95B0 ?GetExpeditionMemberIndex@Party@@QAEJVCTString@@@Z
       3279  CCE 000F97C0 ?GetExpeditionMemberJob@Party@@QAECHH@Z
       3280  CCF 000F9780 ?GetExpeditionMemberLayer@Party@@QAECHH@Z
       3281  CD0 000F9440 ?GetExpeditionMemberLevel@Party@@QAEHHH@Z
       3282  CD1 000F94C0 ?GetExpeditionMemberMaxHp@Party@@QAEHHH@Z
       3283  CD2 000F9540 ?GetExpeditionMemberMaxMp@Party@@QAEHHH@Z
       3284  CD3 000F9500 ?GetExpeditionMemberMp@Party@@QAEHHH@Z
       3285  CD4 000F9880 ?GetExpeditionMemberName@Party@@QAE?AVCTString@@HH@Z
       3286  CD5 000F9840 ?GetExpeditionMemberOnline@Party@@QAEHHH@Z
       3287  CD6 000F9700 ?GetExpeditionMemberPosX@Party@@QAEMHH@Z
       3288  CD7 000F9740 ?GetExpeditionMemberPosZ@Party@@QAEMHH@Z
       3289  CD8 000F9800 ?GetExpeditionMemberPosition@Party@@QAECHH@Z
       3290  CD9 000F96C0 ?GetExpeditionMemberZone@Party@@QAEJHH@Z
       3291  CDA 000F9330 ?GetExpeditionMyGroupCount@Party@@QAEHXZ
       3292  CDB 000F92A0 ?GetExpeditionMyPosition@Party@@QAEHXZ
       3293  CDC 000B39D0 ?GetExpressData@GameDataManager@@QAEPAVExpressSystem@@XZ
       3294  CDD 00122950 ?GetExtend@Quest@@QAEHW4eTREE_TYPE@@@Z
       3295  CDE 00A672F0 ?GetExtensionName@CJobInfo@@QAE?AVCTString@@HH@Z
       3296  CDF 0041C640 ?GetExtraCount@CZoneInfo@@QBEHH@Z
       3297  CE0 000105B0 ?GetExtraFlag@CMobData@@QBE_KXZ
       3298  CE1 0041C9B0 ?GetExtraName@CZoneInfo@@QAE?AVCTString@@HH@Z
       3299  CE2 00013F90 ?GetExtraNum@CItemData@@QBEHXZ
       3300  CE3 00A0E780 ?GetFLOAT@CShell@@QAEMABVCTString@@@Z
       3301  CE4 002D2650 ?GetFPUPrecision@@YA?AW4FPUPrecisionType@@XZ
       3302  CE5 0022AE20 ?GetFace@CharacterCreateNew@@QAEHXZ
       3303  CE6 0068CDD0 ?GetFadeInDestPhaseMul@COrbitEffect@@QAEMXZ
       3304  CE7 0068CDB0 ?GetFadeInDestRadiusMul@COrbitEffect@@QAEMXZ
       3305  CE8 0068CD10 ?GetFadeInFlag@COrbitEffect@@QAEKXZ
       3306  CE9 0000F280 ?GetFadeInTime@CEffect@@QAEMXZ
       3307  CEA 00231C60 ?GetFadeInTime@CEffectControl@@QAEMXZ
       3308  CEB 00693200 ?GetFadeInTime@CParticlesProcessDynamicState@@QAEMXZ
       3309  CEC 0068CE10 ?GetFadeOutDestPhaseMul@COrbitEffect@@QAEMXZ
       3310  CED 0068CDF0 ?GetFadeOutDestRadiusMul@COrbitEffect@@QAEMXZ
       3311  CEE 0068CD30 ?GetFadeOutFlag@COrbitEffect@@QAEKXZ
       3312  CEF 0000F2A0 ?GetFadeOutTime@CEffect@@QAEMXZ
       3313  CF0 00231C80 ?GetFadeOutTime@CEffectControl@@QAEMXZ
       3314  CF1 00693220 ?GetFadeOutTime@CParticlesProcessDynamicState@@QAEMXZ
       3315  CF2 0000F660 ?GetFadeValue@CEffect@@IAEMM@Z
       3316  CF3 006AC940 ?GetFallOff@CSoundEffect@@QAEMXZ
       3317  CF4 00013EF0 ?GetFame@CItemData@@QBEHXZ
       3318  CF5 005930F0 ?GetFieldSettings@CEntity@@UAEPAVCFieldSettings@@XZ
       3319  CF6 00A20C70 ?GetFileCRC32_t@@YAKABVCTFileName@@@Z
       3320  CF7 00A67380 ?GetFileName@CJobInfo@@QAE?AVCTString@@H@Z
       3321  CF8 002D20E0 ?GetFileName@CLoginJobInfo@@QAE?AVCTString@@W4eJob@@@Z
       3322  CF9 00A68B00 ?GetFileName@CPetInfo@@QBEABVCTString@@HH@Z
       3323  CFA 00A69F60 ?GetFileName@CSlaveInfo@@QBEABVCTString@@H@Z
       3324  CFB 00A6D230 ?GetFileName@CTransformInfo@@QAE?AVCTString@@H@Z
       3325  CFC 00A20A00 ?GetFileTimeStamp_t@@YAJABVCTFileName@@@Z
       3326  CFD 00010800 ?GetFireEffect0@CMobData@@QAEPBDXZ
       3327  CFE 00010820 ?GetFireEffect1@CMobData@@QAEPBDXZ
       3328  CFF 00010840 ?GetFireEffect2@CMobData@@QAEPBDXZ
       3329  D00 003ED230 ?GetFirstEmptyPatchIndex@CEditModel@@QAEHAAJ@Z
       3330  D01 0000D2F0 ?GetFirstExFlags@CEntity@@QBEKXZ
       3331  D02 00A2D870 ?GetFirstMip@CBrush3D@@QAEPAVCBrushMip@@XZ
       3332  D03 00642330 ?GetFirstNonReferencedParent@CModelInstance@@QAEPAV1@PAV1@@Z
       3333  D04 00596AC0 ?GetFirstSector@CEntity@@QAEPAVCBrushSector@@XZ
       3334  D05 00596B70 ?GetFirstSectorWithName@CEntity@@QAEPAVCBrushSector@@XZ
       3335  D06 003ED2B0 ?GetFirstValidPatchIndex@CEditModel@@QAEHAAJ@Z
       3336  D07 00013CC0 ?GetFlag@CItemData@@QBE_JXZ
       3337  D08 002300C0 ?GetFlag@CParticle@@QAEKXZ
       3338  D09 0000D2D0 ?GetFlags@CEntity@@QBEKXZ
       3339  D0A 003FCA90 ?GetFlags@CModelData@@QAEKXZ
       3340  D0B 00352330 ?GetFlags@CTerrain@@QAEKXZ
       3341  D0C 000070F0 ?GetFlags@CTextureData@@QBEKXZ
       3342  D0D 00378480 ?GetFlags@CTextureObject@@QBEKXZ
       3343  D0E 00592E80 ?GetFog@CEntity@@UAEHJAAVCFogParameters@@@Z
       3344  D0F 00592DF0 ?GetFogName@CEntity@@UAEABVCTString@@J@Z
       3345  D10 000093D0 ?GetFogType@CBrushSector@@QAEJXZ
       3346  D11 00592CC0 ?GetForce@CEntity@@UAEXJABV?$Vector@M$02@@AAVCForceStrength@@1@Z
       3347  D12 006BD5E0 ?GetForce@CParticlesEmitterSphere@@QAEABVCForce@@XZ
       3348  D13 006BE330 ?GetForce@CParticlesProcessForce@@QAEABVCForce@@I@Z
       3349  D14 00592D50 ?GetForceController@CEntity@@UAEPAV1@J@Z
       3350  D15 006BE440 ?GetForceCount@CParticlesProcessForce@@QAEIXZ
       3351  D16 00592C30 ?GetForceName@CEntity@@UAEABVCTString@@J@Z
       3352  D17 00009360 ?GetForceType@CBrushSector@@QAEJXZ
       3353  D18 00223EA0 ?GetFormat@CSoundLibrary@@QAE?AW4SoundFormat@1@XZ
       3354  D19 000145D0 ?GetFortuneIndex@CItemData@@QBEHXZ
       3355  D1A 009E5B80 ?GetFrame@CAnimData@@QAEJJJ@Z
       3356  D1B 009E7620 ?GetFrame@CAnimObject@@QBEJXZ
       3357  D1C 009E7710 ?GetFrame@CAnimObject@@QBEXAAJ0AAM@Z
       3358  D1D 00401DD0 ?GetFrameBBox@CModelObject@@QAE?AV?$AABBox@M$02@@J@Z
       3359  D1E 00006060 ?GetFrameNumber@CGfxLibrary@@QAEJXZ
       3360  D1F 009E7660 ?GetFramesInCurrentAnim@CAnimObject@@QBEJXZ
       3361  D20 0083CE30 ?GetFullPath@CUIManager@@QAE?AV?$basic_string@DU?$char_traits@D@std@@V?$allocator@D@2@@std@@V23@@Z
       3362  D21 009FCDB0 ?GetGIDFromChar@@YAKD@Z
       3363  D22 009FCE30 ?GetGIDFromVirtKey@@YAKJ@Z
       3364  D23 000B31E0 ?GetGMNoticeColor@CUIAutoHelp@@QAEKXZ
       3365  D24 000B3B30 ?GetGPS@GameDataManager@@QAEPAVGPS@@XZ
       3366  D25 0001E8D0 ?GetGame@CUIManager@@QAEPAVCGame@@XZ
       3367  D26 000B1890 ?GetGameMode@CGameState@@QAEAAJXZ
       3368  D27 0049D940 ?GetGameTime@CNetworkLibrary@@QAEMXZ
       3369  D28 000ABA80 ?GetGap@CUIArray@@QAEXAAH0@Z
       3370  D29 000A9A70 ?GetGap@CUIList@@QAEHXZ
       3371  D2A 000AAB50 ?GetGapY@CUITextBox@@QAEHXZ
       3372  D2B 000ACD10 ?GetGapY@CUITextBoxEx@@QAEHXZ
       3373  D2C 00362700 ?GetGfxFileInfo_t@CImageInfo@@QAEJABVCTFileName@@@Z
       3374  D2D 0068CBA0 ?GetGoalTagName@COrbitEffect@@QBEPBDXZ
       3375  D2E 006BE890 ?GetGoalTagName@CParticlesProcessPointGoal@@QBEPBDXZ
       3376  D2F 00013E70 ?GetGrade@CItemData@@QBEHXZ
       3377  D30 00593090 ?GetGradient@CEntity@@UAEHJAAVCGradientParameters@@@Z
       3378  D31 00593000 ?GetGradientName@CEntity@@UAEABVCTString@@J@Z
       3379  D32 0077CAD0 ?GetGuildSkillLevel@CUIGuild@@QAEHH@Z
       3380  D33 0022AE00 ?GetHair@CharacterCreateNew@@QAEHXZ
       3381  D34 00A5C590 ?GetHairBandFilePath@CGameState@@QAEXJHPAVCTString@@0@Z
       3382  D35 00018BB0 ?GetHandle@cThreadWrapper@@QAEPAXXZ
       3383  D36 009EE1D0 ?GetHash@CTString@@QBEKXZ
       3384  D37 00592F30 ?GetHaze@CEntity@@UAEHJAAVCHazeParameters@@AAV?$Vector@M$02@@@Z
       3385  D38 00592EA0 ?GetHazeName@CEntity@@UAEABVCTString@@J@Z
       3386  D39 00009440 ?GetHazeType@CBrushSector@@QAEJXZ
       3387  D3A 00A00280 ?GetHead@CListNode@@QAEAAVCListHead@@XZ
       3388  D3B 00A72020 ?GetHeadingDirection@CMovableEntity@@QAEXMAAV?$Vector@M$02@@@Z
       3389  D3C 0000DC90 ?GetHealth@CLiveEntity@@QBEMXZ
       3390  D3D 00010490 ?GetHealth@CMobData@@QBEMXZ
       3391  D3E 000151F0 ?GetHeight@CDrawPort@@QBEJXZ
       3392  D3F 003E2EB0 ?GetHeight@CEditModel@@QAEJXZ
       3393  D40 00277E00 ?GetHeight@CFontData@@QBEJXZ
       3394  D41 00401810 ?GetHeight@CModelObject@@QAEJXZ
       3395  D42 002301F0 ?GetHeight@CParticle@@QBEMXZ
       3396  D43 00007090 ?GetHeight@CTextureData@@QBEJXZ
       3397  D44 00378450 ?GetHeight@CTextureObject@@QBEJXZ
       3398  D45 00015860 ?GetHeight@CUIBase@@QBEHXZ
       3399  D46 006A2560 ?GetHeightCount@CShockWaveEffect@@QAEIXZ
       3400  D47 006BEC00 ?GetHeightSpeed@CParticlesProcessControl@@QAEMXZ
       3401  D48 006A2530 ?GetHeightTime@CShockWaveEffect@@QAEMI@Z
       3402  D49 006A24F0 ?GetHeightValue@CShockWaveEffect@@QAEMI@Z
       3403  D4A 00015AD0 ?GetHide@CUIBase@@QAEHXZ
       3404  D4B 0001DC60 ?GetHighLightMode@CUIIcon@@QAE_NXZ
       3405  D4C 00A25530 ?GetHighPrecisionTimer@CTimer@@QAE?AVCTimerValue@@XZ
       3406  D4D 00159910 ?GetHistoryText@CUICharacterInfo@@AAE?AVCTString@@W4eSTRING_TYPE@1@H@Z
       3407  D4E 004D1D30 ?GetHostName@CCommunicationInterface@@QAEXAAVCTString@@0@Z
       3408  D4F 0049ADA0 ?GetHostName@CNetworkLibrary@@QAEXAAVCTString@@0@Z
       3409  D50 006AC960 ?GetHotSpot@CSoundEffect@@QAEMXZ
       3410  D51 000B0A00 ?GetHp@Party@@QBEHH@Z
       3411  D52 0030B240 ?GetID@CDrawPort@@QAEKXZ
       3412  D53 00643AA0 ?GetID@CModelInstance@@QAEABJXZ
       3413  D54 00A1B6F0 ?GetID_t@CTStream@@QAE?AVCChunkID@@XZ
       3414  D55 00A0E940 ?GetINDEX@CShell@@QAEJABVCTString@@@Z
       3415  D56 00014410 ?GetIconTexCol@CItemData@@QBEHXZ
       3416  D57 000143D0 ?GetIconTexID@CItemData@@QBEHXZ
       3417  D58 000143F0 ?GetIconTexRow@CItemData@@QBEHXZ
       3418  D59 00018BD0 ?GetId@cThreadWrapper@@QAEIXZ
       3419  D5A 000AF0D0 ?GetIdleText@CUIProgressBar@@QBE?BVCTString@@XZ
       3420  D5B 000AEFA0 ?GetIdleTextColor@CUIProgressBar@@QBE?BKXZ
       3421  D5C 000AC5F0 ?GetImageCount@CUIImageArray@@QAEHXZ
       3422  D5D 00A67410 ?GetImpactTime@CJobInfo@@QBEMHH@Z
       3423  D5E 00A6D290 ?GetImpactTime@CTransformInfo@@QBEMHH@Z
       3424  D5F 00019120 ?GetInValidEditBox@CUIEditBox@@QAEHXZ
       3425  D60 0041CF10 ?GetInZoneData@CZoneInfo@@QAEPAU_tagObjInZone@1@H@Z
       3426  D61 0041CF90 ?GetInZoneData@CZoneInfo@@QAEPAU_tagObjInZone@1@VCTString@@@Z
       3427  D62 00011280 ?GetIndex@CMissionCase@@QAEHXZ
       3428  D63 0000E9E0 ?GetIndex@COptionData@@QAEHXZ
       3429  D64 00010F10 ?GetIndex@CShopData@@QBEHXZ
       3430  D65 003FBE10 ?GetInkColor@CModelRenderPrefs@@QAEKXZ
       3431  D66 006A2210 ?GetInnerBasis@CShockWaveEffect@@QAEHXZ
       3432  D67 009FA2C0 ?GetInput@CInput@@QAEXH@Z
       3433  D68 009FA5E0 ?GetInputDevice@CInput@@QAEPAVCInputDevice@@ABVCTString@@@Z
       3434  D69 009FA5A0 ?GetInputDevice@CInput@@QAEPAVCInputDevice@@J@Z
       3435  D6A 00223E70 ?GetInputDeviceID@@YAJK@Z
       3436  D6B 009FA910 ?GetInputDeviceName@CInput@@QAE?AVCTString@@J@Z
       3437  D6C 009FA980 ?GetInputDeviceShortName@CInput@@QAE?AVCTString@@J@Z
       3438  D6D 00223040 ?GetInputDevicesCount@CInput@@QAEJXZ
       3439  D6E 006ABEB0 ?GetInstancePosition@CSkaEffect@@QAE?AV?$Vector@M$02@@AAV?$Matrix@M$02$02@@@Z
       3440  D6F 006AC020 ?GetInstanceRotation@CSkaEffect@@QAE?AV?$Quaternion@M@@XZ
       3441  D70 00012FC0 ?GetIntroDesc@CQuestDynamicData@@QAEAAVCTString@@XZ
       3442  D71 000B0860 ?GetIsPartyPlay@Party@@QAEHXZ
       3443  D72 00013C00 ?GetItemBM2FileName@CItemData@@QAEPBDXZ
       3444  D73 00013C60 ?GetItemBM3FileName@CItemData@@QAEPBDXZ
       3445  D74 00013BA0 ?GetItemBMFileName@CItemData@@QAEPBDXZ
       3446  D75 000145F0 ?GetItemBelong@CItemData@@QAEHXZ
       3447  D76 000B3BD0 ?GetItemCollection@GameDataManager@@QAEPAVCItemCollection@@XZ
       3448  D77 000B3C30 ?GetItemCompose@GameDataManager@@QAEPAVCItemCompose@@XZ
       3449  D78 000A9B60 ?GetItemCount@CUIList@@QAEHXZ
       3450  D79 00018390 ?GetItemData@CNetworkLibrary@@QAEPAVCItemData@@H@Z
       3451  D7A 00018400 ?GetItemDesc@CNetworkLibrary@@QAEPBDH@Z
       3452  D7B 00014A50 ?GetItemEffectGroup@CItemEffect@@QAEPAU_ITEMEFFECTGROUP@1@XZ
       3453  D7C 00013E50 ?GetItemIndex@CItemData@@QBEHXZ
       3454  D7D 0000EF30 ?GetItemIndex@CNickNameData@@QBEHXZ
       3455  D7E 00113410 ?GetItemInfo@CInvenData@@QAEPAVCItems@@HH@Z
       3456  D7F 000183C0 ?GetItemName@CNetworkLibrary@@QAEPBDH@Z
       3457  D80 0001EF70 ?GetItemNameColor@CUIManager@@QAEKH@Z
       3458  D81 000A9A30 ?GetItemShowNum@CUIList@@QAEHXZ
       3459  D82 00013B20 ?GetItemSmcFileName@CItemData@@QAEPBDXZ
       3460  D83 000A99E0 ?GetItemStart@CUIList@@QAEXAAH0@Z
       3461  D84 00013C20 ?GetItemTEX2FileName@CItemData@@QAEPBDXZ
       3462  D85 00013C40 ?GetItemTEX2NormalFileName@CItemData@@QAEPBDXZ
       3463  D86 00013C80 ?GetItemTEX3FileName@CItemData@@QAEPBDXZ
       3464  D87 00013CA0 ?GetItemTEX3NormalFileName@CItemData@@QAEPBDXZ
       3465  D88 00013BC0 ?GetItemTEXFileName@CItemData@@QAEPBDXZ
       3466  D89 00013BE0 ?GetItemTEXNormalFileName@CItemData@@QAEPBDXZ
       3467  D8A 000A9C30 ?GetItemTotalHeight@CUIList@@QAEHXZ
       3468  D8B 0001A060 ?GetItemsPerPage@CUIScrollBar@@QBEHXZ
       3469  D8C 00018440 ?GetJewelComposNas@CNetworkLibrary@@QAEHH_N@Z
       3470  D8D 000184A0 ?GetJewelGradeInfo@CNetworkLibrary@@QAEHHAAV?$vector@UJewelInfo@@V?$allocator@UJewelInfo@@@std@@@std@@@Z
       3471  D8E 00013E90 ?GetJobA@CItemData@@QBEHXZ
       3472  D8F 000145B0 ?GetJumpingLevel@CItemData@@QBEHXZ
       3473  D90 000B3240 ?GetKillMonIndex@CUIAutoHelp@@QBEHXZ
       3474  D91 000A87A0 ?GetLastLineCnt@CUIMultiLineText@@QBE?BHXZ
       3475  D92 000A8840 ?GetLastLineColor@CUIMultiLineText@@QBE?BKXZ
       3476  D93 000A87C0 ?GetLastLinePosX@CUIMultiLineText@@QBE?BHXZ
       3477  D94 000A8800 ?GetLastLinePosY@CUIMultiLineText@@QBE?BHXZ
       3478  D95 00A2D8A0 ?GetLastMip@CBrush3D@@QAEPAVCBrushMip@@XZ
       3479  D96 0059F930 ?GetLastPositions@CEntity@@QAEPAVCLastPositions@@J@Z
       3480  D97 0000F1B0 ?GetLastProcessedTime@CEffect@@QAEMXZ
       3481  D98 000B09A0 ?GetLayer@Party@@QBECH@Z
       3482  D99 000A5540 ?GetLeft@CUICheckButton@@QAEHXZ
       3483  D9A 00421EF0 ?GetLeftCount@CParticlesEmitter@@QAEKXZ
       3484  D9B 0000F1D0 ?GetLeftTime@CEffect@@QAEMXZ
       3485  D9C 004445C0 ?GetLensFlares@CWorldRenderPrefs@@QAE?AW4LensFlaresType@1@XZ
       3486  D9D 00005D20 ?GetLerpFactor2@CTimer@@QBEMXZ
       3487  D9E 00005D00 ?GetLerpFactor@CTimer@@QBEMXZ
       3488  D9F 006BE7E0 ?GetLerpRatio@CParticlesProcessPointGoal@@QAEMXZ
       3489  DA0 006BE800 ?GetLerpSpeed@CParticlesProcessPointGoal@@QAEMXZ
       3490  DA1 00005C40 ?GetLerpedCurrentTick@CTimer@@QBE?BMXZ
       3491  DA2 00A6FCA0 ?GetLerpedEntityTime@CMovableEntity@@QAEMXZ
       3492  DA3 005953A0 ?GetLerpedPlacement@CEntity@@UBE?AVCPlacement3D@@XZ
       3493  DA4 00A70EE0 ?GetLerpedPlacement@CMovableEntity@@UBE?AVCPlacement3D@@XZ
       3494  DA5 00013EB0 ?GetLevel@CItemData@@QBEHXZ
       3495  DA6 00010410 ?GetLevel@CMobData@@QBEHXZ
       3496  DA7 000B09D0 ?GetLevel@Party@@QBEHH@Z
       3497  DA8 0000F220 ?GetLifeTime@CEffect@@QAEMXZ
       3498  DA9 00230100 ?GetLifeTime@CParticle@@QBEMXZ
       3499  DAA 005EB760 ?GetLightAmbient@CLightSource@@QBEKXZ
       3500  DAB 005EB820 ?GetLightAmbient@CLightSource@@QBEXAAE00@Z
       3501  DAC 0067E1C0 ?GetLightColor@CLightEffect@@QAEKXZ
       3502  DAD 005EB520 ?GetLightColor@CLightSource@@QBEKXZ
       3503  DAE 005EB5D0 ?GetLightColor@CLightSource@@QBEXAAE00@Z
       3504  DAF 0041C230 ?GetLightColorAndAmbient@CLightSource@@QBEXAAE00000@Z
       3505  DB0 0041C1F0 ?GetLightColorAndAmbient@CLightSource@@QBEXAAK0@Z
       3506  DB1 0000D590 ?GetLightSource@CEntity@@QAEPAVCLightSource@@XZ
       3507  DB2 00A48800 ?GetLightStrength@CBrushShadowLayer@@QAEMJJMM@Z
       3508  DB3 000AAD50 ?GetLineCount@CUITextBox@@QAEHXZ
       3509  DB4 000A73F0 ?GetLineHeight@CUIListBox@@QBEHXZ
       3510  DB5 000AAC60 ?GetLineHeight@CUITextBox@@QAEHXZ
       3511  DB6 000A73D0 ?GetLinePerPage@CUIListBox@@QBEHXZ
       3512  DB7 00277EB0 ?GetLineSpacing@CFontData@@QBEJXZ
       3513  DB8 000AAD80 ?GetLineString@CUITextBox@@QAE?AVCTString@@H@Z
       3514  DB9 002B17D0 ?GetLineText@CUITextBoxEx@@QAEPAVCUIBase@@H@Z
       3515  DBA 00A1B160 ?GetLine_t@CTStream@@QAEXAAVCTString@@D@Z
       3516  DBB 00A1AEE0 ?GetLine_t@CTStream@@QAEXPADJD@Z
       3517  DBC 00122A60 ?GetListCompleteCount@Quest@@QAEJXZ
       3518  DBD 00121170 ?GetListCompleteIndex@Quest@@QAEJJ@Z
       3519  DBE 00122B90 ?GetListCompleteTitle@Quest@@QAE?AVCTString@@J@Z
       3520  DBF 002A0C20 ?GetListItem@CUIList@@QAEPAVCUIBase@@H@Z
       3521  DC0 000A99C0 ?GetListItemTemplate@CUIList@@QAEPAVCUIListItem@@XZ
       3522  DC1 00122A30 ?GetListProceedCount@Quest@@QAEJXZ
       3523  DC2 001210E0 ?GetListProceedIndex@Quest@@QAEJJ@Z
       3524  DC3 00122B30 ?GetListProceedTitle@Quest@@QAE?AVCTString@@J@Z
       3525  DC4 00122A90 ?GetListRaidCount@Quest@@QAEJXZ
       3526  DC5 00121200 ?GetListRaidIndex@Quest@@QAEJJ@Z
       3527  DC6 00122BF0 ?GetListRaidTitle@Quest@@QAE?AVCTString@@J@Z
       3528  DC7 0041D600 ?GetLoadingInfo@CZoneInfo@@QAEXHAAMAAVCTString@@1@Z
       3529  DC8 00166DF0 ?GetLoadingState@CLoadingImage@@QAE?AW4ePROGRESS_STATE@1@XZ
       3530  DC9 004B16C0 ?GetLoadingZone@CNetworkLibrary@@QAEJXZ
       3531  DCA 004D3260 ?GetLocalAddress_t@CCommunicationInterface@@QAEXAAK0@Z
       3532  DCB 0049AD70 ?GetLocalPause@CNetworkLibrary@@QAEHXZ
       3533  DCC 0049CC10 ?GetLocalPlayerCount@CNetworkLibrary@@QAEJXZ
       3534  DCD 0049CC90 ?GetLocalPlayerEntity@CNetworkLibrary@@QAEPAVCEntity@@PAVCPlayerSource@@@Z
       3535  DCE 00A14920 ?GetLogicalAddress@@YAHPAXPADKAAK2@Z
       3536  DCF 000B3A90 ?GetLoginData@GameDataManager@@QAEPAVLoginNew@@XZ
       3537  DD0 002D2200 ?GetLoginModel@CLoginJobInfo@@QAEPAVCEntity@@W4eJob@@@Z
       3538  DD1 00105020 ?GetLoopCount@CAnimEffect@@QAEJXZ
       3539  DD2 000AC290 ?GetLoopState@CUISpriteAni@@QAEHXZ
       3540  DD3 006EE070 ?GetLvGuidString@CUIAutoHelp@@QAEXH@Z
       3541  DD4 000104B0 ?GetMP@CMobData@@QBEHXZ
       3542  DD5 005B4DA0 ?GetMagicAttack@CItemData@@QAEHXZ
       3543  DD6 000141F0 ?GetMagicDefence@CItemData@@QBEHXZ
       3544  DD7 00A7F910 ?GetMagicspeed@CPlayerEntity@@UAECXZ
       3545  DD8 000188A0 ?GetMakeItemData@CNetworkLibrary@@QAEAAVCMakeItemData@@H@Z
       3546  DD9 000140F0 ?GetMakePotionCount@CItemData@@QBEHXZ
       3547  DDA 000B0C10 ?GetMandateName@Party@@QAE?AVCTString@@XZ
       3548  DDB 00444260 ?GetManualMipBrushingFactor@CWorldRenderPrefs@@QAEMXZ
       3549  DDC 00401F40 ?GetManualMipLevel@CModelObject@@QAEJXZ
       3550  DDD 002302A0 ?GetMass@CParticle@@QBEMXZ
       3551  DDE 006939B0 ?GetMassCount@CParticlesProcessDynamicState@@QAEIXZ
       3552  DDF 00693980 ?GetMassTime@CParticlesProcessDynamicState@@QAEMI@Z
       3553  DE0 00693940 ?GetMassValue@CParticlesProcessDynamicState@@QAEMI@Z
       3554  DE1 00018FF0 ?GetMaxChar@CUIEditBox@@QAEHXZ
       3555  DE2 0067E180 ?GetMaxFallOff@CLightEffect@@QAEMXZ
       3556  DE3 005975B0 ?GetMaxFloorRadius@CCollisionInfo@@QAEMXZ
       3557  DE4 000AC1D0 ?GetMaxFrame@CUISpriteAni@@QAEHXZ
       3558  DE5 0001E530 ?GetMaxI@CUIManager@@QBEJXZ
       3559  DE6 0001E550 ?GetMaxJ@CUIManager@@QBEJXZ
       3560  DE7 00231080 ?GetMaxLifeTime@CParticlePrototype@@QAEMXZ
       3561  DE8 000A63D0 ?GetMaxLine@CUIComboBox@@QAEHXZ
       3562  DE9 00423170 ?GetMaxParticleLifeTime@CParticleGroup@@QAEMXZ
       3563  DEA 00591A20 ?GetMaxPlayers@CEntity@@SAJXZ
       3564  DEB 000A4D70 ?GetMaxPos@CUISlideBar@@QBEHXZ
       3565  DEC 005933E0 ?GetMaxTessellationLevel@CEntity@@UAEMXZ
       3566  DED 00009DB0 ?GetMaxTimeLength@CTag@@QAEMXZ
       3567  DEE 005634E0 ?GetMdlAnimLength@CMdlEffect@@QAEMXZ
       3568  DEF 00563460 ?GetMdlFileName@CMdlEffect@@QAEABVCTFileName@@XZ
       3569  DF0 00563480 ?GetMdlTexFileName@CMdlEffect@@QAEABVCTFileName@@XZ
       3570  DF1 000B0840 ?GetMemberCount@Party@@QBEHXZ
       3571  DF2 000B0880 ?GetMemberIndex@Party@@QBEJH@Z
       3572  DF3 000B0BC0 ?GetMemberName@Party@@QBE?AVCTString@@H@Z
       3573  DF4 000B08E0 ?GetMemberTarget@Party@@QAEKH@Z
       3574  DF5 000B0910 ?GetMemberTargetType@Party@@QAECH@Z
       3575  DF6 000B08B0 ?GetMemberZone@Party@@QBEJH@Z
       3576  DF7 00013D50 ?GetMeshCnt@CItemData@@QBEHXZ
       3577  DF8 00104920 ?GetMeshLOD@CSkaTag@@QAEPAUMeshLOD@@XZ
       3578  DF9 00A674A0 ?GetMeshName@CJobInfo@@QAE?AVCTFileName@@HH@Z
       3579  DFA 00823890 ?GetMessageBox@CUIManager@@QAEPAVCUIMessageBox@@H@Z
       3580  DFB 00823920 ?GetMessageBoxL@CUIManager@@QAEPAVCUIMessageBoxL@@H@Z
       3581  DFC 0001E4F0 ?GetMinI@CUIManager@@QBEJXZ
       3582  DFD 0001E510 ?GetMinJ@CUIManager@@QBEJXZ
       3583  DFE 000B03A0 ?GetMinMax@CUISpinControl@@QAEXAAHAA_J@Z
       3584  DFF 000A4D50 ?GetMinPos@CUISlideBar@@QBEHXZ
       3585  E00 00444600 ?GetMinimumRenderRange@CWorldRenderPrefs@@QAEMXZ
       3586  E01 003E2E70 ?GetMipCt@CEditModel@@QAEJXZ
       3587  E02 00A3F0A0 ?GetMipDistance@CBrushMip@@QAEMXZ
       3588  E03 00A3F0C0 ?GetMipIndex@CBrushMip@@QAEJXZ
       3589  E04 00401CC0 ?GetMipModel@CModelObject@@QAEJM@Z
       3590  E05 0035F3D0 ?GetMipmapOfSize@@YAJJAAPAKAAJ1@Z
       3591  E06 0035F340 ?GetMipmapOffset@@YAJJJJ@Z
       3592  E07 00592FE0 ?GetMirror@CEntity@@UAEHJAAVCMirrorParameters@@@Z
       3593  E08 00592F50 ?GetMirrorName@CEntity@@UAEABVCTString@@J@Z
       3594  E09 00013B60 ?GetMissileShotEffect@CItemData@@QAEPBDXZ
       3595  E0A 00010880 ?GetMissileSpeed@CMobData@@QBEMXZ
       3596  E0B 00010860 ?GetMissileType@CMobData@@QBEHXZ
       3597  E0C 00010370 ?GetMobIndex@CMobData@@QBEHXZ
       3598  E0D 00010390 ?GetMobSmcFileName@CMobData@@QAEPBDXZ
       3599  E0E 0000D4B0 ?GetMobTarget@CEntity@@QAEPAVCMobTarget@@XZ
       3600  E0F 000AC8F0 ?GetMode@CUIImageSplit@@QAEHXZ
       3601  E10 0059BDD0 ?GetModel@CEntity@@QAEABVCTFileName@@XZ
       3602  E11 0059BD50 ?GetModelColor@CEntity@@QBEKXZ
       3603  E12 00643B10 ?GetModelColor@CModelInstance@@QAEKXZ
       3604  E13 0059F750 ?GetModelDataForComponent@CEntity@@QAEPAVCModelData@@J@Z
       3605  E14 00A5F720 ?GetModelEntity@CGameState@@QAEPAVCEntity@@HH@Z
       3606  E15 00592DB0 ?GetModelForRendering@CEntity@@UAEPAVCModelObject@@XZ
       3607  E16 00401840 ?GetModelInfo@CModelObject@@QAEXAAVCModelInfo@@@Z
       3608  E17 0000D450 ?GetModelInstance@CEntity@@QAEPAVCModelInstance@@XZ
       3609  E18 002329C0 ?GetModelInstance@CSkaEffect@@QAEPAVCModelInstance@@XZ
       3610  E19 0059F7A0 ?GetModelInstanceForComponent@CEntity@@QAEPAVCModelInstance@@J@Z
       3611  E1A 00592DD0 ?GetModelInstanceForRendering@CEntity@@UAEPAVCModelInstance@@XZ
       3612  E1B 0059E1C0 ?GetModelMainTexture@CEntity@@QAEABVCTFileName@@XZ
       3613  E1C 0000D430 ?GetModelObject@CEntity@@QAEPAVCModelObject@@XZ
       3614  E1D 00643AC0 ?GetModelVertices@CModelInstance@@QAEXAAV?$CStaticStackArray@V?$Vector@M$02@@@@AAV?$Matrix@M$02$02@@AAV?$Vector@M$02@@MM@Z
       3615  E1E 00419960 ?GetModelVertices@CModelObject@@QAEXAAV?$CStaticStackArray@V?$Vector@M$02@@@@AAV?$Matrix@M$02$02@@AAV?$Vector@M$02@@MM@Z
       3616  E1F 0059E9C0 ?GetModelVerticesAbsolute@CEntity@@QAEXAAV?$CStaticStackArray@V?$Vector@M$02@@@@MM@Z
       3617  E20 0001E850 ?GetMouseCursor@CUIManager@@QAEPAVCUIMouseCursor@@XZ
       3618  E21 000ABAF0 ?GetMouseEventImage@CUIArray@@QAEXAAU_UIRect@@AAUUIRectUV@@H@Z
       3619  E22 00017330 ?GetMouseOver@CUIButton@@QBEHXZ
       3620  E23 000AB950 ?GetMouseOverItem@CUIArray@@QAEHXZ
       3621  E24 00422440 ?GetMoveType@CParticlesAbsorption@@QAE?AW4PARTICLE_MOVE_TYPE@@XZ
       3622  E25 000B0A60 ?GetMp@Party@@QBEHH@Z
       3623  E26 001749C0 ?GetMsgBoxPtr@MsgBoxMgr@@QAEPAVCUIMsgBox@@I@Z
       3624  E27 000B6640 ?GetMyApetInfo@ObjInfo@@QAEPAVCWildPetTarget@@XZ
       3625  E28 002BE3A0 ?GetMyCash@CUICashShopEX@@QAEKXZ
       3626  E29 000B0B20 ?GetMyGroupNum@Party@@QAEHXZ
       3627  E2A 000B0B40 ?GetMyGroupPos@Party@@QAEHXZ
       3628  E2B 000B6680 ?GetMyPetInfo@ObjInfo@@QAEPAVCPetTargetInfom@@XZ
       3629  E2C 00A808E0 ?GetMyPlayerIndex@CPlayerEntity@@QAEJXZ
       3630  E2D 000B66A0 ?GetMySlaveInfo@ObjInfo@@QAEPAVCSlaveTargetInfom@@H@Z
       3631  E2E 00580B60 ?GetNPC@CAffinityData@@QBEPBU_NPCInfo@1@H@Z
       3632  E2F 00580C80 ?GetNPCFlag@CAffinityData@@QBE?BHH@Z
       3633  E30 00104290 ?GetNPCIndex@ExpressSystem@@QAEGXZ
       3634  E31 0000F3A0 ?GetName@CEffect@@QBEABV?$basic_string@DU?$char_traits@D@std@@V?$allocator@D@2@@std@@XZ
       3635  E32 0000F920 ?GetName@CEffectGroup@@QBEABV?$basic_string@DU?$char_traits@D@std@@V?$allocator@D@2@@std@@XZ
       3636  E33 005928B0 ?GetName@CEntity@@UBEABVCTString@@XZ
       3637  E34 000142F0 ?GetName@CItemData@@QAEPBDXZ
       3638  E35 00A67240 ?GetName@CJobInfo@@QAE?AVCTString@@HH@Z
       3639  E36 000112D0 ?GetName@CMissionCase@@QAEPBDXZ
       3640  E37 00010610 ?GetName@CMobData@@QAEPBDXZ
       3641  E38 00643A20 ?GetName@CModelInstance@@QAE?AVCTString@@XZ
       3642  E39 00404F00 ?GetName@CModelObject@@QAE?AVCTFileName@@XZ
       3643  E3A 0000EA60 ?GetName@COptionData@@QBEPBDXZ
       3644  E3B 004229A0 ?GetName@CParticleGroup@@QAEABV?$basic_string@DU?$char_traits@D@std@@V?$allocator@D@2@@std@@XZ
       3645  E3C 00A68AC0 ?GetName@CPetInfo@@QBEABVCTString@@HH@Z
       3646  E3D 005CBE30 ?GetName@CPlayerCharacter@@QBEABVCTString@@XZ
       3647  E3E 00A808B0 ?GetName@CPlayerEntity@@UBEABVCTString@@XZ
       3648  E3F 000121A0 ?GetName@CQuestDynamicData@@QAEPBDXZ
       3649  E40 00005800 ?GetName@CSerial@@QAEABVCTFileName@@XZ
       3650  E41 00A69F30 ?GetName@CSlaveInfo@@QBEABVCTString@@H@Z
       3651  E42 00002DB0 ?GetName@CTFileName@@QAEABV1@XZ
       3652  E43 00009BB0 ?GetName@CTag@@QAEAAV?$basic_string@DU?$char_traits@D@std@@V?$allocator@D@2@@std@@XZ
       3653  E44 00379200 ?GetName@CTextureObject@@QAEABVCTFileName@@XZ
       3654  E45 00A6D1D0 ?GetName@CTransformInfo@@QAE?AVCTString@@H@Z
       3655  E46 0041F0D0 ?GetName@CWorld@@QAEABVCTString@@XZ
       3656  E47 0022AEA0 ?GetName@CharacterCreateNew@@QAEPBDXZ
       3657  E48 005CBE50 ?GetNameForPrinting@CPlayerCharacter@@QBE?BVCTString@@XZ
       3658  E49 008242F0 ?GetNasColor@CUIManager@@QAEKVCTString@@@Z
       3659  E4A 008241B0 ?GetNasColor@CUIManager@@QAEK_J@Z
       3660  E4B 005C8190 ?GetNearPolygonsInSphere@CEntity@@QAEXMAAV?$CDynamicContainer@VCBrushPolygon@@@@@Z
       3661  E4C 005C7FD0 ?GetNearestPolygon@CEntity@@QAEPAVCBrushPolygon@@AAV?$Vector@M$02@@AAV?$Plane@M$02@@AAM@Z
       3662  E4D 00013220 ?GetNeedDesc@CQuestDynamicData@@QAEAAVCTString@@J@Z
       3663  E4E 00014130 ?GetNeedItemCount@CItemData@@QBEHH@Z
       3664  E4F 00012480 ?GetNeedItemCount@CQuestDynamicData@@QAEJJ@Z
       3665  E50 00014110 ?GetNeedItemIndex@CItemData@@QBEHH@Z
       3666  E51 000123D0 ?GetNeedItemIndex@CQuestDynamicData@@QAE?BJJ@Z
       3667  E52 000123B0 ?GetNeedJob@CQuestDynamicData@@QAE?BJXZ
       3668  E53 0001EC20 ?GetNeedMPReductionRate@CUIManager@@QAEHXZ
       3669  E54 00012390 ?GetNeedMaxLevel@CQuestDynamicData@@QAE?BJXZ
       3670  E55 00012370 ?GetNeedMinLevel@CQuestDynamicData@@QAE?BJXZ
       3671  E56 000141B0 ?GetNeedSSkillCount2@CItemData@@QBEHXZ
       3672  E57 00014170 ?GetNeedSSkillCount@CItemData@@QBEHXZ
       3673  E58 00014190 ?GetNeedSSkillIndex2@CItemData@@QBEHXZ
       3674  E59 00014150 ?GetNeedSSkillIndex@CItemData@@QBEHXZ
       3675  E5A 0000D2B0 ?GetNetworkID@CEntity@@QAEJXZ
       3676  E5B 00592AF0 ?GetNetworkType@CEntity@@UBECXZ
       3677  E5C 000172F0 ?GetNewType@CUIButton@@QAEHXZ
       3678  E5D 000B3C10 ?GetNews@GameDataManager@@QAEPAVCNews@@XZ
       3679  E5E 00A3F200 ?GetNext@CBrushMip@@QAEPAV1@XZ
       3680  E5F 00104270 ?GetNextPage@ExpressSystem@@QAEEXZ
       3681  E60 00224130 ?GetNextStage@StageMgr@@QAE?AW4eSTAGE@@XZ
       3682  E61 003ED4B0 ?GetNextValidPatchIndex@CEditModel@@QAEXAAJ@Z
       3683  E62 00014A70 ?GetNickEffectGroup@CItemEffect@@QAEPAU_ITEMEFFECTGROUP@1@XZ
       3684  E63 000071B0 ?GetNoOfFineMips@CTextureData@@QBEKXZ
       3685  E64 00007110 ?GetNoOfMips@CTextureData@@QBEKXZ
       3686  E65 00010700 ?GetNormalBoxName@CMobData@@QAEPBDXZ
       3687  E66 000B3B10 ?GetNotice@GameDataManager@@QAEPAVNotice@@XZ
       3688  E67 001168C0 ?GetNoticeBlink@Notice@@QAE_NW4eNoticeType@1@@Z
       3689  E68 00104250 ?GetNoticeFlag@ExpressSystem@@QAEEXZ
       3690  E69 00116880 ?GetNoticeList@Notice@@QAEPAV?$vector@UsNoticeInfo@Notice@@V?$allocator@UsNoticeInfo@Notice@@@std@@@std@@W4eNoticeType@1@@Z
       3691  E6A 0049D3E0 ?GetNthPlayerEntity@CNetworkLibrary@@QAEPAVCPlayerEntity@@J@Z
       3692  E6B 0049D280 ?GetNthPlayerEntityWithName@CNetworkLibrary@@QAEPAVCPlayerEntity@@ABVCTString@@J@Z
       3693  E6C 00013DD0 ?GetNum0@CItemData@@QBEHXZ
       3694  E6D 00013DF0 ?GetNum1@CItemData@@QBEHXZ
       3695  E6E 00013E10 ?GetNum2@CItemData@@QBEHXZ
       3696  E6F 00013E30 ?GetNum3@CItemData@@QBEHXZ
       3697  E70 0049CF00 ?GetNumberOfEntitiesWithName@CNetworkLibrary@@QAEJABVCTString@@@Z
       3698  E71 0049D140 ?GetNumberOfPlayerEntitiesWithName@CNetworkLibrary@@QAEJABVCTString@@@Z
       3699  E72 003BDEF0 ?GetObjectA@ActorMgr@@QAEPAUObjectBase@@W4eOBJ_TYPE@@I@Z
       3700  E73 003BE020 ?GetObjectByCIndex@ActorMgr@@QAEPAUObjectBase@@W4eOBJ_TYPE@@I@Z
       3701  E74 003BE590 ?GetObjectByDistance@ActorMgr@@QAEPAUObjectBase@@V?$Vector@M$02@@@Z
       3702  E75 003BE290 ?GetObjectByEntity@ActorMgr@@QAEPAUObjectBase@@PAVCEntity@@@Z
       3703  E76 003BE160 ?GetObjectByNPCIdx@ActorMgr@@QAEPAUObjectBase@@I@Z
       3704  E77 003BE400 ?GetObjectByName@ActorMgr@@QAEPAUObjectBase@@PBDW4eOBJ_TYPE@@@Z
       3705  E78 004F4300 ?GetObserversCount@CServer@@QAEJXZ
       3706  E79 00005B50 ?GetOffsetFromStart@CTimer@@QAE?AVCTimerValue@@XZ
       3707  E7A 006416B0 ?GetOffsetPos@CModelInstance@@QAE?AV?$Vector@M$02@@XZ
       3708  E7B 006B14E0 ?GetOffsetPos@CSplinePathEffect@@QAEABV?$Vector@M$02@@XZ
       3709  E7C 00009C70 ?GetOffsetPos@CTag@@QAEAAV?$Vector@M$02@@XZ
       3710  E7D 00641730 ?GetOffsetRot@CModelInstance@@QAE?AV?$Vector@M$02@@XZ
       3711  E7E 00009D20 ?GetOffsetRot@CTag@@QAEAAV?$Quaternion@M@@XZ
       3712  E7F 0073C420 ?GetOnlyIntegerMode@CUIEditBox@@QAEHXZ
       3713  E80 0000CFB0 ?GetOpacity@CEntity@@UAEMXZ
       3714  E81 0000EEF0 ?GetOptionIndex@CNickNameData@@QBEPBHXZ
       3715  E82 0000EF10 ?GetOptionLevel@CNickNameData@@QBEPBEXZ
       3716  E83 00014650 ?GetOptionOriginLevel@CItemData@@QAEHH@Z
       3717  E84 00014610 ?GetOptionOriginType@CItemData@@QAEHH@Z
       3718  E85 00012C30 ?GetOptionPrizeData@CQuestDynamicData@@QAEJJ@Z
       3719  E86 000131A0 ?GetOptionPrizeDesc@CQuestDynamicData@@QAEAAVCTString@@J@Z
       3720  E87 00012B80 ?GetOptionPrizeIndex@CQuestDynamicData@@QAEJJ@Z
       3721  E88 00012CE0 ?GetOptionPrizePlus@CQuestDynamicData@@QAEJJ@Z
       3722  E89 00012AD0 ?GetOptionPrizeType@CQuestDynamicData@@QAEJJ@Z
       3723  E8A 000146D0 ?GetOptionSkillLevel@CItemData@@QAEHH@Z
       3724  E8B 00014690 ?GetOptionSkillType@CItemData@@QAEHH@Z
       3725  E8C 000142D0 ?GetOptionType@CItemData@@QBEHXZ
       3726  E8D 0068E3B0 ?GetOrbit@COrbitEffect@@QAEPAUsOrbitInfo@1@J@Z
       3727  E8E 0068CC50 ?GetOrbitCount@COrbitEffect@@QAEJXZ
       3728  E8F 00015810 ?GetOrigPos@CUIBase@@QAEXAAH0@Z
       3729  E90 000157D0 ?GetOrigX@CUIBase@@QAEHXZ
       3730  E91 000157F0 ?GetOrigY@CUIBase@@QAEHXZ
       3731  E92 002AF640 ?GetOriginString@CUITextEx@@QAEPBDXZ
       3732  E93 005634C0 ?GetOverDraw@CMdlEffect@@QAEHXZ
       3733  E94 005A9710 ?GetOverridenState@CDLLEntityClass@@QAEJJ@Z
       3734  E95 0000F490 ?GetOwner@CEffect@@QAEPAVCEntity@@XZ
       3735  E96 0000A590 ?GetOwner@CTagManager@@QAEPAVCEntity@@XZ
       3736  E97 00010940 ?GetOwnerIndex@CMobData@@QAEJXZ
       3737  E98 003FBE50 ?GetPaperColor@CModelRenderPrefs@@QAEKXZ
       3738  E99 0000D490 ?GetParent@CEntity@@QAEPAV1@XZ
       3739  E9A 00642160 ?GetParent@CModelInstance@@QAEPAV1@PAV1@@Z
       3740  E9B 00694220 ?GetParticleGroup@CParticleEffect@@QAEABV?$basic_string@DU?$char_traits@D@std@@V?$allocator@D@2@@std@@XZ
       3741  E9C 00422070 ?GetParticlePrototype@CParticlesEmitter@@QAEAAVCParticlePrototype@@XZ
       3742  E9D 00422020 ?GetParticleType@CParticlesEmitter@@QAE?AW4PARTICLE_RENDER_TYPE@@XZ
       3743  E9E 000B3B90 ?GetPartyInfo@GameDataManager@@QAEPAVParty@@XZ
       3744  E9F 000B0820 ?GetPartyType@Party@@QAECXZ
       3745  EA0 000190B0 ?GetPassWord@CUIEditBox@@QAEXAAH0@Z
       3746  EA1 009E73C0 ?GetPassedTime@CAnimObject@@QBEMXZ
       3747  EA2 0022A380 ?GetPassword@LoginNew@@QAE?AVCTString@@XZ
       3748  EA3 00402100 ?GetPatchesMask@CModelObject@@QAEKXZ
       3749  EA4 0001EF40 ?GetPathCount@CUIManager@@QAEHXZ
       3750  EA5 00014430 ?GetPetAISet0@CItemData@@QBEHXZ
       3751  EA6 00014450 ?GetPetAISet1@CItemData@@QBEHXZ
       3752  EA7 00014470 ?GetPetAISet2@CItemData@@QBEHXZ
       3753  EA8 00014490 ?GetPetAISet3@CItemData@@QBEHXZ
       3754  EA9 001199C0 ?GetPetCount@PetStash@@QAEHXZ
       3755  EAA 008DD700 ?GetPetDesc@CUIPetInfo@@QAEXXZ
       3756  EAB 0027A960 ?GetPetSkillDelay@MyInfoSkill@@QAE_NHH@Z
       3757  EAC 0027A340 ?GetPetSkillLevel@MyInfoSkill@@QAEHHH@Z
       3758  EAD 00014A90 ?GetPetStashEffectGroup@CItemEffect@@QAEPAU_ITEMEFFECTGROUP@1@XZ
       3759  EAE 0000D4F0 ?GetPetTarget@CEntity@@QAEPAVCPetTarget@@XZ
       3760  EAF 00013FD0 ?GetPetType@CItemData@@QBEHXZ
       3761  EB0 005B4B90 ?GetPhysicalAttack@CItemData@@QAEHXZ
       3762  EB1 000141D0 ?GetPhysicalDefence@CItemData@@QBEHXZ
       3763  EB2 0000D370 ?GetPhysicsFlags@CEntity@@QBEKXZ
       3764  EB3 006AC9A0 ?GetPitch@CSoundEffect@@QAEMXZ
       3765  EB4 00A72190 ?GetPitchDirection@CMovableEntity@@QAEXMAAV?$Vector@M$02@@@Z
       3766  EB5 000070D0 ?GetPixHeight@CTextureData@@QBEJXZ
       3767  EB6 000070B0 ?GetPixWidth@CTextureData@@QBEJXZ
       3768  EB7 00490940 ?GetPkState@CCharacterTarget@@QAEHXZ
       3769  EB8 0000D070 ?GetPlacement@CEntity@@QBEABVCPlacement3D@@XZ
       3770  EB9 00112D30 ?GetPlayCount@CInvenData@@QAEHXZ
       3771  EBA 00276E70 ?GetPlayerAttackCursor@UtilHelp@@QAE?AW4UIMCType@@JH@Z
       3772  EBB 00591A30 ?GetPlayerEntity@CEntity@@SAPAV1@J@Z
       3773  EBC 0049CDB0 ?GetPlayerEntityByName@CNetworkLibrary@@QAEPAVCEntity@@ABVCTString@@@Z
       3774  EBD 00A80550 ?GetPlayerModelInstance@CPlayerEntity@@UAEPAVCModelInstance@@PAVCEntity@@@Z
       3775  EBE 00A80860 ?GetPlayerName@CPlayerEntity@@QAE?AVCTString@@XZ
       3776  EBF 0049D7E0 ?GetPlayerSource@CNetworkLibrary@@QAEPAVCPlayerSource@@PAVCEntity@@@Z
       3777  EC0 004F3FE0 ?GetPlayersCount@CServer@@QAEJXZ
       3778  EC1 00500160 ?GetPlayersCount@CSessionState@@QAEJXZ
       3779  EC2 004F4390 ?GetPlayersCountForClient@CServer@@QAEJJ@Z
       3780  EC3 00014A30 ?GetPlusEffectGroup@CItemEffect@@QAEPAU_ITEMEFFECTGROUP@1@H@Z
       3781  EC4 006BE790 ?GetPointGoal@CParticlesProcessPointGoal@@QAEABV?$Vector@M$02@@XZ
       3782  EC5 00444500 ?GetPolygonsFillType@CWorldRenderPrefs@@QAE?AW4FillType@1@XZ
       3783  EC6 00444540 ?GetPolygonsInkColor@CWorldRenderPrefs@@QAEKXZ
       3784  EC7 00015760 ?GetPos@CUIBase@@QAEXAAH0@Z
       3785  EC8 001E4D10 ?GetPos@cWeb@@QAEXAAH0@Z
       3786  EC9 002322B0 ?GetPosCount@CEffectControl@@QAEIXZ
       3787  ECA 002322E0 ?GetPosSpline@CEffectControl@@QAEAAV?$CSampleSpline@V?$Vector@M$02@@V?$CCubicSplineInterpolate@V?$Vector@M$02@@@@@@XZ
       3788  ECB 005633F0 ?GetPosTag@CMdlEffect@@QAE?AV?$CRefCountPtr@VCTag@@@@XZ
       3789  ECC 00232950 ?GetPosTag@CSkaEffect@@QAE?AV?$CRefCountPtr@VCTag@@@@XZ
       3790  ECD 00232280 ?GetPosTime@CEffectControl@@QAEMI@Z
       3791  ECE 00232230 ?GetPosValue@CEffectControl@@QAE?AV?$Vector@M$02@@I@Z
       3792  ECF 00015790 ?GetPosX@CUIBase@@QBEHXZ
       3793  ED0 000B0940 ?GetPosX@Party@@QBEMH@Z
       3794  ED1 000157B0 ?GetPosY@CUIBase@@QBEHXZ
       3795  ED2 000B0970 ?GetPosZ@Party@@QBEMH@Z
       3796  ED3 00A1A970 ?GetPos_t@CTStream@@QAEJXZ
       3797  ED4 005C43C0 ?GetPosition@CLastPositions@@QAEABV?$Vector@M$02@@J@Z
       3798  ED5 002303E0 ?GetPosition@CParticle@@QBEABV?$Vector@M$02@@XZ
       3799  ED6 00422600 ?GetPosition@CParticlesAbsorption@@QAEABV?$Vector@M$02@@XZ
       3800  ED7 00231960 ?GetPosition@CParticlesCommonProcess@@QAEABV?$Vector@M$02@@XZ
       3801  ED8 00421F80 ?GetPosition@CParticlesEmitter@@QAEABV?$Vector@M$02@@XZ
       3802  ED9 00563390 ?GetPositionType@CMdlEffect@@QAE?AW4EFFECT_OF_TAG_TYPE@@XZ
       3803  EDA 0068CC30 ?GetPositionType@COrbitEffect@@QAE?AW4EFFECT_OF_TAG_TYPE@@XZ
       3804  EDB 006A25F0 ?GetPositionType@CShockWaveEffect@@QAE?AW4EFFECT_OF_TAG_TYPE@@XZ
       3805  EDC 002328A0 ?GetPositionType@CSkaEffect@@QAE?AW4EFFECT_OF_TAG_TYPE@@XZ
       3806  EDD 006B1490 ?GetPositionType@CSplinePathEffect@@QAE?AW4EFFECT_OF_TAG_TYPE@@XZ
       3807  EDE 004BAD60 ?GetPositionType@CTerrainEffect@@QAE?AW4EFFECT_OF_TAG_TYPE@@XZ
       3808  EDF 000A9BA0 ?GetPreCreate@CUIList@@QAE_NXZ
       3809  EE0 00012310 ?GetPreQuestIndex@CQuestDynamicData@@QAE?BJXZ
       3810  EE1 001042D0 ?GetPremiumBenefit@ExpressSystem@@QAE_NXZ
       3811  EE2 000B3BF0 ?GetPremiumChar@GameDataManager@@QAEPAVCPremiumChar@@XZ
       3812  EE3 00A3F240 ?GetPrev@CBrushMip@@QAEPAV1@XZ
       3813  EE4 003ED330 ?GetPreviousValidPatchIndex@CEditModel@@QAEXAAJ@Z
       3814  EE5 00013FF0 ?GetPrice@CItemData@@QBEHXZ
       3815  EE6 00012A00 ?GetPrizeData@CQuestDynamicData@@QAE_JJ@Z
       3816  EE7 00013120 ?GetPrizeDesc@CQuestDynamicData@@QAEAAVCTString@@J@Z
       3817  EE8 00012950 ?GetPrizeIndex@CQuestDynamicData@@QAEJJ@Z
       3818  EE9 000122F0 ?GetPrizeNPCIndex@CQuestDynamicData@@QAE?BJXZ
       3819  EEA 00012350 ?GetPrizeNPCZoneIndex@CQuestDynamicData@@QAE?BJXZ
       3820  EEB 000128A0 ?GetPrizeType@CQuestDynamicData@@QAEJJ@Z
       3821  EEC 001229D0 ?GetProceedQuestCount@Quest@@QAEJXZ
       3822  EED 00120660 ?GetProceedQuestIndex@Quest@@QAEJJ@Z
       3823  EEE 00014090 ?GetProcessSkill@CItemData@@QBEHXZ
       3824  EEF 00014030 ?GetProcessSubType@CItemData@@QBEHXZ
       3825  EF0 00014010 ?GetProcessType@CItemData@@QBEHXZ
       3826  EF1 00014070 ?GetProductSubType@CItemData@@QBEHXZ
       3827  EF2 00014050 ?GetProductType@CItemData@@QBEHXZ
       3828  EF3 000AF1E0 ?GetProgressPos@CUIProgressBar@@QBE?BHXZ
       3829  EF4 000AF200 ?GetProgressRange@CUIProgressBar@@QBEXAAH0@Z
       3830  EF5 00230500 ?GetProgressValue@CParticle@@QBEMXZ
       3831  EF6 00A7F990 ?GetProjection@CPlayerEntity@@UAEXAAVCAnyProjection3D@@@Z
       3832  EF7 001199A0 ?GetProxyPetIndex@PetStash@@QAEHXZ
       3833  EF8 000B3B50 ?GetQuest@GameDataManager@@QAEPAVQuest@@XZ
       3834  EF9 000133A0 ?GetQuestAllow@CQuestSystem@@QAE?AW4eQuestAllowType@1@J@Z
       3835  EFA 00012200 ?GetQuestCategory@CQuestDynamicData@@QAEJXZ
       3836  EFB 00012180 ?GetQuestIndex@CQuestDynamicData@@QAEJXZ
       3837  EFC 000134C0 ?GetQuestMaxLevel@CQuestSystem@@QAE?BHH@Z
       3838  EFD 00013490 ?GetQuestMinLevel@CQuestSystem@@QAE?BHH@Z
       3839  EFE 00013450 ?GetQuestName@CQuestSystem@@QAEPBDH@Z
       3840  EFF 001220D0 ?GetQuestNoticeElapsedTime@Quest@@QAENXZ
       3841  F00 00013FB0 ?GetQuestNum@CItemData@@QBEHXZ
       3842  F01 00012250 ?GetQuestPartyScale@CQuestDynamicData@@QAE?BJXZ
       3843  F02 00012270 ?GetQuestType1@CQuestDynamicData@@QAE?BJXZ
       3844  F03 00012290 ?GetQuestType2@CQuestDynamicData@@QAE?BJXZ
       3845  F04 0001DA20 ?GetQuickSlotID@CUIIcon@@QAEHXZ
       3846  F05 0001DB40 ?GetQuickSlotWearType@CUIIcon@@QAEHXZ
       3847  F06 0001A330 ?GetRSBackground@CUIScrollBar@@QAEPAVCUIRectSurface@@XZ
       3848  F07 0001A380 ?GetRSButton@CUIScrollBar@@QAEPAVCUIRectSurface@@H@Z
       3849  F08 0001A3D0 ?GetRSThumb@CUIScrollBar@@QAEPAVCUIRectSurface@@XZ
       3850  F09 006A2340 ?GetRadiusCount@CShockWaveEffect@@QAEIXZ
       3851  F0A 006A2310 ?GetRadiusTime@CShockWaveEffect@@QAEMI@Z
       3852  F0B 006A22E0 ?GetRadiusValue@CShockWaveEffect@@QAEMI@Z
       3853  F0C 0041CE50 ?GetRaidDungeon@CZoneInfo@@QAEHH@Z
       3854  F0D 00592BB0 ?GetRaidEvent@CEntity@@UBEJXZ
       3855  F0E 00592B90 ?GetRaidObject@CEntity@@UBEHXZ
       3856  F0F 00122190 ?GetRaidReminTime@Quest@@QAENXZ
       3857  F10 000A4D30 ?GetRange@CUISlideBar@@QBEHXZ
       3858  F11 0049AF30 ?GetRealTimeFactor@CNetworkLibrary@@QAEMXZ
       3859  F12 00A251F0 ?GetRealTimeTick@CTimer@@QBEMXZ
       3860  F13 00015B30 ?GetRearrangeMark@CUIBase@@QAEHXZ
       3861  F14 000ADA10 ?GetRecentGroup@CSessionState@@QAEHXZ
       3862  F15 000ADA30 ?GetRecentServer@CSessionState@@QAEHXZ
       3863  F16 00014250 ?GetRecoverHP@CItemData@@QBEHXZ
       3864  F17 00014270 ?GetRecoverMP@CItemData@@QBEHXZ
       3865  F18 00014230 ?GetRecoverSec@CItemData@@QBEHXZ
       3866  F19 000AB930 ?GetRectSurface@CUIArray@@QAEPAVCUIRectSurface@@XZ
       3867  F1A 000172A0 ?GetRectSurface@CUIButton@@QAEAAVCUIRectSurface@@W4UIBtnState@@@Z
       3868  F1B 00019220 ?GetRectSurface@CUIEditBox@@QAEPAVCUIRectSurface@@XZ
       3869  F1C 000AB480 ?GetRectSurface@CUIImageFont@@QAEPAVCUIRectSurface@@XZ
       3870  F1D 000A9C70 ?GetRectSurface@CUIList@@QAEPAVCUIRectSurface@@XZ
       3871  F1E 000AABF0 ?GetRectSurface@CUITextBox@@QAEPAVCUIRectSurface@@XZ
       3872  F1F 000A64E0 ?GetRectSurfaceBack@CUIComboBox@@QAEPAVCUIRectSurface@@XZ
       3873  F20 000A6560 ?GetRectSurfaceButton@CUIComboBox@@QAEPAVCUIRectSurface@@XZ
       3874  F21 000A6520 ?GetRectSurfaceDropList@CUIComboBox@@QAEPAVCUIRectSurface@@XZ
       3875  F22 00A71E00 ?GetReferenceHeadingDirection@CMovableEntity@@QAEXABV?$Vector@M$02@@MAAV2@@Z
       3876  F23 000140D0 ?GetRefineType@CItemData@@QBEHXZ
       3877  F24 000062B0 ?GetRefreshHz@CGfxLibrary@@QAEJXZ
       3878  F25 00011E90 ?GetRegisteredMap@CEffectGroupManager@@QAEAAV?$map@V?$basic_string@DU?$char_traits@D@std@@V?$allocator@D@2@@std@@PAVCEffectGroup@@U?$less@V?$basic_string@DU?$char_traits@D@std@@V?$allocator@D@2@@std@@@2@V?$allocator@U?$pair@$$CBV?$basic_string@DU?$char_traits@D@std@@V?$allocator@D@2@@std@@PAVCEffectGroup@@@std@@@2@@std@@XZ
       3879  F26 00423720 ?GetRegisteredMap@CEffectManager@@QAEAAV?$map@V?$basic_string@DU?$char_traits@D@std@@V?$allocator@D@2@@std@@PAVCEffect@@U?$less@V?$basic_string@DU?$char_traits@D@std@@V?$allocator@D@2@@std@@@2@V?$allocator@U?$pair@$$CBV?$basic_string@DU?$char_traits@D@std@@V?$allocator@D@2@@std@@PAVCEffect@@@std@@@2@@std@@XZ
       3880  F27 00423580 ?GetRegisteredMap@CParticleGroupManager@@QAEAAV?$map@V?$basic_string@DU?$char_traits@D@std@@V?$allocator@D@2@@std@@PAVCParticleGroup@@U?$less@V?$basic_string@DU?$char_traits@D@std@@V?$allocator@D@2@@std@@@2@V?$allocator@U?$pair@$$CBV?$basic_string@DU?$char_traits@D@std@@V?$allocator@D@2@@std@@PAVCParticleGroup@@@std@@@2@@std@@XZ
       3881  F28 005A09D0 ?GetRelativeHeading@CEntity@@QAEMABV?$Vector@M$02@@@Z
       3882  F29 00A71B10 ?GetRelativeHeading@CMovableEntity@@QAEMABV?$Vector@M$02@@@Z
       3883  F2A 00A71C40 ?GetRelativePitch@CMovableEntity@@QAEMABV?$Vector@M$02@@@Z
       3884  F2B 00014AB0 ?GetRelicEffectGroup@CItemEffect@@QAEPAU_ITEMEFFECTGROUP@1@XZ
       3885  F2C 008E1E10 ?GetRemainSealed@CUIPetInfo@@QAEJH@Z
       3886  F2D 004D3480 ?GetRemoteAddress_t@CCommunicationInterface@@QAEXAAK0@Z
       3887  F2E 00112D50 ?GetRenderCount@CInvenData@@QAEIXZ
       3888  F2F 008624F0 ?GetRenderHeight@CUIMultiLineText@@QBE?BHXZ
       3889  F30 000AC550 ?GetRenderIdx@CUIImageArray@@QAEHXZ
       3890  F31 000AC220 ?GetRenderIdx@CUISpriteAni@@QAEHXZ
       3891  F32 000A8B50 ?GetRenderRegion@CUIImageBox@@QAE?AU_UIRect@@XZ
       3892  F33 0001ED70 ?GetRenderTarget@CUIManager@@QAEPAVCRenderTexture@@XZ
       3893  F34 0000D3B0 ?GetRenderType@CEntity@@QAE?AW4RenderType@1@XZ
       3894  F35 003FBBD0 ?GetRenderType@CModelRenderPrefs@@QAEKXZ
       3895  F36 00422A70 ?GetRenderType@CParticleGroup@@QAEHXZ
       3896  F37 000A8780 ?GetRenderWidth@CUIMultiLineText@@QBE?BHXZ
       3897  F38 0037FA00 ?GetRenderingTime@CTextureEffectGlobal@@QAENXZ
       3898  F39 0000F300 ?GetRepeatCount@CEffect@@QAEJXZ
       3899  F3A 00104CA0 ?GetReservedEG@CAnimEffect@@QAEPAVCReservedEffectGroup@1@J@Z
       3900  F3B 00104C70 ?GetReservedEGCount@CAnimEffect@@QAEJXZ
       3901  F3C 000B1990 ?GetRestartGameValue@CGameState@@QAEHXZ
       3902  F3D 00122AC0 ?GetRestoreCount@Quest@@QAEJXZ
       3903  F3E 00122B10 ?GetRestoreQuestList@Quest@@QAEABV?$vector@UstRestoreInfo@Quest@@V?$allocator@UstRestoreInfo@Quest@@@std@@@std@@XZ
       3904  F3F 000144F0 ?GetRestrictionPosX@CItemData@@QBEHXZ
       3905  F40 00014510 ?GetRestrictionPosY@CItemData@@QBEHXZ
       3906  F41 00014530 ?GetRestrictionPosZ@CItemData@@QBEHXZ
       3907  F42 00014550 ?GetRestrictionRadius@CItemData@@QBEHXZ
       3908  F43 000144D0 ?GetRestrictionZoneNo@CItemData@@QBEHXZ
       3909  F44 00279F50 ?GetReuseItem@MyInfoSkill@@QAENH@Z
       3910  F45 00279FD0 ?GetReuseSkill@MyInfoSkill@@QAENH@Z
       3911  F46 00116990 ?GetRevision@CNews@@QAEHXZ
       3912  F47 006416F0 ?GetRideOffsetPos@CModelInstance@@QAE?AV?$Vector@M$02@@XZ
       3913  F48 00641800 ?GetRideOffsetRot@CModelInstance@@QAE?AV?$Vector@M$02@@XZ
       3914  F49 0022FEB0 ?GetRndCylinderDir@CRandomTable@@QAEABV?$Vector@M$02@@XZ
       3915  F4A 0022FE40 ?GetRndCylinderPos@CRandomTable@@QAEABV?$Vector@M$02@@XZ
       3916  F4B 0022FDD0 ?GetRndDir@CRandomTable@@QAEABV?$Vector@M$02@@XZ
       3917  F4C 0022FF90 ?GetRndFactor@CRandomTable@@QAEMXZ
       3918  F4D 0022FF20 ?GetRndOffset@CRandomTable@@QAEMXZ
       3919  F4E 0022FD60 ?GetRndPos@CRandomTable@@QAEABV?$Vector@M$02@@XZ
       3920  F4F 0000A5F0 ?GetRootTag@CTagManager@@QAEPAVCTag@@XZ
       3921  F50 0000D090 ?GetRotationMatrix@CEntity@@QBEABV?$Matrix@M$02$02@@XZ
       3922  F51 00563350 ?GetRotationType@CMdlEffect@@QAE?AW4EFFECT_OF_TAG_TYPE@@XZ
       3923  F52 0068CBF0 ?GetRotationType@COrbitEffect@@QAE?AW4EFFECT_OF_TAG_TYPE@@XZ
       3924  F53 00694260 ?GetRotationType@CParticleEffect@@QAE?AW4EFFECT_OF_TAG_TYPE@@XZ
       3925  F54 006A25B0 ?GetRotationType@CShockWaveEffect@@QAE?AW4EFFECT_OF_TAG_TYPE@@XZ
       3926  F55 00232860 ?GetRotationType@CSkaEffect@@QAE?AW4EFFECT_OF_TAG_TYPE@@XZ
       3927  F56 006B1450 ?GetRotationType@CSplinePathEffect@@QAE?AW4EFFECT_OF_TAG_TYPE@@XZ
       3928  F57 004BAD20 ?GetRotationType@CTerrainEffect@@QAE?AW4EFFECT_OF_TAG_TYPE@@XZ
       3929  F58 000AB9C0 ?GetRowCol@CUIArray@@QAEXAAH0@Z
       3930  F59 00379730 ?GetRowPointer@CTextureData@@QAEPAKJ@Z
       3931  F5A 00A5D570 ?GetRudolphNoseFilePath@CGameState@@QAEXJHAAVCTString@@0@Z
       3932  F5B 00010450 ?GetRunSpeed@CMobData@@QBEMXZ
       3933  F5C 00A68C50 ?GetRunSpeed@CPetInfo@@QBEMHH@Z
       3934  F5D 00A6A000 ?GetRunSpeed@CSlaveInfo@@QBEMH@Z
       3935  F5E 00A7F8B0 ?GetRunspeed@CPlayerEntity@@UAEMXZ
       3936  F5F 0022A310 ?GetSaveID@LoginNew@@QAEHXZ
       3937  F60 000104F0 ?GetScale@CMobData@@QBEMXZ
       3938  F61 00010530 ?GetScaledSize@CMobData@@QBEMXZ
       3939  F62 000A9AB0 ?GetScroll@CUIList@@QAEPAVCUIScrollBar@@XZ
       3940  F63 000A7720 ?GetScrollBar@CUIListBox@@QAEHXZ
       3941  F64 000A76D0 ?GetScrollBarItemsPerPage@CUIListBox@@QAEHXZ
       3942  F65 000A76A0 ?GetScrollBarPos@CUIListBox@@QAEHXZ
       3943  F66 0001A020 ?GetScrollPos@CUIScrollBar@@QBEHXZ
       3944  F67 0001A040 ?GetScrollRange@CUIScrollBar@@QBEHXZ
       3945  F68 007209A0 ?GetSearchType@CUICashShopEX@@IAEJXZ
       3946  F69 0000D310 ?GetSecondExFlags@CEntity@@QBEKXZ
       3947  F6A 003D19B0 ?GetSecondsLength@CSoundData@@QAENXZ
       3948  F6B 0059FFB0 ?GetSectorFromPoint@CEntity@@QAEPAVCBrushSector@@ABV?$Vector@M$02@@@Z
       3949  F6C 000A7740 ?GetSelData@CUIListBox@@QBEPAXH@Z
       3950  F6D 0022ADA0 ?GetSelJob@CharacterCreateNew@@QAEHXZ
       3951  F6E 0022ADE0 ?GetSelNextJob@CharacterCreateNew@@QAEHXZ
       3952  F6F 0022ADC0 ?GetSelPrevJob@CharacterCreateNew@@QAEHXZ
       3953  F70 000AB970 ?GetSelectIdx@CUIArray@@QAEHXZ
       3954  F71 000A4120 ?GetSelectPos@CUISpinButton@@QAEHXZ
       3955  F72 00122980 ?GetSelectedCount@Quest@@QAEHXZ
       3956  F73 00444650 ?GetSelectedEntityModel@CWorldRenderPrefs@@QAEPAVCModelObject@@XZ
       3957  F74 00444690 ?GetSelectedPortalModel@CWorldRenderPrefs@@QAEPAVCModelObject@@XZ
       3958  F75 00122770 ?GetSelectedQuestIndex@Quest@@QAEHH@Z
       3959  F76 00122AF0 ?GetSelectedQuestList@Quest@@QAEABV?$vector@HV?$allocator@H@std@@@std@@XZ
       3960  F77 00444710 ?GetSelectionType@CWorldRenderPrefs@@QAE?AW4SelectionType@1@XZ
       3961  F78 000B6120 ?GetSellAddition@MyInfo@@QAEHXZ
       3962  F79 00010F30 ?GetSellRate@CShopData@@QBEHXZ
       3963  F7A 000B6140 ?GetSellRate@MyInfo@@QAEHXZ
       3964  F7B 000B3A50 ?GetServerData@GameDataManager@@QAEPAVCServerSelect@@XZ
       3965  F7C 0049DB50 ?GetSessionProperties@CNetworkLibrary@@QAEPAXXZ
       3966  F7D 000144B0 ?GetSetItemIndex@CItemData@@QBEHXZ
       3967  F7E 000086D0 ?GetShadowLayersCount@CBrushShadowMap@@QAEJXZ
       3968  F7F 003FBCF0 ?GetShadowQuality@CModelRenderPrefs@@QAEJXZ
       3969  F80 0036FB10 ?GetShadowSize@CShadowMap@@QAEKXZ
       3970  F81 00444580 ?GetShadowsType@CWorldRenderPrefs@@QAE?AW4ShadowsType@1@XZ
       3971  F82 00671020 ?GetShakeValueCount@CCameraEffect@@QAEIXZ
       3972  F83 00670FF0 ?GetShakeValueTime@CCameraEffect@@QAEMI@Z
       3973  F84 00670FC0 ?GetShakeValueValue@CCameraEffect@@QAEABVCCameraValue@1@I@Z
       3974  F85 006BD930 ?GetShape@CParticlesEmitterCone@@QAEABVCConeDoubleSpace@@XZ
       3975  F86 006BDCB0 ?GetShape@CParticlesEmitterCylinder@@QAEABVCCylinderDoubleSpace@@XZ
       3976  F87 006BD660 ?GetShape@CParticlesEmitterSphere@@QAEABVCSphereDoubleSpace@@XZ
       3977  F88 000187D0 ?GetShopData@CNetworkLibrary@@QAEAAVCShopData@@H@Z
       3978  F89 00010F70 ?GetShopName@CShopData@@QBEPBDXZ
       3979  F8A 00013B80 ?GetShotHitEffect@CItemData@@QAEPBDXZ
       3980  F8B 000AFFC0 ?GetShow@CUITree@@QAEHXZ
       3981  F8C 00490AE0 ?GetShowAnotherRelicEffect@CCharacterTarget@@QAEHXZ
       3982  F8D 002792A0 ?GetShowAnotherRelicEffect@ObjInfo@@QAEHXZ
       3983  F8E 000ABAD0 ?GetShowRowCount@CUIArray@@QAEHXZ
       3984  F8F 00591B00 ?GetSize@CEntity@@QAEXAAV?$AABBox@M$02@@@Z
       3985  F90 00010510 ?GetSize@CMobData@@QBEMXZ
       3986  F91 001E4D40 ?GetSize@cWeb@@QAEXAAH0@Z
       3987  F92 00693840 ?GetSizeCount@CParticlesProcessDynamicState@@QAEIXZ
       3988  F93 00009A10 ?GetSizeOf@CEntityEvent@@UAEJXZ
       3989  F94 00A6E320 ?GetSizeOf@EBegin@@UAEJXZ
       3990  F95 00A6E840 ?GetSizeOf@EBlock@@UAEJXZ
       3991  F96 00A6EEB0 ?GetSizeOf@EDamage@@UAEJXZ
       3992  F97 00A6F070 ?GetSizeOf@EDeath@@UAEJXZ
       3993  F98 00A6ED90 ?GetSizeOf@EFirstWorldBase@@UAEJXZ
       3994  F99 00A6E080 ?GetSizeOf@EInternal@@UAEJXZ
       3995  F9A 00A6E6C0 ?GetSizeOf@EPass@@UAEJXZ
       3996  F9B 00A6F2C0 ?GetSizeOf@EPlayerInit@@UAEJXZ
       3997  F9C 00A6EC70 ?GetSizeOf@EPostLevelChange@@UAEJXZ
       3998  F9D 00A6EB50 ?GetSizeOf@EPreLevelChange@@UAEJXZ
       3999  F9E 00A6E240 ?GetSizeOf@EReturn@@UAEJXZ
       4000  F9F 00A6F1A0 ?GetSizeOf@ETakingBreath@@UAEJXZ
       4001  FA0 00A6EA70 ?GetSizeOf@ETeleport@@UAEJXZ
       4002  FA1 00A6E400 ?GetSizeOf@ETimer@@UAEJXZ
       4003  FA2 00A6E520 ?GetSizeOf@ETouch@@UAEJXZ
       4004  FA3 00A6E160 ?GetSizeOf@EVoid@@UAEJXZ
       4005  FA4 00A6E990 ?GetSizeOf@EWouldFall@@UAEJXZ
       4006  FA5 00693810 ?GetSizeTime@CParticlesProcessDynamicState@@QAEMI@Z
       4007  FA6 006937D0 ?GetSizeValue@CParticlesProcessDynamicState@@QAE?AVCParticleSize@@I@Z
       4008  FA7 00A1BBA0 ?GetSize_t@CTStream@@QAEJXZ
       4009  FA8 002329A0 ?GetSkaFileName@CSkaEffect@@QAEABVCTFileName@@XZ
       4010  FA9 000108A0 ?GetSkill0Index@CMobData@@QBEHXZ
       4011  FAA 000108C0 ?GetSkill0Level@CMobData@@QBEDXZ
       4012  FAB 000108E0 ?GetSkill1Index@CMobData@@QBEHXZ
       4013  FAC 00010900 ?GetSkill1Level@CMobData@@QBEDXZ
       4014  FAD 00018770 ?GetSkillData@CNetworkLibrary@@QAEAAVCSkill@@H@Z
       4015  FAE 00279DC0 ?GetSkillDelay@MyInfoSkill@@QAE_NH_N@Z
       4016  FAF 00279A80 ?GetSkillExp@MyInfoSkill@@QAE_JH@Z
       4017  FB0 00A6A060 ?GetSkillIndex@CSlaveInfo@@QBEJH@Z
       4018  FB1 00A6D350 ?GetSkillIndex@CTransformInfo@@QAEHH@Z
       4019  FB2 000142B0 ?GetSkillLevel@CItemData@@QBEHXZ
       4020  FB3 00279500 ?GetSkillLevel@MyInfoSkill@@QAEHH_N@Z
       4021  FB4 00010050 ?GetSkillMaster@CMobData@@QBEDXZ
       4022  FB5 00014290 ?GetSkillType@CItemData@@QBEHXZ
       4023  FB6 00A673E0 ?GetSkillWeponType@CJobInfo@@QBEHHH@Z
       4024  FB7 0000D510 ?GetSlaveTarget@CEntity@@QAEPAVCSlaveTarget@@XZ
       4025  FB8 0022AE60 ?GetSocial@CharacterCreateNew@@QAEHXZ
       4026  FB9 0022AE80 ?GetSocialShowIdx@CharacterCreateNew@@QAEHXZ
       4027  FBA 004D2210 ?GetSocketError@CCommunicationInterface@@QAE?AVCTString@@J@Z
       4028  FBB 00014570 ?GetSocketOptionIndex@CItemData@@QBEHXZ
       4029  FBC 00014590 ?GetSocketOptionLevel@CItemData@@QBEHXZ
       4030  FBD 006AC8E0 ?GetSoundFileName@CSoundEffect@@QAEABVCTFileName@@XZ
       4031  FBE 005A0390 ?GetSoundLength@CEntity@@QAENJ@Z
       4032  FBF 006AC9E0 ?GetSoundPlayFlag@CSoundEffect@@QAEKXZ
       4033  FC0 002FF2A0 ?GetSpaceCoordinates@CMappingDefinition@@QBEXABVCMappingVectors@@ABV?$Vector@J$01@@AAV?$Vector@M$02@@@Z
       4034  FC1 0000D350 ?GetSpawnFlags@CEntity@@QBEKXZ
       4035  FC2 0041F110 ?GetSpawnFlags@CWorld@@QAEKXZ
       4036  FC3 00010070 ?GetSpecialSkillMaster@CMobData@@QBEDXZ
       4037  FC4 009E5B50 ?GetSpeed@CAnimData@@QAEMJ@Z
       4038  FC5 006BE840 ?GetSpeed@CParticlesProcessPointGoal@@QAEMXZ
       4039  FC6 006BD8C0 ?GetSpeedLower@CParticlesEmitterCone@@QAEMXZ
       4040  FC7 006BDC20 ?GetSpeedLower@CParticlesEmitterCylinder@@QAEMXZ
       4041  FC8 0000F400 ?GetSpeedMul@CEffect@@QAEMXZ
       4042  FC9 0000FAA0 ?GetSpeedMul@CEffectGroup@@QAEMXZ
       4043  FCA 006BD8E0 ?GetSpeedUpper@CParticlesEmitterCone@@QAEMXZ
       4044  FCB 006BDC40 ?GetSpeedUpper@CParticlesEmitterCylinder@@QAEMXZ
       4045  FCC 006BE160 ?GetSphere@CParticlesAbsorptionSphere@@QAEABVCSphereDoubleSpace@@XZ
       4046  FCD 006B23C0 ?GetSplinePath@CSplinePathEffect@@QAEPAUsSplinePathInfo@1@J@Z
       4047  FCE 006B13B0 ?GetSplinePathCount@CSplinePathEffect@@QAEJXZ
       4048  FCF 006A2250 ?GetSplitCount@CShockWaveEffect@@QAEJXZ
       4049  FD0 000AAB10 ?GetSplitMode@CUITextBox@@QAEHXZ
       4050  FD1 000ACC50 ?GetSplitMode@CUITextBoxEx@@QAE?AW4eSPLIT_TYPE@@XZ
       4051  FD2 00A06110 ?GetSrc@CRelationLnk@@QAEAAVCRelationSrc@@XZ
       4052  FD3 00013ED0 ?GetStack@CItemData@@QBEHXZ
       4053  FD4 000122D0 ?GetStartData@CQuestDynamicData@@QAE?BJXZ
       4054  FD5 000ABA20 ?GetStartItem@CUIArray@@QAEXAAH0@Z
       4055  FD6 00012330 ?GetStartNPCZoneIndex@CQuestDynamicData@@QAE?BJXZ
       4056  FD7 0000FA40 ?GetStartTime@CEffectGroup@@QAEMXZ
       4057  FD8 000122B0 ?GetStartType@CQuestDynamicData@@QAE?BJXZ
       4058  FD9 000ACC90 ?GetStartX@CUITextBoxEx@@QAEHXZ
       4059  FDA 000AAC30 ?GetStartXY@CUITextBox@@QAEXAAH0@Z
       4060  FDB 000ACCD0 ?GetStartY@CUITextBoxEx@@QAEHXZ
       4061  FDC 000B3A30 ?GetStashData@GameDataManager@@QAEPAVPetStash@@XZ
       4062  FDD 00119D20 ?GetStashListAt@PetStash@@QAEPAUPetStashData@UpdateClient@@H@Z
       4063  FDE 0000F170 ?GetState@CEffect@@QAE?AW4EFFECT_STATE@@XZ
       4064  FDF 00013300 ?GetStaticData@CQuestSystem@@QAEPAVCQuestStaticData@@J@Z
       4065  FE0 00013700 ?GetStatus@CStatusEffect@@QAE_JXZ
       4066  FE1 000AF1C0 ?GetStatus@CUIProgressBar@@QBE?BW4_tagProgressStatus@@XZ
       4067  FE2 000130A0 ?GetStatusDesc@CQuestDynamicData@@QAEAAVCTString@@J@Z
       4068  FE3 00153CF0 ?GetStrColor@CUICharacterInfo@@IAEKH@Z
       4069  FE4 00A1FBC0 ?GetStreamCRC32_t@CTFileStream@@UAEKXZ
       4070  FE5 00A1AD30 ?GetStreamCRC32_t@CTStream@@UAEKXZ
       4071  FE6 00A1AC10 ?GetStreamSize@CTStream@@QAEJXZ
       4072  FE7 00563310 ?GetStretch@CMdlEffect@@QAEABV?$Vector@M$02@@XZ
       4073  FE8 002328F0 ?GetStretch@CSkaEffect@@QAEABV?$Vector@M$02@@XZ
       4074  FE9 002320F0 ?GetStretchCount@CEffectControl@@QAEIXZ
       4075  FEA 002320C0 ?GetStretchTime@CEffectControl@@QAEMI@Z
       4076  FEB 00232070 ?GetStretchValue@CEffectControl@@QAE?AV?$Vector@M$02@@I@Z
       4077  FEC 00A0EB00 ?GetString@CShell@@QAE?AVCTString@@ABV2@@Z
       4078  FED 00019010 ?GetString@CUIEditBox@@QBEPADXZ
       4079  FEE 000A7190 ?GetString@CUIListBox@@QAEAAVCTString@@HH@Z
       4080  FEF 0001E570 ?GetString@CUIManager@@QAEAAVCTString@@J@Z
       4081  FF0 00832CC0 ?GetString@CUIManager@@QAEAAVCTString@@JABV2@0@Z
       4082  FF1 008324E0 ?GetString@CUIManager@@QAEAAVCTString@@JABV2@@Z
       4083  FF2 00831D60 ?GetString@CUIManager@@QAEAAVCTString@@JJ@Z
       4084  FF3 00832870 ?GetString@CUIManager@@QAEAAVCTString@@JPBD0@Z
       4085  FF4 008320E0 ?GetString@CUIManager@@QAEAAVCTString@@JPBD@Z
       4086  FF5 000AAD00 ?GetString@CUITextBox@@QAEPBDXZ
       4087  FF6 0083AEF0 ?GetSubJobName@CUIManager@@QAE?AVCTString@@J@Z
       4088  FF7 00013F50 ?GetSubType@CItemData@@QBEHXZ
       4089  FF8 005BD570 ?GetSubTypeWeapon@CItemEffect@@QAEHH@Z
       4090  FF9 0026BD40 ?GetSummonEntity@CUISummon@@QAEPAVCEntity@@XZ
       4091  FFA 000AC910 ?GetSurface@CUIImageSplit@@QAEPAVCUIRectSurface@@XZ
       4092  FFB 004022F0 ?GetSurfaceColor@CModelObject@@QAEKJJ@Z
       4093  FFC 003ED1E0 ?GetSurfaceName@CEditModel@@QAEPBDJJ@Z
       4094  FFD 00402490 ?GetSurfaceRenderFlags@CModelObject@@QAEXJJAAW4SurfaceShadingType@@AAW4SurfaceTranslucencyType@@AAK@Z
       4095  FFE 00018BF0 ?GetSuspendCount@cThreadWrapper@@QAEKXZ
       4096  FFF 00A0E5E0 ?GetSymbol@CShell@@QAEPAVCShellSymbol@@ABVCTString@@H@Z
       4097 1000 000AD2C0 ?GetSyndiGrade@CCharacterTarget@@QAEHXZ
       4098 1001 000AD500 ?GetSyndiGrade@CMobTarget@@QAEHXZ
       4099 1002 000AD2A0 ?GetSyndiType@CCharacterTarget@@QAEHXZ
       4100 1003 000AD4E0 ?GetSyndiType@CMobTarget@@QAEHXZ
       4101 1004 000B3AD0 ?GetSyndicate@GameDataManager@@QAEPAVCSyndicate@@XZ
       4102 1005 00014770 ?GetSyndicateGrade@CItemData@@QAEHXZ
       4103 1006 00010A50 ?GetSyndicateGrade@CMobData@@QAEHXZ
       4104 1007 00012860 ?GetSyndicateGrade@CQuestDynamicData@@QAEJXZ
       4105 1008 00014750 ?GetSyndicateType@CItemData@@QAEHXZ
       4106 1009 00010A30 ?GetSyndicateType@CMobData@@QAEHXZ
       4107 100A 00012840 ?GetSyndicateType@CQuestDynamicData@@QAEJXZ
       4108 100B 0000F100 ?GetTag@CEffect@@QAE?AV?$CRefCountPtr@VCTag@@@@XZ
       4109 100C 0063F840 ?GetTag@CGroupTag@@QAE?AV?$CRefCountPtr@VCTag@@@@J@Z
       4110 100D 0000F890 ?GetTagCount@CEffectGroup@@QAEJXZ
       4111 100E 0067E680 ?GetTagKeyInfo@CEffectGroup@@QAEXJAAMAAJAAV?$basic_string@DU?$char_traits@D@std@@V?$allocator@D@2@@std@@@Z
       4112 100F 0000FA20 ?GetTagKeyVector@CEffectGroup@@QAEABV?$vector@UTagKey@CEffectGroup@@V?$allocator@UTagKey@CEffectGroup@@@std@@@std@@XZ
       4113 1010 0000F980 ?GetTagManager@CEffectGroup@@QAEPAVCTagManager@@XZ
       4114 1011 0063F8A0 ?GetTags@CGroupTag@@QAE?BV?$vector@V?$CRefCountPtr@VCTag@@@@V?$allocator@V?$CRefCountPtr@VCTag@@@@@std@@@std@@XZ
       4115 1012 005929D0 ?GetTarget@CEntity@@UBEPAV1@XZ
       4116 1013 000B6540 ?GetTargetCount@ObjInfo@@QAE_JXZ
       4117 1014 00278F70 ?GetTargetCurHP@ObjInfo@@QAEMW4eTARGET_TYPE@@@Z
       4118 1015 00278E00 ?GetTargetDBIdx@ObjInfo@@QAEHW4eTARGET_TYPE@@@Z
       4119 1016 00278DA0 ?GetTargetEntity@ObjInfo@@QAEPAVCEntity@@W4eTARGET_TYPE@@@Z
       4120 1017 000B6600 ?GetTargetGuildColor@ObjInfo@@QAEEXZ
       4121 1018 000B6570 ?GetTargetGuildIdx@ObjInfo@@QAEJXZ
       4122 1019 000B6590 ?GetTargetGuildName@ObjInfo@@QAE?AVCTString@@XZ
       4123 101A 000B65E0 ?GetTargetGuildRank@ObjInfo@@QAECXZ
       4124 101B 00278F10 ?GetTargetLevel@ObjInfo@@QAEHW4eTARGET_TYPE@@@Z
       4125 101C 00278FD0 ?GetTargetMaxHP@ObjInfo@@QAEMW4eTARGET_TYPE@@@Z
       4126 101D 00278EC0 ?GetTargetName@ObjInfo@@QAEPADW4eTARGET_TYPE@@@Z
       4127 101E 000B6620 ?GetTargetNickIdx@ObjInfo@@QAEJXZ
       4128 101F 002791F0 ?GetTargetPKMode@ObjInfo@@QAEHW4eTARGET_TYPE@@@Z
       4129 1020 00279190 ?GetTargetPKState@ObjInfo@@QAEHW4eTARGET_TYPE@@@Z
       4130 1021 002790B0 ?GetTargetServerIdx@ObjInfo@@QAEHW4eTARGET_TYPE@@@Z
       4131 1022 000B6500 ?GetTargetSyndiGrade@ObjInfo@@QAEHXZ
       4132 1023 000B64E0 ?GetTargetSyndiType@ObjInfo@@QAEHXZ
       4133 1024 00278E60 ?GetTargetType@ObjInfo@@QAECW4eTARGET_TYPE@@@Z
       4134 1025 0000A5D0 ?GetTempValue@CTagManager@@QAEJXZ
       4135 1026 0041CAD0 ?GetTerMul@CZoneInfo@@QAEMH@Z
       4136 1027 0000D470 ?GetTerrain@CEntity@@QAEPAVCTerrain@@XZ
       4137 1028 004BAD80 ?GetTerrain@CTerrainEffect@@SAPAVCTerrain@@XZ
       4138 1029 00013D90 ?GetTex2Cnt@CItemData@@QBEHXZ
       4139 102A 00013DB0 ?GetTex3Cnt@CItemData@@QBEHXZ
       4140 102B 00013D70 ?GetTexCnt@CItemData@@QBEHXZ
       4141 102C 00230260 ?GetTexCol@CParticle@@QAEEXZ
       4142 102D 00422B90 ?GetTexFileName@CParticleGroup@@QAE?BVCTFileName@@XZ
       4143 102E 006A2610 ?GetTexFileName@CShockWaveEffect@@QAEABVCTFileName@@XZ
       4144 102F 006AD550 ?GetTexFileName@CSplineBillboardEffect@@QAEABVCTFileName@@XZ
       4145 1030 004BABA0 ?GetTexFileName@CTerrainEffect@@QAEABVCTFileName@@XZ
       4146 1031 006B6AE0 ?GetTexFileName@CTraceEffect@@QAEABVCTFileName@@XZ
       4147 1032 00422B50 ?GetTexInfoColumn@CParticleGroup@@QAEJXZ
       4148 1033 00422B30 ?GetTexInfoMexHeight@CParticleGroup@@QAEJXZ
       4149 1034 00422B10 ?GetTexInfoMexWidth@CParticleGroup@@QAEJXZ
       4150 1035 00422B70 ?GetTexInfoRow@CParticleGroup@@QAEJXZ
       4151 1036 00A67560 ?GetTexNormalName@CJobInfo@@QAE?AVCTFileName@@HH@Z
       4152 1037 00693520 ?GetTexPosCount@CParticlesProcessDynamicState@@QAEIXZ
       4153 1038 006934F0 ?GetTexPosTime@CParticlesProcessDynamicState@@QAEMI@Z
       4154 1039 006934B0 ?GetTexPosValue@CParticlesProcessDynamicState@@QAE?AVCParticleTexPos@@I@Z
       4155 103A 00230240 ?GetTexRow@CParticle@@QAEEXZ
       4156 103B 003793D0 ?GetTexel@CTextureData@@QAEKJJ@Z
       4157 103C 000169E0 ?GetText@CUIButton@@QAE?AVCTString@@XZ
       4158 103D 000AF080 ?GetText@CUIProgressBar@@QBE?BVCTString@@XZ
       4159 103E 000ACD50 ?GetText@CUITextBoxEx@@QAEPBDXZ
       4160 103F 00016A60 ?GetTextColor@CUIButton@@QAEKW4UIBtnState@@@Z
       4161 1040 000A52A0 ?GetTextColor@CUICheckButton@@QAEXAAK0@Z
       4162 1041 0073C460 ?GetTextColor@CUIEditBox@@QAEHXZ
       4163 1042 000AEF80 ?GetTextColor@CUIProgressBar@@QBE?BKXZ
       4164 1043 000AAD30 ?GetTextColor@CUITextBox@@QAEKXZ
       4165 1044 000ACD80 ?GetTextExCount@CUITextBoxEx@@QAEHXZ
       4166 1045 000A5580 ?GetTextSX@CUICheckButton@@QAEHXZ
       4167 1046 0031D6D0 ?GetTextSectionWidth@CDrawPort@@QAEHPADHH@Z
       4168 1047 000AAC80 ?GetTextTotalHeight@CUITextBox@@QAEHXZ
       4169 1048 003101C0 ?GetTextWidth2@CDrawPort@@QAEKABVCTString@@@Z
       4170 1049 0030FF10 ?GetTextWidth@CDrawPort@@QAEKPBD@Z
       4171 104A 0030FB40 ?GetTextWidth@CDrawPort@@QBE?AVCTString@@ABV2@J@Z
       4172 104B 002FF170 ?GetTextureCoordinates@CMappingDefinition@@QBEXABVCMappingVectors@@ABV?$Vector@M$02@@AAV?$Vector@J$01@@@Z
       4173 104C 0059F700 ?GetTextureDataForComponent@CEntity@@QAEPAVCTextureData@@J@Z
       4174 104D 003FC780 ?GetTextureDimensions@CModelData@@QAEXAAJ0@Z
       4175 104E 000A8BD0 ?GetTextureID@CUIImageBox@@QAEHXZ
       4176 104F 00A67500 ?GetTextureName@CJobInfo@@QAE?AVCTFileName@@HH@Z
       4177 1050 0026CA40 ?GetTextureQuality@CUIOption@@QBEMH@Z
       4178 1051 006AD5D0 ?GetTimeInterval@CSplineBillboardEffect@@QAEMXZ
       4179 1052 006B6B60 ?GetTimeInterval@CTraceEffect@@QAEMXZ
       4180 1053 004ADEF0 ?GetTimeReq@CNetworkLibrary@@QAEXXZ
       4181 1054 002D0840 ?GetTip@CLoadingImage@@AAE?AVCTString@@XZ
       4182 1055 00013020 ?GetTitleDesc@CQuestDynamicData@@QAEAAVCTString@@J@Z
       4183 1056 00015B70 ?GetTooltipIndex@CUIBase@@QAEHXZ
       4184 1057 0015A3B0 ?GetTooltipString@CUICharacterInfo@@AAE?AVCTString@@HHH@Z
       4185 1058 00421ED0 ?GetTotalCount@CParticlesEmitter@@QAEKXZ
       4186 1059 006AD590 ?GetTraceTime@CSplineBillboardEffect@@QAEMXZ
       4187 105A 006B6B20 ?GetTraceTime@CTraceEffect@@QAEMXZ
       4188 105B 00014730 ?GetTransFlag@CItemData@@QAEAAHXZ
       4189 105C 00010B00 ?GetTranslateFlag@CMobData@@QAEAAHXZ
       4190 105D 00231C10 ?GetTwinklePeriod@CEffectControl@@QAEMXZ
       4191 105E 006931B0 ?GetTwinklePeriod@CParticlesProcessDynamicState@@QAEMXZ
       4192 105F 006AD610 ?GetTwinklePeriod@CSplineBillboardEffect@@QAEMXZ
       4193 1060 006B6BA0 ?GetTwinklePeriod@CTraceEffect@@QAEMXZ
       4194 1061 0000F190 ?GetType@CEffect@@QAE?AW4EFFECT_TYPE@@XZ
       4195 1062 00013F30 ?GetType@CItemData@@QBEHXZ
       4196 1063 00010560 ?GetType@CMobData@@QBEHXZ
       4197 1064 00001CF0 ?GetType@CNetworkMessage@@QBEEXZ
       4198 1065 00422400 ?GetType@CParticlesAbsorption@@QAE?AW4PARTICLES_ABSORPTION_TYPE@@XZ
       4199 1066 00231910 ?GetType@CParticlesCommonProcess@@QAE?AW4PARTICLES_COMMON_PROCESS_TYPE@@XZ
       4200 1067 004220D0 ?GetType@CParticlesEmitter@@QAE?AW4PARTICLES_EMITTER_TYPE@@XZ
       4201 1068 006BD870 ?GetType@CParticlesEmitterCone@@QAE?AW4PARTICLES_EMITTER_TYPE@@XZ
       4202 1069 006BDBD0 ?GetType@CParticlesEmitterCylinder@@QAE?AW4PARTICLES_EMITTER_TYPE@@XZ
       4203 106A 006BD580 ?GetType@CParticlesEmitterSphere@@QAE?AW4PARTICLES_EMITTER_TYPE@@XZ
       4204 106B 00A0F0D0 ?GetType@CShell@@QAE?AW4ShellTypeType@@ABVCTString@@@Z
       4205 106C 00013680 ?GetType@CStatusEffect@@QAE?AW4eType@1@XZ
       4206 106D 00009B90 ?GetType@CTag@@QAE?AW4TAG_TYPE@@XZ
       4207 106E 00A6D380 ?GetType@CTransformInfo@@QAEHH@Z
       4208 106F 0001E8A0 ?GetUI@CUIManager@@QBEPAVCUIWindow@@H@Z
       4209 1070 0001E870 ?GetUIIndexByOrder@CUIManager@@QAEHH@Z
       4210 1071 006FCED0 ?GetUV@CUIButton@@QAE?AUUIRectUV@@W4UIBtnState@@@Z
       4211 1072 00726E20 ?GetUV@CUICheckButton@@QAE?AUUIRectUV@@W4UICheckBtnState@@@Z
       4212 1073 000A90D0 ?GetUV@CUIImage@@QAE?AUUIRectUV@@XZ
       4213 1074 007D6FE0 ?GetUV@CUIImageBox@@QAE?AUUIRectUV@@XZ
       4214 1075 002BE3C0 ?GetUVbtnEXInfo@CUICashShopEX@@QAEPAUUIRectUV@@XZ
       4215 1076 000AC8D0 ?GetUnit@CUIImageSplit@@QAEHXZ
       4216 1077 000B3260 ?GetUpStatpoint@CUIAutoHelp@@QAEHXZ
       4217 1078 0027A0E0 ?GetUseItem@MyInfoSkill@@QAE_JH@Z
       4218 1079 0001DA40 ?GetUseItemStartTime@CUIIcon@@QAE_JXZ
       4219 107A 00119980 ?GetUsePetStash@PetStash@@QAE_NXZ
       4220 107B 006BD970 ?GetUsePos@CParticlesEmitterCone@@QAEHXZ
       4221 107C 006BDCF0 ?GetUsePos@CParticlesEmitterCylinder@@QAEHXZ
       4222 107D 006BD9B0 ?GetUseSpeed@CParticlesEmitterCone@@QAEHXZ
       4223 107E 006BDD30 ?GetUseSpeed@CParticlesEmitterCylinder@@QAEHXZ
       4224 107F 00A0B250 ?GetUsedCount@CSerial@@QAEJXZ
       4225 1080 00625430 ?GetUsedMemory@CAnimSet@@UAEJXZ
       4226 1081 00008110 ?GetUsedMemory@CBrushEdge@@QAEJXZ
       4227 1082 00008040 ?GetUsedMemory@CBrushPlane@@QAEJXZ
       4228 1083 00A416F0 ?GetUsedMemory@CBrushPolygon@@QAEJXZ
       4229 1084 000089C0 ?GetUsedMemory@CBrushPolygonTexture@@QAEJXZ
       4230 1085 00A46C90 ?GetUsedMemory@CBrushSector@@QAEJXZ
       4231 1086 00A4AA80 ?GetUsedMemory@CBrushShadowMap@@QAEJXZ
       4232 1087 00007F80 ?GetUsedMemory@CBrushVertex@@QAEJXZ
       4233 1088 005A20C0 ?GetUsedMemory@CEntity@@UAEJXZ
       4234 1089 005A8A00 ?GetUsedMemory@CEntityClass@@UAEJXZ
       4235 108A 0000DCB0 ?GetUsedMemory@CLiveEntity@@UAEJXZ
       4236 108B 006349B0 ?GetUsedMemory@CMesh@@UAEJXZ
       4237 108C 003FC590 ?GetUsedMemory@CModelData@@UAEJXZ
       4238 108D 00644810 ?GetUsedMemory@CModelInstance@@QAEJXZ
       4239 108E 00644EF0 ?GetUsedMemory@CModelInstanceSerial@@UAEJXZ
       4240 108F 00406580 ?GetUsedMemory@CModelObject@@QAEJXZ
       4241 1090 00A790D0 ?GetUsedMemory@CMovableEntity@@UAEJXZ
       4242 1091 00A7B480 ?GetUsedMemory@CMovableModelEntity@@UAEJXZ
       4243 1092 0000DE60 ?GetUsedMemory@CRationalEntity@@UAEJXZ
       4244 1093 00005840 ?GetUsedMemory@CSerial@@UAEJXZ
       4245 1094 0036DA80 ?GetUsedMemory@CShader@@UAEJXZ
       4246 1095 00371B60 ?GetUsedMemory@CShadowMap@@QAEHAAJ00AAM@Z
       4247 1096 0066CFD0 ?GetUsedMemory@CSkeleton@@UAEJXZ
       4248 1097 003D2110 ?GetUsedMemory@CSoundData@@UAEJXZ
       4249 1098 00379300 ?GetUsedMemory@CTextureData@@UAEJXZ
       4250 1099 0022A330 ?GetUserId@LoginNew@@QAE?AVCTString@@XZ
       4251 109A 004F4270 ?GetVIPClientsCount@CServer@@QAEJXZ
       4252 109B 004F40D0 ?GetVIPPlayersCount@CServer@@QAEJXZ
       4253 109C 0000EA90 ?GetValue@COptionData@@QBEHH@Z
       4254 109D 00A0ED00 ?GetValue@CShell@@QAE?AVCTString@@ABV2@@Z
       4255 109E 000A5BB0 ?GetVecString@CUIComboBox@@QAE?AV?$vector@VCTString@@V?$allocator@VCTString@@@std@@@std@@XZ
       4256 109F 005CF050 ?GetVectorIndexByGiveNPCIndex@CQuestSystem@@QAEJJ@Z
       4257 10A0 005CF100 ?GetVectorIndexByPrizeNPCIndex@CQuestSystem@@QAEJJ@Z
       4258 10A1 00230490 ?GetVelocity@CParticle@@QBEABV?$Vector@M$02@@XZ
       4259 10A2 006AD700 ?GetVelocity@CSplineBillboardEffect@@QAEMXZ
       4260 10A3 006BEE50 ?GetVelocityDir@CParticlesProcessVelocity@@QAEABV?$Vector@M$02@@XZ
       4261 10A4 006BEE90 ?GetVelocitySpd@CParticlesProcessVelocity@@QAEMXZ
       4262 10A5 0001E9C0 ?GetVersion@CUIManager@@QAEHXZ
       4263 10A6 000081E0 ?GetVertexCoordinatesAbsolute@CBrushPolygonEdge@@QAEXAAV?$Vector@M$02@@0@Z
       4264 10A7 00008400 ?GetVertexCoordinatesPreciseAbsolute@CBrushPolygonEdge@@QAEXAAV?$Vector@N$02@@0@Z
       4265 10A8 00008320 ?GetVertexCoordinatesPreciseRelative@CBrushPolygonEdge@@QAEXAAV?$Vector@N$02@@0@Z
       4266 10A9 00008280 ?GetVertexCoordinatesRelative@CBrushPolygonEdge@@QAEXAAV?$Vector@M$02@@0@Z
       4267 10AA 00008180 ?GetVertices@CBrushPolygonEdge@@QAEXAAPAVCBrushVertex@@0@Z
       4268 10AB 002EB6B0 ?GetVertices@CObjectPolygonEdge@@QAEXAAPAVCObjectVertex@@0@Z
       4269 10AC 00444400 ?GetVerticesFillType@CWorldRenderPrefs@@QAE?AW4FillType@1@XZ
       4270 10AD 00444440 ?GetVerticesInkColor@CWorldRenderPrefs@@QAEKXZ
       4271 10AE 00658610 ?GetViewMatrix@@YAXABVCPlacement3D@@AAY0M@M@Z
       4272 10AF 005933C0 ?GetVisTweaks@CEntity@@UAEKXZ
       4273 10B0 006AC980 ?GetVolume@CSoundEffect@@QAEMXZ
       4274 10B1 00010430 ?GetWalkSpeed@CMobData@@QBEMXZ
       4275 10B2 00A68C10 ?GetWalkSpeed@CPetInfo@@QBEMHH@Z
       4276 10B3 00A69FD0 ?GetWalkSpeed@CSlaveInfo@@QBEMH@Z
       4277 10B4 00A7F890 ?GetWalkspeed@CPlayerEntity@@UAEMXZ
       4278 10B5 0000F020 ?GetWantTagCount@CEffect@@UAEJXZ
       4279 10B6 0068EDE0 ?GetWantTagCount@COrbitEffect@@UAEJXZ
       4280 10B7 006947E0 ?GetWantTagCount@CParticleEffect@@UAEJXZ
       4281 10B8 002319E0 ?GetWantTagCount@CParticlesCommonProcess@@UAEJXZ
       4282 10B9 006CE7F0 ?GetWantTagCount@CParticlesProcessPointGoal@@UAEJXZ
       4283 10BA 0000F9C0 ?GetWantTagManager@CEffectGroup@@QAEPAVCTagManager@@XZ
       4284 10BB 0000F040 ?GetWantTagName@CEffect@@UAEPBDJ@Z
       4285 10BC 0068EE00 ?GetWantTagName@COrbitEffect@@UAEPBDJ@Z
       4286 10BD 00694880 ?GetWantTagName@CParticleEffect@@UAEPBDJ@Z
       4287 10BE 00231A00 ?GetWantTagName@CParticlesCommonProcess@@UAEPBDJ@Z
       4288 10BF 006CE830 ?GetWantTagName@CParticlesProcessPointGoal@@UAEPBDJ@Z
       4289 10C0 000143B0 ?GetWarpType@CItemData@@QBEHXZ
       4290 10C1 0049E890 ?GetWearingEffect@CNetworkLibrary@@QAE?AVCTString@@W4eEquipment@@J@Z
       4291 10C2 00013F10 ?GetWearingPosition@CItemData@@QBEHXZ
       4292 10C3 001E4CB0 ?GetWebDlgCallBack@cWeb@@QAEP6GHPAUHWND__@@IIJ@ZXZ
       4293 10C4 001E4C50 ?GetWebDlgID@cWeb@@QAEJXZ
       4294 10C5 001E4C70 ?GetWebHandle@cWeb@@QAEPAUHWND__@@XZ
       4295 10C6 0001E9E0 ?GetWeekToString@CUIManager@@QAE?AVCTString@@H@Z
       4296 10C7 0001EB60 ?GetWeekToStringIndex@CUIManager@@QAEHH@Z
       4297 10C8 0001DA00 ?GetWhichUI@CUIIcon@@QAEHXZ
       4298 10C9 000151D0 ?GetWidth@CDrawPort@@QBEJXZ
       4299 10CA 003E2E90 ?GetWidth@CEditModel@@QAEJXZ
       4300 10CB 00277DE0 ?GetWidth@CFontData@@QBEJXZ
       4301 10CC 004017E0 ?GetWidth@CModelObject@@QAEJXZ
       4302 10CD 002301B0 ?GetWidth@CParticle@@QBEMXZ
       4303 10CE 006AD6C0 ?GetWidth@CSplineBillboardEffect@@QAEMXZ
       4304 10CF 00007070 ?GetWidth@CTextureData@@QBEJXZ
       4305 10D0 00378420 ?GetWidth@CTextureObject@@QBEJXZ
       4306 10D1 00015840 ?GetWidth@CUIBase@@QBEHXZ
       4307 10D2 006A2450 ?GetWidthCount@CShockWaveEffect@@QAEIXZ
       4308 10D3 006A2420 ?GetWidthTime@CShockWaveEffect@@QAEMI@Z
       4309 10D4 006A23E0 ?GetWidthValue@CShockWaveEffect@@QAEMI@Z
       4310 10D5 0000D530 ?GetWildPetTargetInfo@CEntity@@QAEPAVCWildPetTarget@@XZ
       4311 10D6 009F5880 ?GetWindowsError@@YA?BVCTString@@K@Z
       4312 10D7 0000D3F0 ?GetWorld@CEntity@@QAEPAVCWorld@@XZ
       4313 10D8 00658570 ?GetWorldMatrix@@YAXABVCPlacement3D@@AAY0M@M@Z
       4314 10D9 005A01B0 ?GetWorldPolygonIndex@CEntity@@QAEJPAVCBrushPolygon@@@Z
       4315 10DA 005A0150 ?GetWorldPolygonPointer@CEntity@@QAEPAVCBrushPolygon@@J@Z
       4316 10DB 00011670 ?GetZoneCount@CZoneInfo@@QBEHXZ
       4317 10DC 00210980 ?GetZoneListCount@CUIPortal@@QAEHXZ
       4318 10DD 00010580 ?GetZoneMovingFlag@CMobData@@QBE_KXZ
       4319 10DE 0041C850 ?GetZoneName@CZoneInfo@@QAE?AVCTString@@H@Z
       4320 10DF 00013F70 ?GetZoneNum@CItemData@@QBEHXZ
       4321 10E0 0041C6F0 ?GetZoneType@CZoneInfo@@QBE?AW4eZone@@H@Z
       4322 10E1 0041C8D0 ?GetZoneWldFile@CZoneInfo@@QAE?AVCTString@@H@Z
       4323 10E2 004B9C60 ?Get_MyChar_Attack@CNetworkLibrary@@QAE_NHJ@Z
       4324 10E3 004BA120 ?Get_MyChar_Job@CNetworkLibrary@@QAEEXZ
       4325 10E4 004B9C40 ?Get_MyChar_MorphStatus@CNetworkLibrary@@QAEHXZ
       4326 10E5 004BA0E0 ?Get_MyChar_faceStyle@CNetworkLibrary@@QAECXZ
       4327 10E6 004BA100 ?Get_MyChar_hairStyle@CNetworkLibrary@@QAECXZ
       4328 10E7 0000FB20 ?GetgERSubType@CEffectGroup@@QAE?AW4EFF_RENDER_SUB_TYPE@@XZ
       4329 10E8 0000FAE0 ?GetgERType@CEffectGroup@@QAE?AW4EFF_RENDER_TYPE@@XZ
       4330 10E9 000B0A30 ?GetmaxHp@Party@@QBEHH@Z
       4331 10EA 000B0A90 ?GetmaxMp@Party@@QBEHH@Z
       4332 10EB 006B1410 ?GetvectorEffect@CSplinePathEffect@@QAEAAV?$vector@PAVCEffect@@V?$allocator@PAVCEffect@@@std@@@std@@XZ
       4333 10EC 00A71530 ?GiveImpulseTranslationAbsolute@CMovableEntity@@QAEXABV?$Vector@M$02@@@Z
       4334 10ED 00A71430 ?GiveImpulseTranslationRelative@CMovableEntity@@QAEXABV?$Vector@M$02@@@Z
       4335 10EE 0026EDF0 ?GoStage@StageMgr@@QAEXXZ
       4336 10EF 004A7B60 ?GoZone@CNetworkLibrary@@QAEXHHH@Z
       4337 10F0 0030ED90 ?GrabScreen@CDrawPort@@QBEXAAVCImageInfo@@J@Z
       4338 10F1 00A020E0 ?GrowMemory@@YAXPAPAXJ@Z
       4339 10F2 004A2830 ?GuildAddViceBoss@CNetworkLibrary@@QAEXJ@Z
       4340 10F3 004A2B00 ?GuildApplicantAccept@CNetworkLibrary@@QAEXJ@Z
       4341 10F4 004A2BF0 ?GuildApplicantReject@CNetworkLibrary@@QAEXC@Z
       4342 10F5 004A2730 ?GuildChangeBoss@CNetworkLibrary@@QAEXJ@Z
       4343 10F6 004A24E0 ?GuildCreate@CNetworkLibrary@@QAEXABVCTString@@@Z
       4344 10F7 004A2920 ?GuildDelViceBoss@CNetworkLibrary@@QAEXJ@Z
       4345 10F8 004A2670 ?GuildDestroy@CNetworkLibrary@@QAEXXZ
       4346 10F9 004A2310 ?GuildJoin@CNetworkLibrary@@QAEXJJJ@Z
       4347 10FA 004A2A10 ?GuildMemberFire@CNetworkLibrary@@QAEXJ@Z
       4348 10FB 004A2400 ?GuildQuit@CNetworkLibrary@@QAEXXZ
       4349 10FC 004A25B0 ?GuildUpgrade@CNetworkLibrary@@QAEXXZ
       4350 10FD 00A7B7A0 ?H0x00020002_WaitUntilScheduledAnimStarts_01@CMovableModelEntity@@QAEHABVCEntityEvent@@@Z
       4351 10FE 00A7B870 ?H0x00020003_WaitUntilScheduledAnimStarts_02@CMovableModelEntity@@QAEHABVCEntityEvent@@@Z
       4352 10FF 00A7B960 ?H0x00020004_WaitUntilScheduledAnimStarts_03@CMovableModelEntity@@QAEHABVCEntityEvent@@@Z
       4353 1100 00305820 ?HSVToColor@@YAKEEE@Z
       4354 1101 00A80790 ?HUD_ChangeFaceMesh@CPlayerEntity@@UAEXJJ@Z
       4355 1102 00A80770 ?HUD_ChangeHairMesh@CPlayerEntity@@UAEXJJ@Z
       4356 1103 0083C650 ?HUD_DrawItemModel@CUIManager@@QAEXXZ
       4357 1104 00A806D0 ?HUD_DrawModel@CPlayerEntity@@UAEXPAVCDrawPort@@MMMMJMM@Z
       4358 1105 00A807B0 ?HUD_PlayAnimation@CPlayerEntity@@UAEXJJ@Z
       4359 1106 00A807D0 ?HUD_PlayAnimation@CPlayerEntity@@UAEXVCTString@@@Z
       4360 1107 00A80710 ?HUD_SetCharModelData@CPlayerEntity@@UAEXJJJ@Z
       4361 1108 0083C5E0 ?HUD_SetItemModelData@CUIManager@@QAEXJ@Z
       4362 1109 00A80800 ?HUD_SetModelColor@CPlayerEntity@@UAEXK@Z
       4363 110A 00A80730 ?HUD_SetModelData@CPlayerEntity@@UAEXJJ@Z
       4364 110B 00A80750 ?HUD_WearingModel@CPlayerEntity@@UAEXJJJH@Z
       4365 110C 004F6030 ?Handle@CServer@@QAEXJAAVCNetworkMessage@@@Z
       4366 110D 00A1FD40 ?HandleAccess@CTFileStream@@UAEXJH@Z
       4367 110E 00A20620 ?HandleAccess@CTMemoryStream@@UAEXJH@Z
       4368 110F 004F5C80 ?HandleAll@CServer@@QAEXXZ
       4369 1110 004F5CF0 ?HandleAllForAClient@CServer@@QAEXJ@Z
       4370 1111 004F5FE0 ?HandleClientDisconected@CServer@@QAEXJ@Z
       4371 1112 00598D50 ?HandleEvent@CEntity@@UAEHABVCEntityEvent@@@Z
       4372 1113 005A2EC0 ?HandleEvent@CRationalEntity@@UAEHABVCEntityEvent@@@Z
       4373 1114 004FAD80 ?HandleMovers@CSessionState@@QAEXXZ
       4374 1115 004FB5E0 ?HandleMovers_client@CSessionState@@QAEXXZ
       4375 1116 00599760 ?HandleSentEvents@CEntity@@SAXXZ
       4376 1117 00A25090 ?HandleTimerHandlers@CTimer@@QAEXXZ
       4377 1118 004FBCB0 ?HandleTimers@CSessionState@@QAEXM@Z
       4378 1119 005A95F0 ?HandlerForStateAndEvent@CDLLEntityClass@@QAEP8CEntity@@AEHABVCEntityEvent@@@ZJJ@Z
       4379 111A 00598D10 ?HandlerForStateAndEvent@CEntity@@UAEP81@AEHABVCEntityEvent@@@ZJJ@Z
       4380 111B 005A8C60 ?HandlerForStateAndEvent@CEntityClass@@QAEP8CEntity@@AEHABVCEntityEvent@@@ZJJ@Z
       4381 111C 005A9680 ?HandlerNameForState@CDLLEntityClass@@QAEPBDJ@Z
       4382 111D 00006170 ?HasAPI@CGfxLibrary@@QAEHW4GfxAPIType@@@Z
       4383 111E 006D3A30 ?HasActiveTag@CTagManager@@QAEHXZ
       4384 111F 00643BB0 ?HasAlpha@CModelInstance@@QAEHXZ
       4385 1120 00404AA0 ?HasAlpha@CModelObject@@QAEHXZ
       4386 1121 0035A550 ?HasCompression@CGfxLibrary@@QAEHXZ
       4387 1122 00A4A0E0 ?HasDynamicLayers@CBrushShadowMap@@UAEHXZ
       4388 1123 00371150 ?HasDynamicLayers@CShadowMap@@UAEHXZ
       4389 1124 009FABA0 ?HasJoystickPOV@CInputDevice@@QAEHXZ
       4390 1125 000061D0 ?HasOcclusionCulling@CGfxLibrary@@QAEHXZ
       4391 1126 009ED520 ?HasPrefix@CTString@@QBEHABV1@@Z
       4392 1127 00270170 ?HasReuseTimeItem@ItemHelp@@SA_NAAVCItems@@@Z
       4393 1128 00643D30 ?HasShadow@CModelInstance@@QAEHM@Z
       4394 1129 00404DE0 ?HasShadow@CModelObject@@QAEHJ@Z
       4395 112A 0059B2E0 ?HasSkaModel@CEntity@@QAE_NABVCTString@@@Z
       4396 112B 0026FF80 ?HaveItem@ItemHelp@@SA_NHPAF0_J@Z
       4397 112C 000019F0 ?Head@CListHead@@QBEAAVCListNode@@XZ
       4398 112D 003FBDC0 ?HiddenLines@CModelRenderPrefs@@QAEHXZ
       4399 112E 002818A0 ?Hide@CUIArrayItem@@UAEXH@Z
       4400 112F 00015AB0 ?Hide@CUIBase@@UAEXH@Z
       4401 1130 0001D910 ?Hide@CUIIcon@@UAEXH@Z
       4402 1131 0083C0A0 ?HideNoTranslationString@CUIManager@@QAEXXZ
       4403 1132 00404D70 ?HidePatch@CModelObject@@QAEXJ@Z
       4404 1133 0041F710 ?HideSelectedEntities@CWorld@@QAEXAAV?$CSelection@VCEntity@@$00@@@Z
       4405 1134 0041FA40 ?HideSelectedSectors@CWorld@@QAEXAAV?$CSelection@VCBrushSector@@$00@@@Z
       4406 1135 00299200 ?HideTooltip@CUIIcon@@QAEXXZ
       4407 1136 0041F830 ?HideUnselectedEntities@CWorld@@QAEXXZ
       4408 1137 0041FB20 ?HideUnselectedSectors@CWorld@@QAEXXZ
       4409 1138 0022EED0 ?HideWeapon@CUICharacterCreateNew@@AAEXHH@Z
       4410 1139 00280880 ?HitTest@CUIArray@@QAEHHH@Z
       4411 113A 002A1BE0 ?HitTest@CUIList@@QAEHGG@Z
       4412 113B 009F8930 ?IFeel_ChangeGain@@YAXM@Z
       4413 113C 009F8660 ?IFeel_DeleteDevice@@YAXXZ
       4414 113D 009F7D50 ?IFeel_GetProductName@@YA?AVCTString@@XZ
       4415 113E 009F7E40 ?IFeel_GetProjectFileName@@YA?AVCTString@@XZ
       4416 113F 009F8240 ?IFeel_InitDevice@@YAHAAPAUHINSTANCE__@@AAPAUHWND__@@@Z
       4417 1140 009F8700 ?IFeel_LoadFile@@YAHVCTFileName@@@Z
       4418 1141 009F88C0 ?IFeel_PlayEffect@@YAXPAD@Z
       4419 1142 009F8900 ?IFeel_StopEffect@@YAXPAD@Z
       4420 1143 0123B068 ?ILUA_dofile@@3P6AHPBD@ZA
       4421 1144 0123B06C ?ILUA_gettop@@3P6AHXZA
       4422 1145 0123B070 ?ILUA_isnumber@@3P6AHH@ZA
       4423 1146 0123B074 ?ILUA_isstring@@3P6AHH@ZA
       4424 1147 0123B05C ?ILUA_pushnumber@@3P6AXN@ZA
       4425 1148 0123B060 ?ILUA_pushstring@@3P6AXPBD@ZA
       4426 1149 0123B064 ?ILUA_register@@3P6AXPBDP6AHPAUlua_State@@@Z@ZA
       4427 114A 0123B078 ?ILUA_tonumber@@3P6ANH@ZA
       4428 114B 0123B07C ?ILUA_tostring@@3P6APBDH@ZA
       4429 114C 00285700 ?IMEMessage@CUIBase@@UAE?AW4WMSG_RESULT@@PAUtagMSG@@@Z
       4430 114D 0070E720 ?IMEMessage@CUICashShopEX@@UAE?AW4WMSG_RESULT@@PAUtagMSG@@@Z
       4431 114E 0073ADC0 ?IMEMessage@CUIEditBox@@UAE?AW4WMSG_RESULT@@PAUtagMSG@@@Z
       4432 114F 007940C0 ?IMEMessage@CUIGuildBattle@@UAE?AW4WMSG_RESULT@@PAUtagMSG@@@Z
       4433 1150 0073BEA0 ?IMEMessageBRZ@CUIEditBox@@QAE?AW4WMSG_RESULT@@PAUtagMSG@@@Z
       4434 1151 0073B7E0 ?IMEMessageCHS@CUIEditBox@@QAE?AW4WMSG_RESULT@@PAUtagMSG@@@Z
       4435 1152 0073B490 ?IMEMessageCHT@CUIEditBox@@QAE?AW4WMSG_RESULT@@PAUtagMSG@@@Z
       4436 1153 00285370 ?IMEMessageChild@CUIBase@@UAE?AW4WMSG_RESULT@@PAUtagMSG@@@Z
       4437 1154 0073BB20 ?IMEMessageJPN@CUIEditBox@@QAE?AW4WMSG_RESULT@@PAUtagMSG@@@Z
       4438 1155 0073AF90 ?IMEMessageKOR@CUIEditBox@@QAE?AW4WMSG_RESULT@@PAUtagMSG@@@Z
       4439 1156 002852E0 ?IMEMessageProc@CUIBase@@UAE?AW4WMSG_RESULT@@PAUtagMSG@@@Z
       4440 1157 002CA700 ?IMEMessageProc@CUITree@@UAE?AW4WMSG_RESULT@@PAUtagMSG@@@Z
       4441 1158 0073BE60 ?IMEMessageTHAI@CUIEditBox@@QAE?AW4WMSG_RESULT@@PAUtagMSG@@@Z
       4442 1159 0073BE80 ?IMEMessageUSA@CUIEditBox@@QAE?AW4WMSG_RESULT@@PAUtagMSG@@@Z
       4443 115A 00173B20 ?IMEProc@MsgBoxMgr@@QAE?AW4WMSG_RESULT@@PAUtagMSG@@@Z
       4444 115B 005A2020 ?IRnd@CEntity@@QAEKXZ
       4445 115C 000AEAF0 ?IdleProgress@CUIProgressBar@@QAEXXZ
       4446 115D 00A1A100 ?IgnoreApplicationPath@@YAXXZ
       4447 115E 004EB9C0 ?IgnoreContents@CNetworkMessage@@QAEXXZ
       4448 115F 00018C50 ?IncRef@CUIEditBox@@IAEXXZ
       4449 1160 003FBCC0 ?IncreaseShadowQuality@CModelRenderPrefs@@QAEXXZ
       4450 1161 003FEAC0 ?IndicesToPtrs@CModelData@@QAEXXZ
       4451 1162 005A0E30 ?InflictBoxDamage@CEntity@@UAEXPAV1@W4DamageType@@MABV?$AABBox@M$02@@@Z
       4452 1163 005A0540 ?InflictDirectDamage@CEntity@@UAEXPAV1@0W4DamageType@@MABV?$Vector@M$02@@2@Z
       4453 1164 005A0B00 ?InflictRangeDamage@CEntity@@UAEXPAV1@W4DamageType@@MABV?$Vector@M$02@@MM@Z
       4454 1165 009F54C0 ?InfoMessage@@YAXPBDZZ
       4455 1166 0022AC20 ?InfoReset@CharacterCreateNew@@QAEXXZ
       4456 1167 0045C260 ?Init@CCastRay@@QAEXPAVCEntity@@ABV?$Vector@M$02@@1@Z
       4457 1168 004D1100 ?Init@CCommunicationInterface@@QAEXXZ
       4458 1169 00353510 ?Init@CGfxLibrary@@QAEXXZ
       4459 116A 004E8880 ?Init@CMessageDispatcher@@QAEXABVCTString@@@Z
       4460 116B 004EA490 ?Init@CMobTarget@@QAEXXZ
       4461 116C 00496B00 ?Init@CNetworkLibrary@@QAEXABVCTString@@@Z
       4462 116D 004EFB30 ?Init@CPetTargetInfom@@QAEXXZ
       4463 116E 003802D0 ?Init@CRenderTexture@@QAEHJJKW4_D3DFORMAT@@@Z
       4464 116F 005432D0 ?Init@CSlaveTargetInfom@@QAEXXZ
       4465 1170 003D7D00 ?Init@CSoundLibrary@@QAEXXZ
       4466 1171 005E2F80 ?Init@CTargetInfom@@QAEXXZ
       4467 1172 005E30A0 ?Init@CTargetInfomReal@@QAEXXZ
       4468 1173 000F7AB0 ?Init@Party@@QAEXXZ
       4469 1174 003001B0 ?InitAPIs@CGfxLibrary@@AAEXXZ
       4470 1175 0059A260 ?InitAsBrush@CEntity@@QAEXXZ
       4471 1176 00599F00 ?InitAsEditorModel@CEntity@@QAEXXZ
       4472 1177 0059A390 ?InitAsFieldBrush@CEntity@@QAEXXZ
       4473 1178 005998C0 ?InitAsModel@CEntity@@QAEXXZ
       4474 1179 0059A110 ?InitAsSkaEditorModel@CEntity@@QAEXXZ
       4475 117A 00599AD0 ?InitAsSkaModel@CEntity@@QAEXXZ
       4476 117B 00599C20 ?InitAsTerrain@CEntity@@QAEXXZ
       4477 117C 00599890 ?InitAsVoid@CEntity@@QAEXXZ
       4478 117D 0049E250 ?InitCRCGather@CNetworkLibrary@@QAEXXZ
       4479 117E 00708A40 ?InitCatalogNameNodes@CUICashShopEX@@IAEXXZ
       4480 117F 0030AF50 ?InitCloned@CDrawPort@@QAEXPAV1@NNNN@Z
       4481 1180 00441950 ?InitCollisionGrid@CWorld@@QAEXXZ
       4482 1181 0032AC60 ?InitContext_D3D@CGfxLibrary@@AAEXXZ
       4483 1182 003332A0 ?InitContext_OGL@CGfxLibrary@@AAEXXZ
       4484 1183 007D6AD0 ?InitCorpsImageBox@CUIImageBox@@QAEXXZ
       4485 1184 0001ED10 ?InitCurInfoLines@CUIManager@@QAEXXZ
       4486 1185 009FAF30 ?InitDevice@CInputDevice@@QAEHW4DeviceType@@@Z
       4487 1186 0032C030 ?InitDisplay_D3D@CGfxLibrary@@AAEHJJJW4DisplayDepth@@@Z
       4488 1187 0032A640 ?InitDriver_D3D@CGfxLibrary@@AAEHXZ
       4489 1188 003345B0 ?InitDriver_OGL@CGfxLibrary@@AAEHH@Z
       4490 1189 00A13A50 ?InitExceptionHandler@@YAXPBD@Z
       4491 118A 000F7D60 ?InitExpedition@Party@@QAEXXZ
       4492 118B 0083CDC0 ?InitHardCoreCreate@CUIManager@@QAEXXZ
       4493 118C 004B6410 ?InitInZoneReq@CNetworkLibrary@@QAEXXZ
       4494 118D 008B71E0 ?InitInterface@CUIOption@@QAEXXZ
       4495 118E 001132C0 ?InitItemData@CInvenData@@QAEXPAVCItems@@@Z
       4496 118F 002D0050 ?InitLoadingData@CLoadingImage@@QAEXXZ
       4497 1190 002D2130 ?InitLoginCharacterInfo@CLoginJobInfo@@QAEXXZ
       4498 1191 002D2230 ?InitLoginModelInit@CLoginJobInfo@@QAEXXZ
       4499 1192 008B4EC0 ?InitOption@CUIOption@@QAEXXZ
       4500 1193 0019DD10 ?InitPSAniTIme@CUIPetStashSelectEffect@@AAEXXZ
       4501 1194 000F7BA0 ?InitParty@Party@@QAEXXZ
       4502 1195 007D6E20 ?InitPopupImageBox@CUIImageBox@@QAEXXZ
       4503 1196 00282A80 ?InitPos@CUIBase@@QAEXHHHH@Z
       4504 1197 007087C0 ?InitRenderTarget@CUICashShopEX@@QAEXXZ
       4505 1198 0083C4A0 ?InitRenderTarget@CUIManager@@QAEXHH@Z
       4506 1199 004E8200 ?InitSEEDEncrypt@CMessageDispatcher@@SAXXZ
       4507 119A 00A5EFF0 ?InitSelectModel@CGameState@@QAEXH@Z
       4508 119B 004F71F0 ?InitServerNetProcess@CServer@@QAEXXZ
       4509 119C 00A6A090 ?InitSkillIndex@CSlaveInfo@@QAEXXZ
       4510 119D 0031C780 ?InitTexture@CDrawPort@@QBEXPAVCTextureObject@@HKH@Z
       4511 119E 0031C860 ?InitTextureData@CDrawPort@@QBEXPAVCTextureData@@HKH@Z
       4512 119F 00A25B30 ?InitTranslation@@YAXXZ
       4513 11A0 00822A60 ?InitUIString@CUIManager@@QAEXXZ
       4514 11A1 004D1390 ?InitWinsock@CCommunicationInterface@@QAEXXZ
       4515 11A2 00593520 ?Initialize@CEntity@@QAEXABVCEntityEvent@@H@Z
       4516 11A3 009F9510 ?Initialize@CInput@@QAEXXZ
       4517 11A4 004EB690 ?Initialize@CNetworkMessage@@QAEXABV1@@Z
       4518 11A5 004EB790 ?Initialize@CNetworkMessage@@QAEXE@Z
       4519 11A6 004EB5D0 ?Initialize@CNetworkMessage@@QAEXXZ
       4520 11A7 003709A0 ?Initialize@CShadowMap@@QAEXJJJJJ@Z
       4521 11A8 00A0D7D0 ?Initialize@CShell@@QAEXXZ
       4522 11A9 001728D0 ?Initialize@MsgBoxMgr@@QAEXXZ
       4523 11AA 00593820 ?InitializeFromNet@CEntity@@UAEXXZ
       4524 11AB 00A7F480 ?InitializePlayer@CPlayerEntity@@QAEXKK@Z
       4525 11AC 006D5910 ?InitializeShaders@@YAXXZ
       4526 11AD 006A4A00 ?InitializeShaders@CShockWaveEffect@@SAXXZ
       4527 11AE 006AFB20 ?InitializeShaders@CSplineBillboardEffect@@SAXXZ
       4528 11AF 006B89B0 ?InitializeShaders@CTraceEffect@@SAXXZ
       4529 11B0 00A48230 ?InitializeShadowMap@CBrushPolygon@@QAEXXZ
       4530 11B1 006D5930 ?Initialize_EffectSystem@@YAHPBVCTFileName@@@Z
       4531 11B2 00593850 ?Initialize_internal@CEntity@@QAEXABVCEntityEvent@@@Z
       4532 11B3 009EF110 ?InsertChar@CTString@@QAEXJD@Z
       4533 11B4 007397A0 ?InsertChar@CUIEditBox@@QAEXHD@Z
       4534 11B5 00739940 ?InsertChars@CUIEditBox@@QAEXHPAD@Z
       4535 11B6 00824020 ?InsertCommaToString@CUIManager@@QAEXAAVCTString@@@Z
       4536 11B7 00739B00 ?InsertIMEChar@CUIEditBox@@IAEXPADH@Z
       4537 11B8 00809E30 ?InsertString@CUIListBox@@QAEXHHAAVCTString@@KHH@Z
       4538 11B9 004EBD30 ?InsertSubMessage@CNetworkMessage@@QAEXABV1@@Z
       4539 11BA 009EF3D0 ?InsertSubString@CTString@@QAEXJABV1@@Z
       4540 11BB 00A44860 ?InsertVertexIntoTriangle@CBrushSector@@QAEXAAV?$CSelection@VCBrushPolygon@@$0BAA@@@V?$Vector@M$02@@@Z
       4541 11BC 00011E60 ?Instance@CEffectGroupManager@@SAAAV1@XZ
       4542 11BD 00423660 ?Instance@CEffectManager@@SAAAV1@XZ
       4543 11BE 00423550 ?Instance@CParticleGroupManager@@SAAAV1@XZ
       4544 11BF 00014D40 ?Instance@CPetInfo@@SAAAV1@XZ
       4545 11C0 00013280 ?Instance@CQuestSystem@@SAAAV1@XZ
       4546 11C1 0022FD50 ?Instance@CRandomTable@@SAAAV1@XZ
       4547 11C2 003AF240 ?Instance@CSlaveInfo@@SAAAV1@XZ
       4548 11C3 0015B360 ?Instance@CTransformInfo@@SAAAV1@XZ
       4549 11C4 00370510 ?Invalidate@CShadowMap@@QAEXH@Z
       4550 11C5 00A2D110 ?Invalidate@CUpdateable@@QAEXXZ
       4551 11C6 00A2D1A0 ?Invalidate@CUpdateableRT@@QAEXXZ
       4552 11C7 0071C930 ?InvenFrameInit@CUICashShopEX@@IAEXMM@Z
       4553 11C8 002D59C0 ?Inverse@CObject3D@@QAEXXZ
       4554 11C9 007393D0 ?Is2ByteChar@CUIEditBox@@IAEHHH@Z
       4555 11CA 004D6CB0 ?Is2rdLocal@CCommunicationInterface@@QAEHXZ
       4556 11CB 00A6FCF0 ?IsActionApplied@CMovableEntity@@UAEHXZ
       4557 11CC 00A7FD00 ?IsActionSitting@CPlayerEntity@@UAEHXZ
       4558 11CD 00493B70 ?IsActive@CPlayerSource@@QAEHXZ
       4559 11CE 00223E80 ?IsActive@CSoundLibrary@@QAEHXZ
       4560 11CF 00010250 ?IsAffinityNPC@CMobData@@QAEHXZ
       4561 11D0 00A7FFC0 ?IsAlreadyDie@CPlayerEntity@@UAEHXZ
       4562 11D1 009E7470 ?IsAnimFinished@CAnimObject@@QBEHXZ
       4563 11D2 0059CDF0 ?IsAnimationPlaying@CEntity@@QAEHJJ@Z
       4564 11D3 00643850 ?IsAnimationPlaying@CModelInstance@@QAEHJ@Z
       4565 11D4 004B9E50 ?IsAttackMe@CNetworkLibrary@@QAE_NH@Z
       4566 11D5 00A80270 ?IsAttacking@CPlayerEntity@@UAEHXZ
       4567 11D6 000101F0 ?IsAuctionChar@CMobData@@QBEHXZ
       4568 11D7 005A8A20 ?IsAutoFreed@CEntityClass@@UAEHXZ
       4569 11D8 003FC710 ?IsAutoFreed@CModelData@@UAEHXZ
       4570 11D9 00105230 ?IsAutoFreed@CModelInstanceSerial@@UAEHXZ
       4571 11DA 00005820 ?IsAutoFreed@CSerial@@UAEHXZ
       4572 11DB 003D20F0 ?IsAutoFreed@CSoundData@@UAEHXZ
       4573 11DC 003792E0 ?IsAutoFreed@CTextureData@@UAEHXZ
       4574 11DD 00444200 ?IsAutoMipBrushingOn@CWorldRenderPrefs@@QAEHXZ
       4575 11DE 00401EC0 ?IsAutoMipModeling@CModelObject@@QAEHXZ
       4576 11DF 00592B10 ?IsAvailableRide@CEntity@@UAEHXZ
       4577 11E0 00444080 ?IsBackgroundTextureOn@CWorldRenderPrefs@@QAEHXZ
       4578 11E1 001E4B70 ?IsBegin@cWeb@@QAEHXZ
       4579 11E2 00305E60 ?IsBigger@@YAHKK@Z
       4580 11E3 00305CD0 ?IsBlack@@YAHK@Z
       4581 11E4 0000FDD0 ?IsBoss@CMobData@@QBEHXZ
       4582 11E5 004909F0 ?IsBuff@CCharacterTarget@@QAEHJ@Z
       4583 11E6 006FAC80 ?IsBuff@CUIBuff@@QAEHJ@Z
       4584 11E7 00490A50 ?IsBuffBySkill@CCharacterTarget@@QAEPAVCEffectGroup@@J@Z
       4585 11E8 0001E710 ?IsCSFlagOn@CUIManager@@QAEKK@Z
       4586 11E9 0083CB00 ?IsCSFlagOnElapsed@CUIManager@@QAEKKM@Z
       4587 11EA 0000FE70 ?IsCastleGuard@CMobData@@QBEHXZ
       4588 11EB 0000FEB0 ?IsCastleTower@CMobData@@QBEHXZ
       4589 11EC 00010110 ?IsChangeWeapon@CMobData@@QBEHXZ
       4590 11ED 00A80390 ?IsChanging@CPlayerEntity@@UAEHXZ
       4591 11EE 00010AC0 ?IsChannelFlag@CMobData@@QAE_NH@Z
       4592 11EF 000101B0 ?IsChaoVill@CMobData@@QBEHXZ
       4593 11F0 00278000 ?IsCharDefined@CFontData@@QBEHD@Z
       4594 11F1 0000D570 ?IsCharacter@CEntity@@UBEHXZ
       4595 11F2 000A5230 ?IsChecked@CUICheckButton@@QBEHXZ
       4596 11F3 0000FFC0 ?IsCollect@CMobData@@QBEHXZ
       4597 11F4 00010130 ?IsCollectQuest@CMobData@@QBEHXZ
       4598 11F5 00010210 ?IsCollsionModel@CMobData@@QAEHXZ
       4599 11F6 000AF260 ?IsComplete@CUIProgressBar@@QBEHXZ
       4600 11F7 00120F60 ?IsCompleteQuest@Quest@@QAE_NH@Z
       4601 11F8 00379F60 ?IsCompressed@CTextureData@@QAEHXZ
       4602 11F9 005E2D70 ?IsConfuse@CStatusEffect@@QAEHXZ
       4603 11FA 0049AC40 ?IsConnectionStable@CNetworkLibrary@@QAEHXZ
       4604 11FB 00580FB0 ?IsContract@CAffinityData@@QBE?BHH@Z
       4605 11FC 0026EF00 ?IsCorrectStage@StageMgr@@AAEHW4eSTAGE@@@Z
       4606 11FD 000102B0 ?IsCrafting@CMobData@@QBEHXZ
       4607 11FE 000B1930 ?IsCreatableNightShadow@CGameState@@QBE?BHXZ
       4608 11FF 0000FF80 ?IsCrops@CMobData@@QBEHXZ
       4609 1200 000060F0 ?IsCurrentModeAccelerated@CGfxLibrary@@QAEHXZ
       4610 1201 00006110 ?IsCurrentModeDH@CGfxLibrary@@QAEHXZ
       4611 1202 00006140 ?IsCurrentModeTH@CGfxLibrary@@QAEHXZ
       4612 1203 00591240 ?IsDerivedFromClass@@YAHPAVCEntity@@PAVCDLLEntityClass@@@Z
       4613 1204 005911D0 ?IsDerivedFromClass@@YAHPAVCEntity@@PBD@Z
       4614 1205 0049ACF0 ?IsDisconnected@CNetworkLibrary@@QAEHXZ
       4615 1206 004FAAD0 ?IsDisconnected@CSessionState@@QAEHXZ
       4616 1207 000AF230 ?IsDoing@CUIProgressBar@@QBEHXZ
       4617 1208 00580FE0 ?IsDonate@CAffinityData@@QBE?BHH@Z
       4618 1209 00580E30 ?IsDonationItem@CAffinityData@@QAE_NHH@Z
       4619 120A 00010270 ?IsDontAttack@CMobData@@QAEHXZ
       4620 120B 000A63F0 ?IsDropList@CUIComboBox@@QAEHXZ
       4621 120C 0030A140 ?IsDualHead@CDisplayMode@@QAEHXZ
       4622 120D 0030B180 ?IsDualHead@CDrawPort@@QAEHXZ
       4623 120E 00231E40 ?IsDynamicAlpha@CEffectControl@@QAEHXZ
       4624 120F 00693590 ?IsDynamicAlpha@CParticlesProcessDynamicState@@QAEHXZ
       4625 1210 00232340 ?IsDynamicAngle@CEffectControl@@QAEHXZ
       4626 1211 00693BE0 ?IsDynamicAngle@CParticlesProcessDynamicState@@QAEHXZ
       4627 1212 00231CE0 ?IsDynamicColor@CEffectControl@@QAEHXZ
       4628 1213 00693280 ?IsDynamicColor@CParticlesProcessDynamicState@@QAEHXZ
       4629 1214 00693A20 ?IsDynamicDeltaPos@CParticlesProcessDynamicState@@QAEHXZ
       4630 1215 006938B0 ?IsDynamicMass@CParticlesProcessDynamicState@@QAEHXZ
       4631 1216 00232160 ?IsDynamicPos@CEffectControl@@QAEHXZ
       4632 1217 006936F0 ?IsDynamicSize@CParticlesProcessDynamicState@@QAEHXZ
       4633 1218 00231FA0 ?IsDynamicStretch@CEffectControl@@QAEHXZ
       4634 1219 006933E0 ?IsDynamicTexPos@CParticlesProcessDynamicState@@QAEHXZ
       4635 121A 002BE3E0 ?IsEditBoxFocused@CUICashShopEX@@UAEHXZ
       4636 121B 0015A6D0 ?IsEditBoxFocused@CUIGuildBattle@@UAEHXZ
       4637 121C 00246EE0 ?IsEditBoxFocused@CUILoginNew@@UAEHXZ
       4638 121D 00174AF0 ?IsEditBoxFocused@MsgBoxMgr@@QAEHXZ
       4639 121E 00444000 ?IsEditorModelsOn@CWorldRenderPrefs@@QAEHXZ
       4640 121F 000AAC10 ?IsEllipsis@CUITextBox@@QAE_NXZ
       4641 1220 009FF570 ?IsEmpty@CListHead@@QBEHXZ
       4642 1221 009EE800 ?IsEmpty@CTString@@QBEHXZ
       4643 1222 0001D880 ?IsEmpty@CUIIcon@@QAE_NXZ
       4644 1223 005919B0 ?IsEmptyBrush@CEntity@@QBEHXZ
       4645 1224 00592A50 ?IsEnemy@CEntity@@UBEHXZ
       4646 1225 00796370 ?IsEnemy@CUIGuildBattle@@QAEHK@Z
       4647 1226 0083A290 ?IsEnemy@CUIManager@@QAEHPAXW4_tagTargetType@@H@Z
       4648 1227 007963F0 ?IsEnemyGuild@CUIGuildBattle@@QAEHK@Z
       4649 1228 00592A70 ?IsEnemySpawner@CEntity@@UBEHXZ
       4650 1229 0000FFA0 ?IsEnergy@CMobData@@QBEHXZ
       4651 122A 009ECF10 ?IsEqualCaseSensitive@@YAHPBDABVCTString@@@Z
       4652 122B 009ECD80 ?IsEqualCaseSensitive@CTString@@QBEHABV1@@Z
       4653 122C 009ECE50 ?IsEqualCaseSensitive@CTString@@QBEHPBD@Z
       4654 122D 0000FFE0 ?IsEternal@CMobData@@QBEHXZ
       4655 122E 00010090 ?IsEvent@CMobData@@QBEHXZ
       4656 122F 00013720 ?IsExclusiveSingleMode@CItemData@@QAEHXZ
       4657 1230 001736F0 ?IsExist@MsgBoxMgr@@QAEHI@Z
       4658 1231 000F9D30 ?IsExistOfflineMember@Party@@QAEHXZ
       4659 1232 000F9EC0 ?IsExpedetionDataExist@Party@@QAE_NHH@Z
       4660 1233 000F9E40 ?IsExpedetionMember@Party@@QAE_NJ@Z
       4661 1234 004AD6B0 ?IsExtensionState@CNetworkLibrary@@QAEHHAAVCItemData@@@Z
       4662 1235 00223330 ?IsF2KeyPressed@CInput@@QAEHXZ
       4663 1236 00223350 ?IsF3KeyPressed@CInput@@QAEHXZ
       4664 1237 007DD9E0 ?IsFaceDecoMode@CUIInitJob@@QAEHXZ
       4665 1238 00444040 ?IsFieldBrushesOn@CWorldRenderPrefs@@QAEHXZ
       4666 1239 00A20D60 ?IsFileReadOnly@@YAHABVCTFileName@@@Z
       4667 123A 0000D1D0 ?IsFirstExtraFlagOff@CEntity@@QAEKK@Z
       4668 123B 0000D1B0 ?IsFirstExtraFlagOn@CEntity@@QAEKK@Z
       4669 123C 000098D0 ?IsFirstMip@CBrushMip@@QAEHXZ
       4670 123D 00277ED0 ?IsFixedWidth@CFontData@@QBEHXZ
       4671 123E 00013CE0 ?IsFlag@CItemData@@QBE_N_J@Z
       4672 123F 0000D130 ?IsFlagOff@CEntity@@QAEKK@Z
       4673 1240 0000D110 ?IsFlagOn@CEntity@@QAEKK@Z
       4674 1241 00007A40 ?IsFlat@CShadowMap@@QAEHXZ
       4675 1242 0083AE40 ?IsFocusAllEditBox@CUIManager@@QAEHXZ
       4676 1243 0001ECE0 ?IsFocusInAllEditbox@CUIManager@@QBEHXZ
       4677 1244 00015C90 ?IsFocused@CUIBase@@UBEHXZ
       4678 1245 00019140 ?IsFocusedInAll@CUIEditBox@@QAE?BHXZ
       4679 1246 000191A0 ?IsFocusingEditBox@CUIEditBox@@SA?BHXZ
       4680 1247 00444140 ?IsFogOn@CWorldRenderPrefs@@QAEHXZ
       4681 1248 0015A760 ?IsGBReq@CUIGuildBattle@@QAEHXZ
       4682 1249 0049AEE0 ?IsGameFinished@CNetworkLibrary@@QAEHXZ
       4683 124A 00305BE0 ?IsGray@@YAHK@Z
       4684 124B 000100B0 ?IsGuard@CMobData@@QBEHXZ
       4685 124C 000100F0 ?IsGuild@CMobData@@QBEHXZ
       4686 124D 00444180 ?IsHazeOn@CWorldRenderPrefs@@QAEHXZ
       4687 124E 00001890 ?IsHead@CListNode@@QBEHXZ
       4688 124F 00001730 ?IsHeadMarker@CListNode@@QBEHXZ
       4689 1250 00A7FF40 ?IsHelmet@CPlayerEntity@@UAEHJ@Z
       4690 1251 00443F40 ?IsHiddenLinesOn@CWorldRenderPrefs@@QAEHXZ
       4691 1252 005E2DC0 ?IsHold@CStatusEffect@@QAEHXZ
       4692 1253 002238C0 ?IsHomePressed@CInput@@QAEHXZ
       4693 1254 0001D010 ?IsHooked@CSoundObject@@QBEHXZ
       4694 1255 000101D0 ?IsHunterVill@CMobData@@QBEHXZ
       4695 1256 002230B0 ?IsIKeyPressed@CInput@@QAEHXZ
       4696 1257 00A7FD20 ?IsIdle@CPlayerEntity@@UAEHXZ
       4697 1258 000AF290 ?IsIdle@CUIProgressBar@@QBEHXZ
       4698 1259 00592B30 ?IsImportant@CEntity@@UBEHXZ
       4699 125A 00796440 ?IsInBattle@CUIGuildBattle@@QAEHXZ
       4700 125B 0000E2E0 ?IsInitUpdateMasterBuffer@CCommunicationInterface@@QAEHXZ
       4701 125C 00223020 ?IsInputEnabled@CInput@@QBEHXZ
       4702 125D 0083CD80 ?IsInputLock@CUIManager@@QAEHXZ
       4703 125E 00015A50 ?IsInside@CUIBase@@QAEHHH@Z
       4704 125F 00830480 ?IsInsideUpperUIs@CUIManager@@QAEHJHH@Z
       4705 1260 0083ACF0 ?IsInstantZone@CUIManager@@QAEHH@Z
       4706 1261 009EF6C0 ?IsInteger@CTString@@QAEHXZ
       4707 1262 002F37D0 ?IsIntersecting@CIntersector@@QAEHXZ
       4708 1263 00005440 ?IsIsometric@CAnyProjection3D@@QAEHXZ
       4709 1264 002230D0 ?IsJKeyPressed@CInput@@QAEHXZ
       4710 1265 002230F0 ?IsKKeyPressed@CInput@@QAEHXZ
       4711 1266 00223170 ?IsLControlKeyPressed@CInput@@QAEHXZ
       4712 1267 009FA9F0 ?IsLControlKeyPressing@CInput@@QAEHXZ
       4713 1268 009FAA50 ?IsLMouseButtonPressed@CInput@@QAEHXZ
       4714 1269 00223390 ?IsLMousePressed@CInput@@QAEHXZ
       4715 126A 000F9C60 ?IsLabeled@Party@@QAEHJJ@Z
       4716 126B 009DCEC0 ?IsLearnSkill@CUIWildPetInfo@@QAEHH@Z
       4717 126C 00A7FBF0 ?IsLegit@CPlayerEntity@@UAEHXZ
       4718 126D 000AD1B0 ?IsLegitimate@CCharacterTarget@@QAEHXZ
       4719 126E 009FFE60 ?IsLinked@CListNode@@QBEHXZ
       4720 126F 00422090 ?IsLocalType@CParticlesEmitter@@QAEHXZ
       4721 1270 00A23FA0 ?IsLocked@CTSingleLock@@QAEHXZ
       4722 1271 004AF4D0 ?IsLord@CNetworkLibrary@@QAE_NXZ
       4723 1272 005B4FE0 ?IsLordItem@CItemData@@SA_NH@Z
       4724 1273 0000FE90 ?IsLordSymbol@CMobData@@QBEHXZ
       4725 1274 002232F0 ?IsMKeyPressed@CInput@@QAEHXZ
       4726 1275 00010230 ?IsMakeItemNPC@CMobData@@QAEHXZ
       4727 1276 00592A30 ?IsMarker@CEntity@@UBEHXZ
       4728 1277 000119B0 ?IsMember@CSelectedEntities@@QAEHVCEntityPointer@@@Z
       4729 1278 000AD430 ?IsMercenary@CMobTarget@@QAEHXZ
       4730 1279 005B5060 ?IsMercenaryCardHolder@CItemData@@QAE_NXZ
       4731 127A 0000FF60 ?IsMineral@CMobData@@QBEHXZ
       4732 127B 004441C0 ?IsMirrorsOn@CWorldRenderPrefs@@QAEHXZ
       4733 127C 00643BF0 ?IsModelVisible@CModelInstance@@QAEHM@Z
       4734 127D 00401AB0 ?IsModelVisible@CModelObject@@QAEHM@Z
       4735 127E 00007270 ?IsModified@CTextureData@@QAEHXZ
       4736 127F 0001E830 ?IsMouseInsideUIs@CUIManager@@QBEHXZ
       4737 1280 0000FE30 ?IsMovable@CMobData@@QBEHXZ
       4738 1281 00A7FCE0 ?IsMoving@CPlayerEntity@@UAEHXZ
       4739 1282 000AD120 ?IsMyBadBuffCount@CUIBuff@@QAEEXZ
       4740 1283 000AD100 ?IsMyGoodBuffCount@CUIBuff@@QAEEXZ
       4741 1284 005C5D90 ?IsMyQuarter@CMobData@@QBEHXZ
       4742 1285 00018370 ?IsMySubJob@CNetworkLibrary@@QAEHJ@Z
       4743 1286 005C5D00 ?IsNPC@CMobData@@QBEHXZ
       4744 1287 000AD2E0 ?IsNPC@CMobTarget@@QBEHXZ
       4745 1288 000102F0 ?IsNPCFlag2nd@CMobData@@QBEHK@Z
       4746 1289 004D1D10 ?IsNetworkEnabled@CCommunicationInterface@@QAEHXZ
       4747 128A 0049ABB0 ?IsNetworkEnabled@CNetworkLibrary@@QAEHXZ
       4748 128B 0000E2A0 ?IsNetworkOn@CCommunicationInterface@@QAEHXZ
       4749 128C 00112D70 ?IsNewItemEffectRender@CInvenData@@QAEHXZ
       4750 128D 0022AEC0 ?IsNightShadow@CharacterCreateNew@@QAEHXZ
       4751 128E 0000F3C0 ?IsNotRenderAtThisFrame@CEffect@@QAEHXZ
       4752 128F 0001EDC0 ?IsNotTranslated@CUIManager@@QAEHW4eNoTransType@@H@Z
       4753 1290 00223270 ?IsNum0KeyPressed@CInput@@QAEHXZ
       4754 1291 00223190 ?IsNum1KeyPressed@CInput@@QAEHXZ
       4755 1292 002231B0 ?IsNum2KeyPressed@CInput@@QAEHXZ
       4756 1293 002231D0 ?IsNum3KeyPressed@CInput@@QAEHXZ
       4757 1294 002231F0 ?IsNum4KeyPressed@CInput@@QAEHXZ
       4758 1295 00223210 ?IsNum5KeyPressed@CInput@@QAEHXZ
       4759 1296 00223230 ?IsNum6KeyPressed@CInput@@QAEHXZ
       4760 1297 00223250 ?IsNum9KeyPressed@CInput@@QAEHXZ
       4761 1298 002232B0 ?IsOKeyPressed@CInput@@QAEHXZ
       4762 1299 002F5340 ?IsObjectPlaneVisible@CIsometricProjection3D@@UBEHABV?$Plane@M$02@@@Z
       4763 129A 002F7FB0 ?IsObjectPlaneVisible@CParallelProjection3D@@UBEHABV?$Plane@M$02@@@Z
       4764 129B 002FAD80 ?IsObjectPlaneVisible@CPerspectiveProjection3D@@UBEHABV?$Plane@M$02@@@Z
       4765 129C 002FC580 ?IsObjectPlaneVisible@CSimpleProjection3D@@UBEHABV?$Plane@M$02@@@Z
       4766 129D 002680C0 ?IsOfClass@@YAHPAVCEntity@@PAVCDLLEntityClass@@@Z
       4767 129E 00591150 ?IsOfClass@@YAHPAVCEntity@@PBD@Z
       4768 129F 00591190 ?IsOfSameClass@@YAHPAVCEntity@@0@Z
       4769 12A0 000B0AF0 ?IsOnline@Party@@QAE_NH@Z
       4770 12A1 00012AB0 ?IsOptionPrizeExist@CQuestDynamicData@@QAEJXZ
       4771 12A2 000F9B30 ?IsOurParty@Party@@QAEHJ@Z
       4772 12A3 000F9A60 ?IsOurParty@Party@@QAE_NVCTString@@@Z
       4773 12A4 000F9B90 ?IsOurPartyPos@Party@@QAEHVCTString@@@Z
       4774 12A5 000151B0 ?IsOverlappedRendering@CDrawPort@@QBEHXZ
       4775 12A6 00223110 ?IsPKeyPressed@CInput@@QAEHXZ
       4776 12A7 000054A0 ?IsParallel@CAnyProjection3D@@QAEHXZ
       4777 12A8 000AD490 ?IsParasite@CMobTarget@@QAEHXZ
       4778 12A9 000B0C60 ?IsPartyFull@Party@@QAEHXZ
       4779 12AA 000B0AC0 ?IsPartyLeader@Party@@QAEHH@Z
       4780 12AB 000F9940 ?IsPartyMember@Party@@QAE_NJ@Z
       4781 12AC 00010150 ?IsPartyMob@CMobData@@QBEHXZ
       4782 12AD 000B0C90 ?IsPartyRequested@Party@@QAEHXZ
       4783 12AE 009E6DF0 ?IsPaused@CAnimObject@@QAEHXZ
       4784 12AF 0049AC10 ?IsPaused@CNetworkLibrary@@QAEHXZ
       4785 12B0 0001CFF0 ?IsPaused@CSoundObject@@QBEHXZ
       4786 12B1 0000FEF0 ?IsPeaceful@CMobData@@QBEHXZ
       4787 12B2 00005470 ?IsPerspective@CAnyProjection3D@@QAEHXZ
       4788 12B3 000048A0 ?IsPerspective@CPerspectiveProjection3D@@UAEHXZ
       4789 12B4 00004160 ?IsPerspective@CProjection3D@@UAEHXZ
       4790 12B5 00592A90 ?IsPet@CEntity@@UBEHXZ
       4791 12B6 00838AA0 ?IsPet@CUIManager@@QAEHPAVCItemData@@@Z
       4792 12B7 00A80290 ?IsPetActing@CPlayerEntity@@UAEHXZ
       4793 12B8 00A5F810 ?IsPlayAnim@CGameState@@QAE_NHHHJ@Z
       4794 12B9 0083ACC0 ?IsPlayInZone@CUIManager@@QAEHXZ
       4795 12BA 0000D550 ?IsPlayer@CEntity@@UAEHXZ
       4796 12BB 00A7F570 ?IsPlayer@CPlayerEntity@@UAEHXZ
       4797 12BC 0049D7B0 ?IsPlayerLocal@CNetworkLibrary@@QAEHPAVCEntity@@@Z
       4798 12BD 0001CFD0 ?IsPlaying@CSoundObject@@QBEHXZ
       4799 12BE 0049AB90 ?IsPlayingDemo@CNetworkLibrary@@QAEHXZ
       4800 12BF 0030F4E0 ?IsPointVisible@CDrawPort@@QBEHAAVCAnyProjection3D@@JJMJJ@Z
       4801 12C0 00A73A60 ?IsPolygonBelowPoint@CMovableEntity@@QAEHPAVCBrushPolygon@@ABV?$Vector@M$02@@M@Z
       4802 12C1 00A80350 ?IsPolymophing@CPlayerEntity@@UAEHXZ
       4803 12C2 002BE4A0 ?IsPopupOpened@CUICashShopEX@@QAEHXZ
       4804 12C3 001E4B90 ?IsPreBegin@cWeb@@QAEHXZ
       4805 12C4 00581040 ?IsPresent@CAffinityData@@QBE?BHH@Z
       4806 12C5 00012880 ?IsPrizeExist@CQuestDynamicData@@QAEJXZ
       4807 12C6 00A802B0 ?IsProduct@CPlayerEntity@@UAEHXZ
       4808 12C7 00013770 ?IsProductionItem@CItemData@@QAEHXZ
       4809 12C8 00223070 ?IsQKeyPressed@CInput@@QAEHXZ
       4810 12C9 0000FF10 ?IsQuest@CMobData@@QBEHXZ
       4811 12CA 00012FA0 ?IsQuestComplete@CQuestDynamicData@@QAEHXZ
       4812 12CB 00223130 ?IsRKeyPressed@CInput@@QAEHXZ
       4813 12CC 009FAA20 ?IsRMouseButtonPressed@CInput@@QAEHXZ
       4814 12CD 00223370 ?IsRMousePressed@CInput@@QAEHXZ
       4815 12CE 001221F0 ?IsRaidNow@Quest@@QAEHXZ
       4816 12CF 00A45C70 ?IsReTripleAvailable@CBrushSector@@QAEHAAV?$CSelection@VCBrushPolygon@@$0BAA@@@@Z
       4817 12D0 000036F0 ?IsReadable@CTFileStream@@UAEHXZ
       4818 12D1 00A20580 ?IsReadable@CTMemoryStream@@UAEHXZ
       4819 12D2 001E4BD0 ?IsReadyRequest@cWeb@@QAEHXZ
       4820 12D3 00018330 ?IsReadyStart@CNetworkLibrary@@QAEHXZ
       4821 12D4 00A6FD50 ?IsReapplyingActions@CMovableEntity@@UAEHXZ
       4822 12D5 0000FED0 ?IsRefiner@CMobData@@QBEHXZ
       4823 12D6 006D36A0 ?IsRegister@CTagManager@@QAEHAAV?$basic_string@DU?$char_traits@D@std@@V?$allocator@D@2@@std@@@Z
       4824 12D7 006D3600 ?IsRegister@CTagManager@@QAEHPBD@Z
       4825 12D8 00684790 ?IsRegistered@CEffectGroupManager@@QAEHV?$basic_string@DU?$char_traits@D@std@@V?$allocator@D@2@@std@@@Z
       4826 12D9 00687570 ?IsRegistered@CEffectManager@@QAEHV?$basic_string@DU?$char_traits@D@std@@V?$allocator@D@2@@std@@@Z
       4827 12DA 006C27C0 ?IsRegistered@CParticleGroupManager@@QAEHV?$basic_string@DU?$char_traits@D@std@@V?$allocator@D@2@@std@@@Z
       4828 12DB 00010030 ?IsRemission@CMobData@@QBEHXZ
       4829 12DC 001E4BB0 ?IsRequest@cWeb@@QAEHXZ
       4830 12DD 00010190 ?IsResetStat@CMobData@@QBEHXZ
       4831 12DE 0000FDF0 ?IsResource@CMobData@@QBEHXZ
       4832 12DF 000B19B0 ?IsRestartGame@CGameState@@QAEHXZ
       4833 12E0 00299C40 ?IsRestritionItem@CUIIcon@@QAE_NXZ
       4834 12E1 00A68BC0 ?IsRide@CPetInfo@@QAEHHH@Z
       4835 12E2 00A7FC70 ?IsRidePet@CPlayerEntity@@UAEHPAVCEntity@@@Z
       4836 12E3 000182D0 ?IsRvrZone@CNetworkLibrary@@QAEHXZ
       4837 12E4 00010000 ?IsSSkillMaster@CMobData@@QBEHXZ
       4838 12E5 00A80040 ?IsSameTarget@CPlayerEntity@@UAEHPAVCEntity@@@Z
       4839 12E6 0000D270 ?IsSecondExtraFlagOff@CEntity@@QAEKK@Z
       4840 12E7 0000D250 ?IsSecondExtraFlagOn@CEntity@@QAEKK@Z
       4841 12E8 00003710 ?IsSeekable@CTFileStream@@UAEHXZ
       4842 12E9 00A20600 ?IsSeekable@CTMemoryStream@@UAEHXZ
       4843 12EA 00008DC0 ?IsSelected@CBrushPolygon@@QBEHK@Z
       4844 12EB 000092D0 ?IsSelected@CBrushSector@@QBEHK@Z
       4845 12EC 00007F60 ?IsSelected@CBrushVertex@@QBEHK@Z
       4846 12ED 0000D050 ?IsSelected@CEntity@@QBEHK@Z
       4847 12EE 00122520 ?IsSelectedQuest@Quest@@QAE_NABH@Z
       4848 12EF 00592A10 ?IsSentOverNet@CEntity@@UBEHXZ
       4849 12F0 00018280 ?IsServer@CNetworkLibrary@@QAEHXZ
       4850 12F1 00A4A210 ?IsShadowFlat@CBrushShadowMap@@UAEHAAK@Z
       4851 12F2 00007A20 ?IsShadowFlat@CShadowMap@@UAEHAAK@Z
       4852 12F3 00010290 ?IsShadowNPC@CMobData@@QBEHXZ
       4853 12F4 00581010 ?IsShop@CAffinityData@@QBE?BHH@Z
       4854 12F5 0000FE10 ?IsShopper@CMobData@@QBEHXZ
       4855 12F6 0001ED50 ?IsShowAni@CUIManager@@QAEHXZ
       4856 12F7 000AF040 ?IsShowCompletePercentText@CUIProgressBar@@QBE?BHXZ
       4857 12F8 000AF060 ?IsShowDoingPercentText@CUIProgressBar@@QBE?BHXZ
       4858 12F9 00443FC0 ?IsShowEntityNamesOn@CWorldRenderPrefs@@QAEHXZ
       4859 12FA 000B3200 ?IsShowGMNotice@CUIAutoHelp@@QAEHXZ
       4860 12FB 000AF020 ?IsShowIdlePercentText@CUIProgressBar@@QBE?BHXZ
       4861 12FC 000AF000 ?IsShowPercentText@CUIProgressBar@@QBE?BHXZ
       4862 12FD 00443F80 ?IsShowTargetsOn@CWorldRenderPrefs@@QAEHXZ
       4863 12FE 00005410 ?IsSimple@CAnyProjection3D@@QAEHXZ
       4864 12FF 00A80250 ?IsSitting@CPlayerEntity@@UAEHXZ
       4865 1300 0000FF30 ?IsSkillMaster@CMobData@@QBEHXZ
       4866 1301 00A80230 ?IsSkilling@CPlayerEntity@@UAEHXZ
       4867 1302 00592AB0 ?IsSlave@CEntity@@UBEHXZ
       4868 1303 00A80330 ?IsSocialActing@CPlayerEntity@@UAEHXZ
       4869 1304 00A73DD0 ?IsSomeNearPolygonBelowPoint@CMovableEntity@@QAEHABV?$Vector@M$02@@M@Z
       4870 1305 00A73DF0 ?IsSomeSectorPolygonBelowPoint@CMovableEntity@@QAEHPAVCBrushSector@@ABV?$Vector@M$02@@M@Z
       4871 1306 0001D9A0 ?IsSpecial@CUIIcon@@QAE_NXZ
       4872 1307 00A736F0 ?IsStandingOnPolygon@CMovableEntity@@QAEHPAVCBrushPolygon@@@Z
       4873 1308 005E2CC0 ?IsState@CStatusEffect@@QAEHJ@Z
       4874 1309 000136A0 ?IsStatusChanged@CStatusEffect@@QAEH_J@Z
       4875 130A 005E2D20 ?IsSturn@CStatusEffect@@QAEHXZ
       4876 130B 0001D9C0 ?IsSuit@CUIIcon@@QAE_NXZ
       4877 130C 00223290 ?IsTKeyPressed@CInput@@QAEHXZ
       4878 130D 00223150 ?IsTabKeyPressed@CInput@@QAEHXZ
       4879 130E 00001940 ?IsTail@CListNode@@QBEHXZ
       4880 130F 000017E0 ?IsTailMarker@CListNode@@QBEHXZ
       4881 1310 00279130 ?IsTargetActive@ObjInfo@@QAEHW4eTARGET_TYPE@@@Z
       4882 1311 000B6520 ?IsTargetPKHide@ObjInfo@@QAEHXZ
       4883 1312 00592BF0 ?IsTargetValid@CEntity@@UAEHJPAV1@@Z
       4884 1313 005929F0 ?IsTargetable@CEntity@@UBEHXZ
       4885 1314 00444280 ?IsTextureLayerOn@CWorldRenderPrefs@@QAEHJ@Z
       4886 1315 000AD3E0 ?IsTotem@CMobTarget@@QAEHXZ
       4887 1316 000102D0 ?IsTotemItem@CMobData@@QBEHXZ
       4888 1317 00A7FD40 ?IsTransform@CPlayerEntity@@UBE?BHXZ
       4889 1318 00A80370 ?IsTransforming@CPlayerEntity@@UAEHXZ
       4890 1319 000AD460 ?IsTrap@CMobTarget@@QAEHXZ
       4891 131A 0030A170 ?IsTripleHead@CDisplayMode@@QAEHXZ
       4892 131B 0030B1C0 ?IsTripleHead@CDrawPort@@QAEHXZ
       4893 131C 0083AE00 ?IsUIVisible@CUIManager@@QAEHH@Z
       4894 131D 002232D0 ?IsUKeyPressed@CInput@@QAEHXZ
       4895 131E 005B5020 ?IsUniqueItem@CItemData@@SA_NH@Z
       4896 131F 009E6E10 ?IsUpToDate@CAnimObject@@QBEHABVCUpdateable@@@Z
       4897 1320 009E8AF0 ?IsUpToDate@CChangeable@@QBEHABVCUpdateable@@@Z
       4898 1321 009E8B90 ?IsUpToDate@CChangeableRT@@QBEHABVCUpdateableRT@@@Z
       4899 1322 009DD5C0 ?IsUsableSkill@CUIWildPetInfo@@QAEHJ@Z
       4900 1323 006BEC20 ?IsUseParticlePos@CParticlesProcessControl@@QAEHXZ
       4901 1324 00A0B1A0 ?IsUsed@CSerial@@QAEHXZ
       4902 1325 002BE500 ?IsVFT_GoodList@CUICashShopEX@@QAE_NXZ
       4903 1326 00223090 ?IsVKeyPressed@CInput@@QAEHXZ
       4904 1327 00590E20 ?IsValid@CEntityID@@QAEHXZ
       4905 1328 009FF420 ?IsValid@CListHead@@QBEHXZ
       4906 1329 009FFD20 ?IsValid@CListNode@@QBEHXZ
       4907 132A 009EE750 ?IsValid@CTString@@QBEHXZ
       4908 132B 009F3440 ?IsValid@CTWString@@QBEHXZ
       4909 132C 00684BE0 ?IsValidCreated@CEffectGroupManager@@QAE_NPAVCEffectGroup@@@Z
       4910 132D 006878C0 ?IsValidCreated@CEffectManager@@QAE_NPAVCEffect@@@Z
       4911 132E 002D29B0 ?IsValidDouble@@YAHN@Z
       4912 132F 002D2950 ?IsValidFloat@@YAHM@Z
       4913 1330 004D2330 ?IsValidIP@CCommunicationInterface@@IAEHXZ
       4914 1331 002F5440 ?IsViewerPlaneVisible@CIsometricProjection3D@@UBEHABV?$Plane@M$02@@@Z
       4915 1332 002F80C0 ?IsViewerPlaneVisible@CParallelProjection3D@@UBEHABV?$Plane@M$02@@@Z
       4916 1333 002FAE90 ?IsViewerPlaneVisible@CPerspectiveProjection3D@@UBEHABV?$Plane@M$02@@@Z
       4917 1334 002FC670 ?IsViewerPlaneVisible@CSimpleProjection3D@@UBEHABV?$Plane@M$02@@@Z
       4918 1335 00444100 ?IsVisTweaksDisabled@CWorldRenderPrefs@@QAEHXZ
       4919 1336 004440C0 ?IsVisTweaksOn@CWorldRenderPrefs@@QAEHXZ
       4920 1337 0001E680 ?IsVisibleUIs@CUIManager@@QAEHXZ
       4921 1338 0049AF50 ?IsWaitingForPlayers@CNetworkLibrary@@QAEHXZ
       4922 1339 0049AFD0 ?IsWaitingForServer@CNetworkLibrary@@QAEHXZ
       4923 133A 00010170 ?IsWarCastle@CMobData@@QBEHXZ
       4924 133B 000100D0 ?IsWareHouse@CMobData@@QBEHXZ
       4925 133C 0001D960 ?IsWearTab@CUIIcon@@QAE_NXZ
       4926 133D 001E4BF0 ?IsWebHandle@cWeb@@QAEHXZ
       4927 133E 00223310 ?IsWheelPressed@CInput@@QAEHXZ
       4928 133F 00305D90 ?IsWhite@@YAHK@Z
       4929 1340 0030A1A0 ?IsWideScreen@CDisplayMode@@QAEHXZ
       4930 1341 0030B200 ?IsWideScreen@CDrawPort@@QAEHXZ
       4931 1342 00592AD0 ?IsWildPet@CEntity@@UBEHXZ
       4932 1343 00838AF0 ?IsWildPet@CUIManager@@QAEHPAVCItemData@@@Z
       4933 1344 000036D0 ?IsWriteable@CTFileStream@@UAEHXZ
       4934 1345 00A205C0 ?IsWriteable@CTMemoryStream@@UAEHXZ
       4935 1346 0000FE50 ?IsZoneMoving@CMobData@@QBEHXZ
       4936 1347 004B9BD0 ?Is_MyChar_MorphStatus_MORPH_END@CNetworkLibrary@@QAE_NXZ
       4937 1348 0049EF60 ?ItemLevelDown@CNetworkLibrary@@QAEXFF@Z
       4938 1349 0083D000 ?ItemNameColorInI@CUIManager@@QAEXXZ
       4939 134A 004A5130 ?ItemPlusEffectReq@CNetworkLibrary@@QAEXC@Z
       4940 134B 00001B50 ?IterationHead@CListHead@@QBEAAVCListNode@@XZ
       4941 134C 000014F0 ?IterationInsertAfter@CListNode@@QAEXAAV1@@Z
       4942 134D 00001610 ?IterationInsertBefore@CListNode@@QAEXAAV1@@Z
       4943 134E 00001440 ?IterationPred@CListNode@@QBEAAV1@XZ
       4944 134F 00001390 ?IterationSucc@CListNode@@QBEAAV1@XZ
       4945 1350 00001C10 ?IterationTail@CListHead@@QBEAAVCListNode@@XZ
       4946 1351 00446B40 ?JoinAllPossiblePolygons@CWorld@@QAEXAAV?$CSelection@VCBrushPolygon@@$0BAA@@@HJ@Z
       4947 1352 002E8FE0 ?JoinContinuingEdges@CObjectPolygon@@QAEXAAV?$CDynamicArray@VCObjectEdge@@@@@Z
       4948 1353 00446750 ?JoinPolygons@CWorld@@QAEXAAV?$CSelection@VCBrushPolygon@@$0BAA@@@@Z
       4949 1354 00446060 ?JoinSectors@CWorld@@QAEXAAV?$CSelection@VCBrushSector@@$00@@@Z
       4950 1355 0049A890 ?JoinSession_t@CNetworkLibrary@@QAEXABVCNetworkSession@@J@Z
       4951 1356 00445B50 ?JoinTwoSectors@CWorld@@QAEPAVCBrushSector@@AAV2@0@Z
       4952 1357 0000CEF0 ?Jump@CEntity@@QAEXJJHABVCEntityEvent@@@Z
       4953 1358 005A2C10 ?Jump@CRationalEntity@@QAEXJJHABVCEntityEvent@@@Z
       4954 1359 00285680 ?KeyMessage@CUIBase@@UAE?AW4WMSG_RESULT@@PAUtagMSG@@@Z
       4955 135A 0070E660 ?KeyMessage@CUICashShopEX@@UAE?AW4WMSG_RESULT@@PAUtagMSG@@@Z
       4956 135B 0073A590 ?KeyMessage@CUIEditBox@@UAE?AW4WMSG_RESULT@@PAUtagMSG@@@Z
       4957 135C 00793FF0 ?KeyMessage@CUIGuildBattle@@UAE?AW4WMSG_RESULT@@PAUtagMSG@@@Z
       4958 135D 00284F70 ?KeyMessageChild@CUIBase@@UAE?AW4WMSG_RESULT@@PAUtagMSG@@@Z
       4959 135E 00284EE0 ?KeyMessageProc@CUIBase@@UAE?AW4WMSG_RESULT@@PAUtagMSG@@@Z
       4960 135F 002CA5F0 ?KeyMessageProc@CUITree@@UAE?AW4WMSG_RESULT@@PAUtagMSG@@@Z
       4961 1360 00173E40 ?KeyProc@MsgBoxMgr@@QAE?AW4WMSG_RESULT@@PAUtagMSG@@@Z
       4962 1361 002BE430 ?KillFocusEditBox@CUICashShopEX@@UAEXXZ
       4963 1362 0015A710 ?KillFocusEditBox@CUIGuildBattle@@UAEXXZ
       4964 1363 00246F90 ?KillFocusEditBox@CUILoginNew@@UAEXXZ
       4965 1364 00283EF0 ?LButtonDBLClick@CUIBase@@UAE?AW4WMSG_RESULT@@GG@Z
       4966 1365 002CA170 ?LButtonDBLClick@CUITree@@UAE?AW4WMSG_RESULT@@GG@Z
       4967 1366 00283FA0 ?LButtonDBLClickChild@CUIBase@@UAE?AW4WMSG_RESULT@@GG@Z
       4968 1367 002839F0 ?LButtonDown@CUIBase@@UAE?AW4WMSG_RESULT@@GG@Z
       4969 1368 002CA050 ?LButtonDown@CUITree@@UAE?AW4WMSG_RESULT@@GG@Z
       4970 1369 00283AA0 ?LButtonDownChild@CUIBase@@UAE?AW4WMSG_RESULT@@GG@Z
       4971 136A 00283C70 ?LButtonUp@CUIBase@@UAE?AW4WMSG_RESULT@@GG@Z
       4972 136B 002CA0E0 ?LButtonUp@CUITree@@UAE?AW4WMSG_RESULT@@GG@Z
       4973 136C 00283D20 ?LButtonUpChild@CUIBase@@UAE?AW4WMSG_RESULT@@GG@Z
       4974 136D 009E6AC0 ?LastFrame@CAnimObject@@QAEXXZ
       4975 136E 00A2D0F0 ?LastUpdateTime@CUpdateable@@QBEMXZ
       4976 136F 00A2D180 ?LastUpdateTime@CUpdateableRT@@QBEMXZ
       4977 1370 00A71600 ?LaunchAsFreeProjectile@CMovableEntity@@QAEXABV?$Vector@M$02@@PAV1@@Z
       4978 1371 00A71570 ?LaunchAsPropelledProjectile@CMovableEntity@@QAEXABV?$Vector@M$02@@PAV1@@Z
       4979 1372 004AEAE0 ?LearnPetSkill@CNetworkLibrary@@QAEXJ@Z
       4980 1373 006EE1A0 ?LearnTheSkill@CUIAutoHelp@@QAEXH@Z
       4981 1374 004AEBB0 ?LearnWildPetSkill@CNetworkLibrary@@QAEXJ@Z
       4982 1375 004AE5B0 ?LeavePet@CNetworkLibrary@@QAEXPAVCEntity@@@Z
       4983 1376 004AE6E0 ?LeaveWildPet@CNetworkLibrary@@QAEXPAVCEntity@@@Z
       4984 1377 00A7FC50 ?LeavingPet@CPlayerEntity@@UAEXPAVCEntity@@@Z
       4985 1378 00A7FCC0 ?LeavingWildPet@CPlayerEntity@@UAEXPAVCEntity@@@Z
       4986 1379 000025E0 ?Length@CTString@@QBEJXZ
       4987 137A 008BA200 ?Length@CTWString@@QBEJXZ
       4988 137B 009EDBE0 ?LengthNaked@CTString@@QBEJXZ
       4989 137C 002F2700 ?Lerp@CPlacement3D@@QAEXABV1@0M@Z
       4990 137D 004ED6B0 ?Lerp@CPlayerAction@@QAEXABV1@0M@Z
       4991 137E 003067A0 ?LerpColor@@YAKKKM@Z
       4992 137F 00306670 ?LerpColor@@YAXKKMAAE00@Z
       4993 1380 00422670 ?LifeProcess@CParticlesAbsorption@@IAEHAAVCParticle@@M@Z
       4994 1381 003FD8A0 ?LinkDataForSurfaces@CModelData@@QAEXH@Z
       4995 1382 00420760 ?LinkEntitiesToSectors@CWorld@@QAEXXZ
       4996 1383 00A2E7B0 ?LinkPortalsAndSectors@CBrushArchive@@QAEXXZ
       4997 1384 003D9950 ?Listen@CSoundLibrary@@QAEXAAVCSoundListener@@@Z
       4998 1385 00230530 ?Live@CParticle@@QAEHM@Z
       4999 1386 00230580 ?Live@CParticle@@QBEHXZ
       5000 1387 005CF500 ?Load@CQuestSystem@@QAE_NXZ
       5001 1388 00581070 ?LoadAffinityDataFromFile@CAffinityData@@SAHAAV?$CStaticArray@VCAffinityData@@@@PBD@Z
       5002 1389 002E0910 ?LoadAny3DFormat_t@CObject3D@@QAEXABVCTFileName@@ABV?$Matrix@M$02$02@@W4LoadType@1@@Z
       5003 138A 003638B0 ?LoadAnyGfxFormat_t@CImageInfo@@QAEXABVCTFileName@@@Z
       5004 138B 00455CE0 ?LoadBrushes_t@CWorld@@QAEXABVCTFileName@@@Z
       5005 138C 005C4FD0 ?LoadChannelData@CMobData@@SA_NPBD@Z
       5006 138D 009E47B0 ?LoadFromScript_t@CAnimData@@QAEXPAVCTStream@@PAVCListHead@@@Z
       5007 138E 003E83B0 ?LoadFromScript_t@CEditModel@@QAEXAAVCTFileName@@@Z
       5008 138F 00830560 ?LoadHelp1Data@CUIManager@@IAEXABVCTFileName@@@Z
       5009 1390 008309E0 ?LoadHelp1String@CUIManager@@IAEXXZ
       5010 1391 009EFC10 ?LoadIntVar@@YAXABVCTFileName@@AAJ@Z
       5011 1392 00451CD0 ?LoadItemCollection@CWorld@@AAEXXZ
       5012 1393 00451ED0 ?LoadItemCompose@CWorld@@AAEXXZ
       5013 1394 005B3BF0 ?LoadJewelItemDataFromFile@CItemData@@SAHAAV?$CStaticArray@UJewelComosInfo@@@@PBD@Z
       5014 1395 009EEB00 ?LoadKeepCRLF_t@CTString@@QAEXABVCTFileName@@@Z
       5015 1396 0044CB70 ?LoadLOD@CWorld@@QAEXXZ
       5016 1397 003EE910 ?LoadMapping_t@CEditModel@@QAEXVCTFileName@@J@Z
       5017 1398 003E38E0 ?LoadModelAnimationData_t@CEditModel@@AAEXPAVCTStream@@ABV?$Matrix@M$02$02@@@Z
       5018 1399 0041D080 ?LoadObjInZoneData@CZoneInfo@@QAEHXZ
       5019 139A 003634F0 ?LoadPCX_t@CImageInfo@@AAEXABVCTFileName@@@Z
       5020 139B 001169B0 ?LoadRevision@CNews@@QAEXH@Z
       5021 139C 0058CED0 ?LoadShopDataFromFile@CCashShopData@@SAHAAV1@PBD@Z
       5022 139D 0058D490 ?LoadShopDataFromFile@CCashShopData@@SAHAAV?$CStaticArray@VCCashShopData@@@@PBD@Z
       5023 139E 005D4250 ?LoadShopDataFromFile@CShopData@@SAHAAV?$CStaticArray@VCShopData@@@@PBD@Z
       5024 139F 0097D060 ?LoadSignBoardTexture@CUISignBoard@@QAEHHH@Z
       5025 13A0 00A7FA90 ?LoadSkillAnimID@CPlayerEntity@@UAEXXZ
       5026 13A1 0066ED30 ?LoadStringAction@CWorld@@AAEXXZ
       5027 13A2 0066F070 ?LoadStringAffinity@CWorld@@AAEXXZ
       5028 13A3 0066EEF0 ?LoadStringCombo@CWorld@@AAEXXZ
       5029 13A4 00830B80 ?LoadStringData@CUIManager@@IAEXABVCTFileName@@@Z
       5030 13A5 0066DEB0 ?LoadStringItem@CWorld@@AAEXXZ
       5031 13A6 0066F2E0 ?LoadStringItemCollection@CWorld@@AAEXXZ
       5032 13A7 0066E0B0 ?LoadStringItemSet@CWorld@@AAEXXZ
       5033 13A8 0066F1F0 ?LoadStringLacarette@CWorld@@AAEXXZ
       5034 13A9 0066E570 ?LoadStringNPCName@CWorld@@QAEXXZ
       5035 13AA 0066E230 ?LoadStringOption@CWorld@@AAEXXZ
       5036 13AB 0066E3D0 ?LoadStringOptionRare@CWorld@@AAEXXZ
       5037 13AC 0066E760 ?LoadStringQuest@CWorld@@AAEXXZ
       5038 13AD 0066E960 ?LoadStringSkill@CWorld@@AAEXXZ
       5039 13AE 0066EB40 ?LoadStringSkillSpecial@CWorld@@AAEXXZ
       5040 13AF 009EFBD0 ?LoadStringVar@@YAXABVCTFileName@@AAVCTString@@@Z
       5041 13B0 00362940 ?LoadTGA_t@CImageInfo@@AAEXABVCTFileName@@@Z
       5042 13B1 0015A160 ?LoadTooltipString@CUICharacterInfo@@AAEXXZ
       5043 13B2 009EF9D0 ?LoadVar@CTString@@QAEXABVCTFileName@@@Z
       5044 13B3 003D22A0 ?LoadWAV_t@CSoundData@@QAEXPAVCTStream@@J@Z
       5045 13B4 002CF420 ?LoadXML@CUIWindowDeclare@@QAE_NPBD@Z
       5046 13B5 005C4A60 ?LoadZoneData@CMobData@@SA_NPBD@Z
       5047 13B6 003E6690 ?Load_t@CEditModel@@QAEXVCTFileName@@@Z
       5048 13B7 0049A320 ?Load_t@CNetworkLibrary@@QAEXABVCTFileName@@@Z
       5049 13B8 005CB9B0 ?Load_t@CPlayerCharacter@@QAEXABVCTFileName@@@Z
       5050 13B9 00A0AC60 ?Load_t@CSerial@@QAEXABVCTFileName@@@Z
       5051 13BA 009EE9E0 ?Load_t@CTString@@QAEXABVCTFileName@@@Z
       5052 13BB 00455280 ?Load_t@CWorld@@QAEXABVCTFileName@@@Z
       5053 13BC 00455470 ?Load_t_ext@CWorld@@QAEXABVCTFileName@@@Z
       5054 13BD 00015350 ?Lock@CDrawPort@@QAEHXZ
       5055 13BE 00A23C70 ?Lock@CTSingleLock@@QAEXXZ
       5056 13BF 0022E090 ?Lock@CUICharacterCreateNew@@QAEXH@Z
       5057 13C0 00246560 ?Lock@CUILoginNew@@QAEXH@Z
       5058 13C1 00A43400 ?LockAll@CBrushSector@@QAEXXZ
       5059 13C2 0041EEB0 ?LockAll@CWorld@@QAEXXZ
       5060 13C3 00A20350 ?LockBuffer@CTMemoryStream@@QAEXPAPAXPAJ@Z
       5061 13C4 00358720 ?LockDrawPort@CGfxLibrary@@QAEHPAVCDrawPort@@@Z
       5062 13C5 0035A380 ?LockRaster@CGfxLibrary@@QAEHPAVCRaster@@@Z
       5063 13C6 0030C370 ?Lock_internal@CDrawPort@@QAEHXZ
       5064 13C7 0041B8E0 ?LogOutput@@YAXPBDZZ
       5065 13C8 0041BA10 ?LogOutputChat@@YAXPBDZZ
       5066 13C9 002D2390 ?LoginModelCreate@CLoginJobInfo@@QAEXXZ
       5067 13CA 002D2400 ?LoginModelDelete@CLoginJobInfo@@QAEXXZ
       5068 13CB 00646600 ?LoopAnimEffect@CModelInstance@@QAEXJMMM@Z
       5069 13CC 004B7CA0 ?LordCostumeReq@CNetworkLibrary@@QAEXXZ
       5070 13CD 004B7D70 ?LordGuildCostumeReq@CNetworkLibrary@@QAEXXZ
       5071 13CE 004B7E40 ?LordGuildTitleReq@CNetworkLibrary@@QAEXXZ
       5072 13CF 00A7F9B0 ?LostTarget@CPlayerEntity@@UAEXXZ
       5073 13D0 008378B0 ?LostTarget@CUIManager@@QAEXXZ
       5074 13D1 00A01ED0 ?MEM_CAlloc@@YAPAXII@Z
       5075 13D2 00A01E50 ?MEM_Free@@YAXPAX@Z
       5076 13D3 00A01F70 ?MEM_GetFreeMemory@@YAIXZ
       5077 13D4 00A01D50 ?MEM_MAlloc@@YAPAXI@Z
       5078 13D5 00A01E80 ?MEM_ReAlloc@@YAPAXPAXI@Z
       5079 13D6 00A01F30 ?MEM_Size@@YAIPAX@Z
       5080 13D7 0049C2F0 ?MainLoop@CNetworkLibrary@@QAEXXZ
       5081 13D8 007127E0 ?MainTabFrameInit@CUICashShopEX@@IAEXMM@Z
       5082 13D9 00A30250 ?MakeAttributeMap@CBrushArchive@@QAEXJPAGJJJPAVCWorld@@H@Z
       5083 13DA 005974B0 ?MakeBoxAtPlacement@CCollisionInfo@@QAEXABV?$Vector@M$02@@ABV?$Matrix@M$02$02@@AAV?$AABBox@M$02@@@Z
       5084 13DB 000099B0 ?MakeCopy@CEntityEvent@@UAEPAV1@XZ
       5085 13DC 00A6E2C0 ?MakeCopy@EBegin@@UAEPAVCEntityEvent@@XZ
       5086 13DD 00A6E7A0 ?MakeCopy@EBlock@@UAEPAVCEntityEvent@@XZ
       5087 13DE 00A6EE10 ?MakeCopy@EDamage@@UAEPAVCEntityEvent@@XZ
       5088 13DF 00A6EFD0 ?MakeCopy@EDeath@@UAEPAVCEntityEvent@@XZ
       5089 13E0 00A6ED30 ?MakeCopy@EFirstWorldBase@@UAEPAVCEntityEvent@@XZ
       5090 13E1 00A6E020 ?MakeCopy@EInternal@@UAEPAVCEntityEvent@@XZ
       5091 13E2 00A6E620 ?MakeCopy@EPass@@UAEPAVCEntityEvent@@XZ
       5092 13E3 00A6F260 ?MakeCopy@EPlayerInit@@UAEPAVCEntityEvent@@XZ
       5093 13E4 00A6EC10 ?MakeCopy@EPostLevelChange@@UAEPAVCEntityEvent@@XZ
       5094 13E5 00A6EAF0 ?MakeCopy@EPreLevelChange@@UAEPAVCEntityEvent@@XZ
       5095 13E6 00A6E1E0 ?MakeCopy@EReturn@@UAEPAVCEntityEvent@@XZ
       5096 13E7 00A6F140 ?MakeCopy@ETakingBreath@@UAEPAVCEntityEvent@@XZ
       5097 13E8 00A6EA10 ?MakeCopy@ETeleport@@UAEPAVCEntityEvent@@XZ
       5098 13E9 00A6E3A0 ?MakeCopy@ETimer@@UAEPAVCEntityEvent@@XZ
       5099 13EA 00A6E480 ?MakeCopy@ETouch@@UAEPAVCEntityEvent@@XZ
       5100 13EB 00A6E100 ?MakeCopy@EVoid@@UAEPAVCEntityEvent@@XZ
       5101 13EC 00A6E930 ?MakeCopy@EWouldFall@@UAEPAVCEntityEvent@@XZ
       5102 13ED 009F4890 ?MakeDirList@@YAXAAV?$CDynamicStackArray@VCTFileName@@@@ABVCTFileName@@ABVCTString@@K@Z
       5103 13EE 00A33B80 ?MakeFreePKAttributeMap@CBrushArchive@@QAEXPAGJJJPAVCWorld@@H@Z
       5104 13EF 00A2E3B0 ?MakeIndices@CBrushArchive@@QAEXXZ
       5105 13F0 005CFD10 ?MakeInfoForCondition@CQuestSystem@@QAE?AVCTString@@HHHHH@Z
       5106 13F1 002D3080 ?MakeInverseRotationMatrix@@YAXAAV?$Matrix@M$02$02@@ABV?$Vector@M$02@@@Z
       5107 13F2 002D3260 ?MakeInverseRotationMatrixFast@@YAXAAV?$Matrix@M$02$02@@ABV?$Vector@M$02@@@Z
       5108 13F3 002FE950 ?MakeMappingVectors@CMappingDefinition@@QBEXABVCMappingVectors@@AAV2@@Z
       5109 13F4 009B3660 ?MakeMessageBox@CUITatoo@@AAEXXZ
       5110 13F5 0035F990 ?MakeMipmaps@@YAXPAKJJJ@Z
       5111 13F6 002F4FF0 ?MakeOoKGradient@CIsometricProjection3D@@UBEXABV?$Plane@M$02@@AAVCPlanarGradients@@@Z
       5112 13F7 002F7C10 ?MakeOoKGradient@CParallelProjection3D@@UBEXABV?$Plane@M$02@@AAVCPlanarGradients@@@Z
       5113 13F8 002FA860 ?MakeOoKGradient@CPerspectiveProjection3D@@UBEXABV?$Plane@M$02@@AAVCPlanarGradients@@@Z
       5114 13F9 002FC340 ?MakeOoKGradient@CSimpleProjection3D@@UBEXABV?$Plane@M$02@@AAVCPlanarGradients@@@Z
       5115 13FA 00A30FA0 ?MakePeaceAttributeMap@CBrushArchive@@QAEXPAGJJJPAVCWorld@@H@Z
       5116 13FB 00A43800 ?MakePlanesFromVertices@CBrushSector@@QAEXXZ
       5117 13FC 00A325A0 ?MakeProductPrivateAttributeMap@CBrushArchive@@QAEXPAGJJJPAVCWorld@@H@Z
       5118 13FD 00A31AB0 ?MakeProductPublicAttributeMap@CBrushArchive@@QAEXPAGJJJPAVCWorld@@H@Z
       5119 13FE 00012F60 ?MakeQuestComplete@CQuestDynamicData@@QAEXXZ
       5120 13FF 005CCF40 ?MakeQuestFirstDesc@CQuestDynamicData@@IAEXXZ
       5121 1400 005CE7D0 ?MakeQuestNeedDesc@CQuestDynamicData@@IAEXXZ
       5122 1401 005CE4C0 ?MakeQuestOptionPrizeDesc@CQuestDynamicData@@IAEXXZ
       5123 1402 005CDF30 ?MakeQuestPrizeDesc@CQuestDynamicData@@IAEXXZ
       5124 1403 005CDAF0 ?MakeQuestStatusDesc@CQuestDynamicData@@IAEXXZ
       5125 1404 005CCF90 ?MakeQuestTitleDesc@CQuestDynamicData@@IAEXXZ
       5126 1405 00012F80 ?MakeQuestUncomplete@CQuestDynamicData@@QAEXXZ
       5127 1406 002D2CC0 ?MakeRotationMatrix@@YAXAAV?$Matrix@M$02$02@@ABV?$Vector@M$02@@@Z
       5128 1407 002D2EA0 ?MakeRotationMatrixFast@@YAXAAV?$Matrix@M$02$02@@ABV?$Vector@M$02@@@Z
       5129 1408 005E6B70 ?MakeShadowMap@CBrushPolygon@@QAEXPAVCWorld@@H@Z
       5130 1409 00A34730 ?MakeStairAttributeMap@CBrushArchive@@QAEXPAGJJJPAVCWorld@@H@Z
       5131 140A 0035FCF0 ?MakeSubMipmap@@YAXPAK0J@Z
       5132 140B 00A37380 ?MakeSvrHeightMap@CBrushArchive@@QAEXPAGJJJH@Z
       5133 140C 00A35260 ?MakeUnWalkableAttributeMap@CBrushArchive@@QAEXPAGJJJPAVCWorld@@H@Z
       5134 140D 00A303D0 ?MakeWalkableAttributeMap@CBrushArchive@@QAEXPAGJJJPAVCWorld@@H@Z
       5135 140E 00A33090 ?MakeWarAttributeMap@CBrushArchive@@QAEXPAGJJJPAVCWorld@@H@Z
       5136 140F 0030B590 ?MakeWideScreen@CDrawPort@@QAEXPAV1@@Z
       5137 1410 00328C70 ?Make_t@CFontData@@QAEXABVCTFileName@@JJAAV2@H@Z
       5138 1411 000F8110 ?MandateBoss@Party@@QAEXVCTString@@J0C@Z
       5139 1412 004B01B0 ?MandateBossReq@CNetworkLibrary@@QAEXVCTString@@@Z
       5140 1413 000F7F00 ?MandateBossReq@Party@@QAEXVCTString@@@Z
       5141 1414 009E8AC0 ?MarkChanged@CChangeable@@QAEXXZ
       5142 1415 009E8B60 ?MarkChanged@CChangeableRT@@QAEXXZ
       5143 1416 00370550 ?MarkDrawn@CShadowMap@@QAEXXZ
       5144 1417 000071D0 ?MarkDrawn@CTextureData@@QAEXXZ
       5145 1418 00A0B0F0 ?MarkUnused@CSerial@@QAEXXZ
       5146 1419 00A2D0C0 ?MarkUpdated@CUpdateable@@QAEXXZ
       5147 141A 00A2D150 ?MarkUpdated@CUpdateableRT@@QAEXXZ
       5148 141B 00A0B040 ?MarkUsed@CSerial@@QAEXXZ
       5149 141C 004F46A0 ?MaskOfPlayersOnClient@CServer@@QAEKJ@Z
       5150 141D 009EF750 ?Matches@CTString@@QBEHABV1@@Z
       5151 141E 009EF780 ?Matches@CTString@@QBEHPBD@Z
       5152 141F 00653470 ?Matrix12ToQVect@@YAXAAUQVect@@AAY0M@$$CBM@Z
       5153 1420 00723020 ?Message@CUICashShopEX@@QAEXHVCTString@@0K@Z
       5154 1421 007A1EC0 ?Message@CUIGuildStash@@QAEXHVCTString@@K@Z
       5155 1422 004B2610 ?MgrBlock@CNetworkLibrary@@QAEXVCTString@@@Z
       5156 1423 004ADA00 ?MgrDeleteMember@CNetworkLibrary@@QAEXHHVCTString@@@Z
       5157 1424 004B2500 ?MgrFriendChat@CNetworkLibrary@@QAEXHHVCTString@@@Z
       5158 1425 004ADC00 ?MgrFriendDeleteBlock@CNetworkLibrary@@QAEXH@Z
       5159 1426 004B2310 ?MgrFriendInvite@CNetworkLibrary@@QAEXHHH@Z
       5160 1427 004B2410 ?MgrFriendOut@CNetworkLibrary@@QAEXHH@Z
       5161 1428 004B27E0 ?MgrGroupAdd@CNetworkLibrary@@QAEXVCTString@@@Z
       5162 1429 004B28D0 ?MgrGroupDel@CNetworkLibrary@@QAEXH@Z
       5163 142A 004B2AB0 ?MgrGroupMove@CNetworkLibrary@@QAEXHH@Z
       5164 142B 004B29B0 ?MgrGroupRename@CNetworkLibrary@@QAEXHVCTString@@@Z
       5165 142C 004B2120 ?MgrOneVsOneConnect@CNetworkLibrary@@QAEXHHVCTString@@@Z
       5166 142D 004AD820 ?MgrRegistAllow@CNetworkLibrary@@QAEXHVCTString@@@Z
       5167 142E 004ADB10 ?MgrRegistCancel@CNetworkLibrary@@QAEXHVCTString@@@Z
       5168 142F 004AD710 ?MgrRegistReq@CNetworkLibrary@@QAEXHVCTString@@@Z
       5169 1430 004B2BA0 ?MgrSetChatColor@CNetworkLibrary@@QAEXH@Z
       5170 1431 004AD910 ?MgrSetCondition@CNetworkLibrary@@QAEXHH@Z
       5171 1432 004B2700 ?MgrUnBlock@CNetworkLibrary@@QAEXH@Z
       5172 1433 002F5520 ?MipFactor@CIsometricProjection3D@@UBEMM@Z
       5173 1434 002F55F0 ?MipFactor@CIsometricProjection3D@@UBEMXZ
       5174 1435 002F81A0 ?MipFactor@CParallelProjection3D@@UBEMM@Z
       5175 1436 002F8270 ?MipFactor@CParallelProjection3D@@UBEMXZ
       5176 1437 002FAF50 ?MipFactor@CPerspectiveProjection3D@@UBEMM@Z
       5177 1438 002FB050 ?MipFactor@CPerspectiveProjection3D@@UBEMXZ
       5178 1439 002FC750 ?MipFactor@CSimpleProjection3D@@UBEMM@Z
       5179 143A 002FC840 ?MipFactor@CSimpleProjection3D@@UBEMXZ
       5180 143B 00593380 ?MirrorAndStretch@CEntity@@UAEXMH@Z
       5181 143C 005B1480 ?MirrorAndStretch@CWorld@@QAEXAAV1@MW4WorldMirrorType@@@Z
       5182 143D 00005060 ?MirrorPlaneL@CProjection3D@@QAEAAV?$Plane@M$02@@XZ
       5183 143E 000050A0 ?MirrorPlaneR@CProjection3D@@QBEABV?$Plane@M$02@@XZ
       5184 143F 00A72300 ?MiscDamageInflictor@CMovableEntity@@QAEPAVCEntity@@XZ
       5185 1440 005E9430 ?MixLayers@CBrushShadowMap@@UAEXJJH@Z
       5186 1441 00371010 ?MixLayers@CShadowMap@@UAEXJJH@Z
       5187 1442 0049F620 ?MixReq@CNetworkLibrary@@QAEXFFPAF0@Z
       5188 1443 003DA3E0 ?MixSounds@CSoundLibrary@@AAEXXZ
       5189 1444 00A5EE50 ?ModelChangeFace@CGameState@@QAEXPAVCEntity@@HJ@Z
       5190 1445 00A5EEC0 ?ModelChangeHair@CGameState@@QAEXPAVCEntity@@HJ@Z
       5191 1446 005A00A0 ?ModelChangeNotify@CEntity@@QAEXXZ
       5192 1447 00A5EF30 ?ModelPlayAnimation@CGameState@@QAEXPAVCEntity@@HJK@Z
       5193 1448 00283620 ?MouseMessage@CUIBase@@UAE?AW4WMSG_RESULT@@PAUtagMSG@@@Z
       5194 1449 006FC180 ?MouseMessage@CUIButton@@UAE?AW4WMSG_RESULT@@PAUtagMSG@@@Z
       5195 144A 0070AE20 ?MouseMessage@CUICashShopEX@@UAE?AW4WMSG_RESULT@@PAUtagMSG@@@Z
       5196 144B 00726CB0 ?MouseMessage@CUICheckButton@@UAE?AW4WMSG_RESULT@@PAUtagMSG@@@Z
       5197 144C 00730820 ?MouseMessage@CUIComboBox@@UAE?AW4WMSG_RESULT@@PAUtagMSG@@@Z
       5198 144D 0073A3A0 ?MouseMessage@CUIEditBox@@UAE?AW4WMSG_RESULT@@PAUtagMSG@@@Z
       5199 144E 0016FA20 ?MouseMessage@CUIExpressSystem@@UAE?AW4WMSG_RESULT@@PAUtagMSG@@@Z
       5200 144F 00793AB0 ?MouseMessage@CUIGuildBattle@@UAE?AW4WMSG_RESULT@@PAUtagMSG@@@Z
       5201 1450 007D6A10 ?MouseMessage@CUIImageBox@@UAE?AW4WMSG_RESULT@@PAUtagMSG@@@Z
       5202 1451 0080BB30 ?MouseMessage@CUIListBox@@UAE?AW4WMSG_RESULT@@PAUtagMSG@@@Z
       5203 1452 008B8B70 ?MouseMessage@CUIOption@@UAE?AW4WMSG_RESULT@@PAUtagMSG@@@Z
       5204 1453 00949030 ?MouseMessage@CUIScrollBar@@UAE?AW4WMSG_RESULT@@PAUtagMSG@@@Z
       5205 1454 00980E50 ?MouseMessage@CUISingleBattle@@UAE?AW4WMSG_RESULT@@PAUtagMSG@@@Z
       5206 1455 00992870 ?MouseMessage@CUISlideBar@@UAE?AW4WMSG_RESULT@@PAUtagMSG@@@Z
       5207 1456 009A5DD0 ?MouseMessage@CUISpinButton@@UAE?AW4WMSG_RESULT@@PAUtagMSG@@@Z
       5208 1457 009B3D70 ?MouseMessage@CUITatoo@@UAE?AW4WMSG_RESULT@@PAUtagMSG@@@Z
       5209 1458 002848F0 ?MouseMove@CUIBase@@UAE?AW4WMSG_RESULT@@GGPAUtagMSG@@@Z
       5210 1459 002CA3B0 ?MouseMove@CUITree@@UAE?AW4WMSG_RESULT@@GGPAUtagMSG@@@Z
       5211 145A 00284A30 ?MouseMoveChild@CUIBase@@UAE?AW4WMSG_RESULT@@GGPAUtagMSG@@@Z
       5212 145B 0071F180 ?MouseMoveLoop@CUICashShopEX@@IAE?AW4WMSG_RESULT@@PAUtagMSG@@W4CashShopFrame@1@@Z
       5213 145C 00284C10 ?MouseWheel@CUIBase@@UAE?AW4WMSG_RESULT@@GGH@Z
       5214 145D 002CA520 ?MouseWheel@CUITree@@UAE?AW4WMSG_RESULT@@GGH@Z
       5215 145E 00284D10 ?MouseWheelChild@CUIBase@@UAE?AW4WMSG_RESULT@@GGH@Z
       5216 145F 00015720 ?Move@CUIBase@@QAEXHH@Z
       5217 1460 00230D80 ?MoveAcceleration@CParticle@@QAEXM@Z
       5218 1461 00739510 ?MoveCursor@CUIEditBox@@IAEXW4MoveDirection@@@Z
       5219 1462 002A8330 ?MoveData@CUISpinControl@@QAEX_N@Z
       5220 1463 009A62B0 ?MoveDataIndex@CUISpinButton@@QAEXH@Z
       5221 1464 00441E60 ?MoveEntityInCollisionGrid@CWorld@@QAEXPAVCEntity@@ABV?$AABBox@M$02@@1@Z
       5222 1465 009FFA10 ?MoveList@CListHead@@QAEXAAV1@@Z
       5223 1466 00525F80 ?MoveOtherServer@CSessionState@@QAEXKVCTString@@K@Z
       5224 1467 003ED630 ?MovePatchRelative@CEditModel@@QAEXJV?$Vector@J$01@@@Z
       5225 1468 00A40910 ?MovePolygonEdges@CBrushPolygon@@QAEXAAV1@@Z
       5226 1469 006C6BD0 ?MoveProcess@CParticlesAbsorption@@IAEXAAVCParticle@@M@Z
       5227 146A 00721EA0 ?MovePurchaseGoods@CUICashShopEX@@IAEXH@Z
       5228 146B 00948D40 ?MoveScrollPos@CUIScrollBar@@IAEXH@Z
       5229 146C 0080A660 ?MoveString@CUIListBox@@QAEXHHH@Z
       5230 146D 00444BF0 ?MoveTargetBrushPartToObject@CWorld@@QAEXAAVCEntity@@AAV?$AABBox@N$02@@AAVCObject3D@@@Z
       5231 146E 00230C70 ?MoveVelocity@CParticle@@QAEXM@Z
       5232 146F 00592B50 ?MovesByTargetedRoute@CEntity@@UBEHAAVCTString@@@Z
       5233 1470 008338E0 ?MsgBoxBtnCommand@CUIManager@@QAEXHHAAVCTString@@@Z
       5234 1471 0070E7A0 ?MsgBoxCommand@CUICashShopEX@@UAEXHHAAVCTString@@0@Z
       5235 1472 0070E780 ?MsgBoxCommand@CUICashShopEX@@UAEXHHAAVCTString@@@Z
       5236 1473 00150100 ?MsgBoxCommand@CUICharacterInfo@@UAEXHHAAVCTString@@@Z
       5237 1474 00170490 ?MsgBoxCommand@CUIExpressSystem@@UAEXHHAAVCTString@@@Z
       5238 1475 00794200 ?MsgBoxCommand@CUIGuildBattle@@UAEXHHAAVCTString@@@Z
       5239 1476 008374F0 ?MsgBoxCommand@CUIManager@@QAEXHHAAVCTString@@0@Z
       5240 1477 008340E0 ?MsgBoxCommand@CUIManager@@QAEXHHAAVCTString@@@Z
       5241 1478 0070E7C0 ?MsgBoxLCommand@CUICashShopEX@@UAEXHH@Z
       5242 1479 00150170 ?MsgBoxLCommand@CUICharacterInfo@@UAEXHH@Z
       5243 147A 00794300 ?MsgBoxLCommand@CUIGuildBattle@@UAEXHH@Z
       5244 147B 0001E980 ?MsgBoxLCommand@CUIManager@@QAEXHH@Z
       5245 147C 008377F0 ?MsgCommonCommand@CUIManager@@QAEXH@Z
       5246 147D 0082E790 ?MsgProc@CUIManager@@QAEXPAUtagMSG@@PAH@Z
       5247 147E 00173990 ?MsgProc@MsgBoxMgr@@QAE?AW4WMSG_RESULT@@PAUtagMSG@@@Z
       5248 147F 0083D860 ?MsgProcWeb@CUIManager@@QAEXPAUtagMSG@@@Z
       5249 1480 00830150 ?MsgSimpleProc@CUIManager@@QAEXPAUtagMSG@@@Z
       5250 1481 00306930 ?MulColors@@YAKKK@Z
       5251 1482 003D8690 ?Mute@CSoundLibrary@@QAEXM@Z
       5252 1483 0083CA70 ?MyCheckDratanWarInside@CUIManager@@QAEHXZ
       5253 1484 005A8D10 ?NameForValue@CEntityPropertyEnumType@@QAEPBDJ@Z
       5254 1485 008244B0 ?NasNumToWord@CUIManager@@QAE?AVCTString@@_J@Z
       5255 1486 00004E80 ?NearClipDistanceL@CProjection3D@@QAEAAMXZ
       5256 1487 00004EB0 ?NearClipDistanceR@CProjection3D@@QBEABMXZ
       5257 1488 005A7F70 ?New@CEntityClass@@QAEPAVCEntity@@XZ
       5258 1489 00A2D3E0 ?NewBrushMipAfter@CBrush3D@@QAEPAVCBrushMip@@PAV2@H@Z
       5259 148A 00A2D550 ?NewBrushMipBefore@CBrush3D@@QAEPAVCBrushMip@@PAV2@H@Z
       5260 148B 0059CB20 ?NewClearState@CEntity@@QAEXMJ@Z
       5261 148C 006430F0 ?NewClearState@CModelInstance@@QAEXM@Z
       5262 148D 0059C850 ?NewClonedState@CEntity@@QAEXMJ@Z
       5263 148E 00643030 ?NewClonedState@CModelInstance@@QAEXM@Z
       5264 148F 003E9F90 ?NewModel@CEditModel@@AAEXPAVCObject3D@@@Z
       5265 1490 009E6810 ?NextAnim@CAnimObject@@QAEXXZ
       5266 1491 009E6B30 ?NextFrame@CAnimObject@@QAEXXZ
       5267 1492 00402060 ?NextManualMipLevel@CModelObject@@QAEXXZ
       5268 1493 00122660 ?NextQuestViewPage@Quest@@QAE_NXZ
       5269 1494 009F5E50 ?NoExt@CTFileName@@QBE?AV1@XZ
       5270 1495 004ED640 ?Normalize@CPlayerAction@@QAEXXZ
       5271 1496 005A11E0 ?NotifyCollisionChanged@CEntity@@QAEXXZ
       5272 1497 005A0FE0 ?NotifyGravityChanged@CEntity@@QAEXXZ
       5273 1498 00154690 ?NotifyStatPoint@CUICharacterInfo@@QAEXXZ
       5274 1499 00005180 ?ObjectFaceForwardL@CProjection3D@@QAEAAHXZ
       5275 149A 000051B0 ?ObjectFaceForwardR@CProjection3D@@QBEABHXZ
       5276 149B 000051D0 ?ObjectHalfFaceForwardL@CProjection3D@@QAEAAHXZ
       5277 149C 00005200 ?ObjectHalfFaceForwardR@CProjection3D@@QBEABHXZ
       5278 149D 00004DE0 ?ObjectHandleL@CProjection3D@@QAEAAV?$Vector@M$02@@XZ
       5279 149E 00004E10 ?ObjectHandleR@CProjection3D@@QBEABV?$Vector@M$02@@XZ
       5280 149F 00004D90 ?ObjectPlacementL@CProjection3D@@QAEAAVCPlacement3D@@XZ
       5281 14A0 002D4EA0 ?ObjectPlacementL@CSimpleProjection3D_DOUBLE@@QAEAAVCPlacement3D@@XZ
       5282 14A1 00004DC0 ?ObjectPlacementR@CProjection3D@@QBEABVCPlacement3D@@XZ
       5283 14A2 002D4EC0 ?ObjectPlacementR@CSimpleProjection3D_DOUBLE@@QBEABVCPlacement3D@@XZ
       5284 14A3 00004FC0 ?ObjectStretchL@CProjection3D@@QAEAAV?$Vector@M$02@@XZ
       5285 14A4 002D4EE0 ?ObjectStretchL@CSimpleProjection3D_DOUBLE@@QAEAAV?$Vector@M$02@@XZ
       5286 14A5 00004FF0 ?ObjectStretchR@CProjection3D@@QBEABV?$Vector@M$02@@XZ
       5287 14A6 002D4F10 ?ObjectStretchR@CSimpleProjection3D_DOUBLE@@QBEABV?$Vector@M$02@@XZ
       5288 14A7 005A8060 ?ObtainComponents_t@CEntityClass@@QAEXXZ
       5289 14A8 00645130 ?ObtainModelInstanceItem_t@@YAPAVCModelInstance@@AAV1@ABVCTString@@@Z
       5290 14A9 006453D0 ?ObtainModelInstance_t@@YAPAVCModelInstance@@ABVCTString@@@Z
       5291 14AA 00645280 ?ObtainModelInstance_t@@YAXAAVCModelInstance@@ABVCTString@@@Z
       5292 14AB 005B3060 ?ObtainWithCheck@CEntityComponent@@QAEXXZ
       5293 14AC 005B2D50 ?Obtain_t@CEntityComponent@@QAEXXZ
       5294 14AD 0046DDC0 ?Obtain_t@CStock_CAnimData@@QAEPAVCAnimData@@ABVCTFileName@@@Z
       5295 14AE 004715B0 ?Obtain_t@CStock_CAnimSet@@QAEPAVCAnimSet@@ABVCTFileName@@@Z
       5296 14AF 00474510 ?Obtain_t@CStock_CEntityClass@@QAEPAVCEntityClass@@ABVCTFileName@@@Z
       5297 14B0 00477470 ?Obtain_t@CStock_CFontData@@QAEPAVCFontData@@ABVCTFileName@@@Z
       5298 14B1 0047A3D0 ?Obtain_t@CStock_CMesh@@QAEPAVCMesh@@ABVCTFileName@@@Z
       5299 14B2 0047CE60 ?Obtain_t@CStock_CModelData@@QAEPAVCModelData@@ABVCTFileName@@@Z
       5300 14B3 0047F8F0 ?Obtain_t@CStock_CModelInstance@@QAEPAVCModelInstanceSerial@@ABVCTFileName@@@Z
       5301 14B4 00482850 ?Obtain_t@CStock_CShader@@QAEPAVCShader@@ABVCTFileName@@@Z
       5302 14B5 00485620 ?Obtain_t@CStock_CSkeleton@@QAEPAVCSkeleton@@ABVCTFileName@@@Z
       5303 14B6 00488580 ?Obtain_t@CStock_CSoundData@@QAEPAVCSoundData@@ABVCTFileName@@@Z
       5304 14B7 0048B010 ?Obtain_t@CStock_CTextureData@@QAEPAVCTextureData@@ABVCTFileName@@@Z
       5305 14B8 0059D580 ?OffSetAnimationQueue@CEntity@@QAEXMJ@Z
       5306 14B9 00643460 ?OffSetAnimationQueue@CModelInstance@@QAEXM@Z
       5307 14BA 009E67E0 ?OffsetPhase@CAnimObject@@QAEXM@Z
       5308 14BB 000AECD0 ?OffsetProgressPos@CUIProgressBar@@QAE?B_J_J@Z
       5309 14BC 002AA760 ?OnChangeTab@CUITab@@QAEXH@Z
       5310 14BD 00016230 ?OnCharMessage@CUIBase@@UAE?AW4WMSG_RESULT@@PAUtagMSG@@@Z
       5311 14BE 0022E210 ?OnCharMessage@CUICharacterCreateNew@@UAE?AW4WMSG_RESULT@@PAUtagMSG@@@Z
       5312 14BF 0073C710 ?OnCharMessage@CUIEditBox@@UAE?AW4WMSG_RESULT@@PAUtagMSG@@@Z
       5313 14C0 002A8600 ?OnCharMessage@CUISpinControl@@UAE?AW4WMSG_RESULT@@PAUtagMSG@@@Z
       5314 14C1 00016270 ?OnCloseProc@CUIBase@@UAE?AW4WMSG_RESULT@@XZ
       5315 14C2 0073CC80 ?OnCloseProc@CUIEditBox@@UAE?AW4WMSG_RESULT@@XZ
       5316 14C3 00298930 ?OnCloseProc@CUIIcon@@MAE?AW4WMSG_RESULT@@XZ
       5317 14C4 005934E0 ?OnEnd@CEntity@@UAEXXZ
       5318 14C5 00A70870 ?OnEnd@CMovableEntity@@UAEXXZ
       5319 14C6 005A30A0 ?OnEnd@CRationalEntity@@UAEXXZ
       5320 14C7 002854E0 ?OnEnter@CUIBase@@UAEXGG@Z
       5321 14C8 006FD1D0 ?OnEnter@CUIButton@@UAEXGG@Z
       5322 14C9 00298DC0 ?OnEnter@CUIIcon@@UAEXGG@Z
       5323 14CA 002C8CD0 ?OnEnter@CUITreeItem@@UAEXGG@Z
       5324 14CB 00016250 ?OnIMEMessage@CUIBase@@UAE?AW4WMSG_RESULT@@PAUtagMSG@@@Z
       5325 14CC 0073C790 ?OnIMEMessage@CUIEditBox@@UAE?AW4WMSG_RESULT@@PAUtagMSG@@@Z
       5326 14CD 00593400 ?OnInitialize@CEntity@@UAEXABVCEntityEvent@@@Z
       5327 14CE 00A70740 ?OnInitialize@CMovableEntity@@UAEXABVCEntityEvent@@@Z
       5328 14CF 005A2F80 ?OnInitialize@CRationalEntity@@UAEXABVCEntityEvent@@@Z
       5329 14D0 00016210 ?OnKeyMessage@CUIBase@@UAE?AW4WMSG_RESULT@@PAUtagMSG@@@Z
       5330 14D1 0022E1B0 ?OnKeyMessage@CUICharacterCreateNew@@UAE?AW4WMSG_RESULT@@PAUtagMSG@@@Z
       5331 14D2 0073CC40 ?OnKeyMessage@CUIEditBox@@UAE?AW4WMSG_RESULT@@PAUtagMSG@@@Z
       5332 14D3 00247340 ?OnKeyMessage@CUILoginNew@@UAE?AW4WMSG_RESULT@@PAUtagMSG@@@Z
       5333 14D4 002A87A0 ?OnKeyMessage@CUISpinControl@@UAE?AW4WMSG_RESULT@@PAUtagMSG@@@Z
       5334 14D5 00016150 ?OnLButtonDBLClick@CUIBase@@UAE?AW4WMSG_RESULT@@GG@Z
       5335 14D6 002990B0 ?OnLButtonDBLClick@CUIIcon@@UAE?AW4WMSG_RESULT@@GG@Z
       5336 14D7 002A1A10 ?OnLButtonDBLClick@CUIList@@UAE?AW4WMSG_RESULT@@GG@Z
       5337 14D8 002A20E0 ?OnLButtonDBLClick@CUIListItem@@UAE?AW4WMSG_RESULT@@GG@Z
       5338 14D9 00280680 ?OnLButtonDown@CUIArray@@UAE?AW4WMSG_RESULT@@GG@Z
       5339 14DA 00016110 ?OnLButtonDown@CUIBase@@UAE?AW4WMSG_RESULT@@GG@Z
       5340 14DB 006FD010 ?OnLButtonDown@CUIButton@@UAE?AW4WMSG_RESULT@@GG@Z
       5341 14DC 00156320 ?OnLButtonDown@CUICharacterInfo@@UAE?AW4WMSG_RESULT@@GG@Z
       5342 14DD 00726FE0 ?OnLButtonDown@CUICheckButton@@UAE?AW4WMSG_RESULT@@GG@Z
       5343 14DE 00732020 ?OnLButtonDown@CUIComboBox@@UAE?AW4WMSG_RESULT@@GG@Z
       5344 14DF 0073C810 ?OnLButtonDown@CUIEditBox@@UAE?AW4WMSG_RESULT@@GG@Z
       5345 14E0 00298F40 ?OnLButtonDown@CUIIcon@@UAE?AW4WMSG_RESULT@@GG@Z
       5346 14E1 002A1790 ?OnLButtonDown@CUIList@@UAE?AW4WMSG_RESULT@@GG@Z
       5347 14E2 002A2060 ?OnLButtonDown@CUIListItem@@UAE?AW4WMSG_RESULT@@GG@Z
       5348 14E3 0094A480 ?OnLButtonDown@CUIScrollBar@@UAE?AW4WMSG_RESULT@@GG@Z
       5349 14E4 002AC420 ?OnLButtonDown@CUIText@@UAE?AW4WMSG_RESULT@@GG@Z
       5350 14E5 002C8B90 ?OnLButtonDown@CUITreeItem@@UAE?AW4WMSG_RESULT@@GG@Z
       5351 14E6 002807C0 ?OnLButtonUp@CUIArray@@UAE?AW4WMSG_RESULT@@GG@Z
       5352 14E7 00016130 ?OnLButtonUp@CUIBase@@UAE?AW4WMSG_RESULT@@GG@Z
       5353 14E8 006FD0B0 ?OnLButtonUp@CUIButton@@UAE?AW4WMSG_RESULT@@GG@Z
       5354 14E9 001563D0 ?OnLButtonUp@CUICharacterInfo@@UAE?AW4WMSG_RESULT@@GG@Z
       5355 14EA 007322F0 ?OnLButtonUp@CUIComboBox@@UAE?AW4WMSG_RESULT@@GG@Z
       5356 14EB 0073C9A0 ?OnLButtonUp@CUIEditBox@@UAE?AW4WMSG_RESULT@@GG@Z
       5357 14EC 00299030 ?OnLButtonUp@CUIIcon@@UAE?AW4WMSG_RESULT@@GG@Z
       5358 14ED 002A2160 ?OnLButtonUp@CUIListItem@@UAE?AW4WMSG_RESULT@@GG@Z
       5359 14EE 0094A6C0 ?OnLButtonUp@CUIScrollBar@@UAE?AW4WMSG_RESULT@@GG@Z
       5360 14EF 009A6A10 ?OnLButtonUp@CUISpinButton@@UAE?AW4WMSG_RESULT@@GG@Z
       5361 14F0 002AC3A0 ?OnLButtonUp@CUIText@@UAE?AW4WMSG_RESULT@@GG@Z
       5362 14F1 002C8B00 ?OnLButtonUp@CUITreeItem@@UAE?AW4WMSG_RESULT@@GG@Z
       5363 14F2 00285560 ?OnLeave@CUIBase@@UAEXGG@Z
       5364 14F3 006FD160 ?OnLeave@CUIButton@@UAEXGG@Z
       5365 14F4 00298E40 ?OnLeave@CUIIcon@@UAEXGG@Z
       5366 14F5 002C8D30 ?OnLeave@CUITreeItem@@UAEXGG@Z
       5367 14F6 00280810 ?OnMouseMove@CUIArray@@UAE?AW4WMSG_RESULT@@GGPAUtagMSG@@@Z
       5368 14F7 000161D0 ?OnMouseMove@CUIBase@@UAE?AW4WMSG_RESULT@@GGPAUtagMSG@@@Z
       5369 14F8 00156420 ?OnMouseMove@CUICharacterInfo@@UAE?AW4WMSG_RESULT@@GGPAUtagMSG@@@Z
       5370 14F9 00732380 ?OnMouseMove@CUIComboBox@@UAE?AW4WMSG_RESULT@@GGPAUtagMSG@@@Z
       5371 14FA 0073C9F0 ?OnMouseMove@CUIEditBox@@UAE?AW4WMSG_RESULT@@GGPAUtagMSG@@@Z
       5372 14FB 00298EA0 ?OnMouseMove@CUIIcon@@UAE?AW4WMSG_RESULT@@GGPAUtagMSG@@@Z
       5373 14FC 002A1B60 ?OnMouseMove@CUIList@@UAE?AW4WMSG_RESULT@@GGPAUtagMSG@@@Z
       5374 14FD 002A2260 ?OnMouseMove@CUIListItem@@UAE?AW4WMSG_RESULT@@GGPAUtagMSG@@@Z
       5375 14FE 0094A760 ?OnMouseMove@CUIScrollBar@@UAE?AW4WMSG_RESULT@@GGPAUtagMSG@@@Z
       5376 14FF 000161F0 ?OnMouseWheel@CUIBase@@UAE?AW4WMSG_RESULT@@GGH@Z
       5377 1500 0094A890 ?OnMouseWheel@CUIScrollBar@@UAE?AW4WMSG_RESULT@@GGH@Z
       5378 1501 009A6A60 ?OnMouseWheel@CUISpinButton@@UAE?AW4WMSG_RESULT@@GGH@Z
       5379 1502 002A84C0 ?OnMouseWheel@CUISpinControl@@UAE?AW4WMSG_RESULT@@GGH@Z
       5380 1503 00285630 ?OnMouseWheelDown@CUIBase@@UAEXXZ
       5381 1504 002855E0 ?OnMouseWheelUp@CUIBase@@UAEXXZ
       5382 1505 00280430 ?OnPostRender@CUIArray@@UAEXPAVCDrawPort@@@Z
       5383 1506 00015BF0 ?OnPostRender@CUIBase@@UAEXPAVCDrawPort@@@Z
       5384 1507 002A1210 ?OnPostRender@CUIList@@UAEXPAVCDrawPort@@@Z
       5385 1508 000161B0 ?OnRButtonDBLClick@CUIBase@@UAE?AW4WMSG_RESULT@@GG@Z
       5386 1509 00016170 ?OnRButtonDown@CUIBase@@UAE?AW4WMSG_RESULT@@GG@Z
       5387 150A 002A21E0 ?OnRButtonDown@CUIListItem@@UAE?AW4WMSG_RESULT@@GG@Z
       5388 150B 00016190 ?OnRButtonUp@CUIBase@@UAE?AW4WMSG_RESULT@@GG@Z
       5389 150C 00281860 ?OnRender@CUIArrayItem@@UAEXPAVCDrawPort@@@Z
       5390 150D 00015BD0 ?OnRender@CUIBase@@UAEXPAVCDrawPort@@@Z
       5391 150E 006FC410 ?OnRender@CUIButton@@UAEXPAVCDrawPort@@@Z
       5392 150F 007267E0 ?OnRender@CUICheckButton@@UAEXPAVCDrawPort@@@Z
       5393 1510 00730DB0 ?OnRender@CUIComboBox@@MAEXPAVCDrawPort@@@Z
       5394 1511 00738110 ?OnRender@CUIEditBox@@UAEXPAVCDrawPort@@@Z
       5395 1512 00298120 ?OnRender@CUIIcon@@UAEXPAVCDrawPort@@@Z
       5396 1513 0029A8D0 ?OnRender@CUIImage@@UAEXPAVCDrawPort@@@Z
       5397 1514 0029B510 ?OnRender@CUIImageArray@@UAEXPAVCDrawPort@@@Z
       5398 1515 0029CE60 ?OnRender@CUIImageFont@@UAEXPAVCDrawPort@@@Z
       5399 1516 002A7B70 ?OnRender@CUIImageSplit@@UAEXPAVCDrawPort@@@Z
       5400 1517 002A2020 ?OnRender@CUIListItem@@UAEXPAVCDrawPort@@@Z
       5401 1518 00247270 ?OnRender@CUILoginNew@@UAEXPAVCDrawPort@@@Z
       5402 1519 0001EE70 ?OnRender@CUIManager@@UAEXPAVCDrawPort@@@Z
       5403 151A 0091D8E0 ?OnRender@CUIProgressBar@@MAEXPAVCDrawPort@@@Z
       5404 151B 00949990 ?OnRender@CUIScrollBar@@UAEXPAVCDrawPort@@@Z
       5405 151C 009929F0 ?OnRender@CUISlideBar@@MAEXPAVCDrawPort@@@Z
       5406 151D 009A6790 ?OnRender@CUISpinButton@@MAEXPAVCDrawPort@@@Z
       5407 151E 002A8510 ?OnRender@CUISpinControl@@UAEXPAVCDrawPort@@@Z
       5408 151F 002A8E50 ?OnRender@CUISpriteAni@@UAEXPAVCDrawPort@@@Z
       5409 1520 002AA720 ?OnRender@CUITab@@UAEXPAVCDrawPort@@@Z
       5410 1521 002AA0D0 ?OnRender@CUITabPage@@UAEXPAVCDrawPort@@@Z
       5411 1522 002ABCC0 ?OnRender@CUIText@@UAEXPAVCDrawPort@@@Z
       5412 1523 002AD950 ?OnRender@CUITextBox@@UAEXPAVCDrawPort@@@Z
       5413 1524 002470C0 ?OnTabKeyProc@CUILoginNew@@QAEXXZ
       5414 1525 00015B90 ?OnUpdate@CUIBase@@UAEXMK@Z
       5415 1526 006FD250 ?OnUpdate@CUIButton@@UAEXMK@Z
       5416 1527 0022EA70 ?OnUpdate@CUICharacterCreateNew@@UAEXMK@Z
       5417 1528 00156770 ?OnUpdate@CUICharacterInfo@@UAEXMK@Z
       5418 1529 00727080 ?OnUpdate@CUICheckButton@@UAEXMK@Z
       5419 152A 00730D90 ?OnUpdate@CUIComboBox@@IAEXM@Z
       5420 152B 002986F0 ?OnUpdate@CUIIcon@@UAEXMK@Z
       5421 152C 002477A0 ?OnUpdate@CUILoginNew@@UAEXMK@Z
       5422 152D 0019DF20 ?OnUpdate@CUIPetStashSelectEffect@@UAEXMK@Z
       5423 152E 0091E100 ?OnUpdate@CUIProgressBar@@MAEXMK@Z
       5424 152F 00949970 ?OnUpdate@CUIScrollBar@@QAEXM@Z
       5425 1530 002A8DF0 ?OnUpdate@CUISpriteAni@@UAEXMK@Z
       5426 1531 002AF120 ?OnUpdateBoxInfo@CUITextBox@@QAEXXZ
       5427 1532 007312F0 ?OnUpdateDropList@CUIComboBox@@QAEXXZ
       5428 1533 00015660 ?OnUpdatePosition@CUIBase@@UAEXXZ
       5429 1534 0022E970 ?OnUpdatePosition@CUICharacterCreateNew@@UAEXXZ
       5430 1535 002ADAB0 ?OnUpdateScrollPos@CUITextBox@@QAEXXZ
       5431 1536 009EE070 ?OnlyFirstLine@CTString@@QAEXXZ
       5432 1537 00173260 ?Open@MsgBoxMgr@@QAE_NI@Z
       5433 1538 006DB330 ?OpenAffinity@CUIAffinity@@QAEXHHMM@Z
       5434 1539 00380B40 ?OpenCanvas@CViewPort@@QAEXXZ
       5435 153A 0070AC00 ?OpenCashShopEX@CUICashShopEX@@QAEXXZ
       5436 153B 0014BCF0 ?OpenChangeWeapon@CUIChangeWeapon@@QAEXHHMM@Z
       5437 153C 007338D0 ?OpenCompound@CUICompound@@QAEXHFF@Z
       5438 153D 00210C80 ?OpenDratanDungeonMsgBox@CUIPortal@@QAEXXZ
       5439 153E 0016BAA0 ?OpenExpressSystem@CUIExpressSystem@@QAEXXZ
       5440 153F 00793430 ?OpenGBReq@CUIGuildBattle@@QAEXHVCTString@@@Z
       5441 1540 007B6710 ?OpenGWMix@CUIGWMix@@QAEXXZ
       5442 1541 00755800 ?OpenGamble@CUIGamble@@QAEXPAVCEntity@@H@Z
       5443 1542 00A7F770 ?OpenGate@CPlayerEntity@@UAEXHH@Z
       5444 1543 007A0330 ?OpenGuildStash@CUIGuildStash@@QAEXXZ
       5445 1544 007A2A50 ?OpenGuildStash@CUINewGuildStash@@QAEXXZ
       5446 1545 007B2780 ?OpenGuildWarPortal@CUIGuildWarPortal@@QAEXH@Z
       5447 1546 007B2B20 ?OpenGuildWarPortalDratan@CUIGuildWarPortal@@QAEXXZ
       5448 1547 007D9090 ?OpenInitJob@CUIInitJob@@QAEXHHHMM@Z
       5449 1548 00885AD0 ?OpenMix@CUIMix@@QAEXHFF@Z
       5450 1549 008B5AE0 ?OpenOption@CUIOption@@QAEXXZ
       5451 154A 008CDAE0 ?OpenPersonalShop@CUIPersonalShop@@QAEXH@Z
       5452 154B 008D9950 ?OpenPetFree@CUIPetFree@@QAEXMMH@Z
       5453 154C 008DD110 ?OpenPetInfo@CUIPetInfo@@QAEXXZ
       5454 154D 008F0F70 ?OpenPetItemMix@CUIPetItemMix@@QAEXH@Z
       5455 154E 0019E140 ?OpenPetStashSelectEffect@CUIPetStashSelectEffect@@QAEXXZ
       5456 154F 008FA3A0 ?OpenPetTraining@CUIPetTraining@@QAEXHHMM@Z
       5457 1550 0097DFA0 ?OpenPop@CUISimplePop@@QAEXVCTString@@HHJJ@Z
       5458 1551 0097E1B0 ?OpenPopNoTarget@CUISimplePop@@QAEXVCTString@@H_NJJ@Z
       5459 1552 002104F0 ?OpenPortal@CUIPortal@@QAEXMM@Z
       5460 1553 00909520 ?OpenProcess@CUIProcess@@QAEXHHH@Z
       5461 1554 0090CB70 ?OpenProcessList@CUIProcessNPC@@QAEXHH@Z
       5462 1555 0090C780 ?OpenProcessNPC@CUIProcessNPC@@QAEXXZ
       5463 1556 00911030 ?OpenProduct@CUIProduct@@QAEXHFF@Z
       5464 1557 0019F860 ?OpenQuest@CUIQuest@@QAEXHHHMM@Z
       5465 1558 0093F650 ?OpenRefine@CUIRefine@@QAEXHHMM@Z
       5466 1559 009426A0 ?OpenReformSystem@CUIReformSystem@@QAEXHMM@Z
       5467 155A 009476D0 ?OpenResurrectionMsgBox@CUIResurrectionMsgBox@@QAEXJH@Z
       5468 155B 0092C9F0 ?OpenRoyalrumbleMgrMenu@CUIRadar@@QAEXJ@Z
       5469 155C 00951E30 ?OpenSelectResource@CUISelectResource@@QAEXHH@Z
       5470 155D 00980C60 ?OpenSingleBattle@CUISingleBattle@@QAEXXZ
       5471 155E 00984FF0 ?OpenSkillLearn@CUISkillLearn@@QAEXHHHMM@Z
       5472 155F 0083B070 ?OpenSocketSystem@CUIManager@@QAEXHHMM@Z
       5473 1560 009A3000 ?OpenSocketSystem@CUISocketSystem@@QAEXHHMM@Z
       5474 1561 004D2E20 ?OpenSocket_t@CCommunicationInterface@@QAEXKK@Z
       5475 1562 009B2EF0 ?OpenTatoo@CUITatoo@@QAEXXZ
       5476 1563 0022B440 ?OpenUI@CUICharacterCreateNew@@QAEXXZ
       5477 1564 00155EA0 ?OpenUI@CUICharacterInfo@@QAEXH@Z
       5478 1565 002461F0 ?OpenUI@CUILoginNew@@QAEXXZ
       5479 1566 00977000 ?OpenWaitTime@CUISiegeWarfareNew@@QAEXXZ
       5480 1567 005464E0 ?OpenWebPage@cWeb@@QAEHPAUHWND__@@@Z
       5481 1568 006D5C20 ?Open_EffectSystem@@YAHABVCTFileName@@@Z
       5482 1569 00A1E310 ?Open_t@CTFileStream@@QAEXABVCTFileName@@W4OpenMode@CTStream@@@Z
       5483 156A 006237A0 ?Optimize@CAnimSet@@QAEXXZ
       5484 156B 00629320 ?Optimize@CMesh@@QAEXXZ
       5485 156C 002D5890 ?Optimize@CObject3D@@QAEXXZ
       5486 156D 00623820 ?OptimizeAnimation@CAnimSet@@QAEXAAUAnimation@@M@Z
       5487 156E 0062B580 ?OptimizeLod@CMesh@@QAEXAAUMeshLOD@@@Z
       5488 156F 00A2D8D0 ?OptimizeObject3D@CBrush3D@@SAXAAVCObject3D@@@Z
       5489 1570 0049F040 ?OptionAddItem@CNetworkLibrary@@QAEXGHFFH@Z
       5490 1571 0049F150 ?OptionDelItem@CNetworkLibrary@@QAEXGHFFH@Z
       5491 1572 004EBE60 ?Pack@CNetworkMessage@@QAEXAAV1@AAVCCompressor@@@Z
       5492 1573 004DB550 ?PackAngle@@YAKABV?$Vector@M$02@@@Z
       5493 1574 004EC160 ?PackDefault@CNetworkMessage@@QAEXAAV1@@Z
       5494 1575 004DB050 ?PackFloat@@YAKEEEM@Z
       5495 1576 004DAF70 ?PackFloatToWord@@YAFM@Z
       5496 1577 004DB3E0 ?PackFloatsToULONG@@YAKMMM@Z
       5497 1578 004DB270 ?PackVectorToULONG@@YAKAAV?$Vector@M$02@@@Z
       5498 1579 011B9D08 ?PaletteColorValues@@3PAKA
       5499 157A 00645430 ?ParseSmcFile_t@@YAPAVCModelInstance@@ABVCTString@@@Z
       5500 157B 00645510 ?ParseSmcFile_t@@YAXAAVCModelInstance@@ABVCTString@@@Z
       5501 157C 0031E6E0 ?Particle_EndSystem@@YAXH@Z
       5502 157D 003203F0 ?Particle_Flush@@YAXXZ
       5503 157E 0031E740 ?Particle_GetDrawPortID@@YAJXZ
       5504 157F 0031E710 ?Particle_GetMipFactor@@YAMXZ
       5505 1580 0031E730 ?Particle_GetProjection@@YAPAVCProjection3D@@XZ
       5506 1581 0031E720 ?Particle_GetViewer@@YAPAVCEntity@@XZ
       5507 1582 005561A0 ?Particle_PrepareEntity@@YAXMHHHPAVCEntity@@@Z
       5508 1583 0031E610 ?Particle_PrepareSystem@@YAXPAVCDrawPort@@AAVCAnyProjection3D@@@Z
       5509 1584 0031E750 ?Particle_PrepareTexture@@YAXPAVCTextureObject@@W4PredefinedBlendType@@@Z
       5510 1585 0031F0A0 ?Particle_RenderLine@@YAXABV?$Vector@M$02@@0MK@Z
       5511 1586 0031F7B0 ?Particle_RenderQuad3D@@YAXABV?$Vector@M$02@@000K@Z
       5512 1587 0031EB00 ?Particle_RenderSquare@@YAXABV?$Vector@M$02@@MMKM@Z
       5513 1588 0031E870 ?Particle_SetTexturePart@@YAXJJJJ@Z
       5514 1589 0031EA20 ?Particle_SetTextureSection@@YAXJJJJ@Z
       5515 158A 00320700 ?Particle_Sort@@YAXH@Z
       5516 158B 000FADB0 ?PartyAddMember@Party@@QAEXCJAAVCTString@@CCHHHHHMMCJ@Z
       5517 158C 004A4E20 ?PartyAllow@CNetworkLibrary@@QAEXXZ
       5518 158D 000FB810 ?PartyData2Expedition@Party@@QAEXJH@Z
       5519 158E 000FA5F0 ?PartyEnd@Party@@QAEXXZ
       5520 158F 004B6350 ?PartyEndReq@CNetworkLibrary@@QAEXXZ
       5521 1590 000FB2B0 ?PartyError@Party@@QAEXC@Z
       5522 1591 004A4D20 ?PartyInvite@CNetworkLibrary@@QAEXCJVCTString@@@Z
       5523 1592 000FA790 ?PartyInvite@Party@@QAEXCJAAVCTString@@CC@Z
       5524 1593 004A5060 ?PartyKick@CNetworkLibrary@@QAEXJ@Z
       5525 1594 000FB090 ?PartyKick@Party@@QAEXJ@Z
       5526 1595 000FB180 ?PartyMemberInfo@Party@@QAEXJHHHHHMMCJ_N@Z
       5527 1596 004A4FA0 ?PartyQuit@CNetworkLibrary@@QAEXXZ
       5528 1597 000FAFA0 ?PartyQuit@Party@@QAEXJ@Z
       5529 1598 004A4EE0 ?PartyReject@CNetworkLibrary@@QAEXXZ
       5530 1599 000FAC90 ?PartyReject@Party@@QAEXH@Z
       5531 159A 0073CCE0 ?Paste@CUIEditBox@@QAE_NPAUHWND__@@@Z
       5532 159B 003E1030 ?Pause@CSoundObject@@QAEXXZ
       5533 159C 009E66C0 ?PauseAnim@CAnimObject@@QAEXXZ
       5534 159D 00A1B7F0 ?PeekID_t@CTStream@@QAE?AVCChunkID@@XZ
       5535 159E 008E2820 ?PetStartEffectGroup@@YAHPBDJPAVCEntity@@@Z
       5536 159F 00403FE0 ?PickPolyColor@CModelObject@@QAEXPAVCDrawPort@@PAVCProjection3D@@JJAAJH@Z
       5537 15A0 004041F0 ?PickPolySurface@CModelObject@@QAEJPAVCDrawPort@@PAVCProjection3D@@JJ@Z
       5538 15A1 004043B0 ?PickVertexIndex@CModelObject@@QAEJPAVCDrawPort@@PAVCProjection3D@@JJAAV?$Vector@M$02@@@Z
       5539 15A2 00A80470 ?PlAddAccessoryEffect@CPlayerEntity@@UAEXPAVCEntity@@PAVCCharacterTarget@@@Z
       5540 15A3 003DF170 ?Play@CSoundObject@@QAEXPAVCSoundData@@K@Z
       5541 15A4 002A91F0 ?PlayAni@CUISpriteAni@@QAEXXZ
       5542 15A5 009E7000 ?PlayAnim@CAnimObject@@QAEXJK@Z
       5543 15A6 00A801C0 ?PlayBGM@CPlayerEntity@@UAEXVCTFileName@@@Z
       5544 15A7 003DA6E0 ?PlayBuffers@CSoundLibrary@@AAEXXZ
       5545 15A8 00A800A0 ?PlayButtonSound@CPlayerEntity@@UAEXXZ
       5546 15A9 00A80160 ?PlayHolyWaterSound@CPlayerEntity@@UAEXXZ
       5547 15AA 00A80310 ?PlayItemEffect@CPlayerEntity@@UAEXJC@Z
       5548 15AB 00A80080 ?PlayItemSound@CPlayerEntity@@UAEXHH@Z
       5549 15AC 00A800C0 ?PlayJewelDullSound@CPlayerEntity@@UAEXXZ
       5550 15AD 00A800E0 ?PlayJewelRefinementSound@CPlayerEntity@@UAEXXZ
       5551 15AE 00A80100 ?PlayJewelShinySound@CPlayerEntity@@UAEXXZ
       5552 15AF 00A80140 ?PlayPetStashCardSelSound@CPlayerEntity@@UAEXXZ
       5553 15B0 00A80120 ?PlayPetStashEffectSound@CPlayerEntity@@UAEXXZ
       5554 15B1 005A03E0 ?PlaySoundA@CEntity@@QAEXAAVCSoundObject@@ABVCTFileName@@J@Z
       5555 15B2 005A01E0 ?PlaySoundA@CEntity@@QAEXAAVCSoundObject@@JJH@Z
       5556 15B3 003E0FD0 ?Play_t@CSoundObject@@QAEXABVCTFileName@@K@Z
       5557 15B4 00A7FFA0 ?PlayerInit@CPlayerEntity@@UAEX_N@Z
       5558 15B5 0000F150 ?Playing@CEffect@@QAEHXZ
       5559 15B6 005E9E20 ?PolygonHasLayer@CLightSource@@QAEHAAVCBrushPolygon@@@Z
       5560 15B7 004035D0 ?PolygonHit@CModelObject@@QAEPAUModelPolygon@@VCPlacement3D@@0JAAM@Z
       5561 15B8 00403800 ?PolygonHitModelData@CModelObject@@QAEPAUModelPolygon@@PAVCModelData@@VCPlacement3D@@1JAAM@Z
       5562 15B9 00404BC0 ?PolygonsInSurfaceCt@CModelObject@@QAEJJJ@Z
       5563 15BA 007D5A70 ?PopupRender@CUIImageBox@@QAEXXZ
       5564 15BB 002F43D0 ?PostClip@CIsometricProjection3D@@UBEXABV?$Vector@M$02@@AAV2@@Z
       5565 15BC 002F4510 ?PostClip@CIsometricProjection3D@@UBEXABV?$Vector@M$02@@MAAV2@AAM@Z
       5566 15BD 002F6E80 ?PostClip@CParallelProjection3D@@UBEXABV?$Vector@M$02@@AAV2@@Z
       5567 15BE 002F7020 ?PostClip@CParallelProjection3D@@UBEXABV?$Vector@M$02@@MAAV2@AAM@Z
       5568 15BF 002F9A60 ?PostClip@CPerspectiveProjection3D@@UBEXABV?$Vector@M$02@@AAV2@@Z
       5569 15C0 002F9BC0 ?PostClip@CPerspectiveProjection3D@@UBEXABV?$Vector@M$02@@MAAV2@AAM@Z
       5570 15C1 002FB980 ?PostClip@CSimpleProjection3D@@UBEXABV?$Vector@M$02@@AAV2@@Z
       5571 15C2 002FBA30 ?PostClip@CSimpleProjection3D@@UBEXABV?$Vector@M$02@@MAAV2@AAM@Z
       5572 15C3 00A78CB0 ?PostMoving@CMovableEntity@@UAEXXZ
       5573 15C4 005A26C0 ?PostMoving@CRationalEntity@@UAEXXZ
       5574 15C5 0000F620 ?PostProcess@CEffect@@IAEXXZ
       5575 15C6 0000F640 ?PostRender@CEffect@@IAEXXZ
       5576 15C7 0000F600 ?PostStart@CEffect@@IAEXXZ
       5577 15C8 002F42D0 ?PreClip@CIsometricProjection3D@@UBEXABV?$Vector@M$02@@AAV2@@Z
       5578 15C9 002F6D80 ?PreClip@CParallelProjection3D@@UBEXABV?$Vector@M$02@@AAV2@@Z
       5579 15CA 002F9960 ?PreClip@CPerspectiveProjection3D@@UBEXABV?$Vector@M$02@@AAV2@@Z
       5580 15CB 002FB880 ?PreClip@CSimpleProjection3D@@UBEXABV?$Vector@M$02@@AAV2@@Z
       5581 15CC 00A76020 ?PreMoving@CMovableEntity@@UAEXXZ
       5582 15CD 00A7B180 ?PreMoving@CMovableModelEntity@@UAEXXZ
       5583 15CE 005A2680 ?PreMoving@CRationalEntity@@UAEXXZ
       5584 15CF 00676220 ?PreProcess@CEffect@@IAEHMAAH0AAM1@Z
       5585 15D0 006763B0 ?PreRender@CEffect@@IAEHXZ
       5586 15D1 00676160 ?PreStart@CEffect@@IAEHMH@Z
       5587 15D2 0059F3C0 ?Precache@CAutoPrecacheModel@@QAEXABVCTFileName@@@Z
       5588 15D3 0059F180 ?Precache@CAutoPrecacheSound@@QAEXABVCTFileName@@@Z
       5589 15D4 0059F530 ?Precache@CAutoPrecacheTexture@@QAEXABVCTFileName@@@Z
       5590 15D5 005A2000 ?Precache@CEntity@@UAEXXZ
       5591 15D6 005A93B0 ?PrecacheClass@CDLLEntityClass@@QAEXJJ@Z
       5592 15D7 0059F0A0 ?PrecacheClass@CEntity@@QAEXJJ@Z
       5593 15D8 004204A0 ?PrecacheEntities_t@CWorld@@QAEXXZ
       5594 15D9 005A9080 ?PrecacheModel@CDLLEntityClass@@QAEXJ@Z
       5595 15DA 0059EFE0 ?PrecacheModel@CEntity@@QAEXJ@Z
       5596 15DB 005A94E0 ?PrecacheSkaModel@CDLLEntityClass@@QAEXJ@Z
       5597 15DC 0059F0E0 ?PrecacheSkaModel@CEntity@@QAEXJ@Z
       5598 15DD 005A92A0 ?PrecacheSound@CDLLEntityClass@@QAEXJ@Z
       5599 15DE 0059F060 ?PrecacheSound@CEntity@@QAEXJ@Z
       5600 15DF 005A9190 ?PrecacheTexture@CDLLEntityClass@@QAEXJ@Z
       5601 15E0 0059F020 ?PrecacheTexture@CEntity@@QAEXJ@Z
       5602 15E1 000012E0 ?Pred@CListNode@@QBEAAV1@XZ
       5603 15E2 002F39D0 ?Prepare@CIsometricProjection3D@@UAEXXZ
       5604 15E3 002F6630 ?Prepare@CParallelProjection3D@@UAEXXZ
       5605 15E4 002F87D0 ?Prepare@CPerspectiveProjection3D@@UAEXXZ
       5606 15E5 003711B0 ?Prepare@CShadowMap@@QAEXXZ
       5607 15E6 002FB690 ?Prepare@CSimpleProjection3D@@UAEXXZ
       5608 15E7 002FCCA0 ?Prepare@CSimpleProjection3D_DOUBLE@@QAEXXZ
       5609 15E8 004D1740 ?PrepareForUse@CCommunicationInterface@@QAEHHHH@Z
       5610 15E9 004F5240 ?PrepareGameStateData_t@CServer@@QAEXAAVCTMemoryStream@@AAJ1@Z
       5611 15EA 00A2DB60 ?PrepareRelativeToAbsoluteProjection@CBrush3D@@QAEXAAVCSimpleProjection3D_DOUBLE@@@Z
       5612 15EB 006D5B80 ?PrepareRender_EffectSystem@@YAHPAVCTerrain@@PAVCWorld@@@Z
       5613 15EC 003D9620 ?PrepareSoundBuffer_dsound@CSoundLibrary@@AAEJXZ
       5614 15ED 003D97D0 ?PrepareSoundBuffer_waveout@CSoundLibrary@@AAEJXZ
       5615 15EE 00245CD0 ?PressCheckSave@CUILoginNew@@QAEXXZ
       5616 15EF 00245C80 ?PressCloseBtn@CUILoginNew@@QAEXXZ
       5617 15F0 00245B20 ?PressLoginBtn@CUILoginNew@@QAEXXZ
       5618 15F1 0022D600 ?PressOk@CUICharacterCreateNew@@QAEXXZ
       5619 15F2 009E6930 ?PrevAnim@CAnimObject@@QAEXXZ
       5620 15F3 009E6C90 ?PrevFrame@CAnimObject@@QAEXXZ
       5621 15F4 004020C0 ?PrevManualMipLevel@CModelObject@@QAEXXZ
       5622 15F5 00122700 ?PrevQuestViewPage@Quest@@QAE_NXZ
       5623 15F6 0071B110 ?PreviewFrameInit@CUICashShopEX@@IAEXMM@Z
       5624 15F7 004FAB00 ?PrintChatMessage@CSessionState@@QAEXKABVCTString@@0@Z
       5625 15F8 009EEEA0 ?PrintF@CTString@@QAAJPBDZZ
       5626 15F9 00593500 ?PrintStackDebug@CEntity@@UAEPBDXZ
       5627 15FA 005A2D90 ?PrintStackDebug@CRationalEntity@@UAEPBDXZ
       5628 15FB 003ECD40 ?PrintSurfaceNumbers@CEditModel@@QAEXPAVCDrawPort@@PAVCFontData@@JMJJK@Z
       5629 15FC 00671540 ?Process@CCameraEffect@@UAEHM@Z
       5630 15FD 00676CC0 ?Process@CEffectControl@@QAEXPAKPAV?$Vector@M$02@@11MMM@Z
       5631 15FE 0067F9D0 ?Process@CEffectGroup@@QAEHM@Z
       5632 15FF 0068A110 ?Process@CEntityEffect@@UAEHM@Z
       5633 1600 0068AE40 ?Process@CLightEffect@@UAEHM@Z
       5634 1601 0068BDD0 ?Process@CMdlEffect@@UAEHM@Z
       5635 1602 0068D6C0 ?Process@COrbitEffect@@UAEHM@Z
       5636 1603 00694BD0 ?Process@CParticleEffect@@UAEHM@Z
       5637 1604 006BCC90 ?Process@CParticleGroup@@QAEHM@Z
       5638 1605 006C7170 ?Process@CParticlesAbsorptionDefault@@UAEXAAVCParticles@@M@Z
       5639 1606 006C7690 ?Process@CParticlesAbsorptionSphere@@UAEXAAVCParticles@@M@Z
       5640 1607 006C83F0 ?Process@CParticlesEmitterCone@@UAEXAAVCParticles@@M@Z
       5641 1608 006C9030 ?Process@CParticlesEmitterCylinder@@UAEXAAVCParticles@@M@Z
       5642 1609 006C9C20 ?Process@CParticlesEmitterSphere@@UAEXAAVCParticles@@M@Z
       5643 160A 006CA730 ?Process@CParticlesProcessControl@@UAEXAAVCParticles@@M@Z
       5644 160B 006CB2A0 ?Process@CParticlesProcessDynamicState@@UAEXAAVCParticles@@M@Z
       5645 160C 006CDE30 ?Process@CParticlesProcessForce@@UAEXAAVCParticles@@M@Z
       5646 160D 006CE570 ?Process@CParticlesProcessPointGoal@@UAEXAAVCParticles@@M@Z
       5647 160E 006CEEC0 ?Process@CParticlesProcessVelocity@@UAEXAAVCParticles@@M@Z
       5648 160F 006A31D0 ?Process@CShockWaveEffect@@UAEHM@Z
       5649 1610 006ABB60 ?Process@CSkaEffect@@UAEHM@Z
       5650 1611 006AD010 ?Process@CSoundEffect@@UAEHM@Z
       5651 1612 006AE140 ?Process@CSplineBillboardEffect@@UAEHM@Z
       5652 1613 006B1DB0 ?Process@CSplinePathEffect@@UAEHM@Z
       5653 1614 006B51B0 ?Process@CTerrainEffect@@UAEHM@Z
       5654 1615 006B7D90 ?Process@CTraceEffect@@UAEHM@Z
       5655 1616 004FC530 ?ProcessGameStream@CSessionState@@QAEXXZ
       5656 1617 004FC860 ?ProcessGameStreamBlock@CSessionState@@QAEXAAVCNetworkMessage@@@Z
       5657 1618 004FC000 ?ProcessGameTick@CSessionState@@QAEXAAVCNetworkMessage@@M@Z
       5658 1619 004FECF0 ?ProcessOneSentence@CSessionState@@QAEXPAD@Z
       5659 161A 00A7F730 ?ProcessProduce@CPlayerEntity@@UAEXCJCJJ@Z
       5660 161B 0049F350 ?ProcessReq@CNetworkLibrary@@QAEXFFJJPAUCNeedItems@@@Z
       5661 161C 003784B0 ?ProcessScript_t@@YAXABVCTFileName@@@Z
       5662 161D 0049F4C0 ?ProductReq@CNetworkLibrary@@QAEXFFJJPAUCNeedItems@@@Z
       5663 161E 011CE274 ?ProgresRoutines@@3VCProgressRoutines@@A
       5664 161F 000AEE90 ?ProgressStepIt@CUIProgressBar@@QAE?B_JXZ
       5665 1620 002F4EF0 ?Project@CIsometricProjection3D@@UBEXABV?$Plane@M$02@@AAV2@@Z
       5666 1621 002D51B0 ?Project@CObject3D@@QAEXAAVCSimpleProjection3D_DOUBLE@@@Z
       5667 1622 002F7B10 ?Project@CParallelProjection3D@@UBEXABV?$Plane@M$02@@AAV2@@Z
       5668 1623 002FA760 ?Project@CPerspectiveProjection3D@@UBEXABV?$Plane@M$02@@AAV2@@Z
       5669 1624 002FC240 ?Project@CSimpleProjection3D@@UBEXABV?$Plane@M$02@@AAV2@@Z
       5670 1625 002FD5C0 ?Project@CSimpleProjection3D_DOUBLE@@QBEXABV?$Plane@N$02@@AAV2@@Z
       5671 1626 002F4E50 ?ProjectAABBox@CIsometricProjection3D@@UBEXABV?$AABBox@M$02@@AAV2@@Z
       5672 1627 002F7A70 ?ProjectAABBox@CParallelProjection3D@@UBEXABV?$AABBox@M$02@@AAV2@@Z
       5673 1628 002FA6C0 ?ProjectAABBox@CPerspectiveProjection3D@@UBEXABV?$AABBox@M$02@@AAV2@@Z
       5674 1629 002FC0A0 ?ProjectAABBox@CSimpleProjection3D@@UBEXABV?$AABBox@M$02@@AAV2@@Z
       5675 162A 002FD450 ?ProjectAABBox@CSimpleProjection3D_DOUBLE@@QBEXABV?$AABBox@N$02@@AAV2@@Z
       5676 162B 002F4BF0 ?ProjectCoordinate@CIsometricProjection3D@@UBEXABV?$Vector@M$02@@AAV2@@Z
       5677 162C 002F77C0 ?ProjectCoordinate@CParallelProjection3D@@UBEXABV?$Vector@M$02@@AAV2@@Z
       5678 162D 002FA440 ?ProjectCoordinate@CPerspectiveProjection3D@@UBEXABV?$Vector@M$02@@AAV2@@Z
       5679 162E 002FBCD0 ?ProjectCoordinate@CSimpleProjection3D@@UBEXABV?$Vector@M$02@@AAV2@@Z
       5680 162F 002FCE80 ?ProjectCoordinate@CSimpleProjection3D_DOUBLE@@QBEXABV?$Vector@N$02@@AAV2@@Z
       5681 1630 002F4DE0 ?ProjectDirection@CIsometricProjection3D@@UBEXABV?$Vector@M$02@@AAV2@@Z
       5682 1631 002F7A00 ?ProjectDirection@CParallelProjection3D@@UBEXABV?$Vector@M$02@@AAV2@@Z
       5683 1632 002FA650 ?ProjectDirection@CPerspectiveProjection3D@@UBEXABV?$Vector@M$02@@AAV2@@Z
       5684 1633 002FBE30 ?ProjectDirection@CSimpleProjection3D@@UBEXABV?$Vector@M$02@@AAV2@@Z
       5685 1634 002FCF80 ?ProjectDirection@CSimpleProjection3D_DOUBLE@@QBEXABV?$Vector@N$02@@AAV2@@Z
       5686 1635 004025D0 ?ProjectFrameVertices@CModelObject@@QAEXPAVCProjection3D@@J@Z
       5687 1636 002FF3F0 ?ProjectMapping@CMappingDefinition@@QAEXABV?$Plane@M$02@@ABV1@0@Z
       5688 1637 002FD130 ?ProjectMapping@CSimpleProjection3D_DOUBLE@@QBEXABVCMappingDefinition@@ABV?$Plane@N$02@@AAV2@@Z
       5689 1638 002FBEA0 ?ProjectPlacement@CSimpleProjection3D@@QBEXABVCPlacement3D@@AAV2@@Z
       5690 1639 002FD010 ?ProjectPlacement@CSimpleProjection3D_DOUBLE@@QBEXABVCPlacement3D@@AAV2@@Z
       5691 163A 002FBFA0 ?ProjectPlacementSmooth@CSimpleProjection3D@@QBEXABVCPlacement3D@@AAV2@@Z
       5692 163B 005A8D70 ?PropertyForName@CDLLEntityClass@@QAEPAVCEntityProperty@@ABVCTString@@@Z
       5693 163C 005A2260 ?PropertyForName@CEntity@@QAEPAVCEntityProperty@@ABVCTString@@@Z
       5694 163D 005A8BF0 ?PropertyForName@CEntityClass@@QAEPAVCEntityProperty@@ABVCTString@@@Z
       5695 163E 005A8E10 ?PropertyForTypeAndID@CDLLEntityClass@@QAEPAVCEntityProperty@@W4PropertyType@2@K@Z
       5696 163F 005A21E0 ?PropertyForTypeAndID@CEntity@@QAEPAVCEntityProperty@@KK@Z
       5697 1640 005A8C20 ?PropertyForTypeAndID@CEntityClass@@QAEPAVCEntityProperty@@KK@Z
       5698 1641 00A1E030 ?ProtectPageFromWritting@CTStream@@QAEXJ@Z
       5699 1642 003FE8C0 ?PtrsToIndices@CModelData@@QAEXXZ
       5700 1643 002A9050 ?PushUV@CUISpriteAni@@QAEXUUIRectUV@@H@Z
       5701 1644 00A1B210 ?PutLine_t@CTStream@@QAEXPBD@Z
       5702 1645 00A1B3E0 ?PutString_t@CTStream@@QAEXPBD@Z
       5703 1646 00310210 ?PutText@CDrawPort@@QBEXABVCTString@@JJK@Z
       5704 1647 003111D0 ?PutTextC@CDrawPort@@QAEXABVCTString@@JJK@Z
       5705 1648 00311220 ?PutTextCXY@CDrawPort@@QAEXABVCTString@@JJK@Z
       5706 1649 003114B0 ?PutTextCharEx@CDrawPort@@QBEXPBDHJJKMHK@Z
       5707 164A 0031B200 ?PutTextCharExBrz@CDrawPort@@QBEXPBDHJJKMHK@Z
       5708 164B 0031BA40 ?PutTextCharExCX@CDrawPort@@QBEXPBDHJJKMHK@Z
       5709 164C 00312F40 ?PutTextCharExChs@CDrawPort@@QBEXPBDHJJKMHK@Z
       5710 164D 003187E0 ?PutTextCharExCht@CDrawPort@@QBEXPBDHJJKMHK@Z
       5711 164E 00319E20 ?PutTextCharExJap@CDrawPort@@QBEXPBDHJJKMHK@Z
       5712 164F 00317BE0 ?PutTextCharExKor@CDrawPort@@QBEXPBDHJJKMHK@Z
       5713 1650 0031BAE0 ?PutTextCharExRX@CDrawPort@@QAEXPBDHJJKMHK@Z
       5714 1651 0031B880 ?PutTextCharExRus@CDrawPort@@QBEXPBDHJJKMHK@Z
       5715 1652 00319490 ?PutTextCharExThai@CDrawPort@@QBEXPBDHJJKMHK@Z
       5716 1653 00311300 ?PutTextEx@CDrawPort@@QBEXABVCTString@@JJKMHK@Z
       5717 1654 00316520 ?PutTextExBrz@CDrawPort@@QBEXABVCTString@@JJKMHK@Z
       5718 1655 0031B960 ?PutTextExCX@CDrawPort@@QAEXABVCTString@@JJKMHK@Z
       5719 1656 00313B70 ?PutTextExChs@CDrawPort@@QBEXABVCTString@@JJKMHK@Z
       5720 1657 00312280 ?PutTextExCht@CDrawPort@@QBEXABVCTString@@JJKMHK@Z
       5721 1658 00315140 ?PutTextExJap@CDrawPort@@QBEXABVCTString@@JJKMHK@Z
       5722 1659 00311680 ?PutTextExKor@CDrawPort@@QBEXABVCTString@@JJKMHK@Z
       5723 165A 0031B9D0 ?PutTextExRX@CDrawPort@@QAEXABVCTString@@JJKMHK@Z
       5724 165B 00316BC0 ?PutTextExRus@CDrawPort@@QBEXABVCTString@@JJKMHK@Z
       5725 165C 00314770 ?PutTextExThai@CDrawPort@@QBEXABVCTString@@JJKMHK@Z
       5726 165D 003112B0 ?PutTextR@CDrawPort@@QAEXABVCTString@@JJK@Z
       5727 165E 0031D8C0 ?PutTextRus@CDrawPort@@QAEXABVCTString@@JJK@Z
       5728 165F 0031C140 ?PutTexture@CDrawPort@@QBEXPAVCTextureObject@@ABV?$AABBox@J$01@@1KK@Z
       5729 1660 0031C260 ?PutTexture@CDrawPort@@QBEXPAVCTextureObject@@ABV?$AABBox@J$01@@1KKKKK@Z
       5730 1661 0031C0F0 ?PutTexture@CDrawPort@@QBEXPAVCTextureObject@@ABV?$AABBox@J$01@@KK@Z
       5731 1662 0031C190 ?PutTexture@CDrawPort@@QBEXPAVCTextureObject@@ABV?$AABBox@J$01@@KKKKK@Z
       5732 1663 00A498A0 ?QueueForCalculation@CBrushShadowMap@@QAEXXZ
       5733 1664 000B18D0 ?QuitScreen@CGameState@@QAEAAHXZ
       5734 1665 00284670 ?RButtonDBLClick@CUIBase@@UAE?AW4WMSG_RESULT@@GG@Z
       5735 1666 002CA320 ?RButtonDBLClick@CUITree@@UAE?AW4WMSG_RESULT@@GG@Z
       5736 1667 00284720 ?RButtonDBLClickChild@CUIBase@@UAE?AW4WMSG_RESULT@@GG@Z
       5737 1668 00284170 ?RButtonDown@CUIBase@@UAE?AW4WMSG_RESULT@@GG@Z
       5738 1669 002CA200 ?RButtonDown@CUITree@@UAE?AW4WMSG_RESULT@@GG@Z
       5739 166A 00284220 ?RButtonDownChild@CUIBase@@UAE?AW4WMSG_RESULT@@GG@Z
       5740 166B 002843F0 ?RButtonUp@CUIBase@@UAE?AW4WMSG_RESULT@@GG@Z
       5741 166C 002CA290 ?RButtonUp@CUITree@@UAE?AW4WMSG_RESULT@@GG@Z
       5742 166D 002844A0 ?RButtonUpChild@CUIBase@@UAE?AW4WMSG_RESULT@@GG@Z
       5743 166E 00A05970 ?REG_GetLong@@YAHABVCTString@@AAK@Z
       5744 166F 00A053A0 ?REG_GetString@@YAHABVCTString@@AAV1@@Z
       5745 1670 00A05BA0 ?REG_SetString@@YAHABVCTString@@0@Z
       5746 1671 006576A0 ?RM_AddFlag@@YAXK@Z
       5747 1672 00654EF0 ?RM_AddSimpleShadow_View@@YAXAAVCModelInstance@@MABV?$Plane@M$02@@@Z
       5748 1673 006577A0 ?RM_AreHardwareShadersAvailable@@YAHXZ
       5749 1674 00657B40 ?RM_BeginModelRenderingMask@@YAXAAVCAnyProjection3D@@PAEJJ@Z
       5750 1675 00657800 ?RM_BeginRenderingView@@YAXAAVCAnyProjection3D@@PAVCDrawPort@@@Z
       5751 1676 00657D20 ?RM_EndModelRenderingMask@@YAXXZ
       5752 1677 00657A10 ?RM_EndRenderingView@@YAXH@Z
       5753 1678 006576E0 ?RM_FindRenBone@@YAPAURenBone@@J@Z
       5754 1679 00653900 ?RM_GetAdjustedMipDistance@@YAMMM@Z
       5755 167A 0065C580 ?RM_GetBoneAbsPosition@@YAHAAVCModelInstance@@JAAV?$Vector@M$02@@1@Z
       5756 167B 0065C3A0 ?RM_GetBoneRelPosition@@YAHAAVCModelInstance@@JAAV?$Vector@M$02@@1@Z
       5757 167C 0065C650 ?RM_GetBoneTransformations@@YAHAAVCModelInstance@@JPAY0M@M@Z
       5758 167D 00657690 ?RM_GetFlags@@YAKXZ
       5759 167E 00653860 ?RM_GetMipAdjustmentFactor@@YAMPBVCProjection3D@@@Z
       5760 167F 00653920 ?RM_GetModelVertices@@YAXAAVCModelInstance@@AAV?$CStaticStackArray@V?$Vector@M$02@@@@AAV?$Matrix@M$02$02@@AAV?$Vector@M$02@@MM@Z
       5761 1680 0065C250 ?RM_GetRenBoneAbs@@YAHAAVCModelInstance@@JAAURenBone@@@Z
       5762 1681 00657760 ?RM_GetRenBoneArray@@YAPAURenBone@@AAJ@Z
       5763 1682 00657670 ?RM_GetRenderFlags@@YAAAKXZ
       5764 1683 00650F20 ?RM_PreviewSKA@@YAXAAVCModelInstance@@PAVCDrawPort@@W4SkaPreviewFlags@@J@Z
       5765 1684 006576C0 ?RM_RemoveFlag@@YAXK@Z
       5766 1685 006575E0 ?RM_RenderBone@@YAXAAVCModelInstance@@J@Z
       5767 1686 00656160 ?RM_RenderColisionBox@@YAXAAVCModelInstance@@AAUColisionBox@@K@Z
       5768 1687 00656D70 ?RM_RenderCross@@YAXAAV?$Vector@M$02@@K@Z
       5769 1688 00655970 ?RM_RenderGround@@YAXAAVCTextureData@@K@Z
       5770 1689 00655930 ?RM_RenderGround@@YAXAAVCTextureObject@@K@Z
       5771 168A 00655D00 ?RM_RenderQuad@@YAXAAVCPlacement3D@@M@Z
       5772 168B 0065FD40 ?RM_RenderSKA@@YAXAAVCModelInstance@@H@Z
       5773 168C 006570B0 ?RM_RenderSpline@@YAXHPAV?$Vector@M$02@@HK@Z
       5774 168D 006580B0 ?RM_SetAbsToView@@YAXAAY0M@$$CBM@Z
       5775 168E 006558F0 ?RM_SetBoneAdjustCallback@@YAXP6AXPAX@Z0@Z
       5776 168F 00653850 ?RM_SetCurrentDistance@@YAXM@Z
       5777 1690 00657680 ?RM_SetFlags@@YAXK@Z
       5778 1691 00657DC0 ?RM_SetLightColor@@YAXKK@Z
       5779 1692 00657DE0 ?RM_SetLightDirection@@YAXAAV?$Vector@M$02@@@Z
       5780 1693 00658ED0 ?RM_SetMaxWeightsPerVertex@@YAXJ@Z
       5781 1694 00657E50 ?RM_SetObjectMatrices@@YAXAAVCModelInstance@@@Z
       5782 1695 00658080 ?RM_SetObjectPlacement@@YAXABV?$Matrix@M$02$02@@ABV?$Vector@M$02@@@Z
       5783 1696 00657FE0 ?RM_SetObjectPlacement@@YAXABVCPlacement3D@@@Z
       5784 1697 006580D0 ?RM_SetRenderingType@@YAXJ@Z
       5785 1698 00655910 ?RM_SetShaderParamsAdjustCallback@@YAXP6AXPAXJPAVCShader@@AAUShaderParams@@@Z0@Z
       5786 1699 00653F10 ?RM_TestRayCastHit@@YAMAAVCModelInstance@@AAV?$Matrix@M$02$02@@AAV?$Vector@M$02@@ABV3@3MPAJPAX@Z
       5787 169A 00654A90 ?RM_TestRayCastHitForTerrainShadow@@YAHAAVCModelInstance@@AAV?$Matrix@M$02$02@@AAV?$Vector@M$02@@ABV3@3@Z
       5788 169B 001220A0 ?RaidEnd@Quest@@QAEXXZ
       5789 169C 004B64D0 ?RaidInzoneJoinReq@CNetworkLibrary@@QAEXJJ@Z
       5790 169D 004B65C0 ?RaidInzoneQuitReq@CNetworkLibrary@@QAEXJJ@Z
       5791 169E 004AD5E0 ?Ranking_Prize@CNetworkLibrary@@QAEXXZ
       5792 169F 004AD420 ?Ranking_RequestList@CNetworkLibrary@@QAEXC@Z
       5793 16A0 004AD510 ?Ranking_RequestPrizeList@CNetworkLibrary@@QAEXXZ
       5794 16A1 00106500 ?RayHitsSphere@@YAHABV?$Vector@M$02@@00MAAM@Z
       5795 16A2 00106790 ?RayHitsTriangle@@YAHABV?$Vector@M$02@@0000PAM@Z
       5796 16A3 002F5150 ?RayThroughPoint@CIsometricProjection3D@@UBEXABV?$Vector@M$02@@AAVCPlacement3D@@@Z
       5797 16A4 002F7F10 ?RayThroughPoint@CParallelProjection3D@@UBEXABV?$Vector@M$02@@AAVCPlacement3D@@@Z
       5798 16A5 002FAB80 ?RayThroughPoint@CPerspectiveProjection3D@@UBEXABV?$Vector@M$02@@AAVCPlacement3D@@@Z
       5799 16A6 002FC490 ?RayThroughPoint@CSimpleProjection3D@@UBEXABV?$Vector@M$02@@AAVCPlacement3D@@@Z
       5800 16A7 00A45F10 ?ReTriple@CBrushSector@@QAEXAAV?$CSelection@VCBrushPolygon@@$0BAA@@@@Z
       5801 16A8 00646DB0 ?Read@CAnimEffect@@IAEXPAVCTStream@@@Z
       5802 16A9 00671880 ?Read@CCameraEffect@@UAEXPAVCTStream@@@Z
       5803 16AA 00676610 ?Read@CEffect@@UAEXPAVCTStream@@@Z
       5804 16AB 00677100 ?Read@CEffectControl@@QAEXPAVCTStream@@@Z
       5805 16AC 00680340 ?Read@CEffectGroup@@QAEXPAVCTStream@@@Z
       5806 16AD 00684E30 ?Read@CEffectGroupManager@@QAEXPAVCTStream@@@Z
       5807 16AE 00687CA0 ?Read@CEffectManager@@QAEXPAVCTStream@@@Z
       5808 16AF 0068A710 ?Read@CEntityEffect@@UAEXPAVCTStream@@@Z
       5809 16B0 0068B280 ?Read@CLightEffect@@UAEXPAVCTStream@@@Z
       5810 16B1 0068C4F0 ?Read@CMdlEffect@@UAEXPAVCTStream@@@Z
       5811 16B2 00002400 ?Read@CNetworkMessage@@QAEXPAXJ@Z
       5812 16B3 0068E400 ?Read@COrbitEffect@@UAEXPAVCTStream@@@Z
       5813 16B4 00695190 ?Read@CParticleEffect@@UAEXPAVCTStream@@@Z
       5814 16B5 006BCEE0 ?Read@CParticleGroup@@QAEXPAVCTStream@@@Z
       5815 16B6 006C2CB0 ?Read@CParticleGroupManager@@QAEXPAVCTStream@@@Z
       5816 16B7 006BAD30 ?Read@CParticlePrototype@@QAEXPAVCTStream@@@Z
       5817 16B8 006C6DC0 ?Read@CParticlesAbsorption@@UAEXPAVCTStream@@@Z
       5818 16B9 006C7270 ?Read@CParticlesAbsorptionDefault@@UAEXPAVCTStream@@@Z
       5819 16BA 006C77F0 ?Read@CParticlesAbsorptionSphere@@UAEXPAVCTStream@@@Z
       5820 16BB 006C7E50 ?Read@CParticlesEmitter@@UAEXPAVCTStream@@@Z
       5821 16BC 006C8730 ?Read@CParticlesEmitterCone@@UAEXPAVCTStream@@@Z
       5822 16BD 006C94E0 ?Read@CParticlesEmitterCylinder@@UAEXPAVCTStream@@@Z
       5823 16BE 006C9EA0 ?Read@CParticlesEmitterSphere@@UAEXPAVCTStream@@@Z
       5824 16BF 006CAB60 ?Read@CParticlesProcessControl@@UAEXPAVCTStream@@@Z
       5825 16C0 006CBA80 ?Read@CParticlesProcessDynamicState@@UAEXPAVCTStream@@@Z
       5826 16C1 006CDFA0 ?Read@CParticlesProcessForce@@UAEXPAVCTStream@@@Z
       5827 16C2 006CE8F0 ?Read@CParticlesProcessPointGoal@@UAEXPAVCTStream@@@Z
       5828 16C3 006CF0B0 ?Read@CParticlesProcessVelocity@@UAEXPAVCTStream@@@Z
       5829 16C4 006A3D00 ?Read@CShockWaveEffect@@UAEXPAVCTStream@@@Z
       5830 16C5 006AC330 ?Read@CSkaEffect@@UAEXPAVCTStream@@@Z
       5831 16C6 006AD220 ?Read@CSoundEffect@@UAEXPAVCTStream@@@Z
       5832 16C7 006AF270 ?Read@CSplineBillboardEffect@@UAEXPAVCTStream@@@Z
       5833 16C8 006B2410 ?Read@CSplinePathEffect@@UAEXPAVCTStream@@@Z
       5834 16C9 006B6510 ?Read@CTerrainEffect@@UAEXPAVCTStream@@@Z
       5835 16CA 006B96C0 ?Read@CTraceEffect@@UAEXPAVCTStream@@@Z
       5836 16CB 00546400 ?Read@cWeb@@QAEHAAV?$basic_string@DU?$char_traits@D@std@@V?$allocator@D@2@@std@@0@Z
       5837 16CC 004E1770 ?ReadAddPlayer@CEntityMessage@@QAEXAAKAAJAAVCPlayerCharacter@@001@Z
       5838 16CD 004E2AE0 ?ReadAddSkaString@CEntityMessage@@QAEXAAJAAVCTString@@@Z
       5839 16CE 00645C30 ?ReadAnimEffectFile@CModelInstance@@QAEXABVCTFileName@@@Z
       5840 16CF 004E2920 ?ReadBasePosition@CEntityMessage@@QAEXAAV?$Vector@M$02@@@Z
       5841 16D0 004EC520 ?ReadBits@CNetworkMessage@@QAEXPAXJ@Z
       5842 16D1 00455E80 ?ReadBrushes_t@CWorld@@QAEXPAVCTStream@@@Z
       5843 16D2 005DBE10 ?ReadByte@ByteQueueData@@QAEEXZ
       5844 16D3 00A1BF00 ?ReadChunkAlloc_t@CTStream@@QAEPAXJ@Z
       5845 16D4 00A1BD40 ?ReadChunk_t@CTStream@@QAEXPAXJ@Z
       5846 16D5 00A1C9E0 ?ReadDictionary_intenal_t@CTStream@@QAEXJ@Z
       5847 16D6 005DB9C0 ?ReadDouble@ByteQueueData@@QAENXZ
       5848 16D7 005DBC60 ?ReadDword@ByteQueueData@@QAEKXZ
       5849 16D8 0028E5C0 ?ReadElement@UIFactory@@AAEXPAVTiXmlElement@@PAVCUIBase@@@Z
       5850 16D9 004E1020 ?ReadEntityCopy@CEntityMessage@@QAEXAAK0AAVCPlacement3D@@E@Z
       5851 16DA 004E0D50 ?ReadEntityCreate@CEntityMessage@@QAEXAAKAAVCPlacement3D@@AAG@Z
       5852 16DB 004E11F0 ?ReadEntityDestroy@CEntityMessage@@QAEXAAK@Z
       5853 16DC 004E1340 ?ReadEntityEvent@CEntityMessage@@QAEXAAKAAJPAX1@Z
       5854 16DD 004E14D0 ?ReadEntityInitialize@CEntityMessage@@QAEXAAKAAJPAX1@Z
       5855 16DE 005B1C20 ?ReadEntityPointer_t@CEntity@@QAEXPAVCTStream@@AAVCEntityPointer@@@Z
       5856 16DF 00A2F6B0 ?ReadEntitySectorLinks_t@CBrushArchive@@QAEXAAVCTStream@@@Z
       5857 16E0 005DBB60 ?ReadFloat@ByteQueueData@@QAEMXZ
       5858 16E1 009F0220 ?ReadFromStreamShort@CTString@@QAEXPAVCTStream@@@Z
       5859 16E2 009F66F0 ?ReadFromText_t@CTFileName@@QAEXAAVCTStream@@ABVCTString@@@Z
       5860 16E3 009EE490 ?ReadFromText_t@CTString@@QAEXAAVCTStream@@ABV1@@Z
       5861 16E4 00A1BE30 ?ReadFullChunk_t@CTStream@@QAEXABVCChunkID@@PAXJ@Z
       5862 16E5 004D6CE0 ?ReadInfo@CCommunicationInterface@@IAEHPAULoginServer@@@Z
       5863 16E6 00459ED0 ?ReadInfo_t@CWorld@@QAEXPAVCTStream@@H@Z
       5864 16E7 00A48A40 ?ReadLayers_t@CBrushShadowMap@@UAEXPAVCTStream@@@Z
       5865 16E8 00371170 ?ReadLayers_t@CShadowMap@@UAEXPAVCTStream@@@Z
       5866 16E9 003EE1A0 ?ReadMipSettings_t@CEditModel@@QAEXPAVCTStream@@J@Z
       5867 16EA 00A08A90 ?ReadModelInstance_t@@YAXAAVCTStream@@AAVCModelInstance@@H@Z
       5868 16EB 003FEF00 ?ReadName_t@CModelCollisionBox@@QAEXPAVCTStream@@@Z
       5869 16EC 002FF090 ?ReadOld_t@CMappingDefinition@@QAEXAAVCTStream@@@Z
       5870 16ED 004E2040 ?ReadPause@CEntityMessage@@QAEXAAHAAVCTString@@@Z
       5871 16EE 004E0A30 ?ReadPlacement@CEntityMessage@@QAEXAAKAAVCPlacement3D@@1@Z
       5872 16EF 004E1CC0 ?ReadPlacementNotify@CEntityMessage@@QAEXAAKAAE@Z
       5873 16F0 004E2D00 ?ReadPlayerAction@CEntityMessage@@QAEXAAKAAVCPlayerAction@@@Z
       5874 16F1 004E1B60 ?ReadPlayerUpdate@CEntityMessage@@QAEXAAKAAVCNetworkMessage@@@Z
       5875 16F2 00A2F310 ?ReadPortalSectorLinks_t@CBrushArchive@@QAEXAAVCTStream@@@Z
       5876 16F3 002469A0 ?ReadPreviousId@CUILoginNew@@QAEXXZ
       5877 16F4 005B1DF0 ?ReadProperties_t@CEntity@@QAEXAAVCTStream@@H@Z
       5878 16F5 00A1BC80 ?ReadRawChunk_t@CTStream@@QAEXPAXJ@Z
       5879 16F6 004FDEB0 ?ReadRememberedLevels_t@CSessionState@@QAEXPAVCTStream@@@Z
       5880 16F7 004E2250 ?ReadRemovePlayer@CEntityMessage@@QAEXAAJ@Z
       5881 16F8 0059D990 ?ReadSKAQueue@CEntity@@QAEXAAVCNetworkMessage@@@Z
       5882 16F9 0059D750 ?ReadSKAQueue@CEntity@@QAEXPAVCTStream@@@Z
       5883 16FA 003FD570 ?ReadSettings_t@MappingSurface@@QAEXPAVCTStream@@@Z
       5884 16FB 004E1E90 ?ReadSka@CEntityMessage@@QAEXAAKAAEPAXAAJ@Z
       5885 16FC 004E2760 ?ReadSound@CEntityMessage@@QAEXAAKAAEPAXAAJ@Z
       5886 16FD 004E1A10 ?ReadStartAnim@CEntityMessage@@QAEXAAKAAJ0@Z
       5887 16FE 00458000 ?ReadState_net_t@CWorld@@QAEXPAVCTStream@@@Z
       5888 16FF 004575D0 ?ReadState_new_t@CWorld@@QAEXPAVCTStream@@@Z
       5889 1700 00456EF0 ?ReadState_old_t@CWorld@@QAEXPAVCTStream@@@Z
       5890 1701 004FD570 ?ReadState_t@CSessionState@@QAEXPAVCTStream@@@Z
       5891 1702 004564F0 ?ReadState_t@CWorld@@QAEXPAVCTStream@@@Z
       5892 1703 004566C0 ?ReadState_veryold_t@CWorld@@QAEXPAVCTStream@@@Z
       5893 1704 00A1C010 ?ReadStream_t@CTStream@@QAEXAAV1@@Z
       5894 1705 005DB870 ?ReadString@ByteQueueData@@QAE?AV?$basic_string@DU?$char_traits@D@std@@V?$allocator@D@2@@std@@XZ
       5895 1706 00246AC0 ?ReadTextDevPreviousIdPw@CUILoginNew@@QAEXXZ
       5896 1707 00A25BD0 ?ReadTranslationTable_t@@YAXAAV?$CDynamicArray@VCTranslationPair@@@@ABVCTFileName@@@Z
       5897 1708 009EE850 ?ReadUntilEOF_t@CTString@@QAEXAAVCTStream@@@Z
       5898 1709 005DBD60 ?ReadWord@ByteQueueData@@QAEGXZ
       5899 170A 004FD710 ?ReadWorldAndState_t@CSessionState@@QAEXPAVCTStream@@@Z
       5900 170B 00375FB0 ?Read_PNG@CTextureData@@QAEXPAVCTStream@@@Z
       5901 170C 00A7F5D0 ?Read_net_Character@CPlayerEntity@@UAEXHHPAVCNetworkMessage@@@Z
       5902 170D 00A7F670 ?Read_net_Damage@CPlayerEntity@@UAEXCPAVCNetworkMessage@@@Z
       5903 170E 00A7F650 ?Read_net_Damage_Character@CPlayerEntity@@UAEXPAVCNetworkMessage@@@Z
       5904 170F 00A7F690 ?Read_net_DissappearEffect@CPlayerEntity@@UAEXPAVCNetworkMessage@@@Z
       5905 1710 00A7F5B0 ?Read_net_Mob@CPlayerEntity@@UAEXHPAVCNetworkMessage@@@Z
       5906 1711 00A7F5F0 ?Read_net_Pet@CPlayerEntity@@UAEXHPAVCNetworkMessage@@@Z
       5907 1712 00A7F710 ?Read_net_StatusElemental@CPlayerEntity@@UAEXPAVCNetworkMessage@@@Z
       5908 1713 00A7F6D0 ?Read_net_StatusNPC@CPlayerEntity@@UAEXPAVCNetworkMessage@@@Z
       5909 1714 00A7F6B0 ?Read_net_StatusPC@CPlayerEntity@@UAEXPAVCNetworkMessage@@@Z
       5910 1715 00A7F6F0 ?Read_net_StatusPet@CPlayerEntity@@UAEXPAVCNetworkMessage@@@Z
       5911 1716 00A7F630 ?Read_net_Summon@CPlayerEntity@@UAEXHPAVCNetworkMessage@@@Z
       5912 1717 00A7F610 ?Read_net_WildPet@CPlayerEntity@@UAEXHPAVCNetworkMessage@@@Z
       5913 1718 00A3BEA0 ?Read_new_t@CBrush3D@@QAEXPAVCTStream@@@Z
       5914 1719 00A3C220 ?Read_new_t@CBrushMip@@QAEXPAVCTStream@@@Z
       5915 171A 00A3BD20 ?Read_old_t@CBrush3D@@QAEXPAVCTStream@@@Z
       5916 171B 00A3C150 ?Read_old_t@CBrushMip@@QAEXPAVCTStream@@@Z
       5917 171C 00370AF0 ?Read_old_t@CShadowMap@@QAEXPAVCTStream@@@Z
       5918 171D 00624880 ?Read_t@CAnimSet@@UAEXPAVCTStream@@@Z
       5919 171E 003E6CB0 ?Read_t@CAttachedModel@@QAEXPAVCTStream@@@Z
       5920 171F 003FF060 ?Read_t@CAttachedModelPosition@@QAEXPAVCTStream@@@Z
       5921 1720 003E7110 ?Read_t@CAttachedSound@@QAEXPAVCTStream@@@Z
       5922 1721 00A3BBA0 ?Read_t@CBrush3D@@QAEXPAVCTStream@@@Z
       5923 1722 00A2FFF0 ?Read_t@CBrushArchive@@UAEXPAVCTStream@@@Z
       5924 1723 00A3C3D0 ?Read_t@CBrushPolygonTexture@@QAEXAAVCTStream@@@Z
       5925 1724 00A3CC80 ?Read_t@CBrushSector@@QAEXPAVCTStream@@@Z
       5926 1725 003E72A0 ?Read_t@CEditModel@@UAEXPAVCTStream@@@Z
       5927 1726 005A1470 ?Read_t@CEntity@@UAEXPAVCTStream@@H@Z
       5928 1727 005A84C0 ?Read_t@CEntityClass@@UAEXPAVCTStream@@@Z
       5929 1728 00328350 ?Read_t@CFontCharData@@QAEXPAVCTStream@@H@Z
       5930 1729 00328780 ?Read_t@CFontData@@UAEXPAVCTStream@@@Z
       5931 172A 00362090 ?Read_t@CImageInfo@@QAEXPAVCTStream@@@Z
       5932 172B 005E9670 ?Read_t@CLightSource@@QAEXPAVCTStream@@H@Z
       5933 172C 005A2380 ?Read_t@CLiveEntity@@UAEXPAVCTStream@@H@Z
       5934 172D 0062E650 ?Read_t@CMesh@@UAEXPAVCTStream@@@Z
       5935 172E 003FEDA0 ?Read_t@CModelCollisionBox@@QAEXPAVCTStream@@@Z
       5936 172F 003FF760 ?Read_t@CModelData@@UAEXPAVCTStream@@@Z
       5937 1730 00644A70 ?Read_t@CModelInstanceSerial@@UAEXPAVCTStream@@@Z
       5938 1731 004016B0 ?Read_t@CModelObject@@QAEXPAVCTStream@@@Z
       5939 1732 003FBF80 ?Read_t@CModelPatch@@QAEXPAVCTStream@@@Z
       5940 1733 003FBE70 ?Read_t@CModelRenderPrefs@@QAEXPAVCTStream@@@Z
       5941 1734 00A6F510 ?Read_t@CMovableBrushEntity@@UAEXPAVCTStream@@H@Z
       5942 1735 00A70B60 ?Read_t@CMovableEntity@@UAEXPAVCTStream@@H@Z
       5943 1736 00A7B420 ?Read_t@CMovableModelEntity@@UAEXPAVCTStream@@H@Z
       5944 1737 005CBB50 ?Read_t@CPlayerCharacter@@QAEXPAVCTStream@@@Z
       5945 1738 00A80A40 ?Read_t@CPlayerEntity@@UAEXPAVCTStream@@H@Z
       5946 1739 005A2780 ?Read_t@CRationalEntity@@UAEXPAVCTStream@@H@Z
       5947 173A 004FD380 ?Read_t@CSessionState@@QAEXPAVCTStream@@H@Z
       5948 173B 0036DAC0 ?Read_t@CShader@@UAEXPAVCTStream@@@Z
       5949 173C 00370CF0 ?Read_t@CShadowMap@@QAEXPAVCTStream@@@Z
       5950 173D 0066CA70 ?Read_t@CSkeleton@@UAEXPAVCTStream@@@Z
       5951 173E 003D1A60 ?Read_t@CSoundData@@UAEXPAVCTStream@@@Z
       5952 173F 003E1160 ?Read_t@CSoundObject@@QAEXPAVCTStream@@H@Z
       5953 1740 00003980 ?Read_t@CTStream@@QAEXPAXJ@Z
       5954 1741 005EBF20 ?Read_t@CTerrain@@QAEXPAVCTStream@@@Z
       5955 1742 005F0110 ?Read_t@CTerrainArchive@@UAEXPAVCTStream@@@Z
       5956 1743 00373D70 ?Read_t@CTextureData@@UAEXPAVCTStream@@@Z
       5957 1744 003783C0 ?Read_t@CTextureObject@@QAEXPAVCTStream@@@Z
       5958 1745 003E3340 ?Read_t@CThumbnailSettings@@QAEXPAVCTStream@@@Z
       5959 1746 00455A40 ?Read_t@CWorld@@QAEXPAVCTStream@@@Z
       5960 1747 003FD630 ?Read_t@MappingSurface@@QAEXPAVCTStream@@HH@Z
       5961 1748 003FE210 ?Read_t@ModelMipInfo@@QAEXPAVCTStream@@HHH@Z
       5962 1749 003FCF30 ?Read_t@ModelPolygon@@QAEXPAVCTStream@@@Z
       5963 174A 003FCD60 ?Read_t@ModelPolygonVertex@@QAEXPAVCTStream@@@Z
       5964 174B 00455B90 ?Read_t_ext@CWorld@@QAEXPAVCTStream@@0@Z
       5965 174C 0062E780 ?Read_t_new@CMesh@@QAEXPAVCTStream@@H@Z
       5966 174D 00630B60 ?Read_t_old@CMesh@@QAEXPAVCTStream@@H@Z
       5967 174E 004E2480 ?ReadcharacterChange@CEntityMessage@@QAEXAAKAAVCPlayerCharacter@@@Z
       5968 174F 0082DF30 ?RearrangeOrder@CUIManager@@QAEXHH@Z
       5969 1750 00A7FF60 ?Rebirth@CPlayerEntity@@UAEXXZ
       5970 1751 004209F0 ?RebuildLinks@CWorld@@QAEXXZ
       5971 1752 002D5AE0 ?RecalculatePlanes@CObject3D@@QAEXXZ
       5972 1753 004F6A70 ?ReceiveAcknowledge@CServer@@QAEXJM@Z
       5973 1754 00512090 ?ReceiveActionMessage@CSessionState@@QAEXPAVCNetworkMessage@@@Z
       5974 1755 0053A520 ?ReceiveAffinityMessage@CSessionState@@QAEXPAVCNetworkMessage@@@Z
       5975 1756 00513080 ?ReceiveAssistMessage@CSessionState@@QAEXPAVCNetworkMessage@@@Z
       5976 1757 00508D20 ?ReceiveAttackMessage@CSessionState@@QAEXPAVCNetworkMessage@@@Z
       5977 1758 003A7770 ?ReceiveAttendanceMessage@CSessionState@@QAEXPAVCNetworkMessage@@@Z
       5978 1759 004E9980 ?ReceiveBroadcast@CMessageDispatcher@@QAEHAAVCNetworkMessage@@AAKAAG@Z
       5979 175A 00529CE0 ?ReceiveCalendarMessage@CSessionState@@QAEXPAVCNetworkMessage@@@Z
       5980 175B 00518310 ?ReceiveCashPersonShopMessage@CSessionState@@QAEXPAVCNetworkMessage@@@Z
       5981 175C 005244E0 ?ReceiveChangeJobMessage@CSessionState@@QAEXPAVCNetworkMessage@@@Z
       5982 175D 00A5AD30 ?ReceiveCharSlot@CGameState@@QAEXAAVCNetworkMessage@@@Z
       5983 175E 00502E50 ?ReceiveChatMessage@CSessionState@@QAEXPAVCNetworkMessage@@@Z
       5984 175F 003BAF10 ?ReceiveCostSuitTakeOff@CSessionState@@AAEXXZ
       5985 1760 005A1300 ?ReceiveDamage@CEntity@@UAEXPAV1@W4DamageType@@MABV?$Vector@M$02@@2@Z
       5986 1761 005A2400 ?ReceiveDamage@CLiveEntity@@UAEXPAVCEntity@@W4DamageType@@MABV?$Vector@M$02@@2@Z
       5987 1762 00529E40 ?ReceiveDurabilityMessage@CSessionState@@QAEXPAVCNetworkMessage@@@Z
       5988 1763 00511E00 ?ReceiveEXPMessage@CSessionState@@QAEXPAVCNetworkMessage@@@Z
       5989 1764 00511110 ?ReceiveEffectMessage@CSessionState@@QAEXPAVCNetworkMessage@@@Z
       5990 1765 00539C30 ?ReceiveElementalDeleteMessage@CSessionState@@QAEXPAVCNetworkMessage@@@Z
       5991 1766 005120F0 ?ReceiveEnvMessage@CSessionState@@QAEXPAVCNetworkMessage@@@Z
       5992 1767 00527020 ?ReceiveEventMaster@CSessionState@@QAEXPAVCNetworkMessage@@@Z
       5993 1768 00394A50 ?ReceiveEventMessage@CSessionState@@QAEXPAVCNetworkMessage@@@Z
       5994 1769 00539D90 ?ReceiveEvocationStart@CSessionState@@QAEXPAVCNetworkMessage@@@Z
       5995 176A 00539E60 ?ReceiveEvocationStop@CSessionState@@QAEXPAVCNetworkMessage@@@Z
       5996 176B 00526D20 ?ReceiveExHairChange@CSessionState@@QAEXPAVCNetworkMessage@@@Z
       5997 176C 0053B180 ?ReceiveExLoadingEndMessage@CSessionState@@QAEXPAVCNetworkMessage@@@Z
       5998 176D 005277F0 ?ReceiveExPetColorChange@CSessionState@@QAEXPAVCNetworkMessage@@@Z
       5999 176E 00527290 ?ReceiveExPetNameChange@CSessionState@@QAEXPAVCNetworkMessage@@@Z
       6000 176F 00526E40 ?ReceiveExPlayerStateChange@CSessionState@@QAEXPAVCNetworkMessage@@@Z
       6001 1770 00535DD0 ?ReceiveExWildPetMessage@CSessionState@@QAEXEPAVCNetworkMessage@@@Z
       6002 1771 00508E50 ?ReceiveExchangeMessage@CSessionState@@QAEXPAVCNetworkMessage@@@Z
       6003 1772 00527CE0 ?ReceiveExpeditionMessage@CSessionState@@QAEXPAVCNetworkMessage@@@Z
       6004 1773 00529C90 ?ReceiveExpressMessage@CSessionState@@QAEXPAVCNetworkMessage@@@Z
       6005 1774 0052DB50 ?ReceiveExtendMessage@CSessionState@@QAEXPAVCNetworkMessage@@@Z
       6006 1775 00528B40 ?ReceiveFactoryMessage@CSessionState@@QAEXPAVCNetworkMessage@@@Z
       6007 1776 00525D20 ?ReceiveFailMessage@CSessionState@@QAEXPAVCNetworkMessage@@@Z
       6008 1777 004E9720 ?ReceiveFromClient@CMessageDispatcher@@QAEHJAAVCNetworkMessage@@@Z
       6009 1778 004E9800 ?ReceiveFromClientReliable@CMessageDispatcher@@QAEHJAAVCNetworkMessage@@@Z
       6010 1779 004E9090 ?ReceiveFromServer@CMessageDispatcher@@QAEHAAVCNetworkMessage@@@Z
       6011 177A 004E9210 ?ReceiveFromServerNew@CMessageDispatcher@@QAEHAAVCNetworkMessage@@@Z
       6012 177B 004E9540 ?ReceiveFromServerReliable@CMessageDispatcher@@QAEHAAVCNetworkMessage@@@Z
       6013 177C 004E9620 ?ReceiveFromServerReliable@CMessageDispatcher@@QAEHAAVCTMemoryStream@@@Z
       6014 177D 00504D60 ?ReceiveGmMessage@CSessionState@@QAEXPAVCNetworkMessage@@@Z
       6015 177E 005048C0 ?ReceiveGoToMessage@CSessionState@@QAEXPAVCNetworkMessage@@@Z
       6016 177F 00504E20 ?ReceiveGoZoneMessage@CSessionState@@QAEXPAVCNetworkMessage@@@Z
       6017 1780 0051A020 ?ReceiveGuildMessage@CSessionState@@QAEXPAVCNetworkMessage@@@Z
       6018 1781 00504E00 ?ReceiveInventoryMessage@CSessionState@@QAEXPAVCNetworkMessage@@@Z
       6019 1782 00529FE0 ?ReceiveItemCollectionMessage@CSessionState@@QAEXPAVCNetworkMessage@@@Z
       6020 1783 0052A080 ?ReceiveItemComposMessage@CSessionState@@QAEXPAVCNetworkMessage@@@Z
       6021 1784 003BB910 ?ReceiveItemExchange@CSessionState@@AAEXPAVCNetworkMessage@@@Z
       6022 1785 00504F40 ?ReceiveItemMessage@CSessionState@@QAEXPAVCNetworkMessage@@@Z
       6023 1786 003B8070 ?ReceiveItemWearError@CSessionState@@AAEXPAVCNetworkMessage@@@Z
       6024 1787 005190A0 ?ReceiveLegitimateMessage@CSessionState@@QAEXPAVCNetworkMessage@@@Z
       6025 1788 005031A0 ?ReceiveLoginMessage@CSessionState@@QAEXPAVCNetworkMessage@@@Z
       6026 1789 005049A0 ?ReceiveMemPosMessage@CSessionState@@QAEXPAVCNetworkMessage@@@Z
       6027 178A 00893110 ?ReceiveMercenaryMessage@CUIMonsterMercenary@@QAEHPAVCNetworkMessage@@JJJJ@Z
       6028 178B 00500250 ?ReceiveMessage@CSessionState@@QAEHXZ
       6029 178C 00525010 ?ReceiveMessengerExMessage@CSessionState@@QAEXPAVCNetworkMessage@@@Z
       6030 178D 00524E10 ?ReceiveMessengerMessage@CSessionState@@QAEXPAVCNetworkMessage@@@Z
       6031 178E 005299B0 ?ReceiveMoneyMessage@CSessionState@@QAEXPAVCNetworkMessage@@@Z
       6032 178F 00504790 ?ReceiveMoveMessage@CSessionState@@QAEXPAVCNetworkMessage@@@Z
       6033 1790 005294D0 ?ReceiveNPCPortalMessage@CSessionState@@QAEXPAVCNetworkMessage@@@Z
       6034 1791 003A77B0 ?ReceiveNewsMessage@CSessionState@@QAEXPAVCNetworkMessage@@@Z
       6035 1792 0053B210 ?ReceiveNickNameMessage@CSessionState@@QAEXPAVCNetworkMessage@@@Z
       6036 1793 00504130 ?ReceiveNpcRegenMessage@CSessionState@@QAEXPAVCNetworkMessage@@@Z
       6037 1794 00509CF0 ?ReceivePartyMessage@CSessionState@@QAEXPAVCNetworkMessage@@@Z
       6038 1795 00539270 ?ReceivePartyRecall@CSessionState@@QAEXPAVCNetworkMessage@@@Z
       6039 1796 005175A0 ?ReceivePersonalShopMessage@CSessionState@@QAEXPAVCNetworkMessage@@@Z
       6040 1797 00538B80 ?ReceivePetChangeMountMessage@CSessionState@@QAEXPAVCNetworkMessage@@@Z
       6041 1798 00538530 ?ReceivePetLearnMessage@CSessionState@@QAEXPAVCNetworkMessage@@@Z
       6042 1799 00538C00 ?ReceivePetLevelUpMessage@CSessionState@@QAEXPAVCNetworkMessage@@@Z
       6043 179A 00538020 ?ReceivePetMountMessage@CSessionState@@QAEXPAVCNetworkMessage@@@Z
       6044 179B 005387F0 ?ReceivePetResetSkillMessage@CSessionState@@QAEXPAVCNetworkMessage@@@Z
       6045 179C 005389F0 ?ReceivePetSellInfoMessage@CSessionState@@QAEXPAVCNetworkMessage@@@Z
       6046 179D 00538670 ?ReceivePetSkillListMessage@CSessionState@@QAEXPAVCNetworkMessage@@@Z
       6047 179E 00529DA0 ?ReceivePetStashMessage@CSessionState@@QAEXPAVCNetworkMessage@@@Z
       6048 179F 005378F0 ?ReceivePetStatusMessage@CSessionState@@QAEXPAVCNetworkMessage@@@Z
       6049 17A0 00517170 ?ReceivePkMessage@CSessionState@@QAEXPAVCNetworkMessage@@@Z
       6050 17A1 0052A030 ?ReceivePremiumCharMessage@CSessionState@@QAEXPAVCNetworkMessage@@@Z
       6051 17A2 00514720 ?ReceiveQuestMessage@CSessionState@@QAEXPAVCNetworkMessage@@@Z
       6052 17A3 0050AA40 ?ReceiveQuickSlotMessage@CSessionState@@QAEXPAVCNetworkMessage@@@Z
       6053 17A4 00529DF0 ?ReceiveRVRMessage@CSessionState@@QAEXPAVCNetworkMessage@@@Z
       6054 17A5 00A80650 ?ReceiveRaidScene@CPlayerEntity@@UAEXPAVCNetworkMessage@@@Z
       6055 17A6 005110B0 ?ReceiveRebirthMessage@CSessionState@@QAEXPAVCNetworkMessage@@@Z
       6056 17A7 0050C810 ?ReceiveSSkillMessage@CSessionState@@QAEXPAVCNetworkMessage@@@Z
       6057 17A8 00503E00 ?ReceiveServerListMessage@CSessionState@@QAEXPAVCNetworkMessage@@@Z
       6058 17A9 0050AEE0 ?ReceiveSkillMessage@CSessionState@@QAEXPAVCNetworkMessage@@@Z
       6059 17AA 0050C9C0 ?ReceiveStatMessage@CSessionState@@QAEXPAVCNetworkMessage@@@Z
       6060 17AB 0050CE80 ?ReceiveSystemMessage@CSessionState@@QAEXPAVCNetworkMessage@@@Z
       6061 17AC 0053BC40 ?ReceiveTakeAgainQuestItem@CSessionState@@QAEXPAVCNetworkMessage@@@Z
       6062 17AD 00521440 ?ReceiveTeachMessage@CSessionState@@QAEXPAVCNetworkMessage@@@Z
       6063 17AE 00502C90 ?ReceiveTick@CSessionState@@QAEXMPAEJ@Z
       6064 17AF 00529D30 ?ReceiveTimerItemMessage@CSessionState@@QAEXPAVCNetworkMessage@@@Z
       6065 17B0 00529E90 ?ReceiveToggleMessage@CSessionState@@QAEXPAVCNetworkMessage@@@Z
       6066 17B1 00A80630 ?ReceiveTriggerEvent@CPlayerEntity@@UAEXJJJPAVCNetworkMessage@@@Z
       6067 17B2 0050CD50 ?ReceiveUIMessage@CSessionState@@QAEXPAVCNetworkMessage@@@Z
       6068 17B3 00519190 ?ReceiveWareHouseMessage@CSessionState@@QAEXPAVCNetworkMessage@@@Z
       6069 17B4 00512420 ?ReceiveWarpMessage@CSessionState@@QAEXPAVCNetworkMessage@@@Z
       6070 17B5 00539140 ?ReceviePetItemChangeMessage@CSessionState@@QAEXPAVCNetworkMessage@@@Z
       6071 17B6 005390C0 ?ReceviePetItemMixMessage@CSessionState@@QAEXPAVCNetworkMessage@@@Z
       6072 17B7 005391C0 ?ReceviePetRebirthMessage@CSessionState@@QAEXPAVCNetworkMessage@@@Z
       6073 17B8 0053BF50 ?RecieveCostume2Message@CSessionState@@QAEXPAVCNetworkMessage@@@Z
       6074 17B9 0053DBF0 ?RecieveFaceOffMessage@CSessionState@@QAEXPAVCNetworkMessage@@@Z
       6075 17BA 0053CA10 ?RecieveLordCostumeMessage@CSessionState@@QAEXPAVCNetworkMessage@@@Z
       6076 17BB 0053E0D0 ?RecieveLuckyDrawBoxMessage@CSessionState@@QAEXPAVCNetworkMessage@@@Z
       6077 17BC 0053FFC0 ?RecieveMasterStoneMessage@CSessionState@@QAEXPAVCNetworkMessage@@@Z
       6078 17BD 0053D1F0 ?RecieveMonsterMercenaryCardMessage@CSessionState@@QAEXPAVCNetworkMessage@@@Z
       6079 17BE 0053E4B0 ?RecieveMsgBoxShow@CSessionState@@QAEXPAVCNetworkMessage@@@Z
       6080 17BF 005295D0 ?RecievePromotionEventMessage@CSessionState@@QAEXPAVCNetworkMessage@@@Z
       6081 17C0 00540020 ?RecieveRankingListExMessage@CSessionState@@QAEXPAVCNetworkMessage@@@Z
       6082 17C1 0053EAA0 ?RecieveRoyalrumbleMessage@CSessionState@@QAEXPAVCNetworkMessage@@@Z
       6083 17C2 0053C1F0 ?RecieveSocketSystemMessage@CSessionState@@QAEXPAVCNetworkMessage@@@Z
       6084 17C3 0053CD30 ?RecieveSubJobMessage@CSessionState@@QAEXPAVCNetworkMessage@@@Z
       6085 17C4 0053E9A0 ?RecieveUsedPartyItemMessage@CSessionState@@QAEXPAVCNetworkMessage@@@Z
       6086 17C5 00719D20 ?RecommandFrameInit@CUICashShopEX@@IAEXMM@Z
       6087 17C6 004D1690 ?Reconnect@CCommunicationInterface@@QAEXVCTString@@K@Z
       6088 17C7 000FE830 ?RecvChangeExpedition@Party@@QAEXPAVCNetworkMessage@@@Z
       6089 17C8 000FEFB0 ?RecvExpeditionError@Party@@QAEXPAVCNetworkMessage@@@Z
       6090 17C9 000FEB80 ?RecvExpeditionInvite@Party@@QAEXPAVCNetworkMessage@@@Z
       6091 17CA 00106A90 ?RecvExpressMessage@ExpressSystem@@QAEXPAVCNetworkMessage@@@Z
       6092 17CB 003A7150 ?RecvExtend@CSessionState@@AAE_NPAVCNetworkMessage@@@Z
       6093 17CC 0011A200 ?RecvPetStashMessage@PetStash@@QAEXPAVCNetworkMessage@@@Z
       6094 17CD 000FF6D0 ?RecvRaidError@Party@@QAEXPAVCNetworkMessage@@@Z
       6095 17CE 00100260 ?RecvViewDetail@Party@@QAEXCPAVCNetworkMessage@@@Z
       6096 17CF 00371CA0 ?ReduceShadows@CGfxLibrary@@QAEXXZ
       6097 17D0 0049F260 ?RefineReq@CNetworkLibrary@@QAEXFF@Z
       6098 17D1 005BC8A0 ?Refresh@CItemEffect@@QAEXPAVCTagManager@@C@Z
       6099 17D2 005E2840 ?Refresh@CStatusEffect@@QAEXPAVCTagManager@@W4eRelation@1@@Z
       6100 17D3 005BCBD0 ?RefreshAccessoryEffect@CItemEffect@@QAEXPAVCTagManager@@@Z
       6101 17D4 003BEC40 ?RefreshGuildMasterEffect@ActorMgr@@QAEXXZ
       6102 17D5 003BEAD0 ?RefreshNPCQuestMark@ActorMgr@@QAEXJ@Z
       6103 17D6 005BDC00 ?RefreshPetStashEffect@CItemEffect@@QAEXPAVCTagManager@@@Z
       6104 17D7 003BE9B0 ?RefreshQuestMark@ActorMgr@@QAEXXZ
       6105 17D8 005BDC90 ?RefreshRelicEffect@CItemEffect@@QAEXPAVCTagManager@@@Z
       6106 17D9 003BF030 ?RefreshSiegeWarfareEffect@ActorMgr@@QAEX_N@Z
       6107 17DA 00645660 ?RefreshTagManager@CModelInstance@@QAEXXZ
       6108 17DB 00684490 ?Register@CEffectGroupManager@@QAEHPAVCEffectGroup@@@Z
       6109 17DC 00687260 ?Register@CEffectManager@@QAEHPAVCEffect@@@Z
       6110 17DD 006C24C0 ?Register@CParticleGroupManager@@QAEHPAVCParticleGroup@@@Z
       6111 17DE 006D30A0 ?Register@CTagManager@@QAEHPAVCTag@@@Z
       6112 17DF 00154390 ?RegisterActions@CUICharacterInfo@@QAEXXZ
       6113 17E0 006D3230 ?RegisterNoCopy@CTagManager@@QAEHPAVCTag@@@Z
       6114 17E1 004EB920 ?Reinit@CNetworkMessage@@QAEXXZ
       6115 17E2 00593CE0 ?Reinitialize@CEntity@@QAEXXZ
       6116 17E3 00420370 ?ReinitializeEntities@CWorld@@QAEXXZ
       6117 17E4 002F2240 ?RelativeToAbsolute@CPlacement3D@@QAEXABV1@@Z
       6118 17E5 002F2390 ?RelativeToAbsoluteSmooth@CPlacement3D@@QAEXABV1@@Z
       6119 17E6 002F24E0 ?RelativeToRelative@CPlacement3D@@QAEXABV1@0@Z
       6120 17E7 002F25F0 ?RelativeToRelativeSmooth@CPlacement3D@@QAEXABV1@0@Z
       6121 17E8 005B3210 ?Release@CEntityComponent@@QAEXXZ
       6122 17E9 0046DF50 ?Release@CStock_CAnimData@@QAEXPAVCAnimData@@@Z
       6123 17EA 00471740 ?Release@CStock_CAnimSet@@QAEXPAVCAnimSet@@@Z
       6124 17EB 004746A0 ?Release@CStock_CEntityClass@@QAEXPAVCEntityClass@@@Z
       6125 17EC 00477600 ?Release@CStock_CFontData@@QAEXPAVCFontData@@@Z
       6126 17ED 0047A560 ?Release@CStock_CMesh@@QAEXPAVCMesh@@@Z
       6127 17EE 0047CFF0 ?Release@CStock_CModelData@@QAEXPAVCModelData@@@Z
       6128 17EF 0047FA80 ?Release@CStock_CModelInstance@@QAEXPAVCModelInstanceSerial@@@Z
       6129 17F0 004829E0 ?Release@CStock_CShader@@QAEXPAVCShader@@@Z
       6130 17F1 004857B0 ?Release@CStock_CSkeleton@@QAEXPAVCSkeleton@@@Z
       6131 17F2 00488710 ?Release@CStock_CSoundData@@QAEXPAVCSoundData@@@Z
       6132 17F3 0048B1A0 ?Release@CStock_CTextureData@@QAEXPAVCTextureData@@@Z
       6133 17F4 00009EC0 ?Release@CTag@@QAEKXZ
       6134 17F5 002B1300 ?Release@CUITextBoxEx@@QAEXXZ
       6135 17F6 005B3310 ?ReleaseCache@CDLLEntityClass@@QAEXW4EntityComponentType@@J@Z
       6136 17F7 005A30F0 ?ReleaseChche@CEntity@@QAEXW4EntityComponentType@@J@Z
       6137 17F8 005A8150 ?ReleaseComponents@CEntityClass@@QAEXXZ
       6138 17F9 003DA0E0 ?ReleasePlayingBuffer@CSoundLibrary@@QAEXJH@Z
       6139 17FA 000A91D0 ?ReleaseTexData@CUIImage@@QAEXXZ
       6140 17FB 000AC240 ?ReleaseTexData@CUISpriteAni@@QAEXXZ
       6141 17FC 00A0ADA0 ?Reload@CSerial@@QAEXXZ
       6142 17FD 00378280 ?Reload@CTextureData@@QAEXXZ
       6143 17FE 009FF940 ?RemAll@CListHead@@QAEXXZ
       6144 17FF 0059C2B0 ?RemAnimation@CEntity@@QAEXJJ@Z
       6145 1800 00642930 ?RemAnimation@CModelInstance@@QAEXJ@Z
       6146 1801 0059C580 ?RemAnimsWithID@CEntity@@QAEXJJ@Z
       6147 1802 00642AE0 ?RemAnimsWithID@CModelInstance@@QAEXJ@Z
       6148 1803 00A24F80 ?RemHandler@CTimer@@QAEXPAVCTimerHandler@@@Z
       6149 1804 009FF7E0 ?RemHead@CListHead@@QAEXXZ
       6150 1805 0000DBB0 ?RemReference@CEntity@@QAEXXZ
       6151 1806 005A7C60 ?RemReference@CEntityClass@@QAEXXZ
       6152 1807 003D2260 ?RemReference@CSoundData@@QAEXXZ
       6153 1808 00400A60 ?RemReference_internal@CModelData@@UAEXXZ
       6154 1809 00379150 ?RemReference_internal@CTextureData@@UAEXXZ
       6155 180A 009FF890 ?RemTail@CListHead@@QAEXXZ
       6156 180B 006B9B20 ?RemakeColorsAndTexCoords@CTraceEffect@@IAEXJ@Z
       6157 180C 00628980 ?RemapMeshIndices@@YAXAAUMeshLOD@@PBJJ@Z
       6158 180D 00628BC0 ?RemapMeshVertices@@YAXAAUMeshLOD@@PBJJ@Z
       6159 180E 004FE500 ?RememberCurrentLevel@CSessionState@@QAEXABVCTString@@@Z
       6160 180F 00622F20 ?RememberUnCompresedRotatations@@YAXH@Z
       6161 1810 00107A90 ?RemoteitemUse@ExpressSystem@@QAEXXZ
       6162 1811 009FFF10 ?Remove@CListNode@@QAEXXZ
       6163 1812 005CF310 ?Remove@CQuestSystem@@QAEHJ@Z
       6164 1813 004A7AA0 ?RemoveAffinityRewardNPC@CNetworkLibrary@@QAEXH@Z
       6165 1814 003BDAB0 ?RemoveAll@ActorMgr@@QAEXXZ
       6166 1815 00406280 ?RemoveAllAttachmentModels@CModelObject@@QAEXXZ
       6167 1816 00640F90 ?RemoveAllChildren@CModelInstance@@QAEXH@Z
       6168 1817 00231EA0 ?RemoveAlpha@CEffectControl@@QAEIH@Z
       6169 1818 006935F0 ?RemoveAlpha@CParticlesProcessDynamicState@@QAEIH@Z
       6170 1819 0035F510 ?RemoveAlphaChannel@@YAXPAKPAEJ@Z
       6171 181A 002323E0 ?RemoveAngle@CEffectControl@@QAEIH@Z
       6172 181B 00693C80 ?RemoveAngle@CParticlesProcessDynamicState@@QAEIH@Z
       6173 181C 00624170 ?RemoveAnimation@CAnimSet@@QAEXPAUAnimation@@@Z
       6174 181D 009F5F40 ?RemoveApplicationPath_t@CTFileName@@QAEXXZ
       6175 181E 0059F900 ?RemoveAttachment@CEntity@@QAEXJ@Z
       6176 181F 00406170 ?RemoveAttachmentModel@CModelObject@@QAEXJ@Z
       6177 1820 004907C0 ?RemoveBuff@CCharacterTarget@@QAEXJJ@Z
       6178 1821 004EA7D0 ?RemoveBuff@CMobTarget@@QAEXJJ@Z
       6179 1822 00543A10 ?RemoveBuff@CSlaveTarget@@QAEXJJ@Z
       6180 1823 003BDC80 ?RemoveCMap@ActorMgr@@AAEXW4eOBJ_TYPE@@I@Z
       6181 1824 00640E70 ?RemoveChild@CModelInstance@@QAEXPAV1@@Z
       6182 1825 0000A3E0 ?RemoveChild@CTagManager@@QAEXPAV1@@Z
       6183 1826 00640B60 ?RemoveColisionBox@CModelInstance@@QAEXJ@Z
       6184 1827 00231D40 ?RemoveColor@CEffectControl@@QAEIH@Z
       6185 1828 006932E0 ?RemoveColor@CParticlesProcessDynamicState@@QAEIH@Z
       6186 1829 00422D80 ?RemoveCommonProcess@CParticleGroup@@QAEXI@Z
       6187 182A 00693AC0 ?RemoveDeltaPos@CParticlesProcessDynamicState@@QAEIH@Z
       6188 182B 009FA500 ?RemoveDevice@CInput@@QAEHAAVCInputDevice@@@Z
       6189 182C 002EA040 ?RemoveDummyEdgeReferences@CObjectPolygon@@QAEXXZ
       6190 182D 00A2EC80 ?RemoveDummyLayers@CBrushArchive@@QAEXXZ
       6191 182E 00A49700 ?RemoveDummyLayers@CBrushShadowMap@@QAEXXZ
       6192 182F 00A3ED80 ?RemoveDummyPortals@CBrushMip@@QAEXH@Z
       6193 1830 0067EC50 ?RemoveEffect@CEffectGroup@@QAEHJ@Z
       6194 1831 002D5720 ?RemoveEmptySectors@CObject3D@@QAEXXZ
       6195 1832 00441D40 ?RemoveEntityFromCollisionGrid@CWorld@@QAEXPAVCEntity@@ABV?$AABBox@M$02@@@Z
       6196 1833 000FC740 ?RemoveExpeditionMember@Party@@QAEXHH@Z
       6197 1834 003522E0 ?RemoveFlag@CTerrain@@QAEXK@Z
       6198 1835 003D9A50 ?RemoveFromPendingList@CSoundLibrary@@QAEXAAVCSoundObject@@H@Z
       6199 1836 006A24C0 ?RemoveHeight@CShockWaveEffect@@QAEIH@Z
       6200 1837 0029B7B0 ?RemoveImage@CUIImageArray@@QAE_NH@Z
       6201 1838 002E9EC0 ?RemoveMarkedEdges@CObjectPolygon@@QAEXJ@Z
       6202 1839 00693910 ?RemoveMass@CParticlesProcessDynamicState@@QAEIH@Z
       6203 183A 000FA170 ?RemoveMember@Party@@QAEXJ@Z
       6204 183B 0062E500 ?RemoveMeshLod@CMesh@@QAEXPAUMeshLOD@@@Z
       6205 183C 003BDDC0 ?RemoveNMap@ActorMgr@@AAEXI@Z
       6206 183D 003BD8D0 ?RemoveObject@ActorMgr@@QAEXW4eOBJ_TYPE@@I@Z
       6207 183E 00642C90 ?RemovePassedAnimsFromQueue@CModelInstance@@QAEXXZ
       6208 183F 00232200 ?RemovePos@CEffectControl@@QAEIH@Z
       6209 1840 009ED350 ?RemovePrefix@CTString@@QAEHABV1@@Z
       6210 1841 006A22B0 ?RemoveRadius@CShockWaveEffect@@QAEIH@Z
       6211 1842 00121EB0 ?RemoveRaidMessageAll@Quest@@QAEXXZ
       6212 1843 002E9D20 ?RemoveRedundantEdges@CObjectPolygon@@QAEXXZ
       6213 1844 00122340 ?RemoveSelectedQuest@Quest@@QAEXABH@Z
       6214 1845 00670F90 ?RemoveShakeValue@CCameraEffect@@QAEIH@Z
       6215 1846 006937A0 ?RemoveSize@CParticlesProcessDynamicState@@QAEIH@Z
       6216 1847 0066C3C0 ?RemoveSkeletonLod@CSkeleton@@QAEXPAUSkeletonLOD@@@Z
       6217 1848 009EFE40 ?RemoveSpecialCodes@@YA?AVCTString@@ABV1@@Z
       6218 1849 00232040 ?RemoveStretch@CEffectControl@@QAEIH@Z
       6219 184A 0080A240 ?RemoveString@CUIListBox@@QAEXHH@Z
       6220 184B 0067EEB0 ?RemoveTag@CEffectGroup@@QAEHJ@Z
       6221 184C 00693480 ?RemoveTexPos@CParticlesProcessDynamicState@@QAEIH@Z
       6222 184D 00641CB0 ?RemoveTexture@CModelInstance@@QAEXPAUTextureInstance@@PAUMeshInstance@@@Z
       6223 184E 002A9350 ?RemoveUV@CUISpriteAni@@QAE_NH@Z
       6224 184F 006A23B0 ?RemoveWidth@CShockWaveEffect@@QAEIH@Z
       6225 1850 006BE360 ?Removeforce@CParticlesProcessForce@@QAEXI@Z
       6226 1851 00671860 ?Render@CCameraEffect@@UAEXXZ
       6227 1852 0000F000 ?Render@CEffect@@UAEXXZ
       6228 1853 0068B110 ?Render@CLightEffect@@UAEXXZ
       6229 1854 0068C0B0 ?Render@CMdlEffect@@UAEXXZ
       6230 1855 006D5890 ?Render@CNiceWater@@QAEXXZ
       6231 1856 006950C0 ?Render@CParticleEffect@@UAEXXZ
       6232 1857 006BCE00 ?Render@CParticleGroup@@QAEXXZ
       6233 1858 006A3AA0 ?Render@CShockWaveEffect@@UAEXXZ
       6234 1859 006AC150 ?Render@CSkaEffect@@UAEXXZ
       6235 185A 006AE3C0 ?Render@CSplineBillboardEffect@@UAEXXZ
       6236 185B 006D2880 ?Render@CTag@@QAEXKV?$Vector@M$02@@@Z
       6237 185C 006B53C0 ?Render@CTerrainEffect@@UAEXXZ
       6238 185D 006B8B00 ?Render@CTraceEffect@@UAEXXZ
       6239 185E 006ECD50 ?Render@CUIAutoHelp@@QAEXXZ
       6240 185F 00283030 ?Render@CUIBase@@UAEXPAVCDrawPort@@@Z
       6241 1860 00015BB0 ?Render@CUIBase@@UAEXXZ
       6242 1861 006FBB20 ?Render@CUIButton@@QAEXK@Z
       6243 1862 0070E7E0 ?Render@CUICashShopEX@@UAEXXZ
       6244 1863 007265F0 ?Render@CUICheckButton@@UAEXXZ
       6245 1864 00730190 ?Render@CUIComboBox@@UAEXXZ
       6246 1865 00737C90 ?Render@CUIEditBox@@UAEXXZ
       6247 1866 0016F590 ?Render@CUIExpressSystem@@UAEXXZ
       6248 1867 00791900 ?Render@CUIGuildBattle@@UAEXXZ
       6249 1868 0029A720 ?Render@CUIImage@@UAEXPAVCDrawPort@@@Z
       6250 1869 0029A640 ?Render@CUIImage@@UAEXXZ
       6251 186A 007D5680 ?Render@CUIImageBox@@UAEXXZ
       6252 186B 0080B580 ?Render@CUIListBox@@UAEXXZ
       6253 186C 00824690 ?Render@CUIManager@@QAEXPAVCDrawPort@@PAVCProjection3D@@@Z
       6254 186D 0001EDE0 ?Render@CUIManager@@UAEXPAVCDrawPort@@@Z
       6255 186E 00862530 ?Render@CUIMultiLineText@@QAEXXZ
       6256 186F 008B7230 ?Render@CUIOption@@UAEXXZ
       6257 1870 0091D3C0 ?Render@CUIProgressBar@@UAEXXZ
       6258 1871 009487B0 ?Render@CUIScrollBar@@UAEXXZ
       6259 1872 0097CE60 ?Render@CUISignBoard@@QAEXXZ
       6260 1873 00980770 ?Render@CUISingleBattle@@UAEXXZ
       6261 1874 009926D0 ?Render@CUISlideBar@@UAEXXZ
       6262 1875 009A5BA0 ?Render@CUISpinButton@@UAEXXZ
       6263 1876 009B2660 ?Render@CUITatoo@@UAEXXZ
       6264 1877 002C9E70 ?Render@CUITree@@UAEXPAVCDrawPort@@@Z
       6265 1878 002C8990 ?Render@CUITreeItem@@UAEXPAVCDrawPort@@@Z
       6266 1879 00173830 ?Render@MsgBoxMgr@@QAEXPAVCDrawPort@@@Z
       6267 187A 002832E0 ?RenderBorder@CUIBase@@UAEXPAVCDrawPort@@@Z
       6268 187B 0083B580 ?RenderBtnInfo@CUIManager@@QAEXPAVCTextureData@@AAVCUIButton@@QAUUIRectUV@@H@Z
       6269 187C 002830C0 ?RenderChild@CUIBase@@QAEXPAVCDrawPort@@@Z
       6270 187D 009B2960 ?RenderColorButtons@CUITatoo@@QAEXXZ
       6271 187E 00593360 ?RenderCursor@CEntity@@UAEXPAVCDrawPort@@PAX@Z
       6272 187F 00838170 ?RenderDamage@CUIManager@@IAEXHV?$_Vector_iterator@V?$_Vector_val@U_tagDAMAGE@@V?$allocator@U_tagDAMAGE@@@std@@@std@@@std@@NHH@Z
       6273 1880 00791E20 ?RenderGBReq@CUIGuildBattle@@QAEXXZ
       6274 1881 00792560 ?RenderGBStatus@CUIGuildBattle@@QAEXXZ
       6275 1882 009807A0 ?RenderGBStatus@CUISingleBattle@@QAEXXZ
       6276 1883 006ED5A0 ?RenderGMNotice@CUIAutoHelp@@QAEXXZ
       6277 1884 00593340 ?RenderGameView@CEntity@@UAEXPAVCDrawPort@@PAX@Z
       6278 1885 006FB980 ?RenderHighlight@CUIButton@@QAEXK@Z
       6279 1886 00792CE0 ?RenderKillPoint@CUIGuildBattle@@QAEXXZ
       6280 1887 00980B10 ?RenderKillPoint@CUISingleBattle@@QAEXXZ
       6281 1888 00792AB0 ?RenderLeftTime@CUIGuildBattle@@QAEXXZ
       6282 1889 0030F660 ?RenderLensFlare@CDrawPort@@QBEXPAVCTextureObject@@MMMMMK@Z
       6283 188A 002307C0 ?RenderLine@CParticle@@QAEXXZ
       6284 188B 006C5830 ?RenderLine@CParticles@@QAEXJJ@Z
       6285 188C 0040D5C0 ?RenderModel@CModelObject@@QAEXAAVCRenderModel@@@Z
       6286 188D 0040F3C0 ?RenderModel_Mask@CModelObject@@AAEXAAVCRenderModel@@@Z
       6287 188E 004126D0 ?RenderModel_View@CModelObject@@AAEXAAVCRenderModel@@@Z
       6288 188F 0082AB70 ?RenderObjectIndexPopup@CUIManager@@IAEXPAVCProjection3D@@@Z
       6289 1890 008250C0 ?RenderObjectNamePopup@CUIManager@@IAEXPAVCProjection3D@@@Z
       6290 1891 00593110 ?RenderParticles@CEntity@@UAEXXZ
       6291 1892 00417460 ?RenderPatches_View@CModelObject@@AAEXAAVCRenderModel@@@Z
       6292 1893 002305C0 ?RenderQuad@CParticle@@QAEXXZ
       6293 1894 006C5FB0 ?RenderQuad@CParticles@@QAEXJJ@Z
       6294 1895 007385F0 ?RenderReadingWindow@CUIEditBox@@QAEXXZ
       6295 1896 009A6340 ?RenderRectUV3@CUISpinButton@@QAEXHHHHHU_UIRectUV3@@@Z
       6296 1897 009B2AD0 ?RenderSelectedColorOutline@CUITatoo@@QAEXXZ
       6297 1898 009B2CE0 ?RenderSelectedShapeOutline@CUITatoo@@QAEXXZ
       6298 1899 0040E160 ?RenderShadow@CModelObject@@QAEXAAVCRenderModel@@ABVCPlacement3D@@MMMABV?$Plane@M$02@@@Z
       6299 189A 004177C0 ?RenderShadow_View@CModelObject@@AAEXAAVCRenderModel@@ABVCPlacement3D@@MMMABV?$Plane@M$02@@@Z
       6300 189B 009B2A00 ?RenderShapeButtons@CUITatoo@@QAEXXZ
       6301 189C 0022E4A0 ?RenderTargetModel_Wearing@CUICharacterCreateNew@@AAEXJHH@Z
       6302 189D 00230930 ?RenderTrail@CParticle@@QAEXXZ
       6303 189E 006C5AB0 ?RenderTrail@CParticles@@QAEXJJ@Z
       6304 189F 00230A20 ?RenderTrailVelocity@CParticle@@QAEXXZ
       6305 18A0 006C5D30 ?RenderTrailVelocity@CParticles@@QAEXJJ@Z
       6306 18A1 00562E80 ?RenderView@@YAXAAVCWorld@@AAVCEntity@@AAVCAnyProjection3D@@AAVCDrawPort@@@Z
       6307 18A2 00A3EBE0 ?Reoptimize@CBrushMip@@QAEXXZ
       6308 18A3 009ED650 ?ReplaceSubstr@CTString@@QAEHABV1@0@Z
       6309 18A4 00A03140 ?Report@CProfileForm@@QAEXAAVCTString@@@Z
       6310 18A5 00546340 ?Request@cWeb@@QAEXPBD@Z
       6311 18A6 001C3850 ?RequestQuest@CUIQuestAccept@@QAEXHHCMM@Z
       6312 18A7 004F3CF0 ?ResendGameStreamBlocks@CServer@@QAEXJJJ@Z
       6313 18A8 00A02D70 ?Reset@CProfileForm@@QAEXXZ
       6314 18A9 005E2710 ?Reset@CStatusEffect@@QAEXXZ
       6315 18AA 00246440 ?Reset@CUILoginNew@@QAEXXZ
       6316 18AB 00833120 ?Reset@CUIManager@@QAEXXZ
       6317 18AC 00860A30 ?Reset@CUIMsgBox_Info@@QAEXXZ
       6318 18AD 0022AB60 ?Reset@CharacterCreateNew@@QAEXXZ
       6319 18AE 000A4160 ?ResetAllDatas@CUISpinButton@@QAEXXZ
       6320 18AF 0080AE60 ?ResetAllStrings@CUIListBox@@QAEXXZ
       6321 18B0 009E71D0 ?ResetAnim@CAnimObject@@QAEXXZ
       6322 18B1 0027FEB0 ?ResetArray@CUIArray@@QAEXXZ
       6323 18B2 00406060 ?ResetAttachmentModelPosition@CModelObject@@QAEXJ@Z
       6324 18B3 002464A0 ?ResetBtn@CUILoginNew@@QAEXXZ
       6325 18B4 0001E6F0 ?ResetCSFlag@CUIManager@@QAEXXZ
       6326 18B5 0001E7B0 ?ResetCSFlagElapsed@CUIManager@@QAEXXZ
       6327 18B6 004AD3C0 ?ResetChaStatus@CNetworkLibrary@@QAEXK@Z
       6328 18B7 008B6FB0 ?ResetDisplay@CUIOption@@QAEXXZ
       6329 18B8 00357E20 ?ResetDisplayMode@CGfxLibrary@@QAEHW4GfxAPIType@@@Z
       6330 18B9 0036E100 ?ResetHandles@CShader@@QAEXXZ
       6331 18BA 0001E8F0 ?ResetHoldBtn@CUIManager@@QAEXXZ
       6332 18BB 007D5580 ?ResetImageBox@CUIImageBox@@QAEXXZ
       6333 18BC 004BA470 ?ResetItemDelayTime@CNetworkLibrary@@QAEXXZ
       6334 18BD 004AD360 ?ResetMobStatus@CNetworkLibrary@@QAEXK@Z
       6335 18BE 0022E810 ?ResetModelPos@CUICharacterCreateNew@@QAEXHHH@Z
       6336 18BF 0022E5C0 ?ResetName@CUICharacterCreateNew@@QAEXXZ
       6337 18C0 00708810 ?ResetPosition@CUICashShopEX@@UAEXJJJJ@Z
       6338 18C1 0014FF90 ?ResetPosition@CUICharacterInfo@@UAEXJJJJ@Z
       6339 18C2 0016F920 ?ResetPosition@CUIExpressSystem@@UAEXJJJJ@Z
       6340 18C3 00793930 ?ResetPosition@CUIGuildBattle@@UAEXJJJJ@Z
       6341 18C4 008B4DC0 ?ResetPosition@CUIOption@@UAEXJJJJ@Z
       6342 18C5 0019E1D0 ?ResetPosition@CUIPetStashSelectEffect@@UAEXJJJJ@Z
       6343 18C6 00980D50 ?ResetPosition@CUISingleBattle@@UAEXJJJJ@Z
       6344 18C7 009B2F40 ?ResetPosition@CUITatoo@@UAEXJJJJ@Z
       6345 18C8 004F99C0 ?ResetRND@CSessionState@@QAEXXZ
       6346 18C9 00112C60 ?ResetRenderCount@CInvenData@@QAEXXZ
       6347 18CA 0014FFF0 ?ResetSavePosition@CUICharacterInfo@@UAEXJJJJ@Z
       6348 18CB 0073D3F0 ?ResetSelArea@CUIEditBox@@QAEXXZ
       6349 18CC 0022E4E0 ?ResetSelect@CUICharacterCreateNew@@QAEXXZ
       6350 18CD 008CE7E0 ?ResetShop@CUIPersonalShop@@QAEXH@Z
       6351 18CE 00737010 ?ResetShowCount@CUIEditBox@@QAEXXZ
       6352 18CF 004BA380 ?ResetSkillDelayTime@CNetworkLibrary@@QAEXXZ
       6353 18D0 005D4F40 ?ResetStartTime@CSkill@@QAEXXZ
       6354 18D1 000AD250 ?ResetStatus@CCharacterTarget@@QAEXXZ
       6355 18D2 000AD3B0 ?ResetStatus@CMobTarget@@QAEXXZ
       6356 18D3 000AD570 ?ResetStatus@CPetTarget@@QAEXXZ
       6357 18D4 000AD650 ?ResetStatus@CSlaveTarget@@QAEXXZ
       6358 18D5 00739150 ?ResetString@CUIEditBox@@QAEXXZ
       6359 18D6 00730110 ?ResetStrings@CUIComboBox@@QAEXXZ
       6360 18D7 000A96B0 ?ResetTabPos@CUITab@@QAEXXZ
       6361 18D8 003E1C00 ?ResetTimer@CSoundObject@@QAEXJ@Z
       6362 18D9 00823CC0 ?ResetUIPos@CUIManager@@QAEXPAVCDrawPort@@@Z
       6363 18DA 00823DD0 ?ResetUISavePos@CUIManager@@QAEXPAVCDrawPort@@@Z
       6364 18DB 0022E690 ?ResetWearing@CUICharacterCreateNew@@QAEXH@Z
       6365 18DC 00230B10 ?ResetZero@CParticle@@QAEXXZ
       6366 18DD 002105F0 ?ResetZoneList@CUIPortal@@QAEXXZ
       6367 18DE 006D5BF0 ?Reset_EffectSystem@@YAXXZ
       6368 18DF 00381960 ?Resize@CViewPort@@QAEXXZ
       6369 18E0 00A020B0 ?ResizeMemory@@YAXPAPAXJ@Z
       6370 18E1 00422970 ?Restart@CParticleGroup@@QAEXXZ
       6371 18E2 006C8180 ?Restart@CParticlesEmitter@@QAEXXZ
       6372 18E3 004BA660 ?RestartGame@CNetworkLibrary@@QAEXXZ
       6373 18E4 009ABFC0 ?Restart_Internal@CUISystemMenu@@QAEXXZ
       6374 18E5 004FE6D0 ?RestoreOldLevel@CSessionState@@QAEXABVCTString@@@Z
       6375 18E6 003E1130 ?Resume@CSoundObject@@QAEXXZ
       6376 18E7 005458F0 ?Resume@cThreadWrapper@@QAEXXZ
       6377 18E8 0000CF30 ?Return@CEntity@@QAEXJABVCEntityEvent@@@Z
       6378 18E9 005A2D20 ?Return@CRationalEntity@@QAEXJABVCEntityEvent@@@Z
       6379 18EA 0049D6B0 ?ReturnCCC@CNetworkLibrary@@QAEHH@Z
       6380 18EB 00A805B0 ?ReturnChange@CPlayerEntity@@UAEXH@Z
       6381 18EC 00A80430 ?ReturnSorcerer@CPlayerEntity@@UAEXXZ
       6382 18ED 00A803F0 ?ReturnTransformPet@CPlayerEntity@@UAEXPAVCEntity@@@Z
       6383 18EE 0022F5D0 ?ReturnUI@CUICharacterCreateNew@@QAEXXZ
       6384 18EF 00722AE0 ?RevGiftList@CUICashShopEX@@QAEXPAVCNetworkMessage@@@Z
       6385 18F0 00722F10 ?RevResultGetGift@CUICashShopEX@@QAEXXZ
       6386 18F1 00722600 ?RevWishList@CUICashShopEX@@QAEXPAVCNetworkMessage@@H@Z
       6387 18F2 004EBE30 ?Rewind@CNetworkMessage@@QAEXXZ
       6388 18F3 004AE540 ?RidePet@CNetworkLibrary@@QAEXPAVCEntity@@0J@Z
       6389 18F4 004AE610 ?RideWildPet@CNetworkLibrary@@QAEXPAVCEntity@@0VCTString@@@Z
       6390 18F5 00A7FC30 ?RidingPet@CPlayerEntity@@UAEXPAVCEntity@@J@Z
       6391 18F6 00A7FC90 ?RidingWildPet@CPlayerEntity@@UAEXPAVCEntity@@0VCTString@@@Z
       6392 18F7 004F9910 ?Rnd@CSessionState@@QAEKXZ
       6393 18F8 002FF6F0 ?Rotate@CMappingDefinition@@QAEXABVCMappingVectors@@ABV?$Vector@M$02@@M@Z
       6394 18F9 00230F90 ?Rotate@CParticle@@QAEXABV?$Quaternion@M@@@Z
       6395 18FA 00230E40 ?Rotate@CParticle@@QAEXM@Z
       6396 18FB 00230F00 ?Rotate@CParticle@@QAEXMABV?$Vector@M$02@@@Z
       6397 18FC 002F2B70 ?Rotate_Airplane@CPlacement3D@@QAEXABV?$Vector@M$02@@@Z
       6398 18FD 002F2C70 ?Rotate_HPB@CPlacement3D@@QAEXABV?$Vector@M$02@@@Z
       6399 18FE 002F2A70 ?Rotate_TrackBall@CPlacement3D@@QAEXABV?$Vector@M$02@@@Z
       6400 18FF 0022CDE0 ?Rotation@CUICharacterCreateNew@@QAEXW4eCreateBtnType@@@Z
       6401 1900 0026EF90 ?Run@StageMgr@@QAEXXZ
       6402 1901 00721040 ?RunRClickMenu@CUICashShopEX@@IAEXJ@Z
       6403 1902 000B18B0 ?Running@CGameState@@QAEAAHXZ
       6404 1903 00A4EB90 ?SE_CheckEngine@@YA_NXZ
       6405 1904 00A52AC0 ?SE_Destroy_GameDataManagerPtr@@YAXXZ
       6406 1905 00A52AA0 ?SE_Destroy_UIManagerPtr@@YAXXZ
       6407 1906 00A52A80 ?SE_Destroy_WebAddressPtr@@YAXXZ
       6408 1907 00A51C50 ?SE_EndEngine@@YAXXZ
       6409 1908 00A4E9D0 ?SE_GetEngineDllRefCnt@@YA?BHXZ
       6410 1909 00A52A60 ?SE_Get_GameDataManagerPtr@@YAPAVGameDataManager@@XZ
       6411 190A 00A52A40 ?SE_Get_UIManagerPtr@@YAPAVCUIManager@@XZ
       6412 190B 00A52AE0 ?SE_Get_UtilHelpPtr@@YAPAVUtilHelp@@XZ
       6413 190C 00A52A20 ?SE_Get_WebAddressPtr@@YAPAVCWebAddress@@XZ
       6414 190D 00A4EBA0 ?SE_InitEngine@@YAXVCTString@@@Z
       6415 190E 00A522C0 ?SE_LoadDefaultFonts@@YAXXZ
       6416 190F 00A52530 ?SE_PretouchIfNeeded@@YAXXZ
       6417 1910 00A52450 ?SE_UpdateWindowHandle@@YAXPAUHWND__@@0@Z
       6418 1911 00A159C0 ?STAT_Report@@YAXAAVCTString@@@Z
       6419 1912 00A159A0 ?STAT_Reset@@YAXXZ
       6420 1913 003E5740 ?SaveIncludeFile_t@CEditModel@@QAEXVCTFileName@@VCTString@@@Z
       6421 1914 009EFD70 ?SaveIntVar@@YAXABVCTFileName@@AAJ@Z
       6422 1915 00363110 ?SaveJPG_t@CImageInfo@@QBEXABVCTFileName@@@Z
       6423 1916 009EEDB0 ?SaveKeepCRLF_t@CTString@@QAEXABVCTFileName@@@Z
       6424 1917 003EE420 ?SaveMapping_t@CEditModel@@QAEXVCTFileName@@J@Z
       6425 1918 009EFBF0 ?SaveStringVar@@YAXABVCTFileName@@AAVCTString@@@Z
       6426 1919 00362E70 ?SaveTGA_t@CImageInfo@@QBEXABVCTFileName@@@Z
       6427 191A 009EFAF0 ?SaveVar@CTString@@QAEXABVCTFileName@@@Z
       6428 191B 006D5E60 ?Save_EffectSystem@@YAHABVCTFileName@@@Z
       6429 191C 003E6130 ?Save_t@CEditModel@@QAEXVCTFileName@@@Z
       6430 191D 0049A080 ?Save_t@CNetworkLibrary@@QAEXABVCTFileName@@@Z
       6431 191E 005CBA80 ?Save_t@CPlayerCharacter@@QAEXABVCTFileName@@@Z
       6432 191F 00A0AF50 ?Save_t@CSerial@@QAEXABVCTFileName@@@Z
       6433 1920 009EECE0 ?Save_t@CTString@@QAEXABVCTFileName@@@Z
       6434 1921 00454DA0 ?Save_t@CWorld@@QAEXABVCTFileName@@@Z
       6435 1922 00454E80 ?Save_t_ext@CWorld@@QAEXABVCTFileName@@@Z
       6436 1923 009EF080 ?ScanF@CTString@@QAAJPBDZZ
       6437 1924 00004F20 ?ScreenBBoxL@CProjection3D@@QAEAAV?$AABBox@M$01@@XZ
       6438 1925 00004F50 ?ScreenBBoxR@CProjection3D@@QBEABV?$AABBox@M$01@@XZ
       6439 1926 004A8DF0 ?SearchClientChaIndex@CNetworkLibrary@@QAEJK@Z
       6440 1927 005CFFB0 ?SearchContactQuestIndex@CQuestSystem@@QAEJJ@Z
       6441 1928 004A8E70 ?SearchEntityByNetworkID@CNetworkLibrary@@QAEHJCAAPAVCEntity@@@Z
       6442 1929 000F9F10 ?SearchExpeditionMember@Party@@QAE_NJAAH0@Z
       6443 192A 00328BE0 ?SearchIndex@CFontData@@QBEHG@Z
       6444 192B 004A77D0 ?SearchLegitList@CNetworkLibrary@@QAEHHH@Z
       6445 192C 003C91B0 ?SearchNearItem@ActorMgr@@QAEXPAVCSelectedEntities@@V?$Vector@M$02@@M@Z
       6446 192D 00A801F0 ?SearchNearItem@CPlayerEntity@@UAEXXZ
       6447 192E 00421660 ?SearchSectorAroundEntity@CWorld@@QAEXPAVCEntity@@ABV?$Vector@M$02@@AAVCAnyProjection3D@@@Z
       6448 192F 00A1A700 ?Seek_t@CTStream@@QAEXJW4SeekDir@1@@Z
       6449 1930 0022C360 ?SelJob@CUICharacterCreateNew@@QAEXW4eCreateBtnType@@@Z
       6450 1931 0022C410 ?SelSocial@CUICharacterCreateNew@@QAEXW4eCreateBtnType@@@Z
       6451 1932 00008D60 ?Select@CBrushPolygon@@QAEXK@Z
       6452 1933 00009270 ?Select@CBrushSector@@QAEXK@Z
       6453 1934 00007F00 ?Select@CBrushVertex@@QAEXK@Z
       6454 1935 0000CFF0 ?Select@CEntity@@QAEXK@Z
       6455 1936 00A3E120 ?SelectAllSectors@CBrushMip@@QAEXAAV?$CSelection@VCBrushSector@@$00@@@Z
       6456 1937 00A3E050 ?SelectAllSectors@CBrushMip@@QAEXAAV?$CSelection@VCBrushSector@@$03@@@Z
       6457 1938 0022D390 ?SelectArmor@CUICharacterCreateNew@@QAEXXZ
       6458 1939 00A401B0 ?SelectByColorInSector@CBrushPolygon@@QAEXAAV?$CSelection@VCBrushPolygon@@$0BAA@@@@Z
       6459 193A 00A40050 ?SelectByTextureInSector@CBrushPolygon@@QAEXAAV?$CSelection@VCBrushPolygon@@$0BAA@@@J@Z
       6460 193B 0041FE50 ?SelectByTextureInSelectedSectors@CWorld@@QAEXVCTFileName@@AAV?$CSelection@VCBrushPolygon@@$0BAA@@@J@Z
       6461 193C 004200F0 ?SelectByTextureInWorld@CWorld@@QAEXVCTFileName@@AAV?$CSelection@VCBrushPolygon@@$0BAA@@@J@Z
       6462 193D 00A3DF10 ?SelectClosedSectors@CBrushMip@@QAEXAAV?$CSelection@VCBrushSector@@$03@@@Z
       6463 193E 0022CF80 ?SelectFace@CUICharacterCreateNew@@QAEXXZ
       6464 193F 009E6A60 ?SelectFrameInTime@CAnimObject@@QAEXM@Z
       6465 1940 0022D0F0 ?SelectHair@CUICharacterCreateNew@@QAEXXZ
       6466 1941 0019DBF0 ?SelectModel@CUIPetStashSelectEffect@@AAEXXZ
       6467 1942 00A3DDD0 ?SelectOpenSector@CBrushMip@@QAEXAAV?$CSelection@VCBrushSector@@$03@@@Z
       6468 1943 00A3DCB0 ?SelectSectorsInRange@CBrushMip@@QAEXAAV?$CSelection@VCBrushSector@@$00@@V?$AABBox@M$02@@@Z
       6469 1944 00A3DB90 ?SelectSectorsInRange@CBrushMip@@QAEXAAV?$CSelection@VCBrushSector@@$03@@V?$AABBox@M$02@@@Z
       6470 1945 00A3FC70 ?SelectSimilarByColor@CBrushPolygon@@QAEXAAV?$CSelection@VCBrushPolygon@@$0BAA@@@@Z
       6471 1946 00A3FE50 ?SelectSimilarByTexture@CBrushPolygon@@QAEXAAV?$CSelection@VCBrushPolygon@@$0BAA@@@J@Z
       6472 1947 00A5F2D0 ?SelectSlot@CGameState@@QAEXHH@Z
       6473 1948 0022D4A0 ?SelectSocial@CUICharacterCreateNew@@QAEXXZ
       6474 1949 00A5F580 ?SelectUIModelwearing@CGameState@@QAEXHHHH@Z
       6475 194A 004EB010 ?SelectedEntitiesSort@CSelectedEntities@@QAEXXZ
       6476 194B 000B1910 ?SelectedSlot@CGameState@@QAEAAJXZ
       6477 194C 004A8640 ?SellItem@CNetworkLibrary@@QAEXHH_J@Z
       6478 194D 004AFAE0 ?Send2006ChuseokExchange@CNetworkLibrary@@QAEXXZ
       6479 194E 004AFA10 ?Send2006ChuseokRainbowMake@CNetworkLibrary@@QAEXXZ
       6480 194F 004AF940 ?Send2006ChuseokRicecakeMake@CNetworkLibrary@@QAEXXZ
       6481 1950 004AFBB0 ?Send2006XMasEvent@CNetworkLibrary@@QAEXJ@Z
       6482 1951 004B0010 ?Send2p4pLetter@CNetworkLibrary@@QAEXJ@Z
       6483 1952 00120480 ?SendAcceptReq@Quest@@QAEXHPAVCItems@@@Z
       6484 1953 00502E30 ?SendAcknowledge@CSessionState@@QAEXM@Z
       6485 1954 004AC0C0 ?SendActionMessage@CNetworkLibrary@@QAEXCCCVCEntityPointer@@@Z
       6486 1955 0049CAE0 ?SendActionsToServer@CNetworkLibrary@@QAEXXZ
       6487 1956 004B3DB0 ?SendAdultOpenEventReq@CNetworkLibrary@@QAEXHHHH@Z
       6488 1957 004B67A0 ?SendAffinityConnectReq@CNetworkLibrary@@QAEXJ@Z
       6489 1958 004B6960 ?SendAffinityGiftInfoReq@CNetworkLibrary@@QAEXJ@Z
       6490 1959 004B6A40 ?SendAffinityGiftReq@CNetworkLibrary@@QAEXJ@Z
       6491 195A 004B6B20 ?SendAffinityInfoTabReq@CNetworkLibrary@@QAEXJ@Z
       6492 195B 004B6880 ?SendAffinityShopReq@CNetworkLibrary@@QAEXJ@Z
       6493 195C 0097B840 ?SendApplyTowerSet@CUISiegeWarfareNew@@QAEXXZ
       6494 195D 004A64C0 ?SendAttackList@CNetworkLibrary@@QAEXXZ
       6495 195E 004A9390 ?SendAttackMessage@CNetworkLibrary@@QAEXPAVCEntity@@0H@Z
       6496 195F 004A9920 ?SendAttackMessageInContainer@CNetworkLibrary@@QAEXAAVCSelectedEntities@@@Z
       6497 1960 004A92C0 ?SendAttackSymbol@CNetworkLibrary@@QAEXXZ
       6498 1961 004B78E0 ?SendAttendanceReq@CNetworkLibrary@@QAEXJ@Z
       6499 1962 004B8560 ?SendAttendanceRewardReq@CNetworkLibrary@@QAEXXZ
       6500 1963 004B40B0 ?SendBJMono2007Req@CNetworkLibrary@@QAEXEK@Z
       6501 1964 004B87D0 ?SendBirthdayMessage@CNetworkLibrary@@QAEXJ@Z
       6502 1965 00A735A0 ?SendBlockEvent@CMovableEntity@@QAEXAAVCClipMove@@@Z
       6503 1966 004A94F0 ?SendBoosterUpgrade@CNetworkLibrary@@QAEXJ@Z
       6504 1967 00722060 ?SendBringReq@CUICashShopEX@@QAEXXZ
       6505 1968 004E98D0 ?SendBroadcast@CMessageDispatcher@@QAEXABVCNetworkMessage@@KG@Z
       6506 1969 004B2230 ?SendBuddhismEvent@CNetworkLibrary@@QAEXE@Z
       6507 196A 004B2C80 ?SendBuyCollectBox@CNetworkLibrary@@QAEXXZ
       6508 196B 004AB9F0 ?SendCancelSkillMessage@CNetworkLibrary@@QAEXXZ
       6509 196C 0049FAD0 ?SendCashItemMessage@CNetworkLibrary@@QAEXH@Z
       6510 196D 0049F9A0 ?SendCashItemMessage@CNetworkLibrary@@QAEXHJJ@Z
       6511 196E 004A43E0 ?SendCashMoonStoneReward@CNetworkLibrary@@QAEXXZ
       6512 196F 004B4670 ?SendCashPersonShop@CNetworkLibrary@@QAEXE@Z
       6513 1970 004B1420 ?SendCastleMapRecent@CNetworkLibrary@@QAEXXZ
       6514 1971 004B14E0 ?SendCastleMapSignal@CNetworkLibrary@@QAEXMMJJ@Z
       6515 1972 0049FD20 ?SendChangGuildName@CNetworkLibrary@@QAEXVCTString@@@Z
       6516 1973 0049FC30 ?SendChangMyName@CNetworkLibrary@@QAEXVCTString@@@Z
       6517 1974 000FDE60 ?SendChangeExpedition@Party@@QAEXXZ
       6518 1975 000FE700 ?SendChangeGroup@Party@@QAEXHHHH@Z
       6519 1976 000FDB80 ?SendChangeSubLeader@Party@@QAEXJ@Z
       6520 1977 004A3E20 ?SendChangeWeaponEvent@CNetworkLibrary@@QAEXXZ
       6521 1978 0049DB70 ?SendChat@CNetworkLibrary@@QAEXKKABVCTString@@@Z
       6522 1979 004A8B40 ?SendChatMessage@CNetworkLibrary@@QAEXHAAVCTString@@0J@Z
       6523 197A 004B6EB0 ?SendCheckComposition@CNetworkLibrary@@QAEXFFJ@Z
       6524 197B 004AF870 ?SendChuseokExchange@CNetworkLibrary@@QAEXXZ
       6525 197C 004AF7A0 ?SendChuseokUpgrade@CNetworkLibrary@@QAEXXZ
       6526 197D 004BA8B0 ?SendClickObject@CNetworkLibrary@@QAEXH@Z
       6527 197E 004F6C20 ?SendClientData@CServer@@QAEXJ@Z
       6528 197F 004AFE60 ?SendClothesExchange@CNetworkLibrary@@QAEXH@Z
       6529 1980 004A9820 ?SendCollectProduceMessage@CNetworkLibrary@@QAEXJ@Z
       6530 1981 004B8700 ?SendComebackMessage@CNetworkLibrary@@QAEXXZ
       6531 1982 004AFD90 ?SendConnectItemReq@CNetworkLibrary@@QAEXXZ
       6532 1983 0097B660 ?SendConsensus@CUISiegeWarfareNew@@QAEXE@Z
       6533 1984 004AFC90 ?SendCouponItemReq@CNetworkLibrary@@QAEXVCTString@@@Z
       6534 1985 0022AC60 ?SendCreateChar@CharacterCreateNew@@QAEXXZ
       6535 1986 004B0D40 ?SendCreateCharacter@CNetworkLibrary@@QAEXAAVCTString@@EEE@Z
       6536 1987 004B5030 ?SendCreatePhoenixCharacter@CNetworkLibrary@@QAEXXZ
       6537 1988 004B0A20 ?SendDeleteCharacter@CNetworkLibrary@@QAEXKAAVCTString@@E@Z
       6538 1989 004B08F0 ?SendDeleteCharacter@CNetworkLibrary@@QAEXKE@Z
       6539 198A 00107370 ?SendDeleteReq@ExpressSystem@@QAEXH@Z
       6540 198B 004F38C0 ?SendDisconnectMessage@CServer@@QAEXJPBDH@Z
       6541 198C 000FE500 ?SendDivisionType@Party@@QAEXCC@Z
       6542 198D 0097BD00 ?SendDratanPortalMessage@CUISiegeWarfareNew@@QAEXH@Z
       6543 198E 004B4530 ?SendDratanSiegeDungeonMSG@CNetworkLibrary@@QAEXEEH@Z
       6544 198F 004B2E20 ?SendDropInsect@CNetworkLibrary@@QAEXH@Z
       6545 1990 00837810 ?SendDropItem@CUIManager@@IAEXHH_J@Z
       6546 1991 0011A120 ?SendEffectReq@PetStash@@QAEXH@Z
       6547 1992 004B7A20 ?SendEnergySkillMessage@CNetworkLibrary@@QAEXXZ
       6548 1993 004B12C0 ?SendEvent24@CNetworkLibrary@@QAEXHC@Z
       6549 1994 00598E30 ?SendEvent@CEntity@@QAEXABVCEntityEvent@@H@Z
       6550 1995 00599640 ?SendEventInRange@CEntity@@QAEXABVCEntityEvent@@ABV?$AABBox@M$02@@@Z
       6551 1996 004A83D0 ?SendEventItem@CNetworkLibrary@@QAEXHH@Z
       6552 1997 004B9380 ?SendEventKrathongReq@CNetworkLibrary@@QAEXXZ
       6553 1998 004ACFC0 ?SendEventMaster@CNetworkLibrary@@QAEXXZ
       6554 1999 004B5530 ?SendEventMsg@CNetworkLibrary@@QAEXE@Z
       6555 199A 004ACE90 ?SendEventNewyear@CNetworkLibrary@@QAEXH@Z
       6556 199B 004ACDA0 ?SendEventOpenTreasure@CNetworkLibrary@@QAEXXZ
       6557 199C 004ACBD0 ?SendEventPrize@CNetworkLibrary@@QAEXXZ
       6558 199D 004B5380 ?SendEventRequital@CNetworkLibrary@@QAEXH@Z
       6559 199E 004ACCB0 ?SendEventTreasureList@CNetworkLibrary@@QAEXXZ
       6560 199F 0049FE10 ?SendExSlotMessage@CNetworkLibrary@@QAEXH@Z
       6561 19A0 000FD330 ?SendExpeditionAllow@Party@@QAEXXZ
       6562 19A1 000FE4D0 ?SendExpeditionEnd@Party@@QAEXXZ
       6563 19A2 000FE070 ?SendExpeditionInvite@Party@@QAEXAAVCTString@@@Z
       6564 19A3 000FE190 ?SendExpeditionInviteReq@Party@@QAEXHAAVCTString@@@Z
       6565 19A4 000FE480 ?SendExpeditionKick@Party@@QAEXJ@Z
       6566 19A5 000FE450 ?SendExpeditionQuit@Party@@QAEXXZ
       6567 19A6 000FD300 ?SendExpeditionReject@Party@@QAEXXZ
       6568 19A7 000FDA30 ?SendExpeditionViewDetail@Party@@QAEXJVCTString@@@Z
       6569 19A8 004B8370 ?SendFaceOffMessage@CNetworkLibrary@@QAEXEEE@Z
       6570 19A9 004AD090 ?SendFindFriend@CNetworkLibrary@@QAEXHPAX@Z
       6571 19AA 004B3860 ?SendFlowerTreeReq@CNetworkLibrary@@QAEXE@Z
       6572 19AB 004ADCE0 ?SendFriendCatting@CNetworkLibrary@@QAEXHVCTString@@00@Z
       6573 19AC 004A7EB0 ?SendGMCommand@CNetworkLibrary@@QAEXPBD@Z
       6574 19AD 004B0B50 ?SendGameStart@CNetworkLibrary@@QAEXK@Z
       6575 19AE 004B15D0 ?SendGameStart@CNetworkLibrary@@QAEXXZ
       6576 19AF 004F5260 ?SendGameStateData@CServer@@QAEXJ@Z
       6577 19B0 004F38E0 ?SendGameStreamBlocks@CServer@@QAEXJ@Z
       6578 19B1 00722DE0 ?SendGetRevGiftItem@CUICashShopEX@@IAEXJ@Z
       6579 19B2 004B2D50 ?SendGiftCollectBox@CNetworkLibrary@@QAEXXZ
       6580 19B3 00722220 ?SendGiftReq@CUICashShopEX@@QAEXXZ
       6581 19B4 004B8F90 ?SendGuildMarkEditEndReq@CNetworkLibrary@@QAEXCCCCFF@Z
       6582 19B5 004B8ED0 ?SendGuildMarkWndOpenReq@CNetworkLibrary@@QAEXXZ
       6583 19B6 004B9710 ?SendGuildMasterKickCancelReq@CNetworkLibrary@@QAEXJ@Z
       6584 19B7 004B9630 ?SendGuildMasterKickReq@CNetworkLibrary@@QAEXJ@Z
       6585 19B8 004B9AA0 ?SendGuildRecallReq@CNetworkLibrary@@QAEXXZ
       6586 19B9 004B99E0 ?SendGuildRemoteJoinNOReq@CNetworkLibrary@@QAEXXZ
       6587 19BA 004B98F0 ?SendGuildRemoteJoinOKReq@CNetworkLibrary@@QAEXVCTString@@J@Z
       6588 19BB 004B97F0 ?SendGuildRemoteJoinReq@CNetworkLibrary@@QAEXVCTString@@J@Z
       6589 19BC 004AF520 ?SendGuildStashHistroyReq@CNetworkLibrary@@QAEXXZ
       6590 19BD 004AF6C0 ?SendGuildStashTakeReq@CNetworkLibrary@@QAEX_J@Z
       6591 19BE 004AF5F0 ?SendGuildStashViewReq@CNetworkLibrary@@QAEXXZ
       6592 19BF 004B81E0 ?SendGuildWarTimeMenu@CNetworkLibrary@@QAEXXZ
       6593 19C0 004B82A0 ?SendGuildWarTimeReq@CNetworkLibrary@@QAEXXZ
       6594 19C1 004B4450 ?SendHalloween2007Req@CNetworkLibrary@@QAEXE@Z
       6595 19C2 004B52A0 ?SendHanaposEvent@CNetworkLibrary@@QAEXH@Z
       6596 19C3 009F9430 ?SendIMEKeyInput@CInput@@QAEHPAUtagMSG@@@Z
       6597 19C4 000FD9F0 ?SendInitInZone@Party@@QAEXXZ
       6598 19C5 004B5100 ?SendInitSSkillReq@CNetworkLibrary@@QAEXXZ
       6599 19C6 004B51C0 ?SendInput@CNetworkLibrary@@QAEXXZ
       6600 19C7 004B4D40 ?SendItemDelete@CNetworkLibrary@@QAEXFFJ_J@Z
       6601 19C8 00107560 ?SendItemTransReq@ExpressSystem@@QAEXHHHHHHHVCTString@@@Z
       6602 19C9 004B0E80 ?SendItemUse@CNetworkLibrary@@QAEXFFJJ@Z
       6603 19CA 009B3520 ?SendItemUse@CUITatoo@@QAEXXZ
       6604 19CB 0049FFA0 ?SendItemWearingMSG@CNetworkLibrary@@QAE_NCCFFDH@Z
       6605 19CC 004B9450 ?SendKBRewardReq@CNetworkLibrary@@QAEXE@Z
       6606 19CD 00119E70 ?SendKeepReq@PetStash@@QAEXHH@Z
       6607 19CE 004B41A0 ?SendLC1000DayHatUpgradeReq@CNetworkLibrary@@QAEXFJ@Z
       6608 19CF 004B4290 ?SendLC1000DayTakeHatReq@CNetworkLibrary@@QAEXXZ
       6609 19D0 004B7590 ?SendLacaretteCloseReq@CNetworkLibrary@@QAEXXZ
       6610 19D1 004B74B0 ?SendLacaretteResultReq@CNetworkLibrary@@QAEXJ@Z
       6611 19D2 004B72F0 ?SendLacaretteRetteReq@CNetworkLibrary@@QAEXJJJ@Z
       6612 19D3 004B7660 ?SendLacaretteTokenReadyReq@CNetworkLibrary@@QAEXXZ
       6613 19D4 004B7220 ?SendLacaretteTokenReq@CNetworkLibrary@@QAEXXZ
       6614 19D5 004B73E0 ?SendLacaretteUseCountReq@CNetworkLibrary@@QAEXXZ
       6615 19D6 004A82F0 ?SendLeaseItem@CNetworkLibrary@@QAEXH@Z
       6616 19D7 004FA7B0 ?SendLevelChangeNotification@CSessionState@@QAEXAAVCEntityEvent@@@Z
       6617 19D8 00107190 ?SendListReq@ExpressSystem@@QAEXXZ
       6618 19D9 004B02C0 ?SendLoginMessage@CNetworkLibrary@@QAEXAAVCTString@@0K@Z
       6619 19DA 004B66C0 ?SendMakeItemList@CNetworkLibrary@@QAEXKE@Z
       6620 19DB 004B8DC0 ?SendMasterStoneUseReq@CNetworkLibrary@@QAEXFFJFFJ@Z
       6621 19DC 004F6870 ?SendMessageA@CServer@@QAEXAAVCEntityMessage@@@Z
       6622 19DD 0049E7E0 ?SendMessagetoServer@CNetworkLibrary@@QAEXPAD@Z
       6623 19DE 004B35C0 ?SendMinigameDefaultMessage@CNetworkLibrary@@QAEXEE@Z
       6624 19DF 004B3690 ?SendMinigameSelect@CNetworkLibrary@@QAEXEEE@Z
       6625 19E0 004B3770 ?SendMinigameSelectGift@CNetworkLibrary@@QAEXK@Z
       6626 19E1 004B1090 ?SendMixItemUse@CNetworkLibrary@@QAEXFFJJJ@Z
       6627 19E2 004A42F0 ?SendMoonStoneMix@CNetworkLibrary@@QAEXJJ@Z
       6628 19E3 004A4210 ?SendMoonStoneResultReq@CNetworkLibrary@@QAEXXZ
       6629 19E4 004A4040 ?SendMoonStoneStartReq@CNetworkLibrary@@QAEXXZ
       6630 19E5 004A4120 ?SendMoonStoneTryReq@CNetworkLibrary@@QAEXXZ
       6631 19E6 004A7100 ?SendMoveList@CNetworkLibrary@@QAEX_N@Z
       6632 19E7 004A90C0 ?SendMoveMessage@CNetworkLibrary@@QAEXPAVCEntity@@VCPlacement3D@@J@Z
       6633 19E8 004AF3B0 ?SendMovingGuildWarArea@CNetworkLibrary@@QAEXXZ
       6634 19E9 004B6C50 ?SendNPCPortalGoReq@CNetworkLibrary@@QAEXJ@Z
       6635 19EA 004B6D20 ?SendNPCPortalLocationReq@CNetworkLibrary@@QAEXJ@Z
       6636 19EB 004A95D0 ?SendNPCProcessMessage@CNetworkLibrary@@QAEXJJ@Z
       6637 19EC 004B16E0 ?SendNetCafeOpenBox@CNetworkLibrary@@QAEXXZ
       6638 19ED 000189A0 ?SendNetworkMessage@CNetworkLibrary@@QAEXAAVCNetworkMessage@@@Z
       6639 19EE 004B6FA0 ?SendNickNameMessage@CNetworkLibrary@@QAEXJJ@Z
       6640 19EF 004B7820 ?SendOwnerGuildBuffReq@CNetworkLibrary@@QAEXXZ
       6641 19F0 004B3CC0 ?SendPaperBlendingReq@CNetworkLibrary@@QAEXH@Z
       6642 19F1 004B3BC0 ?SendPaperFoldingReq@CNetworkLibrary@@QAEXHHH@Z
       6643 19F2 004B34E0 ?SendParentsdayAddPoint@CNetworkLibrary@@QAEXH@Z
       6644 19F3 000FD2A0 ?SendPartyAllow@Party@@QAEXXZ
       6645 19F4 000FD9B0 ?SendPartyEnd@Party@@QAEXXZ
       6646 19F5 000FD360 ?SendPartyInvite@Party@@QAEXCAAVCTString@@@Z
       6647 19F6 004B1B90 ?SendPartyInviteReq@CNetworkLibrary@@QAEXH@Z
       6648 19F7 000FD490 ?SendPartyInviteReq@Party@@QAEXCJAAVCTString@@@Z
       6649 19F8 004B1D50 ?SendPartyJoinAllow@CNetworkLibrary@@QAEXH@Z
       6650 19F9 004B1E30 ?SendPartyJoinReject@CNetworkLibrary@@QAEXH@Z
       6651 19FA 004B1C70 ?SendPartyJoinReq@CNetworkLibrary@@QAEXH@Z
       6652 19FB 000FD880 ?SendPartyKick@Party@@QAEXAAVCTString@@@Z
       6653 19FC 004B19A0 ?SendPartyListReq@CNetworkLibrary@@QAEXHHHHH@Z
       6654 19FD 000FD840 ?SendPartyQuit@Party@@QAEXXZ
       6655 19FE 004AF290 ?SendPartyRecallConfirm@CNetworkLibrary@@QAEXVCTString@@JH@Z
       6656 19FF 004B1AC0 ?SendPartyRegistDelete@CNetworkLibrary@@QAEXXZ
       6657 1A00 004B17B0 ?SendPartyRegistNormal@CNetworkLibrary@@QAEXH@Z
       6658 1A01 004B1890 ?SendPartyRegistParty@CNetworkLibrary@@QAEXVCTString@@KH@Z
       6659 1A02 000FD2D0 ?SendPartyReject@Party@@QAEXXZ
       6660 1A03 004BA140 ?SendPetAccumulateUse@CNetworkLibrary@@QAEXCJ@Z
       6661 1A04 004AEC90 ?SendPetChangeRide@CNetworkLibrary@@QAEXXZ
       6662 1A05 004AAC00 ?SendPetCommandMessage@CNetworkLibrary@@QAEXHPAVCEntity@@@Z
       6663 1A06 004AEE20 ?SendPetDestruction@CNetworkLibrary@@QAEXXZ
       6664 1A07 004AEEE0 ?SendPetItemMix@CNetworkLibrary@@QAEXJJ@Z
       6665 1A08 004B3AD0 ?SendPetNameChageReq@CNetworkLibrary@@QAEXHVCTString@@@Z
       6666 1A09 004AEFC0 ?SendPetRebirth@CNetworkLibrary@@QAEXJ@Z
       6667 1A0A 004AED60 ?SendPetSkillInit@CNetworkLibrary@@QAEXXZ
       6668 1A0B 004AA620 ?SendPetSkillMessage@CNetworkLibrary@@QAEXHPAVCEntity@@0H@Z
       6669 1A0C 004B00F0 ?SendPetWarpTown@CNetworkLibrary@@QAEXXZ
       6670 1A0D 004AF1A0 ?SendPetitemInfo@CNetworkLibrary@@QAEXJH@Z
       6671 1A0E 004B4F60 ?SendPhoenixCharacterCondition@CNetworkLibrary@@QAEXXZ
       6672 1A0F 004A8F20 ?SendPickMessage@CNetworkLibrary@@QAEXPAVCEntity@@KH@Z
       6673 1A10 00107460 ?SendPlayerSearchReq@ExpressSystem@@QAEXVCTString@@@Z
       6674 1A11 004BA9A0 ?SendPremiumCharItemUse@CNetworkLibrary@@QAEXFFH@Z
       6675 1A12 004BAA90 ?SendPremiumCharJumpReq@CNetworkLibrary@@QAEXVCTString@@@Z
       6676 1A13 004B4AC0 ?SendPresscorpsMessage@CNetworkLibrary@@QAEXKVCTString@@@Z
       6677 1A14 004A9900 ?SendProduceMessage@CNetworkLibrary@@QAEXKC@Z
       6678 1A15 0049F880 ?SendProlongMessage@CNetworkLibrary@@QAEXHH@Z
       6679 1A16 004B7FF0 ?SendPromotionEventReq@CNetworkLibrary@@QAEXVCTString@@@Z
       6680 1A17 0011A040 ?SendProxyCancelReq@PetStash@@QAEXH@Z
       6681 1A18 00119F60 ?SendProxyReq@PetStash@@QAEXH@Z
       6682 1A19 001205B0 ?SendQuestCancel@Quest@@QAEXH@Z
       6683 1A1A 004AC200 ?SendQuestMessage@CNetworkLibrary@@QAEXEJ@Z
       6684 1A1B 001204F0 ?SendQuestPrize@Quest@@QAEXHJJJ@Z
       6685 1A1C 004AC2D0 ?SendQuestPrizeMessage@CNetworkLibrary@@QAEXEJJJJ@Z
       6686 1A1D 001203D0 ?SendQuestReq@Quest@@QAEXH@Z
       6687 1A1E 004B6DF0 ?SendRaidInfoReq@CNetworkLibrary@@QAEXXZ
       6688 1A1F 004B5600 ?SendRaidObjectEvent@CNetworkLibrary@@QAEXK@Z
       6689 1A20 004B7AF0 ?SendRaidScene@CNetworkLibrary@@QAEXJJJ@Z
       6690 1A21 004AFF40 ?SendRainyDayExchange@CNetworkLibrary@@QAEXXZ
       6691 1A22 004B90A0 ?SendRankingListEx@CNetworkLibrary@@QAEXEE@Z
       6692 1A23 004B80F0 ?SendRankingLsit@CNetworkLibrary@@QAEXJJ@Z
       6693 1A24 004B9190 ?SendRankingSearchListEx@CNetworkLibrary@@QAEXEEVCTString@@@Z
       6694 1A25 004ABC70 ?SendRebirthMessage@CNetworkLibrary@@QAEXXZ
       6695 1A26 004ABD40 ?SendRebirthMessageEx@CNetworkLibrary@@QAEXHHH@Z
       6696 1A27 004B48F0 ?SendReceiveRestartGame@CNetworkLibrary@@QAEXXZ
       6697 1A28 004ACA00 ?SendRecoverHPMP@CNetworkLibrary@@QAEXCC@Z
       6698 1A29 004ACAE0 ?SendRecoverItemSeal@CNetworkLibrary@@QAEXFFJ@Z
       6699 1A2A 00107280 ?SendRecvReq@ExpressSystem@@QAEXH@Z
       6700 1A2B 004BA230 ?SendReformItemReq@CNetworkLibrary@@QAEXEFFFFKFFH@Z
       6701 1A2C 004A7520 ?SendRegenList@CNetworkLibrary@@QAEXXZ
       6702 1A2D 004B3130 ?SendReqGiftChocoBox@CNetworkLibrary@@QAEXH@Z
       6703 1A2E 004BA590 ?SendReqServerTime@CNetworkLibrary@@QAEXXZ
       6704 1A2F 004B3400 ?SendRequestParentsday@CNetworkLibrary@@QAEXH@Z
       6705 1A30 0097B770 ?SendRequestTowerSet@CUISiegeWarfareNew@@QAEXXZ
       6706 1A31 004B4820 ?SendRestartGame@CNetworkLibrary@@QAEXXZ
       6707 1A32 004B7090 ?SendRestoreAbandonQuest@CNetworkLibrary@@QAEX_J@Z
       6708 1A33 004B8630 ?SendRestoreQuestItem@CNetworkLibrary@@QAEXJ@Z
       6709 1A34 004B88D0 ?SendRoyalRumbleJoinReq@CNetworkLibrary@@QAEXXZ
       6710 1A35 004B8C10 ?SendRoyalRumbleNextTimeReq@CNetworkLibrary@@QAEXXZ
       6711 1A36 004B8B40 ?SendRoyalRumblePointReq@CNetworkLibrary@@QAEXXZ
       6712 1A37 004B89A0 ?SendRoyalRumbleRejectReq@CNetworkLibrary@@QAEXXZ
       6713 1A38 004B8A70 ?SendRoyalRumbleRewardReq@CNetworkLibrary@@QAEXXZ
       6714 1A39 004B8CE0 ?SendRoyalRumbleStartReq@CNetworkLibrary@@QAEXXZ
       6715 1A3A 004AC590 ?SendSSkillLearn@CNetworkLibrary@@QAEXJH@Z
       6716 1A3B 004B3030 ?SendSaveBingoItem@CNetworkLibrary@@QAEXEHH@Z
       6717 1A3C 004B06F0 ?SendSecurityMessage@CNetworkLibrary@@QAEXAAVCTString@@@Z
       6718 1A3D 004A96D0 ?SendSelectProduceMessage@CNetworkLibrary@@QAEXJJ@Z
       6719 1A3E 004F56A0 ?SendSessionStateData@CServer@@QAEXJ@Z
       6720 1A3F 004AC4A0 ?SendSkillLearn@CNetworkLibrary@@QAEXJH@Z
       6721 1A40 004A9C20 ?SendSkillMessage@CNetworkLibrary@@QAEXHPAVCEntity@@HHE@Z
       6722 1A41 004AADC0 ?SendSkillMessageInContainer@CNetworkLibrary@@QAEXHAAVCSelectedEntities@@H@Z
       6723 1A42 004AA900 ?SendSlaveSkillMessage@CNetworkLibrary@@QAEXHPAVCEntity@@0H@Z
       6724 1A43 004AB3E0 ?SendSlaveSkillMessageInContainer@CNetworkLibrary@@QAEXHPAVCEntity@@AAVCSelectedEntities@@H@Z
       6725 1A44 004B0C70 ?SendStopChange@CNetworkLibrary@@QAEXXZ
       6726 1A45 004A8C50 ?SendStopMessage@CNetworkLibrary@@QAEXPAVCEntity@@VCPlacement3D@@@Z
       6727 1A46 004B7F10 ?SendSubJobRegister@CNetworkLibrary@@QAEXJ@Z
       6728 1A47 004B0820 ?SendSuperStoneReq@CNetworkLibrary@@QAEXXZ
       6729 1A48 004B5460 ?SendSupportSkill@CNetworkLibrary@@QAEXE@Z
       6730 1A49 004B3FD0 ?SendTG2007RichYearReq@CNetworkLibrary@@QAEXH@Z
       6731 1A4A 004B3EF0 ?SendTG2007ScreenshotReq@CNetworkLibrary@@QAEXXZ
       6732 1A4B 004B7160 ?SendTakeAgainQuestItem@CNetworkLibrary@@QAEXXZ
       6733 1A4C 004B4370 ?SendTakeFireCracker@CNetworkLibrary@@QAEXXZ
       6734 1A4D 00119D80 ?SendTakeReq@PetStash@@QAEXHH@Z
       6735 1A4E 000FDD80 ?SendTargetLabelReSet@Party@@QAEXCJ@Z
       6736 1A4F 000FDD40 ?SendTargetLabelSet@Party@@QAEXCJJ@Z
       6737 1A50 004AC780 ?SendTeleportMove@CNetworkLibrary@@QAEXEE@Z
       6738 1A51 004AC680 ?SendTeleportWrite@CNetworkLibrary@@QAEXEEAAVCTString@@@Z
       6739 1A52 004E8D70 ?SendToClient@CMessageDispatcher@@QAEXJABVCNetworkMessage@@@Z
       6740 1A53 004E8ED0 ?SendToClientReliable@CMessageDispatcher@@QAEXJAAVCTMemoryStream@@@Z
       6741 1A54 004E8E70 ?SendToClientReliable@CMessageDispatcher@@QAEXJABVCNetworkMessage@@@Z
       6742 1A55 004E8FD0 ?SendToServer@CMessageDispatcher@@QAEXABVCNetworkMessage@@@Z
       6743 1A56 004E9370 ?SendToServerNew@CMessageDispatcher@@QAEXABVCNetworkMessage@@H@Z
       6744 1A57 004E9030 ?SendToServerReliable@CMessageDispatcher@@QAEXABVCNetworkMessage@@@Z
       6745 1A58 00A73430 ?SendTouchEvent@CMovableEntity@@QAEXABVCClipMove@@@Z
       6746 1A59 0097BC20 ?SendTowerRepairStateRequest@CUISiegeWarfareNew@@QAEXH@Z
       6747 1A5A 00A80670 ?SendTriggerEvent@CPlayerEntity@@UAEXJJ@Z
       6748 1A5B 004B11A0 ?SendUnMixItemUse@CNetworkLibrary@@QAEXFFJJ@Z
       6749 1A5C 004B4C70 ?SendUpdatePlayTime@CNetworkLibrary@@QAEXK@Z
       6750 1A5D 004B2F60 ?SendUsaOpenBetaGift@CNetworkLibrary@@QAEXXZ
       6751 1A5E 004B49C0 ?SendUseGoDungeon@CNetworkLibrary@@QAEXJJJ@Z
       6752 1A5F 004AC3D0 ?SendUseStatPoint@CNetworkLibrary@@QAEXE@Z
       6753 1A60 00150680 ?SendUseStatPoint@CUICharacterInfo@@QAEXE@Z
       6754 1A61 004B4E40 ?SendUseWildPetItem@CNetworkLibrary@@QAEXHHHH@Z
       6755 1A62 004B9520 ?SendUserNotice@CNetworkLibrary@@QAEXVCTString@@@Z
       6756 1A63 004A1E00 ?SendWareHouseChangePassword@CNetworkLibrary@@QAEXABVCTString@@0@Z
       6757 1A64 004A21F0 ?SendWareHouseDeletePassWord@CNetworkLibrary@@QAEXABVCTString@@@Z
       6758 1A65 004A1EE0 ?SendWareHouseIsSetPassword@CNetworkLibrary@@QAEXXZ
       6759 1A66 004A1FB0 ?SendWareHouseSeal@CNetworkLibrary@@QAEXXZ
       6760 1A67 004A2080 ?SendWareHouseSetupPassWord@CNetworkLibrary@@QAEXABVCTString@@0@Z
       6761 1A68 004AC940 ?SendWarpCancel@CNetworkLibrary@@QAEXXZ
       6762 1A69 004ABE50 ?SendWarpItemMessage@CNetworkLibrary@@QAEXEVCTString@@H@Z
       6763 1A6A 004AC860 ?SendWarpTeleport@CNetworkLibrary@@QAEXH@Z
       6764 1A6B 005465C0 ?SendWebPageOpenMsg@cWeb@@QAEHH@Z
       6765 1A6C 004B3210 ?SendWhiteday2007@CNetworkLibrary@@QAEXE@Z
       6766 1A6D 004B32F0 ?SendWhiteday2007Letter@CNetworkLibrary@@QAEXHKVCTString@@@Z
       6767 1A6E 004A7DF0 ?SendWhoAmI@CNetworkLibrary@@QAEXXZ
       6768 1A6F 004B8460 ?SendWildPetMountReq@CNetworkLibrary@@QAEXH@Z
       6769 1A70 004AF090 ?SendWildPetRebirth@CNetworkLibrary@@QAEXHHH@Z
       6770 1A71 00722460 ?SendWishItems@CUICashShopEX@@IAEXKH@Z
       6771 1A72 004B7730 ?SendWorldCup2010_Event@CNetworkLibrary@@QAEXW4_tagMsgEventWorldcup2010Type@@J@Z
       6772 1A73 004B1F10 ?SendWorldCupEvent@CNetworkLibrary@@QAEXHH@Z
       6773 1A74 004B2030 ?SendWorldCupGoldenBallEvent@CNetworkLibrary@@QAEXHHH@Z
       6774 1A75 004B4740 ?SendXMAS2007DecoReq@CNetworkLibrary@@QAEXE@Z
       6775 1A76 004B0F80 ?SendtargetItemUse@CNetworkLibrary@@QAEXFFJCJ@Z
       6776 1A77 004F4740 ?ServerLoop@CServer@@QAEXXZ
       6777 1A78 004F7430 ?ServerNetProcess@CServer@@QAEXXZ
       6778 1A79 004D3E80 ?Server_ClearClient@CCommunicationInterface@@QAEXJ@Z
       6779 1A7A 004D3D90 ?Server_Close@CCommunicationInterface@@QAEXXZ
       6780 1A7B 004D41C0 ?Server_GetClientName@CCommunicationInterface@@QAE?AVCTString@@J@Z
       6781 1A7C 004D4370 ?Server_GetClientPendingData@CCommunicationInterface@@QAEKJ@Z
       6782 1A7D 004D4490 ?Server_GetMaxPendingData@CCommunicationInterface@@QAEKXZ
       6783 1A7E 004D4590 ?Server_GetTotalPendingData@CCommunicationInterface@@QAEKXZ
       6784 1A7F 004D3BA0 ?Server_Init_t@CCommunicationInterface@@QAEXXZ
       6785 1A80 004D3FA0 ?Server_IsClientLocal@CCommunicationInterface@@QAEHJ@Z
       6786 1A81 004D40B0 ?Server_IsClientUsed@CCommunicationInterface@@QAEHJ@Z
       6787 1A82 004D47C0 ?Server_Receive_Reliable@CCommunicationInterface@@QAEHJPAXAAJ@Z
       6788 1A83 004D4A20 ?Server_Receive_Unreliable@CCommunicationInterface@@QAEHJPAXAAJ@Z
       6789 1A84 004D4690 ?Server_Send_Reliable@CCommunicationInterface@@QAEXJPBXJ@Z
       6790 1A85 004D48F0 ?Server_Send_Unreliable@CCommunicationInterface@@QAEXJPBXJ@Z
       6791 1A86 004D4B50 ?Server_Update@CCommunicationInterface@@QAEHXZ
       6792 1A87 004FEEF0 ?SessionStateLoop@CSessionState@@QAEXXZ
       6793 1A88 006AC900 ?Set3DParameter@CSoundEffect@@QAEXMMMM@Z
       6794 1A89 0001D060 ?Set3DParameters@CSoundObject@@QAEXMMMMH@Z
       6795 1A8A 00A3F520 ?SetAbsolutePosition@CBrushVertex@@QAEXABV?$Vector@N$02@@@Z
       6796 1A8B 004231B0 ?SetAbsorption@CParticleGroup@@QAEXPAVCParticlesAbsorption@@@Z
       6797 1A8C 002304B0 ?SetAcceleration@CParticle@@QAEXABV?$Vector@M$02@@@Z
       6798 1A8D 00231160 ?SetAccelerationRange@CParticlePrototype@@QAEXABV?$Vector@M$02@@0@Z
       6799 1A8E 004F15F0 ?SetAction@CPlayerSource@@QAEXABVCPlayerAction@@@Z
       6800 1A8F 00157EB0 ?SetAction@CUICharacterInfo@@QAEXXZ
       6801 1A90 00A6FD10 ?SetActionApplied@CMovableEntity@@UAEXXZ
       6802 1A91 00658BB0 ?SetAdjustedProjectionMatrix@@YAJAAY0BA@MMMMMMMMMH@Z
       6803 1A92 00230120 ?SetAge@CParticle@@QAEXM@Z
       6804 1A93 000A9A90 ?SetAlignBottom@CUIList@@QAEXXZ
       6805 1A94 000AAB90 ?SetAlignTextH@CUITextBox@@QAEXH@Z
       6806 1A95 000AABB0 ?SetAlignTextV@CUITextBox@@QAEXH@Z
       6807 1A96 0080B380 ?SetAllNotSelectable@CUIListBox@@QAEXXZ
       6808 1A97 0029AEC0 ?SetAlpha@CUIImage@@QAEXE@Z
       6809 1A98 0067E120 ?SetAmbientMode@CLightEffect@@QAEXH@Z
       6810 1A99 002311E0 ?SetAngle@CParticlePrototype@@QAEXV?$Vector@M$02@@0@Z
       6811 1A9A 009E6F40 ?SetAnim@CAnimObject@@QAEXJ@Z
       6812 1A9B 00104BF0 ?SetAnimName@CAnimEffect@@QAEXABVCTString@@@Z
       6813 1A9C 00A80840 ?SetAppearanceData@CPlayerEntity@@UAEXHCC@Z
       6814 1A9D 004BABC0 ?SetArea@CTerrainEffect@@QAEXABVCRectFlt@@@Z
       6815 1A9E 0022ACF0 ?SetArmor@CharacterCreateNew@@QAEXH@Z
       6816 1A9F 00013800 ?SetArmorEffectName@CItemData@@QAEXPBD@Z
       6817 1AA0 0022E230 ?SetArrayList@CUICharacterCreateNew@@AAEXPAVCUIArray@@@Z
       6818 1AA1 000AB8C0 ?SetArrayTemplate@CUIArray@@QAEXPAVCUIArrayItem@@@Z
       6819 1AA2 0030C4B0 ?SetAsCurrent@CDrawPort@@QAEXXZ
       6820 1AA3 003715B0 ?SetAsCurrent@CShadowMap@@QAEXXZ
       6821 1AA4 00377130 ?SetAsCurrent@CTextureData@@QAEXJH@Z
       6822 1AA5 000109E0 ?SetAttribute@CMobData@@QAEXEEEE@Z
       6823 1AA6 000AEAB0 ?SetAutoComplete@CUIProgressBar@@QAEXH@Z
       6824 1AA7 00017350 ?SetAutoInfo@CUIButton@@QAEXH@Z
       6825 1AA8 00444220 ?SetAutoMipBrushingOn@CWorldRenderPrefs@@QAEXH@Z
       6826 1AA9 002A8840 ?SetBackGround@CUISpinControl@@QAEXU_UIRect@@UUIRectUV@@H@Z
       6827 1AAA 000A5C00 ?SetBackUV@CUIComboBox@@QAEXMMMMMM@Z
       6828 1AAB 0041EF90 ?SetBackgroundColor@CWorld@@QAEXK@Z
       6829 1AAC 004440A0 ?SetBackgroundTextureOn@CWorldRenderPrefs@@QAEXH@Z
       6830 1AAD 000A4E10 ?SetBackgroundUV@CUISlideBar@@QAEXMMMMMM@Z
       6831 1AAE 0041EFB0 ?SetBackgroundViewer@CWorld@@QAEXPAVCEntity@@@Z
       6832 1AAF 00019D90 ?SetBarBottomUV@CUIScrollBar@@QAEXMMMMMM@Z
       6833 1AB0 00019D30 ?SetBarMiddleUV@CUIScrollBar@@QAEXMMMMMM@Z
       6834 1AB1 00019CD0 ?SetBarTopUV@CUIScrollBar@@QAEXMMMMMM@Z
       6835 1AB2 000A4E70 ?SetBarUV@CUISlideBar@@QAEXMMMMMM@Z
       6836 1AB3 00422A90 ?SetBlendType@CParticleGroup@@QAEXW4PredefinedBlendType@@@Z
       6837 1AB4 006A2630 ?SetBlendType@CShockWaveEffect@@QAEXW4PredefinedBlendType@@@Z
       6838 1AB5 006AD720 ?SetBlendType@CSplineBillboardEffect@@QAEXW4PredefinedBlendType@@@Z
       6839 1AB6 004BACC0 ?SetBlendType@CTerrainEffect@@QAEXW4PredefinedBlendType@@@Z
       6840 1AB7 006B6C70 ?SetBlendType@CTraceEffect@@QAEXW4PredefinedBlendType@@@Z
       6841 1AB8 0080B1A0 ?SetBold@CUIListBox@@QAEXHHH@Z
       6842 1AB9 001048F0 ?SetBoneBlendValue@CSkaTag@@QAEXPAUMeshLOD@@@Z
       6843 1ABA 006D19D0 ?SetBoneBlendValue@CSkaTag@@QAEXPAUMeshLOD@@JJMJMJMJM@Z
       6844 1ABB 0000F2C0 ?SetBoundingSphereRadius@CEffect@@QAEXM@Z
       6845 1ABC 00016B10 ?SetBtnState@CUIButton@@QAEXW4UIBtnState@@@Z
       6846 1ABD 000A7D60 ?SetBtnType@CUIMsgBox_Info@@QAEXHHHH@Z
       6847 1ABE 000B6060 ?SetBuyAddition@MyInfo@@QAEXH@Z
       6848 1ABF 000B6080 ?SetBuyRate@MyInfo@@QAEXH@Z
       6849 1AC0 0001E6A0 ?SetCSFlagOff@CUIManager@@QAEXK@Z
       6850 1AC1 0001E770 ?SetCSFlagOffElapsed@CUIManager@@QAEXK@Z
       6851 1AC2 0083D7D0 ?SetCSFlagOn@CUIManager@@QAEXK@Z
       6852 1AC3 0001E730 ?SetCSFlagOnElapsed@CUIManager@@QAEXKM@Z
       6853 1AC4 00A5B620 ?SetCameraByJob@CGameState@@QAEXH@Z
       6854 1AC5 00737910 ?SetCandidateUV@CUIEditBox@@QAEXMMMMMM@Z
       6855 1AC6 006B6C30 ?SetCapEnd@CTraceEffect@@QAEXH@Z
       6856 1AC7 00720C50 ?SetCashIndexToBtn@CUICashShopEX@@QAEHHH@Z
       6857 1AC8 002BE340 ?SetCashShopLock@CUICashShopEX@@QAEXH@Z
       6858 1AC9 00720610 ?SetCashType@CUICashShopEX@@QAEXPAVCNetworkMessage@@@Z
       6859 1ACA 00A7F7B0 ?SetChaData@CPlayerEntity@@UAEXHHKKCCAAVCTString@@GCJ@Z
       6860 1ACB 004909D0 ?SetChaPkState@CCharacterTarget@@QAEXJ@Z
       6861 1ACC 004909B0 ?SetChaState@CCharacterTarget@@QAEXJ@Z
       6862 1ACD 00A7FEC0 ?SetChaWearing@CPlayerEntity@@UAEXPAVCCharacterTarget@@PAVCEntity@@PAVCNetworkMessage@@@Z
       6863 1ACE 00010A90 ?SetChannelFlag@CMobData@@QAEXF@Z
       6864 1ACF 00A7FEE0 ?SetCharCostumeWearing@CPlayerEntity@@UAEXPAVCCharacterTarget@@PAVCEntity@@PAVCNetworkMessage@@@Z
       6865 1AD0 00277EF0 ?SetCharSpacing@CFontData@@QAEXJ@Z
       6866 1AD1 00A7FDA0 ?SetCharacterAppearance@CPlayerEntity@@UAEXPAVCModelInstance@@HCC@Z
       6867 1AD2 00A7FD80 ?SetCharacterHairChange@CPlayerEntity@@UAEXJCH@Z
       6868 1AD3 00A80210 ?SetCharacterState@CPlayerEntity@@UAEXPAVCEntity@@J@Z
       6869 1AD4 0022CEB0 ?SetCharaterAngle@CUICharacterCreateNew@@QAEXMM@Z
       6870 1AD5 000A5210 ?SetCheck@CUICheckButton@@QAEXH@Z
       6871 1AD6 004B2F00 ?SetCheckPointData@CNetworkLibrary@@QAEXHHH@Z
       6872 1AD7 00726D60 ?SetCheckRegion@CUICheckButton@@QAEXHHH@Z
       6873 1AD8 00156FF0 ?SetChildVisible@CUICharacterInfo@@AAEXPAVCUIArrayItem@@_N@Z
       6874 1AD9 006CA6C0 ?SetCircleInfo@CParticlesProcessControl@@QAEXHM@Z
       6875 1ADA 004907A0 ?SetClientChaId@CCharacterTarget@@QAEXJ@Z
       6876 1ADB 004E8190 ?SetClientItemId@CItemTarget@@QAEXJ@Z
       6877 1ADC 004EA7B0 ?SetClientMobId@CMobTarget@@QAEXJ@Z
       6878 1ADD 004F02F0 ?SetClientPetId@CPetTarget@@QAEXJ@Z
       6879 1ADE 00543C10 ?SetClientSlaveId@CSlaveTarget@@QAEXJ@Z
       6880 1ADF 000AF430 ?SetCmdComplete@CUIProgressBar@@QAEXPAVCommand@@@Z
       6881 1AE0 000B03E0 ?SetCmdReturn@CUISpinControl@@QAEXPAVCommand@@@Z
       6882 1AE1 003EF3F0 ?SetCollisionBox@CEditModel@@QAEXV?$Vector@M$02@@0@Z
       6883 1AE2 003EFEB0 ?SetCollisionBoxDimensionEquality@CEditModel@@QAEXJ@Z
       6884 1AE3 003EF750 ?SetCollisionBoxName@CEditModel@@QAEXVCTString@@@Z
       6885 1AE4 00595550 ?SetCollisionFlags@CEntity@@QAEXK@Z
       6886 1AE5 005632A0 ?SetColor@CMdlEffect@@QAEXK@Z
       6887 1AE6 00230370 ?SetColor@CParticle@@QAEXK@Z
       6888 1AE7 00232800 ?SetColor@CSkaEffect@@QAEXK@Z
       6889 1AE8 006AD630 ?SetColor@CSplineBillboardEffect@@QAEXKK@Z
       6890 1AE9 004BAC80 ?SetColor@CTerrainEffect@@QAEXK@Z
       6891 1AEA 006B6BC0 ?SetColor@CTraceEffect@@QAEXKK@Z
       6892 1AEB 000A9090 ?SetColor@CUIImage@@QAEXK@Z
       6893 1AEC 000AC570 ?SetColor@CUIImageArray@@QAEXK@Z
       6894 1AED 0080B080 ?SetColor@CUIListBox@@QAEXHHK@Z
       6895 1AEE 000AC170 ?SetColor@CUISpriteAni@@QAEXK@Z
       6896 1AEF 00402140 ?SetColorName@CModelObject@@QAEXJAAVCTString@@@Z
       6897 1AF0 002302C0 ?SetColorNoAlpha@CParticle@@QAEXK@Z
       6898 1AF1 00230310 ?SetColorOnlyAlpha@CParticle@@QAEXK@Z
       6899 1AF2 0080B3F0 ?SetColumnPosX@CUIListBox@@QAEXHHW4TEXT_ALIGN@@@Z
       6900 1AF3 0080B4C0 ?SetColumnWidth@CUIListBox@@QAEXHK@Z
       6901 1AF4 00721280 ?SetComboBox@CUICashShopEX@@IAEXW4CashShopCategory@1@@Z
       6902 1AF5 00015CB0 ?SetCommand@CUIBase@@QAEXPAVCommand@@@Z
       6903 1AF6 009A8450 ?SetCommand@CUISummon@@QAEXJ@Z
       6904 1AF7 00174730 ?SetCommandClose@MsgBoxMgr@@QAEXIPAVCommand@@_N@Z
       6905 1AF8 00015FC0 ?SetCommandDBL@CUIBase@@QAEXPAVCommand@@@Z
       6906 1AF9 0001DBD0 ?SetCommandDrag@CUIIcon@@QAEXPAVCommand@@@Z
       6907 1AFA 000AA280 ?SetCommandDrag@CUIListItem@@QAEXPAVCommand@@@Z
       6908 1AFB 00015EE0 ?SetCommandEnter@CUIBase@@QAEXPAVCommand@@@Z
       6909 1AFC 00015F50 ?SetCommandLeave@CUIBase@@QAEXPAVCommand@@@Z
       6910 1AFD 001745C0 ?SetCommandNo@MsgBoxMgr@@QAEXIPAVCommand@@_N@Z
       6911 1AFE 00174450 ?SetCommandOK@MsgBoxMgr@@QAEXIPAVCommand@@_N@Z
       6912 1AFF 00015D20 ?SetCommandOn@CUIBase@@QAEXPAVCommand@@@Z
       6913 1B00 00015E00 ?SetCommandR@CUIBase@@QAEXPAVCommand@@@Z
       6914 1B01 00015E70 ?SetCommandRUp@CUIBase@@QAEXPAVCommand@@@Z
       6915 1B02 000A9AD0 ?SetCommandUn@CUIList@@QAEXPAVCommand@@@Z
       6916 1B03 00015D90 ?SetCommandUp@CUIBase@@QAEXPAVCommand@@@Z
       6917 1B04 000160A0 ?SetCommandWheelDown@CUIBase@@QAEXPAVCommand@@@Z
       6918 1B05 00016030 ?SetCommandWheelUp@CUIBase@@QAEXPAVCommand@@@Z
       6919 1B06 000AE860 ?SetCompleteText@CUIProgressBar@@QAEXAAVCTString@@HK@Z
       6920 1B07 000AE940 ?SetCompleteTextColor@CUIProgressBar@@QAEXK@Z
       6921 1B08 00A7FB30 ?SetConsensus@CPlayerEntity@@UAEXJ@Z
       6922 1B09 00676420 ?SetContent@CEffect@@IAEXPBV1@@Z
       6923 1B0A 00422640 ?SetContent@CParticlesAbsorption@@IAEXAAV1@@Z
       6924 1B0B 004220F0 ?SetContent@CParticlesEmitter@@IAEXAAV1@@Z
       6925 1B0C 006D27D0 ?SetContent@CTag@@IAEXPAV1@@Z
       6926 1B0D 00009310 ?SetContentType@CBrushSector@@QAEXJ@Z
       6927 1B0E 009FBC40 ?SetControlNames@CInput@@QAEXXZ
       6928 1B0F 009FA760 ?SetControlValue@CInput@@QAEXK@Z
       6929 1B10 0001EC40 ?SetCoolTimeReductionRate@CUIManager@@QAEXH@Z
       6930 1B11 0073D0D0 ?SetCopyPos@CUIEditBox@@QAEXXZ
       6931 1B12 0073D450 ?SetCopyStartPos@CUIEditBox@@QAEXXZ
       6932 1B13 000B1950 ?SetCreatableNightShadow@CGameState@@QAEXH@Z
       6933 1B14 00013B00 ?SetCreateSet@CItemData@@QAEXH@Z
       6934 1B15 00A5E530 ?SetCreateUIModelSlot@CGameState@@QAEXHHJJ@Z
       6935 1B16 00019F40 ?SetCurItemCount@CUIScrollBar@@QAEXH@Z
       6936 1B17 009924D0 ?SetCurPos@CUISlideBar@@QAEXH@Z
       6937 1B18 000A5B70 ?SetCurSel@CUIComboBox@@QAEXH@Z
       6938 1B19 000A72B0 ?SetCurSel@CUIListBox@@QAEXH@Z
       6939 1B1A 00640CC0 ?SetCurrentColisionBoxIndex@CModelInstance@@QAEXJ@Z
       6940 1B1B 005CCED0 ?SetCurrentConditionValueStatus@CQuestDynamicData@@QAEXQAJ@Z
       6941 1B1C 001041F0 ?SetCurrentPage@ExpressSystem@@QAEXG@Z
       6942 1B1D 00154060 ?SetCurrentPageNewCharacterInfo@CUICharacterInfo@@IAEXH@Z
       6943 1B1E 002BE320 ?SetCurrentPageType@CUICashShopEX@@QAEXJ@Z
       6944 1B1F 00153D40 ?SetCurrentSkillInfo@CUICharacterInfo@@IAEXHH@Z
       6945 1B20 00A25290 ?SetCurrentTick@CTimer@@QAEXM@Z
       6946 1B21 00358630 ?SetCurrentViewport@CGfxLibrary@@QAEHPAVCViewPort@@@Z
       6947 1B22 0032A890 ?SetCurrentViewport_D3D@CGfxLibrary@@AAEHPAVCViewPort@@@Z
       6948 1B23 0033B850 ?SetCurrentViewport_OGL@CGfxLibrary@@AAEHPAVCViewPort@@@Z
       6949 1B24 0073C3A0 ?SetCursorIndex@CUIEditBox@@QAEXH@Z
       6950 1B25 00019160 ?SetCursorMove@CUIEditBox@@QAEXH@Z
       6951 1B26 00018F40 ?SetCursorSX@CUIEditBox@@QAEXH@Z
       6952 1B27 0001DBA0 ?SetCustomTooltip@CUIIcon@@QAEXH@Z
       6953 1B28 00213FC0 ?SetDG_EnvNas@ServerInfo@@QAEX_J@Z
       6954 1B29 00213FA0 ?SetDG_Mode@ServerInfo@@QAEXW4eTHEOS_DUNGEON_MODE@@@Z
       6955 1B2A 00213FF0 ?SetDG_MonsterNas@ServerInfo@@QAEX_J@Z
       6956 1B2B 00837B10 ?SetDamageState@CUIManager@@QAEXXZ
       6957 1B2C 009E6E60 ?SetData@CAnimObject@@QAEXPAVCAnimData@@@Z
       6958 1B2D 00490720 ?SetData@CCharacterTarget@@QAEXJJAAVCTString@@PAVCEntity@@CGJ@Z
       6959 1B2E 004E8090 ?SetData@CItemTarget@@QAEXJJPAVCEntity@@C@Z
       6960 1B2F 004E80D0 ?SetData@CItemTarget@@QAEXJPBDPAVCEntity@@C_JV?$Vector@M$02@@H@Z
       6961 1B30 004EA730 ?SetData@CMobTarget@@QAEXJJAAVCTString@@JPAVCEntity@@HC@Z
       6962 1B31 00405060 ?SetData@CModelObject@@QAEXPAVCModelData@@@Z
       6963 1B32 004F0220 ?SetData@CPetTarget@@QAEXJAAVCTString@@0JJJPAVCEntity@@CV2@@Z
       6964 1B33 005D4200 ?SetData@CShopData@@QAEXHPBDHH@Z
       6965 1B34 00543B80 ?SetData@CSlaveTarget@@QAEXJAAVCTString@@0JJPAVCEntity@@C@Z
       6966 1B35 000A41E0 ?SetDataBackUV3@CUISpinButton@@QAEXMMMMMMMMMMMMMM@Z
       6967 1B36 009E6EC0 ?SetData_t@CAnimObject@@QAEXABVCTFileName@@@Z
       6968 1B37 00404FE0 ?SetData_t@CModelObject@@QAEXABVCTFileName@@@Z
       6969 1B38 00379180 ?SetData_t@CTextureObject@@QAEXABVCTFileName@@@Z
       6970 1B39 0001F010 ?SetDebugOutMode@CUIManager@@QAEX_N@Z
       6971 1B3A 00A80820 ?SetDecoModeCamera@CPlayerEntity@@UAEXMM@Z
       6972 1B3B 0022D2B0 ?SetDefaultArmorWearing@CUICharacterCreateNew@@AAEXXZ
       6973 1B3C 005B1C00 ?SetDefaultProperties@CEntity@@UAEXXZ
       6974 1B3D 00A6F4B0 ?SetDefaultProperties@CMovableBrushEntity@@UAEXXZ
       6975 1B3E 00A6F7A0 ?SetDefaultProperties@CMovableEntity@@UAEXXZ
       6976 1B3F 00A7B140 ?SetDefaultProperties@CMovableModelEntity@@UAEXXZ
       6977 1B40 00A7F450 ?SetDefaultProperties@CPlayerEntity@@UAEXXZ
       6978 1B41 000AC1B0 ?SetDelayTime@CUISpriteAni@@QAEXH@Z
       6979 1B42 00011D60 ?SetDelivery@CMessageDispatcher@@QAEX_N@Z
       6980 1B43 00422460 ?SetDependLife@CParticlesAbsorption@@QAEXH@Z
       6981 1B44 006BEB80 ?SetDependRadius@CParticlesProcessControl@@QAEXH@Z
       6982 1B45 000AC5B0 ?SetDepth@CUIImageArray@@QAEXM@Z
       6983 1B46 000AC5D0 ?SetDepthMode@CUIImageArray@@QAEXH@Z
       6984 1B47 00014380 ?SetDesc@CItemData@@QAEXPBD@Z
       6985 1B48 00010B50 ?SetDesc@CMobData@@QAEXPBD@Z
       6986 1B49 0041F050 ?SetDescription@CWorld@@QAEXABVCTString@@@Z
       6987 1B4A 00A710D0 ?SetDesiredRotation@CMovableEntity@@QAEXABV?$Vector@M$02@@@Z
       6988 1B4B 00A71280 ?SetDesiredTranslation@CMovableEntity@@QAEXABV?$Vector@M$02@@@Z
       6989 1B4C 0026CA10 ?SetDesktopSize@CUIOption@@QAEXJJ@Z
       6990 1B4D 000B0770 ?SetDestName@Party@@QAEXVCTString@@@Z
       6991 1B4E 00A7FFE0 ?SetDie@CPlayerEntity@@UAEXXZ
       6992 1B4F 00230400 ?SetDirection@CParticle@@QAEXABV?$Quaternion@M@@@Z
       6993 1B50 00422C80 ?SetDirection@CParticleGroup@@QAEXABV?$Quaternion@M@@@Z
       6994 1B51 00422540 ?SetDirection@CParticlesAbsorption@@QAEXABV?$Quaternion@M@@@Z
       6995 1B52 00231980 ?SetDirection@CParticlesCommonProcess@@QAEXABV?$Quaternion@M@@@Z
       6996 1B53 00421FA0 ?SetDirection@CParticlesEmitter@@QAEXABV?$Quaternion@M@@@Z
       6997 1B54 00357CB0 ?SetDisplayMode@CGfxLibrary@@QAEHW4GfxAPIType@@JJJW4DisplayDepth@@@Z
       6998 1B55 000F8910 ?SetDivisionType@Party@@QAEXCCC@Z
       6999 1B56 000F84A0 ?SetDivisionType@Party@@QAEXCCH@Z
       7000 1B57 000AE8B0 ?SetDoingText@CUIProgressBar@@QAEXAAVCTString@@HK@Z
       7001 1B58 000AE960 ?SetDoingTextColor@CUIProgressBar@@QAEXK@Z
       7002 1B59 000A6110 ?SetDownBtnUV@CUIComboBox@@QAEXMMMMMM@Z
       7003 1B5A 00019DF0 ?SetDownUV@CUIScrollBar@@QAEXW4UIBtnState@@MMMMMM@Z
       7004 1B5B 000A43E0 ?SetDownUV@CUISpinButton@@QAEXW4UIBtnState@@MMMMMM@Z
       7005 1B5C 0001E4D0 ?SetDrawPort@CUIManager@@QAEXPAVCDrawPort@@@Z
       7006 1B5D 004F82D0 ?SetDropItemModel@@YAXPAVCEntity@@PAVCItemData@@PAVCItemTarget@@@Z
       7007 1B5E 00730C70 ?SetDropList@CUIComboBox@@QAEXH@Z
       7008 1B5F 00731330 ?SetDropListUV@CUIComboBox@@QAEXMMMMMM@Z
       7009 1B60 0000F4F0 ?SetERSubType@CEffect@@QAEXW4EFF_RENDER_SUB_TYPE@@@Z
       7010 1B61 0000F4B0 ?SetERType@CEffect@@QAEXW4EFF_RENDER_TYPE@@@Z
       7011 1B62 00017390 ?SetEdge@CUIButton@@QAEX_N@Z
       7012 1B63 00444460 ?SetEdgesFillType@CWorldRenderPrefs@@QAEXW4FillType@1@@Z
       7013 1B64 004444A0 ?SetEdgesInkColor@CWorldRenderPrefs@@QAEXK@Z
       7014 1B65 00444020 ?SetEditorModelsOn@CWorldRenderPrefs@@QAEXH@Z
       7015 1B66 00689EA0 ?SetEffectControl@CEntityEffect@@QAEXABVCEffectControl@@@Z
       7016 1B67 0068BA20 ?SetEffectControl@CMdlEffect@@QAEXABVCEffectControl@@@Z
       7017 1B68 006AB730 ?SetEffectControl@CSkaEffect@@QAEXABVCEffectControl@@@Z
       7018 1B69 0011A670 ?SetEffectModelNo@PetStash@@QAEXH@Z
       7019 1B6A 00112CB0 ?SetEffectSpeed@CInvenData@@QAEXH@Z
       7020 1B6B 00A7F810 ?SetElementalData@CPlayerEntity@@UAEXPAVCEntity@@JJ@Z
       7021 1B6C 00A7F830 ?SetElementalStatus@CPlayerEntity@@UAEXPAVCEntity@@CCJMMM@Z
       7022 1B6D 006BDD50 ?SetEmitAllDir@CParticlesEmitterCylinder@@QAEXH@Z
       7023 1B6E 00421F10 ?SetEmitSpeed@CParticlesEmitter@@QAEXM@Z
       7024 1B6F 004230B0 ?SetEmitter@CParticleGroup@@QAEXPAVCParticlesEmitter@@@Z
       7025 1B70 004446B0 ?SetEmptyBrushModel@CWorldRenderPrefs@@QAEXPAVCModelObject@@@Z
       7026 1B71 00016A90 ?SetEnable@CUIButton@@UAEXH@Z
       7027 1B72 000AEA20 ?SetEnable@CUIProgressBar@@UAEXH@Z
       7028 1B73 000A8BB0 ?SetEnablePopup@CUIImageBox@@QAEXH@Z
       7029 1B74 0000A160 ?SetEntity@CEntityTag@@QAEXVCEntityPointer@@@Z
       7030 1B75 003D84D0 ?SetEnvironment@CSoundLibrary@@QAEXW4SndEnvFX@@@Z
       7031 1B76 000094D0 ?SetEnvironmentType@CBrushSector@@QAEXJ@Z
       7032 1B77 009F59B0 ?SetErrorFatalErrorCallback@@YAXP6AXABVCTString@@@Z@Z
       7033 1B78 00A02120 ?SetErrorInsufficientMemoryCallback@@YAXP6AXJ@Z@Z
       7034 1B79 00A21F20 ?SetErrorReadingCallback@@YAXP6AXABVCTFileName@@@Z@Z
       7035 1B7A 00A21F30 ?SetErrorWritingCallback@@YAXP6AXABVCTFileName@@@Z@Z
       7036 1B7B 000FCC90 ?SetExpeditionPosition@Party@@QAEXJJ@Z
       7037 1B7C 00122920 ?SetExtend@Quest@@QAEXHW4eTREE_TYPE@@@Z
       7038 1B7D 00A67200 ?SetExtensionName@CJobInfo@@QAEXHHABVCTString@@@Z
       7039 1B7E 00010340 ?SetExtraFlag@CMobData@@QAEX_K@Z
       7040 1B7F 0041CBD0 ?SetExtraName@CZoneInfo@@QAEXHHPBD@Z
       7041 1B80 002237D0 ?SetF2KeyPressed@CInput@@QAEHH@Z
       7042 1B81 00223800 ?SetF3KeyPressed@CInput@@QAEHH@Z
       7043 1B82 00A0E860 ?SetFLOAT@CShell@@QAEXABVCTString@@M@Z
       7044 1B83 002D2740 ?SetFPUPrecision@@YAXW4FPUPrecisionType@@@Z
       7045 1B84 0022ACD0 ?SetFace@CharacterCreateNew@@QAEXH@Z
       7046 1B85 0068CD50 ?SetFadeInDest@COrbitEffect@@QAEXMM@Z
       7047 1B86 0068CCB0 ?SetFadeInFlag@COrbitEffect@@QAEXK@Z
       7048 1B87 0068CD80 ?SetFadeOutDest@COrbitEffect@@QAEXMM@Z
       7049 1B88 0068CCE0 ?SetFadeOutFlag@COrbitEffect@@QAEXK@Z
       7050 1B89 0000F240 ?SetFadeTime@CEffect@@QAEXMMM@Z
       7051 1B8A 00231C30 ?SetFadeTime@CEffectControl@@QAEXMM@Z
       7052 1B8B 006931D0 ?SetFadeTime@CParticlesProcessDynamicState@@QAEXMM@Z
       7053 1B8C 00444060 ?SetFieldBrushesOn@CWorldRenderPrefs@@QAEXH@Z
       7054 1B8D 00A1F290 ?SetFileSize_t@CTFileStream@@QAEXJ@Z
       7055 1B8E 0000D180 ?SetFirstExtraFlagOff@CEntity@@QAEXK@Z
       7056 1B8F 0000D150 ?SetFirstExtraFlagOn@CEntity@@QAEXK@Z
       7057 1B90 00277F30 ?SetFixedWidth@CFontData@@QAEXXZ
       7058 1B91 002300A0 ?SetFlag@CParticle@@QAEXK@Z
       7059 1B92 0000D0E0 ?SetFlagOff@CEntity@@QAEXK@Z
       7060 1B93 0000D0B0 ?SetFlagOn@CEntity@@QAEXK@Z
       7061 1B94 00595500 ?SetFlags@CEntity@@QAEXK@Z
       7062 1B95 00352310 ?SetFlags@CTerrain@@QAEXK@Z
       7063 1B96 0073C1E0 ?SetFocus@CUIEditBox@@UAEXH@Z
       7064 1B97 00793A30 ?SetFocus@CUIGuildBattle@@UAEXH@Z
       7065 1B98 00247020 ?SetFocus@CUILoginNew@@UAEXH@Z
       7066 1B99 00980740 ?SetFocus@CUISingleBattle@@UAEXH@Z
       7067 1B9A 009B2630 ?SetFocus@CUITatoo@@UAEXH@Z
       7068 1B9B 00444160 ?SetFogOn@CWorldRenderPrefs@@QAEXH@Z
       7069 1B9C 000093F0 ?SetFogType@CBrushSector@@QAEXJ@Z
       7070 1B9D 0030F970 ?SetFont@CDrawPort@@QAEXPAVCFontData@@@Z
       7071 1B9E 003286A0 ?SetFontCharData@CFontData@@QAEXJ@Z
       7072 1B9F 006BD5A0 ?SetForce@CParticlesEmitterSphere@@QAEXABVCForce@@M@Z
       7073 1BA0 00009380 ?SetForceType@CBrushSector@@QAEXJ@Z
       7074 1BA1 003D8AB0 ?SetFormat@CSoundLibrary@@QAEXW4SoundFormat@1@H@Z
       7075 1BA2 003D78C0 ?SetFormat_internal@CSoundLibrary@@AAEXW4SoundFormat@1@H@Z
       7076 1BA3 0029D330 ?SetFortune@CUIImageText@@QAEXV?$basic_string@DU?$char_traits@D@std@@V?$allocator@D@2@@std@@HK_N@Z
       7077 1BA4 009E5C40 ?SetFrame@CAnimData@@QAEXJJJ@Z
       7078 1BA5 009E4230 ?SetFrames@CAnimData@@QAEXJJPAJ@Z
       7079 1BA6 00658D90 ?SetFrustumMatrix@@YAXAAY0BA@MMMMMMM@Z
       7080 1BA7 006ED320 ?SetGMNotice@CUIAutoHelp@@QAEXVCTString@@K@Z
       7081 1BA8 0049ADD0 ?SetGameFinished@CNetworkLibrary@@QAEXXZ
       7082 1BA9 00823640 ?SetGameHandle@CUIManager@@QAEXPAVCGame@@@Z
       7083 1BAA 000ABA50 ?SetGap@CUIArray@@QAEXHH@Z
       7084 1BAB 000A9A50 ?SetGap@CUIList@@QAEXH@Z
       7085 1BAC 000AAB30 ?SetGapY@CUITextBox@@QAEXH@Z
       7086 1BAD 000ACCF0 ?SetGapY@CUITextBoxEx@@QAEXH@Z
       7087 1BAE 0068CB70 ?SetGoalTagName@COrbitEffect@@QAEXPBD@Z
       7088 1BAF 006BE860 ?SetGoalTagName@CParticlesProcessPointGoal@@QAEXPBD@Z
       7089 1BB0 0071FC60 ?SetGoodsList@CUICashShopEX@@QAEXPAVCNetworkMessage@@@Z
       7090 1BB1 00158800 ?SetGuild@CUICharacterInfo@@QAEXXZ
       7091 1BB2 0083D480 ?SetGuildMark@CUIManager@@QAEXXZ
       7092 1BB3 0022ACB0 ?SetHair@CharacterCreateNew@@QAEXH@Z
       7093 1BB4 004441A0 ?SetHazeOn@CWorldRenderPrefs@@QAEXH@Z
       7094 1BB5 00009460 ?SetHazeType@CBrushSector@@QAEXJ@Z
       7095 1BB6 0000DC70 ?SetHealth@CLiveEntity@@QAEXM@Z
       7096 1BB7 002301D0 ?SetHeight@CParticle@@QAEXM@Z
       7097 1BB8 00015700 ?SetHeight@CUIBase@@QAEXH@Z
       7098 1BB9 003FBB90 ?SetHiddenLines@CModelRenderPrefs@@QAEXH@Z
       7099 1BBA 00443F60 ?SetHiddenLinesOn@CWorldRenderPrefs@@QAEXH@Z
       7100 1BBB 0001DC40 ?SetHighLight@CUIIcon@@QAEX_N@Z
       7101 1BBC 00299230 ?SetHighLightMode@CUIIcon@@QAEX_N@Z
       7102 1BBD 000A51B0 ?SetHighlight@CUICheckButton@@QAEX_NK@Z
       7103 1BBE 000A51E0 ?SetHighlightTime@CUICheckButton@@QAEXM@Z
       7104 1BBF 0083D7A0 ?SetHoldBtn@CUIManager@@QAEXPAVCUIBase@@@Z
       7105 1BC0 0083D600 ?SetHoldBtn@CUIManager@@QAEXPAVCUIIcon@@@Z
       7106 1BC1 00223890 ?SetHomePressed@CInput@@QAEHH@Z
       7107 1BC2 00223410 ?SetIKeyPressed@CInput@@QAEHH@Z
       7108 1BC3 00A0EA20 ?SetINDEX@CShell@@QAEXABVCTString@@J@Z
       7109 1BC4 004D2570 ?SetIPFilter@CCommunicationInterface@@IAEXXZ
       7110 1BC5 000AE810 ?SetIdleText@CUIProgressBar@@QAEXAAVCTString@@HK@Z
       7111 1BC6 000AE920 ?SetIdleTextColor@CUIProgressBar@@QAEXK@Z
       7112 1BC7 007D5F00 ?SetImageByType@CUIImageBox@@QAEXW4eImageType@1@HH@Z
       7113 1BC8 007D69A0 ?SetImageForCorps@CUIImageBox@@QAEXW4eImageType@1@H@Z
       7114 1BC9 0029BBA0 ?SetImageWidth@CUIImageArray@@QAEXHH@Z
       7115 1BCA 00A7F870 ?SetImportantValues@CPlayerEntity@@UAEXMMMCC@Z
       7116 1BCB 00019100 ?SetInValidEditBox@CUIEditBox@@QAEXH@Z
       7117 1BCC 00A6D320 ?SetInfo@CTransformInfo@@QAEXHH@Z
       7118 1BCD 006ECA00 ?SetInfo@CUIAutoHelp@@QAEXK@Z
       7119 1BCE 003FBDF0 ?SetInkColor@CModelRenderPrefs@@QAEXK@Z
       7120 1BCF 006A21F0 ?SetInnerBasis@CShockWaveEffect@@QAEXH@Z
       7121 1BD0 00861A90 ?SetInputBox@CUIMsgBox_Info@@QAEXHHHH@Z
       7122 1BD1 000B0750 ?SetIsPartyPlay@Party@@QAEXH@Z
       7123 1BD2 00013900 ?SetItemBM2FileName@CItemData@@QAEXPBD@Z
       7124 1BD3 000139C0 ?SetItemBM3FileName@CItemData@@QAEXPBD@Z
       7125 1BD4 00013840 ?SetItemBMFileName@CItemData@@QAEXPBD@Z
       7126 1BD5 00107AD0 ?SetItemCount@CUIExpressSystem@@QAEXE@Z
       7127 1BD6 000A9B40 ?SetItemCount@CUIList@@QAEXH@Z
       7128 1BD7 00014A10 ?SetItemERSubType@CItemEffect@@QAEXW4EFF_RENDER_SUB_TYPE@@@Z
       7129 1BD8 000149F0 ?SetItemERType@CItemEffect@@QAEXW4EFF_RENDER_TYPE@@@Z
       7130 1BD9 00A5F970 ?SetItemEffect@CGameState@@QAEXPAVCEntity@@HHHH@Z
       7131 1BDA 000AD280 ?SetItemEffectOption@CCharacterTarget@@QAEXC@Z
       7132 1BDB 000A9A10 ?SetItemShowNum@CUIList@@QAEXH@Z
       7133 1BDC 001574F0 ?SetItemSkill@CUICharacterInfo@@QAEXXZ
       7134 1BDD 000137C0 ?SetItemSmcFileName@CItemData@@QAEXPBD@Z
       7135 1BDE 002A0B10 ?SetItemStart@CUIList@@QAEXHH@Z
       7136 1BDF 00013940 ?SetItemTEX2FileName@CItemData@@QAEXPBD@Z
       7137 1BE0 00013980 ?SetItemTEX2NormalFileName@CItemData@@QAEXPBD@Z
       7138 1BE1 00013A00 ?SetItemTEX3FileName@CItemData@@QAEXPBD@Z
       7139 1BE2 00013A40 ?SetItemTEX3NormalFileName@CItemData@@QAEXPBD@Z
       7140 1BE3 00013880 ?SetItemTEXFileName@CItemData@@QAEXPBD@Z
       7141 1BE4 000138C0 ?SetItemTEXNormalFileName@CItemData@@QAEXPBD@Z
       7142 1BE5 00019F80 ?SetItemsPerPage@CUIScrollBar@@QAEXH@Z
       7143 1BE6 00223440 ?SetJKeyPressed@CInput@@QAEHH@Z
       7144 1BE7 0022AAE0 ?SetJobA@CharacterCreateNew@@QAEXH@Z
       7145 1BE8 003C8CF0 ?SetJoinFlagMerac@ActorMgr@@QAEXC@Z
       7146 1BE9 009F94F0 ?SetJoyPolling@CInput@@QAEXH@Z
       7147 1BEA 00223470 ?SetKKeyPressed@CInput@@QAEHH@Z
       7148 1BEB 000B3220 ?SetKillMonIndex@CUIAutoHelp@@QAEXH@Z
       7149 1BEC 00223530 ?SetLControlKeyPressed@CInput@@QAEHH@Z
       7150 1BED 00223860 ?SetLMousePressed@CInput@@QAEHH@Z
       7151 1BEE 005E9EC0 ?SetLayerParameters@CLightSource@@QAEXAAVCBrushShadowLayer@@AAVCBrushPolygon@@AAVCLightRectangle@@@Z
       7152 1BEF 00A7FBB0 ?SetLegit@CPlayerEntity@@UAEXEJ@Z
       7153 1BF0 000AD1D0 ?SetLegitimate@CCharacterTarget@@QAEXH@Z
       7154 1BF1 004445A0 ?SetLensFlaresType@CWorldRenderPrefs@@QAEXW4LensFlaresType@1@@Z
       7155 1BF2 00A253E0 ?SetLerp2@CTimer@@QAEXM@Z
       7156 1BF3 00A25330 ?SetLerp@CTimer@@QAEXM@Z
       7157 1BF4 004FD150 ?SetLerpFactor@CSessionState@@QAEXVCTimerValue@@@Z
       7158 1BF5 006BE7B0 ?SetLerpValue@CParticlesProcessPointGoal@@QAEXMM@Z
       7159 1BF6 0000F1F0 ?SetLifeTime@CEffect@@QAEXM@Z
       7160 1BF7 002300E0 ?SetLifeTime@CParticle@@QAEXM@Z
       7161 1BF8 0067E1A0 ?SetLightColor@CLightEffect@@QAEXK@Z
       7162 1BF9 005EB3C0 ?SetLightSource@CLightSource@@QAEXABV1@@Z
       7163 1BFA 005EB300 ?SetLightSourceWithNoDiscarding@CLightSource@@QAEXABV1@@Z
       7164 1BFB 0067E200 ?SetLightTexture@CLightEffect@@SAXPAVCTextureData@@@Z
       7165 1BFC 000AAB70 ?SetLineHeight@CUITextBox@@QAEXH@Z
       7166 1BFD 00277F10 ?SetLineSpacing@CFontData@@QAEXJ@Z
       7167 1BFE 0016BB50 ?SetLinkData@CUIExpressSystem@@QAE_NXZ
       7168 1BFF 000A7DB0 ?SetListBoxPlacement@CUIMsgBox_Info@@QAEXHHHHHH@Z
       7169 1C00 000A99A0 ?SetListItemTemplate@CUIList@@QAEXPAVCUIListItem@@@Z
       7170 1C01 002BE480 ?SetLoadDataState@CUICashShopEX@@QAEXH@Z
       7171 1C02 004B16A0 ?SetLoadingZone@CNetworkLibrary@@QAEXJ@Z
       7172 1C03 0049AD50 ?SetLocalPause@CNetworkLibrary@@QAEXH@Z
       7173 1C04 004220B0 ?SetLocalType@CParticlesEmitter@@QAEXH@Z
       7174 1C05 0001CD00 ?SetLogName@CDamageLogInfo@@QAEXPBD@Z
       7175 1C06 0030AB30 ?SetLogicalRectInLogical@CDrawPort@@QAEXABV?$AABBox@J$01@@@Z
       7176 1C07 0030AAB0 ?SetLogicalRectInPhysical@CDrawPort@@QAEXABV?$AABBox@J$01@@@Z
       7177 1C08 0030ABB0 ?SetLogicalRectInRaster@CDrawPort@@QAEXABV?$AABBox@J$01@@@Z
       7178 1C09 00246300 ?SetLogin@CUILoginNew@@QAEXXZ
       7179 1C0A 004EB8B0 ?SetLoginType@CNetworkMessage@@QAEXE@Z
       7180 1C0B 00105000 ?SetLoopCount@CAnimEffect@@QAEXJ@Z
       7181 1C0C 00230FC0 ?SetLower@CParticlePrototype@@QAEXABVCParticle@@@Z
       7182 1C0D 00223770 ?SetMKeyPressed@CInput@@QAEHH@Z
       7183 1C0E 00444240 ?SetManualMipBrushingFactor@CWorldRenderPrefs@@QAEXM@Z
       7184 1C0F 00401F60 ?SetManualMipLevel@CModelObject@@QAEXJ@Z
       7185 1C10 00230280 ?SetMass@CParticle@@QAEXM@Z
       7186 1C11 00737560 ?SetMaxChar@CUIEditBox@@QAEXH@Z
       7187 1C12 000AAAF0 ?SetMaxChar@CUITextBox@@QAEXH@Z
       7188 1C13 0067E160 ?SetMaxFallOff@CLightEffect@@QAEXM@Z
       7189 1C14 00992660 ?SetMaxPos@CUISlideBar@@QAEXH@Z
       7190 1C15 000A7D40 ?SetMaxRow@CUIMsgBox_Info@@QAEXH@Z
       7191 1C16 00009DD0 ?SetMaxTimeLength@CTag@@QAEXM@Z
       7192 1C17 00013A80 ?SetMeshCnt@CItemData@@QAEXH@Z
       7193 1C18 000B0360 ?SetMinMax@CUISpinControl@@QAEXH_J@Z
       7194 1C19 009925F0 ?SetMinPos@CUISlideBar@@QAEXH@Z
       7195 1C1A 004445E0 ?SetMinimumRenderRange@CWorldRenderPrefs@@QAEXM@Z
       7196 1C1B 00A3F070 ?SetMipDistance@CBrushMip@@QAEXM@Z
       7197 1C1C 00401F90 ?SetMipSwitchFactor@CModelObject@@QAEXJM@Z
       7198 1C1D 004441E0 ?SetMirrorsOn@CWorldRenderPrefs@@QAEXH@Z
       7199 1C1E 00A7F790 ?SetMobData@CPlayerEntity@@UAEXPAVCEntity@@JJHHH@Z
       7200 1C1F 005C51D0 ?SetMobDataToNPC@CMobData@@SAHPAVCEntity@@PAV1@PBD@Z
       7201 1C20 001BDDF0 ?SetMobFlowerTree@CUIFlowerTree@@QAEXPAVCMobTarget@@@Z
       7202 1C21 000103B0 ?SetMobSmcFileName@CMobData@@QAEXVCTString@@@Z
       7203 1C22 0059A680 ?SetModel@CEntity@@QAEXABVCTFileName@@@Z
       7204 1C23 0059A840 ?SetModel@CEntity@@QAEXJ@Z
       7205 1C24 0059E7C0 ?SetModelAttachmentReflectionTexture@CEntity@@QAEXJJ@Z
       7206 1C25 0059E8C0 ?SetModelAttachmentSpecularTexture@CEntity@@QAEXJJ@Z
       7207 1C26 0059BCD0 ?SetModelColor@CEntity@@QAEXK@Z
       7208 1C27 00643B30 ?SetModelColor@CModelInstance@@QAEXK@Z
       7209 1C28 006AB6B0 ?SetModelInstance@CSkaEffect@@QAEHABVCTFileName@@@Z
       7210 1C29 0059DF20 ?SetModelMainTexture@CEntity@@QAEXABVCTFileName@@@Z
       7211 1C2A 0059E0E0 ?SetModelMainTexture@CEntity@@QAEXJ@Z
       7212 1C2B 0068B840 ?SetModelObject@CMdlEffect@@QAEHABVCTFileName@@0@Z
       7213 1C2C 0059E340 ?SetModelReflectionTexture@CEntity@@QAEXJ@Z
       7214 1C2D 0059E420 ?SetModelSpecularTexture@CEntity@@QAEXJ@Z
       7215 1C2E 0040B380 ?SetModelView@CRenderModel@@QAEXXZ
       7216 1C2F 003E6FD0 ?SetModel_t@CAttachedModel@@QAEXVCTFileName@@@Z
       7217 1C30 0001E7E0 ?SetMouseCursorInsideUIs@CUIManager@@QAEXW4UIMCType@@@Z
       7218 1C31 002809F0 ?SetMouseEventImage@CUIArray@@QAEXU_UIRect@@UUIRectUV@@H@Z
       7219 1C32 0001E810 ?SetMouseInsideUIs@CUIManager@@QAEXH@Z
       7220 1C33 00017310 ?SetMouseOver@CUIButton@@QAEXH@Z
       7221 1C34 00280B50 ?SetMouseOverItem@CUIArray@@QAEXH@Z
       7222 1C35 00422420 ?SetMoveType@CParticlesAbsorption@@QAEXW4PARTICLE_MOVE_TYPE@@@Z
       7223 1C36 00860CA0 ?SetMsgBoxInfo@CUIMsgBox_Info@@QAEXAAVCTString@@KHHHMM@Z
       7224 1C37 00174290 ?SetMsgBoxInfo@MsgBoxMgr@@AAEXPAVCUIMsgBox@@IHHPBD1PAVCommand@@2_N@Z
       7225 1C38 001748A0 ?SetMsgBoxPos@MsgBoxMgr@@QAEXIHH@Z
       7226 1C39 000A7E10 ?SetMsgBoxTimer@CUIMsgBox_Info@@QAEX_JH@Z
       7227 1C3A 000B6660 ?SetMyApet@ObjInfo@@QAEXPAVCWildPetTarget@@@Z
       7228 1C3B 0071FA80 ?SetMyCash@CUICashShopEX@@QAEX_J@Z
       7229 1C3C 000B07E0 ?SetMyGroupNum@Party@@QAEXH@Z
       7230 1C3D 000B0800 ?SetMyGroupPos@Party@@QAEXH@Z
       7231 1C3E 004ABB10 ?SetMyPosition@CNetworkLibrary@@QAEXVCPlacement3D@@M@Z
       7232 1C3F 001077C0 ?SetNPCInfo@ExpressSystem@@QAEXGMM@Z
       7233 1C40 009E5A40 ?SetName@CAnimData@@QAEXJVCTString@@@Z
       7234 1C41 0000F340 ?SetName@CEffect@@QAEXABV?$basic_string@DU?$char_traits@D@std@@V?$allocator@D@2@@std@@@Z
       7235 1C42 0000F370 ?SetName@CEffect@@QAEXPBD@Z
       7236 1C43 0000F8C0 ?SetName@CEffectGroup@@QAEXAAV?$basic_string@DU?$char_traits@D@std@@V?$allocator@D@2@@std@@@Z
       7237 1C44 0000F8F0 ?SetName@CEffectGroup@@QAEXPBD@Z
       7238 1C45 00014320 ?SetName@CItemData@@QAEXPBD@Z
       7239 1C46 00A671C0 ?SetName@CJobInfo@@QAEXHABVCTString@@@Z
       7240 1C47 000112A0 ?SetName@CMissionCase@@QAEXPBD@Z
       7241 1C48 000105E0 ?SetName@CMobData@@QAEXPBD@Z
       7242 1C49 006439C0 ?SetName@CModelInstance@@QAEXABVCTString@@@Z
       7243 1C4A 0000EA30 ?SetName@COptionData@@QAEXPBD@Z
       7244 1C4B 004229C0 ?SetName@CParticleGroup@@QAEXAAV?$basic_string@DU?$char_traits@D@std@@V?$allocator@D@2@@std@@@Z
       7245 1C4C 004229F0 ?SetName@CParticleGroup@@QAEXPBD@Z
       7246 1C4D 00A68A80 ?SetName@CPetInfo@@QAEXHABVCTString@@@Z
       7247 1C4E 005CBF20 ?SetName@CPlayerCharacter@@QAEXVCTString@@@Z
       7248 1C4F 00A69EF0 ?SetName@CSlaveInfo@@QAEXHABVCTString@@@Z
       7249 1C50 00009BD0 ?SetName@CTag@@QAEXABV?$basic_string@DU?$char_traits@D@std@@V?$allocator@D@2@@std@@@Z
       7250 1C51 00009C20 ?SetName@CTag@@QAEXPBD@Z
       7251 1C52 00A6D190 ?SetName@CTransformInfo@@QAEXHABVCTString@@@Z
       7252 1C53 0041F0A0 ?SetName@CWorld@@QAEXABVCTString@@@Z
       7253 1C54 0001EC60 ?SetNeedMPReductionRate@CUIManager@@QAEXH@Z
       7254 1C55 0000D290 ?SetNetworkID@CEntity@@QAEXJ@Z
       7255 1C56 0022AD30 ?SetNewName@CharacterCreateNew@@QAEXAAVCTString@@@Z
       7256 1C57 000172D0 ?SetNewType@CUIButton@@QAEXH@Z
       7257 1C58 0026EEA0 ?SetNextStage@StageMgr@@QAEXW4eSTAGE@@0@Z
       7258 1C59 005A30D0 ?SetNickNameDamageEffect@CEntity@@UAEXJW4NickNameEffectType@1@@Z
       7259 1C5A 0022AD80 ?SetNightShadowCreate@CharacterCreateNew@@QAEXH@Z
       7260 1C5B 00581A30 ?SetNoTranslate@CAffinityData@@QAEXV?$vector@JV?$allocator@J@std@@@std@@@Z
       7261 1C5C 005B49E0 ?SetNoTranslate@CItemData@@QAEXXZ
       7262 1C5D 00011180 ?SetNoTranslate@CMissionCase@@QAEXXZ
       7263 1C5E 005C5B20 ?SetNoTranslate@CMobData@@QAEXXZ
       7264 1C5F 0000EAC0 ?SetNoTranslate@COptionData@@QAEXXZ
       7265 1C60 005D0150 ?SetNoTranslate@CQuestSystem@@QAEXV?$vector@JV?$allocator@J@std@@@std@@@Z
       7266 1C61 0001ED90 ?SetNoTranslateFlag@CUIManager@@QAEXW4eNoTransType@@PAH@Z
       7267 1C62 0083C450 ?SetNoTranslationString@CUIManager@@QAEXHH@Z
       7268 1C63 004D2030 ?SetNonBlocking_t@CCommunicationInterface@@QAEXXZ
       7269 1C64 00676140 ?SetNotRenderAtThisFrame@CEffect@@UAEXXZ
       7270 1C65 0068D1E0 ?SetNotRenderAtThisFrame@COrbitEffect@@UAEXXZ
       7271 1C66 006B1890 ?SetNotRenderAtThisFrame@CSplinePathEffect@@UAEXXZ
       7272 1C67 007902A0 ?SetNotice@CUIGuildBattle@@QAEXVCTString@@0@Z
       7273 1C68 001168F0 ?SetNoticeBlink@Notice@@QAEXW4eNoticeType@1@_N@Z
       7274 1C69 00104230 ?SetNoticeFlag@ExpressSystem@@QAEXE@Z
       7275 1C6A 002236B0 ?SetNum0KeyPressed@CInput@@QAEHH@Z
       7276 1C6B 00223560 ?SetNum1KeyPressed@CInput@@QAEHH@Z
       7277 1C6C 00223590 ?SetNum2KeyPressed@CInput@@QAEHH@Z
       7278 1C6D 002235C0 ?SetNum3KeyPressed@CInput@@QAEHH@Z
       7279 1C6E 002235F0 ?SetNum4KeyPressed@CInput@@QAEHH@Z
       7280 1C6F 00223620 ?SetNum5KeyPressed@CInput@@QAEHH@Z
       7281 1C70 00223650 ?SetNum6KeyPressed@CInput@@QAEHH@Z
       7282 1C71 00223680 ?SetNum9KeyPressed@CInput@@QAEHH@Z
       7283 1C72 00223710 ?SetOKeyPressed@CInput@@QAEHH@Z
       7284 1C73 0040B330 ?SetObjectPlacement@CRenderModel@@QAEXABV?$Vector@M$02@@ABV?$Matrix@M$02$02@@@Z
       7285 1C74 0040B2E0 ?SetObjectPlacement@CRenderModel@@QAEXABVCPlacement3D@@@Z
       7286 1C75 00641310 ?SetOffset@CModelInstance@@QAEXQAM@Z
       7287 1C76 006414F0 ?SetOffsetPos@CModelInstance@@QAEXV?$Vector@M$02@@@Z
       7288 1C77 006B14B0 ?SetOffsetPos@CSplinePathEffect@@QAEXABV?$Vector@M$02@@@Z
       7289 1C78 00009C90 ?SetOffsetPos@CTag@@QAEXABV?$Vector@M$02@@@Z
       7290 1C79 00009CC0 ?SetOffsetPos@CTag@@QAEXMMM@Z
       7291 1C7A 006415D0 ?SetOffsetRot@CModelInstance@@QAEXV?$Vector@M$02@@@Z
       7292 1C7B 00009D70 ?SetOffsetRot@CTag@@QAEXABV?$Quaternion@M@@@Z
       7293 1C7C 00009D40 ?SetOffsetRot@CTag@@QAEXABV?$Vector@M$02@@@Z
       7294 1C7D 0073C400 ?SetOnlyIntegerMode@CUIEditBox@@QAEXH@Z
       7295 1C7E 0030B6F0 ?SetOrtho@CDrawPort@@QBEXXZ
       7296 1C7F 00658E40 ?SetOrthoMatrix@@YAXAAY0BA@MMMMMMM@Z
       7297 1C80 000A7170 ?SetOverColor@CUIListBox@@QAEXK@Z
       7298 1C81 005634A0 ?SetOverDraw@CMdlEffect@@QAEXH@Z
       7299 1C82 00015190 ?SetOverlappedRendering@CDrawPort@@QAEXH@Z
       7300 1C83 0000F420 ?SetOwner@CEffect@@QAEXPAVCEntity@@@Z
       7301 1C84 0001D040 ?SetOwner@CSoundObject@@QAEXPAVCEntity@@@Z
       7302 1C85 0000A570 ?SetOwner@CTagManager@@QAEXPAVCEntity@@@Z
       7303 1C86 00010920 ?SetOwnerIndex@CMobData@@QAEXJ@Z
       7304 1C87 002234A0 ?SetPKeyPressed@CInput@@QAEHH@Z
       7305 1C88 0022A670 ?SetPWFocus@CUILoginNew@@QAEXXZ
       7306 1C89 00723190 ?SetPackageWearingModel@CUICashShopEX@@QAEXPAVCUIIcon@@J@Z
       7307 1C8A 003FBE30 ?SetPaperColor@CModelRenderPrefs@@QAEXK@Z
       7308 1C8B 00595580 ?SetParent@CEntity@@QAEXPAV1@@Z
       7309 1C8C 006412F0 ?SetParentBone@CModelInstance@@QAEXJ@Z
       7310 1C8D 00694560 ?SetParticleGroup@CParticleEffect@@QAEHV?$basic_string@DU?$char_traits@D@std@@V?$allocator@D@2@@std@@@Z
       7311 1C8E 00422040 ?SetParticlePrototype@CParticlesEmitter@@QAEXAAVCParticlePrototype@@@Z
       7312 1C8F 00422000 ?SetParticleType@CParticlesEmitter@@QAEXW4PARTICLE_RENDER_TYPE@@@Z
       7313 1C90 00158CA0 ?SetParty@CUICharacterInfo@@QAEXXZ
       7314 1C91 000F8950 ?SetPartyLeader@Party@@QAEXXZ
       7315 1C92 000B0730 ?SetPartyRequested@Party@@QAEXH@Z
       7316 1C93 000F89C0 ?SetPartyTarget@Party@@QAEXKKC@Z
       7317 1C94 000B0700 ?SetPartyType@Party@@QAEXC@Z
       7318 1C95 00019030 ?SetPassWord@CUIEditBox@@QAEXHH@Z
       7319 1C96 0022A440 ?SetPassword@LoginNew@@QAEXVCTString@@@Z
       7320 1C97 003ED750 ?SetPatchStretch@CEditModel@@QAEXJM@Z
       7321 1C98 00402120 ?SetPatchesMask@CModelObject@@QAEXK@Z
       7322 1C99 00A7F7D0 ?SetPetData@CPlayerEntity@@UAEXPAVCEntity@@JJ@Z
       7323 1C9A 00A68C90 ?SetPetDataToEntity@CPetInfo@@QAEXHHPAVCEntity@@H@Z
       7324 1C9B 0027A4D0 ?SetPetSkill@MyInfoSkill@@QAEXHHH@Z
       7325 1C9C 0027A7E0 ?SetPetSkillDelay@MyInfoSkill@@QAEXHH_N@Z
       7326 1C9D 0030A8E0 ?SetPhysicalRectInLogical@CDrawPort@@QAEXABV?$AABBox@J$01@@@Z
       7327 1C9E 0030A860 ?SetPhysicalRectInPhysical@CDrawPort@@QAEXABV?$AABBox@J$01@@@Z
       7328 1C9F 0030A960 ?SetPhysicalRectInRaster@CDrawPort@@QAEXABV?$AABBox@J$01@@@Z
       7329 1CA0 00595520 ?SetPhysicsFlags@CEntity@@QAEXK@Z
       7330 1CA1 003DEC90 ?SetPitch@CSoundObject@@QAEXMH@Z
       7331 1CA2 005941B0 ?SetPlacement@CEntity@@QAEXABVCPlacement3D@@@Z
       7332 1CA3 00A74480 ?SetPlacementFromNextPosition@CMovableEntity@@QAEXXZ
       7333 1CA4 00594A90 ?SetPlacement_special@CEntity@@UAEXABVCPlacement3D@@ABV?$Matrix@M$02$02@@K@Z
       7334 1CA5 00112CD0 ?SetPlayCount@CInvenData@@QAEXH@Z
       7335 1CA6 002AC730 ?SetPointColor@CUIText@@QAEXPADK@Z
       7336 1CA7 006BE760 ?SetPointGoal@CParticlesProcessPointGoal@@QAEXABV?$Vector@M$02@@@Z
       7337 1CA8 004444E0 ?SetPolygonsFillType@CWorldRenderPrefs@@QAEXW4FillType@1@@Z
       7338 1CA9 00444520 ?SetPolygonsInkColor@CWorldRenderPrefs@@QAEXK@Z
       7339 1CAA 007D5E10 ?SetPopupInfo@CUIImageBox@@QAEXVCTString@@HKH@Z
       7340 1CAB 002BE4D0 ?SetPopupVisible@CUICashShopEX@@QAEXH@Z
       7341 1CAC 002CF580 ?SetPortalIdx@CUIGuildWarPortal@@QAEXH@Z
       7342 1CAD 00282AE0 ?SetPos@CUIBase@@QAEXHH@Z
       7343 1CAE 005467D0 ?SetPos@cWeb@@QAEXHH@Z
       7344 1CAF 005633B0 ?SetPosTag@CMdlEffect@@QAEXAAV?$CRefCountPtr@VCTag@@@@@Z
       7345 1CB0 00232910 ?SetPosTag@CSkaEffect@@QAEXAAV?$CRefCountPtr@VCTag@@@@@Z
       7346 1CB1 00015680 ?SetPosX@CUIBase@@QAEXH@Z
       7347 1CB2 000156B0 ?SetPosY@CUIBase@@QAEXH@Z
       7348 1CB3 00A1A8B0 ?SetPos_t@CTStream@@QAEXJ@Z
       7349 1CB4 002303B0 ?SetPosition@CParticle@@QAEXABV?$Vector@M$02@@@Z
       7350 1CB5 00422BE0 ?SetPosition@CParticleGroup@@QAEXABV?$Vector@M$02@@@Z
       7351 1CB6 004224A0 ?SetPosition@CParticlesAbsorption@@QAEXABV?$Vector@M$02@@@Z
       7352 1CB7 00231930 ?SetPosition@CParticlesCommonProcess@@QAEXABV?$Vector@M$02@@@Z
       7353 1CB8 00421F50 ?SetPosition@CParticlesEmitter@@QAEXABV?$Vector@M$02@@@Z
       7354 1CB9 001E4CD0 ?SetPosition@cWeb@@QAEXJJJJ@Z
       7355 1CBA 002310C0 ?SetPositionRange@CParticlePrototype@@QAEXABV?$Vector@M$02@@0@Z
       7356 1CBB 00563370 ?SetPositionType@CMdlEffect@@QAEXW4EFFECT_OF_TAG_TYPE@@@Z
       7357 1CBC 0068CC10 ?SetPositionType@COrbitEffect@@QAEXW4EFFECT_OF_TAG_TYPE@@@Z
       7358 1CBD 006A25D0 ?SetPositionType@CShockWaveEffect@@QAEXW4EFFECT_OF_TAG_TYPE@@@Z
       7359 1CBE 00232880 ?SetPositionType@CSkaEffect@@QAEXW4EFFECT_OF_TAG_TYPE@@@Z
       7360 1CBF 006B1470 ?SetPositionType@CSplinePathEffect@@QAEXW4EFFECT_OF_TAG_TYPE@@@Z
       7361 1CC0 004BAD40 ?SetPositionType@CTerrainEffect@@QAEXW4EFFECT_OF_TAG_TYPE@@@Z
       7362 1CC1 000A9B80 ?SetPreCreate@CUIList@@QAEX_N@Z
       7363 1CC2 001042B0 ?SetPremiumBenefit@ExpressSystem@@QAEX_N@Z
       7364 1CC3 00A7FB10 ?SetProduct@CPlayerEntity@@UAEXJC@Z
       7365 1CC4 002D03F0 ?SetProgress@CLoadingImage@@QAEXM@Z
       7366 1CC5 000AEBF0 ?SetProgressPos@CUIProgressBar@@QAE?B_J_J@Z
       7367 1CC6 000AEB10 ?SetProgressRange@CUIProgressBar@@QAEX_J0@Z
       7368 1CC7 000AEDB0 ?SetProgressStep@CUIProgressBar@@QAE?B_J_J@Z
       7369 1CC8 0030B8B0 ?SetProjection@CDrawPort@@QAEXAAVCAnyProjection3D@@@Z
       7370 1CC9 0000F9E0 ?SetProjection@CEffectGroup@@QAEXAAVCAnyProjection3D@@@Z
       7371 1CCA 00720B00 ?SetPurchaseItemList@CUICashShopEX@@QAEXPAVCNetworkMessage@@@Z
       7372 1CCB 009E99E0 ?SetPutTextCallback@@YAXP6AXVCTString@@@Z@Z
       7373 1CCC 000182A0 ?SetPvpMode@CNetworkLibrary@@QAEXXZ
       7374 1CCD 002233B0 ?SetQKeyPressed@CInput@@QAEHH@Z
       7375 1CCE 00013330 ?SetQuestAllow@CQuestSystem@@QAEXJW4eQuestAllowType@1@@Z
       7376 1CCF 00121290 ?SetQuestRemainTime@Quest@@QAEXHH@Z
       7377 1CD0 0001DB20 ?SetQuickSlotWearType@CUIIcon@@QAEXH@Z
       7378 1CD1 00720D70 ?SetRClickMenu@CUICashShopEX@@QAEXJ@Z
       7379 1CD2 002234D0 ?SetRKeyPressed@CInput@@QAEHH@Z
       7380 1CD3 00223830 ?SetRMousePressed@CInput@@QAEHH@Z
       7381 1CD4 0001A310 ?SetRSBackground@CUIScrollBar@@QAEXPAVCUIRectSurface@@@Z
       7382 1CD5 0001A350 ?SetRSButton@CUIScrollBar@@QAEXPAVCUIRectSurface@@H@Z
       7383 1CD6 0001A3B0 ?SetRSThumb@CUIScrollBar@@QAEXPAVCUIRectSurface@@@Z
       7384 1CD7 00016CE0 ?SetRTSurface@CUIButton@@QAEXW4UIBtnState@@U_UIRect@@UUIRectUV@@@Z
