Microsoft (R) COFF/PE Dumper Version 10.00.30319.01
Copyright (C) Microsoft Corporation.  All rights reserved.


Dump of file EntitiesMP.dll

File Type: DLL

  Section contains the following exports for EntitiesMP.dll

    00000000 characteristics
    586E2B77 time date stamp Thu Jan 05 14:18:15 2017
        0.00 version
           1 ordinal base
        3772 number of functions
        3772 number of names

    ordinal hint RVA      name

          1    0 000380E0 ??0CBullet@@QAE@$$QAV0@@Z
          2    1 000381D0 ??0CBullet@@QAE@ABV0@@Z
          3    2 000382C0 ??0CBullet@@QAE@XZ
          4    3 000382F0 ??0CCharacterBase@@QAE@ABV0@@Z
          5    4 000926D0 ??0CCharacterBase@@QAE@XZ
          6    5 0006EA00 ??0CCompMessageID@@QAE@$$QAV0@@Z
          7    6 0006EA40 ??0CCompMessageID@@QAE@ABV0@@Z
          8    7 0006EA80 ??0CCompMessageID@@QAE@XZ
          9    8 0004D960 ??0CEmiter@@QAE@XZ
         10    9 0004D8A0 ??0CEmittedParticle@@QAE@XZ
         11    A 00038790 ??0CEnemyBase@@QAE@ABV0@@Z
         12    B 000B0420 ??0CEnemyBase@@QAE@XZ
         13    C 000CAA80 ??0CItem@@QAE@$$QAV0@@Z
         14    D 000CABB0 ??0CItem@@QAE@ABV0@@Z
         15    E 000CACE0 ??0CItem@@QAE@XZ
         16    F 0006CE80 ??0CNavigationMarker@@QAE@ABV0@@Z
         17   10 000E6590 ??0CNavigationMarker@@QAE@XZ
         18   11 0006CF90 ??0CPathNode@@QAE@ABV0@@Z
         19   12 0006CAF0 ??0CPathNode@@QAE@PAVCNavigationMarker@@@Z
         20   13 00038BB0 ??0CPetBase@@QAE@ABV0@@Z
         21   14 000EE7A0 ??0CPetBase@@QAE@XZ
         22   15 00038F30 ??0CPlayer@@QAE@$$QAV0@@Z
         23   16 00039E00 ??0CPlayer@@QAE@AAV0@@Z
         24   17 00101E50 ??0CPlayer@@QAE@XZ
         25   18 0012F110 ??0CPlayerAnimator@@QAE@$$QAV0@@Z
         26   19 0012F3C0 ??0CPlayerAnimator@@QAE@ABV0@@Z
         27   1A 0012F670 ??0CPlayerAnimator@@QAE@XZ
         28   1B 0012F6B0 ??0CPlayerView@@QAE@$$QAV0@@Z
         29   1C 0012F810 ??0CPlayerView@@QAE@ABV0@@Z
         30   1D 0012F970 ??0CPlayerView@@QAE@XZ
         31   1E 00050B20 ??0CPlayerWeapons@@QAE@$$QAV0@@Z
         32   1F 00051000 ??0CPlayerWeapons@@QAE@ABV0@@Z
         33   20 000514E0 ??0CPlayerWeapons@@QAE@XZ
         34   21 0003ACD0 ??0CProjectile@@QAE@$$QAV0@@Z
         35   22 0003AF10 ??0CProjectile@@QAE@ABV0@@Z
         36   23 0003B150 ??0CProjectile@@QAE@XZ
         37   24 0003B200 ??0CReminder@@QAE@$$QAV0@@Z
         38   25 0003B290 ??0CReminder@@QAE@ABV0@@Z
         39   26 0003B320 ??0CReminder@@QAE@XZ
         40   27 0003B350 ??0CSlaveBase@@QAE@ABV0@@Z
         41   28 00150F20 ??0CSlaveBase@@QAE@XZ
         42   29 0003B7C0 ??0CUnit@@QAE@$$QAV0@@Z
         43   2A 0003BB30 ??0CUnit@@QAE@ABV0@@Z
         44   2B 0003BEA0 ??0CUnit@@QAE@XZ
         45   2C 0003BF10 ??0CWatcher@@QAE@$$QAV0@@Z
         46   2D 0003BFC0 ??0CWatcher@@QAE@ABV0@@Z
         47   2E 0003C070 ??0CWatcher@@QAE@XZ
         48   2F 0003C0B0 ??0CWildPetBase@@QAE@$$QAV0@@Z
         49   30 0003C370 ??0CWildPetBase@@QAE@ABV0@@Z
         50   31 00171DF0 ??0CWildPetBase@@QAE@XZ
         51   32 0006EAA0 ??0EActivate@@QAE@$$QAV0@@Z
         52   33 0006EAC0 ??0EActivate@@QAE@ABV0@@Z
         53   34 000C49E0 ??0EActivate@@QAE@XZ
         54   35 00079B70 ??0EActivateBlend@@QAE@$$QAV0@@Z
         55   36 00079B90 ??0EActivateBlend@@QAE@ABV0@@Z
         56   37 00079520 ??0EActivateBlend@@QAE@XZ
         57   38 0003C630 ??0EAddBulletSpray@@QAE@$$QAV0@@Z
         58   39 0003C680 ??0EAddBulletSpray@@QAE@ABV0@@Z
         59   3A 000F7D50 ??0EAddBulletSpray@@QAE@XZ
         60   3B 0003C6D0 ??0EAddGoreSpray@@QAE@$$QAV0@@Z
         61   3C 0003C730 ??0EAddGoreSpray@@QAE@ABV0@@Z
         62   3D 000F7E50 ??0EAddGoreSpray@@QAE@XZ
         63   3E 0006EAE0 ??0EAddHostile@@QAE@$$QAV0@@Z
         64   3F 0006EB00 ??0EAddHostile@@QAE@ABV0@@Z
         65   40 000C5020 ??0EAddHostile@@QAE@XZ
         66   41 0012FA60 ??0EAnimatorInit@@QAE@$$QAV0@@Z
         67   42 0012FAD0 ??0EAnimatorInit@@QAE@ABV0@@Z
         68   43 00133670 ??0EAnimatorInit@@QAE@XZ
         69   44 0009AEC0 ??0EArchitectureDeath@@QAE@$$QAV0@@Z
         70   45 0009AEE0 ??0EArchitectureDeath@@QAE@ABV0@@Z
         71   46 000A2990 ??0EArchitectureDeath@@QAE@XZ
         72   47 0003C790 ??0EAttackDamage@@QAE@$$QAV0@@Z
         73   48 0003C7B0 ??0EAttackDamage@@QAE@ABV0@@Z
         74   49 000A9FF0 ??0EAttackDamage@@QAE@XZ
         75   4A 0003C7D0 ??0EAutoAction@@QAE@$$QAV0@@Z
         76   4B 0003C840 ??0EAutoAction@@QAE@ABV0@@Z
         77   4C 000F7840 ??0EAutoAction@@QAE@XZ
         78   4D 0003C8B0 ??0EAutoLogin@@QAE@$$QAV0@@Z
         79   4E 0003C8D0 ??0EAutoLogin@@QAE@ABV0@@Z
         80   4F 000F7540 ??0EAutoLogin@@QAE@XZ
         81   50 0003C8F0 ??0EBlowUp@@QAE@$$QAV0@@Z
         82   51 0003C930 ??0EBlowUp@@QAE@ABV0@@Z
         83   52 000AFF30 ??0EBlowUp@@QAE@XZ
         84   53 000515E0 ??0EBoringWeapon@@QAE@$$QAV0@@Z
         85   54 00051600 ??0EBoringWeapon@@QAE@ABV0@@Z
         86   55 00139B50 ??0EBoringWeapon@@QAE@XZ
         87   56 00078B10 ??0EBrushDeath@@QAE@$$QAV0@@Z
         88   57 00078B80 ??0EBrushDeath@@QAE@ABV0@@Z
         89   58 000DFBE0 ??0EBrushDeath@@QAE@XZ
         90   59 00078BF0 ??0EBrushDestroyed@@QAE@$$QAV0@@Z
         91   5A 00078C10 ??0EBrushDestroyed@@QAE@ABV0@@Z
         92   5B 000DFA60 ??0EBrushDestroyed@@QAE@XZ
         93   5C 0003C970 ??0EBulletInit@@QAE@$$QAV0@@Z
         94   5D 0003C9E0 ??0EBulletInit@@QAE@ABV0@@Z
         95   5E 0007AC20 ??0EBulletInit@@QAE@XZ
         96   5F 0003CA50 ??0ECameraStart@@QAE@$$QAV0@@Z
         97   60 0003CAC0 ??0ECameraStart@@QAE@ABV0@@Z
         98   61 000F7280 ??0ECameraStart@@QAE@XZ
         99   62 0003CB30 ??0ECameraStop@@QAE@$$QAV0@@Z
        100   63 0003CBA0 ??0ECameraStop@@QAE@ABV0@@Z
        101   64 000F73A0 ??0ECameraStop@@QAE@XZ
        102   65 0003CC10 ??0EChaAttackDamage@@QAE@$$QAV0@@Z
        103   66 0003CC30 ??0EChaAttackDamage@@QAE@ABV0@@Z
        104   67 000816B0 ??0EChaAttackDamage@@QAE@XZ
        105   68 0003CC50 ??0EChaSkillDamage@@QAE@$$QAV0@@Z
        106   69 0003CC70 ??0EChaSkillDamage@@QAE@ABV0@@Z
        107   6A 00081730 ??0EChaSkillDamage@@QAE@XZ
        108   6B 0003CC90 ??0EChangeAnim@@QAE@$$QAV0@@Z
        109   6C 0003CD40 ??0EChangeAnim@@QAE@ABV0@@Z
        110   6D 00072E30 ??0EChangeAnim@@QAE@XZ
        111   6E 000C75E0 ??0EChangeGravity@@QAE@$$QAV0@@Z
        112   6F 000C7650 ??0EChangeGravity@@QAE@ABV0@@Z
        113   70 000C79F0 ??0EChangeGravity@@QAE@XZ
        114   71 0003CDF0 ??0EChangeMusic@@QAE@$$QAV0@@Z
        115   72 0003CE70 ??0EChangeMusic@@QAE@ABV0@@Z
        116   73 000E47C0 ??0EChangeMusic@@QAE@XZ
        117   74 0003CEF0 ??0ECharBaseDamage@@QAE@$$QAV0@@Z
        118   75 0003CF90 ??0ECharBaseDamage@@QAE@ABV0@@Z
        119   76 00092080 ??0ECharBaseDamage@@QAE@XZ
        120   77 0003D030 ??0ECharBaseDeath@@QAE@$$QAV0@@Z
        121   78 0003D0A0 ??0ECharBaseDeath@@QAE@ABV0@@Z
        122   79 00091F60 ??0ECharBaseDeath@@QAE@XZ
        123   7A 0003D110 ??0ECharBlowUp@@QAE@$$QAV0@@Z
        124   7B 0003D150 ??0ECharBlowUp@@QAE@ABV0@@Z
        125   7C 000921B0 ??0ECharBlowUp@@QAE@XZ
        126   7D 0003D190 ??0ECharForceWound@@QAE@$$QAV0@@Z
        127   7E 0003D1B0 ??0ECharForceWound@@QAE@ABV0@@Z
        128   7F 00091EE0 ??0ECharForceWound@@QAE@XZ
        129   80 0003D1D0 ??0ECharReconsiderBehavior@@QAE@$$QAV0@@Z
        130   81 0003D1F0 ??0ECharReconsiderBehavior@@QAE@ABV0@@Z
        131   82 00091E60 ??0ECharReconsiderBehavior@@QAE@XZ
        132   83 0009E070 ??0ECopierTrigger@@QAE@$$QAV0@@Z
        133   84 0009E0A0 ??0ECopierTrigger@@QAE@ABV0@@Z
        134   85 0009D2B0 ??0ECopierTrigger@@QAE@XZ
        135   86 0006EB20 ??0ECredits@@QAE@$$QAV0@@Z
        136   87 0006EB90 ??0ECredits@@QAE@ABV0@@Z
        137   88 000C5740 ??0ECredits@@QAE@XZ
        138   89 0006EC00 ??0EDeactivate@@QAE@$$QAV0@@Z
        139   8A 0006EC20 ??0EDeactivate@@QAE@ABV0@@Z
        140   8B 000C4A50 ??0EDeactivate@@QAE@XZ
        141   8C 00079BB0 ??0EDeactivateBlend@@QAE@$$QAV0@@Z
        142   8D 00079BD0 ??0EDeactivateBlend@@QAE@ABV0@@Z
        143   8E 000795A0 ??0EDeactivateBlend@@QAE@XZ
        144   8F 0003D210 ??0EDisconnected@@QAE@$$QAV0@@Z
        145   90 0003D230 ??0EDisconnected@@QAE@ABV0@@Z
        146   91 000F77C0 ??0EDisconnected@@QAE@XZ
        147   92 0006EC40 ??0EDoorControll@@QAE@$$QAV0@@Z
        148   93 0006EC70 ??0EDoorControll@@QAE@ABV0@@Z
        149   94 000C5090 ??0EDoorControll@@QAE@XZ
        150   95 0006ECA0 ??0EEnd@@QAE@$$QAV0@@Z
        151   96 0006ECC0 ??0EEnd@@QAE@ABV0@@Z
        152   97 000C4BA0 ??0EEnd@@QAE@XZ
        153   98 0003D250 ??0EEnemyBaseDamage@@QAE@$$QAV0@@Z
        154   99 0003D2F0 ??0EEnemyBaseDamage@@QAE@ABV0@@Z
        155   9A 000AFE00 ??0EEnemyBaseDamage@@QAE@XZ
        156   9B 0003D390 ??0EEnemyBaseDeath@@QAE@$$QAV0@@Z
        157   9C 0003D400 ??0EEnemyBaseDeath@@QAE@ABV0@@Z
        158   9D 000AFCE0 ??0EEnemyBaseDeath@@QAE@XZ
        159   9E 0006ECE0 ??0EEnvironmentStart@@QAE@$$QAV0@@Z
        160   9F 0006ED00 ??0EEnvironmentStart@@QAE@ABV0@@Z
        161   A0 000C4AC0 ??0EEnvironmentStart@@QAE@XZ
        162   A1 0006ED20 ??0EEnvironmentStop@@QAE@$$QAV0@@Z
        163   A2 0006ED40 ??0EEnvironmentStop@@QAE@ABV0@@Z
        164   A3 000C4B30 ??0EEnvironmentStop@@QAE@XZ
        165   A4 0003D470 ??0EExplode@@QAE@$$QAV0@@Z
        166   A5 0003D4A0 ??0EExplode@@QAE@ABV0@@Z
        167   A6 00142E00 ??0EExplode@@QAE@XZ
        168   A7 00051620 ??0EFireWeapon@@QAE@$$QAV0@@Z
        169   A8 00051640 ??0EFireWeapon@@QAE@ABV0@@Z
        170   A9 00139BD0 ??0EFireWeapon@@QAE@XZ
        171   AA 0003D4D0 ??0EFlame@@QAE@$$QAV0@@Z
        172   AB 0003D550 ??0EFlame@@QAE@ABV0@@Z
        173   AC 000C2FD0 ??0EFlame@@QAE@XZ
        174   AD 0012FB40 ??0EFlipTheSwitch@@QAE@$$QAV0@@Z
        175   AE 0012FB70 ??0EFlipTheSwitch@@QAE@ABV0@@Z
        176   AF 0015E250 ??0EFlipTheSwitch@@QAE@XZ
        177   B0 0003D5D0 ??0EForceWound@@QAE@$$QAV0@@Z
        178   B1 0003D5F0 ??0EForceWound@@QAE@ABV0@@Z
        179   B2 000AFC60 ??0EForceWound@@QAE@XZ
        180   B3 00078C30 ??0EHit@@QAE@$$QAV0@@Z
        181   B4 00078C50 ??0EHit@@QAE@ABV0@@Z
        182   B5 000DF9E0 ??0EHit@@QAE@XZ
        183   B6 0006ED60 ??0EHitBySpaceShipBeam@@QAE@$$QAV0@@Z
        184   B7 0006ED80 ??0EHitBySpaceShipBeam@@QAE@ABV0@@Z
        185   B8 000C5990 ??0EHitBySpaceShipBeam@@QAE@XZ
        186   B9 0006EDA0 ??0EHudPicFX@@QAE@$$QAV0@@Z
        187   BA 0006EE10 ??0EHudPicFX@@QAE@ABV0@@Z
        188   BB 000C5610 ??0EHudPicFX@@QAE@XZ
        189   BC 0006EE80 ??0EKilledEnemy@@QAE@$$QAV0@@Z
        190   BD 0006EF00 ??0EKilledEnemy@@QAE@ABV0@@Z
        191   BE 000C5150 ??0EKilledEnemy@@QAE@XZ
        192   BF 0003D610 ??0ELaunchProjectile@@QAE@$$QAV0@@Z
        193   C0 0003D690 ??0ELaunchProjectile@@QAE@ABV0@@Z
        194   C1 00142CB0 ??0ELaunchProjectile@@QAE@XZ
        195   C2 000CAD70 ??0EMarkPicked@@QAE@$$QAV0@@Z
        196   C3 000CADE0 ??0EMarkPicked@@QAE@ABV0@@Z
        197   C4 000C95E0 ??0EMarkPicked@@QAE@XZ
        198   C5 0003D710 ??0EModel2Activate@@QAE@$$QAV0@@Z
        199   C6 0003D730 ??0EModel2Activate@@QAE@ABV0@@Z
        200   C7 000D9800 ??0EModel2Activate@@QAE@XZ
        201   C8 0003D750 ??0EModel2Deactivate@@QAE@$$QAV0@@Z
        202   C9 0003D770 ??0EModel2Deactivate@@QAE@ABV0@@Z
        203   CA 000D9880 ??0EModel2Deactivate@@QAE@XZ
        204   CB 0003D790 ??0EModel3Action@@QAE@$$QAV0@@Z
        205   CC 0003D7B0 ??0EModel3Action@@QAE@ABV0@@Z
        206   CD 000DC400 ??0EModel3Action@@QAE@XZ
        207   CE 0003D7D0 ??0EModel3Activate@@QAE@$$QAV0@@Z
        208   CF 0003D7F0 ??0EModel3Activate@@QAE@ABV0@@Z
        209   D0 000DC300 ??0EModel3Activate@@QAE@XZ
        210   D1 0003D810 ??0EModel3Deactivate@@QAE@$$QAV0@@Z
        211   D2 0003D830 ??0EModel3Deactivate@@QAE@ABV0@@Z
        212   D3 000DC380 ??0EModel3Deactivate@@QAE@XZ
        213   D4 0003D850 ??0EModelDeath@@QAE@$$QAV0@@Z
        214   D5 0003D870 ??0EModelDeath@@QAE@ABV0@@Z
        215   D6 000D6CD0 ??0EModelDeath@@QAE@XZ
        216   D7 000E4590 ??0EMusicChangerTrigger@@QAE@$$QAV0@@Z
        217   D8 000E45B0 ??0EMusicChangerTrigger@@QAE@ABV0@@Z
        218   D9 000E3E40 ??0EMusicChangerTrigger@@QAE@XZ
        219   DA 0003D890 ??0ENetChangeMusic@@QAE@$$QAV0@@Z
        220   DB 0003D8D0 ??0ENetChangeMusic@@QAE@ABV0@@Z
        221   DC 000E4910 ??0ENetChangeMusic@@QAE@XZ
        222   DD 00051660 ??0ENetFireWeapon@@QAE@$$QAV0@@Z
        223   DE 00051680 ??0ENetFireWeapon@@QAE@ABV0@@Z
        224   DF 00139E90 ??0ENetFireWeapon@@QAE@XZ
        225   E0 000516A0 ??0ENetReleaseWeapon@@QAE@$$QAV0@@Z
        226   E1 000516C0 ??0ENetReleaseWeapon@@QAE@ABV0@@Z
        227   E2 00139F10 ??0ENetReleaseWeapon@@QAE@XZ
        228   E3 000516E0 ??0ENetReloadWeapon@@QAE@$$QAV0@@Z
        229   E4 00051700 ??0ENetReloadWeapon@@QAE@ABV0@@Z
        230   E5 00139F90 ??0ENetReloadWeapon@@QAE@XZ
        231   E6 00051720 ??0ENetSelectWeapon@@QAE@$$QAV0@@Z
        232   E7 00051750 ??0ENetSelectWeapon@@QAE@ABV0@@Z
        233   E8 00139DD0 ??0ENetSelectWeapon@@QAE@XZ
        234   E9 0003D910 ??0ENetSpawnEntity@@QAE@$$QAV0@@Z
        235   EA 0003D960 ??0ENetSpawnEntity@@QAE@ABV0@@Z
        236   EB 000B94C0 ??0ENetSpawnEntity@@QAE@XZ
        237   EC 000A7B70 ??0ENetTrigger@@QAE@$$QAV0@@Z
        238   ED 000A7B90 ??0ENetTrigger@@QAE@ABV0@@Z
        239   EE 000A6910 ??0ENetTrigger@@QAE@XZ
        240   EF 000E88E0 ??0EParticlesActivate@@QAE@$$QAV0@@Z
        241   F0 000E8900 ??0EParticlesActivate@@QAE@ABV0@@Z
        242   F1 000E7670 ??0EParticlesActivate@@QAE@XZ
        243   F2 000E8920 ??0EParticlesDeactivate@@QAE@$$QAV0@@Z
        244   F3 000E8940 ??0EParticlesDeactivate@@QAE@ABV0@@Z
        245   F4 000E76F0 ??0EParticlesDeactivate@@QAE@XZ
        246   F5 000EDD50 ??0EPetAttackDamage@@QAE@$$QAV0@@Z
        247   F6 000EDD70 ??0EPetAttackDamage@@QAE@ABV0@@Z
        248   F7 000E96B0 ??0EPetAttackDamage@@QAE@XZ
        249   F8 0003D9B0 ??0EPetBaseBlowUp@@QAE@$$QAV0@@Z
        250   F9 0003D9F0 ??0EPetBaseBlowUp@@QAE@ABV0@@Z
        251   FA 000EE360 ??0EPetBaseBlowUp@@QAE@XZ
        252   FB 0003DA30 ??0EPetBaseDamage@@QAE@$$QAV0@@Z
        253   FC 0003DAD0 ??0EPetBaseDamage@@QAE@ABV0@@Z
        254   FD 000EE230 ??0EPetBaseDamage@@QAE@XZ
        255   FE 0003DB70 ??0EPetBaseDeath@@QAE@$$QAV0@@Z
        256   FF 0003DBE0 ??0EPetBaseDeath@@QAE@ABV0@@Z
        257  100 000EE110 ??0EPetBaseDeath@@QAE@XZ
        258  101 0003DC50 ??0EPetBaseForceWound@@QAE@$$QAV0@@Z
        259  102 0003DC70 ??0EPetBaseForceWound@@QAE@ABV0@@Z
        260  103 000EE090 ??0EPetBaseForceWound@@QAE@XZ
        261  104 0003DC90 ??0EPetBaseReconsiderBehavior@@QAE@$$QAV0@@Z
        262  105 0003DCB0 ??0EPetBaseReconsiderBehavior@@QAE@ABV0@@Z
        263  106 000EE010 ??0EPetBaseReconsiderBehavior@@QAE@XZ
        264  107 0003DCD0 ??0EPlaySoundOnce@@QAE@$$QAV0@@Z
        265  108 0003DCF0 ??0EPlaySoundOnce@@QAE@ABV0@@Z
        266  109 00159280 ??0EPlaySoundOnce@@QAE@XZ
        267  10A 0003DD10 ??0EPlayerDeath@@QAE@$$QAV0@@Z
        268  10B 0003DDA0 ??0EPlayerDeath@@QAE@ABV0@@Z
        269  10C 000F7AB0 ??0EPlayerDeath@@QAE@XZ
        270  10D 0003DE30 ??0EPlayerKilledEnemy@@QAE@$$QAV0@@Z
        271  10E 0003DEB0 ??0EPlayerKilledEnemy@@QAE@ABV0@@Z
        272  10F 000F7960 ??0EPlayerKilledEnemy@@QAE@XZ
        273  110 0003DF30 ??0EPlayerRebirth@@QAE@$$QAV0@@Z
        274  111 0003DF60 ??0EPlayerRebirth@@QAE@ABV0@@Z
        275  112 000F7700 ??0EPlayerRebirth@@QAE@XZ
        276  113 0003DF90 ??0EPlayerStats@@QAE@$$QAV0@@Z
        277  114 0003DFD0 ??0EPlayerStats@@QAE@ABV0@@Z
        278  115 000F7C60 ??0EPlayerStats@@QAE@XZ
        279  116 0003E010 ??0ERangeModelDestruction@@QAE@$$QAV0@@Z
        280  117 0003E030 ??0ERangeModelDestruction@@QAE@ABV0@@Z
        281  118 000D6C50 ??0ERangeModelDestruction@@QAE@XZ
        282  119 0003E050 ??0ERebirth@@QAE@$$QAV0@@Z
        283  11A 0003E070 ??0ERebirth@@QAE@ABV0@@Z
        284  11B 000F7680 ??0ERebirth@@QAE@XZ
        285  11C 000CAE50 ??0EReceiveItem@@QAE@$$QAV0@@Z
        286  11D 000CAE70 ??0EReceiveItem@@QAE@ABV0@@Z
        287  11E 000C9560 ??0EReceiveItem@@QAE@XZ
        288  11F 0003E090 ??0EReconsiderBehavior@@QAE@$$QAV0@@Z
        289  120 0003E0B0 ??0EReconsiderBehavior@@QAE@ABV0@@Z
        290  121 000AFBE0 ??0EReconsiderBehavior@@QAE@XZ
        291  122 00051780 ??0EReleaseWeapon@@QAE@$$QAV0@@Z
        292  123 000517A0 ??0EReleaseWeapon@@QAE@ABV0@@Z
        293  124 00139C50 ??0EReleaseWeapon@@QAE@XZ
        294  125 000517C0 ??0EReloadWeapon@@QAE@$$QAV0@@Z
        295  126 000517E0 ??0EReloadWeapon@@QAE@ABV0@@Z
        296  127 00139CD0 ??0EReloadWeapon@@QAE@XZ
        297  128 0006EF80 ??0EReminder@@QAE@$$QAV0@@Z
        298  129 0006EFB0 ??0EReminder@@QAE@ABV0@@Z
        299  12A 000C4DA0 ??0EReminder@@QAE@XZ
        300  12B 0003E0D0 ??0EReminderInit@@QAE@$$QAV0@@Z
        301  12C 0003E140 ??0EReminderInit@@QAE@ABV0@@Z
        302  12D 00147B00 ??0EReminderInit@@QAE@XZ
        303  12E 0006EFE0 ??0EScroll@@QAE@$$QAV0@@Z
        304  12F 0006F050 ??0EScroll@@QAE@ABV0@@Z
        305  130 000C53B0 ??0EScroll@@QAE@XZ
        306  131 00051800 ??0ESelectWeapon@@QAE@$$QAV0@@Z
        307  132 00051830 ??0ESelectWeapon@@QAE@ABV0@@Z
        308  133 00139A90 ??0ESelectWeapon@@QAE@XZ
        309  134 000CAE90 ??0ESetType@@QAE@$$QAV0@@Z
        310  135 000CAEC0 ??0ESetType@@QAE@ABV0@@Z
        311  136 000C9700 ??0ESetType@@QAE@XZ
        312  137 0003E1B0 ??0ESetViewer@@QAE@$$QAV0@@Z
        313  138 0003E1D0 ??0ESetViewer@@QAE@ABV0@@Z
        314  139 00074800 ??0ESetViewer@@QAE@XZ
        315  13A 0003E1F0 ??0EShowConsole@@QAE@$$QAV0@@Z
        316  13B 0003E210 ??0EShowConsole@@QAE@ABV0@@Z
        317  13C 000F7BE0 ??0EShowConsole@@QAE@XZ
        318  13D 0012FBA0 ??0ESlaveAttackDamage@@QAE@$$QAV0@@Z
        319  13E 0012FBC0 ??0ESlaveAttackDamage@@QAE@ABV0@@Z
        320  13F 0014A660 ??0ESlaveAttackDamage@@QAE@XZ
        321  140 0003E230 ??0ESlaveBaseBlowUp@@QAE@$$QAV0@@Z
        322  141 0003E270 ??0ESlaveBaseBlowUp@@QAE@ABV0@@Z
        323  142 00150AD0 ??0ESlaveBaseBlowUp@@QAE@XZ
        324  143 0003E2B0 ??0ESlaveBaseDamage@@QAE@$$QAV0@@Z
        325  144 0003E350 ??0ESlaveBaseDamage@@QAE@ABV0@@Z
        326  145 001509A0 ??0ESlaveBaseDamage@@QAE@XZ
        327  146 0003E3F0 ??0ESlaveBaseDeath@@QAE@$$QAV0@@Z
        328  147 0003E460 ??0ESlaveBaseDeath@@QAE@ABV0@@Z
        329  148 00150880 ??0ESlaveBaseDeath@@QAE@XZ
        330  149 0003E4D0 ??0ESlaveBaseForceWound@@QAE@$$QAV0@@Z
        331  14A 0003E4F0 ??0ESlaveBaseForceWound@@QAE@ABV0@@Z
        332  14B 00150800 ??0ESlaveBaseForceWound@@QAE@XZ
        333  14C 0003E510 ??0ESlaveBaseReconsiderBehavior@@QAE@$$QAV0@@Z
        334  14D 0003E530 ??0ESlaveBaseReconsiderBehavior@@QAE@ABV0@@Z
        335  14E 00150700 ??0ESlaveBaseReconsiderBehavior@@QAE@XZ
        336  14F 0003E550 ??0ESlaveFoundNewEnemy@@QAE@$$QAV0@@Z
        337  150 0003E570 ??0ESlaveFoundNewEnemy@@QAE@ABV0@@Z
        338  151 00150780 ??0ESlaveFoundNewEnemy@@QAE@XZ
        339  152 0003E590 ??0ESlaveKilledEnemy@@QAE@$$QAV0@@Z
        340  153 0003E5B0 ??0ESlaveKilledEnemy@@QAE@ABV0@@Z
        341  154 000F74C0 ??0ESlaveKilledEnemy@@QAE@XZ
        342  155 0006F0C0 ??0ESound@@QAE@$$QAV0@@Z
        343  156 0006F130 ??0ESound@@QAE@ABV0@@Z
        344  157 000C5290 ??0ESound@@QAE@XZ
        345  158 0003E5D0 ??0ESpawnDebris@@QAE@$$QAV0@@Z
        346  159 0003E6C0 ??0ESpawnDebris@@QAE@ABV0@@Z
        347  15A 0009F590 ??0ESpawnDebris@@QAE@XZ
        348  15B 0003E7B0 ??0ESpawnDebrisSka@@QAE@$$QAV0@@Z
        349  15C 0003E8A0 ??0ESpawnDebrisSka@@QAE@ABV0@@Z
        350  15D 000A0BB0 ??0ESpawnDebrisSka@@QAE@XZ
        351  15E 0003E990 ??0ESpawnEffect@@QAE@$$QAV0@@Z
        352  15F 0003E9F0 ??0ESpawnEffect@@QAE@ABV0@@Z
        353  160 00074DE0 ??0ESpawnEffect@@QAE@XZ
        354  161 000A4150 ??0ESpawnEffector@@QAE@$$QAV0@@Z
        355  162 000A4200 ??0ESpawnEffector@@QAE@ABV0@@Z
        356  163 000A7E00 ??0ESpawnEffector@@QAE@XZ
        357  164 0003EA50 ??0ESpawnFlame@@QAE@$$QAV0@@Z
        358  165 0003EAE0 ??0ESpawnFlame@@QAE@ABV0@@Z
        359  166 00142EC0 ??0ESpawnFlame@@QAE@XZ
        360  167 0003EB70 ??0ESpawnSpray@@QAE@$$QAV0@@Z
        361  168 0003EC10 ??0ESpawnSpray@@QAE@ABV0@@Z
        362  169 00079F30 ??0ESpawnSpray@@QAE@XZ
        363  16A 0006F1A0 ??0EStart@@QAE@$$QAV0@@Z
        364  16B 0006F210 ??0EStart@@QAE@ABV0@@Z
        365  16C 000C48C0 ??0EStart@@QAE@XZ
        366  16D 0006F280 ??0EStartAttack@@QAE@$$QAV0@@Z
        367  16E 0006F2A0 ??0EStartAttack@@QAE@ABV0@@Z
        368  16F 000C4E60 ??0EStartAttack@@QAE@XZ
        369  170 00078C70 ??0EStartSounds@@QAE@$$QAV0@@Z
        370  171 00078C90 ??0EStartSounds@@QAE@ABV0@@Z
        371  172 000DFAE0 ??0EStartSounds@@QAE@XZ
        372  173 0006F2C0 ??0EStop@@QAE@$$QAV0@@Z
        373  174 0006F2E0 ??0EStop@@QAE@ABV0@@Z
        374  175 000C4850 ??0EStop@@QAE@XZ
        375  176 0006F300 ??0EStopAttack@@QAE@$$QAV0@@Z
        376  177 0006F320 ??0EStopAttack@@QAE@ABV0@@Z
        377  178 000C4ED0 ??0EStopAttack@@QAE@XZ
        378  179 0006F340 ??0EStopBlindness@@QAE@$$QAV0@@Z
        379  17A 0006F360 ??0EStopBlindness@@QAE@ABV0@@Z
        380  17B 000C4F40 ??0EStopBlindness@@QAE@XZ
        381  17C 0006F380 ??0EStopDeafness@@QAE@$$QAV0@@Z
        382  17D 0006F3A0 ??0EStopDeafness@@QAE@ABV0@@Z
        383  17E 000C4FB0 ??0EStopDeafness@@QAE@XZ
        384  17F 0003ECB0 ??0EStopFlaming@@QAE@$$QAV0@@Z
        385  180 0003ECE0 ??0EStopFlaming@@QAE@ABV0@@Z
        386  181 000C3140 ??0EStopFlaming@@QAE@XZ
        387  182 0003ED10 ??0EStopLerp@@QAE@$$QAV0@@Z
        388  183 0003ED40 ??0EStopLerp@@QAE@ABV0@@Z
        389  184 000F75C0 ??0EStopLerp@@QAE@XZ
        390  185 00078CB0 ??0EStopSounds@@QAE@$$QAV0@@Z
        391  186 00078CD0 ??0EStopSounds@@QAE@ABV0@@Z
        392  187 000DFB60 ??0EStopSounds@@QAE@XZ
        393  188 0015B9A0 ??0EStormEnvironmentStart@@QAE@$$QAV0@@Z
        394  189 0015B9C0 ??0EStormEnvironmentStart@@QAE@ABV0@@Z
        395  18A 00159F40 ??0EStormEnvironmentStart@@QAE@XZ
        396  18B 0015B9E0 ??0EStormStart@@QAE@$$QAV0@@Z
        397  18C 0015BA00 ??0EStormStart@@QAE@ABV0@@Z
        398  18D 00159FC0 ??0EStormStart@@QAE@XZ
        399  18E 0015BA20 ??0EStormStop@@QAE@$$QAV0@@Z
        400  18F 0015BA40 ??0EStormStop@@QAE@ABV0@@Z
        401  190 0015A040 ??0EStormStop@@QAE@XZ
        402  191 00160C10 ??0ETeleportActivate@@QAE@$$QAV0@@Z
        403  192 00160C30 ??0ETeleportActivate@@QAE@ABV0@@Z
        404  193 0015FEC0 ??0ETeleportActivate@@QAE@XZ
        405  194 00160C50 ??0ETeleportDeactivate@@QAE@$$QAV0@@Z
        406  195 00160C70 ??0ETeleportDeactivate@@QAE@ABV0@@Z
        407  196 0015FF40 ??0ETeleportDeactivate@@QAE@XZ
        408  197 0006F3C0 ??0ETeleportMovingBrush@@QAE@$$QAV0@@Z
        409  198 0006F3E0 ??0ETeleportMovingBrush@@QAE@ABV0@@Z
        410  199 000C4D30 ??0ETeleportMovingBrush@@QAE@XZ
        411  19A 0006F400 ??0ETextFX@@QAE@$$QAV0@@Z
        412  19B 0006F470 ??0ETextFX@@QAE@ABV0@@Z
        413  19C 000C54E0 ??0ETextFX@@QAE@XZ
        414  19D 0006F4E0 ??0ETrigger@@QAE@$$QAV0@@Z
        415  19E 0006F550 ??0ETrigger@@QAE@ABV0@@Z
        416  19F 000C4C10 ??0ETrigger@@QAE@XZ
        417  1A0 000A42B0 ??0ETriggerEffector@@QAE@$$QAV0@@Z
        418  1A1 000A42D0 ??0ETriggerEffector@@QAE@ABV0@@Z
        419  1A2 000A7F70 ??0ETriggerEffector@@QAE@XZ
        420  1A3 000CE630 ??0ETriggerLightning@@QAE@$$QAV0@@Z
        421  1A4 000CE650 ??0ETriggerLightning@@QAE@ABV0@@Z
        422  1A5 000CD380 ??0ETriggerLightning@@QAE@XZ
        423  1A6 0012FBE0 ??0ETriggerPlayerMarker@@QAE@$$QAV0@@Z
        424  1A7 0012FC50 ??0ETriggerPlayerMarker@@QAE@ABV0@@Z
        425  1A8 00136970 ??0ETriggerPlayerMarker@@QAE@XZ
        426  1A9 0012FCC0 ??0EViewInit@@QAE@$$QAV0@@Z
        427  1AA 0012FD40 ??0EViewInit@@QAE@ABV0@@Z
        428  1AB 00137100 ??0EViewInit@@QAE@XZ
        429  1AC 0006F5C0 ??0EVoiceMessage@@QAE@$$QAV0@@Z
        430  1AD 0006F630 ??0EVoiceMessage@@QAE@ABV0@@Z
        431  1AE 000C5870 ??0EVoiceMessage@@QAE@XZ
        432  1AF 0003ED70 ??0EWatch@@QAE@$$QAV0@@Z
        433  1B0 0003EDE0 ??0EWatch@@QAE@ABV0@@Z
        434  1B1 001680B0 ??0EWatch@@QAE@XZ
        435  1B2 0003EE50 ??0EWatcherInit@@QAE@$$QAV0@@Z
        436  1B3 0003EEC0 ??0EWatcherInit@@QAE@ABV0@@Z
        437  1B4 00167F90 ??0EWatcherInit@@QAE@XZ
        438  1B5 00051860 ??0EWeaponChanged@@QAE@$$QAV0@@Z
        439  1B6 00051880 ??0EWeaponChanged@@QAE@ABV0@@Z
        440  1B7 00139D50 ??0EWeaponChanged@@QAE@XZ
        441  1B8 000518A0 ??0EWeaponEffectInit@@QAE@$$QAV0@@Z
        442  1B9 00051910 ??0EWeaponEffectInit@@QAE@ABV0@@Z
        443  1BA 00141AA0 ??0EWeaponEffectInit@@QAE@XZ
        444  1BB 00051980 ??0EWeaponsInit@@QAE@$$QAV0@@Z
        445  1BC 000519F0 ??0EWeaponsInit@@QAE@ABV0@@Z
        446  1BD 00139970 ??0EWeaponsInit@@QAE@XZ
        447  1BE 0006C660 ??0EWeatherStart@@QAE@$$QAV0@@Z
        448  1BF 0006C680 ??0EWeatherStart@@QAE@ABV0@@Z
        449  1C0 000C03B0 ??0EWeatherStart@@QAE@XZ
        450  1C1 0006C6A0 ??0EWeatherStop@@QAE@$$QAV0@@Z
        451  1C2 0006C6C0 ??0EWeatherStop@@QAE@ABV0@@Z
        452  1C3 000C0430 ??0EWeatherStop@@QAE@XZ
        453  1C4 0003EF30 ??0EWildPetAttackDamage@@QAE@$$QAV0@@Z
        454  1C5 0003EF50 ??0EWildPetAttackDamage@@QAE@ABV0@@Z
        455  1C6 0016ACF0 ??0EWildPetAttackDamage@@QAE@XZ
        456  1C7 0003EF70 ??0EWildPetBaseDamage@@QAE@$$QAV0@@Z
        457  1C8 0003F010 ??0EWildPetBaseDamage@@QAE@ABV0@@Z
        458  1C9 00171A20 ??0EWildPetBaseDamage@@QAE@XZ
        459  1CA 0003F0B0 ??0EWildPetBaseDeath@@QAE@$$QAV0@@Z
        460  1CB 0003F120 ??0EWildPetBaseDeath@@QAE@ABV0@@Z
        461  1CC 00171900 ??0EWildPetBaseDeath@@QAE@XZ
        462  1CD 0003F190 ??0EWildPetBaseReconsiderBehavior@@QAE@$$QAV0@@Z
        463  1CE 0003F1B0 ??0EWildPetBaseReconsiderBehavior@@QAE@ABV0@@Z
        464  1CF 00171880 ??0EWildPetBaseReconsiderBehavior@@QAE@XZ
        465  1D0 0006F6A0 ??0PlayerStats@@QAE@XZ
        466  1D1 0003F420 ??1CBullet@@UAE@XZ
        467  1D2 000927F0 ??1CCharacterBase@@UAE@XZ
        468  1D3 0006F6C0 ??1CCompMessageID@@QAE@XZ
        469  1D4 0006F6D0 ??1CEmiter@@QAE@XZ
        470  1D5 000B0530 ??1CEnemyBase@@UAE@XZ
        471  1D6 000CAEF0 ??1CItem@@UAE@XZ
        472  1D7 000E6630 ??1CNavigationMarker@@UAE@XZ
        473  1D8 0006CB70 ??1CPathNode@@QAE@XZ
        474  1D9 000EE8A0 ??1CPetBase@@UAE@XZ
        475  1DA 0003F4B0 ??1CPlayer@@UAE@XZ
        476  1DB 001300F0 ??1CPlayerAnimator@@UAE@XZ
        477  1DC 00130160 ??1CPlayerView@@UAE@XZ
        478  1DD 00051AB0 ??1CPlayerWeapons@@UAE@XZ
        479  1DE 0003F770 ??1CProjectile@@UAE@XZ
        480  1DF 0003F830 ??1CReminder@@UAE@XZ
        481  1E0 00151040 ??1CSlaveBase@@UAE@XZ
        482  1E1 0003F890 ??1CUnit@@UAE@XZ
        483  1E2 0003F8C0 ??1CWatcher@@UAE@XZ
        484  1E3 0003F930 ??1CWildPetBase@@UAE@XZ
        485  1E4 0003FA60 ??1EActivate@@UAE@XZ
        486  1E5 00079BF0 ??1EActivateBlend@@UAE@XZ
        487  1E6 0003FA70 ??1EAddBulletSpray@@UAE@XZ
        488  1E7 0003FA80 ??1EAddGoreSpray@@UAE@XZ
        489  1E8 0003FA90 ??1EAddHostile@@UAE@XZ
        490  1E9 001301E0 ??1EAnimatorInit@@UAE@XZ
        491  1EA 0009AF00 ??1EArchitectureDeath@@UAE@XZ
        492  1EB 0003FAA0 ??1EAttackDamage@@UAE@XZ
        493  1EC 0003FAB0 ??1EAutoAction@@UAE@XZ
        494  1ED 0003FAD0 ??1EAutoLogin@@UAE@XZ
        495  1EE 0003FAE0 ??1EBlowUp@@UAE@XZ
        496  1EF 00051BE0 ??1EBoringWeapon@@UAE@XZ
        497  1F0 00078CF0 ??1EBrushDeath@@UAE@XZ
        498  1F1 00078D10 ??1EBrushDestroyed@@UAE@XZ
        499  1F2 0003FAF0 ??1EBulletInit@@UAE@XZ
        500  1F3 0003FB10 ??1ECameraStart@@UAE@XZ
        501  1F4 0003FB60 ??1ECameraStop@@UAE@XZ
        502  1F5 0003FBB0 ??1EChaAttackDamage@@UAE@XZ
        503  1F6 0003FBC0 ??1EChaSkillDamage@@UAE@XZ
        504  1F7 0003FBD0 ??1EChangeAnim@@UAE@XZ
        505  1F8 000C76C0 ??1EChangeGravity@@UAE@XZ
        506  1F9 0003FBF0 ??1EChangeMusic@@UAE@XZ
        507  1FA 0003FC10 ??1ECharBaseDamage@@UAE@XZ
        508  1FB 0003FC30 ??1ECharBaseDeath@@UAE@XZ
        509  1FC 0003FC50 ??1ECharBlowUp@@UAE@XZ
        510  1FD 0003FC60 ??1ECharForceWound@@UAE@XZ
        511  1FE 0003FC70 ??1ECharReconsiderBehavior@@UAE@XZ
        512  1FF 0009E0D0 ??1ECopierTrigger@@UAE@XZ
        513  200 0006F700 ??1ECredits@@UAE@XZ
        514  201 0003FC80 ??1EDeactivate@@UAE@XZ
        515  202 00079C00 ??1EDeactivateBlend@@UAE@XZ
        516  203 0003FC90 ??1EDisconnected@@UAE@XZ
        517  204 0006F750 ??1EDoorControll@@UAE@XZ
        518  205 0006F760 ??1EEnd@@UAE@XZ
        519  206 0003FCA0 ??1EEnemyBaseDamage@@UAE@XZ
        520  207 0003FCC0 ??1EEnemyBaseDeath@@UAE@XZ
        521  208 0003FCE0 ??1EEnvironmentStart@@UAE@XZ
        522  209 0003FCF0 ??1EEnvironmentStop@@UAE@XZ
        523  20A 0003FD00 ??1EExplode@@UAE@XZ
        524  20B 00051BF0 ??1EFireWeapon@@UAE@XZ
        525  20C 0003FD10 ??1EFlame@@UAE@XZ
        526  20D 00130200 ??1EFlipTheSwitch@@UAE@XZ
        527  20E 0003FD30 ??1EForceWound@@UAE@XZ
        528  20F 00078D20 ??1EHit@@UAE@XZ
        529  210 0006F770 ??1EHitBySpaceShipBeam@@UAE@XZ
        530  211 0006F780 ??1EHudPicFX@@UAE@XZ
        531  212 0006F7D0 ??1EKilledEnemy@@UAE@XZ
        532  213 0003FD40 ??1ELaunchProjectile@@UAE@XZ
        533  214 000CAF70 ??1EMarkPicked@@UAE@XZ
        534  215 0003FD60 ??1EModel2Activate@@UAE@XZ
        535  216 0003FD70 ??1EModel2Deactivate@@UAE@XZ
        536  217 0003FD80 ??1EModel3Action@@UAE@XZ
        537  218 0003FD90 ??1EModel3Activate@@UAE@XZ
        538  219 0003FDA0 ??1EModel3Deactivate@@UAE@XZ
        539  21A 0003FDB0 ??1EModelDeath@@UAE@XZ
        540  21B 000E45D0 ??1EMusicChangerTrigger@@UAE@XZ
        541  21C 0003FDC0 ??1ENetChangeMusic@@UAE@XZ
        542  21D 00051C00 ??1ENetFireWeapon@@UAE@XZ
        543  21E 00051C10 ??1ENetReleaseWeapon@@UAE@XZ
        544  21F 00051C20 ??1ENetReloadWeapon@@UAE@XZ
        545  220 00051C30 ??1ENetSelectWeapon@@UAE@XZ
        546  221 0003FDD0 ??1ENetSpawnEntity@@UAE@XZ
        547  222 000A7C60 ??1ENetTrigger@@UAE@XZ
        548  223 000E8960 ??1EParticlesActivate@@UAE@XZ
        549  224 000E8970 ??1EParticlesDeactivate@@UAE@XZ
        550  225 000EDE70 ??1EPetAttackDamage@@UAE@XZ
        551  226 0003FDE0 ??1EPetBaseBlowUp@@UAE@XZ
        552  227 0003FDF0 ??1EPetBaseDamage@@UAE@XZ
        553  228 0003FE10 ??1EPetBaseDeath@@UAE@XZ
        554  229 0003FE30 ??1EPetBaseForceWound@@UAE@XZ
        555  22A 0003FE40 ??1EPetBaseReconsiderBehavior@@UAE@XZ
        556  22B 0003FE50 ??1EPlaySoundOnce@@UAE@XZ
        557  22C 0003FE60 ??1EPlayerDeath@@UAE@XZ
        558  22D 0003FE80 ??1EPlayerKilledEnemy@@UAE@XZ
        559  22E 0003FEA0 ??1EPlayerRebirth@@UAE@XZ
        560  22F 0003FEB0 ??1EPlayerStats@@UAE@XZ
        561  230 0003FEC0 ??1ERangeModelDestruction@@UAE@XZ
        562  231 0003FED0 ??1ERebirth@@UAE@XZ
        563  232 000CAF90 ??1EReceiveItem@@UAE@XZ
        564  233 0003FEE0 ??1EReconsiderBehavior@@UAE@XZ
        565  234 00051C40 ??1EReleaseWeapon@@UAE@XZ
        566  235 00051C50 ??1EReloadWeapon@@UAE@XZ
        567  236 0006F820 ??1EReminder@@UAE@XZ
        568  237 0003FEF0 ??1EReminderInit@@UAE@XZ
        569  238 0006F830 ??1EScroll@@UAE@XZ
        570  239 00051C60 ??1ESelectWeapon@@UAE@XZ
        571  23A 000CAFA0 ??1ESetType@@UAE@XZ
        572  23B 0003FF10 ??1ESetViewer@@UAE@XZ
        573  23C 0003FF20 ??1EShowConsole@@UAE@XZ
        574  23D 00130210 ??1ESlaveAttackDamage@@UAE@XZ
        575  23E 0003FF30 ??1ESlaveBaseBlowUp@@UAE@XZ
        576  23F 0003FF40 ??1ESlaveBaseDamage@@UAE@XZ
        577  240 0003FF60 ??1ESlaveBaseDeath@@UAE@XZ
        578  241 0003FF80 ??1ESlaveBaseForceWound@@UAE@XZ
        579  242 0003FF90 ??1ESlaveBaseReconsiderBehavior@@UAE@XZ
        580  243 0003FFA0 ??1ESlaveFoundNewEnemy@@UAE@XZ
        581  244 0003FFB0 ??1ESlaveKilledEnemy@@UAE@XZ
        582  245 0003FFC0 ??1ESound@@UAE@XZ
        583  246 00040010 ??1ESpawnDebris@@UAE@XZ
        584  247 00040060 ??1ESpawnDebrisSka@@UAE@XZ
        585  248 000400D0 ??1ESpawnEffect@@UAE@XZ
        586  249 000A42F0 ??1ESpawnEffector@@UAE@XZ
        587  24A 000400E0 ??1ESpawnFlame@@UAE@XZ
        588  24B 00040100 ??1ESpawnSpray@@UAE@XZ
        589  24C 00040120 ??1EStart@@UAE@XZ
        590  24D 00040170 ??1EStartAttack@@UAE@XZ
        591  24E 00078D30 ??1EStartSounds@@UAE@XZ
        592  24F 00040180 ??1EStop@@UAE@XZ
        593  250 00040190 ??1EStopAttack@@UAE@XZ
        594  251 000401A0 ??1EStopBlindness@@UAE@XZ
        595  252 000401B0 ??1EStopDeafness@@UAE@XZ
        596  253 000401C0 ??1EStopFlaming@@UAE@XZ
        597  254 000401D0 ??1EStopLerp@@UAE@XZ
        598  255 00078D40 ??1EStopSounds@@UAE@XZ
        599  256 0015BC40 ??1EStormEnvironmentStart@@UAE@XZ
        600  257 0015BC50 ??1EStormStart@@UAE@XZ
        601  258 0015BC60 ??1EStormStop@@UAE@XZ
        602  259 00160C90 ??1ETeleportActivate@@UAE@XZ
        603  25A 00160CA0 ??1ETeleportDeactivate@@UAE@XZ
        604  25B 000401E0 ??1ETeleportMovingBrush@@UAE@XZ
        605  25C 0006F880 ??1ETextFX@@UAE@XZ
        606  25D 000401F0 ??1ETrigger@@UAE@XZ
        607  25E 000A4310 ??1ETriggerEffector@@UAE@XZ
        608  25F 000CE700 ??1ETriggerLightning@@UAE@XZ
        609  260 00130220 ??1ETriggerPlayerMarker@@UAE@XZ
        610  261 00130240 ??1EViewInit@@UAE@XZ
        611  262 0006F8D0 ??1EVoiceMessage@@UAE@XZ
        612  263 00040240 ??1EWatch@@UAE@XZ
        613  264 00040260 ??1EWatcherInit@@UAE@XZ
        614  265 00051C70 ??1EWeaponChanged@@UAE@XZ
        615  266 00051C80 ??1EWeaponEffectInit@@UAE@XZ
        616  267 00051CD0 ??1EWeaponsInit@@UAE@XZ
        617  268 0006C6F0 ??1EWeatherStart@@UAE@XZ
        618  269 0006C700 ??1EWeatherStop@@UAE@XZ
        619  26A 00040280 ??1EWildPetAttackDamage@@UAE@XZ
        620  26B 00040290 ??1EWildPetBaseDamage@@UAE@XZ
        621  26C 000402B0 ??1EWildPetBaseDeath@@UAE@XZ
        622  26D 000402D0 ??1EWildPetBaseReconsiderBehavior@@UAE@XZ
        623  26E 00040440 ??4CBullet@@QAEAAV0@$$QAV0@@Z
        624  26F 00040510 ??4CBullet@@QAEAAV0@AAV0@@Z
        625  270 000405E0 ??4CCharacterBase@@QAEAAV0@AAV0@@Z
        626  271 0006F910 ??4CCompMessageID@@QAEAAV0@$$QAV0@@Z
        627  272 0006F940 ??4CCompMessageID@@QAEAAV0@ABV0@@Z
        628  273 0006F970 ??4CEmiter@@QAEAAV0@$$QAV0@@Z
        629  274 0006F9C0 ??4CEmiter@@QAEAAV0@ABV0@@Z
        630  275 0006FA10 ??4CEmittedParticle@@QAEAAV0@$$QAV0@@Z
        631  276 0006FA80 ??4CEmittedParticle@@QAEAAV0@ABV0@@Z
        632  277 00040AB0 ??4CEnemyBase@@QAEAAV0@AAV0@@Z
        633  278 000CAFB0 ??4CItem@@QAEAAV0@$$QAV0@@Z
        634  279 000CB0A0 ??4CItem@@QAEAAV0@AAV0@@Z
        635  27A 0006D010 ??4CNavigationMarker@@QAEAAV0@AAV0@@Z
        636  27B 0006D130 ??4CPathNode@@QAEAAV0@ABV0@@Z
        637  27C 00040F50 ??4CPetBase@@QAEAAV0@AAV0@@Z
        638  27D 00041300 ??4CPlayer@@QAEAAV0@$$QAV0@@Z
        639  27E 00042270 ??4CPlayer@@QAEAAV0@AAV0@@Z
        640  27F 00130260 ??4CPlayerAnimator@@QAEAAV0@$$QAV0@@Z
        641  280 001304F0 ??4CPlayerAnimator@@QAEAAV0@AAV0@@Z
        642  281 00130780 ??4CPlayerView@@QAEAAV0@$$QAV0@@Z
        643  282 001308C0 ??4CPlayerView@@QAEAAV0@AAV0@@Z
        644  283 00051CF0 ??4CPlayerWeapons@@QAEAAV0@$$QAV0@@Z
        645  284 00052210 ??4CPlayerWeapons@@QAEAAV0@AAV0@@Z
        646  285 000431E0 ??4CProjectile@@QAEAAV0@$$QAV0@@Z
        647  286 00043420 ??4CProjectile@@QAEAAV0@AAV0@@Z
        648  287 00043660 ??4CReminder@@QAEAAV0@$$QAV0@@Z
        649  288 000436D0 ??4CReminder@@QAEAAV0@AAV0@@Z
        650  289 00043740 ??4CSlaveBase@@QAEAAV0@AAV0@@Z
        651  28A 00043B00 ??4CUnit@@QAEAAV0@$$QAV0@@Z
        652  28B 00043E30 ??4CUnit@@QAEAAV0@AAV0@@Z
        653  28C 00044160 ??4CWatcher@@QAEAAV0@$$QAV0@@Z
        654  28D 00044200 ??4CWatcher@@QAEAAV0@AAV0@@Z
        655  28E 000442A0 ??4CWildPetBase@@QAEAAV0@$$QAV0@@Z
        656  28F 00044590 ??4CWildPetBase@@QAEAAV0@AAV0@@Z
        657  290 0006FAB0 ??4EActivate@@QAEAAV0@$$QAV0@@Z
        658  291 0006FAD0 ??4EActivate@@QAEAAV0@ABV0@@Z
        659  292 00079C10 ??4EActivateBlend@@QAEAAV0@$$QAV0@@Z
        660  293 00079C30 ??4EActivateBlend@@QAEAAV0@ABV0@@Z
        661  294 00044880 ??4EAddBulletSpray@@QAEAAV0@$$QAV0@@Z
        662  295 000448C0 ??4EAddBulletSpray@@QAEAAV0@ABV0@@Z
        663  296 00044900 ??4EAddGoreSpray@@QAEAAV0@$$QAV0@@Z
        664  297 00044950 ??4EAddGoreSpray@@QAEAAV0@ABV0@@Z
        665  298 0006FAF0 ??4EAddHostile@@QAEAAV0@$$QAV0@@Z
        666  299 0006FB10 ??4EAddHostile@@QAEAAV0@ABV0@@Z
        667  29A 00130A00 ??4EAnimatorInit@@QAEAAV0@$$QAV0@@Z
        668  29B 00130A30 ??4EAnimatorInit@@QAEAAV0@AAV0@@Z
        669  29C 0009AF10 ??4EArchitectureDeath@@QAEAAV0@$$QAV0@@Z
        670  29D 0009AF30 ??4EArchitectureDeath@@QAEAAV0@ABV0@@Z
        671  29E 000449A0 ??4EAttackDamage@@QAEAAV0@$$QAV0@@Z
        672  29F 000449C0 ??4EAttackDamage@@QAEAAV0@ABV0@@Z
        673  2A0 000449E0 ??4EAutoAction@@QAEAAV0@$$QAV0@@Z
        674  2A1 00044A10 ??4EAutoAction@@QAEAAV0@AAV0@@Z
        675  2A2 00044A40 ??4EAutoLogin@@QAEAAV0@$$QAV0@@Z
        676  2A3 00044A60 ??4EAutoLogin@@QAEAAV0@ABV0@@Z
        677  2A4 00044A80 ??4EBlowUp@@QAEAAV0@$$QAV0@@Z
        678  2A5 00044AC0 ??4EBlowUp@@QAEAAV0@ABV0@@Z
        679  2A6 00052730 ??4EBoringWeapon@@QAEAAV0@$$QAV0@@Z
        680  2A7 00052750 ??4EBoringWeapon@@QAEAAV0@ABV0@@Z
        681  2A8 00078D50 ??4EBrushDeath@@QAEAAV0@$$QAV0@@Z
        682  2A9 00078D80 ??4EBrushDeath@@QAEAAV0@AAV0@@Z
        683  2AA 00078DB0 ??4EBrushDestroyed@@QAEAAV0@$$QAV0@@Z
        684  2AB 00078DD0 ??4EBrushDestroyed@@QAEAAV0@ABV0@@Z
        685  2AC 00044B00 ??4EBulletInit@@QAEAAV0@$$QAV0@@Z
        686  2AD 00044B40 ??4EBulletInit@@QAEAAV0@AAV0@@Z
        687  2AE 00044B70 ??4ECameraStart@@QAEAAV0@$$QAV0@@Z
        688  2AF 00044BB0 ??4ECameraStart@@QAEAAV0@ABV0@@Z
        689  2B0 00044BF0 ??4ECameraStop@@QAEAAV0@$$QAV0@@Z
        690  2B1 00044C30 ??4ECameraStop@@QAEAAV0@ABV0@@Z
        691  2B2 00044C70 ??4EChaAttackDamage@@QAEAAV0@$$QAV0@@Z
        692  2B3 00044C90 ??4EChaAttackDamage@@QAEAAV0@ABV0@@Z
        693  2B4 00044CB0 ??4EChaSkillDamage@@QAEAAV0@$$QAV0@@Z
        694  2B5 00044CD0 ??4EChaSkillDamage@@QAEAAV0@ABV0@@Z
        695  2B6 00044CF0 ??4EChangeAnim@@QAEAAV0@$$QAV0@@Z
        696  2B7 00044D60 ??4EChangeAnim@@QAEAAV0@ABV0@@Z
        697  2B8 000C7710 ??4EChangeGravity@@QAEAAV0@$$QAV0@@Z
        698  2B9 000C7750 ??4EChangeGravity@@QAEAAV0@ABV0@@Z
        699  2BA 00044DD0 ??4EChangeMusic@@QAEAAV0@$$QAV0@@Z
        700  2BB 00044E10 ??4EChangeMusic@@QAEAAV0@ABV0@@Z
        701  2BC 00044E50 ??4ECharBaseDamage@@QAEAAV0@$$QAV0@@Z
        702  2BD 00044EB0 ??4ECharBaseDamage@@QAEAAV0@AAV0@@Z
        703  2BE 00044F10 ??4ECharBaseDeath@@QAEAAV0@$$QAV0@@Z
        704  2BF 00044F40 ??4ECharBaseDeath@@QAEAAV0@AAV0@@Z
        705  2C0 00044F70 ??4ECharBlowUp@@QAEAAV0@$$QAV0@@Z
        706  2C1 00044FB0 ??4ECharBlowUp@@QAEAAV0@ABV0@@Z
        707  2C2 00044FF0 ??4ECharForceWound@@QAEAAV0@$$QAV0@@Z
        708  2C3 00045010 ??4ECharForceWound@@QAEAAV0@ABV0@@Z
        709  2C4 00045030 ??4ECharReconsiderBehavior@@QAEAAV0@$$QAV0@@Z
        710  2C5 00045050 ??4ECharReconsiderBehavior@@QAEAAV0@ABV0@@Z
        711  2C6 0009E0E0 ??4ECopierTrigger@@QAEAAV0@$$QAV0@@Z
        712  2C7 0009E100 ??4ECopierTrigger@@QAEAAV0@ABV0@@Z
        713  2C8 0006FB30 ??4ECredits@@QAEAAV0@$$QAV0@@Z
        714  2C9 0006FB70 ??4ECredits@@QAEAAV0@ABV0@@Z
        715  2CA 0006FBB0 ??4EDeactivate@@QAEAAV0@$$QAV0@@Z
        716  2CB 0006FBD0 ??4EDeactivate@@QAEAAV0@ABV0@@Z
        717  2CC 00079C50 ??4EDeactivateBlend@@QAEAAV0@$$QAV0@@Z
        718  2CD 00079C70 ??4EDeactivateBlend@@QAEAAV0@ABV0@@Z
        719  2CE 00045070 ??4EDisconnected@@QAEAAV0@$$QAV0@@Z
        720  2CF 00045090 ??4EDisconnected@@QAEAAV0@ABV0@@Z
        721  2D0 0006FBF0 ??4EDoorControll@@QAEAAV0@$$QAV0@@Z
        722  2D1 0006FC10 ??4EDoorControll@@QAEAAV0@ABV0@@Z
        723  2D2 0006FC30 ??4EEnd@@QAEAAV0@$$QAV0@@Z
        724  2D3 0006FC50 ??4EEnd@@QAEAAV0@ABV0@@Z
        725  2D4 000450B0 ??4EEnemyBaseDamage@@QAEAAV0@$$QAV0@@Z
        726  2D5 00045110 ??4EEnemyBaseDamage@@QAEAAV0@AAV0@@Z
        727  2D6 00045170 ??4EEnemyBaseDeath@@QAEAAV0@$$QAV0@@Z
        728  2D7 000451A0 ??4EEnemyBaseDeath@@QAEAAV0@AAV0@@Z
        729  2D8 0006FC70 ??4EEnvironmentStart@@QAEAAV0@$$QAV0@@Z
        730  2D9 0006FC90 ??4EEnvironmentStart@@QAEAAV0@ABV0@@Z
        731  2DA 0006FCB0 ??4EEnvironmentStop@@QAEAAV0@$$QAV0@@Z
        732  2DB 0006FCD0 ??4EEnvironmentStop@@QAEAAV0@ABV0@@Z
        733  2DC 000451D0 ??4EExplode@@QAEAAV0@$$QAV0@@Z
        734  2DD 00045200 ??4EExplode@@QAEAAV0@ABV0@@Z
        735  2DE 00052770 ??4EFireWeapon@@QAEAAV0@$$QAV0@@Z
        736  2DF 00052790 ??4EFireWeapon@@QAEAAV0@ABV0@@Z
        737  2E0 00045230 ??4EFlame@@QAEAAV0@$$QAV0@@Z
        738  2E1 00045280 ??4EFlame@@QAEAAV0@AAV0@@Z
        739  2E2 00130A60 ??4EFlipTheSwitch@@QAEAAV0@$$QAV0@@Z
        740  2E3 00130A90 ??4EFlipTheSwitch@@QAEAAV0@ABV0@@Z
        741  2E4 000452C0 ??4EForceWound@@QAEAAV0@$$QAV0@@Z
        742  2E5 000452E0 ??4EForceWound@@QAEAAV0@ABV0@@Z
        743  2E6 00078DF0 ??4EHit@@QAEAAV0@$$QAV0@@Z
        744  2E7 00078E10 ??4EHit@@QAEAAV0@ABV0@@Z
        745  2E8 0006FCF0 ??4EHitBySpaceShipBeam@@QAEAAV0@$$QAV0@@Z
        746  2E9 0006FD10 ??4EHitBySpaceShipBeam@@QAEAAV0@ABV0@@Z
        747  2EA 0006FD30 ??4EHudPicFX@@QAEAAV0@$$QAV0@@Z
        748  2EB 0006FD70 ??4EHudPicFX@@QAEAAV0@ABV0@@Z
        749  2EC 0006FDB0 ??4EKilledEnemy@@QAEAAV0@$$QAV0@@Z
        750  2ED 0006FE00 ??4EKilledEnemy@@QAEAAV0@ABV0@@Z
        751  2EE 00045300 ??4ELaunchProjectile@@QAEAAV0@$$QAV0@@Z
        752  2EF 00045340 ??4ELaunchProjectile@@QAEAAV0@AAV0@@Z
        753  2F0 000CB190 ??4EMarkPicked@@QAEAAV0@$$QAV0@@Z
        754  2F1 000CB1C0 ??4EMarkPicked@@QAEAAV0@AAV0@@Z
        755  2F2 00045380 ??4EModel2Activate@@QAEAAV0@$$QAV0@@Z
        756  2F3 000453A0 ??4EModel2Activate@@QAEAAV0@ABV0@@Z
        757  2F4 000453C0 ??4EModel2Deactivate@@QAEAAV0@$$QAV0@@Z
        758  2F5 000453E0 ??4EModel2Deactivate@@QAEAAV0@ABV0@@Z
        759  2F6 00045400 ??4EModel3Action@@QAEAAV0@$$QAV0@@Z
        760  2F7 00045420 ??4EModel3Action@@QAEAAV0@ABV0@@Z
        761  2F8 00045440 ??4EModel3Activate@@QAEAAV0@$$QAV0@@Z
        762  2F9 00045460 ??4EModel3Activate@@QAEAAV0@ABV0@@Z
        763  2FA 00045480 ??4EModel3Deactivate@@QAEAAV0@$$QAV0@@Z
        764  2FB 000454A0 ??4EModel3Deactivate@@QAEAAV0@ABV0@@Z
        765  2FC 000454C0 ??4EModelDeath@@QAEAAV0@$$QAV0@@Z
        766  2FD 000454E0 ??4EModelDeath@@QAEAAV0@ABV0@@Z
        767  2FE 000E45E0 ??4EMusicChangerTrigger@@QAEAAV0@$$QAV0@@Z
        768  2FF 000E4600 ??4EMusicChangerTrigger@@QAEAAV0@ABV0@@Z
        769  300 00045500 ??4ENetChangeMusic@@QAEAAV0@$$QAV0@@Z
        770  301 00045530 ??4ENetChangeMusic@@QAEAAV0@ABV0@@Z
        771  302 000527B0 ??4ENetFireWeapon@@QAEAAV0@$$QAV0@@Z
        772  303 000527D0 ??4ENetFireWeapon@@QAEAAV0@ABV0@@Z
        773  304 000527F0 ??4ENetReleaseWeapon@@QAEAAV0@$$QAV0@@Z
        774  305 00052810 ??4ENetReleaseWeapon@@QAEAAV0@ABV0@@Z
        775  306 00052830 ??4ENetReloadWeapon@@QAEAAV0@$$QAV0@@Z
        776  307 00052850 ??4ENetReloadWeapon@@QAEAAV0@ABV0@@Z
        777  308 00052870 ??4ENetSelectWeapon@@QAEAAV0@$$QAV0@@Z
        778  309 00052890 ??4ENetSelectWeapon@@QAEAAV0@ABV0@@Z
        779  30A 00045560 ??4ENetSpawnEntity@@QAEAAV0@$$QAV0@@Z
        780  30B 000455B0 ??4ENetSpawnEntity@@QAEAAV0@ABV0@@Z
        781  30C 000A7C70 ??4ENetTrigger@@QAEAAV0@$$QAV0@@Z
        782  30D 000A7C90 ??4ENetTrigger@@QAEAAV0@ABV0@@Z
        783  30E 000E8980 ??4EParticlesActivate@@QAEAAV0@$$QAV0@@Z
        784  30F 000E89A0 ??4EParticlesActivate@@QAEAAV0@ABV0@@Z
        785  310 000E89C0 ??4EParticlesDeactivate@@QAEAAV0@$$QAV0@@Z
        786  311 000E89E0 ??4EParticlesDeactivate@@QAEAAV0@ABV0@@Z
        787  312 000EDE80 ??4EPetAttackDamage@@QAEAAV0@$$QAV0@@Z
        788  313 000EDEA0 ??4EPetAttackDamage@@QAEAAV0@ABV0@@Z
        789  314 00045600 ??4EPetBaseBlowUp@@QAEAAV0@$$QAV0@@Z
        790  315 00045640 ??4EPetBaseBlowUp@@QAEAAV0@ABV0@@Z
        791  316 00045680 ??4EPetBaseDamage@@QAEAAV0@$$QAV0@@Z
        792  317 000456E0 ??4EPetBaseDamage@@QAEAAV0@AAV0@@Z
        793  318 00045740 ??4EPetBaseDeath@@QAEAAV0@$$QAV0@@Z
        794  319 00045770 ??4EPetBaseDeath@@QAEAAV0@AAV0@@Z
        795  31A 000457A0 ??4EPetBaseForceWound@@QAEAAV0@$$QAV0@@Z
        796  31B 000457C0 ??4EPetBaseForceWound@@QAEAAV0@ABV0@@Z
        797  31C 000457E0 ??4EPetBaseReconsiderBehavior@@QAEAAV0@$$QAV0@@Z
        798  31D 00045800 ??4EPetBaseReconsiderBehavior@@QAEAAV0@ABV0@@Z
        799  31E 00045820 ??4EPlaySoundOnce@@QAEAAV0@$$QAV0@@Z
        800  31F 00045840 ??4EPlaySoundOnce@@QAEAAV0@ABV0@@Z
        801  320 00045860 ??4EPlayerDeath@@QAEAAV0@$$QAV0@@Z
        802  321 000458C0 ??4EPlayerDeath@@QAEAAV0@AAV0@@Z
        803  322 00045920 ??4EPlayerKilledEnemy@@QAEAAV0@$$QAV0@@Z
        804  323 00045960 ??4EPlayerKilledEnemy@@QAEAAV0@AAV0@@Z
        805  324 000459A0 ??4EPlayerRebirth@@QAEAAV0@$$QAV0@@Z
        806  325 000459C0 ??4EPlayerRebirth@@QAEAAV0@ABV0@@Z
        807  326 000459E0 ??4EPlayerStats@@QAEAAV0@$$QAV0@@Z
        808  327 00045A20 ??4EPlayerStats@@QAEAAV0@ABV0@@Z
        809  328 00045A60 ??4ERangeModelDestruction@@QAEAAV0@$$QAV0@@Z
        810  329 00045A80 ??4ERangeModelDestruction@@QAEAAV0@ABV0@@Z
        811  32A 00045AA0 ??4ERebirth@@QAEAAV0@$$QAV0@@Z
        812  32B 00045AC0 ??4ERebirth@@QAEAAV0@ABV0@@Z
        813  32C 000CB1F0 ??4EReceiveItem@@QAEAAV0@$$QAV0@@Z
        814  32D 000CB210 ??4EReceiveItem@@QAEAAV0@ABV0@@Z
        815  32E 00045AE0 ??4EReconsiderBehavior@@QAEAAV0@$$QAV0@@Z
        816  32F 00045B00 ??4EReconsiderBehavior@@QAEAAV0@ABV0@@Z
        817  330 000528B0 ??4EReleaseWeapon@@QAEAAV0@$$QAV0@@Z
        818  331 000528D0 ??4EReleaseWeapon@@QAEAAV0@ABV0@@Z
        819  332 000528F0 ??4EReloadWeapon@@QAEAAV0@$$QAV0@@Z
        820  333 00052910 ??4EReloadWeapon@@QAEAAV0@ABV0@@Z
        821  334 0006FE50 ??4EReminder@@QAEAAV0@$$QAV0@@Z
        822  335 0006FE70 ??4EReminder@@QAEAAV0@ABV0@@Z
        823  336 00045B20 ??4EReminderInit@@QAEAAV0@$$QAV0@@Z
        824  337 00045B60 ??4EReminderInit@@QAEAAV0@AAV0@@Z
        825  338 0006FE90 ??4EScroll@@QAEAAV0@$$QAV0@@Z
        826  339 0006FED0 ??4EScroll@@QAEAAV0@ABV0@@Z
        827  33A 00052930 ??4ESelectWeapon@@QAEAAV0@$$QAV0@@Z
        828  33B 00052950 ??4ESelectWeapon@@QAEAAV0@ABV0@@Z
        829  33C 000CB230 ??4ESetType@@QAEAAV0@$$QAV0@@Z
        830  33D 000CB250 ??4ESetType@@QAEAAV0@ABV0@@Z
        831  33E 00045BA0 ??4ESetViewer@@QAEAAV0@$$QAV0@@Z
        832  33F 00045BC0 ??4ESetViewer@@QAEAAV0@ABV0@@Z
        833  340 00045BE0 ??4EShowConsole@@QAEAAV0@$$QAV0@@Z
        834  341 00045C00 ??4EShowConsole@@QAEAAV0@ABV0@@Z
        835  342 00130AC0 ??4ESlaveAttackDamage@@QAEAAV0@$$QAV0@@Z
        836  343 00130AE0 ??4ESlaveAttackDamage@@QAEAAV0@ABV0@@Z
        837  344 00045C20 ??4ESlaveBaseBlowUp@@QAEAAV0@$$QAV0@@Z
        838  345 00045C60 ??4ESlaveBaseBlowUp@@QAEAAV0@ABV0@@Z
        839  346 00045CA0 ??4ESlaveBaseDamage@@QAEAAV0@$$QAV0@@Z
        840  347 00045D00 ??4ESlaveBaseDamage@@QAEAAV0@AAV0@@Z
        841  348 00045D60 ??4ESlaveBaseDeath@@QAEAAV0@$$QAV0@@Z
        842  349 00045D90 ??4ESlaveBaseDeath@@QAEAAV0@AAV0@@Z
        843  34A 00045DC0 ??4ESlaveBaseForceWound@@QAEAAV0@$$QAV0@@Z
        844  34B 00045DE0 ??4ESlaveBaseForceWound@@QAEAAV0@ABV0@@Z
        845  34C 00045E00 ??4ESlaveBaseReconsiderBehavior@@QAEAAV0@$$QAV0@@Z
        846  34D 00045E20 ??4ESlaveBaseReconsiderBehavior@@QAEAAV0@ABV0@@Z
        847  34E 00045E40 ??4ESlaveFoundNewEnemy@@QAEAAV0@$$QAV0@@Z
        848  34F 00045E60 ??4ESlaveFoundNewEnemy@@QAEAAV0@ABV0@@Z
        849  350 00045E80 ??4ESlaveKilledEnemy@@QAEAAV0@$$QAV0@@Z
        850  351 00045EA0 ??4ESlaveKilledEnemy@@QAEAAV0@ABV0@@Z
        851  352 0006FF10 ??4ESound@@QAEAAV0@$$QAV0@@Z
        852  353 0006FF50 ??4ESound@@QAEAAV0@ABV0@@Z
        853  354 00045EC0 ??4ESpawnDebris@@QAEAAV0@$$QAV0@@Z
        854  355 00045F80 ??4ESpawnDebris@@QAEAAV0@ABV0@@Z
        855  356 00046040 ??4ESpawnDebrisSka@@QAEAAV0@$$QAV0@@Z
        856  357 00046110 ??4ESpawnDebrisSka@@QAEAAV0@ABV0@@Z
        857  358 000461E0 ??4ESpawnEffect@@QAEAAV0@$$QAV0@@Z
        858  359 00046240 ??4ESpawnEffect@@QAEAAV0@ABV0@@Z
        859  35A 000A4320 ??4ESpawnEffector@@QAEAAV0@$$QAV0@@Z
        860  35B 000A43A0 ??4ESpawnEffector@@QAEAAV0@AAV0@@Z
        861  35C 000462A0 ??4ESpawnFlame@@QAEAAV0@$$QAV0@@Z
        862  35D 00046300 ??4ESpawnFlame@@QAEAAV0@AAV0@@Z
        863  35E 00046350 ??4ESpawnSpray@@QAEAAV0@$$QAV0@@Z
        864  35F 000463B0 ??4ESpawnSpray@@QAEAAV0@AAV0@@Z
        865  360 0006FF90 ??4EStart@@QAEAAV0@$$QAV0@@Z
        866  361 0006FFD0 ??4EStart@@QAEAAV0@ABV0@@Z
        867  362 00070010 ??4EStartAttack@@QAEAAV0@$$QAV0@@Z
        868  363 00070030 ??4EStartAttack@@QAEAAV0@ABV0@@Z
        869  364 00078E30 ??4EStartSounds@@QAEAAV0@$$QAV0@@Z
        870  365 00078E50 ??4EStartSounds@@QAEAAV0@ABV0@@Z
        871  366 00070050 ??4EStop@@QAEAAV0@$$QAV0@@Z
        872  367 00070070 ??4EStop@@QAEAAV0@ABV0@@Z
        873  368 00070090 ??4EStopAttack@@QAEAAV0@$$QAV0@@Z
        874  369 000700B0 ??4EStopAttack@@QAEAAV0@ABV0@@Z
        875  36A 000700D0 ??4EStopBlindness@@QAEAAV0@$$QAV0@@Z
        876  36B 000700F0 ??4EStopBlindness@@QAEAAV0@ABV0@@Z
        877  36C 00070110 ??4EStopDeafness@@QAEAAV0@$$QAV0@@Z
        878  36D 00070130 ??4EStopDeafness@@QAEAAV0@ABV0@@Z
        879  36E 00046410 ??4EStopFlaming@@QAEAAV0@$$QAV0@@Z
        880  36F 00046430 ??4EStopFlaming@@QAEAAV0@ABV0@@Z
        881  370 00046450 ??4EStopLerp@@QAEAAV0@$$QAV0@@Z
        882  371 00046470 ??4EStopLerp@@QAEAAV0@ABV0@@Z
        883  372 00078E70 ??4EStopSounds@@QAEAAV0@$$QAV0@@Z
        884  373 00078E90 ??4EStopSounds@@QAEAAV0@ABV0@@Z
        885  374 0015BC70 ??4EStormEnvironmentStart@@QAEAAV0@$$QAV0@@Z
        886  375 0015BC90 ??4EStormEnvironmentStart@@QAEAAV0@ABV0@@Z
        887  376 0015BCB0 ??4EStormStart@@QAEAAV0@$$QAV0@@Z
        888  377 0015BCD0 ??4EStormStart@@QAEAAV0@ABV0@@Z
        889  378 0015BCF0 ??4EStormStop@@QAEAAV0@$$QAV0@@Z
        890  379 0015BD10 ??4EStormStop@@QAEAAV0@ABV0@@Z
        891  37A 00160CB0 ??4ETeleportActivate@@QAEAAV0@$$QAV0@@Z
        892  37B 00160CD0 ??4ETeleportActivate@@QAEAAV0@ABV0@@Z
        893  37C 00160CF0 ??4ETeleportDeactivate@@QAEAAV0@$$QAV0@@Z
        894  37D 00160D10 ??4ETeleportDeactivate@@QAEAAV0@ABV0@@Z
        895  37E 00070150 ??4ETeleportMovingBrush@@QAEAAV0@$$QAV0@@Z
        896  37F 00070170 ??4ETeleportMovingBrush@@QAEAAV0@ABV0@@Z
        897  380 00070190 ??4ETextFX@@QAEAAV0@$$QAV0@@Z
        898  381 000701D0 ??4ETextFX@@QAEAAV0@ABV0@@Z
        899  382 00070210 ??4ETrigger@@QAEAAV0@$$QAV0@@Z
        900  383 00070250 ??4ETrigger@@QAEAAV0@ABV0@@Z
        901  384 000A4410 ??4ETriggerEffector@@QAEAAV0@$$QAV0@@Z
        902  385 000A4430 ??4ETriggerEffector@@QAEAAV0@ABV0@@Z
        903  386 000CE710 ??4ETriggerLightning@@QAEAAV0@$$QAV0@@Z
        904  387 000CE730 ??4ETriggerLightning@@QAEAAV0@ABV0@@Z
        905  388 00130B00 ??4ETriggerPlayerMarker@@QAEAAV0@$$QAV0@@Z
        906  389 00130B30 ??4ETriggerPlayerMarker@@QAEAAV0@AAV0@@Z
        907  38A 00130B60 ??4EViewInit@@QAEAAV0@$$QAV0@@Z
        908  38B 00130BC0 ??4EViewInit@@QAEAAV0@AAV0@@Z
        909  38C 00070290 ??4EVoiceMessage@@QAEAAV0@$$QAV0@@Z
        910  38D 000702C0 ??4EVoiceMessage@@QAEAAV0@ABV0@@Z
        911  38E 00046490 ??4EWatch@@QAEAAV0@$$QAV0@@Z
        912  38F 000464C0 ??4EWatch@@QAEAAV0@AAV0@@Z
        913  390 000464F0 ??4EWatcherInit@@QAEAAV0@$$QAV0@@Z
        914  391 00046520 ??4EWatcherInit@@QAEAAV0@AAV0@@Z
        915  392 00052970 ??4EWeaponChanged@@QAEAAV0@$$QAV0@@Z
        916  393 00052990 ??4EWeaponChanged@@QAEAAV0@ABV0@@Z
        917  394 000529B0 ??4EWeaponEffectInit@@QAEAAV0@$$QAV0@@Z
        918  395 000529F0 ??4EWeaponEffectInit@@QAEAAV0@ABV0@@Z
        919  396 00052A30 ??4EWeaponsInit@@QAEAAV0@$$QAV0@@Z
        920  397 00052A60 ??4EWeaponsInit@@QAEAAV0@AAV0@@Z
        921  398 0006C710 ??4EWeatherStart@@QAEAAV0@$$QAV0@@Z
        922  399 0006C730 ??4EWeatherStart@@QAEAAV0@ABV0@@Z
        923  39A 0006C750 ??4EWeatherStop@@QAEAAV0@$$QAV0@@Z
        924  39B 0006C770 ??4EWeatherStop@@QAEAAV0@ABV0@@Z
        925  39C 00046550 ??4EWildPetAttackDamage@@QAEAAV0@$$QAV0@@Z
        926  39D 00046570 ??4EWildPetAttackDamage@@QAEAAV0@ABV0@@Z
        927  39E 00046590 ??4EWildPetBaseDamage@@QAEAAV0@$$QAV0@@Z
        928  39F 000465F0 ??4EWildPetBaseDamage@@QAEAAV0@AAV0@@Z
        929  3A0 00046650 ??4EWildPetBaseDeath@@QAEAAV0@$$QAV0@@Z
        930  3A1 00046680 ??4EWildPetBaseDeath@@QAEAAV0@AAV0@@Z
        931  3A2 000466B0 ??4EWildPetBaseReconsiderBehavior@@QAEAAV0@$$QAV0@@Z
        932  3A3 000466D0 ??4EWildPetBaseReconsiderBehavior@@QAEAAV0@ABV0@@Z
        933  3A4 000702F0 ??4PlayerStats@@QAEAAU0@$$QAU0@@Z
        934  3A5 00070310 ??4PlayerStats@@QAEAAU0@ABU0@@Z
        935  3A6 001B3CEC ??_7CBullet@@6B@
        936  3A7 001B4420 ??_7CCharacterBase@@6B@
        937  3A8 001B3A84 ??_7CEnemyBase@@6B@
        938  3A9 001C1C8C ??_7CItem@@6B@
        939  3AA 001B71E4 ??_7CNavigationMarker@@6B@
        940  3AB 001B3E98 ??_7CPetBase@@6B@
        941  3AC 001B3118 ??_7CPlayer@@6B@
        942  3AD 001C6BEC ??_7CPlayerAnimator@@6B@
        943  3AE 001C6D4C ??_7CPlayerView@@6B@
        944  3AF 001B5B24 ??_7CPlayerWeapons@@6B@
        945  3B0 001B36AC ??_7CProjectile@@6B@
        946  3B1 001B2D7C ??_7CReminder@@6B@
        947  3B2 001B4174 ??_7CSlaveBase@@6B@
        948  3B3 001B3844 ??_7CUnit@@6B@
        949  3B4 001B3524 ??_7CWatcher@@6B@
        950  3B5 001B46A0 ??_7CWildPetBase@@6B@
        951  3B6 001B735C ??_7EActivate@@6B@
        952  3B7 001B8F78 ??_7EActivateBlend@@6B@
        953  3B8 001B30F0 ??_7EAddBulletSpray@@6B@
        954  3B9 001B3104 ??_7EAddGoreSpray@@6B@
        955  3BA 001B744C ??_7EAddHostile@@6B@
        956  3BB 001C6BD8 ??_7EAnimatorInit@@6B@
        957  3BC 001BC918 ??_7EArchitectureDeath@@6B@
        958  3BD 001B4910 ??_7EAttackDamage@@6B@
        959  3BE 001B308C ??_7EAutoAction@@6B@
        960  3BF 001B3028 ??_7EAutoLogin@@6B@
        961  3C0 001B3A70 ??_7EBlowUp@@6B@
        962  3C1 001B5A70 ??_7EBoringWeapon@@6B@
        963  3C2 001B8DCC ??_7EBrushDeath@@6B@
        964  3C3 001B8D90 ??_7EBrushDestroyed@@6B@
        965  3C4 001B3CD8 ??_7EBulletInit@@6B@
        966  3C5 001B2FEC ??_7ECameraStart@@6B@
        967  3C6 001B3000 ??_7ECameraStop@@6B@
        968  3C7 001B48E8 ??_7EChaAttackDamage@@6B@
        969  3C8 001B48FC ??_7EChaSkillDamage@@6B@
        970  3C9 001B2EC0 ??_7EChangeAnim@@6B@
        971  3CA 001C13B0 ??_7EChangeGravity@@6B@
        972  3CB 001B381C ??_7EChangeMusic@@6B@
        973  3CC 001B43F8 ??_7ECharBaseDamage@@6B@
        974  3CD 001B43E4 ??_7ECharBaseDeath@@6B@
        975  3CE 001B440C ??_7ECharBlowUp@@6B@
        976  3CF 001B43D0 ??_7ECharForceWound@@6B@
        977  3D0 001B43BC ??_7ECharReconsiderBehavior@@6B@
        978  3D1 001BCD84 ??_7ECopierTrigger@@6B@
        979  3D2 001B74D8 ??_7ECredits@@6B@
        980  3D3 001B7370 ??_7EDeactivate@@6B@
        981  3D4 001B8F8C ??_7EDeactivateBlend@@6B@
        982  3D5 001B3078 ??_7EDisconnected@@6B@
        983  3D6 001B7460 ??_7EDoorControll@@6B@
        984  3D7 001B73AC ??_7EEnd@@6B@
        985  3D8 001B3A5C ??_7EEnemyBaseDamage@@6B@
        986  3D9 001B3A48 ??_7EEnemyBaseDeath@@6B@
        987  3DA 001B7384 ??_7EEnvironmentStart@@6B@
        988  3DB 001B7398 ??_7EEnvironmentStop@@6B@
        989  3DC 001B3684 ??_7EExplode@@6B@
        990  3DD 001B5A84 ??_7EFireWeapon@@6B@
        991  3DE 001B2FB0 ??_7EFlame@@6B@
        992  3DF 001C6EB8 ??_7EFlipTheSwitch@@6B@
        993  3E0 001B3A34 ??_7EForceWound@@6B@
        994  3E1 001B8D7C ??_7EHit@@6B@
        995  3E2 001B7500 ??_7EHitBySpaceShipBeam@@6B@
        996  3E3 001B74C4 ??_7EHudPicFX@@6B@
        997  3E4 001B7474 ??_7EKilledEnemy@@6B@
        998  3E5 001B3670 ??_7ELaunchProjectile@@6B@
        999  3E6 001C1C64 ??_7EMarkPicked@@6B@
       1000  3E7 001B2EE8 ??_7EModel2Activate@@6B@
       1001  3E8 001B2EFC ??_7EModel2Deactivate@@6B@
       1002  3E9 001B2F38 ??_7EModel3Action@@6B@
       1003  3EA 001B2F10 ??_7EModel3Activate@@6B@
       1004  3EB 001B2F24 ??_7EModel3Deactivate@@6B@
       1005  3EC 001B2F9C ??_7EModelDeath@@6B@
       1006  3ED 001C4B7C ??_7EMusicChangerTrigger@@6B@
       1007  3EE 001B3830 ??_7ENetChangeMusic@@6B@
       1008  3EF 001B5AE8 ??_7ENetFireWeapon@@6B@
       1009  3F0 001B5AFC ??_7ENetReleaseWeapon@@6B@
       1010  3F1 001B5B10 ??_7ENetReloadWeapon@@6B@
       1011  3F2 001B5AD4 ??_7ENetSelectWeapon@@6B@
       1012  3F3 001B4924 ??_7ENetSpawnEntity@@6B@
       1013  3F4 001BE594 ??_7ENetTrigger@@6B@
       1014  3F5 001C57E4 ??_7EParticlesActivate@@6B@
       1015  3F6 001C57F8 ??_7EParticlesDeactivate@@6B@
       1016  3F7 001C5B78 ??_7EPetAttackDamage@@6B@
       1017  3F8 001B3E84 ??_7EPetBaseBlowUp@@6B@
       1018  3F9 001B3E70 ??_7EPetBaseDamage@@6B@
       1019  3FA 001B3E5C ??_7EPetBaseDeath@@6B@
       1020  3FB 001B3E48 ??_7EPetBaseForceWound@@6B@
       1021  3FC 001B3E34 ??_7EPetBaseReconsiderBehavior@@6B@
       1022  3FD 001B2F74 ??_7EPlaySoundOnce@@6B@
       1023  3FE 001B30B4 ??_7EPlayerDeath@@6B@
       1024  3FF 001B30A0 ??_7EPlayerKilledEnemy@@6B@
       1025  400 001B3064 ??_7EPlayerRebirth@@6B@
       1026  401 001B30DC ??_7EPlayerStats@@6B@
       1027  402 001B2F88 ??_7ERangeModelDestruction@@6B@
       1028  403 001B3050 ??_7ERebirth@@6B@
       1029  404 001C1C50 ??_7EReceiveItem@@6B@
       1030  405 001B3A20 ??_7EReconsiderBehavior@@6B@
       1031  406 001B5A98 ??_7EReleaseWeapon@@6B@
       1032  407 001B5AAC ??_7EReloadWeapon@@6B@
       1033  408 001B73E8 ??_7EReminder@@6B@
       1034  409 001B2D68 ??_7EReminderInit@@6B@
       1035  40A 001B749C ??_7EScroll@@6B@
       1036  40B 001B5A5C ??_7ESelectWeapon@@6B@
       1037  40C 001C1C78 ??_7ESetType@@6B@
       1038  40D 001B3E20 ??_7ESetViewer@@6B@
       1039  40E 001B30C8 ??_7EShowConsole@@6B@
       1040  40F 001C6ECC ??_7ESlaveAttackDamage@@6B@
       1041  410 001B4160 ??_7ESlaveBaseBlowUp@@6B@
       1042  411 001B414C ??_7ESlaveBaseDamage@@6B@
       1043  412 001B4138 ??_7ESlaveBaseDeath@@6B@
       1044  413 001B4124 ??_7ESlaveBaseForceWound@@6B@
       1045  414 001B40FC ??_7ESlaveBaseReconsiderBehavior@@6B@
       1046  415 001B4110 ??_7ESlaveFoundNewEnemy@@6B@
       1047  416 001B3014 ??_7ESlaveKilledEnemy@@6B@
       1048  417 001B7488 ??_7ESound@@6B@
       1049  418 001B2F60 ??_7ESpawnDebris@@6B@
       1050  419 001B2FD8 ??_7ESpawnDebrisSka@@6B@
       1051  41A 001B2F4C ??_7ESpawnEffect@@6B@
       1052  41B 001BDD34 ??_7ESpawnEffector@@6B@
       1053  41C 001B3698 ??_7ESpawnFlame@@6B@
       1054  41D 001B2ED4 ??_7ESpawnSpray@@6B@
       1055  41E 001B7348 ??_7EStart@@6B@
       1056  41F 001B73FC ??_7EStartAttack@@6B@
       1057  420 001B8DA4 ??_7EStartSounds@@6B@
       1058  421 001B7334 ??_7EStop@@6B@
       1059  422 001B7410 ??_7EStopAttack@@6B@
       1060  423 001B7424 ??_7EStopBlindness@@6B@
       1061  424 001B7438 ??_7EStopDeafness@@6B@
       1062  425 001B2FC4 ??_7EStopFlaming@@6B@
       1063  426 001B303C ??_7EStopLerp@@6B@
       1064  427 001B8DB8 ??_7EStopSounds@@6B@
       1065  428 001CA9E8 ??_7EStormEnvironmentStart@@6B@
       1066  429 001CA9FC ??_7EStormStart@@6B@
       1067  42A 001CAA10 ??_7EStormStop@@6B@
       1068  42B 001CB630 ??_7ETeleportActivate@@6B@
       1069  42C 001CB644 ??_7ETeleportDeactivate@@6B@
       1070  42D 001B73D4 ??_7ETeleportMovingBrush@@6B@
       1071  42E 001B74B0 ??_7ETextFX@@6B@
       1072  42F 001B73C0 ??_7ETrigger@@6B@
       1073  430 001BDD48 ??_7ETriggerEffector@@6B@
       1074  431 001C28C0 ??_7ETriggerLightning@@6B@
       1075  432 001C6BC4 ??_7ETriggerPlayerMarker@@6B@
       1076  433 001C6D38 ??_7EViewInit@@6B@
       1077  434 001B74EC ??_7EVoiceMessage@@6B@
       1078  435 001B3510 ??_7EWatch@@6B@
       1079  436 001B34FC ??_7EWatcherInit@@6B@
       1080  437 001B5AC0 ??_7EWeaponChanged@@6B@
       1081  438 001B5A34 ??_7EWeaponEffectInit@@6B@
       1082  439 001B5A48 ??_7EWeaponsInit@@6B@
       1083  43A 001B5D10 ??_7EWeatherStart@@6B@
       1084  43B 001B5D24 ??_7EWeatherStop@@6B@
       1085  43C 001B48D4 ??_7EWildPetAttackDamage@@6B@
       1086  43D 001B468C ??_7EWildPetBaseDamage@@6B@
       1087  43E 001B4678 ??_7EWildPetBaseDeath@@6B@
       1088  43F 001B4664 ??_7EWildPetBaseReconsiderBehavior@@6B@
       1089  440 00173570 ?AISearch@CWildPetBase@@UAEXXZ
       1090  441 00167870 ?ActEventAnim@CUnit@@UAEXXZ
       1091  442 000B5940 ?Action@CEnemyBase@@QAEHABVCEntityEvent@@@Z
       1092  443 0009A520 ?ActionAnimation@CCharacterBase@@QAEHABVCEntityEvent@@@Z
       1093  444 000F6630 ?ActionAnimation@CPetBase@@QAEHABVCEntityEvent@@@Z
       1094  445 00096690 ?ActionNow@CCharacterBase@@UAEXXZ
       1095  446 000F2350 ?ActionNow@CPetBase@@UAEXXZ
       1096  447 00154CC0 ?ActionNow@CSlaveBase@@UAEXXZ
       1097  448 00165C30 ?ActionNow@CUnit@@UAEXXZ
       1098  449 001724B0 ?ActionNow@CWildPetBase@@UAEXXZ
       1099  44A 000992F0 ?Active@CCharacterBase@@QAEHABVCEntityEvent@@@Z
       1100  44B 000B6FA0 ?Active@CEnemyBase@@QAEHABVCEntityEvent@@@Z
       1101  44C 000F4ED0 ?Active@CPetBase@@QAEHABVCEntityEvent@@@Z
       1102  44D 001572E0 ?Active@CSlaveBase@@QAEHABVCEntityEvent@@@Z
       1103  44E 00168CA0 ?Active@CWatcher@@QAEHABVCEntityEvent@@@Z
       1104  44F 00175A30 ?Active@CWildPetBase@@QAEHABVCEntityEvent@@@Z
       1105  450 0010B0D0 ?ActiveActions@CPlayer@@QAEXABVCPlayerAction@@@Z
       1106  451 00133B10 ?AddAttachmentModel@CPlayerAnimator@@QAEXPAVCModelObject@@JKKKKK@Z
       1107  452 0002FB30 ?AddAttachmentToModel@@YAXPAVCEntity@@AAVCModelObject@@JKKKKK@Z
       1108  453 00101AD0 ?AddBouble@CPlayer@@QAEXV?$Vector@M$02@@0@Z
       1109  454 00101C40 ?AddBulletSpray@CPlayer@@QAEXV?$Vector@M$02@@W4EffectParticlesType@@0@Z
       1110  455 00123120 ?AddDeathItem@CPlayer@@UAEXPAVCEntity@@V?$Vector@M$02@@PAVCItemTarget@@PAVCItemData@@@Z
       1111  456 000C9DC0 ?AddFlare@CItem@@QAEXKKABV?$Vector@M$02@@0@Z
       1112  457 00101D30 ?AddGoreSpray@CPlayer@@QAEXV?$Vector@M$02@@0W4SprayParticlesType@@0V?$AABBox@M$02@@MK@Z
       1113  458 000C9CE0 ?AddItem@CItem@@QAEXKKKKK@Z
       1114  459 000C9D40 ?AddItemAttachment@CItem@@QAEXJKKKKK@Z
       1115  45A 000C9D10 ?AddItemSpecial@CItem@@QAEXJKKKKK@Z
       1116  45B 0004DD80 ?AddParticle@CEmiter@@QAEXV?$Vector@M$02@@0MMMMMK@Z
       1117  45C 00094040 ?AddToFuss@CCharacterBase@@QAEXXZ
       1118  45D 000B1970 ?AddToFuss@CEnemyBase@@QAEXXZ
       1119  45E 000EFEA0 ?AddToFuss@CPetBase@@QAEXXZ
       1120  45F 00152A40 ?AddToFuss@CSlaveBase@@QAEXXZ
       1121  460 00133B50 ?AddWeaponAttachment@CPlayerAnimator@@QAEXJKKKKK@Z
       1122  461 00095230 ?AdjustDifficulty@CCharacterBase@@UAEXXZ
       1123  462 000B2DA0 ?AdjustDifficulty@CEnemyBase@@UAEXXZ
       1124  463 000C9890 ?AdjustDifficulty@CItem@@UAEXXZ
       1125  464 000F1360 ?AdjustDifficulty@CPetBase@@UAEXXZ
       1126  465 00153B20 ?AdjustDifficulty@CSlaveBase@@UAEXXZ
       1127  466 000C98B0 ?AdjustMipFactor@CItem@@UAEXAAM@Z
       1128  467 00093D60 ?AdjustShadingParameters@CCharacterBase@@UAEHAAV?$Vector@M$02@@AAK1@Z
       1129  468 000B1850 ?AdjustShadingParameters@CEnemyBase@@UAEHAAV?$Vector@M$02@@AAK1@Z
       1130  469 000C9AA0 ?AdjustShadingParameters@CItem@@UAEHAAV?$Vector@M$02@@AAK1@Z
       1131  46A 000EFBC0 ?AdjustShadingParameters@CPetBase@@UAEHAAV?$Vector@M$02@@AAK1@Z
       1132  46B 00104330 ?AdjustShadingParameters@CPlayer@@UAEHAAV?$Vector@M$02@@AAK1@Z
       1133  46C 00143460 ?AdjustShadingParameters@CProjectile@@UAEHAAV?$Vector@M$02@@AAK1@Z
       1134  46D 00152760 ?AdjustShadingParameters@CSlaveBase@@UAEHAAV?$Vector@M$02@@AAK1@Z
       1135  46E 00172A90 ?AdjustShadingParameters@CWildPetBase@@UAEHAAV?$Vector@M$02@@AAK1@Z
       1136  46F 00143E10 ?AfterburnerDebris@CProjectile@@QAEXXZ
       1137  470 0010AA30 ?AliveActions@CPlayer@@QAEXABVCPlayerAction@@@Z
       1138  471 000719C0 ?AngleBetweenNormVectors@@YAMV?$Vector@M$02@@0@Z
       1139  472 00071A00 ?AngleBetweenNormVectors@@YAMV?$Vector@M$02@@0JJJ@Z
       1140  473 00071BD0 ?AngleBetweenVectors@@YAMV?$Vector@M$02@@0@Z
       1141  474 00071D00 ?AngleBetweenVectors@@YAMV?$Vector@M$02@@0JJJ@Z
       1142  475 00095520 ?AnimForDamage@CCharacterBase@@UAEJM@Z
       1143  476 000B3090 ?AnimForDamage@CEnemyBase@@UAEJM@Z
       1144  477 000F1660 ?AnimForDamage@CPetBase@@UAEJM@Z
       1145  478 00153E10 ?AnimForDamage@CSlaveBase@@UAEJM@Z
       1146  479 001734B0 ?AnimForDamage@CWildPetBase@@UAEJM@Z
       1147  47A 00095540 ?AnimForDeath@CCharacterBase@@UAEJXZ
       1148  47B 000B30B0 ?AnimForDeath@CEnemyBase@@UAEJXZ
       1149  47C 000F1680 ?AnimForDeath@CPetBase@@UAEJXZ
       1150  47D 00153E30 ?AnimForDeath@CSlaveBase@@UAEJXZ
       1151  47E 001734D0 ?AnimForDeath@CWildPetBase@@UAEJXZ
       1152  47F 00133D70 ?AnimateBanking@CPlayerAnimator@@QAEXXZ
       1153  480 0004DB40 ?AnimateParticles@CEmiter@@QAEXXZ
       1154  481 00134CD0 ?AnimatePlayer@CPlayerAnimator@@QAEXXZ
       1155  482 00133F00 ?AnimateSoftEyes@CPlayerAnimator@@QAEXXZ
       1156  483 00126180 ?AppearChaPolymoph@CPlayer@@UAEXPAVCEntity@@J@Z
       1157  484 00126240 ?AppearChaTransform@CPlayer@@UAEXPAVCEntity@@J@Z
       1158  485 0011DB80 ?AppearWearingWeapon@CPlayer@@UAEXH@Z
       1159  486 00108630 ?ApplyAction@CPlayer@@UAEXABVCPlayerAction@@M@Z
       1160  487 00104920 ?ApplyShaking@CPlayer@@QAEXAAVCPlacement3D@@@Z
       1161  488 00092EA0 ?AssignWatcher@CCharacterBase@@QAEXPAVCEntity@@@Z
       1162  489 000B0900 ?AssignWatcher@CEnemyBase@@QAEXPAVCEntity@@@Z
       1163  48A 000EED30 ?AssignWatcher@CPetBase@@QAEXPAVCEntity@@@Z
       1164  48B 001518D0 ?AssignWatcher@CSlaveBase@@QAEXPAVCEntity@@@Z
       1165  48C 000F1700 ?AttackAnim@CPetBase@@UAEXXZ
       1166  48D 00153EA0 ?AttackAnim@CSlaveBase@@UAEXXZ
       1167  48E 00167850 ?AttackAnim@CUnit@@UAEXXZ
       1168  48F 00173540 ?AttackAnim@CWildPetBase@@UAEXXZ
       1169  490 000970B0 ?AttackEnemy@CCharacterBase@@QAEHABVCEntityEvent@@@Z
       1170  491 000B4510 ?AttackEnemy@CEnemyBase@@QAEHABVCEntityEvent@@@Z
       1171  492 000F2B10 ?AttackEnemy@CPetBase@@QAEHABVCEntityEvent@@@Z
       1172  493 00154FE0 ?AttackEnemy@CSlaveBase@@QAEHABVCEntityEvent@@@Z
       1173  494 00096260 ?AttackNow@CCharacterBase@@UAEXXZ
       1174  495 000B3B60 ?AttackNow@CEnemyBase@@UAEXXZ
       1175  496 000F2190 ?AttackNow@CPetBase@@UAEXXZ
       1176  497 001548E0 ?AttackNow@CSlaveBase@@UAEXXZ
       1177  498 00165C20 ?AttackNow@CUnit@@UAEXXZ
       1178  499 00172260 ?AttackNow@CWildPetBase@@UAEXXZ
       1179  49A 0009A3D0 ?AttackTarget@CCharacterBase@@QAEHABVCEntityEvent@@@Z
       1180  49B 000B8660 ?AttackTarget@CEnemyBase@@QAEHABVCEntityEvent@@@Z
       1181  49C 000F6550 ?AttackTarget@CPetBase@@QAEHABVCEntityEvent@@@Z
       1182  49D 00158980 ?AttackTarget@CSlaveBase@@QAEHABVCEntityEvent@@@Z
       1183  49E 00176580 ?AttackTarget@CWildPetBase@@QAEHABVCEntityEvent@@@Z
       1184  49F 002438B4 ?AttackType_enum@@3VCEntityPropertyEnumType@@A
       1185  4A0 00243920 ?AttackType_values@@3PAVCEntityPropertyEnumValue@@A
       1186  4A1 0010AB70 ?AutoActions@CPlayer@@QAEXABVCPlayerAction@@@Z
       1187  4A2 00129C70 ?AutoFallDown@CPlayer@@QAEHABVCEntityEvent@@@Z
       1188  4A3 00129E40 ?AutoFallToAbys@CPlayer@@QAEHABVCEntityEvent@@@Z
       1189  4A4 00128D90 ?AutoGoToMarker@CPlayer@@QAEHABVCEntityEvent@@@Z
       1190  4A5 00129110 ?AutoGoToMarkerAndStop@CPlayer@@QAEHABVCEntityEvent@@@Z
       1191  4A6 0012A010 ?AutoLookAround@CPlayer@@QAEHABVCEntityEvent@@@Z
       1192  4A7 00129950 ?AutoPickItem@CPlayer@@QAEHABVCEntityEvent@@@Z
       1193  4A8 0012A3B0 ?AutoTeleport@CPlayer@@QAEHABVCEntityEvent@@@Z
       1194  4A9 001294D0 ?AutoUseItem@CPlayer@@QAEHABVCEntityEvent@@@Z
       1195  4AA 002416A0 ?BasicEffectType_enum@@3VCEntityPropertyEnumType@@A
       1196  4AB 002416A8 ?BasicEffectType_values@@3PAVCEntityPropertyEnumValue@@A
       1197  4AC 00098410 ?BeWounded@CCharacterBase@@QAEHABVCEntityEvent@@@Z
       1198  4AD 000B59B0 ?BeWounded@CEnemyBase@@QAEHABVCEntityEvent@@@Z
       1199  4AE 000F3B60 ?BeWounded@CPetBase@@QAEHABVCEntityEvent@@@Z
       1200  4AF 00156010 ?BeWounded@CSlaveBase@@QAEHABVCEntityEvent@@@Z
       1201  4B0 00174AE0 ?BeWounded@CWildPetBase@@QAEHABVCEntityEvent@@@Z
       1202  4B1 00241960 ?BlendControllerType_enum@@3VCEntityPropertyEnumType@@A
       1203  4B2 002419B8 ?BlendControllerType_values@@3PAVCEntityPropertyEnumValue@@A
       1204  4B3 002465E0 ?BlockAction_enum@@3VCEntityPropertyEnumType@@A
       1205  4B4 00246618 ?BlockAction_values@@3PAVCEntityPropertyEnumValue@@A
       1206  4B5 00094750 ?BlowUp@CCharacterBase@@UAEXXZ
       1207  4B6 000B22D0 ?BlowUp@CEnemyBase@@UAEXXZ
       1208  4B7 000F0890 ?BlowUp@CPetBase@@UAEXXZ
       1209  4B8 00153050 ?BlowUp@CSlaveBase@@UAEXXZ
       1210  4B9 00094740 ?BlowUpBase@CCharacterBase@@QAEXXZ
       1211  4BA 000B22C0 ?BlowUpBase@CEnemyBase@@QAEXXZ
       1212  4BB 000F0880 ?BlowUpBase@CPetBase@@QAEXXZ
       1213  4BC 00153040 ?BlowUpBase@CSlaveBase@@QAEXXZ
       1214  4BD 00095530 ?BlowUpNotify@CCharacterBase@@UAEXXZ
       1215  4BE 000B30A0 ?BlowUpNotify@CEnemyBase@@UAEXXZ
       1216  4BF 000F1670 ?BlowUpNotify@CPetBase@@UAEXXZ
       1217  4C0 00153E20 ?BlowUpNotify@CSlaveBase@@UAEXXZ
       1218  4C1 001734C0 ?BlowUpNotify@CWildPetBase@@UAEXXZ
       1219  4C2 001344D0 ?BodyAndHeadOrientation@CPlayerAnimator@@QAEXAAVCPlacement3D@@@Z
       1220  4C3 00136270 ?BodyPickItemAnimation@CPlayerAnimator@@QAEXXZ
       1221  4C4 00136160 ?BodyPullAnimation@CPlayerAnimator@@QAEXXZ
       1222  4C5 001361F0 ?BodyPullItemAnimation@CPlayerAnimator@@QAEXXZ
       1223  4C6 00136140 ?BodyPushAnimation@CPlayerAnimator@@QAEXXZ
       1224  4C7 001362F0 ?BodyRemoveItem@CPlayerAnimator@@QAEXXZ
       1225  4C8 00136060 ?BodyStillAnimation@CPlayerAnimator@@QAEXXZ
       1226  4C9 00136050 ?BodyWalkAnimation@CPlayerAnimator@@QAEXXZ
       1227  4CA 002454D8 ?BoolEType_enum@@3VCEntityPropertyEnumType@@A
       1228  4CB 00244DC0 ?BoolEType_values@@3PAVCEntityPropertyEnumValue@@A
       1229  4CC 00140780 ?BoringWeaponAnimation@CPlayerWeapons@@QAEHABVCEntityEvent@@@Z
       1230  4CD 00144440 ?BounceSound@CProjectile@@QAEXXZ
       1231  4CE 00244CB0 ?BulletHitType_enum@@3VCEntityPropertyEnumType@@A
       1232  4CF 00244F50 ?BulletHitType_values@@3PAVCEntityPropertyEnumValue@@A
       1233  4D0 0010FF70 ?ButtonsActions@CPlayer@@QAEXAAVCPlayerAction@@@Z
       1234  4D1 00165E00 ?CalcDelta@CUnit@@QAE?AV?$Vector@M$02@@PAVCEntity@@@Z
       1235  4D2 00165E80 ?CalcDist@CUnit@@QAEMPAVCEntity@@@Z
       1236  4D3 0011D110 ?CalcDistanceInPlaneToDestination@CPlayer@@QAEMXZ
       1237  4D4 00166B60 ?CalcDistanceInPlaneToDestination@CUnit@@QAEMXZ
       1238  4D5 0007B120 ?CalcJitterTarget@CBullet@@QAEXM@Z
       1239  4D6 0007B2E0 ?CalcJitterTargetFixed@CBullet@@QAEXMMM@Z
       1240  4D7 0013C080 ?CalcLerpedWeaponPosition@CPlayerWeapons@@QAEXV?$Vector@M$02@@AAVCPlacement3D@@H@Z
       1241  4D8 00165EF0 ?CalcPlaneDelta@CUnit@@QAE?AV?$Vector@M$02@@PAVCEntity@@@Z
       1242  4D9 00166000 ?CalcPlaneDist@CUnit@@QAEMPAVCEntity@@@Z
       1243  4DA 0007AE40 ?CalcTarget@CBullet@@QAEXM@Z
       1244  4DB 0007AEE0 ?CalcTarget@CBullet@@QAEXPAVCEntity@@M@Z
       1245  4DC 0013BCD0 ?CalcWeaponPosition3rdPersonView@CPlayerWeapons@@QAEXV?$Vector@M$02@@AAVCPlacement3D@@H@Z
       1246  4DD 0013BEA0 ?CalcWeaponPosition@CPlayerWeapons@@QAEXV?$Vector@M$02@@AAVCPlacement3D@@H@Z
       1247  4DE 0013C250 ?CalcWeaponPositionImprecise@CPlayerWeapons@@QAEXV?$Vector@M$02@@AAVCPlacement3D@@HM@Z
       1248  4DF 00108620 ?CalculateViewRotationDamping@CPlayer@@QAEMXZ
       1249  4E0 00094350 ?CanAttackEnemy@CCharacterBase@@QAEHPAVCEntity@@M@Z
       1250  4E1 000B1EB0 ?CanAttackEnemy@CEnemyBase@@QAEHPAVCEntity@@M@Z
       1251  4E2 000F0470 ?CanAttackEnemy@CPetBase@@QAEHPAVCEntity@@M@Z
       1252  4E3 00152C50 ?CanAttackEnemy@CSlaveBase@@QAEHPAVCEntity@@M@Z
       1253  4E4 00172DC0 ?CanAttackEnemy@CWildPetBase@@QAEHPAVCEntity@@M@Z
       1254  4E5 00094390 ?CanHitEnemy@CCharacterBase@@UAEHPAVCEntity@@M@Z
       1255  4E6 000B1F00 ?CanHitEnemy@CEnemyBase@@UAEHPAVCEntity@@M@Z
       1256  4E7 000F04C0 ?CanHitEnemy@CPetBase@@UAEHPAVCEntity@@M@Z
       1257  4E8 00152CC0 ?CanHitEnemy@CSlaveBase@@UAEHPAVCEntity@@M@Z
       1258  4E9 00100060 ?CancelProduct@CPlayer@@UAEXXZ
       1259  4EA 001227C0 ?CancelSkill@CPlayer@@UAEXHHH@Z
       1260  4EB 002454C8 ?CauseOfDeath_enum@@3VCEntityPropertyEnumType@@A
       1261  4EC 00244D70 ?CauseOfDeath_values@@3PAVCEntityPropertyEnumValue@@A
       1262  4ED 001404E0 ?ChainsawBringUp@CPlayerWeapons@@QAEHABVCEntityEvent@@@Z
       1263  4EE 0013FCD0 ?ChainsawFire@CPlayerWeapons@@QAEHABVCEntityEvent@@@Z
       1264  4EF 00241464 ?ChangeAnimType_enum@@3VCEntityPropertyEnumType@@A
       1265  4F0 00241408 ?ChangeAnimType_values@@3PAVCEntityPropertyEnumValue@@A
       1266  4F1 000FE1C0 ?ChangeFaceMesh@CPlayer@@UAEXPAVCModelInstance@@HC@Z
       1267  4F2 000FE420 ?ChangeHairMesh@CPlayer@@UAEXPAVCModelInstance@@HC@Z
       1268  4F3 00140710 ?ChangeKnifeStand@CPlayerWeapons@@QAEHABVCEntityEvent@@@Z
       1269  4F4 001082C0 ?ChangePlayerView@CPlayer@@QAEXXZ
       1270  4F5 001341D0 ?ChangeView@CPlayerAnimator@@QAEXAAVCPlacement3D@@@Z
       1271  4F6 001146A0 ?ChangeWholeAnim@CPlayer@@QAEXJKMMM@Z
       1272  4F7 0010A1D0 ?CharacterChanged@CPlayer@@UAEXABVCPlayerCharacter@@@Z
       1273  4F8 00095510 ?ChargeAnim@CCharacterBase@@UAEXXZ
       1274  4F9 000B3080 ?ChargeAnim@CEnemyBase@@UAEXXZ
       1275  4FA 000F1640 ?ChargeAnim@CPetBase@@UAEXXZ
       1276  4FB 00153E00 ?ChargeAnim@CSlaveBase@@UAEXXZ
       1277  4FC 001734A0 ?ChargeAnim@CWildPetBase@@UAEXXZ
       1278  4FD 0013E7C0 ?CheatGiveAll@CPlayerWeapons@@QAEXXZ
       1279  4FE 0013E730 ?CheatOpen@CPlayerWeapons@@QAEXXZ
       1280  4FF 00111590 ?CheatsEnabled@CPlayer@@QAEHXZ
       1281  500 0011F370 ?CheckAction@CPlayer@@QAEHXZ
       1282  501 00168A50 ?CheckAnotherPlayer@CWatcher@@QAEPAVCEntity@@PAV2@@Z
       1283  502 000FD550 ?CheckAttackCharacter@CPlayer@@QAEHPAVCEntity@@M@Z
       1284  503 000FD960 ?CheckAttackEnemy@CPlayer@@QAEHPAVCEntity@@M@Z
       1285  504 000FD7D0 ?CheckAttackPet@CPlayer@@QAEHPAVCEntity@@M@Z
       1286  505 000FD8E0 ?CheckAttackSlave@CPlayer@@QAEHPAVCEntity@@M@Z
       1287  506 000FD300 ?CheckAttackTarget@CPlayer@@UAEHJPAVCEntity@@M@Z
       1288  507 000FD850 ?CheckAttackWildPet@CPlayer@@QAEHPAVCEntity@@M@Z
       1289  508 00125E60 ?CheckChangeCondition@CPlayer@@UAEHJJ@Z
       1290  509 0013A4B0 ?CheckCharacterMove@CPlayerWeapons@@QAEHVCCastRay@@@Z
       1291  50A 00168830 ?CheckCloserPlayer@CWatcher@@QAEPAVCEntity@@PAV2@M@Z
       1292  50B 00118870 ?CheckDeathForRespawnInPlace@CPlayer@@QAEXVEPlayerDeath@@@Z
       1293  50C 000FD3E0 ?CheckDratanWarInside@CPlayer@@QAEHPAVCCharacterTarget@@@Z
       1294  50D 000FD3C0 ?CheckEntityOfTarget@CPlayer@@UAEHPAVCEntity@@0@Z
       1295  50E 000F7180 ?CheckEntityVersion@@YAXXZ
       1296  50F 0010A8D0 ?CheckEscKey@CPlayer@@UAEHXZ
       1297  510 00122C80 ?CheckField@CPlayer@@QAEXXZ
       1298  511 000C4A30 ?CheckIDs@EActivate@@UAEHXZ
       1299  512 00079580 ?CheckIDs@EActivateBlend@@UAEHXZ
       1300  513 000F7E30 ?CheckIDs@EAddBulletSpray@@UAEHXZ
       1301  514 000F7F40 ?CheckIDs@EAddGoreSpray@@UAEHXZ
       1302  515 000C5070 ?CheckIDs@EAddHostile@@UAEHXZ
       1303  516 00133770 ?CheckIDs@EAnimatorInit@@UAEHXZ
       1304  517 000A29F0 ?CheckIDs@EArchitectureDeath@@UAEHXZ
       1305  518 000AA050 ?CheckIDs@EAttackDamage@@UAEHXZ
       1306  519 000F7940 ?CheckIDs@EAutoAction@@UAEHXZ
       1307  51A 000F75A0 ?CheckIDs@EAutoLogin@@UAEHXZ
       1308  51B 000AFFF0 ?CheckIDs@EBlowUp@@UAEHXZ
       1309  51C 00139BB0 ?CheckIDs@EBoringWeapon@@UAEHXZ
       1310  51D 000DFCE0 ?CheckIDs@EBrushDeath@@UAEHXZ
       1311  51E 000DFAC0 ?CheckIDs@EBrushDestroyed@@UAEHXZ
       1312  51F 0007AD30 ?CheckIDs@EBulletInit@@UAEHXZ
       1313  520 000F7380 ?CheckIDs@ECameraStart@@UAEHXZ
       1314  521 000F74A0 ?CheckIDs@ECameraStop@@UAEHXZ
       1315  522 00081710 ?CheckIDs@EChaAttackDamage@@UAEHXZ
       1316  523 00081790 ?CheckIDs@EChaSkillDamage@@UAEHXZ
       1317  524 00072F90 ?CheckIDs@EChangeAnim@@UAEHXZ
       1318  525 000C7AF0 ?CheckIDs@EChangeGravity@@UAEHXZ
       1319  526 000E48F0 ?CheckIDs@EChangeMusic@@UAEHXZ
       1320  527 00092190 ?CheckIDs@ECharBaseDamage@@UAEHXZ
       1321  528 00092060 ?CheckIDs@ECharBaseDeath@@UAEHXZ
       1322  529 00092270 ?CheckIDs@ECharBlowUp@@UAEHXZ
       1323  52A 00091F40 ?CheckIDs@ECharForceWound@@UAEHXZ
       1324  52B 00091EC0 ?CheckIDs@ECharReconsiderBehavior@@UAEHXZ
       1325  52C 0009D350 ?CheckIDs@ECopierTrigger@@UAEHXZ
       1326  52D 000C5850 ?CheckIDs@ECredits@@UAEHXZ
       1327  52E 000C4AA0 ?CheckIDs@EDeactivate@@UAEHXZ
       1328  52F 00079600 ?CheckIDs@EDeactivateBlend@@UAEHXZ
       1329  530 000F7820 ?CheckIDs@EDisconnected@@UAEHXZ
       1330  531 000C5130 ?CheckIDs@EDoorControll@@UAEHXZ
       1331  532 000C4BF0 ?CheckIDs@EEnd@@UAEHXZ
       1332  533 000AFF10 ?CheckIDs@EEnemyBaseDamage@@UAEHXZ
       1333  534 000AFDE0 ?CheckIDs@EEnemyBaseDeath@@UAEHXZ
       1334  535 000C4B10 ?CheckIDs@EEnvironmentStart@@UAEHXZ
       1335  536 000C4B80 ?CheckIDs@EEnvironmentStop@@UAEHXZ
       1336  537 00142EA0 ?CheckIDs@EExplode@@UAEHXZ
       1337  538 00139C30 ?CheckIDs@EFireWeapon@@UAEHXZ
       1338  539 000C3100 ?CheckIDs@EFlame@@UAEHXZ
       1339  53A 0015E300 ?CheckIDs@EFlipTheSwitch@@UAEHXZ
       1340  53B 000AFCC0 ?CheckIDs@EForceWound@@UAEHXZ
       1341  53C 000DFA40 ?CheckIDs@EHit@@UAEHXZ
       1342  53D 000C59E0 ?CheckIDs@EHitBySpaceShipBeam@@UAEHXZ
       1343  53E 000C5720 ?CheckIDs@EHudPicFX@@UAEHXZ
       1344  53F 000C5270 ?CheckIDs@EKilledEnemy@@UAEHXZ
       1345  540 00142DE0 ?CheckIDs@ELaunchProjectile@@UAEHXZ
       1346  541 000C96E0 ?CheckIDs@EMarkPicked@@UAEHXZ
       1347  542 000D9860 ?CheckIDs@EModel2Activate@@UAEHXZ
       1348  543 000D98E0 ?CheckIDs@EModel2Deactivate@@UAEHXZ
       1349  544 000DC460 ?CheckIDs@EModel3Action@@UAEHXZ
       1350  545 000DC360 ?CheckIDs@EModel3Activate@@UAEHXZ
       1351  546 000DC3E0 ?CheckIDs@EModel3Deactivate@@UAEHXZ
       1352  547 000D6D30 ?CheckIDs@EModelDeath@@UAEHXZ
       1353  548 000E3EA0 ?CheckIDs@EMusicChangerTrigger@@UAEHXZ
       1354  549 000E49D0 ?CheckIDs@ENetChangeMusic@@UAEHXZ
       1355  54A 00139EF0 ?CheckIDs@ENetFireWeapon@@UAEHXZ
       1356  54B 00139F70 ?CheckIDs@ENetReleaseWeapon@@UAEHXZ
       1357  54C 00139FF0 ?CheckIDs@ENetReloadWeapon@@UAEHXZ
       1358  54D 00139E70 ?CheckIDs@ENetSelectWeapon@@UAEHXZ
       1359  54E 000B95A0 ?CheckIDs@ENetSpawnEntity@@UAEHXZ
       1360  54F 000A6970 ?CheckIDs@ENetTrigger@@UAEHXZ
       1361  550 000E76D0 ?CheckIDs@EParticlesActivate@@UAEHXZ
       1362  551 000E7750 ?CheckIDs@EParticlesDeactivate@@UAEHXZ
       1363  552 000E9710 ?CheckIDs@EPetAttackDamage@@UAEHXZ
       1364  553 000EE420 ?CheckIDs@EPetBaseBlowUp@@UAEHXZ
       1365  554 000EE340 ?CheckIDs@EPetBaseDamage@@UAEHXZ
       1366  555 000EE210 ?CheckIDs@EPetBaseDeath@@UAEHXZ
       1367  556 000EE0F0 ?CheckIDs@EPetBaseForceWound@@UAEHXZ
       1368  557 000EE070 ?CheckIDs@EPetBaseReconsiderBehavior@@UAEHXZ
       1369  558 001592E0 ?CheckIDs@EPlaySoundOnce@@UAEHXZ
       1370  559 000F7BC0 ?CheckIDs@EPlayerDeath@@UAEHXZ
       1371  55A 000F7A90 ?CheckIDs@EPlayerKilledEnemy@@UAEHXZ
       1372  55B 000F77A0 ?CheckIDs@EPlayerRebirth@@UAEHXZ
       1373  55C 000F7D30 ?CheckIDs@EPlayerStats@@UAEHXZ
       1374  55D 000D6CB0 ?CheckIDs@ERangeModelDestruction@@UAEHXZ
       1375  55E 000F76E0 ?CheckIDs@ERebirth@@UAEHXZ
       1376  55F 000C95C0 ?CheckIDs@EReceiveItem@@UAEHXZ
       1377  560 000AFC40 ?CheckIDs@EReconsiderBehavior@@UAEHXZ
       1378  561 00139CB0 ?CheckIDs@EReleaseWeapon@@UAEHXZ
       1379  562 00139D30 ?CheckIDs@EReloadWeapon@@UAEHXZ
       1380  563 000C4E40 ?CheckIDs@EReminder@@UAEHXZ
       1381  564 00147C30 ?CheckIDs@EReminderInit@@UAEHXZ
       1382  565 000C54C0 ?CheckIDs@EScroll@@UAEHXZ
       1383  566 00139B30 ?CheckIDs@ESelectWeapon@@UAEHXZ
       1384  567 000C97A0 ?CheckIDs@ESetType@@UAEHXZ
       1385  568 00074860 ?CheckIDs@ESetViewer@@UAEHXZ
       1386  569 000F7C40 ?CheckIDs@EShowConsole@@UAEHXZ
       1387  56A 0014A6C0 ?CheckIDs@ESlaveAttackDamage@@UAEHXZ
       1388  56B 00150B90 ?CheckIDs@ESlaveBaseBlowUp@@UAEHXZ
       1389  56C 00150AB0 ?CheckIDs@ESlaveBaseDamage@@UAEHXZ
       1390  56D 00150980 ?CheckIDs@ESlaveBaseDeath@@UAEHXZ
       1391  56E 00150860 ?CheckIDs@ESlaveBaseForceWound@@UAEHXZ
       1392  56F 00150760 ?CheckIDs@ESlaveBaseReconsiderBehavior@@UAEHXZ
       1393  570 001507E0 ?CheckIDs@ESlaveFoundNewEnemy@@UAEHXZ
       1394  571 000F7520 ?CheckIDs@ESlaveKilledEnemy@@UAEHXZ
       1395  572 000C5390 ?CheckIDs@ESound@@UAEHXZ
       1396  573 0009F710 ?CheckIDs@ESpawnDebris@@UAEHXZ
       1397  574 000A0D40 ?CheckIDs@ESpawnDebrisSka@@UAEHXZ
       1398  575 00074EE0 ?CheckIDs@ESpawnEffect@@UAEHXZ
       1399  576 000A7F30 ?CheckIDs@ESpawnEffector@@UAEHXZ
       1400  577 00143010 ?CheckIDs@ESpawnFlame@@UAEHXZ
       1401  578 0007A060 ?CheckIDs@ESpawnSpray@@UAEHXZ
       1402  579 000C49C0 ?CheckIDs@EStart@@UAEHXZ
       1403  57A 000C4EB0 ?CheckIDs@EStartAttack@@UAEHXZ
       1404  57B 000DFB40 ?CheckIDs@EStartSounds@@UAEHXZ
       1405  57C 000C48A0 ?CheckIDs@EStop@@UAEHXZ
       1406  57D 000C4F20 ?CheckIDs@EStopAttack@@UAEHXZ
       1407  57E 000C4F90 ?CheckIDs@EStopBlindness@@UAEHXZ
       1408  57F 000C5000 ?CheckIDs@EStopDeafness@@UAEHXZ
       1409  580 000C31E0 ?CheckIDs@EStopFlaming@@UAEHXZ
       1410  581 000F7660 ?CheckIDs@EStopLerp@@UAEHXZ
       1411  582 000DFBC0 ?CheckIDs@EStopSounds@@UAEHXZ
       1412  583 00159FA0 ?CheckIDs@EStormEnvironmentStart@@UAEHXZ
       1413  584 0015A020 ?CheckIDs@EStormStart@@UAEHXZ
       1414  585 0015A0A0 ?CheckIDs@EStormStop@@UAEHXZ
       1415  586 0015FF20 ?CheckIDs@ETeleportActivate@@UAEHXZ
       1416  587 0015FFA0 ?CheckIDs@ETeleportDeactivate@@UAEHXZ
       1417  588 000C4D80 ?CheckIDs@ETeleportMovingBrush@@UAEHXZ
       1418  589 000C55F0 ?CheckIDs@ETextFX@@UAEHXZ
       1419  58A 000C4D10 ?CheckIDs@ETrigger@@UAEHXZ
       1420  58B 000A7FD0 ?CheckIDs@ETriggerEffector@@UAEHXZ
       1421  58C 000CD3E0 ?CheckIDs@ETriggerLightning@@UAEHXZ
       1422  58D 00136A70 ?CheckIDs@ETriggerPlayerMarker@@UAEHXZ
       1423  58E 00137250 ?CheckIDs@EViewInit@@UAEHXZ
       1424  58F 000C5970 ?CheckIDs@EVoiceMessage@@UAEHXZ
       1425  590 001681B0 ?CheckIDs@EWatch@@UAEHXZ
       1426  591 00168090 ?CheckIDs@EWatcherInit@@UAEHXZ
       1427  592 00139DB0 ?CheckIDs@EWeaponChanged@@UAEHXZ
       1428  593 00141BB0 ?CheckIDs@EWeaponEffectInit@@UAEHXZ
       1429  594 00139A70 ?CheckIDs@EWeaponsInit@@UAEHXZ
       1430  595 000C0410 ?CheckIDs@EWeatherStart@@UAEHXZ
       1431  596 000C0490 ?CheckIDs@EWeatherStop@@UAEHXZ
       1432  597 0016AD50 ?CheckIDs@EWildPetAttackDamage@@UAEHXZ
       1433  598 00171B30 ?CheckIDs@EWildPetBaseDamage@@UAEHXZ
       1434  599 00171A00 ?CheckIDs@EWildPetBaseDeath@@UAEHXZ
       1435  59A 001718E0 ?CheckIDs@EWildPetBaseReconsiderBehavior@@UAEHXZ
       1436  59B 001684E0 ?CheckIfPlayerVisible@CWatcher@@QAEXXZ
       1437  59C 000FD230 ?CheckNormalAttack@CPlayer@@UAEHPAVCEntity@@M@Z
       1438  59D 0011E250 ?CheckSkill@CPlayer@@UAEHXZ
       1439  59E 0011DDC0 ?CheckSkillBuffer@CPlayer@@QAEHXZ
       1440  59F 00118F60 ?CheckTarget@CPlayer@@QAEHXZ
       1441  5A0 00165CD0 ?CheckTarget@CUnit@@UAEHPAVCEntity@@@Z
       1442  5A1 00172120 ?CheckTarget@CWildPetBase@@UAEHPAVCEntity@@@Z
       1443  5A2 00244CD0 ?ClasificationBits_enum@@3VCEntityPropertyEnumType@@A
       1444  5A3 00245120 ?ClasificationBits_values@@3PAVCEntityPropertyEnumValue@@A
       1445  5A4 00036DB0 ?Clear@CCompMessageID@@QAEXXZ
       1446  5A5 000F9030 ?ClearActionApplied@CPlayer@@UAEXXZ
       1447  5A6 00101D00 ?ClearBulletSprayLaunchData@CPlayer@@QAEXXZ
       1448  5A7 00101E20 ?ClearGoreSprayLaunchData@CPlayer@@QAEXXZ
       1449  5A8 0011BF50 ?ClearMove@CPlayer@@UAEXXZ
       1450  5A9 001216A0 ?ClearMultiTargets@CPlayer@@UAEXXZ
       1451  5AA 000F9060 ?ClearReapplyingActions@CPlayer@@UAEXXZ
       1452  5AB 00101C10 ?ClearShellLaunchData@CPlayer@@QAEXXZ
       1453  5AC 00124690 ?ClearTargetInfo@CPlayer@@UAEXPAVCEntity@@@Z
       1454  5AD 00071F00 ?ClearToDefault@@YAXAAVEActivate@@@Z
       1455  5AE 00079EB0 ?ClearToDefault@@YAXAAVEActivateBlend@@@Z
       1456  5AF 0004AFE0 ?ClearToDefault@@YAXAAVEAddBulletSpray@@@Z
       1457  5B0 0004B050 ?ClearToDefault@@YAXAAVEAddGoreSpray@@@Z
       1458  5B1 00071F30 ?ClearToDefault@@YAXAAVEAddHostile@@@Z
       1459  5B2 001315F0 ?ClearToDefault@@YAXAAVEAnimatorInit@@@Z
       1460  5B3 0009B060 ?ClearToDefault@@YAXAAVEArchitectureDeath@@@Z
       1461  5B4 0004B0D0 ?ClearToDefault@@YAXAAVEAttackDamage@@@Z
       1462  5B5 0004B100 ?ClearToDefault@@YAXAAVEAutoAction@@@Z
       1463  5B6 0004B180 ?ClearToDefault@@YAXAAVEAutoLogin@@@Z
       1464  5B7 0004B1B0 ?ClearToDefault@@YAXAAVEBlowUp@@@Z
       1465  5B8 00053630 ?ClearToDefault@@YAXAAVEBoringWeapon@@@Z
       1466  5B9 00079360 ?ClearToDefault@@YAXAAVEBrushDeath@@@Z
       1467  5BA 000793E0 ?ClearToDefault@@YAXAAVEBrushDestroyed@@@Z
       1468  5BB 0004B220 ?ClearToDefault@@YAXAAVEBulletInit@@@Z
       1469  5BC 0004B2A0 ?ClearToDefault@@YAXAAVECameraStart@@@Z
       1470  5BD 0004B330 ?ClearToDefault@@YAXAAVECameraStop@@@Z
       1471  5BE 0004B3C0 ?ClearToDefault@@YAXAAVEChaAttackDamage@@@Z
       1472  5BF 0004B3F0 ?ClearToDefault@@YAXAAVEChaSkillDamage@@@Z
       1473  5C0 0004B420 ?ClearToDefault@@YAXAAVEChangeAnim@@@Z
       1474  5C1 000C7940 ?ClearToDefault@@YAXAAVEChangeGravity@@@Z
       1475  5C2 0004B480 ?ClearToDefault@@YAXAAVEChangeMusic@@@Z
       1476  5C3 0004B510 ?ClearToDefault@@YAXAAVECharBaseDamage@@@Z
       1477  5C4 0004B5D0 ?ClearToDefault@@YAXAAVECharBaseDeath@@@Z
       1478  5C5 0004B650 ?ClearToDefault@@YAXAAVECharBlowUp@@@Z
       1479  5C6 0004B6C0 ?ClearToDefault@@YAXAAVECharForceWound@@@Z
       1480  5C7 0004B6F0 ?ClearToDefault@@YAXAAVECharReconsiderBehavior@@@Z
       1481  5C8 0009E270 ?ClearToDefault@@YAXAAVECopierTrigger@@@Z
       1482  5C9 00071F60 ?ClearToDefault@@YAXAAVECredits@@@Z
       1483  5CA 00071FF0 ?ClearToDefault@@YAXAAVEDeactivate@@@Z
       1484  5CB 00079EE0 ?ClearToDefault@@YAXAAVEDeactivateBlend@@@Z
       1485  5CC 0004B720 ?ClearToDefault@@YAXAAVEDisconnected@@@Z
       1486  5CD 00072020 ?ClearToDefault@@YAXAAVEDoorControll@@@Z
       1487  5CE 00072060 ?ClearToDefault@@YAXAAVEEnd@@@Z
       1488  5CF 0004B750 ?ClearToDefault@@YAXAAVEEnemyBaseDamage@@@Z
       1489  5D0 0004B810 ?ClearToDefault@@YAXAAVEEnemyBaseDeath@@@Z
       1490  5D1 00072090 ?ClearToDefault@@YAXAAVEEnvironmentStart@@@Z
       1491  5D2 000720C0 ?ClearToDefault@@YAXAAVEEnvironmentStop@@@Z
       1492  5D3 0004B890 ?ClearToDefault@@YAXAAVEExplode@@@Z
       1493  5D4 00053660 ?ClearToDefault@@YAXAAVEFireWeapon@@@Z
       1494  5D5 0004B8F0 ?ClearToDefault@@YAXAAVEFlame@@@Z
       1495  5D6 00131670 ?ClearToDefault@@YAXAAVEFlipTheSwitch@@@Z
       1496  5D7 0004B990 ?ClearToDefault@@YAXAAVEForceWound@@@Z
       1497  5D8 00079410 ?ClearToDefault@@YAXAAVEHit@@@Z
       1498  5D9 000720F0 ?ClearToDefault@@YAXAAVEHitBySpaceShipBeam@@@Z
       1499  5DA 00072120 ?ClearToDefault@@YAXAAVEHudPicFX@@@Z
       1500  5DB 000721B0 ?ClearToDefault@@YAXAAVEKilledEnemy@@@Z
       1501  5DC 0004B9C0 ?ClearToDefault@@YAXAAVELaunchProjectile@@@Z
       1502  5DD 000CB660 ?ClearToDefault@@YAXAAVEMarkPicked@@@Z
       1503  5DE 0004BA50 ?ClearToDefault@@YAXAAVEModel2Activate@@@Z
       1504  5DF 0004BA80 ?ClearToDefault@@YAXAAVEModel2Deactivate@@@Z
       1505  5E0 0004BAB0 ?ClearToDefault@@YAXAAVEModel3Action@@@Z
       1506  5E1 0004BAE0 ?ClearToDefault@@YAXAAVEModel3Activate@@@Z
       1507  5E2 0004BB10 ?ClearToDefault@@YAXAAVEModel3Deactivate@@@Z
       1508  5E3 0004BB40 ?ClearToDefault@@YAXAAVEModelDeath@@@Z
       1509  5E4 000E4750 ?ClearToDefault@@YAXAAVEMusicChangerTrigger@@@Z
       1510  5E5 0004BB70 ?ClearToDefault@@YAXAAVENetChangeMusic@@@Z
       1511  5E6 00053690 ?ClearToDefault@@YAXAAVENetFireWeapon@@@Z
       1512  5E7 000536C0 ?ClearToDefault@@YAXAAVENetReleaseWeapon@@@Z
       1513  5E8 000536F0 ?ClearToDefault@@YAXAAVENetReloadWeapon@@@Z
       1514  5E9 00053720 ?ClearToDefault@@YAXAAVENetSelectWeapon@@@Z
       1515  5EA 0004BBB0 ?ClearToDefault@@YAXAAVENetSpawnEntity@@@Z
       1516  5EB 000A7DB0 ?ClearToDefault@@YAXAAVENetTrigger@@@Z
       1517  5EC 000E8BF0 ?ClearToDefault@@YAXAAVEParticlesActivate@@@Z
       1518  5ED 000E8C20 ?ClearToDefault@@YAXAAVEParticlesDeactivate@@@Z
       1519  5EE 000EDFC0 ?ClearToDefault@@YAXAAVEPetAttackDamage@@@Z
       1520  5EF 0004BC20 ?ClearToDefault@@YAXAAVEPetBaseBlowUp@@@Z
       1521  5F0 0004BC90 ?ClearToDefault@@YAXAAVEPetBaseDamage@@@Z
       1522  5F1 0004BD50 ?ClearToDefault@@YAXAAVEPetBaseDeath@@@Z
       1523  5F2 0004BDD0 ?ClearToDefault@@YAXAAVEPetBaseForceWound@@@Z
       1524  5F3 0004BE00 ?ClearToDefault@@YAXAAVEPetBaseReconsiderBehavior@@@Z
       1525  5F4 0004BE30 ?ClearToDefault@@YAXAAVEPlaySoundOnce@@@Z
       1526  5F5 0004BE60 ?ClearToDefault@@YAXAAVEPlayerDeath@@@Z
       1527  5F6 0004BF20 ?ClearToDefault@@YAXAAVEPlayerKilledEnemy@@@Z
       1528  5F7 0004BFB0 ?ClearToDefault@@YAXAAVEPlayerRebirth@@@Z
       1529  5F8 0004BFF0 ?ClearToDefault@@YAXAAVEPlayerStats@@@Z
       1530  5F9 0004C040 ?ClearToDefault@@YAXAAVERangeModelDestruction@@@Z
       1531  5FA 0004C070 ?ClearToDefault@@YAXAAVERebirth@@@Z
       1532  5FB 000CB6E0 ?ClearToDefault@@YAXAAVEReceiveItem@@@Z
       1533  5FC 0004C0A0 ?ClearToDefault@@YAXAAVEReconsiderBehavior@@@Z
       1534  5FD 00053760 ?ClearToDefault@@YAXAAVEReleaseWeapon@@@Z
       1535  5FE 00053790 ?ClearToDefault@@YAXAAVEReloadWeapon@@@Z
       1536  5FF 00072250 ?ClearToDefault@@YAXAAVEReminder@@@Z
       1537  600 0004C0D0 ?ClearToDefault@@YAXAAVEReminderInit@@@Z
       1538  601 00072290 ?ClearToDefault@@YAXAAVEScroll@@@Z
       1539  602 000537C0 ?ClearToDefault@@YAXAAVESelectWeapon@@@Z
       1540  603 000CB710 ?ClearToDefault@@YAXAAVESetType@@@Z
       1541  604 0004C160 ?ClearToDefault@@YAXAAVESetViewer@@@Z
       1542  605 0004C190 ?ClearToDefault@@YAXAAVEShowConsole@@@Z
       1543  606 001316B0 ?ClearToDefault@@YAXAAVESlaveAttackDamage@@@Z
       1544  607 0004C1C0 ?ClearToDefault@@YAXAAVESlaveBaseBlowUp@@@Z
       1545  608 0004C230 ?ClearToDefault@@YAXAAVESlaveBaseDamage@@@Z
       1546  609 0004C2F0 ?ClearToDefault@@YAXAAVESlaveBaseDeath@@@Z
       1547  60A 0004C370 ?ClearToDefault@@YAXAAVESlaveBaseForceWound@@@Z
       1548  60B 0004C3A0 ?ClearToDefault@@YAXAAVESlaveBaseReconsiderBehavior@@@Z
       1549  60C 0004C3D0 ?ClearToDefault@@YAXAAVESlaveFoundNewEnemy@@@Z
       1550  60D 0004C400 ?ClearToDefault@@YAXAAVESlaveKilledEnemy@@@Z
       1551  60E 00072320 ?ClearToDefault@@YAXAAVESound@@@Z
       1552  60F 0004C430 ?ClearToDefault@@YAXAAVESpawnDebris@@@Z
       1553  610 0004C4B0 ?ClearToDefault@@YAXAAVESpawnDebrisSka@@@Z
       1554  611 0004C550 ?ClearToDefault@@YAXAAVESpawnEffect@@@Z
       1555  612 000A46A0 ?ClearToDefault@@YAXAAVESpawnEffector@@@Z
       1556  613 0004C5D0 ?ClearToDefault@@YAXAAVESpawnFlame@@@Z
       1557  614 0004C690 ?ClearToDefault@@YAXAAVESpawnSpray@@@Z
       1558  615 000723B0 ?ClearToDefault@@YAXAAVEStart@@@Z
       1559  616 00072440 ?ClearToDefault@@YAXAAVEStartAttack@@@Z
       1560  617 00079440 ?ClearToDefault@@YAXAAVEStartSounds@@@Z
       1561  618 00072470 ?ClearToDefault@@YAXAAVEStop@@@Z
       1562  619 000724A0 ?ClearToDefault@@YAXAAVEStopAttack@@@Z
       1563  61A 000724D0 ?ClearToDefault@@YAXAAVEStopBlindness@@@Z
       1564  61B 00072500 ?ClearToDefault@@YAXAAVEStopDeafness@@@Z
       1565  61C 0004C750 ?ClearToDefault@@YAXAAVEStopFlaming@@@Z
       1566  61D 0004C790 ?ClearToDefault@@YAXAAVEStopLerp@@@Z
       1567  61E 00079470 ?ClearToDefault@@YAXAAVEStopSounds@@@Z
       1568  61F 0015BFD0 ?ClearToDefault@@YAXAAVEStormEnvironmentStart@@@Z
       1569  620 0015C000 ?ClearToDefault@@YAXAAVEStormStart@@@Z
       1570  621 0015C030 ?ClearToDefault@@YAXAAVEStormStop@@@Z
       1571  622 00160F70 ?ClearToDefault@@YAXAAVETeleportActivate@@@Z
       1572  623 00160FA0 ?ClearToDefault@@YAXAAVETeleportDeactivate@@@Z
       1573  624 00072530 ?ClearToDefault@@YAXAAVETeleportMovingBrush@@@Z
       1574  625 00072560 ?ClearToDefault@@YAXAAVETextFX@@@Z
       1575  626 000725F0 ?ClearToDefault@@YAXAAVETrigger@@@Z
       1576  627 000A4720 ?ClearToDefault@@YAXAAVETriggerEffector@@@Z
       1577  628 000CE850 ?ClearToDefault@@YAXAAVETriggerLightning@@@Z
       1578  629 001316E0 ?ClearToDefault@@YAXAAVETriggerPlayerMarker@@@Z
       1579  62A 00131760 ?ClearToDefault@@YAXAAVEViewInit@@@Z
       1580  62B 00072680 ?ClearToDefault@@YAXAAVEVoiceMessage@@@Z
       1581  62C 0004C7D0 ?ClearToDefault@@YAXAAVEWatch@@@Z
       1582  62D 0004C850 ?ClearToDefault@@YAXAAVEWatcherInit@@@Z
       1583  62E 00053800 ?ClearToDefault@@YAXAAVEWeaponChanged@@@Z
       1584  62F 00053830 ?ClearToDefault@@YAXAAVEWeaponEffectInit@@@Z
       1585  630 000538C0 ?ClearToDefault@@YAXAAVEWeaponsInit@@@Z
       1586  631 0006C930 ?ClearToDefault@@YAXAAVEWeatherStart@@@Z
       1587  632 0006C960 ?ClearToDefault@@YAXAAVEWeatherStop@@@Z
       1588  633 0004C8D0 ?ClearToDefault@@YAXAAVEWildPetAttackDamage@@@Z
       1589  634 0004C900 ?ClearToDefault@@YAXAAVEWildPetBaseDamage@@@Z
       1590  635 0004C9C0 ?ClearToDefault@@YAXAAVEWildPetBaseDeath@@@Z
       1591  636 0004CA40 ?ClearToDefault@@YAXAAVEWildPetBaseReconsiderBehavior@@@Z
       1592  637 0004CA70 ?ClearToDefault@@YAXAAW4AttackType@@@Z
       1593  638 0004CA80 ?ClearToDefault@@YAXAAW4BasicEffectType@@@Z
       1594  639 00079F10 ?ClearToDefault@@YAXAAW4BlendControllerType@@@Z
       1595  63A 000794A0 ?ClearToDefault@@YAXAAW4BlockAction@@@Z
       1596  63B 00072700 ?ClearToDefault@@YAXAAW4BoolEType@@@Z
       1597  63C 00072710 ?ClearToDefault@@YAXAAW4BulletHitType@@@Z
       1598  63D 00072720 ?ClearToDefault@@YAXAAW4CauseOfDeath@@@Z
       1599  63E 0004CA90 ?ClearToDefault@@YAXAAW4ChangeAnimType@@@Z
       1600  63F 00072730 ?ClearToDefault@@YAXAAW4ClasificationBits@@@Z
       1601  640 0009D280 ?ClearToDefault@@YAXAAW4ColorControllerType@@@Z
       1602  641 0004CAA0 ?ClearToDefault@@YAXAAW4CustomShadingType@@@Z
       1603  642 0004CAB0 ?ClearToDefault@@YAXAAW4DebrisParticlesType@@@Z
       1604  643 000A2970 ?ClearToDefault@@YAXAAW4DebugTargetType@@@Z
       1605  644 0004CAC0 ?ClearToDefault@@YAXAAW4DestinationType@@@Z
       1606  645 0004CAD0 ?ClearToDefault@@YAXAAW4DestructionDebrisType@@@Z
       1607  646 000A6710 ?ClearToDefault@@YAXAAW4DoorType@@@Z
       1608  647 000A7DE0 ?ClearToDefault@@YAXAAW4EffectMarkerType@@@Z
       1609  648 00072740 ?ClearToDefault@@YAXAAW4EffectParticlesType@@@Z
       1610  649 000A4750 ?ClearToDefault@@YAXAAW4EffectorEffectType@@@Z
       1611  64A 0004CAE0 ?ClearToDefault@@YAXAAW4EnemySpawnerType@@@Z
       1612  64B 00072750 ?ClearToDefault@@YAXAAW4EntityInfoBodyType@@@Z
       1613  64C 0006C990 ?ClearToDefault@@YAXAAW4EnvironmentParticlesHolderType@@@Z
       1614  64D 00072760 ?ClearToDefault@@YAXAAW4EventEType@@@Z
       1615  64E 0004CAF0 ?ClearToDefault@@YAXAAW4EventType@@@Z
       1616  64F 00072770 ?ClearToDefault@@YAXAAW4ExtraBits@@@Z
       1617  650 0009B090 ?ClearToDefault@@YAXAAW4FogAttenuationType@@@Z
       1618  651 0009B0A0 ?ClearToDefault@@YAXAAW4FogGraduationType2@@@Z
       1619  652 000C79D0 ?ClearToDefault@@YAXAAW4GravityType@@@Z
       1620  653 000CC0C0 ?ClearToDefault@@YAXAAW4ItemObjType@@@Z
       1621  654 00072780 ?ClearToDefault@@YAXAAW4KillType@@@Z
       1622  655 0004CB00 ?ClearToDefault@@YAXAAW4LensFlareType@@@Z
       1623  656 0004CB10 ?ClearToDefault@@YAXAAW4LightType@@@Z
       1624  657 00072790 ?ClearToDefault@@YAXAAW4MessageSound@@@Z
       1625  658 000CFFB0 ?ClearToDefault@@YAXAAW4MessageViewType@@@Z
       1626  659 0004CB20 ?ClearToDefault@@YAXAAW4MissileType@@@Z
       1627  65A 0004CB30 ?ClearToDefault@@YAXAAW4MobType@@@Z
       1628  65B 0004CB40 ?ClearToDefault@@YAXAAW4MusicType@@@Z
       1629  65C 0004CB50 ?ClearToDefault@@YAXAAW4NickNameEffectType@@@Z
       1630  65D 000727A0 ?ClearToDefault@@YAXAAW4ParticleTexture@@@Z
       1631  65E 000E8C50 ?ClearToDefault@@YAXAAW4ParticlesHolderType@@@Z
       1632  65F 00131810 ?ClearToDefault@@YAXAAW4PlayerAutoAction@@@Z
       1633  660 0004CB60 ?ClearToDefault@@YAXAAW4PlayerState@@@Z
       1634  661 0004CB70 ?ClearToDefault@@YAXAAW4PlayerTeleportCause@@@Z
       1635  662 0004CB80 ?ClearToDefault@@YAXAAW4PlayerViewType@@@Z
       1636  663 0004CB90 ?ClearToDefault@@YAXAAW4ProjectileMovingType@@@Z
       1637  664 0004CBA0 ?ClearToDefault@@YAXAAW4ProjectileType@@@Z
       1638  665 0004CBB0 ?ClearToDefault@@YAXAAW4ShadowType@@@Z
       1639  666 000727B0 ?ClearToDefault@@YAXAAW4SoundType@@@Z
       1640  667 000727C0 ?ClearToDefault@@YAXAAW4SprayParticlesType@@@Z
       1641  668 000E71F0 ?ClearToDefault@@YAXAAW4StreaksBlendType@@@Z
       1642  669 00131820 ?ClearToDefault@@YAXAAW4SwitchType@@@Z
       1643  66A 0009B0B0 ?ClearToDefault@@YAXAAW4TacticType@@@Z
       1644  66B 0004CBC0 ?ClearToDefault@@YAXAAW4TargetType@@@Z
       1645  66C 00164730 ?ClearToDefault@@YAXAAW4TouchFieldType@@@Z
       1646  66D 000794B0 ?ClearToDefault@@YAXAAW4TouchOrDamageEvent@@@Z
       1647  66E 00131830 ?ClearToDefault@@YAXAAW4ViewType@@@Z
       1648  66F 000727D0 ?ClearToDefault@@YAXAAW4VisibilityBits@@@Z
       1649  670 000794C0 ?ClearToDefault@@YAXAAW4WarpRotation@@@Z
       1650  671 000727E0 ?ClearToDefault@@YAXAAW4WeaponBits@@@Z
       1651  672 00053940 ?ClearToDefault@@YAXAAW4WeaponEffectType@@@Z
       1652  673 00053950 ?ClearToDefault@@YAXAAW4WeaponType@@@Z
       1653  674 00131840 ?ClearToDefault@@YAXAAW4WorldLinkType@@@Z
       1654  675 000727F0 ?ClearToDefault@@YAXAAW4ZoneBits@@@Z
       1655  676 00160FD0 ?ClearToDefault@@YAXAAW4eTeleportType@@@Z
       1656  677 0004CBD0 ?ClearToDefault@@YAXAAW4wPetAIState@@@Z
       1657  678 0013E4E0 ?ClearWeapons@CPlayerWeapons@@QAEXXZ
       1658  679 00054AF0 ?CloseParticles@@YAXXZ
       1659  67A 00242780 ?ColorControllerType_enum@@3VCEntityPropertyEnumType@@A
       1660  67B 00242788 ?ColorControllerType_values@@3PAVCEntityPropertyEnumValue@@A
       1661  67C 00121BB0 ?CommandAction@CPlayer@@UAEHXZ
       1662  67D 00121B40 ?CommandAttack@CPlayer@@UAEXXZ
       1663  67E 0009A610 ?ConsensusAnimation@CCharacterBase@@QAEHABVCEntityEvent@@@Z
       1664  67F 00096830 ?ConsensusNow@CCharacterBase@@QAEXXZ
       1665  680 00092EE0 ?Copy@CCharacterBase@@UAEXAAVCEntity@@K@Z
       1666  681 000B0940 ?Copy@CEnemyBase@@UAEXAAVCEntity@@K@Z
       1667  682 000EED70 ?Copy@CPetBase@@UAEXAAVCEntity@@K@Z
       1668  683 00102200 ?Copy@CPlayer@@UAEXAAVCEntity@@K@Z
       1669  684 00143450 ?Copy@CProjectile@@UAEXAAVCEntity@@K@Z
       1670  685 00151910 ?Copy@CSlaveBase@@UAEXAAVCEntity@@K@Z
       1671  686 00172990 ?Copy@CWildPetBase@@UAEXAAVCEntity@@K@Z
       1672  687 000EEB60 ?CountAsKill@CPetBase@@UAEHXZ
       1673  688 001143A0 ?CreateAnimAndBoneIDs@CPlayer@@QAEXXZ
       1674  689 00246318 ?CustomShadingType_enum@@3VCEntityPropertyEnumType@@A
       1675  68A 00246298 ?CustomShadingType_values@@3PAVCEntityPropertyEnumValue@@A
       1676  68B 0013D260 ?CutWithChainsaw@CPlayerWeapons@@QAEHMMMMMM@Z
       1677  68C 0013C560 ?CutWithKnife@CPlayerWeapons@@QAEHMMMMMM@Z
       1678  68D 00134BC0 ?DamageAnim@CPlayerAnimator@@QAEXXZ
       1679  68E 00106E10 ?DamageImpact@CPlayer@@QAEXW4DamageType@@MABV?$Vector@M$02@@1@Z
       1680  68F 000352C0 ?DamageStrength@@YAMW4EntityInfoBodyType@@W4DamageType@@@Z
       1681  690 00098A90 ?Death@CCharacterBase@@QAEHABVCEntityEvent@@@Z
       1682  691 000B61D0 ?Death@CEnemyBase@@QAEHABVCEntityEvent@@@Z
       1683  692 000F4160 ?Death@CPetBase@@QAEHABVCEntityEvent@@@Z
       1684  693 00128330 ?Death@CPlayer@@QAEHABVCEntityEvent@@@Z
       1685  694 00156570 ?Death@CSlaveBase@@QAEHABVCEntityEvent@@@Z
       1686  695 00174DC0 ?Death@CWildPetBase@@QAEHABVCEntityEvent@@@Z
       1687  696 0010FDC0 ?DeathActions@CPlayer@@QAEXABVCPlayerAction@@@Z
       1688  697 00095560 ?DeathNotify@CCharacterBase@@UAEXXZ
       1689  698 000B30D0 ?DeathNotify@CEnemyBase@@UAEXXZ
       1690  699 000F16A0 ?DeathNotify@CPetBase@@UAEXXZ
       1691  69A 00153E50 ?DeathNotify@CSlaveBase@@UAEXXZ
       1692  69B 001734F0 ?DeathNotify@CWildPetBase@@UAEXXZ
       1693  69C 000960B0 ?DeathNow@CCharacterBase@@UAEXXZ
       1694  69D 000B3A30 ?DeathNow@CEnemyBase@@UAEXXZ
       1695  69E 000F20F0 ?DeathNow@CPetBase@@UAEXXZ
       1696  69F 001547C0 ?DeathNow@CSlaveBase@@UAEXXZ
       1697  6A0 00165BF0 ?DeathNow@CUnit@@UAEXXZ
       1698  6A1 00172130 ?DeathNow@CWildPetBase@@UAEXXZ
       1699  6A2 00098D30 ?DeathSequence@CCharacterBase@@QAEHABVCEntityEvent@@@Z
       1700  6A3 000B6980 ?DeathSequence@CEnemyBase@@QAEHABVCEntityEvent@@@Z
       1701  6A4 000F4910 ?DeathSequence@CPetBase@@QAEHABVCEntityEvent@@@Z
       1702  6A5 00156D20 ?DeathSequence@CSlaveBase@@QAEHABVCEntityEvent@@@Z
       1703  6A6 00175470 ?DeathSequence@CWildPetBase@@QAEHABVCEntityEvent@@@Z
       1704  6A7 000955A0 ?DeathSound@CCharacterBase@@UAEXXZ
       1705  6A8 000B3110 ?DeathSound@CEnemyBase@@UAEXXZ
       1706  6A9 000F16E0 ?DeathSound@CPetBase@@UAEXXZ
       1707  6AA 00153E80 ?DeathSound@CSlaveBase@@UAEXXZ
       1708  6AB 00173520 ?DeathSound@CWildPetBase@@UAEXXZ
       1709  6AC 00123450 ?DeathYou@CPlayer@@UAEXXZ
       1710  6AD 00242C08 ?DebrisParticlesType_enum@@3VCEntityPropertyEnumType@@A
       1711  6AE 00242B78 ?DebrisParticlesType_values@@3PAVCEntityPropertyEnumValue@@A
       1712  6AF 00034BC0 ?DebrisSka_Spawn@@YA?AVCEntityPointer@@PAVCEntity@@JMABV?$Vector@M$02@@@Z
       1713  6B0 00035090 ?DebrisSka_Spawn_Independent@@YA?AVCEntityPointer@@PAVCEntity@@JMVCPlacement3D@@V?$Vector@M$02@@2@Z
       1714  6B1 000336A0 ?Debris_Begin@@YAXW4EntityInfoBodyType@@W4DebrisParticlesType@@W4BasicEffectType@@MABV?$Vector@M$02@@3MMKHH@Z
       1715  6B2 00033730 ?Debris_Spawn@@YA?AVCEntityPointer@@PAVCEntity@@0JJJJJJMABV?$Vector@M$02@@@Z
       1716  6B3 00033CB0 ?Debris_Spawn_Independent@@YA?AVCEntityPointer@@PAVCEntity@@0JJJJJJMVCPlacement3D@@V?$Vector@M$02@@2@Z
       1717  6B4 00034140 ?Debris_Spawn_MH2Template_FromMH2@@YA?AVCEntityPointer@@W4EntityInfoBodyType@@W4DebrisParticlesType@@W4BasicEffectType@@PAVCModelHolder2@@PAVCEntity@@3V?$Vector@M$02@@MVCPlacement3D@@55HMK@Z
       1718  6B5 000343E0 ?Debris_Spawn_MH2Template_FromMH3@@YA?AVCEntityPointer@@W4EntityInfoBodyType@@W4DebrisParticlesType@@W4BasicEffectType@@PAVCModelHolder3@@PAVCEntity@@PAVCModelHolder2@@V?$Vector@M$02@@MVCPlacement3D@@66HMK@Z
       1719  6B6 00034680 ?Debris_Spawn_MH3Template_FromMH2@@YA?AVCEntityPointer@@W4EntityInfoBodyType@@W4DebrisParticlesType@@W4BasicEffectType@@PAVCModelHolder2@@PAVCEntity@@PAVCModelHolder3@@V?$Vector@M$02@@MVCPlacement3D@@66HMK@Z
       1720  6B7 00034920 ?Debris_Spawn_MH3Template_FromMH3@@YA?AVCEntityPointer@@W4EntityInfoBodyType@@W4DebrisParticlesType@@W4BasicEffectType@@PAVCModelHolder3@@PAVCEntity@@3V?$Vector@M$02@@MVCPlacement3D@@55HMK@Z
       1721  6B8 00033EA0 ?Debris_Spawn_Template@@YA?AVCEntityPointer@@W4EntityInfoBodyType@@W4DebrisParticlesType@@W4BasicEffectType@@PAVCModelHolder2@@PAVCEntity@@3V?$Vector@M$02@@MVCPlacement3D@@55HMK@Z
       1722  6B9 00242D10 ?DebugTargetType_enum@@3VCEntityPropertyEnumType@@A
       1723  6BA 00242D18 ?DebugTargetType_values@@3PAVCEntityPropertyEnumValue@@A
       1724  6BB 0011D2F0 ?DeleteCurrentArmor@CPlayer@@UAEXH@Z
       1725  6BC 0011D420 ?DeleteDefaultArmor@CPlayer@@UAEXH@Z
       1726  6BD 0011D8B0 ?DeleteWearingWeapon@CPlayer@@UAEXHH@Z
       1727  6BE 0024A300 ?DestinationType_enum@@3VCEntityPropertyEnumType@@A
       1728  6BF 0024A360 ?DestinationType_values@@3PAVCEntityPropertyEnumValue@@A
       1729  6C0 0007B8A0 ?DestroyBullet@CBullet@@QAEXXZ
       1730  6C1 002461D0 ?DestructionDebrisType_enum@@3VCEntityPropertyEnumType@@A
       1731  6C2 00246198 ?DestructionDebrisType_values@@3PAVCEntityPropertyEnumValue@@A
       1732  6C3 0011C1C0 ?DetectFloorHit@CPlayer@@QAEHMMMAAVCPlacement3D@@@Z
       1733  6C4 00098480 ?Die@CCharacterBase@@QAEHABVCEntityEvent@@@Z
       1734  6C5 000B5C10 ?Die@CEnemyBase@@QAEHABVCEntityEvent@@@Z
       1735  6C6 000F3BE0 ?Die@CPetBase@@QAEHABVCEntityEvent@@@Z
       1736  6C7 00156080 ?Die@CSlaveBase@@QAEHABVCEntityEvent@@@Z
       1737  6C8 00174B50 ?Die@CWildPetBase@@QAEHABVCEntityEvent@@@Z
       1738  6C9 00108C50 ?Disconnect@CPlayer@@UAEXXZ
       1739  6CA 00125CA0 ?DisplayChangeErr@CPlayer@@QAEXC@Z
       1740  6CB 00072880 ?DistanceTo@@YAMPAVCEntity@@0@Z
       1741  6CC 0012A430 ?DoAutoActions@CPlayer@@QAEHABVCEntityEvent@@@Z
       1742  6CD 001064B0 ?DoMoving@CPlayer@@UAEXXZ
       1743  6CE 001373B0 ?DoMoving@CPlayerView@@UAEXXZ
       1744  6CF 00242FF8 ?DoorType_enum@@3VCEntityPropertyEnumType@@A
       1745  6D0 00243000 ?DoorType_values@@3PAVCEntityPropertyEnumValue@@A
       1746  6D1 000B3F60 ?DropDeathItem@CEnemyBase@@UAEXXZ
       1747  6D2 000F2580 ?DropDeathItem@CPetBase@@UAEXXZ
       1748  6D3 00123150 ?DropDeathItem@CPlayer@@UAEXPAVCEntity@@@Z
       1749  6D4 00154D60 ?DropDeathItem@CSlaveBase@@UAEXXZ
       1750  6D5 000930C0 ?DropsMarker@CCharacterBase@@UBEHAAVCTFileName@@AAVCTString@@@Z
       1751  6D6 000B0C20 ?DropsMarker@CEnemyBase@@UBEHAAVCTFileName@@AAVCTString@@@Z
       1752  6D7 000E6850 ?DropsMarker@CNavigationMarker@@UBEHAAVCTFileName@@AAVCTString@@@Z
       1753  6D8 000EEF60 ?DropsMarker@CPetBase@@UBEHAAVCTFileName@@AAVCTString@@@Z
       1754  6D9 00151B00 ?DropsMarker@CSlaveBase@@UBEHAAVCTFileName@@AAVCTString@@@Z
       1755  6DA 00169080 ?Dummy@CWatcher@@QAEHABVCEntityEvent@@@Z
       1756  6DB 000F9070 ?DumpToConsole@CPlayer@@UAEXXZ
       1757  6DC 00243370 ?EffectMarkerType_enum@@3VCEntityPropertyEnumType@@A
       1758  6DD 002433C8 ?EffectMarkerType_values@@3PAVCEntityPropertyEnumValue@@A
       1759  6DE 00244CB8 ?EffectParticlesType_enum@@3VCEntityPropertyEnumType@@A
       1760  6DF 00244FA8 ?EffectParticlesType_values@@3PAVCEntityPropertyEnumValue@@A
       1761  6E0 00243460 ?EffectorEffectType_enum@@3VCEntityPropertyEnumType@@A
       1762  6E1 00243468 ?EffectorEffectType_values@@3PAVCEntityPropertyEnumValue@@A
       1763  6E2 001729D0 ?EnemyDestinationPos@CWildPetBase@@UAE?AV?$Vector@M$02@@XZ
       1764  6E3 000957F0 ?EnemyPostInit@CCharacterBase@@UAEXXZ
       1765  6E4 000B3190 ?EnemyPostInit@CEnemyBase@@UAEXXZ
       1766  6E5 000F17C0 ?EnemyPostInit@CPetBase@@UAEXXZ
       1767  6E6 00153F20 ?EnemyPostInit@CSlaveBase@@UAEXXZ
       1768  6E7 001735D0 ?EnemyPostInit@CWildPetBase@@UAEXXZ
       1769  6E8 002440E0 ?EnemySpawnerType_enum@@3VCEntityPropertyEnumType@@A
       1770  6E9 002440E8 ?EnemySpawnerType_values@@3PAVCEntityPropertyEnumValue@@A
       1771  6EA 000F9E80 ?EnemyTargetSelected_InputTab@CPlayer@@UAEXXZ
       1772  6EB 002454E8 ?EntityInfoBodyType_enum@@3VCEntityPropertyEnumType@@A
       1773  6EC 00244E50 ?EntityInfoBodyType_values@@3PAVCEntityPropertyEnumValue@@A
       1774  6ED 002448C0 ?EnvironmentParticlesHolderType_enum@@3VCEntityPropertyEnumType@@A
       1775  6EE 002448C8 ?EnvironmentParticlesHolderType_values@@3PAVCEntityPropertyEnumValue@@A
       1776  6EF 002454E0 ?EventEType_enum@@3VCEntityPropertyEnumType@@A
       1777  6F0 00244DD8 ?EventEType_values@@3PAVCEntityPropertyEnumValue@@A
       1778  6F1 0024A2F8 ?EventType_enum@@3VCEntityPropertyEnumType@@A
       1779  6F2 0024A340 ?EventType_values@@3PAVCEntityPropertyEnumValue@@A
       1780  6F3 0009A6F0 ?Evocate@CCharacterBase@@QAEHABVCEntityEvent@@@Z
       1781  6F4 00096AA0 ?EvocateNow@CCharacterBase@@QAEXXZ
       1782  6F5 000FA160 ?EvocationStart@CPlayer@@UAEXJH@Z
       1783  6F6 000FA210 ?EvocationStop@CPlayer@@UAEXJ@Z
       1784  6F7 00244D10 ?ExtraBits_enum@@3VCEntityPropertyEnumType@@A
       1785  6F8 00245320 ?ExtraBits_values@@3PAVCEntityPropertyEnumValue@@A
       1786  6F9 00135E30 ?Fall@CPlayerAnimator@@QAEXXZ
       1787  6FA 00114400 ?FillAnimAndBoneIDs@CPlayer@@QAEXXZ
       1788  6FB 00093260 ?FillEntityStatistics@CCharacterBase@@UAEHPAUEntityStats@@@Z
       1789  6FC 000B0DC0 ?FillEntityStatistics@CEnemyBase@@UAEHPAUEntityStats@@@Z
       1790  6FD 000EF100 ?FillEntityStatistics@CPetBase@@UAEHPAUEntityStats@@@Z
       1791  6FE 00151CA0 ?FillEntityStatistics@CSlaveBase@@UAEHPAUEntityStats@@@Z
       1792  6FF 00168300 ?FindClosestPlayer@CWatcher@@QAEPAVCEntity@@XZ
       1793  700 00104730 ?FindMusicHolder@CPlayer@@QAEXXZ
       1794  701 000F03B0 ?FindNewItemTarget@CPetBase@@QAEXXZ
       1795  702 0013EA00 ?FindRemapedPos@CPlayerWeapons@@QAE?AW4WeaponType@@W42@@Z
       1796  703 0013EA30 ?FindWeaponInDirection@CPlayerWeapons@@QAE?AW4WeaponType@@J@Z
       1797  704 000983A0 ?Fire@CCharacterBase@@QAEHABVCEntityEvent@@@Z
       1798  705 000B5860 ?Fire@CEnemyBase@@QAEHABVCEntityEvent@@@Z
       1799  706 000F3AF0 ?Fire@CPetBase@@QAEHABVCEntityEvent@@@Z
       1800  707 0013EFC0 ?Fire@CPlayerWeapons@@QAEHABVCEntityEvent@@@Z
       1801  708 00155FA0 ?Fire@CSlaveBase@@QAEHABVCEntityEvent@@@Z
       1802  709 00174A70 ?Fire@CWildPetBase@@QAEHABVCEntityEvent@@@Z
       1803  70A 00135F30 ?FireAnimation@CPlayerAnimator@@QAEXJK@Z
       1804  70B 00136020 ?FireAnimationOff@CPlayerAnimator@@QAEXXZ
       1805  70C 0013E320 ?FireFlame@CPlayerWeapons@@QAEXXZ
       1806  70D 0013E1C0 ?FireMachineBullet@CPlayerWeapons@@QAEXMMMMMM@Z
       1807  70E 0013E000 ?FireOneBullet@CPlayerWeapons@@QAEXMMMM@Z
       1808  70F 00097C60 ?FireOrHit@CCharacterBase@@QAEHABVCEntityEvent@@@Z
       1809  710 000B5120 ?FireOrHit@CEnemyBase@@QAEHABVCEntityEvent@@@Z
       1810  711 000F33B0 ?FireOrHit@CPetBase@@QAEHABVCEntityEvent@@@Z
       1811  712 00155B50 ?FireOrHit@CSlaveBase@@QAEHABVCEntityEvent@@@Z
       1812  713 00174600 ?FireOrHit@CWildPetBase@@QAEHABVCEntityEvent@@@Z
       1813  714 0013E080 ?FireShotgunBullets@CPlayerWeapons@@QAEXMMMMJPAMMM@Z
       1814  715 00128AB0 ?FirstInit@CPlayer@@QAEHABVCEntityEvent@@@Z
       1815  716 000354B0 ?FixupCausedToPlayer@@YAPAVCEntity@@PAV1@0H@Z
       1816  717 00244C08 ?FogAttenuationType_enum@@3VCEntityPropertyEnumType@@A
       1817  718 00244C68 ?FogAttenuationType_values@@3PAVCEntityPropertyEnumValue@@A
       1818  719 00244C10 ?FogGraduationType2_enum@@3VCEntityPropertyEnumType@@A
       1819  71A 00244C80 ?FogGraduationType2_values@@3PAVCEntityPropertyEnumValue@@A
       1820  71B 00101AB0 ?GenderSound@CPlayer@@QAEJJ@Z
       1821  71C 00104720 ?GetActionMarker@CPlayer@@QAEPAVCPlayerActionMarker@@XZ
       1822  71D 0013E8B0 ?GetAltWeapon@CPlayerWeapons@@QAE?AW4WeaponType@@W42@@Z
       1823  71E 00095A20 ?GetAnimLength@CCharacterBase@@QAEMH@Z
       1824  71F 000B33A0 ?GetAnimLength@CEnemyBase@@QAEMH@Z
       1825  720 000F19D0 ?GetAnimLength@CPetBase@@QAEMH@Z
       1826  721 00154130 ?GetAnimLength@CSlaveBase@@QAEMH@Z
       1827  722 00173660 ?GetAnimLength@CWildPetBase@@QAEMH@Z
       1828  723 000F9C00 ?GetAnimationTime@CPlayer@@UAEMXZ
       1829  724 0013A6B0 ?GetAnimator@CPlayerWeapons@@QAEPAVCPlayerAnimator@@XZ
       1830  725 00094180 ?GetAttackMoveFrequency@CCharacterBase@@UAEMM@Z
       1831  726 000B1D40 ?GetAttackMoveFrequency@CEnemyBase@@UAEMM@Z
       1832  727 000F0140 ?GetAttackMoveFrequency@CPetBase@@UAEMM@Z
       1833  728 00152AD0 ?GetAttackMoveFrequency@CSlaveBase@@UAEMM@Z
       1834  729 00172BE0 ?GetAttackMoveFrequency@CWildPetBase@@UAEMM@Z
       1835  72A 000FD1F0 ?GetAttackrange@CPlayer@@UAEMXZ
       1836  72B 000FD200 ?GetAttackspeed@CPlayer@@UAECXZ
       1837  72C 00133A20 ?GetBody@CPlayerAnimator@@QAEPAVCModelObject@@XZ
       1838  72D 00133A40 ?GetBodyRen@CPlayerAnimator@@QAEPAVCModelObject@@XZ
       1839  72E 0013A6C0 ?GetChainSawTeeth@CPlayerWeapons@@QAEPAVCModelObject@@XZ
       1840  72F 00126D60 ?GetClickObject@CPlayer@@UAEPAVCEntity@@XZ
       1841  730 00093180 ?GetComputerMessageName@CCharacterBase@@UBEABVCTFileName@@XZ
       1842  731 000B0CE0 ?GetComputerMessageName@CEnemyBase@@UBEABVCTFileName@@XZ
       1843  732 000EF020 ?GetComputerMessageName@CPetBase@@UBEABVCTFileName@@XZ
       1844  733 00151BC0 ?GetComputerMessageName@CSlaveBase@@UBEABVCTFileName@@XZ
       1845  734 00092AB0 ?GetCrushHealth@CCharacterBase@@UAEMXZ
       1846  735 000B0800 ?GetCrushHealth@CEnemyBase@@UAEMXZ
       1847  736 000EEB50 ?GetCrushHealth@CPetBase@@UAEMXZ
       1848  737 00151310 ?GetCrushHealth@CSlaveBase@@UAEMXZ
       1849  738 00095A60 ?GetCurrentAnimLength@CCharacterBase@@QAEMXZ
       1850  739 000B33E0 ?GetCurrentAnimLength@CEnemyBase@@QAEMXZ
       1851  73A 000F1A10 ?GetCurrentAnimLength@CPetBase@@QAEMXZ
       1852  73B 00154170 ?GetCurrentAnimLength@CSlaveBase@@QAEMXZ
       1853  73C 001736A0 ?GetCurrentAnimLength@CWildPetBase@@QAEMXZ
       1854  73D 000F9E30 ?GetCurrentPlayerModelInstance@CPlayer@@QAEPAVCModelInstance@@XZ
       1855  73E 00093140 ?GetDescription@CCharacterBase@@UBEABVCTString@@XZ
       1856  73F 000B0CA0 ?GetDescription@CEnemyBase@@UBEABVCTString@@XZ
       1857  740 000CB750 ?GetDescription@CItem@@UBEABVCTString@@XZ
       1858  741 000E6820 ?GetDescription@CNavigationMarker@@UBEABVCTString@@XZ
       1859  742 000EEFE0 ?GetDescription@CPetBase@@UBEABVCTString@@XZ
       1860  743 00151B80 ?GetDescription@CSlaveBase@@UBEABVCTString@@XZ
       1861  744 00172A50 ?GetDescription@CWildPetBase@@UBEABVCTString@@XZ
       1862  745 001030F0 ?GetDetailStatsCoop@CPlayer@@QAEXAAVCTString@@@Z
       1863  746 001028C0 ?GetDetailStatsDM@CPlayer@@QAEXAAVCTString@@@Z
       1864  747 00103960 ?GetDetailStatsSP@CPlayer@@QAEXAAVCTString@@J@Z
       1865  748 000E6740 ?GetEntityInfo@CNavigationMarker@@UAEPAXXZ
       1866  749 00108210 ?GetEntityInfo@CPlayer@@UAEPAXXZ
       1867  74A 0002EFC0 ?GetEntityInfoPosition@@YAXPAVCEntity@@PAMAAV?$Vector@M$02@@@Z
       1868  74B 0013E260 ?GetFlamerSourcePlacement@CPlayerWeapons@@QAEXAAVCPlacement3D@@0@Z
       1869  74C 00166070 ?GetFrustumAngle@CUnit@@QAEMABV?$Vector@M$02@@@Z
       1870  74D 000359C0 ?GetGameDamageMultiplier@@YAMXZ
       1871  74E 0004DA80 ?GetGravity@CEmiter@@QAE?AV?$Vector@M$02@@PAVCEntity@@@Z
       1872  74F 000FDE80 ?GetHairMeshName@CPlayer@@QAE?AVCTFileName@@HC@Z
       1873  750 000FDF30 ?GetHairTextureName@CPlayer@@QAE?AVCTFileName@@HCC@Z
       1874  751 001115D0 ?GetLerpedAbsoluteViewPlacement@CPlayer@@QAEXAAVCPlacement3D@@@Z
       1875  752 00137430 ?GetLerpedPlacement@CPlayerView@@UBE?AVCPlacement3D@@XZ
       1876  753 0010AED0 ?GetLerpedWeaponPosition@CPlayer@@QAEXV?$Vector@M$02@@AAVCPlacement3D@@@Z
       1877  754 00143430 ?GetLightSource@CProjectile@@QAEPAVCLightSource@@XZ
       1878  755 000E67F0 ?GetLink@CNavigationMarker@@QAEPAV1@J@Z
       1879  756 0006CC60 ?GetLink@CPathNode@@QAEPAV1@J@Z
       1880  757 000955B0 ?GetLockRotationSpeed@CCharacterBase@@UAEMXZ
       1881  758 000B3120 ?GetLockRotationSpeed@CEnemyBase@@UAEMXZ
       1882  759 000F16F0 ?GetLockRotationSpeed@CPetBase@@UAEMXZ
       1883  75A 00153E90 ?GetLockRotationSpeed@CSlaveBase@@UAEMXZ
       1884  75B 00173530 ?GetLockRotationSpeed@CWildPetBase@@UAEMXZ
       1885  75C 000FD210 ?GetMagicspeed@CPlayer@@UAECXZ
       1886  75D 00104480 ?GetModelForRendering@CPlayer@@UAEPAVCModelObject@@XZ
       1887  75E 00104710 ?GetModelInstanceForRendering@CPlayer@@UAEPAVCModelInstance@@XZ
       1888  75F 00095AA0 ?GetModelStretch@CCharacterBase@@QAEAAV?$Vector@M$02@@XZ
       1889  760 000B3420 ?GetModelStretch@CEnemyBase@@QAEAAV?$Vector@M$02@@XZ
       1890  761 000F1A50 ?GetModelStretch@CPetBase@@QAEAAV?$Vector@M$02@@XZ
       1891  762 001541B0 ?GetModelStretch@CSlaveBase@@QAEAAV?$Vector@M$02@@XZ
       1892  763 001736E0 ?GetModelStretch@CWildPetBase@@QAEAAV?$Vector@M$02@@XZ
       1893  764 0013AFC0 ?GetMouseHitInformation@CPlayerWeapons@@QAE?AVCPlacement3D@@UtagPOINT@@VCAnyProjection3D@@AAIH@Z
       1894  765 0013B760 ?GetMouseHitInformationReserve@CPlayerWeapons@@QAE?AVCPlacement3D@@UtagPOINT@@VCAnyProjection3D@@HH@Z
       1895  766 0004D3D0 ?GetName@CCharacterBase@@UBEABVCTString@@XZ
       1896  767 0004D3E0 ?GetName@CEnemyBase@@UBEABVCTString@@XZ
       1897  768 000CB760 ?GetName@CItem@@UBEABVCTString@@XZ
       1898  769 0006D670 ?GetName@CNavigationMarker@@UBEABVCTString@@XZ
       1899  76A 0006CBA0 ?GetName@CPathNode@@QAEABVCTString@@XZ
       1900  76B 0004D3F0 ?GetName@CPetBase@@UBEABVCTString@@XZ
       1901  76C 0004D400 ?GetName@CSlaveBase@@UBEABVCTString@@XZ
       1902  76D 0004D410 ?GetName@CUnit@@UBEABVCTString@@XZ
       1903  76E 0004D420 ?GetName@CWildPetBase@@UBEABVCTString@@XZ
       1904  76F 000F8EA0 ?GetNetworkType@CPlayer@@UBECXZ
       1905  770 00168240 ?GetOwner@CWatcher@@QAEPAVCEnemyBase@@XZ
       1906  771 000E6750 ?GetPathNode@CNavigationMarker@@QAEPAVCPathNode@@XZ
       1907  772 00107E40 ?GetPlaneFrustumAngle@CPlayer@@QAEMABV?$Vector@M$02@@@Z
       1908  773 001661A0 ?GetPlaneFrustumAngle@CUnit@@QAEMABV?$Vector@M$02@@@Z
       1909  774 00133A10 ?GetPlayer@CPlayerAnimator@@QAEPAVCPlayer@@XZ
       1910  775 0013A6A0 ?GetPlayer@CPlayerWeapons@@QAEPAVCPlayer@@XZ
       1911  776 001021E0 ?GetPlayerAnimator@CPlayer@@QAEPAVCPlayerAnimator@@XZ
       1912  777 00092A10 ?GetPlayerKillDescription@CCharacterBase@@UAE?AVCTString@@ABV2@ABVEDeath@@@Z
       1913  778 000B0760 ?GetPlayerKillDescription@CEnemyBase@@UAE?AVCTString@@ABV2@ABVEDeath@@@Z
       1914  779 000EEAB0 ?GetPlayerKillDescription@CPetBase@@UAE?AVCTString@@ABV2@ABVEDeath@@@Z
       1915  77A 00151270 ?GetPlayerKillDescription@CSlaveBase@@UAE?AVCTString@@ABV2@ABVEDeath@@@Z
       1916  77B 000F9DE0 ?GetPlayerModelInstance@CPlayer@@UAEPAVCModelInstance@@PAVCEntity@@@Z
       1917  77C 001021D0 ?GetPlayerWeapons@CPlayer@@QAEPAVCPlayerWeapons@@XZ
       1918  77D 0002F0C0 ?GetPositionCastRay@@YAXPAVCEntity@@0AAV?$Vector@M$02@@1@Z
       1919  77E 00131990 ?GetPredictionPair@CPlayerAnimator@@UAEPAVCEntity@@XZ
       1920  77F 001319A0 ?GetPredictionPair@CPlayerView@@UAEPAVCEntity@@XZ
       1921  780 0004D430 ?GetPredictionPair@CProjectile@@UAEPAVCEntity@@XZ
       1922  781 0004D440 ?GetPredictionPair@CWatcher@@UAEPAVCEntity@@XZ
       1923  782 000FDC60 ?GetProjection@CPlayer@@UAEXAAVCAnyProjection3D@@@Z
       1924  783 00092AC0 ?GetPropA@CCharacterBase@@UAEAAMAAM@Z
       1925  784 000B0810 ?GetPropA@CEnemyBase@@UAEAAMAAM@Z
       1926  785 000EEB70 ?GetPropA@CPetBase@@UAEAAMAAM@Z
       1927  786 00151340 ?GetPropA@CSlaveBase@@UAEAAMAAM@Z
       1928  787 00165DA0 ?GetPropA@CUnit@@UAEAAMAAM@Z
       1929  788 00168250 ?GetRandomPlayer@CWatcher@@QAEJXZ
       1930  789 000F8ED0 ?GetRotation@CPlayer@@QAEMJ@Z
       1931  78A 000F8EF0 ?GetRotationDiff@CPlayer@@QAEMJM@Z
       1932  78B 00144450 ?GetRotationSpeed@CProjectile@@QAEMMMM@Z
       1933  78C 000FD1E0 ?GetRunspeed@CPlayer@@UAEMXZ
       1934  78D 0004D450 ?GetSP@@YAPBVCSessionProperties@@XZ
       1935  78E 0013E850 ?GetSelectedWeapon@CPlayerWeapons@@QAEJW4WeaponType@@@Z
       1936  78F 00035A80 ?GetSeriousDamageMultiplier@@YAMPAVCEntity@@@Z
       1937  790 001021F0 ?GetSettings@CPlayer@@QAEPAVCPlayerSettings@@XZ
       1938  791 00102830 ?GetShortStats@CPlayer@@QAEXAAVCTString@@@Z
       1939  792 000C4A40 ?GetSizeOf@EActivate@@UAEJXZ
       1940  793 00079590 ?GetSizeOf@EActivateBlend@@UAEJXZ
       1941  794 000F7E40 ?GetSizeOf@EAddBulletSpray@@UAEJXZ
       1942  795 000F7F50 ?GetSizeOf@EAddGoreSpray@@UAEJXZ
       1943  796 000C5080 ?GetSizeOf@EAddHostile@@UAEJXZ
       1944  797 00133780 ?GetSizeOf@EAnimatorInit@@UAEJXZ
       1945  798 000A2A00 ?GetSizeOf@EArchitectureDeath@@UAEJXZ
       1946  799 000AA060 ?GetSizeOf@EAttackDamage@@UAEJXZ
       1947  79A 000F7950 ?GetSizeOf@EAutoAction@@UAEJXZ
       1948  79B 000F75B0 ?GetSizeOf@EAutoLogin@@UAEJXZ
       1949  79C 000B0000 ?GetSizeOf@EBlowUp@@UAEJXZ
       1950  79D 00139BC0 ?GetSizeOf@EBoringWeapon@@UAEJXZ
       1951  79E 000DFCF0 ?GetSizeOf@EBrushDeath@@UAEJXZ
       1952  79F 000DFAD0 ?GetSizeOf@EBrushDestroyed@@UAEJXZ
       1953  7A0 0007AD40 ?GetSizeOf@EBulletInit@@UAEJXZ
       1954  7A1 000F7390 ?GetSizeOf@ECameraStart@@UAEJXZ
       1955  7A2 000F74B0 ?GetSizeOf@ECameraStop@@UAEJXZ
       1956  7A3 00081720 ?GetSizeOf@EChaAttackDamage@@UAEJXZ
       1957  7A4 000817A0 ?GetSizeOf@EChaSkillDamage@@UAEJXZ
       1958  7A5 00072FA0 ?GetSizeOf@EChangeAnim@@UAEJXZ
       1959  7A6 000C7B00 ?GetSizeOf@EChangeGravity@@UAEJXZ
       1960  7A7 000E4900 ?GetSizeOf@EChangeMusic@@UAEJXZ
       1961  7A8 000921A0 ?GetSizeOf@ECharBaseDamage@@UAEJXZ
       1962  7A9 00092070 ?GetSizeOf@ECharBaseDeath@@UAEJXZ
       1963  7AA 00092280 ?GetSizeOf@ECharBlowUp@@UAEJXZ
       1964  7AB 00091F50 ?GetSizeOf@ECharForceWound@@UAEJXZ
       1965  7AC 00091ED0 ?GetSizeOf@ECharReconsiderBehavior@@UAEJXZ
       1966  7AD 0009D360 ?GetSizeOf@ECopierTrigger@@UAEJXZ
       1967  7AE 000C5860 ?GetSizeOf@ECredits@@UAEJXZ
       1968  7AF 000C4AB0 ?GetSizeOf@EDeactivate@@UAEJXZ
       1969  7B0 00079610 ?GetSizeOf@EDeactivateBlend@@UAEJXZ
       1970  7B1 000F7830 ?GetSizeOf@EDisconnected@@UAEJXZ
       1971  7B2 000C5140 ?GetSizeOf@EDoorControll@@UAEJXZ
       1972  7B3 000C4C00 ?GetSizeOf@EEnd@@UAEJXZ
       1973  7B4 000AFF20 ?GetSizeOf@EEnemyBaseDamage@@UAEJXZ
       1974  7B5 000AFDF0 ?GetSizeOf@EEnemyBaseDeath@@UAEJXZ
       1975  7B6 000C4B20 ?GetSizeOf@EEnvironmentStart@@UAEJXZ
       1976  7B7 000C4B90 ?GetSizeOf@EEnvironmentStop@@UAEJXZ
       1977  7B8 00142EB0 ?GetSizeOf@EExplode@@UAEJXZ
       1978  7B9 00139C40 ?GetSizeOf@EFireWeapon@@UAEJXZ
       1979  7BA 000C3130 ?GetSizeOf@EFlame@@UAEJXZ
       1980  7BB 0015E310 ?GetSizeOf@EFlipTheSwitch@@UAEJXZ
       1981  7BC 000AFCD0 ?GetSizeOf@EForceWound@@UAEJXZ
       1982  7BD 000DFA50 ?GetSizeOf@EHit@@UAEJXZ
       1983  7BE 000C59F0 ?GetSizeOf@EHitBySpaceShipBeam@@UAEJXZ
       1984  7BF 000C5730 ?GetSizeOf@EHudPicFX@@UAEJXZ
       1985  7C0 000C5280 ?GetSizeOf@EKilledEnemy@@UAEJXZ
       1986  7C1 00142DF0 ?GetSizeOf@ELaunchProjectile@@UAEJXZ
       1987  7C2 000C96F0 ?GetSizeOf@EMarkPicked@@UAEJXZ
       1988  7C3 000D9870 ?GetSizeOf@EModel2Activate@@UAEJXZ
       1989  7C4 000D98F0 ?GetSizeOf@EModel2Deactivate@@UAEJXZ
       1990  7C5 000DC470 ?GetSizeOf@EModel3Action@@UAEJXZ
       1991  7C6 000DC370 ?GetSizeOf@EModel3Activate@@UAEJXZ
       1992  7C7 000DC3F0 ?GetSizeOf@EModel3Deactivate@@UAEJXZ
       1993  7C8 000D6D40 ?GetSizeOf@EModelDeath@@UAEJXZ
       1994  7C9 000E3EB0 ?GetSizeOf@EMusicChangerTrigger@@UAEJXZ
       1995  7CA 000E49E0 ?GetSizeOf@ENetChangeMusic@@UAEJXZ
       1996  7CB 00139F00 ?GetSizeOf@ENetFireWeapon@@UAEJXZ
       1997  7CC 00139F80 ?GetSizeOf@ENetReleaseWeapon@@UAEJXZ
       1998  7CD 0013A000 ?GetSizeOf@ENetReloadWeapon@@UAEJXZ
       1999  7CE 00139E80 ?GetSizeOf@ENetSelectWeapon@@UAEJXZ
       2000  7CF 000B95B0 ?GetSizeOf@ENetSpawnEntity@@UAEJXZ
       2001  7D0 000A6980 ?GetSizeOf@ENetTrigger@@UAEJXZ
       2002  7D1 000E76E0 ?GetSizeOf@EParticlesActivate@@UAEJXZ
       2003  7D2 000E7760 ?GetSizeOf@EParticlesDeactivate@@UAEJXZ
       2004  7D3 000E9720 ?GetSizeOf@EPetAttackDamage@@UAEJXZ
       2005  7D4 000EE430 ?GetSizeOf@EPetBaseBlowUp@@UAEJXZ
       2006  7D5 000EE350 ?GetSizeOf@EPetBaseDamage@@UAEJXZ
       2007  7D6 000EE220 ?GetSizeOf@EPetBaseDeath@@UAEJXZ
       2008  7D7 000EE100 ?GetSizeOf@EPetBaseForceWound@@UAEJXZ
       2009  7D8 000EE080 ?GetSizeOf@EPetBaseReconsiderBehavior@@UAEJXZ
       2010  7D9 001592F0 ?GetSizeOf@EPlaySoundOnce@@UAEJXZ
       2011  7DA 000F7BD0 ?GetSizeOf@EPlayerDeath@@UAEJXZ
       2012  7DB 000F7AA0 ?GetSizeOf@EPlayerKilledEnemy@@UAEJXZ
       2013  7DC 000F77B0 ?GetSizeOf@EPlayerRebirth@@UAEJXZ
       2014  7DD 000F7D40 ?GetSizeOf@EPlayerStats@@UAEJXZ
       2015  7DE 000D6CC0 ?GetSizeOf@ERangeModelDestruction@@UAEJXZ
       2016  7DF 000F76F0 ?GetSizeOf@ERebirth@@UAEJXZ
       2017  7E0 000C95D0 ?GetSizeOf@EReceiveItem@@UAEJXZ
       2018  7E1 000AFC50 ?GetSizeOf@EReconsiderBehavior@@UAEJXZ
       2019  7E2 00139CC0 ?GetSizeOf@EReleaseWeapon@@UAEJXZ
       2020  7E3 00139D40 ?GetSizeOf@EReloadWeapon@@UAEJXZ
       2021  7E4 000C4E50 ?GetSizeOf@EReminder@@UAEJXZ
       2022  7E5 00147C40 ?GetSizeOf@EReminderInit@@UAEJXZ
       2023  7E6 000C54D0 ?GetSizeOf@EScroll@@UAEJXZ
       2024  7E7 00139B40 ?GetSizeOf@ESelectWeapon@@UAEJXZ
       2025  7E8 000C97B0 ?GetSizeOf@ESetType@@UAEJXZ
       2026  7E9 00074870 ?GetSizeOf@ESetViewer@@UAEJXZ
       2027  7EA 000F7C50 ?GetSizeOf@EShowConsole@@UAEJXZ
       2028  7EB 0014A6D0 ?GetSizeOf@ESlaveAttackDamage@@UAEJXZ
       2029  7EC 00150BA0 ?GetSizeOf@ESlaveBaseBlowUp@@UAEJXZ
       2030  7ED 00150AC0 ?GetSizeOf@ESlaveBaseDamage@@UAEJXZ
       2031  7EE 00150990 ?GetSizeOf@ESlaveBaseDeath@@UAEJXZ
       2032  7EF 00150870 ?GetSizeOf@ESlaveBaseForceWound@@UAEJXZ
       2033  7F0 00150770 ?GetSizeOf@ESlaveBaseReconsiderBehavior@@UAEJXZ
       2034  7F1 001507F0 ?GetSizeOf@ESlaveFoundNewEnemy@@UAEJXZ
       2035  7F2 000F7530 ?GetSizeOf@ESlaveKilledEnemy@@UAEJXZ
       2036  7F3 000C53A0 ?GetSizeOf@ESound@@UAEJXZ
       2037  7F4 0009F720 ?GetSizeOf@ESpawnDebris@@UAEJXZ
       2038  7F5 000A0D50 ?GetSizeOf@ESpawnDebrisSka@@UAEJXZ
       2039  7F6 00074EF0 ?GetSizeOf@ESpawnEffect@@UAEJXZ
       2040  7F7 000A7F60 ?GetSizeOf@ESpawnEffector@@UAEJXZ
       2041  7F8 00143040 ?GetSizeOf@ESpawnFlame@@UAEJXZ
       2042  7F9 0007A070 ?GetSizeOf@ESpawnSpray@@UAEJXZ
       2043  7FA 000C49D0 ?GetSizeOf@EStart@@UAEJXZ
       2044  7FB 000C4EC0 ?GetSizeOf@EStartAttack@@UAEJXZ
       2045  7FC 000DFB50 ?GetSizeOf@EStartSounds@@UAEJXZ
       2046  7FD 000C48B0 ?GetSizeOf@EStop@@UAEJXZ
       2047  7FE 000C4F30 ?GetSizeOf@EStopAttack@@UAEJXZ
       2048  7FF 000C4FA0 ?GetSizeOf@EStopBlindness@@UAEJXZ
       2049  800 000C5010 ?GetSizeOf@EStopDeafness@@UAEJXZ
       2050  801 000C31F0 ?GetSizeOf@EStopFlaming@@UAEJXZ
       2051  802 000F7670 ?GetSizeOf@EStopLerp@@UAEJXZ
       2052  803 000DFBD0 ?GetSizeOf@EStopSounds@@UAEJXZ
       2053  804 00159FB0 ?GetSizeOf@EStormEnvironmentStart@@UAEJXZ
       2054  805 0015A030 ?GetSizeOf@EStormStart@@UAEJXZ
       2055  806 0015A0B0 ?GetSizeOf@EStormStop@@UAEJXZ
       2056  807 0015FF30 ?GetSizeOf@ETeleportActivate@@UAEJXZ
       2057  808 0015FFB0 ?GetSizeOf@ETeleportDeactivate@@UAEJXZ
       2058  809 000C4D90 ?GetSizeOf@ETeleportMovingBrush@@UAEJXZ
       2059  80A 000C5600 ?GetSizeOf@ETextFX@@UAEJXZ
       2060  80B 000C4D20 ?GetSizeOf@ETrigger@@UAEJXZ
       2061  80C 000A7FE0 ?GetSizeOf@ETriggerEffector@@UAEJXZ
       2062  80D 000CD3F0 ?GetSizeOf@ETriggerLightning@@UAEJXZ
       2063  80E 00136A80 ?GetSizeOf@ETriggerPlayerMarker@@UAEJXZ
       2064  80F 00137280 ?GetSizeOf@EViewInit@@UAEJXZ
       2065  810 000C5980 ?GetSizeOf@EVoiceMessage@@UAEJXZ
       2066  811 001681C0 ?GetSizeOf@EWatch@@UAEJXZ
       2067  812 001680A0 ?GetSizeOf@EWatcherInit@@UAEJXZ
       2068  813 00139DC0 ?GetSizeOf@EWeaponChanged@@UAEJXZ
       2069  814 00141BC0 ?GetSizeOf@EWeaponEffectInit@@UAEJXZ
       2070  815 00139A80 ?GetSizeOf@EWeaponsInit@@UAEJXZ
       2071  816 000C0420 ?GetSizeOf@EWeatherStart@@UAEJXZ
       2072  817 000C04A0 ?GetSizeOf@EWeatherStop@@UAEJXZ
       2073  818 0016AD60 ?GetSizeOf@EWildPetAttackDamage@@UAEJXZ
       2074  819 00171B40 ?GetSizeOf@EWildPetBaseDamage@@UAEJXZ
       2075  81A 00171A10 ?GetSizeOf@EWildPetBaseDeath@@UAEJXZ
       2076  81B 001718F0 ?GetSizeOf@EWildPetBaseReconsiderBehavior@@UAEJXZ
       2077  81C 00102820 ?GetStats@CPlayer@@QAEXAAVCTString@@W4CompStatType@@J@Z
       2078  81D 001026A0 ?GetStatsInGameTimeGame@CPlayer@@QAEMXZ
       2079  81E 00102670 ?GetStatsInGameTimeLevel@CPlayer@@QAEMXZ
       2080  81F 00102740 ?GetStatsRealWorldStarted@CPlayer@@QAE?AVCTString@@XZ
       2081  820 001026E0 ?GetStatsRealWorldTime@CPlayer@@QAEMXZ
       2082  821 00035230 ?GetStdEntityInfo@@YAPAUEntityInfo@@W4EntityInfoBodyType@@@Z
       2083  822 0013E810 ?GetStrongerWeapon@CPlayerWeapons@@QAE?AW4WeaponType@@J@Z
       2084  823 000E6730 ?GetTarget@CNavigationMarker@@UBEPAVCEntity@@XZ
       2085  824 00172A30 ?GetTargetEntity@CWildPetBase@@UAEPAVCEntity@@W4wPetAIState@@@Z
       2086  825 00113890 ?GetTeleportingOffset@CPlayer@@QAE?AV?$Vector@M$02@@XZ
       2087  826 00165DB0 ?GetThreatDistance@CUnit@@UAEMXZ
       2088  827 00095B50 ?GetUsedMemory@CCharacterBase@@UAEJXZ
       2089  828 000B34D0 ?GetUsedMemory@CEnemyBase@@UAEJXZ
       2090  829 000C9E60 ?GetUsedMemory@CItem@@UAEJXZ
       2091  82A 000F1B00 ?GetUsedMemory@CPetBase@@UAEJXZ
       2092  82B 00154260 ?GetUsedMemory@CSlaveBase@@UAEJXZ
       2093  82C 00168A60 ?GetUsedMemory@CWatcher@@UAEJXZ
       2094  82D 00173770 ?GetUsedMemory@CWildPetBase@@UAEJXZ
       2095  82E 00112A20 ?GetViewEntity@CPlayer@@QAEPAVCEntity@@H@Z
       2096  82F 00035AC0 ?GetWSC@@YAPAVCWorldSettingsController@@PAVCEntity@@@Z
       2097  830 000FD1D0 ?GetWalkspeed@CPlayer@@UAEMXZ
       2098  831 00092ED0 ?GetWatcher@CCharacterBase@@QAEPAVCWatcher@@XZ
       2099  832 000B0930 ?GetWatcher@CEnemyBase@@QAEPAVCWatcher@@XZ
       2100  833 000EED60 ?GetWatcher@CPetBase@@QAEPAVCWatcher@@XZ
       2101  834 00151900 ?GetWatcher@CSlaveBase@@QAEPAVCWatcher@@XZ
       2102  835 0013A5E0 ?GetWeaponAmmo@CPlayerWeapons@@QAEGJ@Z
       2103  836 00104D40 ?GetWorldGlaring@CPlayer@@QAEKXZ
       2104  837 002455B0 ?GravityType_enum@@3VCEntityPropertyEnumType@@A
       2105  838 00245608 ?GravityType_values@@3PAVCEntityPropertyEnumValue@@A
       2106  839 000B4130 ?H0x01360006_NewEnemySpotted_01@CEnemyBase@@QAEHABVCEntityEvent@@@Z
       2107  83A 000B41E0 ?H0x01360007_NewEnemySpotted_02@CEnemyBase@@QAEHABVCEntityEvent@@@Z
       2108  83B 000B4250 ?H0x01360008_NewEnemySpotted_03@CEnemyBase@@QAEHABVCEntityEvent@@@Z
       2109  83C 000B4580 ?H0x0136000c_AttackEnemy_01@CEnemyBase@@QAEHABVCEntityEvent@@@Z
       2110  83D 000B4630 ?H0x0136000d_AttackEnemy_02@CEnemyBase@@QAEHABVCEntityEvent@@@Z
       2111  83E 000B46A0 ?H0x0136000e_AttackEnemy_03@CEnemyBase@@QAEHABVCEntityEvent@@@Z
       2112  83F 000B4750 ?H0x0136000f_AttackEnemy_04@CEnemyBase@@QAEHABVCEntityEvent@@@Z
       2113  840 000B47C0 ?H0x01360010_AttackEnemy_05@CEnemyBase@@QAEHABVCEntityEvent@@@Z
       2114  841 000B4870 ?H0x01360011_AttackEnemy_06@CEnemyBase@@QAEHABVCEntityEvent@@@Z
       2115  842 000B48E0 ?H0x01360012_AttackEnemy_07@CEnemyBase@@QAEHABVCEntityEvent@@@Z
       2116  843 000B4990 ?H0x01360013_AttackEnemy_08@CEnemyBase@@QAEHABVCEntityEvent@@@Z
       2117  844 000B4AC0 ?H0x01360015_PerformAttack_01@CEnemyBase@@QAEHABVCEntityEvent@@@Z
       2118  845 000B4F60 ?H0x01360016_PerformAttack_02@CEnemyBase@@QAEHABVCEntityEvent@@@Z
       2119  846 000B4FD0 ?H0x01360017_PerformAttack_03@CEnemyBase@@QAEHABVCEntityEvent@@@Z
       2120  847 000B5110 ?H0x01360018_PerformAttack_04@CEnemyBase@@QAEHABVCEntityEvent@@@Z
       2121  848 000B5280 ?H0x0136001a_FireOrHit_01@CEnemyBase@@QAEHABVCEntityEvent@@@Z
       2122  849 000B5330 ?H0x0136001b_FireOrHit_02@CEnemyBase@@QAEHABVCEntityEvent@@@Z
       2123  84A 000B53A0 ?H0x0136001c_FireOrHit_03@CEnemyBase@@QAEHABVCEntityEvent@@@Z
       2124  84B 000B5450 ?H0x0136001d_FireOrHit_04@CEnemyBase@@QAEHABVCEntityEvent@@@Z
       2125  84C 000B54C0 ?H0x0136001e_FireOrHit_05@CEnemyBase@@QAEHABVCEntityEvent@@@Z
       2126  84D 000B5530 ?H0x0136001f_FireOrHit_06@CEnemyBase@@QAEHABVCEntityEvent@@@Z
       2127  84E 000B55C0 ?H0x01360020_FireOrHit_07@CEnemyBase@@QAEHABVCEntityEvent@@@Z
       2128  84F 000B5630 ?H0x01360021_FireOrHit_08@CEnemyBase@@QAEHABVCEntityEvent@@@Z
       2129  850 000B5A90 ?H0x01360027_BeWounded_01@CEnemyBase@@QAEHABVCEntityEvent@@@Z
       2130  851 000B5B30 ?H0x01360028_BeWounded_02@CEnemyBase@@QAEHABVCEntityEvent@@@Z
       2131  852 000B5BA0 ?H0x01360029_BeWounded_03@CEnemyBase@@QAEHABVCEntityEvent@@@Z
       2132  853 000B5E20 ?H0x0136002b_Die_01@CEnemyBase@@QAEHABVCEntityEvent@@@Z
       2133  854 000B6150 ?H0x0136002c_Die_02@CEnemyBase@@QAEHABVCEntityEvent@@@Z
       2134  855 000B6310 ?H0x0136002e_Death_01@CEnemyBase@@QAEHABVCEntityEvent@@@Z
       2135  856 000B63B0 ?H0x0136002f_Death_02@CEnemyBase@@QAEHABVCEntityEvent@@@Z
       2136  857 000B6460 ?H0x01360030_Death_03@CEnemyBase@@QAEHABVCEntityEvent@@@Z
       2137  858 000B6500 ?H0x01360031_Death_04@CEnemyBase@@QAEHABVCEntityEvent@@@Z
       2138  859 000B66E0 ?H0x01360032_Death_05@CEnemyBase@@QAEHABVCEntityEvent@@@Z
       2139  85A 000B67C0 ?H0x01360033_Death_06@CEnemyBase@@QAEHABVCEntityEvent@@@Z
       2140  85B 000B6830 ?H0x01360034_Death_07@CEnemyBase@@QAEHABVCEntityEvent@@@Z
       2141  85C 000B68A0 ?H0x01360035_Death_08@CEnemyBase@@QAEHABVCEntityEvent@@@Z
       2142  85D 000B6910 ?H0x01360036_Death_09@CEnemyBase@@QAEHABVCEntityEvent@@@Z
       2143  85E 000B6A10 ?H0x01360038_DeathSequence_01@CEnemyBase@@QAEHABVCEntityEvent@@@Z
       2144  85F 000B6AC0 ?H0x01360039_DeathSequence_02@CEnemyBase@@QAEHABVCEntityEvent@@@Z
       2145  860 000B6BC0 ?H0x0136003a_DeathSequence_03@CEnemyBase@@QAEHABVCEntityEvent@@@Z
       2146  861 000B6C60 ?H0x0136003b_DeathSequence_04@CEnemyBase@@QAEHABVCEntityEvent@@@Z
       2147  862 000B6D40 ?H0x0136003c_DeathSequence_05@CEnemyBase@@QAEHABVCEntityEvent@@@Z
       2148  863 000B6DE0 ?H0x0136003d_DeathSequence_06@CEnemyBase@@QAEHABVCEntityEvent@@@Z
       2149  864 000B6E80 ?H0x0136003e_DeathSequence_07@CEnemyBase@@QAEHABVCEntityEvent@@@Z
       2150  865 000B6F20 ?H0x0136003f_DeathSequence_08@CEnemyBase@@QAEHABVCEntityEvent@@@Z
       2151  866 000B7030 ?H0x01360041_Active_01@CEnemyBase@@QAEHABVCEntityEvent@@@Z
       2152  867 000B7470 ?H0x01360042_Active_02@CEnemyBase@@QAEHABVCEntityEvent@@@Z
       2153  868 000B7510 ?H0x01360044_SingleActive_01@CEnemyBase@@QAEHABVCEntityEvent@@@Z
       2154  869 000B7820 ?H0x01360045_SingleActive_02@CEnemyBase@@QAEHABVCEntityEvent@@@Z
       2155  86A 000B78D0 ?H0x01360047_Inactive_01@CEnemyBase@@QAEHABVCEntityEvent@@@Z
       2156  86B 000B7B00 ?H0x01360048_Inactive_02@CEnemyBase@@QAEHABVCEntityEvent@@@Z
       2157  86C 000B7BF0 ?H0x0136004a_SingleInActive_01@CEnemyBase@@QAEHABVCEntityEvent@@@Z
       2158  86D 000B7DD0 ?H0x0136004b_SingleInActive_02@CEnemyBase@@QAEHABVCEntityEvent@@@Z
       2159  86E 000B80A0 ?H0x0136004e_MainLoop_internal_01@CEnemyBase@@QAEHABVCEntityEvent@@@Z
       2160  86F 000B8150 ?H0x0136004f_MainLoop_internal_02@CEnemyBase@@QAEHABVCEntityEvent@@@Z
       2161  870 000B82C0 ?H0x01360052_StandardBehavior_01@CEnemyBase@@QAEHABVCEntityEvent@@@Z
       2162  871 000B8650 ?H0x01360053_StandardBehavior_02@CEnemyBase@@QAEHABVCEntityEvent@@@Z
       2163  872 000B8880 ?H0x01360058_MovetoPoint_01@CEnemyBase@@QAEHABVCEntityEvent@@@Z
       2164  873 000B8990 ?H0x01360059_MovetoPoint_02@CEnemyBase@@QAEHABVCEntityEvent@@@Z
       2165  874 000B8A00 ?H0x0136005a_MovetoPoint_03@CEnemyBase@@QAEHABVCEntityEvent@@@Z
       2166  875 000B8AD0 ?H0x0136005b_MovetoPoint_04@CEnemyBase@@QAEHABVCEntityEvent@@@Z
       2167  876 000B8C70 ?H0x0136005e_IdleLoop_01@CEnemyBase@@QAEHABVCEntityEvent@@@Z
       2168  877 000B8D20 ?H0x0136005f_IdleLoop_02@CEnemyBase@@QAEHABVCEntityEvent@@@Z
       2169  878 000B8D90 ?H0x01360060_IdleLoop_03@CEnemyBase@@QAEHABVCEntityEvent@@@Z
       2170  879 000B8E00 ?H0x01360061_IdleLoop_04@CEnemyBase@@QAEHABVCEntityEvent@@@Z
       2171  87A 00127150 ?H0x0191000f_Main_01@CPlayer@@QAEHABVCEntityEvent@@@Z
       2172  87B 00127210 ?H0x01910010_Main_02@CPlayer@@QAEHABVCEntityEvent@@@Z
       2173  87C 00127280 ?H0x01910011_Main_03@CPlayer@@QAEHABVCEntityEvent@@@Z
       2174  87D 00127700 ?H0x01910012_Main_04@CPlayer@@QAEHABVCEntityEvent@@@Z
       2175  87E 00127DC0 ?H0x01910013_Main_05@CPlayer@@QAEHABVCEntityEvent@@@Z
       2176  87F 001281E0 ?H0x01910017_WorldChangeDead_01@CPlayer@@QAEHABVCEntityEvent@@@Z
       2177  880 00128290 ?H0x01910018_WorldChangeDead_02@CPlayer@@QAEHABVCEntityEvent@@@Z
       2178  881 00128660 ?H0x0191001a_Death_01@CPlayer@@QAEHABVCEntityEvent@@@Z
       2179  882 001288C0 ?H0x0191001b_Death_02@CPlayer@@QAEHABVCEntityEvent@@@Z
       2180  883 00128A90 ?H0x0191001d_TheEnd_01@CPlayer@@QAEHABVCEntityEvent@@@Z
       2181  884 00128AA0 ?H0x0191001e_TheEnd_02@CPlayer@@QAEHABVCEntityEvent@@@Z
       2182  885 00128E60 ?H0x01910022_AutoGoToMarker_01@CPlayer@@QAEHABVCEntityEvent@@@Z
       2183  886 00128F00 ?H0x01910023_AutoGoToMarker_02@CPlayer@@QAEHABVCEntityEvent@@@Z
       2184  887 00128F70 ?H0x01910024_AutoGoToMarker_03@CPlayer@@QAEHABVCEntityEvent@@@Z
       2185  888 001290A0 ?H0x01910025_AutoGoToMarker_04@CPlayer@@QAEHABVCEntityEvent@@@Z
       2186  889 001291E0 ?H0x01910027_AutoGoToMarkerAndStop_01@CPlayer@@QAEHABVCEntityEvent@@@Z
       2187  88A 00129280 ?H0x01910028_AutoGoToMarkerAndStop_02@CPlayer@@QAEHABVCEntityEvent@@@Z
       2188  88B 001292F0 ?H0x01910029_AutoGoToMarkerAndStop_03@CPlayer@@QAEHABVCEntityEvent@@@Z
       2189  88C 00129430 ?H0x0191002a_AutoGoToMarkerAndStop_04@CPlayer@@QAEHABVCEntityEvent@@@Z
       2190  88D 00129560 ?H0x0191002c_AutoUseItem_01@CPlayer@@QAEHABVCEntityEvent@@@Z
       2191  88E 00129600 ?H0x0191002d_AutoUseItem_02@CPlayer@@QAEHABVCEntityEvent@@@Z
       2192  88F 00129680 ?H0x0191002e_AutoUseItem_03@CPlayer@@QAEHABVCEntityEvent@@@Z
       2193  890 00129720 ?H0x0191002f_AutoUseItem_04@CPlayer@@QAEHABVCEntityEvent@@@Z
       2194  891 00129830 ?H0x01910030_AutoUseItem_05@CPlayer@@QAEHABVCEntityEvent@@@Z
       2195  892 001298D0 ?H0x01910031_AutoUseItem_06@CPlayer@@QAEHABVCEntityEvent@@@Z
       2196  893 001299F0 ?H0x01910033_AutoPickItem_01@CPlayer@@QAEHABVCEntityEvent@@@Z
       2197  894 00129A90 ?H0x01910034_AutoPickItem_02@CPlayer@@QAEHABVCEntityEvent@@@Z
       2198  895 00129B50 ?H0x01910035_AutoPickItem_03@CPlayer@@QAEHABVCEntityEvent@@@Z
       2199  896 00129BF0 ?H0x01910036_AutoPickItem_04@CPlayer@@QAEHABVCEntityEvent@@@Z
       2200  897 00129D30 ?H0x01910038_AutoFallDown_01@CPlayer@@QAEHABVCEntityEvent@@@Z
       2201  898 00129DD0 ?H0x01910039_AutoFallDown_02@CPlayer@@QAEHABVCEntityEvent@@@Z
       2202  899 00129F00 ?H0x0191003b_AutoFallToAbys_01@CPlayer@@QAEHABVCEntityEvent@@@Z
       2203  89A 00129FA0 ?H0x0191003c_AutoFallToAbys_02@CPlayer@@QAEHABVCEntityEvent@@@Z
       2204  89B 0012A110 ?H0x0191003e_AutoLookAround_01@CPlayer@@QAEHABVCEntityEvent@@@Z
       2205  89C 0012A1B0 ?H0x0191003f_AutoLookAround_02@CPlayer@@QAEHABVCEntityEvent@@@Z
       2206  89D 0012A2A0 ?H0x01910040_AutoLookAround_03@CPlayer@@QAEHABVCEntityEvent@@@Z
       2207  89E 0012A340 ?H0x01910041_AutoLookAround_04@CPlayer@@QAEHABVCEntityEvent@@@Z
       2208  89F 0012A4E0 ?H0x01910044_DoAutoActions_01@CPlayer@@QAEHABVCEntityEvent@@@Z
       2209  8A0 0012A580 ?H0x01910045_DoAutoActions_02@CPlayer@@QAEHABVCEntityEvent@@@Z
       2210  8A1 0012A5F0 ?H0x01910046_DoAutoActions_03@CPlayer@@QAEHABVCEntityEvent@@@Z
       2211  8A2 0012A690 ?H0x01910047_DoAutoActions_04@CPlayer@@QAEHABVCEntityEvent@@@Z
       2212  8A3 0012A700 ?H0x01910048_DoAutoActions_05@CPlayer@@QAEHABVCEntityEvent@@@Z
       2213  8A4 0012A7B0 ?H0x01910049_DoAutoActions_06@CPlayer@@QAEHABVCEntityEvent@@@Z
       2214  8A5 0012A820 ?H0x0191004a_DoAutoActions_07@CPlayer@@QAEHABVCEntityEvent@@@Z
       2215  8A6 0012A840 ?H0x0191004b_DoAutoActions_08@CPlayer@@QAEHABVCEntityEvent@@@Z
       2216  8A7 0012A8B0 ?H0x0191004c_DoAutoActions_09@CPlayer@@QAEHABVCEntityEvent@@@Z
       2217  8A8 0012A960 ?H0x0191004d_DoAutoActions_10@CPlayer@@QAEHABVCEntityEvent@@@Z
       2218  8A9 0012A9D0 ?H0x0191004e_DoAutoActions_11@CPlayer@@QAEHABVCEntityEvent@@@Z
       2219  8AA 0012AA80 ?H0x0191004f_DoAutoActions_12@CPlayer@@QAEHABVCEntityEvent@@@Z
       2220  8AB 0012AAF0 ?H0x01910050_DoAutoActions_13@CPlayer@@QAEHABVCEntityEvent@@@Z
       2221  8AC 0012ABA0 ?H0x01910051_DoAutoActions_14@CPlayer@@QAEHABVCEntityEvent@@@Z
       2222  8AD 0012AC10 ?H0x01910052_DoAutoActions_15@CPlayer@@QAEHABVCEntityEvent@@@Z
       2223  8AE 0012ACC0 ?H0x01910053_DoAutoActions_16@CPlayer@@QAEHABVCEntityEvent@@@Z
       2224  8AF 0012AD30 ?H0x01910054_DoAutoActions_17@CPlayer@@QAEHABVCEntityEvent@@@Z
       2225  8B0 0012ADE0 ?H0x01910055_DoAutoActions_18@CPlayer@@QAEHABVCEntityEvent@@@Z
       2226  8B1 0012AE50 ?H0x01910056_DoAutoActions_19@CPlayer@@QAEHABVCEntityEvent@@@Z
       2227  8B2 0012AF00 ?H0x01910057_DoAutoActions_20@CPlayer@@QAEHABVCEntityEvent@@@Z
       2228  8B3 0012AF70 ?H0x01910058_DoAutoActions_21@CPlayer@@QAEHABVCEntityEvent@@@Z
       2229  8B4 0012B030 ?H0x01910059_DoAutoActions_22@CPlayer@@QAEHABVCEntityEvent@@@Z
       2230  8B5 0012B0A0 ?H0x0191005a_DoAutoActions_23@CPlayer@@QAEHABVCEntityEvent@@@Z
       2231  8B6 0012B160 ?H0x0191005b_DoAutoActions_24@CPlayer@@QAEHABVCEntityEvent@@@Z
       2232  8B7 0012B1E0 ?H0x0191005c_DoAutoActions_25@CPlayer@@QAEHABVCEntityEvent@@@Z
       2233  8B8 0012B250 ?H0x0191005d_DoAutoActions_26@CPlayer@@QAEHABVCEntityEvent@@@Z
       2234  8B9 0012B2C0 ?H0x0191005e_DoAutoActions_27@CPlayer@@QAEHABVCEntityEvent@@@Z
       2235  8BA 0012B3F0 ?H0x0191005f_DoAutoActions_28@CPlayer@@QAEHABVCEntityEvent@@@Z
       2236  8BB 0012B460 ?H0x01910060_DoAutoActions_29@CPlayer@@QAEHABVCEntityEvent@@@Z
       2237  8BC 0012B570 ?H0x01910061_DoAutoActions_30@CPlayer@@QAEHABVCEntityEvent@@@Z
       2238  8BD 0012B5E0 ?H0x01910062_DoAutoActions_31@CPlayer@@QAEHABVCEntityEvent@@@Z
       2239  8BE 0012B6D0 ?H0x01910063_DoAutoActions_32@CPlayer@@QAEHABVCEntityEvent@@@Z
       2240  8BF 0012B740 ?H0x01910064_DoAutoActions_33@CPlayer@@QAEHABVCEntityEvent@@@Z
       2241  8C0 0012B810 ?H0x01910065_DoAutoActions_34@CPlayer@@QAEHABVCEntityEvent@@@Z
       2242  8C1 0012B880 ?H0x01910066_DoAutoActions_35@CPlayer@@QAEHABVCEntityEvent@@@Z
       2243  8C2 0012B950 ?H0x01910067_DoAutoActions_36@CPlayer@@QAEHABVCEntityEvent@@@Z
       2244  8C3 0012B9C0 ?H0x01910068_DoAutoActions_37@CPlayer@@QAEHABVCEntityEvent@@@Z
       2245  8C4 0012BAA0 ?H0x01910069_DoAutoActions_38@CPlayer@@QAEHABVCEntityEvent@@@Z
       2246  8C5 0012BB10 ?H0x0191006a_DoAutoActions_39@CPlayer@@QAEHABVCEntityEvent@@@Z
       2247  8C6 0012BC40 ?H0x0191006b_DoAutoActions_40@CPlayer@@QAEHABVCEntityEvent@@@Z
       2248  8C7 0012BCB0 ?H0x0191006c_DoAutoActions_41@CPlayer@@QAEHABVCEntityEvent@@@Z
       2249  8C8 0012BD60 ?H0x0191006d_DoAutoActions_42@CPlayer@@QAEHABVCEntityEvent@@@Z
       2250  8C9 0012BDD0 ?H0x0191006e_DoAutoActions_43@CPlayer@@QAEHABVCEntityEvent@@@Z
       2251  8CA 0012BE80 ?H0x0191006f_DoAutoActions_44@CPlayer@@QAEHABVCEntityEvent@@@Z
       2252  8CB 0012BEF0 ?H0x01910070_DoAutoActions_45@CPlayer@@QAEHABVCEntityEvent@@@Z
       2253  8CC 0012BFA0 ?H0x01910071_DoAutoActions_46@CPlayer@@QAEHABVCEntityEvent@@@Z
       2254  8CD 0012C010 ?H0x01910072_DoAutoActions_47@CPlayer@@QAEHABVCEntityEvent@@@Z
       2255  8CE 0012C0C0 ?H0x01910073_DoAutoActions_48@CPlayer@@QAEHABVCEntityEvent@@@Z
       2256  8CF 0012C130 ?H0x01910074_DoAutoActions_49@CPlayer@@QAEHABVCEntityEvent@@@Z
       2257  8D0 0012C210 ?H0x01910075_DoAutoActions_50@CPlayer@@QAEHABVCEntityEvent@@@Z
       2258  8D1 0012C280 ?H0x01910076_DoAutoActions_51@CPlayer@@QAEHABVCEntityEvent@@@Z
       2259  8D2 0012C340 ?H0x01910077_DoAutoActions_52@CPlayer@@QAEHABVCEntityEvent@@@Z
       2260  8D3 0012C3B0 ?H0x01910078_DoAutoActions_53@CPlayer@@QAEHABVCEntityEvent@@@Z
       2261  8D4 0012C460 ?H0x01910079_DoAutoActions_54@CPlayer@@QAEHABVCEntityEvent@@@Z
       2262  8D5 0012C4D0 ?H0x0191007a_DoAutoActions_55@CPlayer@@QAEHABVCEntityEvent@@@Z
       2263  8D6 0012C5B0 ?H0x0191007b_DoAutoActions_56@CPlayer@@QAEHABVCEntityEvent@@@Z
       2264  8D7 0012C690 ?H0x0191007c_DoAutoActions_57@CPlayer@@QAEHABVCEntityEvent@@@Z
       2265  8D8 0012C790 ?H0x0191007d_DoAutoActions_58@CPlayer@@QAEHABVCEntityEvent@@@Z
       2266  8D9 0012C8C0 ?H0x0191007e_DoAutoActions_59@CPlayer@@QAEHABVCEntityEvent@@@Z
       2267  8DA 0013ECA0 ?H0x0192000b_Main_01@CPlayerWeapons@@QAEHABVCEntityEvent@@@Z
       2268  8DB 0013EF50 ?H0x0192000c_Main_02@CPlayerWeapons@@QAEHABVCEntityEvent@@@Z
       2269  8DC 0013F0E0 ?H0x0192000e_Fire_01@CPlayerWeapons@@QAEHABVCEntityEvent@@@Z
       2270  8DD 0013F1C0 ?H0x0192000f_Fire_02@CPlayerWeapons@@QAEHABVCEntityEvent@@@Z
       2271  8DE 0013F230 ?H0x01920010_Fire_03@CPlayerWeapons@@QAEHABVCEntityEvent@@@Z
       2272  8DF 0013F310 ?H0x01920011_Fire_04@CPlayerWeapons@@QAEHABVCEntityEvent@@@Z
       2273  8E0 0013F540 ?H0x01920013_SwingKnife_01@CPlayerWeapons@@QAEHABVCEntityEvent@@@Z
       2274  8E1 0013F5E0 ?H0x01920014_SwingKnife_02@CPlayerWeapons@@QAEHABVCEntityEvent@@@Z
       2275  8E2 0013F650 ?H0x01920015_SwingKnife_03@CPlayerWeapons@@QAEHABVCEntityEvent@@@Z
       2276  8E3 0013F6F0 ?H0x01920016_SwingKnife_04@CPlayerWeapons@@QAEHABVCEntityEvent@@@Z
       2277  8E4 0013F7E0 ?H0x01920017_SwingKnife_05@CPlayerWeapons@@QAEHABVCEntityEvent@@@Z
       2278  8E5 0013F880 ?H0x01920018_SwingKnife_06@CPlayerWeapons@@QAEHABVCEntityEvent@@@Z
       2279  8E6 0013F8F0 ?H0x01920019_SwingKnife_07@CPlayerWeapons@@QAEHABVCEntityEvent@@@Z
       2280  8E7 0013F960 ?H0x0192001a_SwingKnife_08@CPlayerWeapons@@QAEHABVCEntityEvent@@@Z
       2281  8E8 0013F9D0 ?H0x0192001b_SwingKnife_09@CPlayerWeapons@@QAEHABVCEntityEvent@@@Z
       2282  8E9 0013FA60 ?H0x0192001c_SwingKnife_10@CPlayerWeapons@@QAEHABVCEntityEvent@@@Z
       2283  8EA 0013FB50 ?H0x0192001d_SwingKnife_11@CPlayerWeapons@@QAEHABVCEntityEvent@@@Z
       2284  8EB 0013FBF0 ?H0x0192001e_SwingKnife_12@CPlayerWeapons@@QAEHABVCEntityEvent@@@Z
       2285  8EC 0013FC60 ?H0x0192001f_SwingKnife_13@CPlayerWeapons@@QAEHABVCEntityEvent@@@Z
       2286  8ED 0013FDE0 ?H0x01920021_ChainsawFire_01@CPlayerWeapons@@QAEHABVCEntityEvent@@@Z
       2287  8EE 0013FE80 ?H0x01920022_ChainsawFire_02@CPlayerWeapons@@QAEHABVCEntityEvent@@@Z
       2288  8EF 0013FFE0 ?H0x01920023_ChainsawFire_03@CPlayerWeapons@@QAEHABVCEntityEvent@@@Z
       2289  8F0 00140080 ?H0x01920024_ChainsawFire_04@CPlayerWeapons@@QAEHABVCEntityEvent@@@Z
       2290  8F1 00140170 ?H0x01920025_ChainsawFire_05@CPlayerWeapons@@QAEHABVCEntityEvent@@@Z
       2291  8F2 00140230 ?H0x01920026_ChainsawFire_06@CPlayerWeapons@@QAEHABVCEntityEvent@@@Z
       2292  8F3 00140390 ?H0x01920027_ChainsawFire_07@CPlayerWeapons@@QAEHABVCEntityEvent@@@Z
       2293  8F4 00140430 ?H0x01920028_ChainsawFire_08@CPlayerWeapons@@QAEHABVCEntityEvent@@@Z
       2294  8F5 00140580 ?H0x0192002a_ChainsawBringUp_01@CPlayerWeapons@@QAEHABVCEntityEvent@@@Z
       2295  8F6 00140620 ?H0x0192002b_ChainsawBringUp_02@CPlayerWeapons@@QAEHABVCEntityEvent@@@Z
       2296  8F7 00140850 ?H0x0192002f_BoringWeaponAnimation_01@CPlayerWeapons@@QAEHABVCEntityEvent@@@Z
       2297  8F8 001408F0 ?H0x01920030_BoringWeaponAnimation_02@CPlayerWeapons@@QAEHABVCEntityEvent@@@Z
       2298  8F9 00140960 ?H0x01920031_BoringWeaponAnimation_03@CPlayerWeapons@@QAEHABVCEntityEvent@@@Z
       2299  8FA 00140A50 ?H0x01920033_Idle_01@CPlayerWeapons@@QAEHABVCEntityEvent@@@Z
       2300  8FB 00140CA0 ?H0x01920034_Idle_02@CPlayerWeapons@@QAEHABVCEntityEvent@@@Z
       2301  8FC 00140D80 ?H0x01920036_Stopped_01@CPlayerWeapons@@QAEHABVCEntityEvent@@@Z
       2302  8FD 00140E50 ?H0x01920037_Stopped_02@CPlayerWeapons@@QAEHABVCEntityEvent@@@Z
       2303  8FE 001393A0 ?H0x01930001_Main_01@CPlayerView@@QAEHABVCEntityEvent@@@Z
       2304  8FF 00139500 ?H0x01930002_Main_02@CPlayerView@@QAEHABVCEntityEvent@@@Z
       2305  900 00136530 ?H0x01960001_Main_01@CPlayerAnimator@@QAEHABVCEntityEvent@@@Z
       2306  901 001365F0 ?H0x01960002_Main_02@CPlayerAnimator@@QAEHABVCEntityEvent@@@Z
       2307  902 00144670 ?H0x01f50003_Main_01@CProjectile@@QAEHABVCEntityEvent@@@Z
       2308  903 001448A0 ?H0x01f50004_Main_02@CProjectile@@QAEHABVCEntityEvent@@@Z
       2309  904 00144990 ?H0x01f50005_Main_03@CProjectile@@QAEHABVCEntityEvent@@@Z
       2310  905 00144A30 ?H0x01f50006_Main_04@CProjectile@@QAEHABVCEntityEvent@@@Z
       2311  906 00144AA0 ?H0x01f50007_Main_05@CProjectile@@QAEHABVCEntityEvent@@@Z
       2312  907 00144C20 ?H0x01f50009_ProjectileFly_01@CProjectile@@QAEHABVCEntityEvent@@@Z
       2313  908 00144E60 ?H0x01f5000a_ProjectileFly_02@CProjectile@@QAEHABVCEntityEvent@@@Z
       2314  909 00145010 ?H0x01f5000c_ProjectileGuidedFly_01@CProjectile@@QAEHABVCEntityEvent@@@Z
       2315  90A 00145210 ?H0x01f5000d_ProjectileGuidedFly_02@CProjectile@@QAEHABVCEntityEvent@@@Z
       2316  90B 00145280 ?H0x01f5000e_ProjectileGuidedFly_03@CProjectile@@QAEHABVCEntityEvent@@@Z
       2317  90C 00145740 ?H0x01f5000f_ProjectileGuidedFly_04@CProjectile@@QAEHABVCEntityEvent@@@Z
       2318  90D 001458E0 ?H0x01f50011_ProjectileGuidedFastFly_01@CProjectile@@QAEHABVCEntityEvent@@@Z
       2319  90E 00145C80 ?H0x01f50012_ProjectileGuidedFastFly_02@CProjectile@@QAEHABVCEntityEvent@@@Z
       2320  90F 00145CF0 ?H0x01f50013_ProjectileGuidedFastFly_03@CProjectile@@QAEHABVCEntityEvent@@@Z
       2321  910 001461D0 ?H0x01f50014_ProjectileGuidedFastFly_04@CProjectile@@QAEHABVCEntityEvent@@@Z
       2322  911 00146380 ?H0x01f50016_ProjectileGuidedSlide_01@CProjectile@@QAEHABVCEntityEvent@@@Z
       2323  912 00146580 ?H0x01f50017_ProjectileGuidedSlide_02@CProjectile@@QAEHABVCEntityEvent@@@Z
       2324  913 001465F0 ?H0x01f50018_ProjectileGuidedSlide_03@CProjectile@@QAEHABVCEntityEvent@@@Z
       2325  914 00146A10 ?H0x01f50019_ProjectileGuidedSlide_04@CProjectile@@QAEHABVCEntityEvent@@@Z
       2326  915 00146BD0 ?H0x01f5001b_ProjectileSlide_01@CProjectile@@QAEHABVCEntityEvent@@@Z
       2327  916 00146FE0 ?H0x01f5001c_ProjectileSlide_02@CProjectile@@QAEHABVCEntityEvent@@@Z
       2328  917 001471A0 ?H0x01f5001e_ProjectileFlyRebounding_01@CProjectile@@QAEHABVCEntityEvent@@@Z
       2329  918 00147630 ?H0x01f5001f_ProjectileFlyRebounding_02@CProjectile@@QAEHABVCEntityEvent@@@Z
       2330  919 00168B80 ?H0x02bc0002_Main_01@CWatcher@@QAEHABVCEntityEvent@@@Z
       2331  91A 00168C30 ?H0x02bc0003_Main_02@CWatcher@@QAEHABVCEntityEvent@@@Z
       2332  91B 00168D10 ?H0x02bc0005_Active_01@CWatcher@@QAEHABVCEntityEvent@@@Z
       2333  91C 00168E40 ?H0x02bc0006_Active_02@CWatcher@@QAEHABVCEntityEvent@@@Z
       2334  91D 00168EB0 ?H0x02bc0007_Active_03@CWatcher@@QAEHABVCEntityEvent@@@Z
       2335  91E 00168F40 ?H0x02bc0008_Active_04@CWatcher@@QAEHABVCEntityEvent@@@Z
       2336  91F 00168FD0 ?H0x02bc000a_Inactive_01@CWatcher@@QAEHABVCEntityEvent@@@Z
       2337  920 00169070 ?H0x02bc000b_Inactive_02@CWatcher@@QAEHABVCEntityEvent@@@Z
       2338  921 00169100 ?H0x02bc000d_Dummy_01@CWatcher@@QAEHABVCEntityEvent@@@Z
       2339  922 00169110 ?H0x02bc000e_Dummy_02@CWatcher@@QAEHABVCEntityEvent@@@Z
       2340  923 00147EA0 ?H0x02bf0001_Main_01@CReminder@@QAEHABVCEntityEvent@@@Z
       2341  924 00147F40 ?H0x02bf0002_Main_02@CReminder@@QAEHABVCEntityEvent@@@Z
       2342  925 00147FF0 ?H0x02bf0003_Main_03@CReminder@@QAEHABVCEntityEvent@@@Z
       2343  926 000C9FB0 ?H0x03200005_ItemLoop_01@CItem@@QAEHABVCEntityEvent@@@Z
       2344  927 000CA070 ?H0x03200006_ItemLoop_02@CItem@@QAEHABVCEntityEvent@@@Z
       2345  928 000CA100 ?H0x03200007_ItemLoop_03@CItem@@QAEHABVCEntityEvent@@@Z
       2346  929 000CA2E0 ?H0x03200008_ItemLoop_04@CItem@@QAEHABVCEntityEvent@@@Z
       2347  92A 000CA370 ?H0x03200009_ItemLoop_05@CItem@@QAEHABVCEntityEvent@@@Z
       2348  92B 000CA410 ?H0x0320000a_ItemLoop_06@CItem@@QAEHABVCEntityEvent@@@Z
       2349  92C 000CA580 ?H0x0320000c_ItemReceived_01@CItem@@QAEHABVCEntityEvent@@@Z
       2350  92D 000CA610 ?H0x0320000d_ItemReceived_02@CItem@@QAEHABVCEntityEvent@@@Z
       2351  92E 000CA690 ?H0x0320000e_ItemReceived_03@CItem@@QAEHABVCEntityEvent@@@Z
       2352  92F 000CA700 ?H0x0320000f_ItemReceived_04@CItem@@QAEHABVCEntityEvent@@@Z
       2353  930 00096DD0 ?H0x04570006_NewEnemySpotted_01@CCharacterBase@@QAEHABVCEntityEvent@@@Z
       2354  931 00096E80 ?H0x04570007_NewEnemySpotted_02@CCharacterBase@@QAEHABVCEntityEvent@@@Z
       2355  932 00096EF0 ?H0x04570008_NewEnemySpotted_03@CCharacterBase@@QAEHABVCEntityEvent@@@Z
       2356  933 00097120 ?H0x0457000c_AttackEnemy_01@CCharacterBase@@QAEHABVCEntityEvent@@@Z
       2357  934 000971D0 ?H0x0457000d_AttackEnemy_02@CCharacterBase@@QAEHABVCEntityEvent@@@Z
       2358  935 00097240 ?H0x0457000e_AttackEnemy_03@CCharacterBase@@QAEHABVCEntityEvent@@@Z
       2359  936 000972F0 ?H0x0457000f_AttackEnemy_04@CCharacterBase@@QAEHABVCEntityEvent@@@Z
       2360  937 00097360 ?H0x04570010_AttackEnemy_05@CCharacterBase@@QAEHABVCEntityEvent@@@Z
       2361  938 00097410 ?H0x04570011_AttackEnemy_06@CCharacterBase@@QAEHABVCEntityEvent@@@Z
       2362  939 00097480 ?H0x04570012_AttackEnemy_07@CCharacterBase@@QAEHABVCEntityEvent@@@Z
       2363  93A 00097530 ?H0x04570013_AttackEnemy_08@CCharacterBase@@QAEHABVCEntityEvent@@@Z
       2364  93B 00097660 ?H0x04570015_PerformAttack_01@CCharacterBase@@QAEHABVCEntityEvent@@@Z
       2365  93C 00097AA0 ?H0x04570016_PerformAttack_02@CCharacterBase@@QAEHABVCEntityEvent@@@Z
       2366  93D 00097B10 ?H0x04570017_PerformAttack_03@CCharacterBase@@QAEHABVCEntityEvent@@@Z
       2367  93E 00097C50 ?H0x04570018_PerformAttack_04@CCharacterBase@@QAEHABVCEntityEvent@@@Z
       2368  93F 00097DC0 ?H0x0457001a_FireOrHit_01@CCharacterBase@@QAEHABVCEntityEvent@@@Z
       2369  940 00097E70 ?H0x0457001b_FireOrHit_02@CCharacterBase@@QAEHABVCEntityEvent@@@Z
       2370  941 00097EE0 ?H0x0457001c_FireOrHit_03@CCharacterBase@@QAEHABVCEntityEvent@@@Z
       2371  942 00097F90 ?H0x0457001d_FireOrHit_04@CCharacterBase@@QAEHABVCEntityEvent@@@Z
       2372  943 00098000 ?H0x0457001e_FireOrHit_05@CCharacterBase@@QAEHABVCEntityEvent@@@Z
       2373  944 00098070 ?H0x0457001f_FireOrHit_06@CCharacterBase@@QAEHABVCEntityEvent@@@Z
       2374  945 00098100 ?H0x04570020_FireOrHit_07@CCharacterBase@@QAEHABVCEntityEvent@@@Z
       2375  946 00098170 ?H0x04570021_FireOrHit_08@CCharacterBase@@QAEHABVCEntityEvent@@@Z
       2376  947 00098690 ?H0x04570026_Die_01@CCharacterBase@@QAEHABVCEntityEvent@@@Z
       2377  948 00098A20 ?H0x04570027_Die_02@CCharacterBase@@QAEHABVCEntityEvent@@@Z
       2378  949 00098BD0 ?H0x04570029_Death_01@CCharacterBase@@QAEHABVCEntityEvent@@@Z
       2379  94A 00098C70 ?H0x0457002a_Death_02@CCharacterBase@@QAEHABVCEntityEvent@@@Z
       2380  94B 00098DC0 ?H0x0457002c_DeathSequence_01@CCharacterBase@@QAEHABVCEntityEvent@@@Z
       2381  94C 00098E70 ?H0x0457002d_DeathSequence_02@CCharacterBase@@QAEHABVCEntityEvent@@@Z
       2382  94D 00098F60 ?H0x0457002e_DeathSequence_03@CCharacterBase@@QAEHABVCEntityEvent@@@Z
       2383  94E 00099000 ?H0x0457002f_DeathSequence_04@CCharacterBase@@QAEHABVCEntityEvent@@@Z
       2384  94F 000990C0 ?H0x04570030_DeathSequence_05@CCharacterBase@@QAEHABVCEntityEvent@@@Z
       2385  950 00099160 ?H0x04570031_DeathSequence_06@CCharacterBase@@QAEHABVCEntityEvent@@@Z
       2386  951 000991E0 ?H0x04570032_DeathSequence_07@CCharacterBase@@QAEHABVCEntityEvent@@@Z
       2387  952 00099280 ?H0x04570033_DeathSequence_08@CCharacterBase@@QAEHABVCEntityEvent@@@Z
       2388  953 00099380 ?H0x04570035_Active_01@CCharacterBase@@QAEHABVCEntityEvent@@@Z
       2389  954 000998F0 ?H0x04570036_Active_02@CCharacterBase@@QAEHABVCEntityEvent@@@Z
       2390  955 000999D0 ?H0x04570038_Inactive_01@CCharacterBase@@QAEHABVCEntityEvent@@@Z
       2391  956 00099BC0 ?H0x04570039_Inactive_02@CCharacterBase@@QAEHABVCEntityEvent@@@Z
       2392  957 00099D60 ?H0x0457003c_MainLoop_internal_01@CCharacterBase@@QAEHABVCEntityEvent@@@Z
       2393  958 00099E00 ?H0x0457003d_MainLoop_internal_02@CCharacterBase@@QAEHABVCEntityEvent@@@Z
       2394  959 00099F10 ?H0x0457003e_MainLoop_internal_03@CCharacterBase@@QAEHABVCEntityEvent@@@Z
       2395  95A 00099FC0 ?H0x0457003f_MainLoop_internal_04@CCharacterBase@@QAEHABVCEntityEvent@@@Z
       2396  95B 0009A130 ?H0x04570042_StandardBehavior_01@CCharacterBase@@QAEHABVCEntityEvent@@@Z
       2397  95C 0009A3C0 ?H0x04570043_StandardBehavior_02@CCharacterBase@@QAEHABVCEntityEvent@@@Z
       2398  95D 0009A8C0 ?H0x0457004e_MovetoPoint_01@CCharacterBase@@QAEHABVCEntityEvent@@@Z
       2399  95E 0009A9B0 ?H0x0457004f_MovetoPoint_02@CCharacterBase@@QAEHABVCEntityEvent@@@Z
       2400  95F 0009AA20 ?H0x04570050_MovetoPoint_03@CCharacterBase@@QAEHABVCEntityEvent@@@Z
       2401  960 0009AAF0 ?H0x04570051_MovetoPoint_04@CCharacterBase@@QAEHABVCEntityEvent@@@Z
       2402  961 000F2750 ?H0x211c0006_NewEnemySpotted_01@CPetBase@@QAEHABVCEntityEvent@@@Z
       2403  962 000F2800 ?H0x211c0007_NewEnemySpotted_02@CPetBase@@QAEHABVCEntityEvent@@@Z
       2404  963 000F2870 ?H0x211c0008_NewEnemySpotted_03@CPetBase@@QAEHABVCEntityEvent@@@Z
       2405  964 000F2B80 ?H0x211c000c_AttackEnemy_01@CPetBase@@QAEHABVCEntityEvent@@@Z
       2406  965 000F2C30 ?H0x211c000d_AttackEnemy_02@CPetBase@@QAEHABVCEntityEvent@@@Z
       2407  966 000F2CA0 ?H0x211c000e_AttackEnemy_03@CPetBase@@QAEHABVCEntityEvent@@@Z
       2408  967 000F2D50 ?H0x211c000f_AttackEnemy_04@CPetBase@@QAEHABVCEntityEvent@@@Z
       2409  968 000F2DC0 ?H0x211c0010_AttackEnemy_05@CPetBase@@QAEHABVCEntityEvent@@@Z
       2410  969 000F2E70 ?H0x211c0011_AttackEnemy_06@CPetBase@@QAEHABVCEntityEvent@@@Z
       2411  96A 000F2EE0 ?H0x211c0012_AttackEnemy_07@CPetBase@@QAEHABVCEntityEvent@@@Z
       2412  96B 000F2F90 ?H0x211c0013_AttackEnemy_08@CPetBase@@QAEHABVCEntityEvent@@@Z
       2413  96C 000F30A0 ?H0x211c0015_PerformPet_01@CPetBase@@QAEHABVCEntityEvent@@@Z
       2414  96D 000F3280 ?H0x211c0016_PerformPet_02@CPetBase@@QAEHABVCEntityEvent@@@Z
       2415  96E 000F32F0 ?H0x211c0017_PerformPet_03@CPetBase@@QAEHABVCEntityEvent@@@Z
       2416  96F 000F33A0 ?H0x211c0018_PerformPet_04@CPetBase@@QAEHABVCEntityEvent@@@Z
       2417  970 000F3510 ?H0x211c001a_FireOrHit_01@CPetBase@@QAEHABVCEntityEvent@@@Z
       2418  971 000F35C0 ?H0x211c001b_FireOrHit_02@CPetBase@@QAEHABVCEntityEvent@@@Z
       2419  972 000F3630 ?H0x211c001c_FireOrHit_03@CPetBase@@QAEHABVCEntityEvent@@@Z
       2420  973 000F36E0 ?H0x211c001d_FireOrHit_04@CPetBase@@QAEHABVCEntityEvent@@@Z
       2421  974 000F3750 ?H0x211c001e_FireOrHit_05@CPetBase@@QAEHABVCEntityEvent@@@Z
       2422  975 000F37C0 ?H0x211c001f_FireOrHit_06@CPetBase@@QAEHABVCEntityEvent@@@Z
       2423  976 000F3850 ?H0x211c0020_FireOrHit_07@CPetBase@@QAEHABVCEntityEvent@@@Z
       2424  977 000F38C0 ?H0x211c0021_FireOrHit_08@CPetBase@@QAEHABVCEntityEvent@@@Z
       2425  978 000F3DC0 ?H0x211c0026_Die_01@CPetBase@@QAEHABVCEntityEvent@@@Z
       2426  979 000F40F0 ?H0x211c0027_Die_02@CPetBase@@QAEHABVCEntityEvent@@@Z
       2427  97A 000F42A0 ?H0x211c0029_Death_01@CPetBase@@QAEHABVCEntityEvent@@@Z
       2428  97B 000F4340 ?H0x211c002a_Death_02@CPetBase@@QAEHABVCEntityEvent@@@Z
       2429  97C 000F43F0 ?H0x211c002b_Death_03@CPetBase@@QAEHABVCEntityEvent@@@Z
       2430  97D 000F4490 ?H0x211c002c_Death_04@CPetBase@@QAEHABVCEntityEvent@@@Z
       2431  97E 000F4670 ?H0x211c002d_Death_05@CPetBase@@QAEHABVCEntityEvent@@@Z
       2432  97F 000F4750 ?H0x211c002e_Death_06@CPetBase@@QAEHABVCEntityEvent@@@Z
       2433  980 000F47C0 ?H0x211c002f_Death_07@CPetBase@@QAEHABVCEntityEvent@@@Z
       2434  981 000F4830 ?H0x211c0030_Death_08@CPetBase@@QAEHABVCEntityEvent@@@Z
       2435  982 000F48A0 ?H0x211c0031_Death_09@CPetBase@@QAEHABVCEntityEvent@@@Z
       2436  983 000F49A0 ?H0x211c0033_DeathSequence_01@CPetBase@@QAEHABVCEntityEvent@@@Z
       2437  984 000F4A50 ?H0x211c0034_DeathSequence_02@CPetBase@@QAEHABVCEntityEvent@@@Z
       2438  985 000F4B30 ?H0x211c0035_DeathSequence_03@CPetBase@@QAEHABVCEntityEvent@@@Z
       2439  986 000F4BD0 ?H0x211c0036_DeathSequence_04@CPetBase@@QAEHABVCEntityEvent@@@Z
       2440  987 000F4CA0 ?H0x211c0037_DeathSequence_05@CPetBase@@QAEHABVCEntityEvent@@@Z
       2441  988 000F4D40 ?H0x211c0038_DeathSequence_06@CPetBase@@QAEHABVCEntityEvent@@@Z
       2442  989 000F4DC0 ?H0x211c0039_DeathSequence_07@CPetBase@@QAEHABVCEntityEvent@@@Z
       2443  98A 000F4E60 ?H0x211c003a_DeathSequence_08@CPetBase@@QAEHABVCEntityEvent@@@Z
       2444  98B 000F4F60 ?H0x211c003c_Active_01@CPetBase@@QAEHABVCEntityEvent@@@Z
       2445  98C 000F5330 ?H0x211c003d_Active_02@CPetBase@@QAEHABVCEntityEvent@@@Z
       2446  98D 000F53D0 ?H0x211c003f_SingleActive_01@CPetBase@@QAEHABVCEntityEvent@@@Z
       2447  98E 000F56E0 ?H0x211c0040_SingleActive_02@CPetBase@@QAEHABVCEntityEvent@@@Z
       2448  98F 000F5780 ?H0x211c0042_Inactive_01@CPetBase@@QAEHABVCEntityEvent@@@Z
       2449  990 000F5970 ?H0x211c0043_Inactive_02@CPetBase@@QAEHABVCEntityEvent@@@Z
       2450  991 000F5A60 ?H0x211c0045_SingleInActive_01@CPetBase@@QAEHABVCEntityEvent@@@Z
       2451  992 000F5C40 ?H0x211c0046_SingleInActive_02@CPetBase@@QAEHABVCEntityEvent@@@Z
       2452  993 000F5DE0 ?H0x211c0049_MainLoop_internal_01@CPetBase@@QAEHABVCEntityEvent@@@Z
       2453  994 000F5E80 ?H0x211c004a_MainLoop_internal_02@CPetBase@@QAEHABVCEntityEvent@@@Z
       2454  995 000F6020 ?H0x211c004b_MainLoop_internal_03@CPetBase@@QAEHABVCEntityEvent@@@Z
       2455  996 000F60D0 ?H0x211c004c_MainLoop_internal_04@CPetBase@@QAEHABVCEntityEvent@@@Z
       2456  997 000F6240 ?H0x211c004f_StandardBehavior_01@CPetBase@@QAEHABVCEntityEvent@@@Z
       2457  998 000F6540 ?H0x211c0050_StandardBehavior_02@CPetBase@@QAEHABVCEntityEvent@@@Z
       2458  999 000F6800 ?H0x211c0056_MovetoPoint_01@CPetBase@@QAEHABVCEntityEvent@@@Z
       2459  99A 000F6970 ?H0x211c0057_MovetoPoint_02@CPetBase@@QAEHABVCEntityEvent@@@Z
       2460  99B 000F69E0 ?H0x211c0058_MovetoPoint_03@CPetBase@@QAEHABVCEntityEvent@@@Z
       2461  99C 000F6A70 ?H0x211c0059_MovetoPoint_04@CPetBase@@QAEHABVCEntityEvent@@@Z
       2462  99D 00155050 ?H0x211f000a_AttackEnemy_01@CSlaveBase@@QAEHABVCEntityEvent@@@Z
       2463  99E 00155100 ?H0x211f000b_AttackEnemy_02@CSlaveBase@@QAEHABVCEntityEvent@@@Z
       2464  99F 00155170 ?H0x211f000c_AttackEnemy_03@CSlaveBase@@QAEHABVCEntityEvent@@@Z
       2465  9A0 00155220 ?H0x211f000d_AttackEnemy_04@CSlaveBase@@QAEHABVCEntityEvent@@@Z
       2466  9A1 00155290 ?H0x211f000e_AttackEnemy_05@CSlaveBase@@QAEHABVCEntityEvent@@@Z
       2467  9A2 00155340 ?H0x211f000f_AttackEnemy_06@CSlaveBase@@QAEHABVCEntityEvent@@@Z
       2468  9A3 001553B0 ?H0x211f0010_AttackEnemy_07@CSlaveBase@@QAEHABVCEntityEvent@@@Z
       2469  9A4 00155460 ?H0x211f0011_AttackEnemy_08@CSlaveBase@@QAEHABVCEntityEvent@@@Z
       2470  9A5 00155590 ?H0x211f0013_PerformAttack_01@CSlaveBase@@QAEHABVCEntityEvent@@@Z
       2471  9A6 00155990 ?H0x211f0014_PerformAttack_02@CSlaveBase@@QAEHABVCEntityEvent@@@Z
       2472  9A7 00155A00 ?H0x211f0015_PerformAttack_03@CSlaveBase@@QAEHABVCEntityEvent@@@Z
       2473  9A8 00155B40 ?H0x211f0016_PerformAttack_04@CSlaveBase@@QAEHABVCEntityEvent@@@Z
       2474  9A9 00155D10 ?H0x211f0018_FireOrHit_01@CSlaveBase@@QAEHABVCEntityEvent@@@Z
       2475  9AA 00155DC0 ?H0x211f0019_FireOrHit_02@CSlaveBase@@QAEHABVCEntityEvent@@@Z
       2476  9AB 00155E30 ?H0x211f001a_FireOrHit_03@CSlaveBase@@QAEHABVCEntityEvent@@@Z
       2477  9AC 00155EA0 ?H0x211f001b_FireOrHit_04@CSlaveBase@@QAEHABVCEntityEvent@@@Z
       2478  9AD 001561D0 ?H0x211f0020_Die_01@CSlaveBase@@QAEHABVCEntityEvent@@@Z
       2479  9AE 00156500 ?H0x211f0021_Die_02@CSlaveBase@@QAEHABVCEntityEvent@@@Z
       2480  9AF 001566B0 ?H0x211f0023_Death_01@CSlaveBase@@QAEHABVCEntityEvent@@@Z
       2481  9B0 00156750 ?H0x211f0024_Death_02@CSlaveBase@@QAEHABVCEntityEvent@@@Z
       2482  9B1 00156800 ?H0x211f0025_Death_03@CSlaveBase@@QAEHABVCEntityEvent@@@Z
       2483  9B2 001568A0 ?H0x211f0026_Death_04@CSlaveBase@@QAEHABVCEntityEvent@@@Z
       2484  9B3 00156A80 ?H0x211f0027_Death_05@CSlaveBase@@QAEHABVCEntityEvent@@@Z
       2485  9B4 00156B60 ?H0x211f0028_Death_06@CSlaveBase@@QAEHABVCEntityEvent@@@Z
       2486  9B5 00156BD0 ?H0x211f0029_Death_07@CSlaveBase@@QAEHABVCEntityEvent@@@Z
       2487  9B6 00156C40 ?H0x211f002a_Death_08@CSlaveBase@@QAEHABVCEntityEvent@@@Z
       2488  9B7 00156CB0 ?H0x211f002b_Death_09@CSlaveBase@@QAEHABVCEntityEvent@@@Z
       2489  9B8 00156DB0 ?H0x211f002d_DeathSequence_01@CSlaveBase@@QAEHABVCEntityEvent@@@Z
       2490  9B9 00156E60 ?H0x211f002e_DeathSequence_02@CSlaveBase@@QAEHABVCEntityEvent@@@Z
       2491  9BA 00156F40 ?H0x211f002f_DeathSequence_03@CSlaveBase@@QAEHABVCEntityEvent@@@Z
       2492  9BB 00156FE0 ?H0x211f0030_DeathSequence_04@CSlaveBase@@QAEHABVCEntityEvent@@@Z
       2493  9BC 001570B0 ?H0x211f0031_DeathSequence_05@CSlaveBase@@QAEHABVCEntityEvent@@@Z
       2494  9BD 00157150 ?H0x211f0032_DeathSequence_06@CSlaveBase@@QAEHABVCEntityEvent@@@Z
       2495  9BE 001571D0 ?H0x211f0033_DeathSequence_07@CSlaveBase@@QAEHABVCEntityEvent@@@Z
       2496  9BF 00157270 ?H0x211f0034_DeathSequence_08@CSlaveBase@@QAEHABVCEntityEvent@@@Z
       2497  9C0 00157370 ?H0x211f0036_Active_01@CSlaveBase@@QAEHABVCEntityEvent@@@Z
       2498  9C1 00157760 ?H0x211f0037_Active_02@CSlaveBase@@QAEHABVCEntityEvent@@@Z
       2499  9C2 00157800 ?H0x211f0039_SingleActive_01@CSlaveBase@@QAEHABVCEntityEvent@@@Z
       2500  9C3 00157C00 ?H0x211f003a_SingleActive_02@CSlaveBase@@QAEHABVCEntityEvent@@@Z
       2501  9C4 00157CA0 ?H0x211f003c_Inactive_01@CSlaveBase@@QAEHABVCEntityEvent@@@Z
       2502  9C5 00157E90 ?H0x211f003d_Inactive_02@CSlaveBase@@QAEHABVCEntityEvent@@@Z
       2503  9C6 00157F30 ?H0x211f003f_SingleInActive_01@CSlaveBase@@QAEHABVCEntityEvent@@@Z
       2504  9C7 00158110 ?H0x211f0040_SingleInActive_02@CSlaveBase@@QAEHABVCEntityEvent@@@Z
       2505  9C8 001582B0 ?H0x211f0043_MainLoop_internal_01@CSlaveBase@@QAEHABVCEntityEvent@@@Z
       2506  9C9 00158350 ?H0x211f0044_MainLoop_internal_02@CSlaveBase@@QAEHABVCEntityEvent@@@Z
       2507  9CA 00158450 ?H0x211f0045_MainLoop_internal_03@CSlaveBase@@QAEHABVCEntityEvent@@@Z
       2508  9CB 00158500 ?H0x211f0046_MainLoop_internal_04@CSlaveBase@@QAEHABVCEntityEvent@@@Z
       2509  9CC 00158670 ?H0x211f0049_StandardBehavior_01@CSlaveBase@@QAEHABVCEntityEvent@@@Z
       2510  9CD 00158970 ?H0x211f004a_StandardBehavior_02@CSlaveBase@@QAEHABVCEntityEvent@@@Z
       2511  9CE 00158C00 ?H0x211f0050_MovetoPoint_01@CSlaveBase@@QAEHABVCEntityEvent@@@Z
       2512  9CF 00158D70 ?H0x211f0051_MovetoPoint_02@CSlaveBase@@QAEHABVCEntityEvent@@@Z
       2513  9D0 00158DE0 ?H0x211f0052_MovetoPoint_03@CSlaveBase@@QAEHABVCEntityEvent@@@Z
       2514  9D1 00158E70 ?H0x211f0053_MovetoPoint_04@CSlaveBase@@QAEHABVCEntityEvent@@@Z
       2515  9D2 00173A20 ?H0x4c910006_WPetAction_01@CWildPetBase@@QAEHABVCEntityEvent@@@Z
       2516  9D3 00173AD0 ?H0x4c910007_WPetAction_02@CWildPetBase@@QAEHABVCEntityEvent@@@Z
       2517  9D4 00173B40 ?H0x4c910008_WPetAction_03@CWildPetBase@@QAEHABVCEntityEvent@@@Z
       2518  9D5 00173C10 ?H0x4c910009_WPetAction_04@CWildPetBase@@QAEHABVCEntityEvent@@@Z
       2519  9D6 00173C80 ?H0x4c91000a_WPetAction_05@CWildPetBase@@QAEHABVCEntityEvent@@@Z
       2520  9D7 00173D30 ?H0x4c91000b_WPetAction_06@CWildPetBase@@QAEHABVCEntityEvent@@@Z
       2521  9D8 00173E60 ?H0x4c91000d_PerFormWPet_01@CWildPetBase@@QAEHABVCEntityEvent@@@Z
       2522  9D9 001742D0 ?H0x4c91000e_PerFormWPet_02@CWildPetBase@@QAEHABVCEntityEvent@@@Z
       2523  9DA 00174340 ?H0x4c91000f_PerFormWPet_03@CWildPetBase@@QAEHABVCEntityEvent@@@Z
       2524  9DB 001745F0 ?H0x4c910010_PerFormWPet_04@CWildPetBase@@QAEHABVCEntityEvent@@@Z
       2525  9DC 001747E0 ?H0x4c910012_FireOrHit_01@CWildPetBase@@QAEHABVCEntityEvent@@@Z
       2526  9DD 00174890 ?H0x4c910013_FireOrHit_02@CWildPetBase@@QAEHABVCEntityEvent@@@Z
       2527  9DE 00174900 ?H0x4c910014_FireOrHit_03@CWildPetBase@@QAEHABVCEntityEvent@@@Z
       2528  9DF 00174970 ?H0x4c910015_FireOrHit_04@CWildPetBase@@QAEHABVCEntityEvent@@@Z
       2529  9E0 00174C70 ?H0x4c91001a_Die_01@CWildPetBase@@QAEHABVCEntityEvent@@@Z
       2530  9E1 00174D40 ?H0x4c91001b_Die_02@CWildPetBase@@QAEHABVCEntityEvent@@@Z
       2531  9E2 00174F00 ?H0x4c91001d_Death_01@CWildPetBase@@QAEHABVCEntityEvent@@@Z
       2532  9E3 00174FA0 ?H0x4c91001e_Death_02@CWildPetBase@@QAEHABVCEntityEvent@@@Z
       2533  9E4 00175050 ?H0x4c91001f_Death_03@CWildPetBase@@QAEHABVCEntityEvent@@@Z
       2534  9E5 001750F0 ?H0x4c910020_Death_04@CWildPetBase@@QAEHABVCEntityEvent@@@Z
       2535  9E6 001752B0 ?H0x4c910021_Death_05@CWildPetBase@@QAEHABVCEntityEvent@@@Z
       2536  9E7 00175390 ?H0x4c910022_Death_06@CWildPetBase@@QAEHABVCEntityEvent@@@Z
       2537  9E8 00175400 ?H0x4c910023_Death_07@CWildPetBase@@QAEHABVCEntityEvent@@@Z
       2538  9E9 00175500 ?H0x4c910025_DeathSequence_01@CWildPetBase@@QAEHABVCEntityEvent@@@Z
       2539  9EA 001755B0 ?H0x4c910026_DeathSequence_02@CWildPetBase@@QAEHABVCEntityEvent@@@Z
       2540  9EB 00175690 ?H0x4c910027_DeathSequence_03@CWildPetBase@@QAEHABVCEntityEvent@@@Z
       2541  9EC 00175730 ?H0x4c910028_DeathSequence_04@CWildPetBase@@QAEHABVCEntityEvent@@@Z
       2542  9ED 00175800 ?H0x4c910029_DeathSequence_05@CWildPetBase@@QAEHABVCEntityEvent@@@Z
       2543  9EE 001758A0 ?H0x4c91002a_DeathSequence_06@CWildPetBase@@QAEHABVCEntityEvent@@@Z
       2544  9EF 00175920 ?H0x4c91002b_DeathSequence_07@CWildPetBase@@QAEHABVCEntityEvent@@@Z
       2545  9F0 001759C0 ?H0x4c91002c_DeathSequence_08@CWildPetBase@@QAEHABVCEntityEvent@@@Z
       2546  9F1 00175AC0 ?H0x4c91002e_Active_01@CWildPetBase@@QAEHABVCEntityEvent@@@Z
       2547  9F2 00175F70 ?H0x4c91002f_Active_02@CWildPetBase@@QAEHABVCEntityEvent@@@Z
       2548  9F3 001760E0 ?H0x4c910032_MainLoop_internal_01@CWildPetBase@@QAEHABVCEntityEvent@@@Z
       2549  9F4 00176180 ?H0x4c910033_MainLoop_internal_02@CWildPetBase@@QAEHABVCEntityEvent@@@Z
       2550  9F5 00176240 ?H0x4c910034_MainLoop_internal_03@CWildPetBase@@QAEHABVCEntityEvent@@@Z
       2551  9F6 001762F0 ?H0x4c910035_MainLoop_internal_04@CWildPetBase@@QAEHABVCEntityEvent@@@Z
       2552  9F7 00176460 ?H0x4c910038_StandardBehavior_01@CWildPetBase@@QAEHABVCEntityEvent@@@Z
       2553  9F8 00176570 ?H0x4c910039_StandardBehavior_02@CWildPetBase@@QAEHABVCEntityEvent@@@Z
       2554  9F9 00176800 ?H0x4c91003f_MovetoPoint_01@CWildPetBase@@QAEHABVCEntityEvent@@@Z
       2555  9FA 00176970 ?H0x4c910040_MovetoPoint_02@CWildPetBase@@QAEHABVCEntityEvent@@@Z
       2556  9FB 001769E0 ?H0x4c910041_MovetoPoint_03@CWildPetBase@@QAEHABVCEntityEvent@@@Z
       2557  9FC 00176A70 ?H0x4c910042_MovetoPoint_04@CWildPetBase@@QAEHABVCEntityEvent@@@Z
       2558  9FD 000F9710 ?HUD_ChangeFaceMesh@CPlayer@@UAEXJJ@Z
       2559  9FE 000F96D0 ?HUD_ChangeHairMesh@CPlayer@@UAEXJJ@Z
       2560  9FF 000F94A0 ?HUD_DrawModel@CPlayer@@UAEXPAVCDrawPort@@MMMMJMM@Z
       2561  A00 000F9750 ?HUD_PlayAnimation@CPlayer@@UAEXJJ@Z
       2562  A01 000F97E0 ?HUD_PlayAnimation@CPlayer@@UAEXVCTString@@@Z
       2563  A02 000F9570 ?HUD_SetCharModelData@CPlayer@@UAEXJJJ@Z
       2564  A03 000F9860 ?HUD_SetModelColor@CPlayer@@UAEXK@Z
       2565  A04 000F9870 ?HUD_SetModelData@CPlayer@@UAEXJJJ@Z
       2566  A05 000F9D00 ?HUD_SetTitleEffect@CPlayer@@UAEXVCTString@@@Z
       2567  A06 000F9C80 ?HUD_WearingModel@CPlayer@@UAEXJJJH@Z
       2568  A07 00095810 ?HandleEvent@CCharacterBase@@UAEHABVCEntityEvent@@@Z
       2569  A08 000B31A0 ?HandleEvent@CEnemyBase@@UAEHABVCEntityEvent@@@Z
       2570  A09 000F17D0 ?HandleEvent@CPetBase@@UAEHABVCEntityEvent@@@Z
       2571  A0A 000F8AF0 ?HandleEvent@CPlayer@@UAEHABVCEntityEvent@@@Z
       2572  A0B 00153F30 ?HandleEvent@CSlaveBase@@UAEHABVCEntityEvent@@@Z
       2573  A0C 001735E0 ?HandleEvent@CWildPetBase@@UAEHABVCEntityEvent@@@Z
       2574  A0D 0010E170 ?HardCodingSkill@CPlayer@@QAEHH@Z
       2575  A0E 0013E950 ?HasAmmo@CPlayerWeapons@@QAEHW4WeaponType@@@Z
       2576  A0F 001363D0 ?HideFlare@CPlayerAnimator@@QAEXJJJ@Z
       2577  A10 0013BBF0 ?HideFlare@CPlayerWeapons@@QAEXAAVCModelObject@@JJ@Z
       2578  A11 00098330 ?Hit@CCharacterBase@@QAEHABVCEntityEvent@@@Z
       2579  A12 000B57F0 ?Hit@CEnemyBase@@QAEHABVCEntityEvent@@@Z
       2580  A13 000F3A80 ?Hit@CPetBase@@QAEHABVCEntityEvent@@@Z
       2581  A14 00155F30 ?Hit@CSlaveBase@@QAEHABVCEntityEvent@@@Z
       2582  A15 00174A00 ?Hit@CWildPetBase@@QAEHABVCEntityEvent@@@Z
       2583  A16 0013A720 ?HoldingFire@CPlayerWeapons@@QAEHXZ
       2584  A17 00167860 ?HungryAnim@CUnit@@UAEXXZ
       2585  A18 001409D0 ?Idle@CPlayerWeapons@@QAEHABVCEntityEvent@@@Z
       2586  A19 001144B0 ?IdleAnim@CPlayer@@QAEXXZ
       2587  A1A 001349E0 ?IdleAnim@CPlayerAnimator@@QAEXXZ
       2588  A1B 000B8B90 ?IdleAnimation@CEnemyBase@@QAEHABVCEntityEvent@@@Z
       2589  A1C 000B8C00 ?IdleLoop@CEnemyBase@@QAEHABVCEntityEvent@@@Z
       2590  A1D 000B3130 ?IdleLoop@CEnemyBase@@UAEXXZ
       2591  A1E 000F1710 ?IdleLoop@CPetBase@@UAEXXZ
       2592  A1F 00153EB0 ?IdleLoop@CSlaveBase@@UAEXXZ
       2593  A20 00173550 ?IdleLoop@CWildPetBase@@UAEXXZ
       2594  A21 00095570 ?IdleSound@CCharacterBase@@UAEXXZ
       2595  A22 000B30E0 ?IdleSound@CEnemyBase@@UAEXXZ
       2596  A23 000F16B0 ?IdleSound@CPetBase@@UAEXXZ
       2597  A24 00153E60 ?IdleSound@CSlaveBase@@UAEXXZ
       2598  A25 00173500 ?IdleSound@CWildPetBase@@UAEXXZ
       2599  A26 00093000 ?IfTargetCrushed@CCharacterBase@@QAEHPAVCEntity@@ABV?$Vector@M$02@@@Z
       2600  A27 000B0A70 ?IfTargetCrushed@CEnemyBase@@QAEHPAVCEntity@@ABV?$Vector@M$02@@@Z
       2601  A28 000EEEA0 ?IfTargetCrushed@CPetBase@@QAEHPAVCEntity@@ABV?$Vector@M$02@@@Z
       2602  A29 00151A40 ?IfTargetCrushed@CSlaveBase@@QAEHPAVCEntity@@ABV?$Vector@M$02@@@Z
       2603  A2A 00099900 ?Inactive@CCharacterBase@@QAEHABVCEntityEvent@@@Z
       2604  A2B 000B7830 ?Inactive@CEnemyBase@@QAEHABVCEntityEvent@@@Z
       2605  A2C 000F56F0 ?Inactive@CPetBase@@QAEHABVCEntityEvent@@@Z
       2606  A2D 00157C10 ?Inactive@CSlaveBase@@QAEHABVCEntityEvent@@@Z
       2607  A2E 00168F50 ?Inactive@CWatcher@@QAEHABVCEntityEvent@@@Z
       2608  A2F 00121C50 ?InflictDirectDamage@CPlayer@@UAEXPAVCEntity@@0W4DamageType@@MABV?$Vector@M$02@@2@Z
       2609  A30 00124F30 ?InitBeastAnimation@CPlayer@@QAEXXZ
       2610  A31 00053CA0 ?InitParticles@@YAXXZ
       2611  A32 0004DA20 ?Initialize@CEmiter@@QAEXPAVCEntity@@@Z
       2612  A33 00097040 ?InitializeAttack@CCharacterBase@@QAEHABVCEntityEvent@@@Z
       2613  A34 000B43A0 ?InitializeAttack@CEnemyBase@@QAEHABVCEntityEvent@@@Z
       2614  A35 000F29C0 ?InitializeAttack@CPetBase@@QAEHABVCEntityEvent@@@Z
       2615  A36 00154ED0 ?InitializeAttack@CSlaveBase@@QAEHABVCEntityEvent@@@Z
       2616  A37 001738A0 ?InitializeAttack@CWildPetBase@@QAEHABVCEntityEvent@@@Z
       2617  A38 000F8F90 ?InitializeFromNet@CPlayer@@UAEXXZ
       2618  A39 001339D0 ?InitializeFromNet@CPlayerAnimator@@UAEXXZ
       2619  A3A 0013A5D0 ?InitializeFromNet@CPlayerWeapons@@UAEXXZ
       2620  A3B 00143230 ?InitializeFromNet@CProjectile@@UAEXXZ
       2621  A3C 00147CA0 ?InitializeFromNet@CReminder@@UAEXXZ
       2622  A3D 000C9C30 ?InitializeItem@CItem@@QAEXXZ
       2623  A3E 00113190 ?InitializePlayer@CPlayer@@QAEXH@Z
       2624  A3F 00133C20 ?InitializeProperties@CPlayerAnimator@@QAEXXZ
       2625  A40 0013E540 ?InitializeWeapons@CPlayerWeapons@@QAEXJJJM@Z
       2626  A41 00124200 ?InputKey@CPlayer@@UAEHJ@Z
       2627  A42 000F9010 ?IsActionApplied@CPlayer@@UAEHXZ
       2628  A43 001247A0 ?IsActionSitting@CPlayer@@UAEHXZ
       2629  A44 00123EB0 ?IsAlreadyDie@CPlayer@@UAEHXZ
       2630  A45 00095A80 ?IsAnimFinished@CCharacterBase@@QAEHXZ
       2631  A46 000B3400 ?IsAnimFinished@CEnemyBase@@QAEHXZ
       2632  A47 000F1A30 ?IsAnimFinished@CPetBase@@QAEHXZ
       2633  A48 00154190 ?IsAnimFinished@CSlaveBase@@QAEHXZ
       2634  A49 001736C0 ?IsAnimFinished@CWildPetBase@@QAEHXZ
       2635  A4A 0011BD70 ?IsAttacking@CPlayer@@UAEHXZ
       2636  A4B 00165D00 ?IsAvailableRide@CUnit@@UAEHXZ
       2637  A4C 000B0B20 ?IsBossMob@CEnemyBase@@UAEHXZ
       2638  A4D 0011D890 ?IsChanging@CPlayer@@UAEHXZ
       2639  A4E 00106A60 ?IsConnected@CPlayer@@QBEHXZ
       2640  A4F 00124680 ?IsEXMage@CPlayer@@QAEHH@Z
       2641  A50 00136040 ?IsEXMage@CPlayerAnimator@@QAEHH@Z
       2642  A51 00124670 ?IsEXRogue@CPlayer@@QAEHH@Z
       2643  A52 00136030 ?IsEXRogue@CPlayerAnimator@@QAEHH@Z
       2644  A53 00104830 ?IsFuss@CPlayer@@QAEHXZ
       2645  A54 000FF060 ?IsHelmet@CPlayer@@UAEHJ@Z
       2646  A55 000F9DC0 ?IsHudModel_Used@CPlayer@@UAEHXZ
       2647  A56 001248A0 ?IsIdle@CPlayer@@UAEHXZ
       2648  A57 00166570 ?IsInFrustum@CUnit@@QAEHPAVCEntity@@M@Z
       2649  A58 001666C0 ?IsInPlaneFrustum@CUnit@@QAEHPAVCEntity@@M@Z
       2650  A59 001240E0 ?IsInputMovingKey@CPlayer@@UAEHXZ
       2651  A5A 00124160 ?IsInputRotateKey@CPlayer@@QAEHXZ
       2652  A5B 001216B0 ?IsLegit@CPlayer@@UAEHXZ
       2653  A5C 00125C60 ?IsLegitTarget@CPlayer@@QAEHPAVCEntity@@@Z
       2654  A5D 000E68D0 ?IsMarker@CNavigationMarker@@UBEHXZ
       2655  A5E 001257E0 ?IsMovable@CPlayer@@QAE?BHXZ
       2656  A5F 00165CF0 ?IsMovable@CUnit@@UAEHXZ
       2657  A60 001240D0 ?IsMoving@CPlayer@@UAEHXZ
       2658  A61 00123420 ?IsNotPersnalDungeon@CPlayer@@QAEHXZ
       2659  A62 00124770 ?IsPetActing@CPlayer@@UAEHXZ
       2660  A63 0011D850 ?IsPolymophing@CPlayer@@UAEHXZ
       2661  A64 0011BD80 ?IsProduct@CPlayer@@UAEHXZ
       2662  A65 001240C0 ?IsPvp@CPlayer@@QAEHXZ
       2663  A66 000F9040 ?IsReapplyingActions@CPlayer@@UAEHXZ
       2664  A67 00124960 ?IsRidePet@CPlayer@@UAEHPAVCEntity@@@Z
       2665  A68 001218B0 ?IsSameTarget@CPlayer@@UAEHPAVCEntity@@@Z
       2666  A69 00125780 ?IsSealPet@CPlayer@@QAE_NPAJ@Z
       2667  A6A 00131E00 ?IsSentOverNet@CPlayerView@@UBEHXZ
       2668  A6B 0004D460 ?IsSentOverNet@CWatcher@@UBEHXZ
       2669  A6C 001247C0 ?IsSitting@CPlayer@@UAEHXZ
       2670  A6D 000B0B10 ?IsSkillAttack@CEnemyBase@@UAEHXZ
       2671  A6E 00124760 ?IsSkilling@CPlayer@@UAEHXZ
       2672  A6F 0011D830 ?IsSocialActing@CPlayer@@UAEHXZ
       2673  A70 0004D470 ?IsTargetable@CCharacterBase@@UBEHXZ
       2674  A71 0004D480 ?IsTargetable@CEnemyBase@@UBEHXZ
       2675  A72 000CB770 ?IsTargetable@CItem@@UBEHXZ
       2676  A73 0006D680 ?IsTargetable@CNavigationMarker@@UBEHXZ
       2677  A74 0004D490 ?IsTargetable@CPetBase@@UBEHXZ
       2678  A75 0004D4A0 ?IsTargetable@CSlaveBase@@UBEHXZ
       2679  A76 0004D4B0 ?IsTargetable@CUnit@@UBEHXZ
       2680  A77 0004D4C0 ?IsTargetable@CWildPetBase@@UBEHXZ
       2681  A78 00123170 ?IsTestClient@CPlayer@@QAE_NXZ
       2682  A79 001248F0 ?IsTransform@CPlayer@@UBE?BHXZ
       2683  A7A 0011D870 ?IsTransforming@CPlayer@@UAEHXZ
       2684  A7B 00167880 ?IsValidForEnemy@CUnit@@QAEHPAVCEntity@@@Z
       2685  A7C 001669E0 ?IsVisible@CUnit@@QAEHPAVCEntity@@@Z
       2686  A7D 00126290 ?IsVisibleCheckAll@CPlayer@@QAEHPAVCEntity@@@Z
       2687  A7E 00166AA0 ?IsVisibleCheckAll@CUnit@@QAEHPAVCEntity@@@Z
       2688  A7F 000CA770 ?ItemActivate@CItem@@QAEHABVCEntityEvent@@@Z
       2689  A80 000C9EA0 ?ItemCollected@CItem@@QAEHABVCEntityEvent@@@Z
       2690  A81 000CA7E0 ?ItemDeActivate@CItem@@QAEHABVCEntityEvent@@@Z
       2691  A82 000C9F10 ?ItemLoop@CItem@@QAEHABVCEntityEvent@@@Z
       2692  A83 00245980 ?ItemObjType_enum@@3VCEntityPropertyEnumType@@A
       2693  A84 002459D8 ?ItemObjType_values@@3PAVCEntityPropertyEnumValue@@A
       2694  A85 000CA490 ?ItemReceived@CItem@@QAEHABVCEntityEvent@@@Z
       2695  A86 0002FB80 ?KickEntity@@YAXPAVCEntity@@V?$Vector@M$02@@@Z
       2696  A87 002454D0 ?KillType_enum@@3VCEntityPropertyEnumType@@A
       2697  A88 00244D98 ?KillType_values@@3PAVCEntityPropertyEnumValue@@A
       2698  A89 0013E9C0 ?KnifeBoring@CPlayerWeapons@@QAEMXZ
       2699  A8A 0007B450 ?LaunchBullet@CBullet@@QAEXHHH@Z
       2700  A8B 00143B60 ?LavaBall@CProjectile@@QAEXXZ
       2701  A8C 00143CE0 ?LavaBallExplosion@CProjectile@@QAEXXZ
       2702  A8D 00094E90 ?LeaveStain@CCharacterBase@@UAEXH@Z
       2703  A8E 000B2A00 ?LeaveStain@CEnemyBase@@UAEXH@Z
       2704  A8F 000F0FC0 ?LeaveStain@CPetBase@@UAEXH@Z
       2705  A90 00106A70 ?LeaveStain@CPlayer@@UAEXH@Z
       2706  A91 00153780 ?LeaveStain@CSlaveBase@@UAEXH@Z
       2707  A92 00172EB0 ?LeaveStain@CWildPetBase@@UAEXH@Z
       2708  A93 00124CE0 ?LeavingPet@CPlayer@@UAEXPAVCEntity@@@Z
       2709  A94 00125520 ?LeavingWildPet@CPlayer@@UAEXPAVCEntity@@@Z
       2710  A95 00245B30 ?LensFlareType_enum@@3VCEntityPropertyEnumType@@A
       2711  A96 00245AB0 ?LensFlareType_values@@3PAVCEntityPropertyEnumValue@@A
       2712  A97 00035660 ?LerpPlacementsPrecise@@YA?AVCPlacement3D@@ABV1@0M@Z
       2713  A98 000F8A80 ?LevelChangePlayerClear@CPlayer@@QAEXXZ
       2714  A99 000F1650 ?LevelUpAnim@CPetBase@@UAEXXZ
       2715  A9A 00245B28 ?LightType_enum@@3VCEntityPropertyEnumType@@A
       2716  A9B 00245A88 ?LightType_values@@3PAVCEntityPropertyEnumValue@@A
       2717  A9C 001054A0 ?ListenFromEntity@CPlayer@@QAEXPAVCEntity@@ABVCPlacement3D@@@Z
       2718  A9D 0002FC00 ?LoadSkaModel@@YAXAAVCModelInstance@@PAVCEntity@@J@Z
       2719  A9E 001247E0 ?LostTarget@CPlayer@@UAEXXZ
       2720  A9F 0007BD30 ?Main@CBullet@@QAEHABVCEntityEvent@@@Z
       2721  AA0 00096C10 ?Main@CCharacterBase@@QAEHABVCEntityEvent@@@Z
       2722  AA1 000B3F70 ?Main@CEnemyBase@@QAEHABVCEntityEvent@@@Z
       2723  AA2 000E68E0 ?Main@CNavigationMarker@@QAEHABVCEntityEvent@@@Z
       2724  AA3 000F2590 ?Main@CPetBase@@QAEHABVCEntityEvent@@@Z
       2725  AA4 00126D70 ?Main@CPlayer@@QAEHABVCEntityEvent@@@Z
       2726  AA5 00136440 ?Main@CPlayerAnimator@@QAEHABVCEntityEvent@@@Z
       2727  AA6 00139230 ?Main@CPlayerView@@QAEHABVCEntityEvent@@@Z
       2728  AA7 0013EBA0 ?Main@CPlayerWeapons@@QAEHABVCEntityEvent@@@Z
       2729  AA8 00144500 ?Main@CProjectile@@QAEHABVCEntityEvent@@@Z
       2730  AA9 00147D30 ?Main@CReminder@@QAEHABVCEntityEvent@@@Z
       2731  AAA 00154D70 ?Main@CSlaveBase@@QAEHABVCEntityEvent@@@Z
       2732  AAB 001678B0 ?Main@CUnit@@QAEHABVCEntityEvent@@@Z
       2733  AAC 00168A70 ?Main@CWatcher@@QAEHABVCEntityEvent@@@Z
       2734  AAD 001737B0 ?Main@CWildPetBase@@QAEHABVCEntityEvent@@@Z
       2735  AAE 0009A030 ?MainLoop@CCharacterBase@@QAEHABVCEntityEvent@@@Z
       2736  AAF 000B81C0 ?MainLoop@CEnemyBase@@QAEHABVCEntityEvent@@@Z
       2737  AB0 000F6140 ?MainLoop@CPetBase@@QAEHABVCEntityEvent@@@Z
       2738  AB1 00158570 ?MainLoop@CSlaveBase@@QAEHABVCEntityEvent@@@Z
       2739  AB2 00176360 ?MainLoop@CWildPetBase@@QAEHABVCEntityEvent@@@Z
       2740  AB3 00099C40 ?MainLoop_internal@CCharacterBase@@QAEHABVCEntityEvent@@@Z
       2741  AB4 000B7E50 ?MainLoop_internal@CEnemyBase@@QAEHABVCEntityEvent@@@Z
       2742  AB5 000F5CC0 ?MainLoop_internal@CPetBase@@QAEHABVCEntityEvent@@@Z
       2743  AB6 00158190 ?MainLoop_internal@CSlaveBase@@QAEHABVCEntityEvent@@@Z
       2744  AB7 00175FF0 ?MainLoop_internal@CWildPetBase@@QAEHABVCEntityEvent@@@Z
       2745  AB8 000C4A00 ?MakeCopy@EActivate@@UAEPAVCEntityEvent@@XZ
       2746  AB9 00079550 ?MakeCopy@EActivateBlend@@UAEPAVCEntityEvent@@XZ
       2747  ABA 000F7DD0 ?MakeCopy@EAddBulletSpray@@UAEPAVCEntityEvent@@XZ
       2748  ABB 000F7EE0 ?MakeCopy@EAddGoreSpray@@UAEPAVCEntityEvent@@XZ
       2749  ABC 000C5040 ?MakeCopy@EAddHostile@@UAEPAVCEntityEvent@@XZ
       2750  ABD 001336E0 ?MakeCopy@EAnimatorInit@@UAEPAVCEntityEvent@@XZ
       2751  ABE 000A29C0 ?MakeCopy@EArchitectureDeath@@UAEPAVCEntityEvent@@XZ
       2752  ABF 000AA020 ?MakeCopy@EAttackDamage@@UAEPAVCEntityEvent@@XZ
       2753  AC0 000F78B0 ?MakeCopy@EAutoAction@@UAEPAVCEntityEvent@@XZ
       2754  AC1 000F7570 ?MakeCopy@EAutoLogin@@UAEPAVCEntityEvent@@XZ
       2755  AC2 000AFFA0 ?MakeCopy@EBlowUp@@UAEPAVCEntityEvent@@XZ
       2756  AC3 00139B80 ?MakeCopy@EBoringWeapon@@UAEPAVCEntityEvent@@XZ
       2757  AC4 000DFC50 ?MakeCopy@EBrushDeath@@UAEPAVCEntityEvent@@XZ
       2758  AC5 000DFA90 ?MakeCopy@EBrushDestroyed@@UAEPAVCEntityEvent@@XZ
       2759  AC6 0007ACA0 ?MakeCopy@EBulletInit@@UAEPAVCEntityEvent@@XZ
       2760  AC7 000F72F0 ?MakeCopy@ECameraStart@@UAEPAVCEntityEvent@@XZ
       2761  AC8 000F7410 ?MakeCopy@ECameraStop@@UAEPAVCEntityEvent@@XZ
       2762  AC9 000816E0 ?MakeCopy@EChaAttackDamage@@UAEPAVCEntityEvent@@XZ
       2763  ACA 00081760 ?MakeCopy@EChaSkillDamage@@UAEPAVCEntityEvent@@XZ
       2764  ACB 00072F20 ?MakeCopy@EChangeAnim@@UAEPAVCEntityEvent@@XZ
       2765  ACC 000C7A60 ?MakeCopy@EChangeGravity@@UAEPAVCEntityEvent@@XZ
       2766  ACD 000E4850 ?MakeCopy@EChangeMusic@@UAEPAVCEntityEvent@@XZ
       2767  ACE 00092120 ?MakeCopy@ECharBaseDamage@@UAEPAVCEntityEvent@@XZ
       2768  ACF 00091FD0 ?MakeCopy@ECharBaseDeath@@UAEPAVCEntityEvent@@XZ
       2769  AD0 00092220 ?MakeCopy@ECharBlowUp@@UAEPAVCEntityEvent@@XZ
       2770  AD1 00091F10 ?MakeCopy@ECharForceWound@@UAEPAVCEntityEvent@@XZ
       2771  AD2 00091E90 ?MakeCopy@ECharReconsiderBehavior@@UAEPAVCEntityEvent@@XZ
       2772  AD3 0009D310 ?MakeCopy@ECopierTrigger@@UAEPAVCEntityEvent@@XZ
       2773  AD4 000C57C0 ?MakeCopy@ECredits@@UAEPAVCEntityEvent@@XZ
       2774  AD5 000C4A70 ?MakeCopy@EDeactivate@@UAEPAVCEntityEvent@@XZ
       2775  AD6 000795D0 ?MakeCopy@EDeactivateBlend@@UAEPAVCEntityEvent@@XZ
       2776  AD7 000F77F0 ?MakeCopy@EDisconnected@@UAEPAVCEntityEvent@@XZ
       2777  AD8 000C50F0 ?MakeCopy@EDoorControll@@UAEPAVCEntityEvent@@XZ
       2778  AD9 000C4BC0 ?MakeCopy@EEnd@@UAEPAVCEntityEvent@@XZ
       2779  ADA 000AFEA0 ?MakeCopy@EEnemyBaseDamage@@UAEPAVCEntityEvent@@XZ
       2780  ADB 000AFD50 ?MakeCopy@EEnemyBaseDeath@@UAEPAVCEntityEvent@@XZ
       2781  ADC 000C4AE0 ?MakeCopy@EEnvironmentStart@@UAEPAVCEntityEvent@@XZ
       2782  ADD 000C4B50 ?MakeCopy@EEnvironmentStop@@UAEPAVCEntityEvent@@XZ
       2783  ADE 00142E60 ?MakeCopy@EExplode@@UAEPAVCEntityEvent@@XZ
       2784  ADF 00139C00 ?MakeCopy@EFireWeapon@@UAEPAVCEntityEvent@@XZ
       2785  AE0 000C3060 ?MakeCopy@EFlame@@UAEPAVCEntityEvent@@XZ
       2786  AE1 0015E2C0 ?MakeCopy@EFlipTheSwitch@@UAEPAVCEntityEvent@@XZ
       2787  AE2 000AFC90 ?MakeCopy@EForceWound@@UAEPAVCEntityEvent@@XZ
       2788  AE3 000DFA10 ?MakeCopy@EHit@@UAEPAVCEntityEvent@@XZ
       2789  AE4 000C59B0 ?MakeCopy@EHitBySpaceShipBeam@@UAEPAVCEntityEvent@@XZ
       2790  AE5 000C5690 ?MakeCopy@EHudPicFX@@UAEPAVCEntityEvent@@XZ
       2791  AE6 000C51D0 ?MakeCopy@EKilledEnemy@@UAEPAVCEntityEvent@@XZ
       2792  AE7 00142D40 ?MakeCopy@ELaunchProjectile@@UAEPAVCEntityEvent@@XZ
       2793  AE8 000C9650 ?MakeCopy@EMarkPicked@@UAEPAVCEntityEvent@@XZ
       2794  AE9 000D9830 ?MakeCopy@EModel2Activate@@UAEPAVCEntityEvent@@XZ
       2795  AEA 000D98B0 ?MakeCopy@EModel2Deactivate@@UAEPAVCEntityEvent@@XZ
       2796  AEB 000DC430 ?MakeCopy@EModel3Action@@UAEPAVCEntityEvent@@XZ
       2797  AEC 000DC330 ?MakeCopy@EModel3Activate@@UAEPAVCEntityEvent@@XZ
       2798  AED 000DC3B0 ?MakeCopy@EModel3Deactivate@@UAEPAVCEntityEvent@@XZ
       2799  AEE 000D6D00 ?MakeCopy@EModelDeath@@UAEPAVCEntityEvent@@XZ
       2800  AEF 000E3E70 ?MakeCopy@EMusicChangerTrigger@@UAEPAVCEntityEvent@@XZ
       2801  AF0 000E4990 ?MakeCopy@ENetChangeMusic@@UAEPAVCEntityEvent@@XZ
       2802  AF1 00139EC0 ?MakeCopy@ENetFireWeapon@@UAEPAVCEntityEvent@@XZ
       2803  AF2 00139F40 ?MakeCopy@ENetReleaseWeapon@@UAEPAVCEntityEvent@@XZ
       2804  AF3 00139FC0 ?MakeCopy@ENetReloadWeapon@@UAEPAVCEntityEvent@@XZ
       2805  AF4 00139E30 ?MakeCopy@ENetSelectWeapon@@UAEPAVCEntityEvent@@XZ
       2806  AF5 000B9540 ?MakeCopy@ENetSpawnEntity@@UAEPAVCEntityEvent@@XZ
       2807  AF6 000A6940 ?MakeCopy@ENetTrigger@@UAEPAVCEntityEvent@@XZ
       2808  AF7 000E76A0 ?MakeCopy@EParticlesActivate@@UAEPAVCEntityEvent@@XZ
       2809  AF8 000E7720 ?MakeCopy@EParticlesDeactivate@@UAEPAVCEntityEvent@@XZ
       2810  AF9 000E96E0 ?MakeCopy@EPetAttackDamage@@UAEPAVCEntityEvent@@XZ
       2811  AFA 000EE3D0 ?MakeCopy@EPetBaseBlowUp@@UAEPAVCEntityEvent@@XZ
       2812  AFB 000EE2D0 ?MakeCopy@EPetBaseDamage@@UAEPAVCEntityEvent@@XZ
       2813  AFC 000EE180 ?MakeCopy@EPetBaseDeath@@UAEPAVCEntityEvent@@XZ
       2814  AFD 000EE0C0 ?MakeCopy@EPetBaseForceWound@@UAEPAVCEntityEvent@@XZ
       2815  AFE 000EE040 ?MakeCopy@EPetBaseReconsiderBehavior@@UAEPAVCEntityEvent@@XZ
       2816  AFF 001592B0 ?MakeCopy@EPlaySoundOnce@@UAEPAVCEntityEvent@@XZ
       2817  B00 000F7B50 ?MakeCopy@EPlayerDeath@@UAEPAVCEntityEvent@@XZ
       2818  B01 000F79F0 ?MakeCopy@EPlayerKilledEnemy@@UAEPAVCEntityEvent@@XZ
       2819  B02 000F7760 ?MakeCopy@EPlayerRebirth@@UAEPAVCEntityEvent@@XZ
       2820  B03 000F7CE0 ?MakeCopy@EPlayerStats@@UAEPAVCEntityEvent@@XZ
       2821  B04 000D6C80 ?MakeCopy@ERangeModelDestruction@@UAEPAVCEntityEvent@@XZ
       2822  B05 000F76B0 ?MakeCopy@ERebirth@@UAEPAVCEntityEvent@@XZ
       2823  B06 000C9590 ?MakeCopy@EReceiveItem@@UAEPAVCEntityEvent@@XZ
       2824  B07 000AFC10 ?MakeCopy@EReconsiderBehavior@@UAEPAVCEntityEvent@@XZ
       2825  B08 00139C80 ?MakeCopy@EReleaseWeapon@@UAEPAVCEntityEvent@@XZ
       2826  B09 00139D00 ?MakeCopy@EReloadWeapon@@UAEPAVCEntityEvent@@XZ
       2827  B0A 000C4E00 ?MakeCopy@EReminder@@UAEPAVCEntityEvent@@XZ
       2828  B0B 00147B90 ?MakeCopy@EReminderInit@@UAEPAVCEntityEvent@@XZ
       2829  B0C 000C5430 ?MakeCopy@EScroll@@UAEPAVCEntityEvent@@XZ
       2830  B0D 00139AF0 ?MakeCopy@ESelectWeapon@@UAEPAVCEntityEvent@@XZ
       2831  B0E 000C9760 ?MakeCopy@ESetType@@UAEPAVCEntityEvent@@XZ
       2832  B0F 00074830 ?MakeCopy@ESetViewer@@UAEPAVCEntityEvent@@XZ
       2833  B10 000F7C10 ?MakeCopy@EShowConsole@@UAEPAVCEntityEvent@@XZ
       2834  B11 0014A690 ?MakeCopy@ESlaveAttackDamage@@UAEPAVCEntityEvent@@XZ
       2835  B12 00150B40 ?MakeCopy@ESlaveBaseBlowUp@@UAEPAVCEntityEvent@@XZ
       2836  B13 00150A40 ?MakeCopy@ESlaveBaseDamage@@UAEPAVCEntityEvent@@XZ
       2837  B14 001508F0 ?MakeCopy@ESlaveBaseDeath@@UAEPAVCEntityEvent@@XZ
       2838  B15 00150830 ?MakeCopy@ESlaveBaseForceWound@@UAEPAVCEntityEvent@@XZ
       2839  B16 00150730 ?MakeCopy@ESlaveBaseReconsiderBehavior@@UAEPAVCEntityEvent@@XZ
       2840  B17 001507B0 ?MakeCopy@ESlaveFoundNewEnemy@@UAEPAVCEntityEvent@@XZ
       2841  B18 000F74F0 ?MakeCopy@ESlaveKilledEnemy@@UAEPAVCEntityEvent@@XZ
       2842  B19 000C5300 ?MakeCopy@ESound@@UAEPAVCEntityEvent@@XZ
       2843  B1A 0009F6A0 ?MakeCopy@ESpawnDebris@@UAEPAVCEntityEvent@@XZ
       2844  B1B 000A0CD0 ?MakeCopy@ESpawnDebrisSka@@UAEPAVCEntityEvent@@XZ
       2845  B1C 00074E70 ?MakeCopy@ESpawnEffect@@UAEPAVCEntityEvent@@XZ
       2846  B1D 000A7EC0 ?MakeCopy@ESpawnEffector@@UAEPAVCEntityEvent@@XZ
       2847  B1E 00142F60 ?MakeCopy@ESpawnFlame@@UAEPAVCEntityEvent@@XZ
       2848  B1F 00079FF0 ?MakeCopy@ESpawnSpray@@UAEPAVCEntityEvent@@XZ
       2849  B20 000C4930 ?MakeCopy@EStart@@UAEPAVCEntityEvent@@XZ
       2850  B21 000C4E80 ?MakeCopy@EStartAttack@@UAEPAVCEntityEvent@@XZ
       2851  B22 000DFB10 ?MakeCopy@EStartSounds@@UAEPAVCEntityEvent@@XZ
       2852  B23 000C4870 ?MakeCopy@EStop@@UAEPAVCEntityEvent@@XZ
       2853  B24 000C4EF0 ?MakeCopy@EStopAttack@@UAEPAVCEntityEvent@@XZ
       2854  B25 000C4F60 ?MakeCopy@EStopBlindness@@UAEPAVCEntityEvent@@XZ
       2855  B26 000C4FD0 ?MakeCopy@EStopDeafness@@UAEPAVCEntityEvent@@XZ
       2856  B27 000C31A0 ?MakeCopy@EStopFlaming@@UAEPAVCEntityEvent@@XZ
       2857  B28 000F7620 ?MakeCopy@EStopLerp@@UAEPAVCEntityEvent@@XZ
       2858  B29 000DFB90 ?MakeCopy@EStopSounds@@UAEPAVCEntityEvent@@XZ
       2859  B2A 00159F70 ?MakeCopy@EStormEnvironmentStart@@UAEPAVCEntityEvent@@XZ
       2860  B2B 00159FF0 ?MakeCopy@EStormStart@@UAEPAVCEntityEvent@@XZ
       2861  B2C 0015A070 ?MakeCopy@EStormStop@@UAEPAVCEntityEvent@@XZ
       2862  B2D 0015FEF0 ?MakeCopy@ETeleportActivate@@UAEPAVCEntityEvent@@XZ
       2863  B2E 0015FF70 ?MakeCopy@ETeleportDeactivate@@UAEPAVCEntityEvent@@XZ
       2864  B2F 000C4D50 ?MakeCopy@ETeleportMovingBrush@@UAEPAVCEntityEvent@@XZ
       2865  B30 000C5560 ?MakeCopy@ETextFX@@UAEPAVCEntityEvent@@XZ
       2866  B31 000C4C80 ?MakeCopy@ETrigger@@UAEPAVCEntityEvent@@XZ
       2867  B32 000A7FA0 ?MakeCopy@ETriggerEffector@@UAEPAVCEntityEvent@@XZ
       2868  B33 000CD3B0 ?MakeCopy@ETriggerLightning@@UAEPAVCEntityEvent@@XZ
       2869  B34 001369E0 ?MakeCopy@ETriggerPlayerMarker@@UAEPAVCEntityEvent@@XZ
       2870  B35 001371A0 ?MakeCopy@EViewInit@@UAEPAVCEntityEvent@@XZ
       2871  B36 000C58E0 ?MakeCopy@EVoiceMessage@@UAEPAVCEntityEvent@@XZ
       2872  B37 00168120 ?MakeCopy@EWatch@@UAEPAVCEntityEvent@@XZ
       2873  B38 00168000 ?MakeCopy@EWatcherInit@@UAEPAVCEntityEvent@@XZ
       2874  B39 00139D80 ?MakeCopy@EWeaponChanged@@UAEPAVCEntityEvent@@XZ
       2875  B3A 00141B20 ?MakeCopy@EWeaponEffectInit@@UAEPAVCEntityEvent@@XZ
       2876  B3B 001399E0 ?MakeCopy@EWeaponsInit@@UAEPAVCEntityEvent@@XZ
       2877  B3C 000C03E0 ?MakeCopy@EWeatherStart@@UAEPAVCEntityEvent@@XZ
       2878  B3D 000C0460 ?MakeCopy@EWeatherStop@@UAEPAVCEntityEvent@@XZ
       2879  B3E 0016AD20 ?MakeCopy@EWildPetAttackDamage@@UAEPAVCEntityEvent@@XZ
       2880  B3F 00171AC0 ?MakeCopy@EWildPetBaseDamage@@UAEPAVCEntityEvent@@XZ
       2881  B40 00171970 ?MakeCopy@EWildPetBaseDeath@@UAEPAVCEntityEvent@@XZ
       2882  B41 001718B0 ?MakeCopy@EWildPetBaseReconsiderBehavior@@UAEPAVCEntityEvent@@XZ
       2883  B42 000C9A10 ?MarkPickedBy@CItem@@QAEHPAVCEntity@@@Z
       2884  B43 000C9980 ?MarkRecentlyPickedBy@CItem@@QAEHPAVCEntity@@@Z
       2885  B44 00094640 ?MayMoveToAttack@CCharacterBase@@UAEHXZ
       2886  B45 000B21C0 ?MayMoveToAttack@CEnemyBase@@UAEHXZ
       2887  B46 000F0780 ?MayMoveToAttack@CPetBase@@UAEHXZ
       2888  B47 00152F40 ?MayMoveToAttack@CSlaveBase@@UAEHXZ
       2889  B48 00092AD0 ?MaybeSwitchToAnotherPlayer@CCharacterBase@@QAEXXZ
       2890  B49 000B0820 ?MaybeSwitchToAnotherPlayer@CEnemyBase@@QAEXXZ
       2891  B4A 000EEC50 ?MaybeSwitchToAnotherPlayer@CPetBase@@QAEXXZ
       2892  B4B 00151420 ?MaybeSwitchToAnotherPlayer@CSlaveBase@@QAEXXZ
       2893  B4C 002454F0 ?MessageSound_enum@@3VCEntityPropertyEnumType@@A
       2894  B4D 00244EA0 ?MessageSound_values@@3PAVCEntityPropertyEnumValue@@A
       2895  B4E 00245E90 ?MessageViewType_enum@@3VCEntityPropertyEnumType@@A
       2896  B4F 00245E40 ?MessageViewType_values@@3PAVCEntityPropertyEnumValue@@A
       2897  B50 00109BA0 ?MinMaximize@CPlayer@@QAEXXZ
       2898  B51 00245F68 ?MissileType_enum@@3VCEntityPropertyEnumType@@A
       2899  B52 00245F70 ?MissileType_values@@3PAVCEntityPropertyEnumValue@@A
       2900  B53 002438BC ?MobType_enum@@3VCEntityPropertyEnumType@@A
       2901  B54 00243930 ?MobType_values@@3PAVCEntityPropertyEnumValue@@A
       2902  B55 00109350 ?MonsterChange@CPlayer@@QAEXH@Z
       2903  B56 000961A0 ?MoveNow@CCharacterBase@@UAEXXZ
       2904  B57 000B3AD0 ?MoveNow@CEnemyBase@@UAEXXZ
       2905  B58 000F2060 ?MoveNow@CPetBase@@UAEXXZ
       2906  B59 0011D240 ?MoveNow@CPlayer@@QAEXXZ
       2907  B5A 00154860 ?MoveNow@CSlaveBase@@UAEXXZ
       2908  B5B 00165CB0 ?MoveNow@CUnit@@UAEXXZ
       2909  B5C 001721E0 ?MoveNow@CWildPetBase@@UAEXXZ
       2910  B5D 00092BB0 ?MovementAnimation@CCharacterBase@@UAEXK@Z
       2911  B5E 000B0B30 ?MovementAnimation@CEnemyBase@@UAEXK@Z
       2912  B5F 000EEB80 ?MovementAnimation@CPetBase@@UAEXK@Z
       2913  B60 00151350 ?MovementAnimation@CSlaveBase@@UAEXK@Z
       2914  B61 00171F30 ?MovementAnimation@CWildPetBase@@UAEXK@Z
       2915  B62 000930A0 ?MovesByTargetedRoute@CCharacterBase@@UBEHAAVCTString@@@Z
       2916  B63 000B0C00 ?MovesByTargetedRoute@CEnemyBase@@UBEHAAVCTString@@@Z
       2917  B64 000E6830 ?MovesByTargetedRoute@CNavigationMarker@@UBEHAAVCTString@@@Z
       2918  B65 000EEF40 ?MovesByTargetedRoute@CPetBase@@UBEHAAVCTString@@@Z
       2919  B66 00151AE0 ?MovesByTargetedRoute@CSlaveBase@@UBEHAAVCTString@@@Z
       2920  B67 0009A810 ?MovetoPoint@CCharacterBase@@QAEHABVCEntityEvent@@@Z
       2921  B68 000B87E0 ?MovetoPoint@CEnemyBase@@QAEHABVCEntityEvent@@@Z
       2922  B69 000F6770 ?MovetoPoint@CPetBase@@QAEHABVCEntityEvent@@@Z
       2923  B6A 00158B70 ?MovetoPoint@CSlaveBase@@QAEHABVCEntityEvent@@@Z
       2924  B6B 00176770 ?MovetoPoint@CWildPetBase@@QAEHABVCEntityEvent@@@Z
       2925  B6C 002467C0 ?MusicType_enum@@3VCEntityPropertyEnumType@@A
       2926  B6D 002467C8 ?MusicType_values@@3PAVCEntityPropertyEnumValue@@A
       2927  B6E 000FD4B0 ?MyCheckDratanWarInside@CPlayer@@QAEHXZ
       2928  B6F 001729A0 ?MyOwnerDestinationPos@CWildPetBase@@UAE?AV?$Vector@M$02@@XZ
       2929  B70 00096C80 ?NewEnemySpotted@CCharacterBase@@QAEHABVCEntityEvent@@@Z
       2930  B71 000B3FE0 ?NewEnemySpotted@CEnemyBase@@QAEHABVCEntityEvent@@@Z
       2931  B72 000F2600 ?NewEnemySpotted@CPetBase@@QAEHABVCEntityEvent@@@Z
       2932  B73 00154DE0 ?NewEnemySpotted@CSlaveBase@@QAEHABVCEntityEvent@@@Z
       2933  B74 00036E50 ?NewMessage@CCompMessageID@@QAEXABVCTFileName@@@Z
       2934  B75 000FF470 ?NickNameEffect@CPlayer@@QAEXPAVCEntity@@0W4NickNameEffectType@2@@Z
       2935  B76 00247E04 ?NickNameEffectType_enum@@3VCEntityPropertyEnumType@@A
       2936  B77 00247608 ?NickNameEffectType_values@@3PAVCEntityPropertyEnumValue@@A
       2937  B78 000F8AE0 ?OnEnd@CPlayer@@UAEXXZ
       2938  B79 00151320 ?OnEnd@CSlaveBase@@UAEXXZ
       2939  B7A 00165BD0 ?OnEnd@CUnit@@UAEXXZ
       2940  B7B 00171F10 ?OnEnd@CWildPetBase@@UAEXXZ
       2941  B7C 0013A5F0 ?OnInitialize@CPlayerWeapons@@UAEXABVCEntityEvent@@@Z
       2942  B7D 00165BC0 ?OnInitialize@CUnit@@UAEXABVCEntityEvent@@@Z
       2943  B7E 00136320 ?OnPreRender@CPlayerAnimator@@QAEXXZ
       2944  B7F 000FC9C0 ?OpenGate@CPlayer@@UAEXHH@Z
       2945  B80 0006CC90 ?PATH_FindFirstMarker@@YAXPAVCEntity@@ABV?$Vector@M$02@@1AAPAV1@AAV2@@Z
       2946  B81 0006CD10 ?PATH_FindNextMarker@@YAXPAVCEntity@@ABV?$Vector@M$02@@1AAPAV1@AAV2@@Z
       2947  B82 001023E0 ?ParseGender@CPlayer@@QAEXAAVCTString@@@Z
       2948  B83 002454F8 ?ParticleTexture_enum@@3VCEntityPropertyEnumType@@A
       2949  B84 00244EB0 ?ParticleTexture_values@@3PAVCEntityPropertyEnumValue@@A
       2950  B85 00246A80 ?ParticlesHolderType_enum@@3VCEntityPropertyEnumType@@A
       2951  B86 00246A98 ?ParticlesHolderType_values@@3PAVCEntityPropertyEnumValue@@A
       2952  B87 00061820 ?Particles_AfterBurner@@YAXPAVCEntity@@MMJ@Z
       2953  B88 00062560 ?Particles_AfterBurner_Prepare@@YAXPAVCEntity@@@Z
       2954  B89 00060D10 ?Particles_Appearing@@YAXPAVCEntity@@M@Z
       2955  B8A 0005C290 ?Particles_Atomic@@YAXPAVCEntity@@MMW4ParticleTexture@@J@Z
       2956  B8B 0005CF00 ?Particles_BloodSpray@@YAXW4SprayParticlesType@@V?$Vector@M$02@@1MV?$AABBox@M$02@@1MMK@Z
       2957  B8C 00058650 ?Particles_BloodTrail@@YAXPAVCEntity@@@Z
       2958  B8D 00055430 ?Particles_BombTrail@@YAXPAVCEntity@@@Z
       2959  B8E 00055660 ?Particles_BombTrail_Prepare@@YAXPAVCEntity@@@Z
       2960  B8F 00059370 ?Particles_BrushBurning@@YAXPAVCEntity@@QAV?$Vector@M$02@@JV2@MM@Z
       2961  B90 00064580 ?Particles_BulletSpray@@YAXJV?$Vector@M$02@@0W4EffectParticlesType@@M0M@Z
       2962  B91 00058EF0 ?Particles_Burning@@YAXPAVCEntity@@MM@Z
       2963  B92 00069630 ?Particles_Burning_Comp@@YAXPAVCModelObject@@MVCPlacement3D@@@Z
       2964  B93 000562E0 ?Particles_CannonBall@@YAXPAVCEntity@@M@Z
       2965  B94 00056420 ?Particles_CannonBall_Prepare@@YAXPAVCEntity@@@Z
       2966  B95 0005E8F0 ?Particles_ChimneySmoke@@YAXPAVCEntity@@JMM@Z
       2967  B96 00055A60 ?Particles_ColoredStarsTrail@@YAXPAVCEntity@@@Z
       2968  B97 00067460 ?Particles_DamageSmoke@@YAXPAVCEntity@@MV?$AABBox@M$02@@M@Z
       2969  B98 00060630 ?Particles_Death@@YAXPAVCEntity@@M@Z
       2970  B99 00066120 ?Particles_DestroyingObelisk@@YAXPAVCEntity@@M@Z
       2971  B9A 000665B0 ?Particles_DestroyingPylon@@YAXPAVCEntity@@V?$Vector@M$02@@M@Z
       2972  B9B 000687B0 ?Particles_DisappearDust@@YAXPAVCEntity@@MM@Z
       2973  B9C 000687C0 ?Particles_DustFall@@YAXPAVCEntity@@MV?$Vector@M$02@@@Z
       2974  B9D 00060FC0 ?Particles_ElectricitySparks@@YAXPAVCEntity@@MMMJ@Z
       2975  B9E 0005B910 ?Particles_Emanate@@YAXPAVCEntity@@MMW4ParticleTexture@@JMKMMM@Z
       2976  B9F 0005DFE0 ?Particles_EmanatePlane@@YAXPAVCEntity@@MMMMMMW4ParticleTexture@@JM@Z
       2977  BA0 00064F60 ?Particles_EmptyShells@@YAXPAVCEntity@@PAUShellLaunchData@@@Z
       2978  BA1 00056D70 ?Particles_ExplosionDebris1@@YAXPAVCEntity@@MV?$Vector@M$02@@K@Z
       2979  BA2 00057310 ?Particles_ExplosionDebris2@@YAXPAVCEntity@@MV?$Vector@M$02@@K@Z
       2980  BA3 00057810 ?Particles_ExplosionDebris3@@YAXPAVCEntity@@MV?$Vector@M$02@@K@Z
       2981  BA4 00058100 ?Particles_ExplosionSmoke@@YAXPAVCEntity@@MV?$Vector@M$02@@K@Z
       2982  BA5 0005A3C0 ?Particles_FireBreath@@YAJPAVCEntity@@V?$Vector@M$02@@1MM@Z
       2983  BA6 00055D70 ?Particles_Fireball01Trail@@YAXPAVCEntity@@@Z
       2984  BA7 00055F90 ?Particles_Fireball01Trail_Prepare@@YAXPAVCEntity@@@Z
       2985  BA8 00055670 ?Particles_FirecrackerTrail@@YAXPAVCEntity@@@Z
       2986  BA9 000558C0 ?Particles_FirecrackerTrail_Prepare@@YAXPAVCEntity@@@Z
       2987  BAA 00059B50 ?Particles_FlameThrower@@YAXABVCPlacement3D@@0V?$Vector@M$02@@1MMJH@Z
       2988  BAB 00059F30 ?Particles_FlameThrowerStart@@YAXABVCPlacement3D@@MM@Z
       2989  BAC 0005BE00 ?Particles_Fountain@@YAXPAVCEntity@@MMW4ParticleTexture@@J@Z
       2990  BAD 000588D0 ?Particles_Ghostbuster@@YAXABV?$Vector@M$02@@0JMMMPAVCTextureObject@@@Z
       2991  BAE 00055FA0 ?Particles_GrenadeTrail@@YAXPAVCEntity@@@Z
       2992  BAF 000562D0 ?Particles_GrenadeTrail_Prepare@@YAXPAVCEntity@@@Z
       2993  BB0 000682A0 ?Particles_GrowingSwirl@@YAXPAVCEntity@@MM@Z
       2994  BB1 00063170 ?Particles_Growth@@YAXPAVCEntity@@PAVCTextureData@@AAV?$AABBox@M$02@@0J@Z
       2995  BB2 00066B90 ?Particles_HitGround@@YAXPAVCEntity@@MM@Z
       2996  BB3 00056680 ?Particles_LavaBombTrail@@YAXPAVCEntity@@M@Z
       2997  BB4 00056920 ?Particles_LavaBombTrail_Prepare@@YAXPAVCEntity@@@Z
       2998  BB5 00061620 ?Particles_LavaErupting@@YAXPAVCEntity@@MMMMMM@Z
       2999  BB6 00060110 ?Particles_LavaFlow@@YAXPAVCEntity@@MMMMMJ@Z
       3000  BB7 00056430 ?Particles_LavaTrail@@YAXPAVCEntity@@@Z
       3001  BB8 00056670 ?Particles_LavaTrail_Prepare@@YAXPAVCEntity@@@Z
       3002  BB9 00068E80 ?Particles_Leaves@@YAXPAVCEntity@@V?$AABBox@M$02@@V?$Vector@M$02@@MM2MMK@Z
       3003  BBA 000644C0 ?Particles_Lightning@@YAXV?$Vector@M$02@@0M@Z
       3004  BBB 00067050 ?Particles_MetalParts@@YAXPAVCEntity@@MV?$AABBox@M$02@@M@Z
       3005  BBC 0006A9F0 ?Particles_ModelGlow2@@YAXPAVCModelObject@@VCPlacement3D@@MW4ParticleTexture@@MMMK@Z
       3006  BBD 00069A20 ?Particles_ModelGlow@@YAXPAVCEntity@@MW4ParticleTexture@@MMMK@Z
       3007  BBE 0005C8C0 ?Particles_PowerUpIndicator@@YAXPAVCEntity@@W4ParticleTexture@@MMMJJ@Z
       3008  BBF 00063850 ?Particles_Rain@@YAXPAVCEntity@@PAVCEnvironmentParticlesHolder@@MMPAVCTextureData@@AAV?$AABBox@M$02@@@Z
       3009  BC0 0005A7E0 ?Particles_Regeneration@@YAJPAVCEntity@@MMMH@Z
       3010  BC1 0005B1C0 ?Particles_Rising@@YAXPAVCEntity@@MMMMMMMW4ParticleTexture@@J@Z
       3011  BC2 00062570 ?Particles_RocketMotorBurning@@YAXPAVCEntity@@MV?$Vector@M$02@@MM@Z
       3012  BC3 00056930 ?Particles_RocketTrail@@YAXPAVCEntity@@M@Z
       3013  BC4 00056D60 ?Particles_RocketTrail_Prepare@@YAXPAVCEntity@@@Z
       3014  BC5 00055290 ?Particles_RomboidTrail@@YAXPAVCEntity@@@Z
       3015  BC6 00069C70 ?Particles_RunAfterBurner@@YAXPAVCEntity@@MMJ@Z
       3016  BC7 00067880 ?Particles_RunningDust@@YAXPAVCEntity@@@Z
       3017  BC8 00067870 ?Particles_RunningDust_Prepare@@YAXPAVCEntity@@@Z
       3018  BC9 0005F710 ?Particles_SandFlow@@YAXPAVCEntity@@MMMMMJ@Z
       3019  BCA 00067D10 ?Particles_Smoke@@YAXPAVCEntity@@V?$Vector@M$02@@JMMMM@Z
       3020  BCB 00063E00 ?Particles_Snow@@YAXPAVCEntity@@PAVCEnvironmentParticlesHolder@@MMPAVCTextureData@@AAV?$AABBox@M$02@@M@Z
       3021  BCC 0005B5D0 ?Particles_Spiral@@YAXPAVCEntity@@MMW4ParticleTexture@@JM@Z
       3022  BCD 000558D0 ?Particles_SpiralTrail@@YAXPAVCEntity@@@Z
       3023  BCE 0005AF00 ?Particles_Stardust@@YAXPAVCEntity@@MMW4ParticleTexture@@J@Z
       3024  BCF 00054DE0 ?Particles_ViewerLocal@@YAXPAVCEntity@@@Z
       3025  BD0 0005FC10 ?Particles_WaterFlow@@YAXPAVCEntity@@MMMMMJ@Z
       3026  BD1 0005EDC0 ?Particles_Waterfall@@YAXPAVCEntity@@JMMMMMMMMK@Z
       3027  BD2 0005E460 ?Particles_WaterfallFoam@@YAXPAVCEntity@@MMMMMMMJ@Z
       3028  BD3 00055BD0 ?Particles_WhiteLineTrail@@YAXPAVCEntity@@@Z
       3029  BD4 00173DA0 ?PerFormWPet@CWildPetBase@@QAEHABVCEntityEvent@@@Z
       3030  BD5 000975A0 ?PerformAttack@CCharacterBase@@QAEHABVCEntityEvent@@@Z
       3031  BD6 000B4A00 ?PerformAttack@CEnemyBase@@QAEHABVCEntityEvent@@@Z
       3032  BD7 001554D0 ?PerformAttack@CSlaveBase@@QAEHABVCEntityEvent@@@Z
       3033  BD8 000F3000 ?PerformPet@CPetBase@@QAEHABVCEntityEvent@@@Z
       3034  BD9 000F1750 ?PickAnim@CPetBase@@UAEXXZ
       3035  BDA 00134910 ?PickAnim@CPlayerAnimator@@QAEXXZ
       3036  BDB 0011C040 ?PickItem@CPlayer@@QAEXK@Z
       3037  BDC 001263D0 ?PlAddAccessoryEffect@CPlayer@@UAEXPAVCEntity@@PAVCCharacterTarget@@@Z
       3038  BDD 0013A880 ?PlayAttackSound@CPlayerWeapons@@QAEXAAVCSoundObject@@HJ@Z
       3039  BDE 00122DC0 ?PlayBGM@CPlayer@@UAEXVCTFileName@@@Z
       3040  BDF 0011C0C0 ?PlayButtonSound@CPlayer@@UAEXXZ
       3041  BE0 0013E990 ?PlayDefaultAnim@CPlayerWeapons@@QAEXXZ
       3042  BE1 0011C180 ?PlayHolyWaterSound@CPlayer@@UAEXXZ
       3043  BE2 0011C1A0 ?PlayItemEffect@CPlayer@@UAEXJC@Z
       3044  BE3 0011C070 ?PlayItemSound@CPlayer@@UAEXHH@Z
       3045  BE4 0011C0E0 ?PlayJewelDullSound@CPlayer@@UAEXXZ
       3046  BE5 0011C100 ?PlayJewelRefinementSound@CPlayer@@UAEXXZ
       3047  BE6 0011C120 ?PlayJewelShinySound@CPlayer@@UAEXXZ
       3048  BE7 00104310 ?PlayLightAnim@CPlayer@@QAEXJK@Z
       3049  BE8 0013BCA0 ?PlayLightAnim@CPlayerWeapons@@QAEXJK@Z
       3050  BE9 00122EA0 ?PlayMusic@CPlayer@@QAEXXZ
       3051  BEA 0011C160 ?PlayPetStashCardSelSound@CPlayer@@UAEXXZ
       3052  BEB 0011C140 ?PlayPetStashEffectSound@CPlayer@@UAEXXZ
       3053  BEC 000F8F60 ?PlaySoundA@CPlayer@@QAEXAAVCSoundObject@@ABVCTFileName@@J@Z
       3054  BED 000F8F30 ?PlaySoundA@CPlayer@@QAEXAAVCSoundObject@@JJ@Z
       3055  BEE 0013A590 ?PlaySoundA@CPlayerWeapons@@QAEXAAVCSoundObject@@ABVCTFileName@@J@Z
       3056  BEF 0013A540 ?PlaySoundA@CPlayerWeapons@@QAEXAAVCSoundObject@@JJ@Z
       3057  BF0 00247F48 ?PlayerAutoAction_enum@@3VCEntityPropertyEnumType@@A
       3058  BF1 00247FA0 ?PlayerAutoAction_values@@3PAVCEntityPropertyEnumValue@@A
       3059  BF2 00092FD0 ?PlayerDestinationPos@CCharacterBase@@UAE?AV?$Vector@M$02@@XZ
       3060  BF3 000B0A40 ?PlayerDestinationPos@CEnemyBase@@UAE?AV?$Vector@M$02@@XZ
       3061  BF4 000EEE70 ?PlayerDestinationPos@CPetBase@@UAE?AV?$Vector@M$02@@XZ
       3062  BF5 00151A10 ?PlayerDestinationPos@CSlaveBase@@UAE?AV?$Vector@M$02@@XZ
       3063  BF6 00123ED0 ?PlayerInit@CPlayer@@UAEX_N@Z
       3064  BF7 00247DF4 ?PlayerState_enum@@3VCEntityPropertyEnumType@@A
       3065  BF8 002475B8 ?PlayerState_values@@3PAVCEntityPropertyEnumValue@@A
       3066  BF9 00247DFC ?PlayerTeleportCause_enum@@3VCEntityPropertyEnumType@@A
       3067  BFA 002475F0 ?PlayerTeleportCause_values@@3PAVCEntityPropertyEnumValue@@A
       3068  BFB 00247DEC ?PlayerViewType_enum@@3VCEntityPropertyEnumType@@A
       3069  BFC 00247598 ?PlayerViewType_values@@3PAVCEntityPropertyEnumValue@@A
       3070  BFD 0009A680 ?Polymoph@CCharacterBase@@QAEHABVCEntityEvent@@@Z
       3071  BFE 000B58D0 ?Polymoph@CEnemyBase@@QAEHABVCEntityEvent@@@Z
       3072  BFF 00095800 ?PolymophEnd@CCharacterBase@@UAEXXZ
       3073  C00 000969D0 ?PolymophNow@CCharacterBase@@QAEXXZ
       3074  C01 000B3D30 ?PolymophNow@CEnemyBase@@QAEXXZ
       3075  C02 00106500 ?PostMoving@CPlayer@@UAEXXZ
       3076  C03 001373E0 ?PostMoving@CPlayerView@@UAEXXZ
       3077  C04 00143340 ?PostMoving@CProjectile@@UAEXXZ
       3078  C05 00099BD0 ?PreMainLoop@CCharacterBase@@QAEHABVCEntityEvent@@@Z
       3079  C06 000B7DE0 ?PreMainLoop@CEnemyBase@@QAEHABVCEntityEvent@@@Z
       3080  C07 000F5C50 ?PreMainLoop@CPetBase@@QAEHABVCEntityEvent@@@Z
       3081  C08 00158120 ?PreMainLoop@CSlaveBase@@QAEHABVCEntityEvent@@@Z
       3082  C09 00175F80 ?PreMainLoop@CWildPetBase@@QAEHABVCEntityEvent@@@Z
       3083  C0A 001062F0 ?PreMoving@CPlayer@@UAEXXZ
       3084  C0B 001373A0 ?PreMoving@CPlayerView@@UAEXXZ
       3085  C0C 001432F0 ?PreMoving@CProjectile@@UAEXXZ
       3086  C0D 000965D0 ?PreSkillNow@CCharacterBase@@UAEXXZ
       3087  C0E 00154C30 ?PreSkillNow@CSlaveBase@@UAEXXZ
       3088  C0F 00165C10 ?PreSkillNow@CUnit@@UAEXXZ
       3089  C10 00172420 ?PreSkillNow@CWildPetBase@@UAEXXZ
       3090  C11 00092EF0 ?Precache@CCharacterBase@@UAEXXZ
       3091  C12 000B0950 ?Precache@CEnemyBase@@UAEXXZ
       3092  C13 000EED80 ?Precache@CPetBase@@UAEXXZ
       3093  C14 000F8A70 ?Precache@CPlayer@@UAEXXZ
       3094  C15 001339F0 ?Precache@CPlayerAnimator@@UAEXXZ
       3095  C16 0013A690 ?Precache@CPlayerWeapons@@UAEXXZ
       3096  C17 00151920 ?Precache@CSlaveBase@@UAEXXZ
       3097  C18 0013DF20 ?PrepareBullet@CPlayerWeapons@@QAEXMMM@Z
       3098  C19 00033580 ?PrintConsole@@YAPBDXZ
       3099  C1A 00033590 ?PrintStack@@YAPBDPAVCEntity@@@Z
       3100  C1B 000F9360 ?ProcessProduce@CPlayer@@UAEXCJCJJ@Z
       3101  C1C 0009A5A0 ?ProduceAnimation@CCharacterBase@@QAEHABVCEntityEvent@@@Z
       3102  C1D 00096760 ?ProduceNow@CCharacterBase@@QAEXXZ
       3103  C1E 00144B10 ?ProjectileFly@CProjectile@@QAEHABVCEntityEvent@@@Z
       3104  C1F 00147090 ?ProjectileFlyRebounding@CProjectile@@QAEHABVCEntityEvent@@@Z
       3105  C20 001457E0 ?ProjectileGuidedFastFly@CProjectile@@QAEHABVCEntityEvent@@@Z
       3106  C21 00144F10 ?ProjectileGuidedFly@CProjectile@@QAEHABVCEntityEvent@@@Z
       3107  C22 00146280 ?ProjectileGuidedSlide@CProjectile@@QAEHABVCEntityEvent@@@Z
       3108  C23 00144280 ?ProjectileHit@CProjectile@@QAEXXZ
       3109  C24 00248838 ?ProjectileMovingType_enum@@3VCEntityPropertyEnumType@@A
       3110  C25 00248868 ?ProjectileMovingType_values@@3PAVCEntityPropertyEnumValue@@A
       3111  C26 00146AC0 ?ProjectileSlide@CProjectile@@QAEHABVCEntityEvent@@@Z
       3112  C27 00143F80 ?ProjectileTouch@CProjectile@@QAEXVCEntityPointer@@@Z
       3113  C28 00248830 ?ProjectileType_enum@@3VCEntityPropertyEnumType@@A
       3114  C29 00248840 ?ProjectileType_values@@3PAVCEntityPropertyEnumValue@@A
       3115  C2A 001265D0 ?RaidSceneOutputProcessing@CPlayer@@QAEXJJJ@Z
       3116  C2B 001000A0 ?Read_net_Character@CPlayer@@UAEXHHPAVCNetworkMessage@@@Z
       3117  C2C 00101340 ?Read_net_Character_Item@CPlayer@@QAEXHPAVCNetworkMessage@@@Z
       3118  C2D 00101500 ?Read_net_Character_Skill@CPlayer@@QAEXHPAVCNetworkMessage@@@Z
       3119  C2E 000FC030 ?Read_net_Damage@CPlayer@@UAEXCPAVCNetworkMessage@@@Z
       3120  C2F 000FB4F0 ?Read_net_Damage_Character@CPlayer@@UAEXPAVCNetworkMessage@@@Z
       3121  C30 000FBFF0 ?Read_net_DissappearEffect@CPlayer@@UAEXPAVCNetworkMessage@@@Z
       3122  C31 000FA310 ?Read_net_Mob@CPlayer@@UAEXHPAVCNetworkMessage@@@Z
       3123  C32 000FA4D0 ?Read_net_Pet@CPlayer@@UAEXHPAVCNetworkMessage@@@Z
       3124  C33 000FB380 ?Read_net_StatusElemental@CPlayer@@UAEXPAVCNetworkMessage@@@Z
       3125  C34 000FB100 ?Read_net_StatusNPC@CPlayer@@UAEXPAVCNetworkMessage@@@Z
       3126  C35 000FAB10 ?Read_net_StatusPC@CPlayer@@UAEXPAVCNetworkMessage@@@Z
       3127  C36 000FB370 ?Read_net_StatusPet@CPlayer@@UAEXPAVCNetworkMessage@@@Z
       3128  C37 000FC790 ?Read_net_Summon@CPlayer@@UAEXHPAVCNetworkMessage@@@Z
       3129  C38 000FA840 ?Read_net_WildPet@CPlayer@@UAEXHPAVCNetworkMessage@@@Z
       3130  C39 00093230 ?Read_t@CCharacterBase@@UAEXPAVCTStream@@H@Z
       3131  C3A 00036DD0 ?Read_t@CCompMessageID@@QAEXAAVCTStream@@@Z
       3132  C3B 0004DE40 ?Read_t@CEmiter@@QAEXAAVCTStream@@H@Z
       3133  C3C 0004D920 ?Read_t@CEmittedParticle@@QAEXAAVCTStream@@H@Z
       3134  C3D 000B0D90 ?Read_t@CEnemyBase@@UAEXPAVCTStream@@H@Z
       3135  C3E 000E6700 ?Read_t@CNavigationMarker@@UAEXPAVCTStream@@H@Z
       3136  C3F 000EF0D0 ?Read_t@CPetBase@@UAEXPAVCTStream@@H@Z
       3137  C40 00102510 ?Read_t@CPlayer@@UAEXPAVCTStream@@H@Z
       3138  C41 001339E0 ?Read_t@CPlayerAnimator@@UAEXPAVCTStream@@H@Z
       3139  C42 00143400 ?Read_t@CProjectile@@UAEXPAVCTStream@@H@Z
       3140  C43 00151C70 ?Read_t@CSlaveBase@@UAEXPAVCTStream@@H@Z
       3141  C44 00096B70 ?Rebirth@CCharacterBase@@QAEXXZ
       3142  C45 00128B90 ?Rebirth@CPlayer@@QAEHABVCEntityEvent@@@Z
       3143  C46 00122BD0 ?Rebirth@CPlayer@@UAEXXZ
       3144  C47 000932B0 ?ReceiveDamage@CCharacterBase@@UAEXPAVCEntity@@W4DamageType@@MABV?$Vector@M$02@@2@Z
       3145  C48 000B0E10 ?ReceiveDamage@CEnemyBase@@UAEXPAVCEntity@@W4DamageType@@MABV?$Vector@M$02@@2@Z
       3146  C49 000EF150 ?ReceiveDamage@CPetBase@@UAEXPAVCEntity@@W4DamageType@@MABV?$Vector@M$02@@2@Z
       3147  C4A 00107760 ?ReceiveDamage@CPlayer@@UAEXPAVCEntity@@W4DamageType@@MABV?$Vector@M$02@@2@Z
       3148  C4B 001444A0 ?ReceiveDamage@CProjectile@@UAEXPAVCEntity@@W4DamageType@@MABV?$Vector@M$02@@2@Z
       3149  C4C 00151CF0 ?ReceiveDamage@CSlaveBase@@UAEXPAVCEntity@@W4DamageType@@MABV?$Vector@M$02@@2@Z
       3150  C4D 00172700 ?ReceiveDamage@CWildPetBase@@UAEXPAVCEntity@@W4DamageType@@MABV?$Vector@M$02@@2@Z
       3151  C4E 00126960 ?ReceiveRaidScene@CPlayer@@UAEXPAVCNetworkMessage@@@Z
       3152  C4F 00126C80 ?ReceiveTriggerEvent@CPlayer@@UAEXJJJPAVCNetworkMessage@@@Z
       3153  C50 00140690 ?Reload@CPlayerWeapons@@QAEHABVCEntityEvent@@@Z
       3154  C51 00113960 ?RemapLevelNames@CPlayer@@QAEXAAJ@Z
       3155  C52 00136660 ?ReminderAction@CPlayerAnimator@@QAEHABVCEntityEvent@@@Z
       3156  C53 0002FB60 ?RemoveAttachmentFromModel@@YAXAAVCModelObject@@J@Z
       3157  C54 00094100 ?RemoveFromFuss@CCharacterBase@@QAEXXZ
       3158  C55 000B1980 ?RemoveFromFuss@CEnemyBase@@QAEXXZ
       3159  C56 000EFEB0 ?RemoveFromFuss@CPetBase@@QAEXXZ
       3160  C57 00152A50 ?RemoveFromFuss@CSlaveBase@@QAEXXZ
       3161  C58 00105E30 ?RenderCameraView@CPlayer@@QAEXPAVCDrawPort@@H@Z
       3162  C59 00112A70 ?RenderChainsawParticles@CPlayer@@QAEXH@Z
       3163  C5A 0013AA20 ?RenderCrosshair@CPlayerWeapons@@QAEXAAVCProjection3D@@PAVCDrawPort@@AAVCPlacement3D@@@Z
       3164  C5B 00112FD0 ?RenderCursor@CPlayer@@UAEXPAVCDrawPort@@PAX@Z
       3165  C5C 001055B0 ?RenderDummyView@CPlayer@@QAEXPAVCDrawPort@@@Z
       3166  C5D 00106090 ?RenderGameView@CPlayer@@UAEXPAVCDrawPort@@PAX@Z
       3167  C5E 00112C80 ?RenderHUD@CPlayer@@QAEXAAVCPerspectiveProjection3D@@PAVCDrawPort@@V?$Vector@M$02@@KKHJ@Z
       3168  C5F 00104E30 ?RenderHudPicFX@CPlayer@@QAEXPAVCDrawPort@@@Z
       3169  C60 000955C0 ?RenderParticles@CCharacterBase@@UAEXXZ
       3170  C61 0004DB30 ?RenderParticles@CEmiter@@QAEXXZ
       3171  C62 000B3140 ?RenderParticles@CEnemyBase@@UAEXXZ
       3172  C63 000F1770 ?RenderParticles@CPetBase@@UAEXXZ
       3173  C64 00118250 ?RenderParticles@CPlayer@@UAEXXZ
       3174  C65 00137480 ?RenderParticles@CPlayerView@@UAEXXZ
       3175  C66 001435A0 ?RenderParticles@CProjectile@@UAEXXZ
       3176  C67 00153ED0 ?RenderParticles@CSlaveBase@@UAEXXZ
       3177  C68 00173580 ?RenderParticles@CWildPetBase@@UAEXXZ
       3178  C69 00105720 ?RenderPlayerView@CPlayer@@QAEXPAVCDrawPort@@H@Z
       3179  C6A 0013E520 ?ResetWeaponMovingOffset@CPlayerWeapons@@QAEXXZ
       3180  C6B 00109670 ?ReturnChange@CPlayer@@UAEXH@Z
       3181  C6C 00108F90 ?ReturnSorcerer@CPlayer@@UAEXXZ
       3182  C6D 00126210 ?ReturnTransformPet@CPlayer@@UAEXPAVCEntity@@@Z
       3183  C6E 00124990 ?RidingPet@CPlayer@@UAEXPAVCEntity@@J@Z
       3184  C6F 00125230 ?RidingWildPet@CPlayer@@UAEXPAVCEntity@@0VCTString@@@Z
       3185  C70 00135DA0 ?Rise@CPlayerAnimator@@QAEXXZ
       3186  C71 0011CE20 ?Rotate@CPlayer@@QAEHV?$Vector@M$02@@MH@Z
       3187  C72 00167840 ?RotatingAnim@CUnit@@UAEXXZ
       3188  C73 0010FD90 ?RoundViewAngle@CPlayer@@QAEXAAMM@Z
       3189  C74 00134760 ?RunAnim@CPlayerAnimator@@QAEXM@Z
       3190  C75 00167830 ?RunningAnim@CUnit@@UAEXXZ
       3191  C76 00104300 ?SayVoiceMessage@CPlayer@@QAEXABVCTFileName@@@Z
       3192  C77 000F0360 ?SearchNearItem@CPetBase@@QAEXXZ
       3193  C78 00123190 ?SearchNearItem@CPlayer@@UAEXXZ
       3194  C79 000943D0 ?SeeEntity@CCharacterBase@@QAEHPAVCEntity@@M@Z
       3195  C7A 000B1F50 ?SeeEntity@CEnemyBase@@QAEHPAVCEntity@@M@Z
       3196  C7B 000F0510 ?SeeEntity@CPetBase@@QAEHPAVCEntity@@M@Z
       3197  C7C 00152CD0 ?SeeEntity@CSlaveBase@@QAEHPAVCEntity@@M@Z
       3198  C7D 00172E30 ?SeeEntity@CWildPetBase@@QAEHPAVCEntity@@M@Z
       3199  C7E 00094410 ?SeeEntityInPlane@CCharacterBase@@QAEHPAVCEntity@@M@Z
       3200  C7F 000B1F90 ?SeeEntityInPlane@CEnemyBase@@QAEHPAVCEntity@@M@Z
       3201  C80 000F0550 ?SeeEntityInPlane@CPetBase@@QAEHPAVCEntity@@M@Z
       3202  C81 00152D10 ?SeeEntityInPlane@CSlaveBase@@QAEHPAVCEntity@@M@Z
       3203  C82 00172E70 ?SeeEntityInPlane@CWildPetBase@@QAEHPAVCEntity@@M@Z
       3204  C83 000953F0 ?SeeNotify@CCharacterBase@@QAEXXZ
       3205  C84 000B2F60 ?SeeNotify@CEnemyBase@@QAEXXZ
       3206  C85 000F1520 ?SeeNotify@CPetBase@@QAEXXZ
       3207  C86 00153CE0 ?SeeNotify@CSlaveBase@@QAEXXZ
       3208  C87 00173380 ?SeeNotify@CWildPetBase@@QAEXXZ
       3209  C88 0013EAB0 ?SelectWeaponChange@CPlayerWeapons@@QAEXJ@Z
       3210  C89 00165CC0 ?SendActEvent@CUnit@@UAEXXZ
       3211  C8A 00172550 ?SendActEvent@CWildPetBase@@UAEXXZ
       3212  C8B 0002F4E0 ?SendInRange@@YAXPAVCEntity@@W4EventEType@@ABV?$AABBox@M$02@@@Z
       3213  C8C 0011C5F0 ?SendMyNextMovePosition@CPlayer@@QAEXV?$Vector@M$02@@@Z
       3214  C8D 0002F180 ?SendToTarget@@YAXPAVCEntity@@W4EventEType@@0PAVCEntityEvent@@@Z
       3215  C8E 00126C20 ?SendTriggerEvent@CPlayer@@UAEXJJ@Z
       3216  C8F 00168460 ?SendWatchEvent@CWatcher@@QAEXPAVCEntity@@@Z
       3217  C90 000F9020 ?SetActionApplied@CPlayer@@UAEXXZ
       3218  C91 000FF8A0 ?SetAppearanceData@CPlayer@@UAEXHCC@Z
       3219  C92 00133B80 ?SetAttachment@CPlayerAnimator@@QAEXJ@Z
       3220  C93 00165C40 ?SetAttackSpeed@CUnit@@UAEXC@Z
       3221  C94 00125190 ?SetBeastAnimation@CPlayer@@QAEXPAVCEntity@@@Z
       3222  C95 00125760 ?SetBodyAnimTime@CPlayer@@QAEXM@Z
       3223  C96 00133BC0 ?SetBodyAnimation@CPlayerAnimator@@QAEXJK@Z
       3224  C97 0002F150 ?SetBoolFromBoolEType@@YAXAAHW4BoolEType@@@Z
       3225  C98 001384D0 ?SetCameraDecoMode@CPlayerView@@QAEXXZ
       3226  C99 00138310 ?SetCameraFreeMode@CPlayerView@@QAEXXZ
       3227  C9A 00138600 ?SetCameraPosition@CPlayerView@@QAEXXZ
       3228  C9B 001374B0 ?SetCameraPositionEx@CPlayerView@@QAEXXZ
       3229  C9C 000FCC70 ?SetChaData@CPlayer@@UAEXHHKKCCAAVCTString@@GCJ@Z
       3230  C9D 000FE700 ?SetChaWearing@CPlayer@@UAEXPAVCCharacterTarget@@PAVCEntity@@PAVCNetworkMessage@@@Z
       3231  C9E 000FEAD0 ?SetCharCostumeWearing@CPlayer@@UAEXPAVCCharacterTarget@@PAVCEntity@@PAVCNetworkMessage@@@Z
       3232  C9F 000FE180 ?SetCharacterAppearance@CPlayer@@UAEXPAVCModelInstance@@HCC@Z
       3233  CA0 000FE010 ?SetCharacterHairChange@CPlayer@@UAEXJCH@Z
       3234  CA1 000FD0F0 ?SetCharacterState@CPlayer@@UAEXPAVCEntity@@J@Z
       3235  CA2 0002FA90 ?SetComponents@@YAXPAVCEntity@@AAVCModelObject@@KKKKK@Z
       3236  CA3 00133A60 ?SetComponents@CPlayerAnimator@@QAEXPAVCModelObject@@KKKKK@Z
       3237  CA4 00106A10 ?SetConnected@CPlayer@@QAEXXZ
       3238  CA5 000FDCD0 ?SetConsensus@CPlayer@@UAEXJ@Z
       3239  CA6 000FF790 ?SetCustomTitleEffect@CPlayer@@UAEXVCTString@@@Z
       3240  CA7 0007AE20 ?SetDamage@CBullet@@QAEXM@Z
       3241  CA8 000FF840 ?SetDecoModeCamera@CPlayer@@UAEXMM@Z
       3242  CA9 00104860 ?SetDefaultMouthPitch@CPlayer@@QAEXXZ
       3243  CAA 00072FB0 ?SetDefaultProperties@CAnimationChanger@@UAEXXZ
       3244  CAB 00073740 ?SetDefaultProperties@CAnimationHub@@UAEXXZ
       3245  CAC 00074450 ?SetDefaultProperties@CAreaMarker@@UAEXXZ
       3246  CAD 00074880 ?SetDefaultProperties@CBackgroundViewer@@UAEXXZ
       3247  CAE 00074F00 ?SetDefaultProperties@CBasicEffect@@UAEXXZ
       3248  CAF 00079620 ?SetDefaultProperties@CBlendController@@UAEXXZ
       3249  CB0 0007A080 ?SetDefaultProperties@CBloodSpray@@UAEXXZ
       3250  CB1 0007AD50 ?SetDefaultProperties@CBullet@@UAEXXZ
       3251  CB2 0007C0E0 ?SetDefaultProperties@CCamera@@UAEXXZ
       3252  CB3 00081130 ?SetDefaultProperties@CCameraMarker@@UAEXXZ
       3253  CB4 000817B0 ?SetDefaultProperties@CCharacter@@UAEXXZ
       3254  CB5 00092290 ?SetDefaultProperties@CCharacterBase@@UAEXXZ
       3255  CB6 0009B1F0 ?SetDefaultProperties@CColorController@@UAEXXZ
       3256  CB7 0009D370 ?SetDefaultProperties@CCopier@@UAEXXZ
       3257  CB8 0009E310 ?SetDefaultProperties@CCounter@@UAEXXZ
       3258  CB9 0009EFD0 ?SetDefaultProperties@CDamager@@UAEXXZ
       3259  CBA 0009F730 ?SetDefaultProperties@CDebris@@UAEXXZ
       3260  CBB 000A0D60 ?SetDefaultProperties@CDebrisSka@@UAEXXZ
       3261  CBC 000A2A10 ?SetDefaultProperties@CDestroyableArchitecture@@UAEXXZ
       3262  CBD 000A4790 ?SetDefaultProperties@CDoorController@@UAEXXZ
       3263  CBE 000A6770 ?SetDefaultProperties@CDummy@@UAEXXZ
       3264  CBF 000A6990 ?SetDefaultProperties@CEffectMarker@@UAEXXZ
       3265  CC0 000A7FF0 ?SetDefaultProperties@CEffector@@UAEXXZ
       3266  CC1 000AA070 ?SetDefaultProperties@CEnemy@@UAEXXZ
       3267  CC2 000B0010 ?SetDefaultProperties@CEnemyBase@@UAEXXZ
       3268  CC3 000B9120 ?SetDefaultProperties@CEnemyMarker@@UAEXXZ
       3269  CC4 000B95C0 ?SetDefaultProperties@CEnemySpawner@@UAEXXZ
       3270  CC5 000A2290 ?SetDefaultProperties@CEntityStateDisplay@@UAEXXZ
       3271  CC6 000BDC90 ?SetDefaultProperties@CEnvironmentBase@@UAEXXZ
       3272  CC7 000BFE10 ?SetDefaultProperties@CEnvironmentMarker@@UAEXXZ
       3273  CC8 000C04B0 ?SetDefaultProperties@CEnvironmentParticlesHolder@@UAEXXZ
       3274  CC9 000C1130 ?SetDefaultProperties@CEruptor@@UAEXXZ
       3275  CCA 000C2BD0 ?SetDefaultProperties@CFixedCameraField@@UAEXXZ
       3276  CCB 000C3200 ?SetDefaultProperties@CFlame@@UAEXXZ
       3277  CCC 000C4220 ?SetDefaultProperties@CFogMarker@@UAEXXZ
       3278  CCD 000C5A00 ?SetDefaultProperties@CGlobal@@UAEXXZ
       3279  CCE 000C65C0 ?SetDefaultProperties@CGradientMarker@@UAEXXZ
       3280  CCF 000C6A40 ?SetDefaultProperties@CGravityMarker@@UAEXXZ
       3281  CD0 000C7B10 ?SetDefaultProperties@CGravityRouter@@UAEXXZ
       3282  CD1 000C7F00 ?SetDefaultProperties@CHazeMarker@@UAEXXZ
       3283  CD2 000C8540 ?SetDefaultProperties@CHudPicHolder@@UAEXXZ
       3284  CD3 000C97C0 ?SetDefaultProperties@CItem@@UAEXXZ
       3285  CD4 000CB780 ?SetDefaultProperties@CItemObjects@@UAEXXZ
       3286  CD5 000CC4A0 ?SetDefaultProperties@CLight@@UAEXXZ
       3287  CD6 000CD400 ?SetDefaultProperties@CLightning@@UAEXXZ
       3288  CD7 000CE8A0 ?SetDefaultProperties@CMarker@@UAEXXZ
       3289  CD8 000CEBC0 ?SetDefaultProperties@CMessageHolder@@UAEXXZ
       3290  CD9 000CF180 ?SetDefaultProperties@CMessageView@@UAEXXZ
       3291  CDA 000CFFE0 ?SetDefaultProperties@CMirrorMarker@@UAEXXZ
       3292  CDB 000D0480 ?SetDefaultProperties@CMissile@@UAEXXZ
       3293  CDC 000D6D50 ?SetDefaultProperties@CModelDestruction@@UAEXXZ
       3294  CDD 000D9900 ?SetDefaultProperties@CModelHolder2@@UAEXXZ
       3295  CDE 000DC480 ?SetDefaultProperties@CModelHolder3@@UAEXXZ
       3296  CDF 000D8C70 ?SetDefaultProperties@CModelHolder@@UAEXXZ
       3297  CE0 000DFD00 ?SetDefaultProperties@CMovingBrush@@UAEXXZ
       3298  CE1 000E3950 ?SetDefaultProperties@CMovingBrushMarker@@UAEXXZ
       3299  CE2 000E3EC0 ?SetDefaultProperties@CMusicChanger@@UAEXXZ
       3300  CE3 000E49F0 ?SetDefaultProperties@CMusicHolder@@UAEXXZ
       3301  CE4 000E64B0 ?SetDefaultProperties@CNavigationMarker@@UAEXXZ
       3302  CE5 000E6B40 ?SetDefaultProperties@CParticleCloudsHolder@@UAEXXZ
       3303  CE6 000E7230 ?SetDefaultProperties@CParticleCloudsMarker@@UAEXXZ
       3304  CE7 000E7770 ?SetDefaultProperties@CParticlesHolder@@UAEXXZ
       3305  CE8 000E8C80 ?SetDefaultProperties@CPendulum@@UAEXXZ
       3306  CE9 000E9730 ?SetDefaultProperties@CPet@@UAEXXZ
       3307  CEA 000EE440 ?SetDefaultProperties@CPetBase@@UAEXXZ
       3308  CEB 000F7F60 ?SetDefaultProperties@CPlayer@@UAEXXZ
       3309  CEC 001330E0 ?SetDefaultProperties@CPlayerActionMarker@@UAEXXZ
       3310  CED 00133790 ?SetDefaultProperties@CPlayerAnimator@@UAEXXZ
       3311  CEE 00136A90 ?SetDefaultProperties@CPlayerMarker@@UAEXXZ
       3312  CEF 00137290 ?SetDefaultProperties@CPlayerView@@UAEXXZ
       3313  CF0 0013A010 ?SetDefaultProperties@CPlayerWeapons@@UAEXXZ
       3314  CF1 00141BD0 ?SetDefaultProperties@CPlayerWeaponsEffects@@UAEXXZ
       3315  CF2 001428D0 ?SetDefaultProperties@CPointMarker@@UAEXXZ
       3316  CF3 00143050 ?SetDefaultProperties@CProjectile@@UAEXXZ
       3317  CF4 00147C50 ?SetDefaultProperties@CReminder@@UAEXXZ
       3318  CF5 001481C0 ?SetDefaultProperties@CRestrictedField@@UAEXXZ
       3319  CF6 001485C0 ?SetDefaultProperties@CRollingStone@@UAEXXZ
       3320  CF7 0014A6E0 ?SetDefaultProperties@CSlave@@UAEXXZ
       3321  CF8 00150BB0 ?SetDefaultProperties@CSlaveBase@@UAEXXZ
       3322  CF9 00159300 ?SetDefaultProperties@CSoundHolder@@UAEXXZ
       3323  CFA 0015A0C0 ?SetDefaultProperties@CStormController@@UAEXXZ
       3324  CFB 0015C090 ?SetDefaultProperties@CSunMoon@@UAEXXZ
       3325  CFC 0015E320 ?SetDefaultProperties@CSwitch@@UAEXXZ
       3326  CFD 0015F240 ?SetDefaultProperties@CTacticsChanger@@UAEXXZ
       3327  CFE 0015F960 ?SetDefaultProperties@CTacticsHolder@@UAEXXZ
       3328  CFF 0015FFC0 ?SetDefaultProperties@CTeleport@@UAEXXZ
       3329  D00 00161020 ?SetDefaultProperties@CTerrainEntity@@UAEXXZ
       3330  D01 001611D0 ?SetDefaultProperties@CTextFXHolder@@UAEXXZ
       3331  D02 00162640 ?SetDefaultProperties@CTimeController@@UAEXXZ
       3332  D03 00163530 ?SetDefaultProperties@CTouchField@@UAEXXZ
       3333  D04 00164780 ?SetDefaultProperties@CTrigger@@UAEXXZ
       3334  D05 00165920 ?SetDefaultProperties@CUnit@@UAEXXZ
       3335  D06 000CC0F0 ?SetDefaultProperties@CViewingItems@@UAEXXZ
       3336  D07 001679D0 ?SetDefaultProperties@CVoiceHolder@@UAEXXZ
       3337  D08 00169300 ?SetDefaultProperties@CWatchPlayers@@UAEXXZ
       3338  D09 001681D0 ?SetDefaultProperties@CWatcher@@UAEXXZ
       3339  D0A 0016A070 ?SetDefaultProperties@CWaterHolder@@UAEXXZ
       3340  D0B 0016AD70 ?SetDefaultProperties@CWildPet@@UAEXXZ
       3341  D0C 00171B50 ?SetDefaultProperties@CWildPetBase@@UAEXXZ
       3342  D0D 00176D30 ?SetDefaultProperties@CWorldBase@@UAEXXZ
       3343  D0E 0017C6A0 ?SetDefaultProperties@CWorldLink@@UAEXXZ
       3344  D0F 0017CAC0 ?SetDefaultProperties@CWorldSettingsController@@UAEXXZ
       3345  D10 0011D2E0 ?SetDefaultWearing@CPlayer@@QAEXXZ
       3346  D11 00118950 ?SetDesiredMovement@CPlayer@@UAEKXZ
       3347  D12 00167300 ?SetDesiredMovement@CUnit@@UAEKXZ
       3348  D13 00166C90 ?SetDesiredMovementEx@CUnit@@UAEKXZ
       3349  D14 001674E0 ?SetDesiredRotate@CUnit@@UAEKXZ
       3350  D15 00123EC0 ?SetDie@CPlayer@@UAEXXZ
       3351  D16 00121A00 ?SetElementalData@CPlayer@@UAEXPAVCEntity@@JJ@Z
       3352  D17 00121AB0 ?SetElementalStatus@CPlayer@@UAEXPAVCEntity@@CCJMMM@Z
       3353  D18 00165C80 ?SetEnemyEntity@CUnit@@UAEHPAVCEntity@@H@Z
       3354  D19 00172050 ?SetEnemyEntity@CWildPetBase@@UAEHPAVCEntity@@H@Z
       3355  D1A 0013BC50 ?SetFlare@CPlayerWeapons@@QAEXJJ@Z
       3356  D1B 001084B0 ?SetGameEnd@CPlayer@@QAEXXZ
       3357  D1C 00116AC0 ?SetHitEffect@CPlayer@@QAEXJHPAVCEntity@@J@Z
       3358  D1D 000F9DD0 ?SetHudModel_Use@CPlayer@@UAEXH@Z
       3359  D1E 000FD180 ?SetImportantValues@CPlayer@@UAEXMMMCC@Z
       3360  D1F 00133BB0 ?SetItem@CPlayerAnimator@@QAEXPAVCModelObject@@@Z
       3361  D20 000C9D80 ?SetItemAttachmentAnim@CItem@@QAEXJJ@Z
       3362  D21 000C98A0 ?SetItemType@CItem@@UAEXJ@Z
       3363  D22 00092E40 ?SetKillTargetEntity@CCharacterBase@@UAEHPAVCEntity@@@Z
       3364  D23 000B1CE0 ?SetKillTargetEntity@CEnemyBase@@UAEHPAVCEntity@@@Z
       3365  D24 000F00E0 ?SetKillTargetEntity@CPetBase@@UAEHPAVCEntity@@@Z
       3366  D25 001515A0 ?SetKillTargetEntity@CSlaveBase@@UAEHPAVCEntity@@@Z
       3367  D26 00165C70 ?SetKillTargetEntity@CUnit@@UAEHPAVCEntity@@@Z
       3368  D27 001720F0 ?SetKillTargetEntity@CWildPetBase@@UAEHPAVCEntity@@@Z
       3369  D28 00125A40 ?SetLegit@CPlayer@@UAEXEJ@Z
       3370  D29 00121970 ?SetMobData@CPlayer@@UAEXPAVCEntity@@JJHHH@Z
       3371  D2A 000FF5A0 ?SetNickNameDamageEffect@CPlayer@@UAEXJW4NickNameEffectType@CEntity@@@Z
       3372  D2B 00092E70 ?SetNoTargetEntity@CCharacterBase@@UAEXXZ
       3373  D2C 000B1D10 ?SetNoTargetEntity@CEnemyBase@@UAEXXZ
       3374  D2D 000F0110 ?SetNoTargetEntity@CPetBase@@UAEXXZ
       3375  D2E 00151530 ?SetNoTargetEntity@CSlaveBase@@UAEXXZ
       3376  D2F 00165C90 ?SetNoTargetEntity@CUnit@@UAEXXZ
       3377  D30 001720C0 ?SetNoTargetEntity@CWildPetBase@@UAEXXZ
       3378  D31 001219B0 ?SetPetData@CPlayer@@UAEXPAVCEntity@@JJ@Z
       3379  D32 000331E0 ?SetPlayerAppearance@@YAHPAVCModelObject@@PAVCPlayerCharacter@@AAVCTString@@H@Z
       3380  D33 00033350 ?SetPlayerAppearanceSka@@YAHPAVCModelInstance@@PAVCPlayerCharacter@@AAVCTString@@HK@Z
       3381  D34 00132610 ?SetPredictionPair@CPlayerAnimator@@UAEXPAVCEntity@@@Z
       3382  D35 00132640 ?SetPredictionPair@CPlayerView@@UAEXPAVCEntity@@@Z
       3383  D36 0004D5B0 ?SetPredictionPair@CProjectile@@UAEXPAVCEntity@@@Z
       3384  D37 0004D5E0 ?SetPredictionPair@CWatcher@@UAEXPAVCEntity@@@Z
       3385  D38 000FDC80 ?SetProduct@CPlayer@@UAEXJC@Z
       3386  D39 001048A0 ?SetRandomMouthPitch@CPlayer@@QAEXMM@Z
       3387  D3A 000F9050 ?SetReapplyingActions@CPlayer@@UAEXXZ
       3388  D3B 001259E0 ?SetRepairLegit@CPlayer@@UAEXJPAVCCharacterTarget@@@Z
       3389  D3C 000F8EB0 ?SetRotation@CPlayer@@QAEXAAJM@Z
       3390  D3D 000FD110 ?SetShopData@CPlayer@@UAEXJC@Z
       3391  D3E 000FD220 ?SetSkillCancel@CPlayer@@UAEXH@Z
       3392  D3F 00124910 ?SetSpeedUp@CPlayer@@UAEXHJH@Z
       3393  D40 000941B0 ?SetSpeedsToDesiredPosition@CCharacterBase@@UAEXABV?$Vector@M$02@@MH@Z
       3394  D41 000B1D70 ?SetSpeedsToDesiredPosition@CEnemyBase@@UAEXABV?$Vector@M$02@@MH@Z
       3395  D42 000F0150 ?SetSpeedsToDesiredPosition@CPetBase@@UAEXABV?$Vector@M$02@@MH@Z
       3396  D43 00152AE0 ?SetSpeedsToDesiredPosition@CSlaveBase@@UAEXABV?$Vector@M$02@@MH@Z
       3397  D44 00172BF0 ?SetSpeedsToDesiredPosition@CWildPetBase@@UAEXABV?$Vector@M$02@@MH@Z
       3398  D45 000FDD20 ?SetSummonCommand@CPlayer@@UAEXPAVCEntity@@J@Z
       3399  D46 00126460 ?SetTarget@CPlayer@@UAEXJC@Z
       3400  D47 001218E0 ?SetTarget@CPlayer@@UAEXPAVCEntity@@@Z
       3401  D48 00151700 ?SetTargetByCommand@CSlaveBase@@QAEXJ@Z
       3402  D49 00092E10 ?SetTargetEntity@CCharacterBase@@UAEHPAVCEntity@@@Z
       3403  D4A 000B1CB0 ?SetTargetEntity@CEnemyBase@@UAEHPAVCEntity@@@Z
       3404  D4B 000F00A0 ?SetTargetEntity@CPetBase@@UAEHPAVCEntity@@@Z
       3405  D4C 00151500 ?SetTargetEntity@CSlaveBase@@UAEHPAVCEntity@@@Z
       3406  D4D 00165C60 ?SetTargetEntity@CUnit@@UAEHPAVCEntity@@@Z
       3407  D4E 00172000 ?SetTargetEntity@CWildPetBase@@UAEHPAVCEntity@@@Z
       3408  D4F 00092D30 ?SetTargetHard@CCharacterBase@@QAEHPAVCEntity@@@Z
       3409  D50 000B1BD0 ?SetTargetHard@CEnemyBase@@QAEHPAVCEntity@@@Z
       3410  D51 000EFFE0 ?SetTargetHard@CPetBase@@QAEHPAVCEntity@@@Z
       3411  D52 00151630 ?SetTargetHard@CSlaveBase@@QAEHPAVCEntity@@@Z
       3412  D53 001728B0 ?SetTargetHard@CWildPetBase@@QAEHPAVCEntity@@@Z
       3413  D54 00092DA0 ?SetTargetHardForce@CCharacterBase@@QAEHPAVCEntity@@@Z
       3414  D55 000B1C40 ?SetTargetHardForce@CEnemyBase@@QAEHPAVCEntity@@@Z
       3415  D56 000F0040 ?SetTargetHardForce@CPetBase@@QAEHPAVCEntity@@@Z
       3416  D57 001516A0 ?SetTargetHardForce@CSlaveBase@@QAEHPAVCEntity@@@Z
       3417  D58 00172920 ?SetTargetHardForce@CWildPetBase@@QAEHPAVCEntity@@@Z
       3418  D59 001727A0 ?SetTargetItem@CWildPetBase@@QAEHPAVCEntity@@@Z
       3419  D5A 001217F0 ?SetTargetMe@CPlayer@@UAEXXZ
       3420  D5B 00092C80 ?SetTargetNone@CCharacterBase@@QAEXXZ
       3421  D5C 000B1B20 ?SetTargetNone@CEnemyBase@@QAEXXZ
       3422  D5D 000EFF50 ?SetTargetNone@CPetBase@@QAEXXZ
       3423  D5E 00151560 ?SetTargetNone@CSlaveBase@@QAEXXZ
       3424  D5F 00172760 ?SetTargetNone@CWildPetBase@@QAEXXZ
       3425  D60 00121780 ?SetTargetNull@CPlayer@@QAEXXZ
       3426  D61 00092CC0 ?SetTargetSoft@CCharacterBase@@QAEHPAVCEntity@@@Z
       3427  D62 000B1B60 ?SetTargetSoft@CEnemyBase@@QAEHPAVCEntity@@@Z
       3428  D63 000EFF80 ?SetTargetSoft@CPetBase@@QAEHPAVCEntity@@@Z
       3429  D64 001515D0 ?SetTargetSoft@CSlaveBase@@QAEHPAVCEntity@@@Z
       3430  D65 00172810 ?SetTargetSoft@CWildPetBase@@QAEHPAVCEntity@@@Z
       3431  D66 00106960 ?SetUnconnected@CPlayer@@QAEXXZ
       3432  D67 00168610 ?SetWatchDelays@CWatcher@@QAEXXZ
       3433  D68 000F8E80 ?SetWeaponAndAnimator@CPlayer@@UAEXXZ
       3434  D69 00136070 ?SetWholeAnimation@CPlayerAnimator@@QAEXJKMMH@Z
       3435  D6A 000FDC30 ?SetWideScreen@CPlayer@@UAEXPAVCEntity@@HM@Z
       3436  D6B 001219D0 ?SetWildPetData@CPlayer@@UAEXPAVCEntity@@JJ@Z
       3437  D6C 0013C460 ?Setup3DSoundParameters@CPlayerWeapons@@QAEXXZ
       3438  D6D 001434E0 ?SetupLightSource@CProjectile@@QAEXH@Z
       3439  D6E 00104E60 ?SetupView@CPlayer@@QAEXPAVCDrawPort@@AAVCAnyProjection3D@@AAPAVCEntity@@AAVCPlacement3D@@AAKH@Z
       3440  D6F 00246320 ?ShadowType_enum@@3VCEntityPropertyEnumType@@A
       3441  D70 002462B0 ?ShadowType_values@@3PAVCEntityPropertyEnumValue@@A
       3442  D71 00094680 ?ShouldBlowUp@CCharacterBase@@UAEHXZ
       3443  D72 000B2200 ?ShouldBlowUp@CEnemyBase@@UAEHXZ
       3444  D73 000F07C0 ?ShouldBlowUp@CPetBase@@UAEHXZ
       3445  D74 00107DB0 ?ShouldBlowUp@CPlayer@@QAEHXZ
       3446  D75 00152F80 ?ShouldBlowUp@CSlaveBase@@UAEHXZ
       3447  D76 00094140 ?ShouldCeaseAttack@CCharacterBase@@QAEHXZ
       3448  D77 000B19C0 ?ShouldCeaseAttack@CEnemyBase@@QAEHXZ
       3449  D78 000EFEF0 ?ShouldCeaseAttack@CPetBase@@QAEHXZ
       3450  D79 00152A90 ?ShouldCeaseAttack@CSlaveBase@@QAEHXZ
       3451  D7A 00172B90 ?ShouldCeaseAttack@CWildPetBase@@QAEHXZ
       3452  D7B 000FFDB0 ?ShowAttackResult@CPlayer@@QAEXPAVCEntity@@KCJ@Z
       3453  D7C 000FF8F0 ?ShowDamageResult@CPlayer@@QAEXPAVCEntity@@KCJ@Z
       3454  D7D 00136330 ?ShowFlare@CPlayerAnimator@@QAEXJJJ@Z
       3455  D7E 0013BB60 ?ShowFlare@CPlayerWeapons@@QAEXAAVCModelObject@@JJM@Z
       3456  D7F 000C9960 ?ShowItemParticles@CItem@@QAEHXZ
       3457  D80 00095580 ?SightSound@CCharacterBase@@UAEXXZ
       3458  D81 000B30F0 ?SightSound@CEnemyBase@@UAEXXZ
       3459  D82 000F16C0 ?SightSound@CPetBase@@UAEXXZ
       3460  D83 000B7480 ?SingleActive@CEnemyBase@@QAEHABVCEntityEvent@@@Z
       3461  D84 000F5340 ?SingleActive@CPetBase@@QAEHABVCEntityEvent@@@Z
       3462  D85 00157770 ?SingleActive@CSlaveBase@@QAEHABVCEntityEvent@@@Z
       3463  D86 000B7B10 ?SingleInActive@CEnemyBase@@QAEHABVCEntityEvent@@@Z
       3464  D87 000F5980 ?SingleInActive@CPetBase@@QAEHABVCEntityEvent@@@Z
       3465  D88 00157EA0 ?SingleInActive@CSlaveBase@@QAEHABVCEntityEvent@@@Z
       3466  D89 000F1720 ?SitAnim@CPetBase@@UAEXXZ
       3467  D8A 000F1740 ?SittingAnim@CPetBase@@UAEXXZ
       3468  D8B 000B1A00 ?SizeModel@CEnemyBase@@UAEXXZ
       3469  D8C 000F1760 ?SkillAnim@CPetBase@@UAEXJKM@Z
       3470  D8D 0011F3E0 ?SkillAnimation@CPlayer@@QAEXXZ
       3471  D8E 0010C0A0 ?SkillAnimationEx@CPlayer@@QAEHXZ
       3472  D8F 0010BDC0 ?SkillCondition@CPlayer@@QAEHJVCEntityPointer@@AAH1@Z
       3473  D90 00096510 ?SkillNow@CCharacterBase@@UAEXXZ
       3474  D91 000B3CA0 ?SkillNow@CEnemyBase@@UAEXXZ
       3475  D92 000F22C0 ?SkillNow@CPetBase@@UAEXXZ
       3476  D93 00154BA0 ?SkillNow@CSlaveBase@@UAEXXZ
       3477  D94 00165C00 ?SkillNow@CUnit@@UAEXXZ
       3478  D95 00172390 ?SkillNow@CWildPetBase@@UAEXXZ
       3479  D96 0009A440 ?SkillingTarget@CCharacterBase@@QAEHABVCEntityEvent@@@Z
       3480  D97 000B86D0 ?SkillingTarget@CEnemyBase@@QAEHABVCEntityEvent@@@Z
       3481  D98 000F65C0 ?SkillingTarget@CPetBase@@QAEHABVCEntityEvent@@@Z
       3482  D99 001589F0 ?SkillingTarget@CSlaveBase@@QAEHABVCEntityEvent@@@Z
       3483  D9A 001765F0 ?SkillingTarget@CWildPetBase@@QAEHABVCEntityEvent@@@Z
       3484  D9B 00244CA8 ?SoundType_enum@@3VCEntityPropertyEnumType@@A
       3485  D9C 00244F28 ?SoundType_values@@3PAVCEntityPropertyEnumValue@@A
       3486  D9D 00095B90 ?SpawnBlood_client@CCharacterBase@@QAEXVECharBaseDamage@@@Z
       3487  D9E 000B3510 ?SpawnBlood_client@CEnemyBase@@QAEXVEEnemyBaseDamage@@@Z
       3488  D9F 000F1B40 ?SpawnBlood_client@CPetBase@@QAEXVEPetBaseDamage@@@Z
       3489  DA0 001542A0 ?SpawnBlood_client@CSlaveBase@@QAEXVESlaveBaseDamage@@@Z
       3490  DA1 0010AF70 ?SpawnBubbles@CPlayer@@QAEXJ@Z
       3491  DA2 00144430 ?SpawnEffect@CProjectile@@QAEXABVCPlacement3D@@ABVESpawnEffect@@@Z
       3492  DA3 0002F7D0 ?SpawnFlame@@YA?AVCEntityPointer@@PAVCEntity@@0ABV?$Vector@M$02@@@Z
       3493  DA4 00035390 ?SpawnRangeSound@@YAXPAVCEntity@@0W4SoundType@@M@Z
       3494  DA5 0013E490 ?SpawnRangeSound@CPlayerWeapons@@QAEXM@Z
       3495  DA6 0002F690 ?SpawnReminder@@YA?AVCEntityPointer@@PAVCEntity@@MJ@Z
       3496  DA7 001180B0 ?SpawnTeleport@CPlayer@@QAEXXZ
       3497  DA8 0007B8B0 ?SpawnTrail@CBullet@@QAEXXZ
       3498  DA9 0009A4B0 ?SpellSkill@CCharacterBase@@QAEHABVCEntityEvent@@@Z
       3499  DAA 0011F0D0 ?SpellSkill@CPlayer@@QAEXJ@Z
       3500  DAB 00158A60 ?SpellSkill@CSlaveBase@@QAEHABVCEntityEvent@@@Z
       3501  DAC 00176660 ?SpellSkill@CWildPetBase@@QAEHABVCEntityEvent@@@Z
       3502  DAD 00244CC0 ?SprayParticlesType_enum@@3VCEntityPropertyEnumType@@A
       3503  DAE 00244FF0 ?SprayParticlesType_values@@3PAVCEntityPropertyEnumValue@@A
       3504  DAF 00135EE0 ?Stand@CPlayerAnimator@@QAEXXZ
       3505  DB0 000FCC00 ?StandDown@CPlayer@@UAEXH@Z
       3506  DB1 000F1730 ?StandUpAnim@CPetBase@@UAEXXZ
       3507  DB2 00153EC0 ?StandUpAnim@CSlaveBase@@UAEXXZ
       3508  DB3 00173560 ?StandUpAnim@CWildPetBase@@UAEXXZ
       3509  DB4 0009A0B0 ?StandardBehavior@CCharacterBase@@QAEHABVCEntityEvent@@@Z
       3510  DB5 000B8240 ?StandardBehavior@CEnemyBase@@QAEHABVCEntityEvent@@@Z
       3511  DB6 000F61C0 ?StandardBehavior@CPetBase@@QAEHABVCEntityEvent@@@Z
       3512  DB7 001585F0 ?StandardBehavior@CSlaveBase@@QAEHABVCEntityEvent@@@Z
       3513  DB8 001763E0 ?StandardBehavior@CWildPetBase@@QAEHABVCEntityEvent@@@Z
       3514  DB9 00167810 ?StandingAnim@CUnit@@UAEXXZ
       3515  DBA 0011BD30 ?StartAttack@CPlayer@@QAEXXZ
       3516  DBB 000FDBC0 ?StartCamera@CPlayer@@UAEXPAVCEntity@@H@Z
       3517  DBC 000335A0 ?StartDebugTrigger@@YAXPAVCEntity@@@Z
       3518  DBD 0002FCA0 ?StartSkaAnim@@YAXPAVCEntity@@JKJM@Z
       3519  DBE 0002FCE0 ?StartSkaAnimStr@@YAXPAVCModelInstance@@VCTString@@KJM@Z
       3520  DBF 00096F60 ?StopAttack@CCharacterBase@@QAEHABVCEntityEvent@@@Z
       3521  DC0 000B42C0 ?StopAttack@CEnemyBase@@QAEHABVCEntityEvent@@@Z
       3522  DC1 000F28E0 ?StopAttack@CPetBase@@QAEHABVCEntityEvent@@@Z
       3523  DC2 0011BD20 ?StopAttack@CPlayer@@QAEXXZ
       3524  DC3 00154E50 ?StopAttack@CSlaveBase@@QAEHABVCEntityEvent@@@Z
       3525  DC4 00173820 ?StopAttack@CWildPetBase@@QAEHABVCEntityEvent@@@Z
       3526  DC5 0011BD90 ?StopMove@CPlayer@@UAEXXZ
       3527  DC6 00165D10 ?StopMove@CUnit@@UAEXXZ
       3528  DC7 0011BF70 ?StopMoveNoSendStopMsg@CPlayer@@QAEXXZ
       3529  DC8 0009A760 ?StopMovement@CCharacterBase@@QAEHABVCEntityEvent@@@Z
       3530  DC9 000B8740 ?StopMovement@CEnemyBase@@QAEHABVCEntityEvent@@@Z
       3531  DCA 000F66D0 ?StopMovement@CPetBase@@QAEHABVCEntityEvent@@@Z
       3532  DCB 00158AD0 ?StopMovement@CSlaveBase@@QAEHABVCEntityEvent@@@Z
       3533  DCC 001766D0 ?StopMovement@CWildPetBase@@QAEHABVCEntityEvent@@@Z
       3534  DCD 00167780 ?StopMoving@CUnit@@QAEXXZ
       3535  DCE 00096320 ?StopNow@CCharacterBase@@UAEXXZ
       3536  DCF 000B3C10 ?StopNow@CEnemyBase@@UAEXXZ
       3537  DD0 000F2230 ?StopNow@CPetBase@@UAEXXZ
       3538  DD1 00154980 ?StopNow@CSlaveBase@@UAEXXZ
       3539  DD2 00165C50 ?StopNow@CUnit@@UAEXXZ
       3540  DD3 00172300 ?StopNow@CWildPetBase@@UAEXXZ
       3541  DD4 00126280 ?StopPlayer@CPlayer@@UAEXXZ
       3542  DD5 00096900 ?StopProduce@CCharacterBase@@QAEXXZ
       3543  DD6 0011D090 ?StopRotating@CPlayer@@QAEXXZ
       3544  DD7 00167790 ?StopRotating@CUnit@@QAEXXZ
       3545  DD8 0011D0D0 ?StopTranslating@CPlayer@@QAEXXZ
       3546  DD9 001677D0 ?StopTranslating@CUnit@@QAEXXZ
       3547  DDA 000963E0 ?StopandTeleport@CCharacterBase@@UAEXXZ
       3548  DDB 000B3DD0 ?StopandTeleport@CEnemyBase@@UAEXXZ
       3549  DDC 000F23F0 ?StopandTeleport@CPetBase@@UAEXXZ
       3550  DDD 00154A10 ?StopandTeleport@CSlaveBase@@UAEXXZ
       3551  DDE 00165CA0 ?StopandTeleport@CUnit@@UAEXXZ
       3552  DDF 00172570 ?StopandTeleport@CWildPetBase@@UAEXXZ
       3553  DE0 00140CB0 ?Stopped@CPlayerWeapons@@QAEHABVCEntityEvent@@@Z
       3554  DE1 00133D10 ?StoreLast@CPlayerAnimator@@QAEXXZ
       3555  DE2 00246968 ?StreaksBlendType_enum@@3VCEntityPropertyEnumType@@A
       3556  DE3 00246970 ?StreaksBlendType_values@@3PAVCEntityPropertyEnumValue@@A
       3557  DE4 000C9E30 ?StretchItem@CItem@@QAEXABV?$Vector@M$02@@@Z
       3558  DE5 00095AD0 ?StretchModel@CCharacterBase@@QAEXV?$Vector@M$02@@@Z
       3559  DE6 000B3450 ?StretchModel@CEnemyBase@@QAEXV?$Vector@M$02@@@Z
       3560  DE7 000F1A80 ?StretchModel@CPetBase@@QAEXV?$Vector@M$02@@@Z
       3561  DE8 001541E0 ?StretchModel@CSlaveBase@@QAEXV?$Vector@M$02@@@Z
       3562  DE9 00173710 ?StretchModel@CWildPetBase@@QAEXV?$Vector@M$02@@@Z
       3563  DEA 00095B10 ?StretchSingleModel@CCharacterBase@@QAEXV?$Vector@M$02@@@Z
       3564  DEB 000B3490 ?StretchSingleModel@CEnemyBase@@QAEXV?$Vector@M$02@@@Z
       3565  DEC 000F1AC0 ?StretchSingleModel@CPetBase@@QAEXV?$Vector@M$02@@@Z
       3566  DED 00154220 ?StretchSingleModel@CSlaveBase@@QAEXV?$Vector@M$02@@@Z
       3567  DEE 00173730 ?StretchSingleModel@CWildPetBase@@QAEXV?$Vector@M$02@@@Z
       3568  DEF 00135E70 ?Swim@CPlayerAnimator@@QAEXXZ
       3569  DF0 0013F320 ?SwingKnife@CPlayerWeapons@@QAEHABVCEntityEvent@@@Z
       3570  DF1 00249920 ?SwitchType_enum@@3VCEntityPropertyEnumType@@A
       3571  DF2 00249978 ?SwitchType_values@@3PAVCEntityPropertyEnumValue@@A
       3572  DF3 00249B48 ?TacticType_enum@@3VCEntityPropertyEnumType@@A
       3573  DF4 00249B50 ?TacticType_values@@3PAVCEntityPropertyEnumValue@@A
       3574  DF5 000E67D0 ?Target@CNavigationMarker@@QAEAAV1@J@Z
       3575  DF6 00172A00 ?TargetDestinationPos@CWildPetBase@@UAE?AV?$Vector@M$02@@W4wPetAIState@@@Z
       3576  DF7 000E67C0 ?TargetPointer@CNavigationMarker@@QAEAAVCEntityPointer@@J@Z
       3577  DF8 0024A308 ?TargetType_enum@@3VCEntityPropertyEnumType@@A
       3578  DF9 0024A380 ?TargetType_values@@3PAVCEntityPropertyEnumValue@@A
       3579  DFA 00113A60 ?TeleportPlayer@CPlayer@@QAEXW4WorldLinkType@@W4PlayerTeleportCause@@@Z
       3580  DFB 001185E0 ?TeleportToAutoMarker@CPlayer@@QAEXPAVCPlayerActionMarker@@@Z
       3581  DFC 00128930 ?TheEnd@CPlayer@@QAEHABVCEntityEvent@@@Z
       3582  DFD 0024A048 ?TouchFieldType_enum@@3VCEntityPropertyEnumType@@A
       3583  DFE 0024A050 ?TouchFieldType_values@@3PAVCEntityPropertyEnumValue@@A
       3584  DFF 002465E8 ?TouchOrDamageEvent_enum@@3VCEntityPropertyEnumType@@A
       3585  E00 00246630 ?TouchOrDamageEvent_values@@3PAVCEntityPropertyEnumValue@@A
       3586  E01 00108D20 ?TransformSorcerer@CPlayer@@UAEXH@Z
       3587  E02 0010A1A0 ?Transforming@CPlayer@@QAEXXZ
       3588  E03 001261B0 ?TransfromPet@CPlayer@@UAEXPAVCEntity@@JJ@Z
       3589  E04 001374A0 ?UnlockRotate@CPlayerView@@QAEXXZ
       3590  E05 001022C0 ?UpdateLatency@CPlayer@@QAEXM@Z
       3591  E06 001047C0 ?UpdateLevelStats@CPlayer@@QAEXXZ
       3592  E07 0013A890 ?UpdateTargetingInfo@CPlayerWeapons@@QAEXXZ
       3593  E08 000F93E0 ?UpdateUnitInfo@CPlayer@@QAEXPAVCEntity@@JJ@Z
       3594  E09 00121190 ?UseAction@CPlayer@@UAEXH@Z
       3595  E0A 00121090 ?UsePetPickItem@CPlayer@@UAEXXZ
       3596  E0B 001210C0 ?UsePetSkill@CPlayer@@UAEXH@Z
       3597  E0C 00108430 ?UsePressed@CPlayer@@QAEXH@Z
       3598  E0D 00120EA0 ?UseSkill@CPlayer@@UAEXH@Z
       3599  E0E 00165CE0 ?UseSkill@CUnit@@UAEHH@Z
       3600  E0F 00121140 ?UseSlaveSkill@CPlayer@@UAEXPAVCEntity@@H@Z
       3601  E10 00121160 ?UseWildSkill@CPlayer@@UAEXPAVCEntity@@H@Z
       3602  E11 001023B0 ?ValidateCharacter@CPlayer@@QAEXXZ
       3603  E12 002481A0 ?ViewType_enum@@3VCEntityPropertyEnumType@@A
       3604  E13 002481A8 ?ViewType_values@@3PAVCEntityPropertyEnumValue@@A
       3605  E14 00244CD8 ?VisibilityBits_enum@@3VCEntityPropertyEnumType@@A
       3606  E15 002451A0 ?VisibilityBits_values@@3PAVCEntityPropertyEnumValue@@A
       3607  E16 001739B0 ?WPetAction@CWildPetBase@@QAEHABVCEntityEvent@@@Z
       3608  E17 00095550 ?WaitForDust@CCharacterBase@@UAEMAAV?$Vector@M$02@@@Z
       3609  E18 000B30C0 ?WaitForDust@CEnemyBase@@UAEMAAV?$Vector@M$02@@@Z
       3610  E19 000F1690 ?WaitForDust@CPetBase@@UAEMAAV?$Vector@M$02@@@Z
       3611  E1A 00153E40 ?WaitForDust@CSlaveBase@@UAEMAAV?$Vector@M$02@@@Z
       3612  E1B 001734E0 ?WaitForDust@CWildPetBase@@UAEMAAV?$Vector@M$02@@@Z
       3613  E1C 001345F0 ?WalkAnim@CPlayerAnimator@@QAEXXZ
       3614  E1D 00167820 ?WalkingAnim@CUnit@@UAEXXZ
       3615  E1E 000FD510 ?WarTypeAttackGroup@CPlayer@@QAEJC@Z
       3616  E1F 00245EE8 ?WarpRotation_enum@@3VCEntityPropertyEnumType@@A
       3617  E20 00245F40 ?WarpRotation_values@@3PAVCEntityPropertyEnumValue@@A
       3618  E21 000FDD40 ?WarpTeleport@CPlayer@@UAEXMMMMC@Z
       3619  E22 000C9A60 ?WasPickedBy@CItem@@QAEHPAVCEntity@@@Z
       3620  E23 000C99D0 ?WasRecentlyPickedBy@CItem@@QAEHPAVCEntity@@@Z
       3621  E24 001686D0 ?Watch@CWatcher@@QAEXXZ
       3622  E25 00244CC8 ?WeaponBits_enum@@3VCEntityPropertyEnumType@@A
       3623  E26 00245078 ?WeaponBits_values@@3PAVCEntityPropertyEnumValue@@A
       3624  E27 00248668 ?WeaponEffectType_enum@@3VCEntityPropertyEnumType@@A
       3625  E28 00248670 ?WeaponEffectType_values@@3PAVCEntityPropertyEnumValue@@A
       3626  E29 0013A740 ?WeaponMovingOffset@CPlayerWeapons@@QAEXAAV?$Vector@M$02@@@Z
       3627  E2A 0013E8F0 ?WeaponSelectOk@CPlayerWeapons@@QAEHW4WeaponType@@@Z
       3628  E2B 00248554 ?WeaponType_enum@@3VCEntityPropertyEnumType@@A
       3629  E2C 002485B4 ?WeaponType_values@@3PAVCEntityPropertyEnumValue@@A
       3630  E2D 000FEB20 ?WearingCostumeArmor@CPlayer@@UAEXPAVCNetworkMessage@@@Z
       3631  E2E 000FEFF0 ?WearingCostumeArmorOneSuit@CPlayer@@UAEXPAVCNetworkMessage@@@Z
       3632  E2F 000FF0B0 ?WearingCostumeArmorProcess@CPlayer@@QAEXJJJ@Z
       3633  E30 0011D480 ?WearingDefaultArmor@CPlayer@@UAEXH@Z
       3634  E31 00127FB0 ?WorldChange@CPlayer@@QAEHABVCEntityEvent@@@Z
       3635  E32 00128140 ?WorldChangeDead@CPlayer@@QAEHABVCEntityEvent@@@Z
       3636  E33 0024AF38 ?WorldLinkType_enum@@3VCEntityPropertyEnumType@@A
       3637  E34 0024AF90 ?WorldLinkType_values@@3PAVCEntityPropertyEnumValue@@A
       3638  E35 00094450 ?WouldNotLeaveAttackRadius@CCharacterBase@@QAEHXZ
       3639  E36 000B1FD0 ?WouldNotLeaveAttackRadius@CEnemyBase@@QAEHXZ
       3640  E37 000F0590 ?WouldNotLeaveAttackRadius@CPetBase@@QAEHXZ
       3641  E38 00152D50 ?WouldNotLeaveAttackRadius@CSlaveBase@@QAEHXZ
       3642  E39 00095590 ?WoundSound@CCharacterBase@@UAEXXZ
       3643  E3A 000B3100 ?WoundSound@CEnemyBase@@UAEXXZ
       3644  E3B 000F16D0 ?WoundSound@CPetBase@@UAEXXZ
       3645  E3C 00153E70 ?WoundSound@CSlaveBase@@UAEXXZ
       3646  E3D 00173510 ?WoundSound@CWildPetBase@@UAEXXZ
       3647  E3E 00127F40 ?Wounded@CPlayer@@QAEHABVCEntityEvent@@@Z
       3648  E3F 000952C0 ?WoundedNotify@CCharacterBase@@QAEXABVECharBaseDamage@@@Z
       3649  E40 000B2E30 ?WoundedNotify@CEnemyBase@@QAEXABVEEnemyBaseDamage@@@Z
       3650  E41 000F13F0 ?WoundedNotify@CPetBase@@QAEXABVEPetBaseDamage@@@Z
       3651  E42 00153BB0 ?WoundedNotify@CSlaveBase@@QAEXABVESlaveBaseDamage@@@Z
       3652  E43 00173250 ?WoundedNotify@CWildPetBase@@QAEXABVEWildPetBaseDamage@@@Z
       3653  E44 00036E10 ?Write_t@CCompMessageID@@QAEXAAVCTStream@@@Z
       3654  E45 0004DF50 ?Write_t@CEmiter@@QAEXAAVCTStream@@H@Z
       3655  E46 0004D940 ?Write_t@CEmittedParticle@@QAEXAAVCTStream@@H@Z
       3656  E47 001024B0 ?Write_t@CPlayer@@UAEXPAVCTStream@@H@Z
       3657  E48 00244CE0 ?ZoneBits_enum@@3VCEntityPropertyEnumType@@A
       3658  E49 00245220 ?ZoneBits_values@@3PAVCEntityPropertyEnumValue@@A
       3659  E4A 00269D6C ?cmp_bInitialStart@@3HA
       3660  E4B 00269D5C ?cmp_bLevelStart@@3HA
       3661  E4C 00269D68 ?cmp_bUpdateInBackground@@3HA
       3662  E4D 00269D64 ?cmp_ppenDHPlayer@@3PAVCPlayer@@A
       3663  E4E 00269D60 ?cmp_ppenPlayer@@3PAVCPlayer@@A
       3664  E4F 000F6E30 ?ctl_ComposeActionPacket@@YAXABVCPlayerCharacter@@AAVCPlayerAction@@H@Z
       3665  E50 0026D16C ?ctl_pvPlayerControls@@3PAXA
       3666  E51 001C6BB8 ?ctl_slPlayerControlsSize@@3JB
       3667  E52 00249CD0 ?eTeleportType_enum@@3VCEntityPropertyEnumType@@A
       3668  E53 00249C30 ?eTeleportType_values@@3PAVCEntityPropertyEnumValue@@A
       3669  E54 0024A2F0 ?wPetAIState_enum@@3VCEntityPropertyEnumType@@A
       3670  E55 0024A310 ?wPetAIState_values@@3PAVCEntityPropertyEnumValue@@A
       3671  E56 00241470 CAnimationChanger_DLLClass
       3672  E57 00241580 CAnimationHub_DLLClass
       3673  E58 002415E0 CAreaMarker_DLLClass
       3674  E59 00241630 CBackgroundViewer_DLLClass
       3675  E5A 00241910 CBasicEffect_DLLClass
       3676  E5B 00241968 CBlendController_DLLClass
       3677  E5C 00241A58 CBloodSpray_DLLClass
       3678  E5D 00241AC8 CBullet_DLLClass
       3679  E5E 00241C98 CCameraMarker_DLLClass
       3680  E5F 00241C38 CCamera_DLLClass
       3681  E60 00242210 CCharacterBase_DLLClass
       3682  E61 00241CF8 CCharacter_DLLClass
       3683  E62 002428C8 CColorController_DLLClass
       3684  E63 00242998 CCopier_DLLClass
       3685  E64 00242A88 CCounter_DLLClass
       3686  E65 00242B28 CDamager_DLLClass
       3687  E66 00242CC0 CDebrisSka_DLLClass
       3688  E67 00242C10 CDebris_DLLClass
       3689  E68 00242FA8 CDestroyableArchitecture_DLLClass
       3690  E69 002432C0 CDoorController_DLLClass
       3691  E6A 00243320 CDummy_DLLClass
       3692  E6B 00243378 CEffectMarker_DLLClass
       3693  E6C 00243560 CEffector_DLLClass
       3694  E6D 00243FF0 CEnemyBase_DLLClass
       3695  E6E 00244080 CEnemyMarker_DLLClass
       3696  E6F 002445F0 CEnemySpawner_DLLClass
       3697  E70 002438C8 CEnemy_DLLClass
       3698  E71 00242DA8 CEntityStateDisplay_DLLClass
       3699  E72 00244810 CEnvironmentBase_DLLClass
       3700  E73 00244860 CEnvironmentMarker_DLLClass
       3701  E74 00244930 CEnvironmentParticlesHolder_DLLClass
       3702  E75 00244AA0 CEruptor_DLLClass
       3703  E76 00244B00 CFixedCameraField_DLLClass
       3704  E77 00244BB8 CFlame_DLLClass
       3705  E78 00244C18 CFogMarker_DLLClass
       3706  E79 00245500 CGlobal_DLLClass
       3707  E7A 00245550 CGradientMarker_DLLClass
       3708  E7B 002455B8 CGravityMarker_DLLClass
       3709  E7C 00245638 CGravityRouter_DLLClass
       3710  E7D 002456A8 CHazeMarker_DLLClass
       3711  E7E 002457C8 CHudPicHolder_DLLClass
       3712  E7F 00245988 CItemObjects_DLLClass
       3713  E80 00245930 CItem_DLLClass
       3714  E81 00245B38 CLight_DLLClass
       3715  E82 00245CC0 CLightning_DLLClass
       3716  E83 00245D20 CMarker_DLLClass
       3717  E84 00245DF0 CMessageHolder_DLLClass
       3718  E85 00245E98 CMessageView_DLLClass
       3719  E86 00245EF0 CMirrorMarker_DLLClass
       3720  E87 00246128 CMissile_DLLClass
       3721  E88 002461D8 CModelDestruction_DLLClass
       3722  E89 00246328 CModelHolder2_DLLClass
       3723  E8A 00246420 CModelHolder3_DLLClass
       3724  E8B 00246238 CModelHolder_DLLClass
       3725  E8C 002466B0 CMovingBrushMarker_DLLClass
       3726  E8D 00246660 CMovingBrush_DLLClass
       3727  E8E 00246770 CMusicChanger_DLLClass
       3728  E8F 00246898 CMusicHolder_DLLClass
       3729  E90 00246918 CNavigationMarker_DLLClass
       3730  E91 002469D0 CParticleCloudsHolder_DLLClass
       3731  E92 00246A30 CParticleCloudsMarker_DLLClass
       3732  E93 00246BC8 CParticlesHolder_DLLClass
       3733  E94 00246C48 CPendulum_DLLClass
       3734  E95 00246F00 CPetBase_DLLClass
       3735  E96 00246C98 CPet_DLLClass
       3736  E97 00247F50 CPlayerActionMarker_DLLClass
       3737  E98 002480E0 CPlayerAnimator_DLLClass
       3738  E99 00248130 CPlayerMarker_DLLClass
       3739  E9A 00248208 CPlayerView_DLLClass
       3740  E9B 00248780 CPlayerWeaponsEffects_DLLClass
       3741  E9C 00248610 CPlayerWeapons_DLLClass
       3742  E9D 00247EC8 CPlayer_DLLClass
       3743  E9E 002487D0 CPointMarker_DLLClass
       3744  E9F 00248AA0 CProjectile_DLLClass
       3745  EA0 00248B40 CReminder_DLLClass
       3746  EA1 00248BA0 CRestrictedField_DLLClass
       3747  EA2 00248C40 CRollingStone_DLLClass
       3748  EA3 00249448 CSlaveBase_DLLClass
       3749  EA4 00248EF0 CSlave_DLLClass
       3750  EA5 00249580 CSoundHolder_DLLClass
       3751  EA6 00249728 CStormController_DLLClass
       3752  EA7 002498C8 CSunMoon_DLLClass
       3753  EA8 00249928 CSwitch_DLLClass
       3754  EA9 00249AF8 CTacticsChanger_DLLClass
       3755  EAA 00249BE0 CTacticsHolder_DLLClass
       3756  EAB 00249CD8 CTeleport_DLLClass
       3757  EAC 00249D38 CTerrainEntity_DLLClass
       3758  EAD 00249E48 CTextFXHolder_DLLClass
       3759  EAE 00249FF8 CTimeController_DLLClass
       3760  EAF 0024A138 CTouchField_DLLClass
       3761  EB0 0024A2A0 CTrigger_DLLClass
       3762  EB1 0024A3A8 CUnit_DLLClass
       3763  EB2 00245A38 CViewingItems_DLLClass
       3764  EB3 0024A428 CVoiceHolder_DLLClass
       3765  EB4 0024A6D0 CWatchPlayers_DLLClass
       3766  EB5 0024A570 CWatcher_DLLClass
       3767  EB6 0024A730 CWaterHolder_DLLClass
       3768  EB7 0024AE58 CWildPetBase_DLLClass
       3769  EB8 0024A780 CWildPet_DLLClass
       3770  EB9 0024AEE8 CWorldBase_DLLClass
       3771  EBA 0024AF40 CWorldLink_DLLClass
       3772  EBB 0024AFC0 CWorldSettingsController_DLLClass

  Summary

       37000 .data
        1000 .gfids
       90000 .rdata
       39000 .reloc
        1000 .rsrc
      1B0000 .text
        1000 .tls
