Microsoft (R) COFF/PE Dumper Version 10.00.30319.01
Copyright (C) Microsoft Corporation.  All rights reserved.


Dump of file Entities.dll

File Type: DLL

  Section contains the following exports for Entities.dll

    00000000 characteristics
    3BB3182F time date stamp Thu Sep 27 15:14:39 2001
        0.00 version
           1 ordinal base
        2153 number of functions
        2153 number of names

    ordinal hint RVA      name

          1    0 0000CD10 ??0CBullet@@QAE@ABV0@@Z
          2    1 0000CCF0 ??0CBullet@@QAE@XZ
          3    2 0000FC10 ??0CCannonBall@@QAE@ABV0@@Z
          4    3 0000FB70 ??0CCannonBall@@QAE@XZ
          5    4 00024260 ??0CCompMessageID@@QAE@ABV0@@Z
          6    5 00015670 ??0CCompMessageID@@QAE@XZ
          7    6 0000E8F0 ??0CEnemyBase@@QAE@ABV0@@Z
          8    7 0005F800 ??0CEnemyBase@@QAE@XZ
          9    8 00069490 ??0CEnemyDive@@QAE@ABV0@@Z
         10    9 00069470 ??0CEnemyDive@@QAE@XZ
         11    A 0006A550 ??0CEnemyFly@@QAE@ABV0@@Z
         12    B 0006A530 ??0CEnemyFly@@QAE@XZ
         13    C 0006CD90 ??0CEnemyRunInto@@QAE@ABV0@@Z
         14    D 0006CD70 ??0CEnemyRunInto@@QAE@XZ
         15    E 0000D180 ??0CItem@@QAE@ABV0@@Z
         16    F 0000D0E0 ??0CItem@@QAE@XZ
         17   10 000229E0 ??0CNavigationMarker@@QAE@ABV0@@Z
         18   11 00094250 ??0CNavigationMarker@@QAE@XZ
         19   12 00022940 ??0CPathNode@@QAE@ABV0@@Z
         20   13 00022E50 ??0CPathNode@@QAE@PAVCNavigationMarker@@@Z
         21   14 00009920 ??0CPlayer@@QAE@AAV0@@Z
         22   15 0009BA30 ??0CPlayer@@QAE@XZ
         23   16 000963F0 ??0CPlayerAnimator@@QAE@ABV0@@Z
         24   17 000963C0 ??0CPlayerAnimator@@QAE@XZ
         25   18 00096DA0 ??0CPlayerView@@QAE@ABV0@@Z
         26   19 00096D70 ??0CPlayerView@@QAE@XZ
         27   1A 00010C60 ??0CPlayerWeapons@@QAE@ABV0@@Z
         28   1B 00010BC0 ??0CPlayerWeapons@@QAE@XZ
         29   1C 0000C340 ??0CProjectile@@QAE@ABV0@@Z
         30   1D 0000C2B0 ??0CProjectile@@QAE@XZ
         31   1E 00001270 ??0CReminder@@QAE@ABV0@@Z
         32   1F 00001250 ??0CReminder@@QAE@XZ
         33   20 0000DFC0 ??0CWatcher@@QAE@ABV0@@Z
         34   21 0000DF90 ??0CWatcher@@QAE@XZ
         35   22 000235E0 ??0EActivate@@QAE@ABV0@@Z
         36   23 0007A3A0 ??0EActivate@@QAE@XZ
         37   24 0000D840 ??0EAmmoItem@@QAE@ABV0@@Z
         38   25 000248B0 ??0EAmmoItem@@QAE@XZ
         39   26 0000D970 ??0EAmmoPackItem@@QAE@ABV0@@Z
         40   27 00025B40 ??0EAmmoPackItem@@QAE@XZ
         41   28 00096140 ??0EAnimatorInit@@QAE@ABV0@@Z
         42   29 000AF640 ??0EAnimatorInit@@QAE@XZ
         43   2A 00028210 ??0EArmor@@QAE@ABV0@@Z
         44   2B 000287E0 ??0EArmor@@QAE@XZ
         45   2C 000096A0 ??0EAutoAction@@QAE@ABV0@@Z
         46   2D 00099290 ??0EAutoAction@@QAE@XZ
         47   2E 00010760 ??0EBoringWeapon@@QAE@ABV0@@Z
         48   2F 000B5430 ??0EBoringWeapon@@QAE@XZ
         49   30 00029940 ??0EBrushDestroyed@@QAE@ABV0@@Z
         50   31 0008E040 ??0EBrushDestroyed@@QAE@XZ
         51   32 00039510 ??0EBrushDestroyedByDevil@@QAE@ABV0@@Z
         52   33 00043BF0 ??0EBrushDestroyedByDevil@@QAE@XZ
         53   34 0000CA90 ??0EBulletInit@@QAE@ABV0@@Z
         54   35 000346F0 ??0EBulletInit@@QAE@XZ
         55   36 00009040 ??0ECameraStart@@QAE@ABV0@@Z
         56   37 000990B0 ??0ECameraStart@@QAE@XZ
         57   38 00009270 ??0ECameraStop@@QAE@ABV0@@Z
         58   39 00099160 ??0ECameraStop@@QAE@XZ
         59   3A 00023E00 ??0ECenterMessage@@QAE@ABV0@@Z
         60   3B 0007A910 ??0ECenterMessage@@QAE@XZ
         61   3C 00001550 ??0EChangeAnim@@QAE@ABV0@@Z
         62   3D 000268A0 ??0EChangeAnim@@QAE@XZ
         63   3E 0007B290 ??0EChangeGravity@@QAE@ABV0@@Z
         64   3F 0007C490 ??0EChangeGravity@@QAE@XZ
         65   40 0000E320 ??0EChangeMusic@@QAE@ABV0@@Z
         66   41 00092AE0 ??0EChangeMusic@@QAE@XZ
         67   42 00023F50 ??0EComputerMessage@@QAE@ABV0@@Z
         68   43 0007AA20 ??0EComputerMessage@@QAE@XZ
         69   44 00023640 ??0EDeactivate@@QAE@ABV0@@Z
         70   45 0007A3E0 ??0EDeactivate@@QAE@XZ
         71   46 00039770 ??0EDevilCommand@@QAE@ABV0@@Z
         72   47 00043CE0 ??0EDevilCommand@@QAE@XZ
         73   48 00052C90 ??0EDevilProjectile@@QAE@ABV0@@Z
         74   49 000533E0 ??0EDevilProjectile@@QAE@XZ
         75   4A 000095A0 ??0EDisconnected@@QAE@ABV0@@Z
         76   4B 00099240 ??0EDisconnected@@QAE@XZ
         77   4C 00023760 ??0EEnd@@QAE@ABV0@@Z
         78   4D 0007A4A0 ??0EEnd@@QAE@XZ
         79   4E 000236A0 ??0EEnvironmentStart@@QAE@ABV0@@Z
         80   4F 0007A420 ??0EEnvironmentStart@@QAE@XZ
         81   50 00023700 ??0EEnvironmentStop@@QAE@ABV0@@Z
         82   51 0007A460 ??0EEnvironmentStop@@QAE@XZ
         83   52 00010860 ??0EFireWeapon@@QAE@ABV0@@Z
         84   53 000B5470 ??0EFireWeapon@@QAE@XZ
         85   54 0000FA70 ??0EForceExplode@@QAE@ABV0@@Z
         86   55 0003A180 ??0EForceExplode@@QAE@XZ
         87   56 00042A10 ??0EForcePathMarker@@QAE@ABV0@@Z
         88   57 000CE350 ??0EForcePathMarker@@QAE@XZ
         89   58 0000E760 ??0EForceWound@@QAE@ABV0@@Z
         90   59 0005F3E0 ??0EForceWound@@QAE@XZ
         91   5A 000D7D60 ??0EHarbor@@QAE@ABV0@@Z
         92   5B 000D8520 ??0EHarbor@@QAE@XZ
         93   5C 00080370 ??0EHealth@@QAE@ABV0@@Z
         94   5D 000809A0 ??0EHealth@@QAE@XZ
         95   5E 00029840 ??0EHit@@QAE@ABV0@@Z
         96   5F 0008E000 ??0EHit@@QAE@XZ
         97   60 000241B0 ??0EHitBySpaceShipBeam@@QAE@ABV0@@Z
         98   61 0007ABF0 ??0EHitBySpaceShipBeam@@QAE@XZ
         99   62 00054120 ??0EKey@@QAE@ABV0@@Z
        100   63 00082B90 ??0EKey@@QAE@XZ
        101   64 00023BB0 ??0EKilledEnemy@@QAE@ABV0@@Z
        102   65 0007A790 ??0EKilledEnemy@@QAE@XZ
        103   66 0000F820 ??0ELaunchCannonBall@@QAE@ABV0@@Z
        104   67 0003A0E0 ??0ELaunchCannonBall@@QAE@XZ
        105   68 0000C010 ??0ELaunchProjectile@@QAE@ABV0@@Z
        106   69 000C6160 ??0ELaunchProjectile@@QAE@XZ
        107   6A 000870B0 ??0EMessageItem@@QAE@ABV0@@Z
        108   6B 000876E0 ??0EMessageItem@@QAE@XZ
        109   6C 000019E0 ??0ERangeModelDestruction@@QAE@ABV0@@Z
        110   6D 00088820 ??0ERangeModelDestruction@@QAE@XZ
        111   6E 000094A0 ??0ERebirth@@QAE@ABV0@@Z
        112   6F 00099200 ??0ERebirth@@QAE@XZ
        113   70 00023B30 ??0EReceiveScore@@QAE@ABV0@@Z
        114   71 0007A740 ??0EReceiveScore@@QAE@XZ
        115   72 0000E660 ??0EReconsiderBehavior@@QAE@ABV0@@Z
        116   73 0005F3A0 ??0EReconsiderBehavior@@QAE@XZ
        117   74 00039660 ??0ERegenerationImpuls@@QAE@ABV0@@Z
        118   75 00043C70 ??0ERegenerationImpuls@@QAE@XZ
        119   76 00010960 ??0EReleaseWeapon@@QAE@ABV0@@Z
        120   77 000B54B0 ??0EReleaseWeapon@@QAE@XZ
        121   78 00010A60 ??0EReloadWeapon@@QAE@ABV0@@Z
        122   79 000B54F0 ??0EReloadWeapon@@QAE@XZ
        123   7A 00023930 ??0EReminder@@QAE@ABV0@@Z
        124   7B 0007A5E0 ??0EReminder@@QAE@XZ
        125   7C 00001000 ??0EReminderInit@@QAE@ABV0@@Z
        126   7D 000D38E0 ??0EReminderInit@@QAE@XZ
        127   7E 0000E560 ??0ERestartAttack@@QAE@ABV0@@Z
        128   7F 0005F360 ??0ERestartAttack@@QAE@XZ
        129   80 00023C10 ??0ESecretFound@@QAE@ABV0@@Z
        130   81 0007A7D0 ??0ESecretFound@@QAE@XZ
        131   82 00010640 ??0ESelectWeapon@@QAE@ABV0@@Z
        132   83 000B53E0 ??0ESelectWeapon@@QAE@XZ
        133   84 00023CD0 ??0ESound@@QAE@ABV0@@Z
        134   85 0007A820 ??0ESound@@QAE@XZ
        135   86 00001D40 ??0ESpawnDebris@@QAE@ABV0@@Z
        136   87 0003FF90 ??0ESpawnDebris@@QAE@XZ
        137   88 00001B30 ??0ESpawnEffect@@QAE@ABV0@@Z
        138   89 0002A630 ??0ESpawnEffect@@QAE@XZ
        139   8A 00040C70 ??0ESpawnEffector@@QAE@ABV0@@Z
        140   8B 00057590 ??0ESpawnEffector@@QAE@XZ
        141   8C 00001710 ??0ESpawnSpray@@QAE@ABV0@@Z
        142   8D 000312E0 ??0ESpawnSpray@@QAE@XZ
        143   8E 000234D0 ??0EStart@@QAE@ABV0@@Z
        144   8F 0007A300 ??0EStart@@QAE@XZ
        145   90 000239B0 ??0EStartAttack@@QAE@ABV0@@Z
        146   91 0007A630 ??0EStartAttack@@QAE@XZ
        147   92 00023470 ??0EStop@@QAE@ABV0@@Z
        148   93 0007A2B0 ??0EStop@@QAE@XZ
        149   94 00023A10 ??0EStopAttack@@QAE@ABV0@@Z
        150   95 0007A670 ??0EStopAttack@@QAE@XZ
        151   96 00023A70 ??0EStopBlindness@@QAE@ABV0@@Z
        152   97 0007A6B0 ??0EStopBlindness@@QAE@XZ
        153   98 00023AD0 ??0EStopDeafness@@QAE@ABV0@@Z
        154   99 0007A6F0 ??0EStopDeafness@@QAE@XZ
        155   9A 000238D0 ??0ETeleportMovingBrush@@QAE@ABV0@@Z
        156   9B 0007A590 ??0ETeleportMovingBrush@@QAE@XZ
        157   9C 000237C0 ??0ETrigger@@QAE@ABV0@@Z
        158   9D 0007A4F0 ??0ETrigger@@QAE@XZ
        159   9E 000E04B0 ??0ETwister@@QAE@ABV0@@Z
        160   9F 000E0C40 ??0ETwister@@QAE@XZ
        161   A0 00096A30 ??0EViewInit@@QAE@ABV0@@Z
        162   A1 000B2F20 ??0EViewInit@@QAE@XZ
        163   A2 00024080 ??0EVoiceMessage@@QAE@ABV0@@Z
        164   A3 0007AB30 ??0EVoiceMessage@@QAE@XZ
        165   A4 0000DD10 ??0EWatch@@QAE@ABV0@@Z
        166   A5 000E4AA0 ??0EWatch@@QAE@XZ
        167   A6 0000DAE0 ??0EWatcherInit@@QAE@ABV0@@Z
        168   A7 000E49F0 ??0EWatcherInit@@QAE@XZ
        169   A8 000E68E0 ??0EWater@@QAE@ABV0@@Z
        170   A9 000E6F40 ??0EWater@@QAE@XZ
        171   AA 0000BDA0 ??0EWeaponEffectInit@@QAE@ABV0@@Z
        172   AB 000C4910 ??0EWeaponEffectInit@@QAE@XZ
        173   AC 0000D6F0 ??0EWeaponItem@@QAE@ABV0@@Z
        174   AD 000E80C0 ??0EWeaponItem@@QAE@XZ
        175   AE 00010410 ??0EWeaponsInit@@QAE@ABV0@@Z
        176   AF 000B5330 ??0EWeaponsInit@@QAE@XZ
        177   B0 00024210 ??0PlayerStats@@QAE@XZ
        178   B1 0000CF70 ??1CBullet@@UAE@XZ
        179   B2 000102D0 ??1CCannonBall@@UAE@XZ
        180   B3 00015270 ??1CCompMessageID@@QAE@XZ
        181   B4 0000F5F0 ??1CEnemyBase@@UAE@XZ
        182   B5 00069640 ??1CEnemyDive@@UAE@XZ
        183   B6 0006A7C0 ??1CEnemyFly@@UAE@XZ
        184   B7 0006CE80 ??1CEnemyRunInto@@UAE@XZ
        185   B8 0000D590 ??1CItem@@UAE@XZ
        186   B9 000942E0 ??1CNavigationMarker@@UAE@XZ
        187   BA 00022E80 ??1CPathNode@@QAE@XZ
        188   BB 0000B810 ??1CPlayer@@UAE@XZ
        189   BC 000968C0 ??1CPlayerAnimator@@UAE@XZ
        190   BD 000976B0 ??1CPlayerView@@UAE@XZ
        191   BE 00011610 ??1CPlayerWeapons@@UAE@XZ
        192   BF 0000C8E0 ??1CProjectile@@UAE@XZ
        193   C0 00001410 ??1CReminder@@UAE@XZ
        194   C1 0000E1B0 ??1CWatcher@@UAE@XZ
        195   C2 000081E0 ??1EActivate@@UAE@XZ
        196   C3 0000D890 ??1EAmmoItem@@UAE@XZ
        197   C4 0000DA00 ??1EAmmoPackItem@@UAE@XZ
        198   C5 000961B0 ??1EAnimatorInit@@UAE@XZ
        199   C6 00028260 ??1EArmor@@UAE@XZ
        200   C7 00009710 ??1EAutoAction@@UAE@XZ
        201   C8 000107A0 ??1EBoringWeapon@@UAE@XZ
        202   C9 00029980 ??1EBrushDestroyed@@UAE@XZ
        203   CA 00039580 ??1EBrushDestroyedByDevil@@UAE@XZ
        204   CB 0000CB20 ??1EBulletInit@@UAE@XZ
        205   CC 000090B0 ??1ECameraStart@@UAE@XZ
        206   CD 000092E0 ??1ECameraStop@@UAE@XZ
        207   CE 00008CE0 ??1ECenterMessage@@UAE@XZ
        208   CF 00001600 ??1EChangeAnim@@UAE@XZ
        209   D0 0007B300 ??1EChangeGravity@@UAE@XZ
        210   D1 0000E3F0 ??1EChangeMusic@@UAE@XZ
        211   D2 00008DF0 ??1EComputerMessage@@UAE@XZ
        212   D3 00008280 ??1EDeactivate@@UAE@XZ
        213   D4 00039840 ??1EDevilCommand@@UAE@XZ
        214   D5 00052D40 ??1EDevilProjectile@@UAE@XZ
        215   D6 000095E0 ??1EDisconnected@@UAE@XZ
        216   D7 00008490 ??1EEnd@@UAE@XZ
        217   D8 00008320 ??1EEnvironmentStart@@UAE@XZ
        218   D9 000083C0 ??1EEnvironmentStop@@UAE@XZ
        219   DA 000108A0 ??1EFireWeapon@@UAE@XZ
        220   DB 0000FAB0 ??1EForceExplode@@UAE@XZ
        221   DC 00042A80 ??1EForcePathMarker@@UAE@XZ
        222   DD 0000E7A0 ??1EForceWound@@UAE@XZ
        223   DE 000D7DA0 ??1EHarbor@@UAE@XZ
        224   DF 000803C0 ??1EHealth@@UAE@XZ
        225   E0 00029880 ??1EHit@@UAE@XZ
        226   E1 00008FB0 ??1EHitBySpaceShipBeam@@UAE@XZ
        227   E2 00054170 ??1EKey@@UAE@XZ
        228   E3 00008AB0 ??1EKilledEnemy@@UAE@XZ
        229   E4 0000F8B0 ??1ELaunchCannonBall@@UAE@XZ
        230   E5 0000C0A0 ??1ELaunchProjectile@@UAE@XZ
        231   E6 00087160 ??1EMessageItem@@UAE@XZ
        232   E7 00001A20 ??1ERangeModelDestruction@@UAE@XZ
        233   E8 000094E0 ??1ERebirth@@UAE@XZ
        234   E9 00008A10 ??1EReceiveScore@@UAE@XZ
        235   EA 0000E6A0 ??1EReconsiderBehavior@@UAE@XZ
        236   EB 000396A0 ??1ERegenerationImpuls@@UAE@XZ
        237   EC 000109A0 ??1EReleaseWeapon@@UAE@XZ
        238   ED 00010AA0 ??1EReloadWeapon@@UAE@XZ
        239   EE 000086F0 ??1EReminder@@UAE@XZ
        240   EF 00001090 ??1EReminderInit@@UAE@XZ
        241   F0 0000E5A0 ??1ERestartAttack@@UAE@XZ
        242   F1 00008B50 ??1ESecretFound@@UAE@XZ
        243   F2 00010690 ??1ESelectWeapon@@UAE@XZ
        244   F3 00008BC0 ??1ESound@@UAE@XZ
        245   F4 00001E10 ??1ESpawnDebris@@UAE@XZ
        246   F5 00001C20 ??1ESpawnEffect@@UAE@XZ
        247   F6 00040DB0 ??1ESpawnEffector@@UAE@XZ
        248   F7 000017E0 ??1ESpawnSpray@@UAE@XZ
        249   F8 000080C0 ??1EStart@@UAE@XZ
        250   F9 00008760 ??1EStartAttack@@UAE@XZ
        251   FA 00008020 ??1EStop@@UAE@XZ
        252   FB 00008800 ??1EStopAttack@@UAE@XZ
        253   FC 000088A0 ??1EStopBlindness@@UAE@XZ
        254   FD 00008940 ??1EStopDeafness@@UAE@XZ
        255   FE 00008620 ??1ETeleportMovingBrush@@UAE@XZ
        256   FF 00008500 ??1ETrigger@@UAE@XZ
        257  100 000E0540 ??1ETwister@@UAE@XZ
        258  101 00096B00 ??1EViewInit@@UAE@XZ
        259  102 00008ED0 ??1EVoiceMessage@@UAE@XZ
        260  103 0000DD80 ??1EWatch@@UAE@XZ
        261  104 0000DB50 ??1EWatcherInit@@UAE@XZ
        262  105 000E6970 ??1EWater@@UAE@XZ
        263  106 0000BE30 ??1EWeaponEffectInit@@UAE@XZ
        264  107 0000D760 ??1EWeaponItem@@UAE@XZ
        265  108 00010480 ??1EWeaponsInit@@UAE@XZ
        266  109 0000CE90 ??4CBullet@@QAEAAV0@AAV0@@Z
        267  10A 0000FF80 ??4CCannonBall@@QAEAAV0@AAV0@@Z
        268  10B 000242A0 ??4CCompMessageID@@QAEAAV0@ABV0@@Z
        269  10C 0000EEE0 ??4CEnemyBase@@QAEAAV0@AAV0@@Z
        270  10D 00069570 ??4CEnemyDive@@QAEAAV0@AAV0@@Z
        271  10E 0006A690 ??4CEnemyFly@@QAEAAV0@AAV0@@Z
        272  10F 0006CE00 ??4CEnemyRunInto@@QAEAAV0@AAV0@@Z
        273  110 0000D360 ??4CItem@@QAEAAV0@AAV0@@Z
        274  111 00022B90 ??4CNavigationMarker@@QAEAAV0@AAV0@@Z
        275  112 00022980 ??4CPathNode@@QAEAAV0@ABV0@@Z
        276  113 0000AAA0 ??4CPlayer@@QAEAAV0@AAV0@@Z
        277  114 00096630 ??4CPlayerAnimator@@QAEAAV0@AAV0@@Z
        278  115 00097210 ??4CPlayerView@@QAEAAV0@AAV0@@Z
        279  116 00011150 ??4CPlayerWeapons@@QAEAAV0@AAV0@@Z
        280  117 0000C640 ??4CProjectile@@QAEAAV0@AAV0@@Z
        281  118 00001320 ??4CReminder@@QAEAAV0@AAV0@@Z
        282  119 0000E090 ??4CWatcher@@QAEAAV0@AAV0@@Z
        283  11A 00023600 ??4EActivate@@QAEAAV0@ABV0@@Z
        284  11B 0000D870 ??4EAmmoItem@@QAEAAV0@ABV0@@Z
        285  11C 0000D9C0 ??4EAmmoPackItem@@QAEAAV0@ABV0@@Z
        286  11D 00096170 ??4EAnimatorInit@@QAEAAV0@ABV0@@Z
        287  11E 00028240 ??4EArmor@@QAEAAV0@ABV0@@Z
        288  11F 000096D0 ??4EAutoAction@@QAEAAV0@ABV0@@Z
        289  120 00010780 ??4EBoringWeapon@@QAEAAV0@ABV0@@Z
        290  121 00029960 ??4EBrushDestroyed@@QAEAAV0@ABV0@@Z
        291  122 00039550 ??4EBrushDestroyedByDevil@@QAEAAV0@ABV0@@Z
        292  123 0000CAD0 ??4EBulletInit@@QAEAAV0@ABV0@@Z
        293  124 00009070 ??4ECameraStart@@QAEAAV0@ABV0@@Z
        294  125 000092A0 ??4ECameraStop@@QAEAAV0@ABV0@@Z
        295  126 00023E70 ??4ECenterMessage@@QAEAAV0@ABV0@@Z
        296  127 000015B0 ??4EChangeAnim@@QAEAAV0@ABV0@@Z
        297  128 0007B2C0 ??4EChangeGravity@@QAEAAV0@ABV0@@Z
        298  129 0000E3A0 ??4EChangeMusic@@QAEAAV0@ABV0@@Z
        299  12A 00023FC0 ??4EComputerMessage@@QAEAAV0@ABV0@@Z
        300  12B 00023660 ??4EDeactivate@@QAEAAV0@ABV0@@Z
        301  12C 000397D0 ??4EDevilCommand@@QAEAAV0@ABV0@@Z
        302  12D 00052CD0 ??4EDevilProjectile@@QAEAAV0@ABV0@@Z
        303  12E 000095C0 ??4EDisconnected@@QAEAAV0@ABV0@@Z
        304  12F 00023780 ??4EEnd@@QAEAAV0@ABV0@@Z
        305  130 000236C0 ??4EEnvironmentStart@@QAEAAV0@ABV0@@Z
        306  131 00023720 ??4EEnvironmentStop@@QAEAAV0@ABV0@@Z
        307  132 00010880 ??4EFireWeapon@@QAEAAV0@ABV0@@Z
        308  133 0000FA90 ??4EForceExplode@@QAEAAV0@ABV0@@Z
        309  134 00042A40 ??4EForcePathMarker@@QAEAAV0@ABV0@@Z
        310  135 0000E780 ??4EForceWound@@QAEAAV0@ABV0@@Z
        311  136 000D7D80 ??4EHarbor@@QAEAAV0@ABV0@@Z
        312  137 000803A0 ??4EHealth@@QAEAAV0@ABV0@@Z
        313  138 00029860 ??4EHit@@QAEAAV0@ABV0@@Z
        314  139 000241D0 ??4EHitBySpaceShipBeam@@QAEAAV0@ABV0@@Z
        315  13A 00054150 ??4EKey@@QAEAAV0@ABV0@@Z
        316  13B 00023BD0 ??4EKilledEnemy@@QAEAAV0@ABV0@@Z
        317  13C 0000F860 ??4ELaunchCannonBall@@QAEAAV0@ABV0@@Z
        318  13D 0000C050 ??4ELaunchProjectile@@QAEAAV0@ABV0@@Z
        319  13E 00087120 ??4EMessageItem@@QAEAAV0@ABV0@@Z
        320  13F 00001A00 ??4ERangeModelDestruction@@QAEAAV0@ABV0@@Z
        321  140 000094C0 ??4ERebirth@@QAEAAV0@ABV0@@Z
        322  141 00023B60 ??4EReceiveScore@@QAEAAV0@ABV0@@Z
        323  142 0000E680 ??4EReconsiderBehavior@@QAEAAV0@ABV0@@Z
        324  143 00039680 ??4ERegenerationImpuls@@QAEAAV0@ABV0@@Z
        325  144 00010980 ??4EReleaseWeapon@@QAEAAV0@ABV0@@Z
        326  145 00010A80 ??4EReloadWeapon@@QAEAAV0@ABV0@@Z
        327  146 00023960 ??4EReminder@@QAEAAV0@ABV0@@Z
        328  147 00001040 ??4EReminderInit@@QAEAAV0@ABV0@@Z
        329  148 0000E580 ??4ERestartAttack@@QAEAAV0@ABV0@@Z
        330  149 00023C30 ??4ESecretFound@@QAEAAV0@ABV0@@Z
        331  14A 00010670 ??4ESelectWeapon@@QAEAAV0@ABV0@@Z
        332  14B 00023D10 ??4ESound@@QAEAAV0@ABV0@@Z
        333  14C 00001DB0 ??4ESpawnDebris@@QAEAAV0@ABV0@@Z
        334  14D 00001BB0 ??4ESpawnEffect@@QAEAAV0@ABV0@@Z
        335  14E 00040D00 ??4ESpawnEffector@@QAEAAV0@ABV0@@Z
        336  14F 00001770 ??4ESpawnSpray@@QAEAAV0@ABV0@@Z
        337  150 00023500 ??4EStart@@QAEAAV0@ABV0@@Z
        338  151 000239D0 ??4EStartAttack@@QAEAAV0@ABV0@@Z
        339  152 00023490 ??4EStop@@QAEAAV0@ABV0@@Z
        340  153 00023A30 ??4EStopAttack@@QAEAAV0@ABV0@@Z
        341  154 00023A90 ??4EStopBlindness@@QAEAAV0@ABV0@@Z
        342  155 00023AF0 ??4EStopDeafness@@QAEAAV0@ABV0@@Z
        343  156 000238F0 ??4ETeleportMovingBrush@@QAEAAV0@ABV0@@Z
        344  157 000237F0 ??4ETrigger@@QAEAAV0@ABV0@@Z
        345  158 000E04F0 ??4ETwister@@QAEAAV0@ABV0@@Z
        346  159 00096A80 ??4EViewInit@@QAEAAV0@ABV0@@Z
        347  15A 000240F0 ??4EVoiceMessage@@QAEAAV0@ABV0@@Z
        348  15B 0000DD40 ??4EWatch@@QAEAAV0@ABV0@@Z
        349  15C 0000DB10 ??4EWatcherInit@@QAEAAV0@ABV0@@Z
        350  15D 000E6920 ??4EWater@@QAEAAV0@ABV0@@Z
        351  15E 0000BDE0 ??4EWeaponEffectInit@@QAEAAV0@ABV0@@Z
        352  15F 0000D730 ??4EWeaponItem@@QAEAAV0@ABV0@@Z
        353  160 00010440 ??4EWeaponsInit@@QAEAAV0@ABV0@@Z
        354  161 00024230 ??4PlayerStats@@QAEAAU0@ABU0@@Z
        355  162 00107C9C ??_7CBullet@@6B@
        356  163 00108190 ??_7CCannonBall@@6B@
        357  164 00107FE8 ??_7CEnemyBase@@6B@
        358  165 0010AA78 ??_7CEnemyDive@@6B@
        359  166 0010AC18 ??_7CEnemyFly@@6B@
        360  167 0010AEB8 ??_7CEnemyRunInto@@6B@
        361  168 00107D90 ??_7CItem@@6B@
        362  169 001086A4 ??_7CNavigationMarker@@6B@
        363  16A 00107A60 ??_7CPlayer@@6B@
        364  16B 0010D258 ??_7CPlayerAnimator@@6B@
        365  16C 0010D364 ??_7CPlayerView@@6B@
        366  16D 001082C8 ??_7CPlayerWeapons@@6B@
        367  16E 00107B8C ??_7CProjectile@@6B@
        368  16F 001078E4 ??_7CReminder@@6B@
        369  170 00107EC4 ??_7CWatcher@@6B@
        370  171 001087AC ??_7EActivate@@6B@
        371  172 00107EA4 ??_7EAmmoItem@@6B@
        372  173 00107EAC ??_7EAmmoPackItem@@6B@
        373  174 0010D250 ??_7EAnimatorInit@@6B@
        374  175 00108C80 ??_7EArmor@@6B@
        375  176 00107A58 ??_7EAutoAction@@6B@
        376  177 001082A8 ??_7EBoringWeapon@@6B@
        377  178 00108E90 ??_7EBrushDestroyed@@6B@
        378  179 001099AC ??_7EBrushDestroyedByDevil@@6B@
        379  17A 00107C94 ??_7EBulletInit@@6B@
        380  17B 00107A38 ??_7ECameraStart@@6B@
        381  17C 00107A40 ??_7ECameraStop@@6B@
        382  17D 0010882C ??_7ECenterMessage@@6B@
        383  17E 001079E8 ??_7EChangeAnim@@6B@
        384  17F 0010BD34 ??_7EChangeGravity@@6B@
        385  180 00107FC8 ??_7EChangeMusic@@6B@
        386  181 00108834 ??_7EComputerMessage@@6B@
        387  182 001087B4 ??_7EDeactivate@@6B@
        388  183 001099BC ??_7EDevilCommand@@6B@
        389  184 0010A384 ??_7EDevilProjectile@@6B@
        390  185 00107A50 ??_7EDisconnected@@6B@
        391  186 001087CC ??_7EEnd@@6B@
        392  187 001087BC ??_7EEnvironmentStart@@6B@
        393  188 001087C4 ??_7EEnvironmentStop@@6B@
        394  189 001082B0 ??_7EFireWeapon@@6B@
        395  18A 00108188 ??_7EForceExplode@@6B@
        396  18B 0010A0AC ??_7EForcePathMarker@@6B@
        397  18C 00107FE0 ??_7EForceWound@@6B@
        398  18D 0010DD18 ??_7EHarbor@@6B@
        399  18E 0010C1C4 ??_7EHealth@@6B@
        400  18F 00108E88 ??_7EHit@@6B@
        401  190 00108844 ??_7EHitBySpaceShipBeam@@6B@
        402  191 0010A4A0 ??_7EKey@@6B@
        403  192 00108814 ??_7EKilledEnemy@@6B@
        404  193 00108180 ??_7ELaunchCannonBall@@6B@
        405  194 00107B84 ??_7ELaunchProjectile@@6B@
        406  195 0010C6E8 ??_7EMessageItem@@6B@
        407  196 001079F8 ??_7ERangeModelDestruction@@6B@
        408  197 00107A48 ??_7ERebirth@@6B@
        409  198 0010880C ??_7EReceiveScore@@6B@
        410  199 00107FD8 ??_7EReconsiderBehavior@@6B@
        411  19A 001099B4 ??_7ERegenerationImpuls@@6B@
        412  19B 001082B8 ??_7EReleaseWeapon@@6B@
        413  19C 001082C0 ??_7EReloadWeapon@@6B@
        414  19D 001087E4 ??_7EReminder@@6B@
        415  19E 001078DC ??_7EReminderInit@@6B@
        416  19F 00107FD0 ??_7ERestartAttack@@6B@
        417  1A0 0010881C ??_7ESecretFound@@6B@
        418  1A1 001082A0 ??_7ESelectWeapon@@6B@
        419  1A2 00108824 ??_7ESound@@6B@
        420  1A3 00107A08 ??_7ESpawnDebris@@6B@
        421  1A4 00107A00 ??_7ESpawnEffect@@6B@
        422  1A5 00109F88 ??_7ESpawnEffector@@6B@
        423  1A6 001079F0 ??_7ESpawnSpray@@6B@
        424  1A7 001087A4 ??_7EStart@@6B@
        425  1A8 001087EC ??_7EStartAttack@@6B@
        426  1A9 0010879C ??_7EStop@@6B@
        427  1AA 001087F4 ??_7EStopAttack@@6B@
        428  1AB 001087FC ??_7EStopBlindness@@6B@
        429  1AC 00108804 ??_7EStopDeafness@@6B@
        430  1AD 001087DC ??_7ETeleportMovingBrush@@6B@
        431  1AE 001087D4 ??_7ETrigger@@6B@
        432  1AF 0010E538 ??_7ETwister@@6B@
        433  1B0 0010D35C ??_7EViewInit@@6B@
        434  1B1 0010883C ??_7EVoiceMessage@@6B@
        435  1B2 00107EBC ??_7EWatch@@6B@
        436  1B3 00107EB4 ??_7EWatcherInit@@6B@
        437  1B4 0010E9F8 ??_7EWater@@6B@
        438  1B5 00107B7C ??_7EWeaponEffectInit@@6B@
        439  1B6 00107E9C ??_7EWeaponItem@@6B@
        440  1B7 00108298 ??_7EWeaponsInit@@6B@
        441  1B8 00067DF0 ?Active@CEnemyBase@@QAEHABVCEntityEvent@@@Z
        442  1B9 000E5380 ?Active@CWatcher@@QAEHABVCEntityEvent@@@Z
        443  1BA 000A3960 ?ActiveActions@CPlayer@@QAEXABVCPlayerAction@@@Z
        444  1BB 000AFCE0 ?AddAttachmentModel@CPlayerAnimator@@QAEXPAVCModelObject@@JKKKKK@Z
        445  1BC 000028D0 ?AddAttachmentToModel@@YAXPAVCEntity@@AAVCModelObject@@JKKKKK@Z
        446  1BD 0009B910 ?AddBouble@CPlayer@@QAEXV?$Vector@M$02@@0@Z
        447  1BE 000BAA60 ?AddDefaultAmmoForWeapon@CPlayerWeapons@@QAEXJM@Z
        448  1BF 00060BD0 ?AddDependentsToPrediction@CEnemyBase@@UAEXXZ
        449  1C0 0009C450 ?AddDependentsToPrediction@CPlayer@@UAEXXZ
        450  1C1 000B30B0 ?AddDependentsToPrediction@CPlayerView@@UAEXXZ
        451  1C2 000B6DB0 ?AddDependentsToPrediction@CPlayerWeapons@@UAEXXZ
        452  1C3 00081E30 ?AddFlare@CItem@@QAEXKKABV?$Vector@M$02@@0@Z
        453  1C4 00081D50 ?AddItem@CItem@@QAEXKKKKK@Z
        454  1C5 00081DB0 ?AddItemAttachment@CItem@@QAEXJKKKKK@Z
        455  1C6 00081D80 ?AddItemSpecial@CItem@@QAEXJKKKKK@Z
        456  1C7 000BA980 ?AddManaToPlayer@CPlayerWeapons@@QAEXJ@Z
        457  1C8 00061810 ?AddToFuss@CEnemyBase@@QAEXXZ
        458  1C9 000AFD20 ?AddWeaponAttachment@CPlayerAnimator@@QAEXJKKKKK@Z
        459  1CA 00063C40 ?AdjustDifficulty@CEnemyBase@@UAEXXZ
        460  1CB 00069DC0 ?AdjustDifficulty@CEnemyDive@@UAEXXZ
        461  1CC 0006B1E0 ?AdjustDifficulty@CEnemyFly@@UAEXXZ
        462  1CD 0006D3A0 ?AdjustDifficulty@CEnemyRunInto@@UAEXXZ
        463  1CE 00081AA0 ?AdjustDifficulty@CItem@@UAEXXZ
        464  1CF 00081AB0 ?AdjustMipFactor@CItem@@UAEXAAM@Z
        465  1D0 0003A430 ?AdjustShadingParameters@CCannonBall@@UAEHAAV?$Vector@M$02@@AAK1@Z
        466  1D1 00061610 ?AdjustShadingParameters@CEnemyBase@@UAEHAAV?$Vector@M$02@@AAK1@Z
        467  1D2 00081BF0 ?AdjustShadingParameters@CItem@@UAEHAAV?$Vector@M$02@@AAK1@Z
        468  1D3 0009F5E0 ?AdjustShadingParameters@CPlayer@@UAEHAAV?$Vector@M$02@@AAK1@Z
        469  1D4 000C69F0 ?AdjustShadingParameters@CProjectile@@UAEHAAV?$Vector@M$02@@AAK1@Z
        470  1D5 0006B890 ?AirToGround@CEnemyFly@@QAEHABVCEntityEvent@@@Z
        471  1D6 0006B530 ?AirToGroundAnim@CEnemyFly@@UAEMXZ
        472  1D7 000A3330 ?AliveActions@CPlayer@@QAEXABVCPlayerAction@@@Z
        473  1D8 00150C50 ?AmmoItemType_enum@@3VCEntityPropertyEnumType@@A
        474  1D9 00150C00 ?AmmoItemType_values@@3PAVCEntityPropertyEnumValue@@A
        475  1DA 00151540 ?AmmoPackType_enum@@3VCEntityPropertyEnumType@@A
        476  1DB 00151530 ?AmmoPackType_values@@3PAVCEntityPropertyEnumValue@@A
        477  1DC 00063F20 ?AnimForDamage@CEnemyBase@@UAEJM@Z
        478  1DD 00063F40 ?AnimForDeath@CEnemyBase@@UAEJXZ
        479  1DE 000B0760 ?AnimateBanking@CPlayerAnimator@@QAEXXZ
        480  1DF 000B0F60 ?AnimatePlayer@CPlayerAnimator@@QAEXXZ
        481  1E0 000B0940 ?AnimateSoftEyes@CPlayerAnimator@@QAEXXZ
        482  1E1 000A2A90 ?ApplyAction@CPlayer@@UAEXABVCPlayerAction@@M@Z
        483  1E2 0009FA80 ?ApplyShaking@CPlayer@@QAEXAAVCPlacement3D@@@Z
        484  1E3 00151E10 ?ArmorItemType_enum@@3VCEntityPropertyEnumType@@A
        485  1E4 00151DE8 ?ArmorItemType_values@@3PAVCEntityPropertyEnumValue@@A
        486  1E5 00065920 ?AttackEnemy@CEnemyBase@@QAEHABVCEntityEvent@@@Z
        487  1E6 0006BEB0 ?AttackEnemy@CEnemyFly@@QAEHABVCEntityEvent@@@Z
        488  1E7 000A3430 ?AutoActions@CPlayer@@QAEXABVCPlayerAction@@@Z
        489  1E8 000A9960 ?AutoAppear@CPlayer@@QAEHABVCEntityEvent@@@Z
        490  1E9 000A9300 ?AutoFallDown@CPlayer@@QAEHABVCEntityEvent@@@Z
        491  1EA 000A9480 ?AutoFallToAbys@CPlayer@@QAEHABVCEntityEvent@@@Z
        492  1EB 000A85A0 ?AutoGoToMarker@CPlayer@@QAEHABVCEntityEvent@@@Z
        493  1EC 000A8870 ?AutoGoToMarkerAndStop@CPlayer@@QAEHABVCEntityEvent@@@Z
        494  1ED 000A9600 ?AutoLookAround@CPlayer@@QAEHABVCEntityEvent@@@Z
        495  1EE 000A8FB0 ?AutoPickItem@CPlayer@@QAEHABVCEntityEvent@@@Z
        496  1EF 000AA570 ?AutoStoreWeapon@CPlayer@@QAEHABVCEntityEvent@@@Z
        497  1F0 000A9900 ?AutoTeleport@CPlayer@@QAEHABVCEntityEvent@@@Z
        498  1F1 000A8B70 ?AutoUseItem@CPlayer@@QAEHABVCEntityEvent@@@Z
        499  1F2 0003A960 ?BallTouchExplode@CCannonBall@@QAEHVCEntityPointer@@@Z
        500  1F3 001524C0 ?BasicEffectType_enum@@3VCEntityPropertyEnumType@@A
        501  1F4 001523B8 ?BasicEffectType_values@@3PAVCEntityPropertyEnumValue@@A
        502  1F5 000649B0 ?BeIdle@CEnemyBase@@QAEHABVCEntityEvent@@@Z
        503  1F6 00067290 ?BeWounded@CEnemyBase@@QAEHABVCEntityEvent@@@Z
        504  1F7 0006B5D0 ?BeWounded@CEnemyFly@@QAEHABVCEntityEvent@@@Z
        505  1F8 000C9B70 ?BeastBigDebris@CProjectile@@QAEXXZ
        506  1F9 000C9E60 ?BeastBigDebrisExplosion@CProjectile@@QAEXXZ
        507  1FA 000C9890 ?BeastBigProjectile@CProjectile@@QAEXXZ
        508  1FB 000CA400 ?BeastBigProjectileExplosion@CProjectile@@QAEXXZ
        509  1FC 000C9A30 ?BeastDebris@CProjectile@@QAEXXZ
        510  1FD 000C9CB0 ?BeastDebrisExplosion@CProjectile@@QAEXXZ
        511  1FE 000C96F0 ?BeastProjectile@CProjectile@@QAEXXZ
        512  1FF 000CA010 ?BeastProjectileExplosion@CProjectile@@QAEXXZ
        513  200 00153150 ?BeastType_enum@@3VCEntityPropertyEnumType@@A
        514  201 00153140 ?BeastType_values@@3PAVCEntityPropertyEnumValue@@A
        515  202 00153A68 ?BlendControllerType_enum@@3VCEntityPropertyEnumType@@A
        516  203 00153A30 ?BlendControllerType_values@@3PAVCEntityPropertyEnumValue@@A
        517  204 001612F8 ?BlockAction_enum@@3VCEntityPropertyEnumType@@A
        518  205 001612E0 ?BlockAction_values@@3PAVCEntityPropertyEnumValue@@A
        519  206 000633C0 ?BlowUp@CEnemyBase@@UAEXXZ
        520  207 000A1F20 ?BlowUp@CPlayer@@QAEXXZ
        521  208 000633B0 ?BlowUpBase@CEnemyBase@@QAEXXZ
        522  209 00063F30 ?BlowUpNotify@CEnemyBase@@UAEXXZ
        523  20A 000B0E30 ?BodyAndHeadOrientation@CPlayerAnimator@@QAEXAAVCPlacement3D@@@Z
        524  20B 000B18B0 ?BodyAnimationTemplate@CPlayerAnimator@@QAEXJJJJK@Z
        525  20C 000B1C20 ?BodyPickItemAnimation@CPlayerAnimator@@QAEXXZ
        526  20D 000B1B20 ?BodyPullAnimation@CPlayerAnimator@@QAEXXZ
        527  20E 000B1BB0 ?BodyPullItemAnimation@CPlayerAnimator@@QAEXXZ
        528  20F 000B1990 ?BodyPushAnimation@CPlayerAnimator@@QAEXXZ
        529  210 000B1C90 ?BodyRemoveItem@CPlayerAnimator@@QAEXXZ
        530  211 000B1980 ?BodyStillAnimation@CPlayerAnimator@@QAEXXZ
        531  212 000B1970 ?BodyWalkAnimation@CPlayerAnimator@@QAEXXZ
        532  213 000C85A0 ?BonemanProjectile@CProjectile@@QAEXXZ
        533  214 0015D5A0 ?BoolEType_enum@@3VCEntityPropertyEnumType@@A
        534  215 0015D588 ?BoolEType_values@@3PAVCEntityPropertyEnumValue@@A
        535  216 000C3D40 ?BoringWeaponAnimation@CPlayerWeapons@@QAEHABVCEntityEvent@@@Z
        536  217 0003AC70 ?Bounce@CCannonBall@@QAEHABVCEntityEvent@@@Z
        537  218 0003ABD0 ?BounceSound@CCannonBall@@QAEXM@Z
        538  219 000CBC40 ?BounceSound@CProjectile@@QAEXXZ
        539  21A 000BD570 ?BringUp@CPlayerWeapons@@QAEHABVCEntityEvent@@@Z
        540  21B 0016E5D0 ?BullChar_enum@@3VCEntityPropertyEnumType@@A
        541  21C 0016E5C0 ?BullChar_values@@3PAVCEntityPropertyEnumValue@@A
        542  21D 00154400 ?BulletHitType_enum@@3VCEntityPropertyEnumType@@A
        543  21E 001543C0 ?BulletHitType_values@@3PAVCEntityPropertyEnumValue@@A
        544  21F 000A49F0 ?ButtonsActions@CPlayer@@QAEXAAVCPlayerAction@@@Z
        545  220 0005FC60 ?CalcDelta@CEnemyBase@@QAE?AV?$Vector@M$02@@PAVCEntity@@@Z
        546  221 0005FCC0 ?CalcDist@CEnemyBase@@QAEMPAVCEntity@@@Z
        547  222 00062230 ?CalcDistanceInPlaneToDestination@CEnemyBase@@QAEMXZ
        548  223 00034A60 ?CalcJitterTarget@CBullet@@QAEXM@Z
        549  224 00034B80 ?CalcJitterTargetFixed@CBullet@@QAEXMMM@Z
        550  225 0005FD70 ?CalcPlaneDelta@CEnemyBase@@QAE?AV?$Vector@M$02@@PAVCEntity@@@Z
        551  226 0005FE40 ?CalcPlaneDist@CEnemyBase@@QAEMPAVCEntity@@@Z
        552  227 000348D0 ?CalcTarget@CBullet@@QAEXM@Z
        553  228 00034950 ?CalcTarget@CBullet@@QAEXPAVCEntity@@M@Z
        554  229 000B9260 ?CalcWeaponPosition3rdPersonView@CPlayerWeapons@@QAEXV?$Vector@M$02@@AAVCPlacement3D@@H@Z
        555  22A 000B9480 ?CalcWeaponPosition@CPlayerWeapons@@QAEXV?$Vector@M$02@@AAVCPlacement3D@@H@Z
        556  22B 000604C0 ?CalculateAngularLaunchParams@CEnemyBase@@QAEXV?$Vector@M$02@@M00MAAM1@Z
        557  22C 0003A6A0 ?CalculateDamageToInflict@CCannonBall@@QAEMXZ
        558  22D 000607F0 ?CalculatePredictedPosition@CEnemyBase@@QAE?AV?$Vector@M$02@@V2@0M0M@Z
        559  22E 00062610 ?CanAttackEnemy@CEnemyBase@@QAEHPAVCEntity@@M@Z
        560  22F 00062650 ?CanHitEnemy@CEnemyBase@@UAEHPAVCEntity@@M@Z
        561  230 00069E70 ?CanHitEnemy@CEnemyDive@@UAEHPAVCEntity@@M@Z
        562  231 0006B2A0 ?CanHitEnemy@CEnemyFly@@UAEHPAVCEntity@@M@Z
        563  232 00154968 ?CannonBallType_enum@@3VCEntityPropertyEnumType@@A
        564  233 00154958 ?CannonBallType_values@@3PAVCEntityPropertyEnumValue@@A
        565  234 000BC5C0 ?CannonBoring@CPlayerWeapons@@QAEMXZ
        566  235 000C30F0 ?CannonFireStart@CPlayerWeapons@@QAEHABVCEntityEvent@@@Z
        567  236 000C7CC0 ?CatmanProjectile@CProjectile@@QAEXXZ
        568  237 0006B550 ?ChangeCollisionToAir@CEnemyFly@@UAEXXZ
        569  238 0006A1E0 ?ChangeCollisionToGround@CEnemyDive@@UAEXXZ
        570  239 0006B560 ?ChangeCollisionToGround@CEnemyFly@@UAEXXZ
        571  23A 0006A1D0 ?ChangeCollisionToLiquid@CEnemyDive@@UAEXXZ
        572  23B 000C3C70 ?ChangeKnifeStand@CPlayerWeapons@@QAEHABVCEntityEvent@@@Z
        573  23C 000A26A0 ?ChangePlayerView@CPlayer@@QAEXXZ
        574  23D 000C3CD0 ?ChangeToIronCannon@CPlayerWeapons@@QAEHABVCEntityEvent@@@Z
        575  23E 000B0C90 ?ChangeView@CPlayerAnimator@@QAEXAAVCPlacement3D@@@Z
        576  23F 000BCBF0 ?ChangeWeapon@CPlayerWeapons@@QAEHABVCEntityEvent@@@Z
        577  240 000A3030 ?CharacterChanged@CPlayer@@UAEXABVCPlayerCharacter@@@Z
        578  241 00063F10 ?ChargeAnim@CEnemyBase@@UAEXXZ
        579  242 00066DF0 ?ChargeHitEnemy@CEnemyBase@@QAEHABVCEntityEvent@@@Z
        580  243 0009F340 ?CheatAllMessages@CPlayer@@QAEXXZ
        581  244 0009F1B0 ?CheatAllMessagesDir@CPlayer@@QAEXABVCTString@@@Z
        582  245 000BA920 ?CheatGiveAll@CPlayerWeapons@@QAEXXZ
        583  246 000BA890 ?CheatOpen@CPlayerWeapons@@QAEXXZ
        584  247 000A4C30 ?Cheats@CPlayer@@QAEXXZ
        585  248 000A4BF0 ?CheatsEnabled@CPlayer@@QAEHXZ
        586  249 000E5200 ?CheckAnotherPlayer@CWatcher@@QAEPAVCEntity@@PAV2@@Z
        587  24A 000E5080 ?CheckCloserPlayer@CWatcher@@QAEPAVCEntity@@PAV2@M@Z
        588  24B 000A73F0 ?CheckDeathForRespawnInPlace@CPlayer@@QAEXVEDeath@@@Z
        589  24C 000625B0 ?CheckFallForPathFinding@CEnemyBase@@QAEHABVEWouldFall@@@Z
        590  24D 000A29E0 ?CheckGameEnd@CPlayer@@QAEXXZ
        591  24E 0009C070 ?CheckHighScore@CPlayer@@QAEXXZ
        592  24F 000E4DA0 ?CheckIfPlayerVisible@CWatcher@@QAEXXZ
        593  250 000B79F0 ?CheckTargetPrediction@CPlayerWeapons@@QAEXPAVCEntity@@@Z
        594  251 00062480 ?CheckTouchForPathFinding@CEnemyBase@@QAEHABVETouch@@@Z
        595  252 00060C00 ?ChecksumForSync@CEnemyBase@@UAEXAAKJ@Z
        596  253 000A0E60 ?ChecksumForSync@CPlayer@@UAEXAAKJ@Z
        597  254 000BA9C0 ?ClampAllAmmo@CPlayerWeapons@@QAEXXZ
        598  255 0016EDF0 ?ClasificationBits_enum@@3VCEntityPropertyEnumType@@A
        599  256 0016ED70 ?ClasificationBits_values@@3PAVCEntityPropertyEnumValue@@A
        600  257 00001F10 ?Clear@CCompMessageID@@QAEXXZ
        601  258 0009BA00 ?ClearShellLaunchData@CPlayer@@QAEXXZ
        602  259 00023620 ?ClearToDefault@@YAXAAVEActivate@@@Z
        603  25A 0000D930 ?ClearToDefault@@YAXAAVEAmmoItem@@@Z
        604  25B 0000DAA0 ?ClearToDefault@@YAXAAVEAmmoPackItem@@@Z
        605  25C 000962D0 ?ClearToDefault@@YAXAAVEAnimatorInit@@@Z
        606  25D 00028300 ?ClearToDefault@@YAXAAVEArmor@@@Z
        607  25E 00009830 ?ClearToDefault@@YAXAAVEAutoAction@@@Z
        608  25F 00010840 ?ClearToDefault@@YAXAAVEBoringWeapon@@@Z
        609  260 00029A20 ?ClearToDefault@@YAXAAVEBrushDestroyed@@@Z
        610  261 00039620 ?ClearToDefault@@YAXAAVEBrushDestroyedByDevil@@@Z
        611  262 0000CC40 ?ClearToDefault@@YAXAAVEBulletInit@@@Z
        612  263 000091D0 ?ClearToDefault@@YAXAAVECameraStart@@@Z
        613  264 00009400 ?ClearToDefault@@YAXAAVECameraStop@@@Z
        614  265 00023EC0 ?ClearToDefault@@YAXAAVECenterMessage@@@Z
        615  266 000016A0 ?ClearToDefault@@YAXAAVEChangeAnim@@@Z
        616  267 0007B420 ?ClearToDefault@@YAXAAVEChangeGravity@@@Z
        617  268 0000E4D0 ?ClearToDefault@@YAXAAVEChangeMusic@@@Z
        618  269 00024000 ?ClearToDefault@@YAXAAVEComputerMessage@@@Z
        619  26A 00023680 ?ClearToDefault@@YAXAAVEDeactivate@@@Z
        620  26B 00039960 ?ClearToDefault@@YAXAAVEDevilCommand@@@Z
        621  26C 00052E70 ?ClearToDefault@@YAXAAVEDevilProjectile@@@Z
        622  26D 00009680 ?ClearToDefault@@YAXAAVEDisconnected@@@Z
        623  26E 000237A0 ?ClearToDefault@@YAXAAVEEnd@@@Z
        624  26F 000236E0 ?ClearToDefault@@YAXAAVEEnvironmentStart@@@Z
        625  270 00023740 ?ClearToDefault@@YAXAAVEEnvironmentStop@@@Z
        626  271 00010940 ?ClearToDefault@@YAXAAVEFireWeapon@@@Z
        627  272 0000FB50 ?ClearToDefault@@YAXAAVEForceExplode@@@Z
        628  273 00042BA0 ?ClearToDefault@@YAXAAVEForcePathMarker@@@Z
        629  274 0000E840 ?ClearToDefault@@YAXAAVEForceWound@@@Z
        630  275 000D7E40 ?ClearToDefault@@YAXAAVEHarbor@@@Z
        631  276 00080460 ?ClearToDefault@@YAXAAVEHealth@@@Z
        632  277 00029920 ?ClearToDefault@@YAXAAVEHit@@@Z
        633  278 000241F0 ?ClearToDefault@@YAXAAVEHitBySpaceShipBeam@@@Z
        634  279 00054210 ?ClearToDefault@@YAXAAVEKey@@@Z
        635  27A 00023BF0 ?ClearToDefault@@YAXAAVEKilledEnemy@@@Z
        636  27B 0000F9D0 ?ClearToDefault@@YAXAAVELaunchCannonBall@@@Z
        637  27C 0000C1C0 ?ClearToDefault@@YAXAAVELaunchProjectile@@@Z
        638  27D 00087240 ?ClearToDefault@@YAXAAVEMessageItem@@@Z
        639  27E 00001AC0 ?ClearToDefault@@YAXAAVERangeModelDestruction@@@Z
        640  27F 00009580 ?ClearToDefault@@YAXAAVERebirth@@@Z
        641  280 00023B80 ?ClearToDefault@@YAXAAVEReceiveScore@@@Z
        642  281 0000E740 ?ClearToDefault@@YAXAAVEReconsiderBehavior@@@Z
        643  282 00039740 ?ClearToDefault@@YAXAAVERegenerationImpuls@@@Z
        644  283 00010A40 ?ClearToDefault@@YAXAAVEReleaseWeapon@@@Z
        645  284 00010B40 ?ClearToDefault@@YAXAAVEReloadWeapon@@@Z
        646  285 00023980 ?ClearToDefault@@YAXAAVEReminder@@@Z
        647  286 000011B0 ?ClearToDefault@@YAXAAVEReminderInit@@@Z
        648  287 0000E640 ?ClearToDefault@@YAXAAVERestartAttack@@@Z
        649  288 00023C50 ?ClearToDefault@@YAXAAVESecretFound@@@Z
        650  289 00010730 ?ClearToDefault@@YAXAAVESelectWeapon@@@Z
        651  28A 00023D60 ?ClearToDefault@@YAXAAVESound@@@Z
        652  28B 00001EB0 ?ClearToDefault@@YAXAAVESpawnDebris@@@Z
        653  28C 00001CC0 ?ClearToDefault@@YAXAAVESpawnEffect@@@Z
        654  28D 00040EE0 ?ClearToDefault@@YAXAAVESpawnEffector@@@Z
        655  28E 00001900 ?ClearToDefault@@YAXAAVESpawnSpray@@@Z
        656  28F 00023540 ?ClearToDefault@@YAXAAVEStart@@@Z
        657  290 000239F0 ?ClearToDefault@@YAXAAVEStartAttack@@@Z
        658  291 000234B0 ?ClearToDefault@@YAXAAVEStop@@@Z
        659  292 00023A50 ?ClearToDefault@@YAXAAVEStopAttack@@@Z
        660  293 00023AB0 ?ClearToDefault@@YAXAAVEStopBlindness@@@Z
        661  294 00023B10 ?ClearToDefault@@YAXAAVEStopDeafness@@@Z
        662  295 00023910 ?ClearToDefault@@YAXAAVETeleportMovingBrush@@@Z
        663  296 00023830 ?ClearToDefault@@YAXAAVETrigger@@@Z
        664  297 000E0660 ?ClearToDefault@@YAXAAVETwister@@@Z
        665  298 00096C30 ?ClearToDefault@@YAXAAVEViewInit@@@Z
        666  299 00024130 ?ClearToDefault@@YAXAAVEVoiceMessage@@@Z
        667  29A 0000DEA0 ?ClearToDefault@@YAXAAVEWatch@@@Z
        668  29B 0000DC70 ?ClearToDefault@@YAXAAVEWatcherInit@@@Z
        669  29C 000E6A90 ?ClearToDefault@@YAXAAVEWater@@@Z
        670  29D 0000BF50 ?ClearToDefault@@YAXAAVEWeaponEffectInit@@@Z
        671  29E 0000D800 ?ClearToDefault@@YAXAAVEWeaponItem@@@Z
        672  29F 000105A0 ?ClearToDefault@@YAXAAVEWeaponsInit@@@Z
        673  2A0 0000D830 ?ClearToDefault@@YAXAAW4AmmoItemType@@@Z
        674  2A1 0000D960 ?ClearToDefault@@YAXAAW4AmmoPackType@@@Z
        675  2A2 00028200 ?ClearToDefault@@YAXAAW4ArmorItemType@@@Z
        676  2A3 00001B10 ?ClearToDefault@@YAXAAW4BasicEffectType@@@Z
        677  2A4 0002D580 ?ClearToDefault@@YAXAAW4BeastType@@@Z
        678  2A5 00030910 ?ClearToDefault@@YAXAAW4BlendControllerType@@@Z
        679  2A6 00029A40 ?ClearToDefault@@YAXAAW4BlockAction@@@Z
        680  2A7 00023C70 ?ClearToDefault@@YAXAAW4BoolEType@@@Z
        681  2A8 000E8F00 ?ClearToDefault@@YAXAAW4BullChar@@@Z
        682  2A9 0000CCE0 ?ClearToDefault@@YAXAAW4BulletHitType@@@Z
        683  2AA 0000F810 ?ClearToDefault@@YAXAAW4CannonBallType@@@Z
        684  2AB 00039A60 ?ClearToDefault@@YAXAAW4ClasificationBits@@@Z
        685  2AC 000019C0 ?ClearToDefault@@YAXAAW4CustomShadingType@@@Z
        686  2AD 00001D30 ?ClearToDefault@@YAXAAW4DebrisParticlesType@@@Z
        687  2AE 0000E870 ?ClearToDefault@@YAXAAW4DestinationType@@@Z
        688  2AF 00001AE0 ?ClearToDefault@@YAXAAW4DestructionDebrisType@@@Z
        689  2B0 00039500 ?ClearToDefault@@YAXAAW4DevilActionType@@@Z
        690  2B1 00039A30 ?ClearToDefault@@YAXAAW4DevilAttackPower@@@Z
        691  2B2 00039760 ?ClearToDefault@@YAXAAW4DevilCommandType@@@Z
        692  2B3 00039A20 ?ClearToDefault@@YAXAAW4DevilState@@@Z
        693  2B4 00054240 ?ClearToDefault@@YAXAAW4DoorType@@@Z
        694  2B5 00055EC0 ?ClearToDefault@@YAXAAW4EffectMarkerType@@@Z
        695  2B6 00001B20 ?ClearToDefault@@YAXAAW4EffectParticlesType@@@Z
        696  2B7 00040C60 ?ClearToDefault@@YAXAAW4EffectorEffectType@@@Z
        697  2B8 00058B60 ?ClearToDefault@@YAXAAW4ElementalCharacter@@@Z
        698  2B9 00058B70 ?ClearToDefault@@YAXAAW4ElementalState@@@Z
        699  2BA 00058B50 ?ClearToDefault@@YAXAAW4ElementalType@@@Z
        700  2BB 00069460 ?ClearToDefault@@YAXAAW4EnemyDiveType@@@Z
        701  2BC 0006A520 ?ClearToDefault@@YAXAAW4EnemyFlyType@@@Z
        702  2BD 0006E190 ?ClearToDefault@@YAXAAW4EnemySpawnerType@@@Z
        703  2BE 00023C90 ?ClearToDefault@@YAXAAW4EntityInfoBodyType@@@Z
        704  2BF 00023C80 ?ClearToDefault@@YAXAAW4EventEType@@@Z
        705  2C0 000753C0 ?ClearToDefault@@YAXAAW4EyemanChar@@@Z
        706  2C1 000753D0 ?ClearToDefault@@YAXAAW4EyemanEnv@@@Z
        707  2C2 00039A40 ?ClearToDefault@@YAXAAW4FogAttenuationType@@@Z
        708  2C3 00039A50 ?ClearToDefault@@YAXAAW4FogGraduationType2@@@Z
        709  2C4 0007B4C0 ?ClearToDefault@@YAXAAW4GravityType@@@Z
        710  2C5 0007D140 ?ClearToDefault@@YAXAAW4HeadmanType@@@Z
        711  2C6 00080360 ?ClearToDefault@@YAXAAW4HealthItemType@@@Z
        712  2C7 00054110 ?ClearToDefault@@YAXAAW4KeyItemType@@@Z
        713  2C8 00001B00 ?ClearToDefault@@YAXAAW4LensFlareType@@@Z
        714  2C9 00001AF0 ?ClearToDefault@@YAXAAW4LightType@@@Z
        715  2CA 00023CA0 ?ClearToDefault@@YAXAAW4MessageSound@@@Z
        716  2CB 0000E310 ?ClearToDefault@@YAXAAW4MusicType@@@Z
        717  2CC 00042A00 ?ClearToDefault@@YAXAAW4PSSState@@@Z
        718  2CD 00023CB0 ?ClearToDefault@@YAXAAW4ParticleTexture@@@Z
        719  2CE 00094740 ?ClearToDefault@@YAXAAW4ParticlesHolderType@@@Z
        720  2CF 000977E0 ?ClearToDefault@@YAXAAW4PlayerAutoAction@@@Z
        721  2D0 00009030 ?ClearToDefault@@YAXAAW4PlayerState@@@Z
        722  2D1 00009020 ?ClearToDefault@@YAXAAW4PlayerViewType@@@Z
        723  2D2 0000C000 ?ClearToDefault@@YAXAAW4ProjectileMovingType@@@Z
        724  2D3 0000BFF0 ?ClearToDefault@@YAXAAW4ProjectileType@@@Z
        725  2D4 000D58F0 ?ClearToDefault@@YAXAAW4ScorpmanType@@@Z
        726  2D5 000019D0 ?ClearToDefault@@YAXAAW4ShadowType@@@Z
        727  2D6 00023CC0 ?ClearToDefault@@YAXAAW4SoundType@@@Z
        728  2D7 00001700 ?ClearToDefault@@YAXAAW4SprayParticlesType@@@Z
        729  2D8 000977C0 ?ClearToDefault@@YAXAAW4SwitchType@@@Z
        730  2D9 0000E860 ?ClearToDefault@@YAXAAW4TargetType@@@Z
        731  2DA 00029A50 ?ClearToDefault@@YAXAAW4TouchOrDamageEvent@@@Z
        732  2DB 000E04A0 ?ClearToDefault@@YAXAAW4TwisterSize@@@Z
        733  2DC 00096A20 ?ClearToDefault@@YAXAAW4ViewType@@@Z
        734  2DD 00039A70 ?ClearToDefault@@YAXAAW4VisibilityBits@@@Z
        735  2DE 000E2390 ?ClearToDefault@@YAXAAW4WalkerChar@@@Z
        736  2DF 00029830 ?ClearToDefault@@YAXAAW4WarpRotation@@@Z
        737  2E0 000E68D0 ?ClearToDefault@@YAXAAW4WaterSize@@@Z
        738  2E1 0000BD90 ?ClearToDefault@@YAXAAW4WeaponEffectType@@@Z
        739  2E2 0000D6E0 ?ClearToDefault@@YAXAAW4WeaponItemType@@@Z
        740  2E3 00010B60 ?ClearToDefault@@YAXAAW4WeaponType@@@Z
        741  2E4 000977D0 ?ClearToDefault@@YAXAAW4WorldLinkType@@@Z
        742  2E5 000BA4C0 ?ClearWeapons@CPlayerWeapons@@QAEXXZ
        743  2E6 00017360 ?CloseParticles@@YAXXZ
        744  2E7 000BC350 ?ColtBoring@CPlayerWeapons@@QAEMXZ
        745  2E8 000A2830 ?ComputerPressed@CPlayer@@QAEXXZ
        746  2E9 000B1E10 ?ControlFlareAttachment@CPlayerAnimator@@QAEXXZ
        747  2EA 000B88B0 ?ControlFlareAttachment@CPlayerWeapons@@QAEXXZ
        748  2EB 0005FB30 ?Copy@CEnemyBase@@UAEXAAVCEntity@@K@Z
        749  2EC 0009BD10 ?Copy@CPlayer@@UAEXAAVCEntity@@K@Z
        750  2ED 000C69C0 ?Copy@CProjectile@@UAEXAAVCEntity@@K@Z
        751  2EE 0005F9D0 ?CountAsKill@CEnemyBase@@UAEHXZ
        752  2EF 000B15F0 ?Crouch@CPlayerAnimator@@QAEXXZ
        753  2F0 00160E48 ?CustomShadingType_enum@@3VCEntityPropertyEnumType@@A
        754  2F1 00160E30 ?CustomShadingType_values@@3PAVCEntityPropertyEnumValue@@A
        755  2F2 000B9740 ?CutWithKnife@CPlayerWeapons@@QAEHMMMMMM@Z
        756  2F3 000CB600 ?CyborgBomb@CProjectile@@QAEXXZ
        757  2F4 000C8370 ?CyborgBombExplosion@CProjectile@@QAEXXZ
        758  2F5 000CB520 ?CyborgLaser@CProjectile@@QAEXXZ
        759  2F6 000A1280 ?DamageImpact@CPlayer@@QAEXW4DamageType@@MABV?$Vector@M$02@@1@Z
        760  2F7 00007300 ?DamageStrength@@YAMW4EntityInfoBodyType@@W4DamageType@@@Z
        761  2F8 000677D0 ?Death@CEnemyBase@@QAEHABVCEntityEvent@@@Z
        762  2F9 0006C460 ?Death@CEnemyFly@@QAEHABVCEntityEvent@@@Z
        763  2FA 000A7920 ?Death@CPlayer@@QAEHABVCEntityEvent@@@Z
        764  2FB 000A4700 ?DeathActions@CPlayer@@QAEXABVCPlayerAction@@@Z
        765  2FC 00063F50 ?DeathNotify@CEnemyBase@@UAEXXZ
        766  2FD 00067980 ?DeathSequence@CEnemyBase@@QAEHABVCEntityEvent@@@Z
        767  2FE 00063F90 ?DeathSound@CEnemyBase@@UAEXXZ
        768  2FF 00155550 ?DebrisParticlesType_enum@@3VCEntityPropertyEnumType@@A
        769  300 00155528 ?DebrisParticlesType_values@@3PAVCEntityPropertyEnumValue@@A
        770  301 00006E50 ?Debris_Begin@@YAXW4EntityInfoBodyType@@W4DebrisParticlesType@@W4BasicEffectType@@MABV?$Vector@M$02@@3MMK@Z
        771  302 00006ED0 ?Debris_Spawn@@YA?AVCEntityPointer@@PAVCEntity@@0JJJJJJMABV?$Vector@M$02@@@Z
        772  303 0015A118 ?DestinationType_enum@@3VCEntityPropertyEnumType@@A
        773  304 0015A0F8 ?DestinationType_values@@3PAVCEntityPropertyEnumValue@@A
        774  305 00035120 ?DestroyBullet@CBullet@@QAEXXZ
        775  306 00160988 ?DestructionDebrisType_enum@@3VCEntityPropertyEnumType@@A
        776  307 00160970 ?DestructionDebrisType_values@@3PAVCEntityPropertyEnumValue@@A
        777  308 001584D0 ?DevilActionType_enum@@3VCEntityPropertyEnumType@@A
        778  309 00158428 ?DevilActionType_values@@3PAVCEntityPropertyEnumValue@@A
        779  30A 00155E00 ?DevilAttackPower_enum@@3VCEntityPropertyEnumType@@A
        780  30B 00155DD8 ?DevilAttackPower_values@@3PAVCEntityPropertyEnumValue@@A
        781  30C 00155D98 ?DevilCommandType_enum@@3VCEntityPropertyEnumType@@A
        782  30D 00155D58 ?DevilCommandType_values@@3PAVCEntityPropertyEnumValue@@A
        783  30E 000CAF80 ?DevilGuidedProjectile@CProjectile@@QAEXXZ
        784  30F 000CB120 ?DevilGuidedProjectileExplosion@CProjectile@@QAEXXZ
        785  310 000CA9C0 ?DevilLaser@CProjectile@@QAEXXZ
        786  311 000CAAC0 ?DevilRocket@CProjectile@@QAEXXZ
        787  312 000CAC40 ?DevilRocketExplosion@CProjectile@@QAEXXZ
        788  313 00155DD0 ?DevilState_enum@@3VCEntityPropertyEnumType@@A
        789  314 00155DA0 ?DevilState_values@@3PAVCEntityPropertyEnumValue@@A
        790  315 00067400 ?Die@CEnemyBase@@QAEHABVCEntityEvent@@@Z
        791  316 000A2F70 ?Disconnect@CPlayer@@UAEXXZ
        792  317 0006A4C0 ?DiveFire@CEnemyDive@@QAEHABVCEntityEvent@@@Z
        793  318 0006A460 ?DiveHit@CEnemyDive@@QAEHABVCEntityEvent@@@Z
        794  319 000AA860 ?DoAutoActions@CPlayer@@QAEHABVCEntityEvent@@@Z
        795  31A 000A0BC0 ?DoMoving@CPlayer@@UAEXXZ
        796  31B 000B30D0 ?DoMoving@CPlayerView@@UAEXXZ
        797  31C 000646D0 ?DoPatrolling@CEnemyBase@@QAEHABVCEntityEvent@@@Z
        798  31D 000B6DF0 ?DoRecoil@CPlayerWeapons@@QAEXXZ
        799  31E 00158930 ?DoorType_enum@@3VCEntityPropertyEnumType@@A
        800  31F 00158910 ?DoorType_values@@3PAVCEntityPropertyEnumValue@@A
        801  320 000BC3A0 ?DoubleColtBoring@CPlayerWeapons@@QAEMXZ
        802  321 000BC450 ?DoubleShotgunBoring@CPlayerWeapons@@QAEMXZ
        803  322 000C8780 ?DragonmanProjectile@CProjectile@@QAEXJ@Z
        804  323 000BACA0 ?DropWeapon@CPlayerWeapons@@QAEXXZ
        805  324 00060A40 ?DropsMarker@CEnemyBase@@UBEHAAVCTFileName@@AAVCTString@@@Z
        806  325 00094550 ?DropsMarker@CNavigationMarker@@UBEHAAVCTFileName@@AAVCTString@@@Z
        807  326 000E56B0 ?Dummy@CWatcher@@QAEHABVCEntityEvent@@@Z
        808  327 0002ABF0 ?DumpSync_t@CBasicEffect@@UAEXAAVCTStream@@J@Z
        809  328 00060C20 ?DumpSync_t@CEnemyBase@@UAEXAAVCTStream@@J@Z
        810  329 000A0EC0 ?DumpSync_t@CPlayer@@UAEXAAVCTStream@@J@Z
        811  32A 000C6900 ?DumpSync_t@CProjectile@@UAEXAAVCTStream@@J@Z
        812  32B 00158E10 ?EffectMarkerType_enum@@3VCEntityPropertyEnumType@@A
        813  32C 00158DC0 ?EffectMarkerType_values@@3PAVCEntityPropertyEnumValue@@A
        814  32D 001524F8 ?EffectParticlesType_enum@@3VCEntityPropertyEnumType@@A
        815  32E 001524C8 ?EffectParticlesType_values@@3PAVCEntityPropertyEnumValue@@A
        816  32F 00159178 ?EffectorEffectType_enum@@3VCEntityPropertyEnumType@@A
        817  330 00159108 ?EffectorEffectType_values@@3PAVCEntityPropertyEnumValue@@A
        818  331 00159460 ?ElementalCharacter_enum@@3VCEntityPropertyEnumType@@A
        819  332 00159448 ?ElementalCharacter_values@@3PAVCEntityPropertyEnumValue@@A
        820  333 000C88B0 ?ElementalRock@CProjectile@@QAEXJJ@Z
        821  334 00159480 ?ElementalState_enum@@3VCEntityPropertyEnumType@@A
        822  335 00159468 ?ElementalState_values@@3PAVCEntityPropertyEnumValue@@A
        823  336 00159440 ?ElementalType_enum@@3VCEntityPropertyEnumType@@A
        824  337 00159418 ?ElementalType_values@@3PAVCEntityPropertyEnumValue@@A
        825  338 0015AF68 ?EnemyDiveType_enum@@3VCEntityPropertyEnumType@@A
        826  339 0015AF50 ?EnemyDiveType_values@@3PAVCEntityPropertyEnumValue@@A
        827  33A 0015B0D8 ?EnemyFlyType_enum@@3VCEntityPropertyEnumType@@A
        828  33B 0015B0A8 ?EnemyFlyType_values@@3PAVCEntityPropertyEnumValue@@A
        829  33C 00063FF0 ?EnemyPostInit@CEnemyBase@@UAEXXZ
        830  33D 0015B758 ?EnemySpawnerType_enum@@3VCEntityPropertyEnumType@@A
        831  33E 0015B728 ?EnemySpawnerType_values@@3PAVCEntityPropertyEnumValue@@A
        832  33F 0015D668 ?EntityInfoBodyType_enum@@3VCEntityPropertyEnumType@@A
        833  340 0015D618 ?EntityInfoBodyType_values@@3PAVCEntityPropertyEnumValue@@A
        834  341 0015D610 ?EventEType_enum@@3VCEntityPropertyEnumType@@A
        835  342 0015D5A8 ?EventEType_values@@3PAVCEntityPropertyEnumValue@@A
        836  343 0003A710 ?Explosion@CCannonBall@@QAEXV?$Vector@M$02@@ABV2@11HHHH@Z
        837  344 0015C7E8 ?EyemanChar_enum@@3VCEntityPropertyEnumType@@A
        838  345 0015C7D8 ?EyemanChar_values@@3PAVCEntityPropertyEnumValue@@A
        839  346 0015C800 ?EyemanEnv_enum@@3VCEntityPropertyEnumType@@A
        840  347 0015C7F0 ?EyemanEnv_values@@3PAVCEntityPropertyEnumValue@@A
        841  348 000B16F0 ?Fall@CPlayerAnimator@@QAEXXZ
        842  349 00060D60 ?FillEntityStatistics@CEnemyBase@@UAEHPAUEntityStats@@@Z
        843  34A 000E4C20 ?FindClosestPlayer@CWatcher@@QAEPAVCEntity@@XZ
        844  34B 0009F890 ?FindMusicHolder@CPlayer@@QAEXXZ
        845  34C 000623B0 ?FindNextPathMarker@CEnemyBase@@UAEXXZ
        846  34D 000BC6F0 ?FindPrimaryWeaponInDirection@CPlayerWeapons@@QAE?AW4WeaponType@@J@Z
        847  34E 000BC680 ?FindWeaponInDirection@CPlayerWeapons@@QAE?AW4WeaponType@@J@Z
        848  34F 00066A80 ?Fire@CEnemyBase@@QAEHABVCEntityEvent@@@Z
        849  350 0006A270 ?Fire@CEnemyDive@@QAEHABVCEntityEvent@@@Z
        850  351 0006C3E0 ?Fire@CEnemyFly@@QAEHABVCEntityEvent@@@Z
        851  352 0006D460 ?Fire@CEnemyRunInto@@QAEHABVCEntityEvent@@@Z
        852  353 000BDA30 ?Fire@CPlayerWeapons@@QAEHABVCEntityEvent@@@Z
        853  354 000B17B0 ?FireAnimation@CPlayerAnimator@@QAEXJK@Z
        854  355 000B18A0 ?FireAnimationOff@CPlayerAnimator@@QAEXXZ
        855  356 000B9D50 ?FireBullets@CPlayerWeapons@@QAEXMMMMJPAMMM@Z
        856  357 000BA320 ?FireCannonBall@CPlayerWeapons@@QAEXJ@Z
        857  358 000BEAB0 ?FireColt@CPlayerWeapons@@QAEHABVCEntityEvent@@@Z
        858  359 000BEED0 ?FireDoubleColt@CPlayerWeapons@@QAEHABVCEntityEvent@@@Z
        859  35A 000BFDC0 ?FireDoubleShotgun@CPlayerWeapons@@QAEHABVCEntityEvent@@@Z
        860  35B 000B9E90 ?FireGrenade@CPlayerWeapons@@QAEXJ@Z
        861  35C 000C2490 ?FireGrenadeLauncher@CPlayerWeapons@@QAEHABVCEntityEvent@@@Z
        862  35D 000C2D80 ?FireLaser@CPlayerWeapons@@QAEHABVCEntityEvent@@@Z
        863  35E 000BA100 ?FireLaserRay@CPlayerWeapons@@QAEXXZ
        864  35F 000B9E20 ?FireMachineBullet@CPlayerWeapons@@QAEXMMMMMM@Z
        865  360 000B9CF0 ?FireOneBullet@CPlayerWeapons@@QAEXMMMM@Z
        866  361 00066430 ?FireOrHit@CEnemyBase@@QAEHABVCEntityEvent@@@Z
        867  362 000B9FD0 ?FireRocket@CPlayerWeapons@@QAEXXZ
        868  363 000C2060 ?FireRocketLauncher@CPlayerWeapons@@QAEHABVCEntityEvent@@@Z
        869  364 000BF5C0 ?FireSingleShotgun@CPlayerWeapons@@QAEHABVCEntityEvent@@@Z
        870  365 000C0A10 ?FireTommyGun@CPlayerWeapons@@QAEHABVCEntityEvent@@@Z
        871  366 000A83A0 ?FirstInit@CPlayer@@QAEHABVCEntityEvent@@@Z
        872  367 000CA800 ?FishmanProjectile@CProjectile@@QAEXXZ
        873  368 00007590 ?FixupCausedToPlayer@@YAPAVCEntity@@PAV1@0H@Z
        874  369 0006C6B0 ?FlyFire@CEnemyFly@@QAEHABVCEntityEvent@@@Z
        875  36A 0006C650 ?FlyHit@CEnemyFly@@QAEHABVCEntityEvent@@@Z
        876  36B 0015D048 ?FogAttenuationType_enum@@3VCEntityPropertyEnumType@@A
        877  36C 0015D030 ?FogAttenuationType_values@@3PAVCEntityPropertyEnumValue@@A
        878  36D 0015D068 ?FogGraduationType2_enum@@3VCEntityPropertyEnumType@@A
        879  36E 0015D050 ?FogGraduationType2_values@@3PAVCEntityPropertyEnumValue@@A
        880  36F 0005F9E0 ?ForcesCannonballToExplode@CEnemyBase@@UAEHXZ
        881  370 0009F880 ?GetActionMarker@CPlayer@@QAEPAVCPlayerActionMarker@@XZ
        882  371 000BBEF0 ?GetAltWeapon@CPlayerWeapons@@QAE?AW4WeaponType@@W42@@Z
        883  372 000BA770 ?GetAmmo@CPlayerWeapons@@QAEJXZ
        884  373 000B6DE0 ?GetAnimator@CPlayerWeapons@@QAEPAVCPlayerAnimator@@XZ
        885  374 00061D60 ?GetAttackMoveFrequency@CEnemyBase@@UAEMM@Z
        886  375 000AFBF0 ?GetBody@CPlayerAnimator@@QAEPAVCModelObject@@XZ
        887  376 000AFC10 ?GetBodyRen@CPlayerAnimator@@QAEPAVCModelObject@@XZ
        888  377 00060B20 ?GetComputerMessageName@CEnemyBase@@UBEABVCTFileName@@XZ
        889  378 0005F9C0 ?GetCrushHealth@CEnemyBase@@UAEMXZ
        890  379 000A5FA0 ?GetDeathmatchStartMarker@CPlayer@@QAEPAVCEntity@@XZ
        891  37A 00060AE0 ?GetDescription@CEnemyBase@@UBEABVCTString@@XZ
        892  37B 0000D070 ?GetDescription@CItem@@UBEABVCTString@@XZ
        893  37C 00094510 ?GetDescription@CNavigationMarker@@UBEABVCTString@@XZ
        894  37D 0009D450 ?GetDetailStatsCoop@CPlayer@@QAEXAAVCTString@@@Z
        895  37E 0009C770 ?GetDetailStatsDM@CPlayer@@QAEXAAVCTString@@@Z
        896  37F 0009DFE0 ?GetDetailStatsSP@CPlayer@@QAEXAAVCTString@@J@Z
        897  380 00094420 ?GetEntityInfo@CNavigationMarker@@UAEPAXXZ
        898  381 000A22A0 ?GetEntityInfo@CPlayer@@UAEPAXXZ
        899  382 00002140 ?GetEntityInfoPosition@@YAXPAVCEntity@@PAMAAV?$Vector@M$02@@@Z
        900  383 0005FE80 ?GetFrustumAngle@CEnemyBase@@QAEMABV?$Vector@M$02@@@Z
        901  384 00007A90 ?GetGameDamageMultiplier@@YAMXZ
        902  385 0009EE90 ?GetGameSpyPlayerInfo@CPlayer@@UAEXJAAVCTString@@@Z
        903  386 00082BB0 ?GetKeyName@@YAPBDW4KeyItemType@@@Z
        904  387 000A4E80 ?GetLerpedAbsoluteViewPlacement@CPlayer@@QAEXAAVCPlacement3D@@@Z
        905  388 000B3100 ?GetLerpedPlacement@CPlayerView@@UBE?AVCPlacement3D@@XZ
        906  389 000A37A0 ?GetLerpedWeaponPosition@CPlayer@@QAEXV?$Vector@M$02@@AAVCPlacement3D@@@Z
        907  38A 0009C3E0 ?GetLightSource@CPlayer@@UAEPAVCLightSource@@XZ
        908  38B 000C69A0 ?GetLightSource@CProjectile@@UAEPAVCLightSource@@XZ
        909  38C 000944E0 ?GetLink@CNavigationMarker@@QAEPAV1@J@Z
        910  38D 00022F60 ?GetLink@CPathNode@@QAEPAV1@J@Z
        911  38E 00063FA0 ?GetLockRotationSpeed@CEnemyBase@@UAEMXZ
        912  38F 000BA800 ?GetMaxAmmo@CPlayerWeapons@@QAEJXZ
        913  390 0009F6D0 ?GetModelForRendering@CPlayer@@UAEPAVCModelObject@@XZ
        914  391 0000E880 ?GetName@CEnemyBase@@UBEABVCTString@@XZ
        915  392 0000D060 ?GetName@CItem@@UBEABVCTString@@XZ
        916  393 000229C0 ?GetName@CNavigationMarker@@UBEABVCTString@@XZ
        917  394 00022F00 ?GetName@CPathNode@@QAEABVCTString@@XZ
        918  395 000E4B90 ?GetOwner@CWatcher@@QAEPAVCEnemyBase@@XZ
        919  396 00094430 ?GetPathNode@CNavigationMarker@@QAEPAVCPathNode@@XZ
        920  397 0005FF40 ?GetPlaneFrustumAngle@CEnemyBase@@QAEMABV?$Vector@M$02@@@Z
        921  398 000AFBE0 ?GetPlayer@CPlayerAnimator@@QAEPAVCPlayer@@XZ
        922  399 000B6DD0 ?GetPlayer@CPlayerWeapons@@QAEPAVCPlayer@@XZ
        923  39A 0009BCF0 ?GetPlayerAnimator@CPlayer@@QAEPAVCPlayerAnimator@@XZ
        924  39B 0005F910 ?GetPlayerKillDescription@CEnemyBase@@UAE?AVCTString@@ABV2@ABVEDeath@@@Z
        925  39C 0009BCE0 ?GetPlayerWeapons@CPlayer@@QAEPAVCPlayerWeapons@@XZ
        926  39D 000021F0 ?GetPositionCastRay@@YAXPAVCEntity@@0AAV?$Vector@M$02@@1@Z
        927  39E 0009C0E0 ?GetPredictName@CPlayer@@QBE?AVCTString@@XZ
        928  39F 0000E8A0 ?GetPredictionPair@CEnemyBase@@UAEPAVCEntity@@XZ
        929  3A0 0000D090 ?GetPredictionPair@CItem@@UAEPAVCEntity@@XZ
        930  3A1 000098D0 ?GetPredictionPair@CPlayer@@UAEPAVCEntity@@XZ
        931  3A2 00096370 ?GetPredictionPair@CPlayerAnimator@@UAEPAVCEntity@@XZ
        932  3A3 00096D20 ?GetPredictionPair@CPlayerView@@UAEPAVCEntity@@XZ
        933  3A4 00010B70 ?GetPredictionPair@CPlayerWeapons@@UAEPAVCEntity@@XZ
        934  3A5 0000C260 ?GetPredictionPair@CProjectile@@UAEPAVCEntity@@XZ
        935  3A6 0000DF40 ?GetPredictionPair@CWatcher@@UAEPAVCEntity@@XZ
        936  3A7 00081BE0 ?GetPredictionRange@CItem@@UAEMXZ
        937  3A8 0009C440 ?GetPredictionRange@CPlayer@@UAEMXZ
        938  3A9 0005F900 ?GetPredictionTime@CEnemyBase@@UAEMXZ
        939  3AA 0009C430 ?GetPredictionTime@CPlayer@@UAEMXZ
        940  3AB 0005F9F0 ?GetPropA@CEnemyBase@@UAEAAMAAM@Z
        941  3AC 00069D60 ?GetPropA@CEnemyDive@@UAEAAMAAM@Z
        942  3AD 0006B070 ?GetPropA@CEnemyFly@@UAEAAMAAM@Z
        943  3AE 000E4BA0 ?GetRandomPlayer@CWatcher@@QAEJXZ
        944  3AF 000CBCC0 ?GetRotationSpeed@CProjectile@@QAEMMMM@Z
        945  3B0 00024250 ?GetSP@@YAPBVCSessionProperties@@XZ
        946  3B1 000BBE50 ?GetSelectedWeapon@CPlayerWeapons@@QAEJW4WeaponType@@@Z
        947  3B2 0009BD00 ?GetSettings@CPlayer@@QAEPAVCPlayerSettings@@XZ
        948  3B3 0009C6B0 ?GetShortStats@CPlayer@@QAEXAAVCTString@@@Z
        949  3B4 0009C600 ?GetStats@CPlayer@@QAEXAAVCTString@@W4CompStatType@@J@Z
        950  3B5 0009C4B0 ?GetStatsInGameTimeGame@CPlayer@@QAEMXZ
        951  3B6 0009C480 ?GetStatsInGameTimeLevel@CPlayer@@QAEMXZ
        952  3B7 0009C530 ?GetStatsRealWorldStarted@CPlayer@@QAE?AVCTString@@XZ
        953  3B8 0009C4E0 ?GetStatsRealWorldTime@CPlayer@@QAEMXZ
        954  3B9 00007280 ?GetStdEntityInfo@@YAPAUEntityInfo@@W4EntityInfoBodyType@@@Z
        955  3BA 000BBDC0 ?GetStrongerWeapon@CPlayerWeapons@@QAE?AW4WeaponType@@J@Z
        956  3BB 00094410 ?GetTarget@CNavigationMarker@@UBEPAVCEntity@@XZ
        957  3BC 000A63A0 ?GetTeleportingOffset@CPlayer@@QAE?AV?$Vector@M$02@@XZ
        958  3BD 0005FA00 ?GetThreatDistance@CEnemyBase@@UAEMXZ
        959  3BE 000A5CF0 ?GetViewEntity@CPlayer@@QAEPAVCEntity@@XZ
        960  3BF 0005FB20 ?GetWatcher@CEnemyBase@@QAEPAVCWatcher@@XZ
        961  3C0 0009FC30 ?GetWorldGlaring@CPlayer@@QAEKXZ
        962  3C1 0015DB18 ?GravityType_enum@@3VCEntityPropertyEnumType@@A
        963  3C2 0015DAF8 ?GravityType_values@@3PAVCEntityPropertyEnumValue@@A
        964  3C3 000BC580 ?GrenadeLauncherBoring@CPlayerWeapons@@QAEMXZ
        965  3C4 0006A400 ?GroundFire@CEnemyDive@@QAEHABVCEntityEvent@@@Z
        966  3C5 0006C5F0 ?GroundFire@CEnemyFly@@QAEHABVCEntityEvent@@@Z
        967  3C6 0006A3A0 ?GroundHit@CEnemyDive@@QAEHABVCEntityEvent@@@Z
        968  3C7 0006C590 ?GroundHit@CEnemyFly@@QAEHABVCEntityEvent@@@Z
        969  3C8 0006BBA0 ?GroundToAir@CEnemyFly@@QAEHABVCEntityEvent@@@Z
        970  3C9 0006B540 ?GroundToAirAnim@CEnemyFly@@UAEMXZ
        971  3CA 000642B0 ?H0x01360004_MoveToDestination_01@CEnemyBase@@QAEHABVCEntityEvent@@@Z
        972  3CB 00064350 ?H0x01360005_MoveToDestination_02@CEnemyBase@@QAEHABVCEntityEvent@@@Z
        973  3CC 000641F0 ?H0x01360006_MoveToDestination_03@CEnemyBase@@QAEHABVCEntityEvent@@@Z
        974  3CD 000643B0 ?H0x01360007_MoveToDestination_04@CEnemyBase@@QAEHABVCEntityEvent@@@Z
        975  3CE 000645D0 ?H0x01360009_MoveToRandomPatrolPosition_01@CEnemyBase@@QAEHABVCEntityEvent@@@Z
        976  3CF 00064670 ?H0x0136000a_MoveToRandomPatrolPosition_02@CEnemyBase@@QAEHABVCEntityEvent@@@Z
        977  3D0 000647C0 ?H0x0136000c_DoPatrolling_01@CEnemyBase@@QAEHABVCEntityEvent@@@Z
        978  3D1 00064840 ?H0x0136000d_DoPatrolling_02@CEnemyBase@@QAEHABVCEntityEvent@@@Z
        979  3D2 000648A0 ?H0x0136000e_DoPatrolling_03@CEnemyBase@@QAEHABVCEntityEvent@@@Z
        980  3D3 00064940 ?H0x0136000f_DoPatrolling_04@CEnemyBase@@QAEHABVCEntityEvent@@@Z
        981  3D4 00064730 ?H0x01360010_DoPatrolling_05@CEnemyBase@@QAEHABVCEntityEvent@@@Z
        982  3D5 000649A0 ?H0x01360011_DoPatrolling_06@CEnemyBase@@QAEHABVCEntityEvent@@@Z
        983  3D6 00064AE0 ?H0x01360013_BeIdle_01@CEnemyBase@@QAEHABVCEntityEvent@@@Z
        984  3D7 00064B60 ?H0x01360014_BeIdle_02@CEnemyBase@@QAEHABVCEntityEvent@@@Z
        985  3D8 00064A60 ?H0x01360015_BeIdle_03@CEnemyBase@@QAEHABVCEntityEvent@@@Z
        986  3D9 00064BD0 ?H0x01360016_BeIdle_04@CEnemyBase@@QAEHABVCEntityEvent@@@Z
        987  3DA 00064EB0 ?H0x01360019_MoveThroughMarkers_01@CEnemyBase@@QAEHABVCEntityEvent@@@Z
        988  3DB 00064F50 ?H0x0136001a_MoveThroughMarkers_02@CEnemyBase@@QAEHABVCEntityEvent@@@Z
        989  3DC 00065050 ?H0x0136001b_MoveThroughMarkers_03@CEnemyBase@@QAEHABVCEntityEvent@@@Z
        990  3DD 00065100 ?H0x0136001c_MoveThroughMarkers_04@CEnemyBase@@QAEHABVCEntityEvent@@@Z
        991  3DE 00065160 ?H0x0136001d_MoveThroughMarkers_05@CEnemyBase@@QAEHABVCEntityEvent@@@Z
        992  3DF 00065210 ?H0x0136001e_MoveThroughMarkers_06@CEnemyBase@@QAEHABVCEntityEvent@@@Z
        993  3E0 00065290 ?H0x0136001f_MoveThroughMarkers_07@CEnemyBase@@QAEHABVCEntityEvent@@@Z
        994  3E1 000652F0 ?H0x01360020_MoveThroughMarkers_08@CEnemyBase@@QAEHABVCEntityEvent@@@Z
        995  3E2 00065360 ?H0x01360021_MoveThroughMarkers_09@CEnemyBase@@QAEHABVCEntityEvent@@@Z
        996  3E3 000653E0 ?H0x01360022_MoveThroughMarkers_10@CEnemyBase@@QAEHABVCEntityEvent@@@Z
        997  3E4 00064CF0 ?H0x01360023_MoveThroughMarkers_11@CEnemyBase@@QAEHABVCEntityEvent@@@Z
        998  3E5 00065480 ?H0x01360024_MoveThroughMarkers_12@CEnemyBase@@QAEHABVCEntityEvent@@@Z
        999  3E6 000655D0 ?H0x01360026_NewEnemySpotted_01@CEnemyBase@@QAEHABVCEntityEvent@@@Z
       1000  3E7 00065680 ?H0x01360027_NewEnemySpotted_02@CEnemyBase@@QAEHABVCEntityEvent@@@Z
       1001  3E8 000656E0 ?H0x01360028_NewEnemySpotted_03@CEnemyBase@@QAEHABVCEntityEvent@@@Z
       1002  3E9 00065980 ?H0x0136002c_AttackEnemy_01@CEnemyBase@@QAEHABVCEntityEvent@@@Z
       1003  3EA 00065A20 ?H0x0136002d_AttackEnemy_02@CEnemyBase@@QAEHABVCEntityEvent@@@Z
       1004  3EB 00065B00 ?H0x0136002e_AttackEnemy_03@CEnemyBase@@QAEHABVCEntityEvent@@@Z
       1005  3EC 00065BA0 ?H0x0136002f_AttackEnemy_04@CEnemyBase@@QAEHABVCEntityEvent@@@Z
       1006  3ED 00065A80 ?H0x01360030_AttackEnemy_05@CEnemyBase@@QAEHABVCEntityEvent@@@Z
       1007  3EE 00065C00 ?H0x01360031_AttackEnemy_06@CEnemyBase@@QAEHABVCEntityEvent@@@Z
       1008  3EF 00065C60 ?H0x01360032_AttackEnemy_07@CEnemyBase@@QAEHABVCEntityEvent@@@Z
       1009  3F0 00065D00 ?H0x01360033_AttackEnemy_08@CEnemyBase@@QAEHABVCEntityEvent@@@Z
       1010  3F1 00065F30 ?H0x01360035_PerformAttack_01@CEnemyBase@@QAEHABVCEntityEvent@@@Z
       1011  3F2 000663C0 ?H0x01360036_PerformAttack_02@CEnemyBase@@QAEHABVCEntityEvent@@@Z
       1012  3F3 00065E00 ?H0x01360037_PerformAttack_03@CEnemyBase@@QAEHABVCEntityEvent@@@Z
       1013  3F4 00066420 ?H0x01360038_PerformAttack_04@CEnemyBase@@QAEHABVCEntityEvent@@@Z
       1014  3F5 00066550 ?H0x0136003a_FireOrHit_01@CEnemyBase@@QAEHABVCEntityEvent@@@Z
       1015  3F6 000665F0 ?H0x0136003b_FireOrHit_02@CEnemyBase@@QAEHABVCEntityEvent@@@Z
       1016  3F7 000667E0 ?H0x0136003c_FireOrHit_03@CEnemyBase@@QAEHABVCEntityEvent@@@Z
       1017  3F8 00066880 ?H0x0136003d_FireOrHit_04@CEnemyBase@@QAEHABVCEntityEvent@@@Z
       1018  3F9 00066960 ?H0x0136003e_FireOrHit_05@CEnemyBase@@QAEHABVCEntityEvent@@@Z
       1019  3FA 000668E0 ?H0x0136003f_FireOrHit_06@CEnemyBase@@QAEHABVCEntityEvent@@@Z
       1020  3FB 000669C0 ?H0x01360040_FireOrHit_07@CEnemyBase@@QAEHABVCEntityEvent@@@Z
       1021  3FC 00066650 ?H0x01360041_FireOrHit_08@CEnemyBase@@QAEHABVCEntityEvent@@@Z
       1022  3FD 00066C20 ?H0x01360045_LockOnEnemy_01@CEnemyBase@@QAEHABVCEntityEvent@@@Z
       1023  3FE 00066D30 ?H0x01360046_LockOnEnemy_02@CEnemyBase@@QAEHABVCEntityEvent@@@Z
       1024  3FF 00066B60 ?H0x01360047_LockOnEnemy_03@CEnemyBase@@QAEHABVCEntityEvent@@@Z
       1025  400 00066D90 ?H0x01360048_LockOnEnemy_04@CEnemyBase@@QAEHABVCEntityEvent@@@Z
       1026  401 00066E70 ?H0x0136004a_ChargeHitEnemy_01@CEnemyBase@@QAEHABVCEntityEvent@@@Z
       1027  402 00067060 ?H0x0136004b_ChargeHitEnemy_02@CEnemyBase@@QAEHABVCEntityEvent@@@Z
       1028  403 00067130 ?H0x0136004c_ChargeHitEnemy_03@CEnemyBase@@QAEHABVCEntityEvent@@@Z
       1029  404 000671D0 ?H0x0136004d_ChargeHitEnemy_04@CEnemyBase@@QAEHABVCEntityEvent@@@Z
       1030  405 00067230 ?H0x0136004e_ChargeHitEnemy_05@CEnemyBase@@QAEHABVCEntityEvent@@@Z
       1031  406 00067320 ?H0x01360050_BeWounded_01@CEnemyBase@@QAEHABVCEntityEvent@@@Z
       1032  407 000673A0 ?H0x01360051_BeWounded_02@CEnemyBase@@QAEHABVCEntityEvent@@@Z
       1033  408 00067650 ?H0x01360053_Die_01@CEnemyBase@@QAEHABVCEntityEvent@@@Z
       1034  409 00067770 ?H0x01360054_Die_02@CEnemyBase@@QAEHABVCEntityEvent@@@Z
       1035  40A 000678A0 ?H0x01360056_Death_01@CEnemyBase@@QAEHABVCEntityEvent@@@Z
       1036  40B 00067920 ?H0x01360057_Death_02@CEnemyBase@@QAEHABVCEntityEvent@@@Z
       1037  40C 000679E0 ?H0x01360059_DeathSequence_01@CEnemyBase@@QAEHABVCEntityEvent@@@Z
       1038  40D 00067A80 ?H0x0136005a_DeathSequence_02@CEnemyBase@@QAEHABVCEntityEvent@@@Z
       1039  40E 00067AF0 ?H0x0136005b_DeathSequence_03@CEnemyBase@@QAEHABVCEntityEvent@@@Z
       1040  40F 00067B70 ?H0x0136005c_DeathSequence_04@CEnemyBase@@QAEHABVCEntityEvent@@@Z
       1041  410 00067C20 ?H0x0136005d_DeathSequence_05@CEnemyBase@@QAEHABVCEntityEvent@@@Z
       1042  411 00067CA0 ?H0x0136005e_DeathSequence_06@CEnemyBase@@QAEHABVCEntityEvent@@@Z
       1043  412 00067D10 ?H0x0136005f_DeathSequence_07@CEnemyBase@@QAEHABVCEntityEvent@@@Z
       1044  413 00067D90 ?H0x01360060_DeathSequence_08@CEnemyBase@@QAEHABVCEntityEvent@@@Z
       1045  414 00067E60 ?H0x01360062_Active_01@CEnemyBase@@QAEHABVCEntityEvent@@@Z
       1046  415 00068250 ?H0x01360063_Active_02@CEnemyBase@@QAEHABVCEntityEvent@@@Z
       1047  416 00068320 ?H0x01360065_Inactive_01@CEnemyBase@@QAEHABVCEntityEvent@@@Z
       1048  417 00068430 ?H0x01360066_Inactive_02@CEnemyBase@@QAEHABVCEntityEvent@@@Z
       1049  418 00068590 ?H0x01360069_MainLoop_01@CEnemyBase@@QAEHABVCEntityEvent@@@Z
       1050  419 00068610 ?H0x0136006a_MainLoop_02@CEnemyBase@@QAEHABVCEntityEvent@@@Z
       1051  41A 000687F0 ?H0x0136006b_MainLoop_03@CEnemyBase@@QAEHABVCEntityEvent@@@Z
       1052  41B 00068890 ?H0x0136006c_MainLoop_04@CEnemyBase@@QAEHABVCEntityEvent@@@Z
       1053  41C 00068960 ?H0x0136006e_StandardBehavior_01@CEnemyBase@@QAEHABVCEntityEvent@@@Z
       1054  41D 00068AC0 ?H0x0136006f_StandardBehavior_02@CEnemyBase@@QAEHABVCEntityEvent@@@Z
       1055  41E 0006B6D0 ?H0x01370002_BeWounded_01@CEnemyFly@@QAEHABVCEntityEvent@@@Z
       1056  41F 0006B770 ?H0x01370003_BeWounded_02@CEnemyFly@@QAEHABVCEntityEvent@@@Z
       1057  420 0006B7D0 ?H0x01370004_BeWounded_03@CEnemyFly@@QAEHABVCEntityEvent@@@Z
       1058  421 0006B830 ?H0x01370005_BeWounded_04@CEnemyFly@@QAEHABVCEntityEvent@@@Z
       1059  422 0006B660 ?H0x01370006_BeWounded_05@CEnemyFly@@QAEHABVCEntityEvent@@@Z
       1060  423 0006B950 ?H0x01370008_AirToGround_01@CEnemyFly@@QAEHABVCEntityEvent@@@Z
       1061  424 0006BA10 ?H0x01370009_AirToGround_02@CEnemyFly@@QAEHABVCEntityEvent@@@Z
       1062  425 0006BAB0 ?H0x0137000a_AirToGround_03@CEnemyFly@@QAEHABVCEntityEvent@@@Z
       1063  426 0006BB40 ?H0x0137000b_AirToGround_04@CEnemyFly@@QAEHABVCEntityEvent@@@Z
       1064  427 0006BC80 ?H0x0137000d_GroundToAir_01@CEnemyFly@@QAEHABVCEntityEvent@@@Z
       1065  428 0006BD10 ?H0x0137000e_GroundToAir_02@CEnemyFly@@QAEHABVCEntityEvent@@@Z
       1066  429 0006BDA0 ?H0x0137000f_GroundToAir_03@CEnemyFly@@QAEHABVCEntityEvent@@@Z
       1067  42A 0006BE30 ?H0x01370010_GroundToAir_04@CEnemyFly@@QAEHABVCEntityEvent@@@Z
       1068  42B 0006BF60 ?H0x01370012_AttackEnemy_01@CEnemyFly@@QAEHABVCEntityEvent@@@Z
       1069  42C 0006C000 ?H0x01370013_AttackEnemy_02@CEnemyFly@@QAEHABVCEntityEvent@@@Z
       1070  42D 0006C060 ?H0x01370014_AttackEnemy_03@CEnemyFly@@QAEHABVCEntityEvent@@@Z
       1071  42E 0006C140 ?H0x01370015_AttackEnemy_04@CEnemyFly@@QAEHABVCEntityEvent@@@Z
       1072  42F 0006C1E0 ?H0x01370016_AttackEnemy_05@CEnemyFly@@QAEHABVCEntityEvent@@@Z
       1073  430 0006C240 ?H0x01370017_AttackEnemy_06@CEnemyFly@@QAEHABVCEntityEvent@@@Z
       1074  431 0006C2A0 ?H0x01370018_AttackEnemy_07@CEnemyFly@@QAEHABVCEntityEvent@@@Z
       1075  432 0006C300 ?H0x01370019_AttackEnemy_08@CEnemyFly@@QAEHABVCEntityEvent@@@Z
       1076  433 0006C0C0 ?H0x0137001a_AttackEnemy_09@CEnemyFly@@QAEHABVCEntityEvent@@@Z
       1077  434 0006D630 ?H0x01380002_RotateToEnemy_01@CEnemyRunInto@@QAEHABVCEntityEvent@@@Z
       1078  435 0006D760 ?H0x01380003_RotateToEnemy_02@CEnemyRunInto@@QAEHABVCEntityEvent@@@Z
       1079  436 0006D590 ?H0x01380004_RotateToEnemy_03@CEnemyRunInto@@QAEHABVCEntityEvent@@@Z
       1080  437 0006D7C0 ?H0x01380005_RotateToEnemy_04@CEnemyRunInto@@QAEHABVCEntityEvent@@@Z
       1081  438 0006D960 ?H0x01380007_RunIntoEnemy_01@CEnemyRunInto@@QAEHABVCEntityEvent@@@Z
       1082  439 0006DC90 ?H0x01380008_RunIntoEnemy_02@CEnemyRunInto@@QAEHABVCEntityEvent@@@Z
       1083  43A 0006D8C0 ?H0x01380009_RunIntoEnemy_03@CEnemyRunInto@@QAEHABVCEntityEvent@@@Z
       1084  43B 0006DCF0 ?H0x0138000a_RunIntoEnemy_04@CEnemyRunInto@@QAEHABVCEntityEvent@@@Z
       1085  43C 0006DE00 ?H0x0138000c_RunAwayFromEnemy_01@CEnemyRunInto@@QAEHABVCEntityEvent@@@Z
       1086  43D 0006E040 ?H0x0138000d_RunAwayFromEnemy_02@CEnemyRunInto@@QAEHABVCEntityEvent@@@Z
       1087  43E 000A7810 ?H0x01910008_WorldChangeDead_01@CPlayer@@QAEHABVCEntityEvent@@@Z
       1088  43F 000A78B0 ?H0x01910009_WorldChangeDead_02@CPlayer@@QAEHABVCEntityEvent@@@Z
       1089  440 000A7F10 ?H0x0191000b_Death_01@CPlayer@@QAEHABVCEntityEvent@@@Z
       1090  441 000A8110 ?H0x0191000c_Death_02@CPlayer@@QAEHABVCEntityEvent@@@Z
       1091  442 000A8360 ?H0x0191000e_TheEnd_01@CPlayer@@QAEHABVCEntityEvent@@@Z
       1092  443 000A8390 ?H0x0191000f_TheEnd_02@CPlayer@@QAEHABVCEntityEvent@@@Z
       1093  444 000A8730 ?H0x01910013_AutoGoToMarker_01@CPlayer@@QAEHABVCEntityEvent@@@Z
       1094  445 000A87B0 ?H0x01910014_AutoGoToMarker_02@CPlayer@@QAEHABVCEntityEvent@@@Z
       1095  446 000A8650 ?H0x01910015_AutoGoToMarker_03@CPlayer@@QAEHABVCEntityEvent@@@Z
       1096  447 000A8810 ?H0x01910016_AutoGoToMarker_04@CPlayer@@QAEHABVCEntityEvent@@@Z
       1097  448 000A8A10 ?H0x01910018_AutoGoToMarkerAndStop_01@CPlayer@@QAEHABVCEntityEvent@@@Z
       1098  449 000A8A90 ?H0x01910019_AutoGoToMarkerAndStop_02@CPlayer@@QAEHABVCEntityEvent@@@Z
       1099  44A 000A8920 ?H0x0191001a_AutoGoToMarkerAndStop_03@CPlayer@@QAEHABVCEntityEvent@@@Z
       1100  44B 000A8AF0 ?H0x0191001b_AutoGoToMarkerAndStop_04@CPlayer@@QAEHABVCEntityEvent@@@Z
       1101  44C 000A8BF0 ?H0x0191001d_AutoUseItem_01@CPlayer@@QAEHABVCEntityEvent@@@Z
       1102  44D 000A8C70 ?H0x0191001e_AutoUseItem_02@CPlayer@@QAEHABVCEntityEvent@@@Z
       1103  44E 000A8D20 ?H0x0191001f_AutoUseItem_03@CPlayer@@QAEHABVCEntityEvent@@@Z
       1104  44F 000A8DA0 ?H0x01910020_AutoUseItem_04@CPlayer@@QAEHABVCEntityEvent@@@Z
       1105  450 000A8ED0 ?H0x01910021_AutoUseItem_05@CPlayer@@QAEHABVCEntityEvent@@@Z
       1106  451 000A8F50 ?H0x01910022_AutoUseItem_06@CPlayer@@QAEHABVCEntityEvent@@@Z
       1107  452 000A9030 ?H0x01910024_AutoPickItem_01@CPlayer@@QAEHABVCEntityEvent@@@Z
       1108  453 000A90B0 ?H0x01910025_AutoPickItem_02@CPlayer@@QAEHABVCEntityEvent@@@Z
       1109  454 000A9220 ?H0x01910026_AutoPickItem_03@CPlayer@@QAEHABVCEntityEvent@@@Z
       1110  455 000A92A0 ?H0x01910027_AutoPickItem_04@CPlayer@@QAEHABVCEntityEvent@@@Z
       1111  456 000A93A0 ?H0x01910029_AutoFallDown_01@CPlayer@@QAEHABVCEntityEvent@@@Z
       1112  457 000A9420 ?H0x0191002a_AutoFallDown_02@CPlayer@@QAEHABVCEntityEvent@@@Z
       1113  458 000A9520 ?H0x0191002c_AutoFallToAbys_01@CPlayer@@QAEHABVCEntityEvent@@@Z
       1114  459 000A95A0 ?H0x0191002d_AutoFallToAbys_02@CPlayer@@QAEHABVCEntityEvent@@@Z
       1115  45A 000A96D0 ?H0x0191002f_AutoLookAround_01@CPlayer@@QAEHABVCEntityEvent@@@Z
       1116  45B 000A9750 ?H0x01910030_AutoLookAround_02@CPlayer@@QAEHABVCEntityEvent@@@Z
       1117  45C 000A9820 ?H0x01910031_AutoLookAround_03@CPlayer@@QAEHABVCEntityEvent@@@Z
       1118  45D 000A98A0 ?H0x01910032_AutoLookAround_04@CPlayer@@QAEHABVCEntityEvent@@@Z
       1119  45E 000A9A60 ?H0x01910035_AutoAppear_01@CPlayer@@QAEHABVCEntityEvent@@@Z
       1120  45F 000A9AE0 ?H0x01910036_AutoAppear_02@CPlayer@@QAEHABVCEntityEvent@@@Z
       1121  460 000A9B60 ?H0x01910037_AutoAppear_03@CPlayer@@QAEHABVCEntityEvent@@@Z
       1122  461 000A9BE0 ?H0x01910038_AutoAppear_04@CPlayer@@QAEHABVCEntityEvent@@@Z
       1123  462 000A9CD0 ?H0x01910039_AutoAppear_05@CPlayer@@QAEHABVCEntityEvent@@@Z
       1124  463 000A9D50 ?H0x0191003a_AutoAppear_06@CPlayer@@QAEHABVCEntityEvent@@@Z
       1125  464 000A9DF0 ?H0x0191003b_AutoAppear_07@CPlayer@@QAEHABVCEntityEvent@@@Z
       1126  465 000A9E70 ?H0x0191003c_AutoAppear_08@CPlayer@@QAEHABVCEntityEvent@@@Z
       1127  466 000A9FD0 ?H0x0191003e_TravellingInBeam_01@CPlayer@@QAEHABVCEntityEvent@@@Z
       1128  467 000AA050 ?H0x0191003f_TravellingInBeam_02@CPlayer@@QAEHABVCEntityEvent@@@Z
       1129  468 000AA1F0 ?H0x01910041_LogoFireMinigun_01@CPlayer@@QAEHABVCEntityEvent@@@Z
       1130  469 000AA270 ?H0x01910042_LogoFireMinigun_02@CPlayer@@QAEHABVCEntityEvent@@@Z
       1131  46A 000AA320 ?H0x01910043_LogoFireMinigun_03@CPlayer@@QAEHABVCEntityEvent@@@Z
       1132  46B 000AA3A0 ?H0x01910044_LogoFireMinigun_04@CPlayer@@QAEHABVCEntityEvent@@@Z
       1133  46C 000AA490 ?H0x01910045_LogoFireMinigun_05@CPlayer@@QAEHABVCEntityEvent@@@Z
       1134  46D 000AA510 ?H0x01910046_LogoFireMinigun_06@CPlayer@@QAEHABVCEntityEvent@@@Z
       1135  46E 000AA600 ?H0x01910048_AutoStoreWeapon_01@CPlayer@@QAEHABVCEntityEvent@@@Z
       1136  46F 000AA680 ?H0x01910049_AutoStoreWeapon_02@CPlayer@@QAEHABVCEntityEvent@@@Z
       1137  470 000AA780 ?H0x0191004a_AutoStoreWeapon_03@CPlayer@@QAEHABVCEntityEvent@@@Z
       1138  471 000AA800 ?H0x0191004b_AutoStoreWeapon_04@CPlayer@@QAEHABVCEntityEvent@@@Z
       1139  472 000AA9F0 ?H0x0191004d_DoAutoActions_01@CPlayer@@QAEHABVCEntityEvent@@@Z
       1140  473 000AAA70 ?H0x0191004e_DoAutoActions_02@CPlayer@@QAEHABVCEntityEvent@@@Z
       1141  474 000AAB60 ?H0x0191004f_DoAutoActions_03@CPlayer@@QAEHABVCEntityEvent@@@Z
       1142  475 000AAC00 ?H0x01910050_DoAutoActions_04@CPlayer@@QAEHABVCEntityEvent@@@Z
       1143  476 000AACF0 ?H0x01910051_DoAutoActions_05@CPlayer@@QAEHABVCEntityEvent@@@Z
       1144  477 000AAD90 ?H0x01910052_DoAutoActions_06@CPlayer@@QAEHABVCEntityEvent@@@Z
       1145  478 000AAE80 ?H0x01910053_DoAutoActions_07@CPlayer@@QAEHABVCEntityEvent@@@Z
       1146  479 000AAF20 ?H0x01910054_DoAutoActions_08@CPlayer@@QAEHABVCEntityEvent@@@Z
       1147  47A 000AB010 ?H0x01910055_DoAutoActions_09@CPlayer@@QAEHABVCEntityEvent@@@Z
       1148  47B 000AB0B0 ?H0x01910056_DoAutoActions_10@CPlayer@@QAEHABVCEntityEvent@@@Z
       1149  47C 000AB1A0 ?H0x01910057_DoAutoActions_11@CPlayer@@QAEHABVCEntityEvent@@@Z
       1150  47D 000AB1C0 ?H0x01910058_DoAutoActions_12@CPlayer@@QAEHABVCEntityEvent@@@Z
       1151  47E 000AB2B0 ?H0x01910059_DoAutoActions_13@CPlayer@@QAEHABVCEntityEvent@@@Z
       1152  47F 000AB350 ?H0x0191005a_DoAutoActions_14@CPlayer@@QAEHABVCEntityEvent@@@Z
       1153  480 000AB4F0 ?H0x0191005b_DoAutoActions_15@CPlayer@@QAEHABVCEntityEvent@@@Z
       1154  481 000AB590 ?H0x0191005c_DoAutoActions_16@CPlayer@@QAEHABVCEntityEvent@@@Z
       1155  482 000AB680 ?H0x0191005d_DoAutoActions_17@CPlayer@@QAEHABVCEntityEvent@@@Z
       1156  483 000AB720 ?H0x0191005e_DoAutoActions_18@CPlayer@@QAEHABVCEntityEvent@@@Z
       1157  484 000AB810 ?H0x0191005f_DoAutoActions_19@CPlayer@@QAEHABVCEntityEvent@@@Z
       1158  485 000AB8B0 ?H0x01910060_DoAutoActions_20@CPlayer@@QAEHABVCEntityEvent@@@Z
       1159  486 000AB9A0 ?H0x01910061_DoAutoActions_21@CPlayer@@QAEHABVCEntityEvent@@@Z
       1160  487 000ABA40 ?H0x01910062_DoAutoActions_22@CPlayer@@QAEHABVCEntityEvent@@@Z
       1161  488 000ABF60 ?H0x01910063_DoAutoActions_23@CPlayer@@QAEHABVCEntityEvent@@@Z
       1162  489 000AC000 ?H0x01910064_DoAutoActions_24@CPlayer@@QAEHABVCEntityEvent@@@Z
       1163  48A 000AC100 ?H0x01910065_DoAutoActions_25@CPlayer@@QAEHABVCEntityEvent@@@Z
       1164  48B 000AC1A0 ?H0x01910066_DoAutoActions_26@CPlayer@@QAEHABVCEntityEvent@@@Z
       1165  48C 000AC470 ?H0x01910067_DoAutoActions_27@CPlayer@@QAEHABVCEntityEvent@@@Z
       1166  48D 000AC520 ?H0x01910068_DoAutoActions_28@CPlayer@@QAEHABVCEntityEvent@@@Z
       1167  48E 000AC3E0 ?H0x01910069_DoAutoActions_29@CPlayer@@QAEHABVCEntityEvent@@@Z
       1168  48F 000AC580 ?H0x0191006a_DoAutoActions_30@CPlayer@@QAEHABVCEntityEvent@@@Z
       1169  490 000AC5F0 ?H0x0191006b_DoAutoActions_31@CPlayer@@QAEHABVCEntityEvent@@@Z
       1170  491 000AC740 ?H0x0191006c_DoAutoActions_32@CPlayer@@QAEHABVCEntityEvent@@@Z
       1171  492 000AC650 ?H0x0191006d_DoAutoActions_33@CPlayer@@QAEHABVCEntityEvent@@@Z
       1172  493 000AC7A0 ?H0x0191006e_DoAutoActions_34@CPlayer@@QAEHABVCEntityEvent@@@Z
       1173  494 000AC2F0 ?H0x0191006f_DoAutoActions_35@CPlayer@@QAEHABVCEntityEvent@@@Z
       1174  495 000AC800 ?H0x01910070_DoAutoActions_36@CPlayer@@QAEHABVCEntityEvent@@@Z
       1175  496 000AC200 ?H0x01910071_DoAutoActions_37@CPlayer@@QAEHABVCEntityEvent@@@Z
       1176  497 000AC860 ?H0x01910072_DoAutoActions_38@CPlayer@@QAEHABVCEntityEvent@@@Z
       1177  498 000AC060 ?H0x01910073_DoAutoActions_39@CPlayer@@QAEHABVCEntityEvent@@@Z
       1178  499 000AC8C0 ?H0x01910074_DoAutoActions_40@CPlayer@@QAEHABVCEntityEvent@@@Z
       1179  49A 000ABEC0 ?H0x01910075_DoAutoActions_41@CPlayer@@QAEHABVCEntityEvent@@@Z
       1180  49B 000AC920 ?H0x01910076_DoAutoActions_42@CPlayer@@QAEHABVCEntityEvent@@@Z
       1181  49C 000ABE00 ?H0x01910077_DoAutoActions_43@CPlayer@@QAEHABVCEntityEvent@@@Z
       1182  49D 000AC980 ?H0x01910078_DoAutoActions_44@CPlayer@@QAEHABVCEntityEvent@@@Z
       1183  49E 000ABD40 ?H0x01910079_DoAutoActions_45@CPlayer@@QAEHABVCEntityEvent@@@Z
       1184  49F 000AC9E0 ?H0x0191007a_DoAutoActions_46@CPlayer@@QAEHABVCEntityEvent@@@Z
       1185  4A0 000ABC80 ?H0x0191007b_DoAutoActions_47@CPlayer@@QAEHABVCEntityEvent@@@Z
       1186  4A1 000ACA40 ?H0x0191007c_DoAutoActions_48@CPlayer@@QAEHABVCEntityEvent@@@Z
       1187  4A2 000ABBC0 ?H0x0191007d_DoAutoActions_49@CPlayer@@QAEHABVCEntityEvent@@@Z
       1188  4A3 000ACAA0 ?H0x0191007e_DoAutoActions_50@CPlayer@@QAEHABVCEntityEvent@@@Z
       1189  4A4 000ABAA0 ?H0x0191007f_DoAutoActions_51@CPlayer@@QAEHABVCEntityEvent@@@Z
       1190  4A5 000ACB00 ?H0x01910080_DoAutoActions_52@CPlayer@@QAEHABVCEntityEvent@@@Z
       1191  4A6 000AB910 ?H0x01910081_DoAutoActions_53@CPlayer@@QAEHABVCEntityEvent@@@Z
       1192  4A7 000ACB60 ?H0x01910082_DoAutoActions_54@CPlayer@@QAEHABVCEntityEvent@@@Z
       1193  4A8 000AB780 ?H0x01910083_DoAutoActions_55@CPlayer@@QAEHABVCEntityEvent@@@Z
       1194  4A9 000ACBC0 ?H0x01910084_DoAutoActions_56@CPlayer@@QAEHABVCEntityEvent@@@Z
       1195  4AA 000AB5F0 ?H0x01910085_DoAutoActions_57@CPlayer@@QAEHABVCEntityEvent@@@Z
       1196  4AB 000ACC20 ?H0x01910086_DoAutoActions_58@CPlayer@@QAEHABVCEntityEvent@@@Z
       1197  4AC 000AB460 ?H0x01910087_DoAutoActions_59@CPlayer@@QAEHABVCEntityEvent@@@Z
       1198  4AD 000ACC80 ?H0x01910088_DoAutoActions_60@CPlayer@@QAEHABVCEntityEvent@@@Z
       1199  4AE 000AB3B0 ?H0x01910089_DoAutoActions_61@CPlayer@@QAEHABVCEntityEvent@@@Z
       1200  4AF 000ACCE0 ?H0x0191008a_DoAutoActions_62@CPlayer@@QAEHABVCEntityEvent@@@Z
       1201  4B0 000AB220 ?H0x0191008b_DoAutoActions_63@CPlayer@@QAEHABVCEntityEvent@@@Z
       1202  4B1 000ACD40 ?H0x0191008c_DoAutoActions_64@CPlayer@@QAEHABVCEntityEvent@@@Z
       1203  4B2 000AB110 ?H0x0191008d_DoAutoActions_65@CPlayer@@QAEHABVCEntityEvent@@@Z
       1204  4B3 000ACDA0 ?H0x0191008e_DoAutoActions_66@CPlayer@@QAEHABVCEntityEvent@@@Z
       1205  4B4 000AAF80 ?H0x0191008f_DoAutoActions_67@CPlayer@@QAEHABVCEntityEvent@@@Z
       1206  4B5 000ACE00 ?H0x01910090_DoAutoActions_68@CPlayer@@QAEHABVCEntityEvent@@@Z
       1207  4B6 000AADF0 ?H0x01910091_DoAutoActions_69@CPlayer@@QAEHABVCEntityEvent@@@Z
       1208  4B7 000ACE60 ?H0x01910092_DoAutoActions_70@CPlayer@@QAEHABVCEntityEvent@@@Z
       1209  4B8 000AAC60 ?H0x01910093_DoAutoActions_71@CPlayer@@QAEHABVCEntityEvent@@@Z
       1210  4B9 000ACEC0 ?H0x01910094_DoAutoActions_72@CPlayer@@QAEHABVCEntityEvent@@@Z
       1211  4BA 000AAAD0 ?H0x01910095_DoAutoActions_73@CPlayer@@QAEHABVCEntityEvent@@@Z
       1212  4BB 000AA900 ?H0x01910096_DoAutoActions_74@CPlayer@@QAEHABVCEntityEvent@@@Z
       1213  4BC 000ACFA0 ?H0x01910097_DoAutoActions_75@CPlayer@@QAEHABVCEntityEvent@@@Z
       1214  4BD 000AD170 ?H0x01910098_Main_01@CPlayer@@QAEHABVCEntityEvent@@@Z
       1215  4BE 000AD230 ?H0x01910099_Main_02@CPlayer@@QAEHABVCEntityEvent@@@Z
       1216  4BF 000AD570 ?H0x0191009a_Main_03@CPlayer@@QAEHABVCEntityEvent@@@Z
       1217  4C0 000ADBA0 ?H0x0191009b_Main_04@CPlayer@@QAEHABVCEntityEvent@@@Z
       1218  4C1 000BCC90 ?H0x01920007_ChangeWeapon_01@CPlayerWeapons@@QAEHABVCEntityEvent@@@Z
       1219  4C2 000BCD30 ?H0x01920008_ChangeWeapon_02@CPlayerWeapons@@QAEHABVCEntityEvent@@@Z
       1220  4C3 000BCDA0 ?H0x01920009_ChangeWeapon_03@CPlayerWeapons@@QAEHABVCEntityEvent@@@Z
       1221  4C4 000BCE40 ?H0x0192000a_ChangeWeapon_04@CPlayerWeapons@@QAEHABVCEntityEvent@@@Z
       1222  4C5 000BCF30 ?H0x0192000b_ChangeWeapon_05@CPlayerWeapons@@QAEHABVCEntityEvent@@@Z
       1223  4C6 000BCFD0 ?H0x0192000c_ChangeWeapon_06@CPlayerWeapons@@QAEHABVCEntityEvent@@@Z
       1224  4C7 000BD030 ?H0x0192000d_ChangeWeapon_07@CPlayerWeapons@@QAEHABVCEntityEvent@@@Z
       1225  4C8 000BD090 ?H0x0192000e_ChangeWeapon_08@CPlayerWeapons@@QAEHABVCEntityEvent@@@Z
       1226  4C9 000BCEA0 ?H0x0192000f_ChangeWeapon_09@CPlayerWeapons@@QAEHABVCEntityEvent@@@Z
       1227  4CA 000BD2D0 ?H0x01920011_PutDown_01@CPlayerWeapons@@QAEHABVCEntityEvent@@@Z
       1228  4CB 000BD350 ?H0x01920012_PutDown_02@CPlayerWeapons@@QAEHABVCEntityEvent@@@Z
       1229  4CC 000BD3B0 ?H0x01920013_PutDown_03@CPlayerWeapons@@QAEHABVCEntityEvent@@@Z
       1230  4CD 000BD490 ?H0x01920014_PutDown_04@CPlayerWeapons@@QAEHABVCEntityEvent@@@Z
       1231  4CE 000BD510 ?H0x01920015_PutDown_05@CPlayerWeapons@@QAEHABVCEntityEvent@@@Z
       1232  4CF 000BD7C0 ?H0x01920017_BringUp_01@CPlayerWeapons@@QAEHABVCEntityEvent@@@Z
       1233  4D0 000BD840 ?H0x01920018_BringUp_02@CPlayerWeapons@@QAEHABVCEntityEvent@@@Z
       1234  4D1 000BD8B0 ?H0x01920019_BringUp_03@CPlayerWeapons@@QAEHABVCEntityEvent@@@Z
       1235  4D2 000BD940 ?H0x0192001a_BringUp_04@CPlayerWeapons@@QAEHABVCEntityEvent@@@Z
       1236  4D3 000BD9C0 ?H0x0192001b_BringUp_05@CPlayerWeapons@@QAEHABVCEntityEvent@@@Z
       1237  4D4 000BDC30 ?H0x0192001d_Fire_01@CPlayerWeapons@@QAEHABVCEntityEvent@@@Z
       1238  4D5 000BDCD0 ?H0x0192001e_Fire_02@CPlayerWeapons@@QAEHABVCEntityEvent@@@Z
       1239  4D6 000BDDB0 ?H0x0192001f_Fire_03@CPlayerWeapons@@QAEHABVCEntityEvent@@@Z
       1240  4D7 000BDD30 ?H0x01920020_Fire_04@CPlayerWeapons@@QAEHABVCEntityEvent@@@Z
       1241  4D8 000BDE10 ?H0x01920021_Fire_05@CPlayerWeapons@@QAEHABVCEntityEvent@@@Z
       1242  4D9 000BDBB0 ?H0x01920022_Fire_06@CPlayerWeapons@@QAEHABVCEntityEvent@@@Z
       1243  4DA 000BDE70 ?H0x01920023_Fire_07@CPlayerWeapons@@QAEHABVCEntityEvent@@@Z
       1244  4DB 000BDB20 ?H0x01920024_Fire_08@CPlayerWeapons@@QAEHABVCEntityEvent@@@Z
       1245  4DC 000BDFE0 ?H0x01920025_Fire_09@CPlayerWeapons@@QAEHABVCEntityEvent@@@Z
       1246  4DD 000BE230 ?H0x01920026_Fire_10@CPlayerWeapons@@QAEHABVCEntityEvent@@@Z
       1247  4DE 000BDF00 ?H0x01920027_Fire_11@CPlayerWeapons@@QAEHABVCEntityEvent@@@Z
       1248  4DF 000BE290 ?H0x01920028_Fire_12@CPlayerWeapons@@QAEHABVCEntityEvent@@@Z
       1249  4E0 000BE510 ?H0x0192002a_SwingKnife_01@CPlayerWeapons@@QAEHABVCEntityEvent@@@Z
       1250  4E1 000BE590 ?H0x0192002b_SwingKnife_02@CPlayerWeapons@@QAEHABVCEntityEvent@@@Z
       1251  4E2 000BE660 ?H0x0192002c_SwingKnife_03@CPlayerWeapons@@QAEHABVCEntityEvent@@@Z
       1252  4E3 000BE6E0 ?H0x0192002d_SwingKnife_04@CPlayerWeapons@@QAEHABVCEntityEvent@@@Z
       1253  4E4 000BE770 ?H0x0192002e_SwingKnife_05@CPlayerWeapons@@QAEHABVCEntityEvent@@@Z
       1254  4E5 000BE7F0 ?H0x0192002f_SwingKnife_06@CPlayerWeapons@@QAEHABVCEntityEvent@@@Z
       1255  4E6 000BE850 ?H0x01920030_SwingKnife_07@CPlayerWeapons@@QAEHABVCEntityEvent@@@Z
       1256  4E7 000BE8B0 ?H0x01920031_SwingKnife_08@CPlayerWeapons@@QAEHABVCEntityEvent@@@Z
       1257  4E8 000BE5F0 ?H0x01920032_SwingKnife_09@CPlayerWeapons@@QAEHABVCEntityEvent@@@Z
       1258  4E9 000BE970 ?H0x01920033_SwingKnife_10@CPlayerWeapons@@QAEHABVCEntityEvent@@@Z
       1259  4EA 000BE9F0 ?H0x01920034_SwingKnife_11@CPlayerWeapons@@QAEHABVCEntityEvent@@@Z
       1260  4EB 000BEA50 ?H0x01920035_SwingKnife_12@CPlayerWeapons@@QAEHABVCEntityEvent@@@Z
       1261  4EC 000BEBF0 ?H0x01920037_FireColt_01@CPlayerWeapons@@QAEHABVCEntityEvent@@@Z
       1262  4ED 000BEC70 ?H0x01920038_FireColt_02@CPlayerWeapons@@QAEHABVCEntityEvent@@@Z
       1263  4EE 000BEDF0 ?H0x0192003a_ReloadColt_01@CPlayerWeapons@@QAEHABVCEntityEvent@@@Z
       1264  4EF 000BEE70 ?H0x0192003b_ReloadColt_02@CPlayerWeapons@@QAEHABVCEntityEvent@@@Z
       1265  4F0 000BF020 ?H0x0192003d_FireDoubleColt_01@CPlayerWeapons@@QAEHABVCEntityEvent@@@Z
       1266  4F1 000BF0A0 ?H0x0192003e_FireDoubleColt_02@CPlayerWeapons@@QAEHABVCEntityEvent@@@Z
       1267  4F2 000BF1C0 ?H0x0192003f_FireDoubleColt_03@CPlayerWeapons@@QAEHABVCEntityEvent@@@Z
       1268  4F3 000BF240 ?H0x01920040_FireDoubleColt_04@CPlayerWeapons@@QAEHABVCEntityEvent@@@Z
       1269  4F4 000BF3B0 ?H0x01920042_ReloadDoubleColt_01@CPlayerWeapons@@QAEHABVCEntityEvent@@@Z
       1270  4F5 000BF430 ?H0x01920043_ReloadDoubleColt_02@CPlayerWeapons@@QAEHABVCEntityEvent@@@Z
       1271  4F6 000BF4E0 ?H0x01920044_ReloadDoubleColt_03@CPlayerWeapons@@QAEHABVCEntityEvent@@@Z
       1272  4F7 000BF560 ?H0x01920045_ReloadDoubleColt_04@CPlayerWeapons@@QAEHABVCEntityEvent@@@Z
       1273  4F8 000BF950 ?H0x01920047_FireSingleShotgun_01@CPlayerWeapons@@QAEHABVCEntityEvent@@@Z
       1274  4F9 000BF9D0 ?H0x01920048_FireSingleShotgun_02@CPlayerWeapons@@QAEHABVCEntityEvent@@@Z
       1275  4FA 000BFC00 ?H0x01920049_FireSingleShotgun_03@CPlayerWeapons@@QAEHABVCEntityEvent@@@Z
       1276  4FB 000BFC80 ?H0x0192004a_FireSingleShotgun_04@CPlayerWeapons@@QAEHABVCEntityEvent@@@Z
       1277  4FC 000BFD60 ?H0x0192004b_FireSingleShotgun_05@CPlayerWeapons@@QAEHABVCEntityEvent@@@Z
       1278  4FD 000BFCF0 ?H0x0192004c_FireSingleShotgun_06@CPlayerWeapons@@QAEHABVCEntityEvent@@@Z
       1279  4FE 000C02E0 ?H0x0192004e_FireDoubleShotgun_01@CPlayerWeapons@@QAEHABVCEntityEvent@@@Z
       1280  4FF 000C0360 ?H0x0192004f_FireDoubleShotgun_02@CPlayerWeapons@@QAEHABVCEntityEvent@@@Z
       1281  500 000C0440 ?H0x01920050_FireDoubleShotgun_03@CPlayerWeapons@@QAEHABVCEntityEvent@@@Z
       1282  501 000C04C0 ?H0x01920051_FireDoubleShotgun_04@CPlayerWeapons@@QAEHABVCEntityEvent@@@Z
       1283  502 000C05A0 ?H0x01920052_FireDoubleShotgun_05@CPlayerWeapons@@QAEHABVCEntityEvent@@@Z
       1284  503 000C0530 ?H0x01920053_FireDoubleShotgun_06@CPlayerWeapons@@QAEHABVCEntityEvent@@@Z
       1285  504 000C0D70 ?H0x01920057_FireTommyGun_01@CPlayerWeapons@@QAEHABVCEntityEvent@@@Z
       1286  505 000C0DF0 ?H0x01920058_FireTommyGun_02@CPlayerWeapons@@QAEHABVCEntityEvent@@@Z
       1287  506 000C0ED0 ?H0x01920059_FireTommyGun_03@CPlayerWeapons@@QAEHABVCEntityEvent@@@Z
       1288  507 000C0E60 ?H0x0192005a_FireTommyGun_04@CPlayerWeapons@@QAEHABVCEntityEvent@@@Z
       1289  508 000C1140 ?H0x0192005c_MiniGunSpinUp_01@CPlayerWeapons@@QAEHABVCEntityEvent@@@Z
       1290  509 000C11C0 ?H0x0192005d_MiniGunSpinUp_02@CPlayerWeapons@@QAEHABVCEntityEvent@@@Z
       1291  50A 000C10A0 ?H0x0192005e_MiniGunSpinUp_03@CPlayerWeapons@@QAEHABVCEntityEvent@@@Z
       1292  50B 000C1260 ?H0x0192005f_MiniGunSpinUp_04@CPlayerWeapons@@QAEHABVCEntityEvent@@@Z
       1293  50C 000C1880 ?H0x01920061_MiniGunFire_01@CPlayerWeapons@@QAEHABVCEntityEvent@@@Z
       1294  50D 000C1900 ?H0x01920062_MiniGunFire_02@CPlayerWeapons@@QAEHABVCEntityEvent@@@Z
       1295  50E 000C13D0 ?H0x01920063_MiniGunFire_03@CPlayerWeapons@@QAEHABVCEntityEvent@@@Z
       1296  50F 000C1980 ?H0x01920064_MiniGunFire_04@CPlayerWeapons@@QAEHABVCEntityEvent@@@Z
       1297  510 000C1B90 ?H0x01920066_MiniGunSpinDown_01@CPlayerWeapons@@QAEHABVCEntityEvent@@@Z
       1298  511 000C1C10 ?H0x01920067_MiniGunSpinDown_02@CPlayerWeapons@@QAEHABVCEntityEvent@@@Z
       1299  512 000C1AE0 ?H0x01920068_MiniGunSpinDown_03@CPlayerWeapons@@QAEHABVCEntityEvent@@@Z
       1300  513 000C1D10 ?H0x01920069_MiniGunSpinDown_04@CPlayerWeapons@@QAEHABVCEntityEvent@@@Z
       1301  514 000C1EB0 ?H0x0192006a_MiniGunSpinDown_05@CPlayerWeapons@@QAEHABVCEntityEvent@@@Z
       1302  515 000C1F30 ?H0x0192006b_MiniGunSpinDown_06@CPlayerWeapons@@QAEHABVCEntityEvent@@@Z
       1303  516 000C1E10 ?H0x0192006c_MiniGunSpinDown_07@CPlayerWeapons@@QAEHABVCEntityEvent@@@Z
       1304  517 000C1F90 ?H0x0192006d_MiniGunSpinDown_08@CPlayerWeapons@@QAEHABVCEntityEvent@@@Z
       1305  518 000C2000 ?H0x0192006e_MiniGunSpinDown_09@CPlayerWeapons@@QAEHABVCEntityEvent@@@Z
       1306  519 000C2170 ?H0x01920070_FireRocketLauncher_01@CPlayerWeapons@@QAEHABVCEntityEvent@@@Z
       1307  51A 000C21F0 ?H0x01920071_FireRocketLauncher_02@CPlayerWeapons@@QAEHABVCEntityEvent@@@Z
       1308  51B 000C22A0 ?H0x01920072_FireRocketLauncher_03@CPlayerWeapons@@QAEHABVCEntityEvent@@@Z
       1309  51C 000C2320 ?H0x01920073_FireRocketLauncher_04@CPlayerWeapons@@QAEHABVCEntityEvent@@@Z
       1310  51D 000C2430 ?H0x01920074_FireRocketLauncher_05@CPlayerWeapons@@QAEHABVCEntityEvent@@@Z
       1311  51E 000C23C0 ?H0x01920075_FireRocketLauncher_06@CPlayerWeapons@@QAEHABVCEntityEvent@@@Z
       1312  51F 000C25F0 ?H0x01920077_FireGrenadeLauncher_01@CPlayerWeapons@@QAEHABVCEntityEvent@@@Z
       1313  520 000C2670 ?H0x01920078_FireGrenadeLauncher_02@CPlayerWeapons@@QAEHABVCEntityEvent@@@Z
       1314  521 000C2540 ?H0x01920079_FireGrenadeLauncher_03@CPlayerWeapons@@QAEHABVCEntityEvent@@@Z
       1315  522 000C2720 ?H0x0192007a_FireGrenadeLauncher_04@CPlayerWeapons@@QAEHABVCEntityEvent@@@Z
       1316  523 000C28E0 ?H0x0192007b_FireGrenadeLauncher_05@CPlayerWeapons@@QAEHABVCEntityEvent@@@Z
       1317  524 000C2960 ?H0x0192007c_FireGrenadeLauncher_06@CPlayerWeapons@@QAEHABVCEntityEvent@@@Z
       1318  525 000C2840 ?H0x0192007d_FireGrenadeLauncher_07@CPlayerWeapons@@QAEHABVCEntityEvent@@@Z
       1319  526 000C2A10 ?H0x0192007e_FireGrenadeLauncher_08@CPlayerWeapons@@QAEHABVCEntityEvent@@@Z
       1320  527 000C2B10 ?H0x0192007f_FireGrenadeLauncher_09@CPlayerWeapons@@QAEHABVCEntityEvent@@@Z
       1321  528 000C2B90 ?H0x01920080_FireGrenadeLauncher_10@CPlayerWeapons@@QAEHABVCEntityEvent@@@Z
       1322  529 000C2BF0 ?H0x01920081_FireGrenadeLauncher_11@CPlayerWeapons@@QAEHABVCEntityEvent@@@Z
       1323  52A 000C2C50 ?H0x01920082_FireGrenadeLauncher_12@CPlayerWeapons@@QAEHABVCEntityEvent@@@Z
       1324  52B 000C2AA0 ?H0x01920083_FireGrenadeLauncher_13@CPlayerWeapons@@QAEHABVCEntityEvent@@@Z
       1325  52C 000C2D20 ?H0x01920084_FireGrenadeLauncher_14@CPlayerWeapons@@QAEHABVCEntityEvent@@@Z
       1326  52D 000C2CB0 ?H0x01920085_FireGrenadeLauncher_15@CPlayerWeapons@@QAEHABVCEntityEvent@@@Z
       1327  52E 000C2E10 ?H0x01920087_FireLaser_01@CPlayerWeapons@@QAEHABVCEntityEvent@@@Z
       1328  52F 000C2E90 ?H0x01920088_FireLaser_02@CPlayerWeapons@@QAEHABVCEntityEvent@@@Z
       1329  530 000C3090 ?H0x01920089_FireLaser_03@CPlayerWeapons@@QAEHABVCEntityEvent@@@Z
       1330  531 000C3020 ?H0x0192008a_FireLaser_04@CPlayerWeapons@@QAEHABVCEntityEvent@@@Z
       1331  532 000C3280 ?H0x0192008c_CannonFireStart_01@CPlayerWeapons@@QAEHABVCEntityEvent@@@Z
       1332  533 000C3300 ?H0x0192008d_CannonFireStart_02@CPlayerWeapons@@QAEHABVCEntityEvent@@@Z
       1333  534 000C31D0 ?H0x0192008e_CannonFireStart_03@CPlayerWeapons@@QAEHABVCEntityEvent@@@Z
       1334  535 000C33B0 ?H0x0192008f_CannonFireStart_04@CPlayerWeapons@@QAEHABVCEntityEvent@@@Z
       1335  536 000C3630 ?H0x01920090_CannonFireStart_05@CPlayerWeapons@@QAEHABVCEntityEvent@@@Z
       1336  537 000C36B0 ?H0x01920091_CannonFireStart_06@CPlayerWeapons@@QAEHABVCEntityEvent@@@Z
       1337  538 000C3560 ?H0x01920092_CannonFireStart_07@CPlayerWeapons@@QAEHABVCEntityEvent@@@Z
       1338  539 000C3750 ?H0x01920093_CannonFireStart_08@CPlayerWeapons@@QAEHABVCEntityEvent@@@Z
       1339  53A 000C3840 ?H0x01920094_CannonFireStart_09@CPlayerWeapons@@QAEHABVCEntityEvent@@@Z
       1340  53B 000C37D0 ?H0x01920095_CannonFireStart_10@CPlayerWeapons@@QAEHABVCEntityEvent@@@Z
       1341  53C 000C3930 ?H0x01920097_Reload_01@CPlayerWeapons@@QAEHABVCEntityEvent@@@Z
       1342  53D 000C39D0 ?H0x01920098_Reload_02@CPlayerWeapons@@QAEHABVCEntityEvent@@@Z
       1343  53E 000C3AB0 ?H0x01920099_Reload_03@CPlayerWeapons@@QAEHABVCEntityEvent@@@Z
       1344  53F 000C3B50 ?H0x0192009a_Reload_04@CPlayerWeapons@@QAEHABVCEntityEvent@@@Z
       1345  540 000C3BB0 ?H0x0192009b_Reload_05@CPlayerWeapons@@QAEHABVCEntityEvent@@@Z
       1346  541 000C3C10 ?H0x0192009c_Reload_06@CPlayerWeapons@@QAEHABVCEntityEvent@@@Z
       1347  542 000C3A30 ?H0x0192009d_Reload_07@CPlayerWeapons@@QAEHABVCEntityEvent@@@Z
       1348  543 000C3E90 ?H0x019200a1_BoringWeaponAnimation_01@CPlayerWeapons@@QAEHABVCEntityEvent@@@Z
       1349  544 000C3F10 ?H0x019200a2_BoringWeaponAnimation_02@CPlayerWeapons@@QAEHABVCEntityEvent@@@Z
       1350  545 000C3F70 ?H0x019200a3_BoringWeaponAnimation_03@CPlayerWeapons@@QAEHABVCEntityEvent@@@Z
       1351  546 000C4040 ?H0x019200a5_Idle_01@CPlayerWeapons@@QAEHABVCEntityEvent@@@Z
       1352  547 000C41D0 ?H0x019200a6_Idle_02@CPlayerWeapons@@QAEHABVCEntityEvent@@@Z
       1353  548 000C4290 ?H0x019200a8_Stopped_01@CPlayerWeapons@@QAEHABVCEntityEvent@@@Z
       1354  549 000C4310 ?H0x019200a9_Stopped_02@CPlayerWeapons@@QAEHABVCEntityEvent@@@Z
       1355  54A 000C43F0 ?H0x019200aa_Main_01@CPlayerWeapons@@QAEHABVCEntityEvent@@@Z
       1356  54B 000C4550 ?H0x019200ab_Main_02@CPlayerWeapons@@QAEHABVCEntityEvent@@@Z
       1357  54C 000B3CC0 ?H0x01930001_Main_01@CPlayerView@@QAEHABVCEntityEvent@@@Z
       1358  54D 000B3DB0 ?H0x01930002_Main_02@CPlayerView@@QAEHABVCEntityEvent@@@Z
       1359  54E 000B2170 ?H0x01960002_Main_01@CPlayerAnimator@@QAEHABVCEntityEvent@@@Z
       1360  54F 000B2220 ?H0x01960003_Main_02@CPlayerAnimator@@QAEHABVCEntityEvent@@@Z
       1361  550 000CBDD0 ?H0x01f50002_ProjectileFly_01@CProjectile@@QAEHABVCEntityEvent@@@Z
       1362  551 000CC010 ?H0x01f50003_ProjectileFly_02@CProjectile@@QAEHABVCEntityEvent@@@Z
       1363  552 000CC480 ?H0x01f50005_ProjectileGuidedFly_01@CProjectile@@QAEHABVCEntityEvent@@@Z
       1364  553 000CC650 ?H0x01f50006_ProjectileGuidedFly_02@CProjectile@@QAEHABVCEntityEvent@@@Z
       1365  554 000CC120 ?H0x01f50007_ProjectileGuidedFly_03@CProjectile@@QAEHABVCEntityEvent@@@Z
       1366  555 000CC6B0 ?H0x01f50008_ProjectileGuidedFly_04@CProjectile@@QAEHABVCEntityEvent@@@Z
       1367  556 000CC7D0 ?H0x01f5000a_ProjectileSlide_01@CProjectile@@QAEHABVCEntityEvent@@@Z
       1368  557 000CCAC0 ?H0x01f5000b_ProjectileSlide_02@CProjectile@@QAEHABVCEntityEvent@@@Z
       1369  558 000CCF50 ?H0x01f5000c_Main_01@CProjectile@@QAEHABVCEntityEvent@@@Z
       1370  559 000CCFF0 ?H0x01f5000d_Main_02@CProjectile@@QAEHABVCEntityEvent@@@Z
       1371  55A 000CD0D0 ?H0x01f5000e_Main_03@CProjectile@@QAEHABVCEntityEvent@@@Z
       1372  55B 000CD170 ?H0x01f5000f_Main_04@CProjectile@@QAEHABVCEntityEvent@@@Z
       1373  55C 000CD250 ?H0x01f50010_Main_05@CProjectile@@QAEHABVCEntityEvent@@@Z
       1374  55D 000CD2F0 ?H0x01f50011_Main_06@CProjectile@@QAEHABVCEntityEvent@@@Z
       1375  55E 000CD350 ?H0x01f50012_Main_07@CProjectile@@QAEHABVCEntityEvent@@@Z
       1376  55F 000CD3B0 ?H0x01f50013_Main_08@CProjectile@@QAEHABVCEntityEvent@@@Z
       1377  560 000CD1D0 ?H0x01f50014_Main_09@CProjectile@@QAEHABVCEntityEvent@@@Z
       1378  561 000CD410 ?H0x01f50015_Main_10@CProjectile@@QAEHABVCEntityEvent@@@Z
       1379  562 000CD050 ?H0x01f50016_Main_11@CProjectile@@QAEHABVCEntityEvent@@@Z
       1380  563 000CD600 ?H0x01f50017_Main_12@CProjectile@@QAEHABVCEntityEvent@@@Z
       1381  564 000CD680 ?H0x01f50018_Main_13@CProjectile@@QAEHABVCEntityEvent@@@Z
       1382  565 000CD6E0 ?H0x01f50019_Main_14@CProjectile@@QAEHABVCEntityEvent@@@Z
       1383  566 0003AD20 ?H0x01fa0003_Bounce_01@CCannonBall@@QAEHABVCEntityEvent@@@Z
       1384  567 0003B0A0 ?H0x01fa0004_Bounce_02@CCannonBall@@QAEHABVCEntityEvent@@@Z
       1385  568 0003B210 ?H0x01fa0005_Main_01@CCannonBall@@QAEHABVCEntityEvent@@@Z
       1386  569 0003B2A0 ?H0x01fa0006_Main_02@CCannonBall@@QAEHABVCEntityEvent@@@Z
       1387  56A 0003B3F0 ?H0x01fa0007_Main_03@CCannonBall@@QAEHABVCEntityEvent@@@Z
       1388  56B 0003B490 ?H0x01fa0008_Main_04@CCannonBall@@QAEHABVCEntityEvent@@@Z
       1389  56C 0003B910 ?H0x01fa0009_Main_05@CCannonBall@@QAEHABVCEntityEvent@@@Z
       1390  56D 0003B990 ?H0x01fa000a_Main_06@CCannonBall@@QAEHABVCEntityEvent@@@Z
       1391  56E 0003BA80 ?H0x01fa000b_Main_07@CCannonBall@@QAEHABVCEntityEvent@@@Z
       1392  56F 0003BB00 ?H0x01fa000c_Main_08@CCannonBall@@QAEHABVCEntityEvent@@@Z
       1393  570 0003BBF0 ?H0x01fa000d_Main_09@CCannonBall@@QAEHABVCEntityEvent@@@Z
       1394  571 0003BC70 ?H0x01fa000e_Main_10@CCannonBall@@QAEHABVCEntityEvent@@@Z
       1395  572 0003BD60 ?H0x01fa000f_Main_11@CCannonBall@@QAEHABVCEntityEvent@@@Z
       1396  573 0003BDE0 ?H0x01fa0010_Main_12@CCannonBall@@QAEHABVCEntityEvent@@@Z
       1397  574 0003BED0 ?H0x01fa0011_Main_13@CCannonBall@@QAEHABVCEntityEvent@@@Z
       1398  575 0003BF50 ?H0x01fa0012_Main_14@CCannonBall@@QAEHABVCEntityEvent@@@Z
       1399  576 0003C040 ?H0x01fa0013_Main_15@CCannonBall@@QAEHABVCEntityEvent@@@Z
       1400  577 0003C0C0 ?H0x01fa0014_Main_16@CCannonBall@@QAEHABVCEntityEvent@@@Z
       1401  578 0003C1B0 ?H0x01fa0015_Main_17@CCannonBall@@QAEHABVCEntityEvent@@@Z
       1402  579 0003C230 ?H0x01fa0016_Main_18@CCannonBall@@QAEHABVCEntityEvent@@@Z
       1403  57A 0003C320 ?H0x01fa0017_Main_19@CCannonBall@@QAEHABVCEntityEvent@@@Z
       1404  57B 0003C3A0 ?H0x01fa0018_Main_20@CCannonBall@@QAEHABVCEntityEvent@@@Z
       1405  57C 0003C490 ?H0x01fa0019_Main_21@CCannonBall@@QAEHABVCEntityEvent@@@Z
       1406  57D 0003C510 ?H0x01fa001a_Main_22@CCannonBall@@QAEHABVCEntityEvent@@@Z
       1407  57E 0003C600 ?H0x01fa001b_Main_23@CCannonBall@@QAEHABVCEntityEvent@@@Z
       1408  57F 0003C680 ?H0x01fa001c_Main_24@CCannonBall@@QAEHABVCEntityEvent@@@Z
       1409  580 0003C770 ?H0x01fa001d_Main_25@CCannonBall@@QAEHABVCEntityEvent@@@Z
       1410  581 0003C7F0 ?H0x01fa001e_Main_26@CCannonBall@@QAEHABVCEntityEvent@@@Z
       1411  582 0003C8E0 ?H0x01fa001f_Main_27@CCannonBall@@QAEHABVCEntityEvent@@@Z
       1412  583 0003C960 ?H0x01fa0020_Main_28@CCannonBall@@QAEHABVCEntityEvent@@@Z
       1413  584 0003CA40 ?H0x01fa0021_Main_29@CCannonBall@@QAEHABVCEntityEvent@@@Z
       1414  585 0003CAA0 ?H0x01fa0022_Main_30@CCannonBall@@QAEHABVCEntityEvent@@@Z
       1415  586 0003B7F0 ?H0x01fa0023_Main_31@CCannonBall@@QAEHABVCEntityEvent@@@Z
       1416  587 000E5450 ?H0x02bc0003_Active_01@CWatcher@@QAEHABVCEntityEvent@@@Z
       1417  588 000E5540 ?H0x02bc0004_Active_02@CWatcher@@QAEHABVCEntityEvent@@@Z
       1418  589 000E53E0 ?H0x02bc0005_Active_03@CWatcher@@QAEHABVCEntityEvent@@@Z
       1419  58A 000E55A0 ?H0x02bc0006_Active_04@CWatcher@@QAEHABVCEntityEvent@@@Z
       1420  58B 000E5620 ?H0x02bc0008_Inactive_01@CWatcher@@QAEHABVCEntityEvent@@@Z
       1421  58C 000E56A0 ?H0x02bc0009_Inactive_02@CWatcher@@QAEHABVCEntityEvent@@@Z
       1422  58D 000E5720 ?H0x02bc000b_Dummy_01@CWatcher@@QAEHABVCEntityEvent@@@Z
       1423  58E 000E5730 ?H0x02bc000c_Dummy_02@CWatcher@@QAEHABVCEntityEvent@@@Z
       1424  58F 000E5820 ?H0x02bc000d_Main_01@CWatcher@@QAEHABVCEntityEvent@@@Z
       1425  590 000E58C0 ?H0x02bc000e_Main_02@CWatcher@@QAEHABVCEntityEvent@@@Z
       1426  591 000D3AA0 ?H0x02bf0001_Main_01@CReminder@@QAEHABVCEntityEvent@@@Z
       1427  592 000D3B20 ?H0x02bf0002_Main_02@CReminder@@QAEHABVCEntityEvent@@@Z
       1428  593 000D3BB0 ?H0x02bf0003_Main_03@CReminder@@QAEHABVCEntityEvent@@@Z
       1429  594 00081FA0 ?H0x03200002_ItemLoop_01@CItem@@QAEHABVCEntityEvent@@@Z
       1430  595 00082020 ?H0x03200003_ItemLoop_02@CItem@@QAEHABVCEntityEvent@@@Z
       1431  596 000820A0 ?H0x03200004_ItemLoop_03@CItem@@QAEHABVCEntityEvent@@@Z
       1432  597 000821C0 ?H0x03200005_ItemLoop_04@CItem@@QAEHABVCEntityEvent@@@Z
       1433  598 00082230 ?H0x03200006_ItemLoop_05@CItem@@QAEHABVCEntityEvent@@@Z
       1434  599 000822B0 ?H0x03200007_ItemLoop_06@CItem@@QAEHABVCEntityEvent@@@Z
       1435  59A 000823C0 ?H0x03200009_ItemReceived_01@CItem@@QAEHABVCEntityEvent@@@Z
       1436  59B 00082430 ?H0x0320000a_ItemReceived_02@CItem@@QAEHABVCEntityEvent@@@Z
       1437  59C 000824F0 ?H0x0320000b_ItemReceived_03@CItem@@QAEHABVCEntityEvent@@@Z
       1438  59D 00082490 ?H0x0320000c_ItemReceived_04@CItem@@QAEHABVCEntityEvent@@@Z
       1439  59E 00064000 ?HandleEvent@CEnemyBase@@UAEHABVCEntityEvent@@@Z
       1440  59F 000BC150 ?HasAmmo@CPlayerWeapons@@QAEHW4WeaponType@@@Z
       1441  5A0 0009EFC0 ?HasMessage@CPlayer@@QAEHABVCTFileName@@@Z
       1442  5A1 000C8010 ?HeadmanBomberman@CProjectile@@QAEXXZ
       1443  5A2 000C8140 ?HeadmanBombermanExplosion@CProjectile@@QAEXXZ
       1444  5A3 000C7DA0 ?HeadmanFirecracker@CProjectile@@QAEXXZ
       1445  5A4 000C7EC0 ?HeadmanRocketman@CProjectile@@QAEXXZ
       1446  5A5 0015DFE8 ?HeadmanType_enum@@3VCEntityPropertyEnumType@@A
       1447  5A6 0015DFC8 ?HeadmanType_values@@3PAVCEntityPropertyEnumValue@@A
       1448  5A7 0015EA28 ?HealthItemType_enum@@3VCEntityPropertyEnumType@@A
       1449  5A8 0015EA00 ?HealthItemType_values@@3PAVCEntityPropertyEnumValue@@A
       1450  5A9 000B1DB0 ?HideFlare@CPlayerAnimator@@QAEXJJJ@Z
       1451  5AA 000B8800 ?HideFlare@CPlayerWeapons@@QAEXAAVCModelObject@@JJ@Z
       1452  5AB 0006D450 ?HigherMass@CEnemyRunInto@@UAEHXZ
       1453  5AC 00066A20 ?Hit@CEnemyBase@@QAEHABVCEntityEvent@@@Z
       1454  5AD 0006A1F0 ?Hit@CEnemyDive@@QAEHABVCEntityEvent@@@Z
       1455  5AE 0006C360 ?Hit@CEnemyFly@@QAEHABVCEntityEvent@@@Z
       1456  5AF 000B6E00 ?HoldingFire@CPlayerWeapons@@QAEHXZ
       1457  5B0 000C95D0 ?HuanmanProjectile@CProjectile@@QAEXXZ
       1458  5B1 000C3FD0 ?Idle@CPlayerWeapons@@QAEHABVCEntityEvent@@@Z
       1459  5B2 00063F60 ?IdleSound@CEnemyBase@@UAEXXZ
       1460  5B3 0005FD00 ?IfTargetCrushed@CEnemyBase@@QAEHPAVCEntity@@ABV?$Vector@M$02@@@Z
       1461  5B4 00068260 ?Inactive@CEnemyBase@@QAEHABVCEntityEvent@@@Z
       1462  5B5 000E55B0 ?Inactive@CWatcher@@QAEHABVCEntityEvent@@@Z
       1463  5B6 0006D3D0 ?IncreaseKickedMass@CEnemyRunInto@@QAEXPAVCEntity@@@Z
       1464  5B7 000166D0 ?InitParticles@@YAXXZ
       1465  5B8 0003A560 ?Initialize@CCannonBall@@QAEXXZ
       1466  5B9 00081CD0 ?Initialize@CItem@@QAEXXZ
       1467  5BA 000B0660 ?Initialize@CPlayerAnimator@@QAEXXZ
       1468  5BB 00065800 ?InitializeAttack@CEnemyBase@@QAEHABVCEntityEvent@@@Z
       1469  5BC 000A6240 ?InitializePlayer@CPlayer@@QAEXXZ
       1470  5BD 000BA520 ?InitializeWeapons@CPlayerWeapons@@QAEXJJJM@Z
       1471  5BE 000A0E50 ?IsConnected@CPlayer@@QBEHXZ
       1472  5BF 0009F9C0 ?IsFuss@CPlayer@@QAEHXZ
       1473  5C0 00060110 ?IsInFrustum@CEnemyBase@@QAEHPAVCEntity@@M@Z
       1474  5C1 000601E0 ?IsInPlaneFrustum@CEnemyBase@@QAEHPAVCEntity@@M@Z
       1475  5C2 000945F0 ?IsMarker@CNavigationMarker@@UBEHXZ
       1476  5C3 0000E890 ?IsTargetable@CEnemyBase@@UBEHXZ
       1477  5C4 0000D080 ?IsTargetable@CItem@@UBEHXZ
       1478  5C5 000229D0 ?IsTargetable@CNavigationMarker@@UBEHXZ
       1479  5C6 00061B70 ?IsValidForEnemy@CEnemyBase@@QAEHPAVCEntity@@@Z
       1480  5C7 00060360 ?IsVisible@CEnemyBase@@QAEHPAVCEntity@@@Z
       1481  5C8 00060410 ?IsVisibleCheckAll@CEnemyBase@@QAEHPAVCEntity@@@Z
       1482  5C9 00081ED0 ?ItemCollected@CItem@@QAEHABVCEntityEvent@@@Z
       1483  5CA 00081F30 ?ItemLoop@CItem@@QAEHABVCEntityEvent@@@Z
       1484  5CB 0009F460 ?ItemPicked@CPlayer@@QAEXABVCTString@@M@Z
       1485  5CC 00082310 ?ItemReceived@CItem@@QAEHABVCEntityEvent@@@Z
       1486  5CD 00033FE0 ?JumpFromBouncer@@YAXPAVCEntity@@0@Z
       1487  5CE 0015F178 ?KeyItemType_enum@@3VCEntityPropertyEnumType@@A
       1488  5CF 0015F0E0 ?KeyItemType_values@@3PAVCEntityPropertyEnumValue@@A
       1489  5D0 000027C0 ?KickEntity@@YAXPAVCEntity@@V?$Vector@M$02@@@Z
       1490  5D1 000BC310 ?KnifeBoring@CPlayerWeapons@@QAEMXZ
       1491  5D2 000BC5A0 ?LaserBoring@CPlayerWeapons@@QAEMXZ
       1492  5D3 00034CA0 ?LaunchBullet@CBullet@@QAEXHHH@Z
       1493  5D4 000CB710 ?LavaBall@CProjectile@@QAEXXZ
       1494  5D5 000CB830 ?LavaBallExplosion@CProjectile@@QAEXXZ
       1495  5D6 000C8B10 ?LavaManBomb@CProjectile@@QAEXXZ
       1496  5D7 000C9340 ?LavamanBombDebrisExplosion@CProjectile@@QAEXXZ
       1497  5D8 000C8E00 ?LavamanBombExplosion@CProjectile@@QAEXXZ
       1498  5D9 00063910 ?LeaveStain@CEnemyBase@@UAEXH@Z
       1499  5DA 000A0F50 ?LeaveStain@CPlayer@@UAEXH@Z
       1500  5DB 0015FB68 ?LensFlareType_enum@@3VCEntityPropertyEnumType@@A
       1501  5DC 0015FB00 ?LensFlareType_values@@3PAVCEntityPropertyEnumValue@@A
       1502  5DD 000076C0 ?LerpPlacementsPrecise@@YA?AVCPlacement3D@@ABV1@0M@Z
       1503  5DE 0015FAF8 ?LightType_enum@@3VCEntityPropertyEnumType@@A
       1504  5DF 0015FAD0 ?LightType_values@@3PAVCEntityPropertyEnumValue@@A
       1505  5E0 000A0060 ?ListenFromEntity@CPlayer@@QAEXPAVCEntity@@ABVCPlacement3D@@@Z
       1506  5E1 0006D400 ?LiveEntityTouched@CEnemyRunInto@@UAEXVETouch@@@Z
       1507  5E2 00066AE0 ?LockOnEnemy@CEnemyBase@@QAEHABVCEntityEvent@@@Z
       1508  5E3 000AA0B0 ?LogoFireMinigun@CPlayer@@QAEHABVCEntityEvent@@@Z
       1509  5E4 00035950 ?Main@CBullet@@QAEHABVCEntityEvent@@@Z
       1510  5E5 0003B100 ?Main@CCannonBall@@QAEHABVCEntityEvent@@@Z
       1511  5E6 00068AD0 ?Main@CEnemyBase@@QAEHABVCEntityEvent@@@Z
       1512  5E7 0006A350 ?Main@CEnemyDive@@QAEHABVCEntityEvent@@@Z
       1513  5E8 0006C540 ?Main@CEnemyFly@@QAEHABVCEntityEvent@@@Z
       1514  5E9 0006E120 ?Main@CEnemyRunInto@@QAEHABVCEntityEvent@@@Z
       1515  5EA 00094600 ?Main@CNavigationMarker@@QAEHABVCEntityEvent@@@Z
       1516  5EB 000AD030 ?Main@CPlayer@@QAEHABVCEntityEvent@@@Z
       1517  5EC 000B2090 ?Main@CPlayerAnimator@@QAEHABVCEntityEvent@@@Z
       1518  5ED 000B3B70 ?Main@CPlayerView@@QAEHABVCEntityEvent@@@Z
       1519  5EE 000C4320 ?Main@CPlayerWeapons@@QAEHABVCEntityEvent@@@Z
       1520  5EF 000CCB20 ?Main@CProjectile@@QAEHABVCEntityEvent@@@Z
       1521  5F0 000D39A0 ?Main@CReminder@@QAEHABVCEntityEvent@@@Z
       1522  5F1 000E5740 ?Main@CWatcher@@QAEHABVCEntityEvent@@@Z
       1523  5F2 000684A0 ?MainLoop@CEnemyBase@@QAEHABVCEntityEvent@@@Z
       1524  5F3 0006A2F0 ?MainLoop@CEnemyDive@@QAEHABVCEntityEvent@@@Z
       1525  5F4 0006C4E0 ?MainLoop@CEnemyFly@@QAEHABVCEntityEvent@@@Z
       1526  5F5 0006E0C0 ?MainLoop@CEnemyRunInto@@QAEHABVCEntityEvent@@@Z
       1527  5F6 0007A370 ?MakeCopy@EActivate@@UAEPAVCEntityEvent@@XZ
       1528  5F7 00024870 ?MakeCopy@EAmmoItem@@UAEPAVCEntityEvent@@XZ
       1529  5F8 00025AF0 ?MakeCopy@EAmmoPackItem@@UAEPAVCEntityEvent@@XZ
       1530  5F9 000AF600 ?MakeCopy@EAnimatorInit@@UAEPAVCEntityEvent@@XZ
       1531  5FA 000287A0 ?MakeCopy@EArmor@@UAEPAVCEntityEvent@@XZ
       1532  5FB 00099250 ?MakeCopy@EAutoAction@@UAEPAVCEntityEvent@@XZ
       1533  5FC 000B5400 ?MakeCopy@EBoringWeapon@@UAEPAVCEntityEvent@@XZ
       1534  5FD 0008E010 ?MakeCopy@EBrushDestroyed@@UAEPAVCEntityEvent@@XZ
       1535  5FE 00043BA0 ?MakeCopy@EBrushDestroyedByDevil@@UAEPAVCEntityEvent@@XZ
       1536  5FF 000346B0 ?MakeCopy@EBulletInit@@UAEPAVCEntityEvent@@XZ
       1537  600 00099070 ?MakeCopy@ECameraStart@@UAEPAVCEntityEvent@@XZ
       1538  601 00099120 ?MakeCopy@ECameraStop@@UAEPAVCEntityEvent@@XZ
       1539  602 0007A890 ?MakeCopy@ECenterMessage@@UAEPAVCEntityEvent@@XZ
       1540  603 00026830 ?MakeCopy@EChangeAnim@@UAEPAVCEntityEvent@@XZ
       1541  604 0007C450 ?MakeCopy@EChangeGravity@@UAEPAVCEntityEvent@@XZ
       1542  605 00092A50 ?MakeCopy@EChangeMusic@@UAEPAVCEntityEvent@@XZ
       1543  606 0007A9A0 ?MakeCopy@EComputerMessage@@UAEPAVCEntityEvent@@XZ
       1544  607 0007A3B0 ?MakeCopy@EDeactivate@@UAEPAVCEntityEvent@@XZ
       1545  608 00043C80 ?MakeCopy@EDevilCommand@@UAEPAVCEntityEvent@@XZ
       1546  609 00053390 ?MakeCopy@EDevilProjectile@@UAEPAVCEntityEvent@@XZ
       1547  60A 00099210 ?MakeCopy@EDisconnected@@UAEPAVCEntityEvent@@XZ
       1548  60B 0007A470 ?MakeCopy@EEnd@@UAEPAVCEntityEvent@@XZ
       1549  60C 0007A3F0 ?MakeCopy@EEnvironmentStart@@UAEPAVCEntityEvent@@XZ
       1550  60D 0007A430 ?MakeCopy@EEnvironmentStop@@UAEPAVCEntityEvent@@XZ
       1551  60E 000B5440 ?MakeCopy@EFireWeapon@@UAEPAVCEntityEvent@@XZ
       1552  60F 0003A150 ?MakeCopy@EForceExplode@@UAEPAVCEntityEvent@@XZ
       1553  610 000CE310 ?MakeCopy@EForcePathMarker@@UAEPAVCEntityEvent@@XZ
       1554  611 0005F3B0 ?MakeCopy@EForceWound@@UAEPAVCEntityEvent@@XZ
       1555  612 000D84F0 ?MakeCopy@EHarbor@@UAEPAVCEntityEvent@@XZ
       1556  613 00080960 ?MakeCopy@EHealth@@UAEPAVCEntityEvent@@XZ
       1557  614 0008DFD0 ?MakeCopy@EHit@@UAEPAVCEntityEvent@@XZ
       1558  615 0007ABC0 ?MakeCopy@EHitBySpaceShipBeam@@UAEPAVCEntityEvent@@XZ
       1559  616 00082B50 ?MakeCopy@EKey@@UAEPAVCEntityEvent@@XZ
       1560  617 0007A760 ?MakeCopy@EKilledEnemy@@UAEPAVCEntityEvent@@XZ
       1561  618 0003A090 ?MakeCopy@ELaunchCannonBall@@UAEPAVCEntityEvent@@XZ
       1562  619 000C6110 ?MakeCopy@ELaunchProjectile@@UAEPAVCEntityEvent@@XZ
       1563  61A 00087660 ?MakeCopy@EMessageItem@@UAEPAVCEntityEvent@@XZ
       1564  61B 000887F0 ?MakeCopy@ERangeModelDestruction@@UAEPAVCEntityEvent@@XZ
       1565  61C 000991D0 ?MakeCopy@ERebirth@@UAEPAVCEntityEvent@@XZ
       1566  61D 0007A700 ?MakeCopy@EReceiveScore@@UAEPAVCEntityEvent@@XZ
       1567  61E 0005F370 ?MakeCopy@EReconsiderBehavior@@UAEPAVCEntityEvent@@XZ
       1568  61F 00043C40 ?MakeCopy@ERegenerationImpuls@@UAEPAVCEntityEvent@@XZ
       1569  620 000B5480 ?MakeCopy@EReleaseWeapon@@UAEPAVCEntityEvent@@XZ
       1570  621 000B54C0 ?MakeCopy@EReloadWeapon@@UAEPAVCEntityEvent@@XZ
       1571  622 0007A5A0 ?MakeCopy@EReminder@@UAEPAVCEntityEvent@@XZ
       1572  623 000D3890 ?MakeCopy@EReminderInit@@UAEPAVCEntityEvent@@XZ
       1573  624 0005F330 ?MakeCopy@ERestartAttack@@UAEPAVCEntityEvent@@XZ
       1574  625 0007A7A0 ?MakeCopy@ESecretFound@@UAEPAVCEntityEvent@@XZ
       1575  626 000B53A0 ?MakeCopy@ESelectWeapon@@UAEPAVCEntityEvent@@XZ
       1576  627 0007A7E0 ?MakeCopy@ESound@@UAEPAVCEntityEvent@@XZ
       1577  628 0003FF20 ?MakeCopy@ESpawnDebris@@UAEPAVCEntityEvent@@XZ
       1578  629 0002A5B0 ?MakeCopy@ESpawnEffect@@UAEPAVCEntityEvent@@XZ
       1579  62A 00057500 ?MakeCopy@ESpawnEffector@@UAEPAVCEntityEvent@@XZ
       1580  62B 00031270 ?MakeCopy@ESpawnSpray@@UAEPAVCEntityEvent@@XZ
       1581  62C 0007A2C0 ?MakeCopy@EStart@@UAEPAVCEntityEvent@@XZ
       1582  62D 0007A600 ?MakeCopy@EStartAttack@@UAEPAVCEntityEvent@@XZ
       1583  62E 0007A280 ?MakeCopy@EStop@@UAEPAVCEntityEvent@@XZ
       1584  62F 0007A640 ?MakeCopy@EStopAttack@@UAEPAVCEntityEvent@@XZ
       1585  630 0007A680 ?MakeCopy@EStopBlindness@@UAEPAVCEntityEvent@@XZ
       1586  631 0007A6C0 ?MakeCopy@EStopDeafness@@UAEPAVCEntityEvent@@XZ
       1587  632 0007A560 ?MakeCopy@ETeleportMovingBrush@@UAEPAVCEntityEvent@@XZ
       1588  633 0007A4B0 ?MakeCopy@ETrigger@@UAEPAVCEntityEvent@@XZ
       1589  634 000E0C00 ?MakeCopy@ETwister@@UAEPAVCEntityEvent@@XZ
       1590  635 000B2EC0 ?MakeCopy@EViewInit@@UAEPAVCEntityEvent@@XZ
       1591  636 0007AAB0 ?MakeCopy@EVoiceMessage@@UAEPAVCEntityEvent@@XZ
       1592  637 000E4A60 ?MakeCopy@EWatch@@UAEPAVCEntityEvent@@XZ
       1593  638 000E49B0 ?MakeCopy@EWatcherInit@@UAEPAVCEntityEvent@@XZ
       1594  639 000E6F00 ?MakeCopy@EWater@@UAEPAVCEntityEvent@@XZ
       1595  63A 000C48D0 ?MakeCopy@EWeaponEffectInit@@UAEPAVCEntityEvent@@XZ
       1596  63B 000E8080 ?MakeCopy@EWeaponItem@@UAEPAVCEntityEvent@@XZ
       1597  63C 000B52F0 ?MakeCopy@EWeaponsInit@@UAEPAVCEntityEvent@@XZ
       1598  63D 000CA8E0 ?MantamanProjectile@CProjectile@@QAEXXZ
       1599  63E 00081B90 ?MarkPickedBy@CItem@@QAEHPAVCEntity@@@Z
       1600  63F 000632E0 ?MayMoveToAttack@CEnemyBase@@UAEHXZ
       1601  640 0006A160 ?MayMoveToAttack@CEnemyDive@@UAEHXZ
       1602  641 0005FA50 ?MaybeSwitchToAnotherPlayer@CEnemyBase@@QAEXXZ
       1603  642 0015D680 ?MessageSound_enum@@3VCEntityPropertyEnumType@@A
       1604  643 0015D670 ?MessageSound_values@@3PAVCEntityPropertyEnumValue@@A
       1605  644 000BC500 ?MiniGunBoring@CPlayerWeapons@@QAEMXZ
       1606  645 000C1300 ?MiniGunFire@CPlayerWeapons@@QAEHABVCEntityEvent@@@Z
       1607  646 000C1A30 ?MiniGunSpinDown@CPlayerWeapons@@QAEHABVCEntityEvent@@@Z
       1608  647 000C0F30 ?MiniGunSpinUp@CPlayerWeapons@@QAEHABVCEntityEvent@@@Z
       1609  648 000BC8B0 ?MinigunSmoke@CPlayerWeapons@@QAEXXZ
       1610  649 00064C40 ?MoveThroughMarkers@CEnemyBase@@QAEHABVCEntityEvent@@@Z
       1611  64A 00064170 ?MoveToDestination@CEnemyBase@@QAEHABVCEntityEvent@@@Z
       1612  64B 00064410 ?MoveToRandomPatrolPosition@CEnemyBase@@QAEHABVCEntityEvent@@@Z
       1613  64C 00061F00 ?MovementAnimation@CEnemyBase@@UAEXK@Z
       1614  64D 00060A10 ?MovesByTargetedRoute@CEnemyBase@@UBEHAAVCTString@@@Z
       1615  64E 00094520 ?MovesByTargetedRoute@CNavigationMarker@@UBEHAAVCTString@@@Z
       1616  64F 00161DE8 ?MusicType_enum@@3VCEntityPropertyEnumType@@A
       1617  650 00161DC0 ?MusicType_values@@3PAVCEntityPropertyEnumValue@@A
       1618  651 000654F0 ?NewEnemySpotted@CEnemyBase@@QAEHABVCEntityEvent@@@Z
       1619  652 00001FE0 ?NewMessage@CCompMessageID@@QAEXABVCTFileName@@@Z
       1620  653 000B1CC0 ?OnPreRender@CPlayerAnimator@@QAEXXZ
       1621  654 00022F90 ?PATH_FindFirstMarker@@YAXPAVCEntity@@ABV?$Vector@M$02@@1AAPAV1@AAV2@@Z
       1622  655 00023140 ?PATH_FindNextMarker@@YAXPAVCEntity@@ABV?$Vector@M$02@@1AAPAV1@AAV2@@Z
       1623  656 0016A2C0 ?PSSState_enum@@3VCEntityPropertyEnumType@@A
       1624  657 0016A290 ?PSSState_values@@3PAVCEntityPropertyEnumValue@@A
       1625  658 0015D700 ?ParticleTexture_enum@@3VCEntityPropertyEnumType@@A
       1626  659 0015D688 ?ParticleTexture_values@@3PAVCEntityPropertyEnumValue@@A
       1627  65A 00162298 ?ParticlesHolderType_enum@@3VCEntityPropertyEnumType@@A
       1628  65B 00162228 ?ParticlesHolderType_values@@3PAVCEntityPropertyEnumValue@@A
       1629  65C 00021160 ?Particles_Appearing@@YAXPAVCEntity@@M@Z
       1630  65D 0001D010 ?Particles_Atomic@@YAXPAVCEntity@@MMW4ParticleTexture@@J@Z
       1631  65E 000190F0 ?Particles_BeastBigProjectileTrail@@YAXPAVCEntity@@MMMJ@Z
       1632  65F 000190E0 ?Particles_BeastBigProjectileTrail_Prepare@@YAXPAVCEntity@@@Z
       1633  660 00018950 ?Particles_BeastProjectileDebrisTrail@@YAXPAVCEntity@@M@Z
       1634  661 00018940 ?Particles_BeastProjectileDebrisTrail_Prepare@@YAXPAVCEntity@@@Z
       1635  662 00018B80 ?Particles_BeastProjectileTrail@@YAXPAVCEntity@@MMJ@Z
       1636  663 00018B70 ?Particles_BeastProjectileTrail_Prepare@@YAXPAVCEntity@@@Z
       1637  664 00021340 ?Particles_BloodSpray@@YAXW4SprayParticlesType@@PAVCEntity@@V?$Vector@M$02@@MV?$AABBox@M$02@@2MM@Z
       1638  665 00019A80 ?Particles_BloodTrail@@YAXPAVCEntity@@@Z
       1639  666 000177A0 ?Particles_BombTrail@@YAXPAVCEntity@@@Z
       1640  667 00017790 ?Particles_BombTrail_Prepare@@YAXPAVCEntity@@@Z
       1641  668 0001F200 ?Particles_BulletSpray@@YAXPAVCEntity@@V?$Vector@M$02@@W4EffectParticlesType@@M1@Z
       1642  669 00018360 ?Particles_CannonBall@@YAXPAVCEntity@@M@Z
       1643  66A 00018350 ?Particles_CannonBall_Prepare@@YAXPAVCEntity@@@Z
       1644  66B 00017CD0 ?Particles_ColoredStarsTrail@@YAXPAVCEntity@@@Z
       1645  66C 0001BFB0 ?Particles_DamageSmoke@@YAXPAVCEntity@@MV?$AABBox@M$02@@M@Z
       1646  66D 00020CB0 ?Particles_Death@@YAXPAVCEntity@@M@Z
       1647  66E 00021D30 ?Particles_DestroyingObelisk@@YAXPAVCEntity@@M@Z
       1648  66F 000220C0 ?Particles_DestroyingPylon@@YAXPAVCEntity@@V?$Vector@M$02@@M@Z
       1649  670 0001C9A0 ?Particles_ElectricitySparks@@YAXPAVCEntity@@MMMJ@Z
       1650  671 0001B330 ?Particles_Emanate@@YAXPAVCEntity@@MMW4ParticleTexture@@J@Z
       1651  672 0001B950 ?Particles_EmanatePlane@@YAXPAVCEntity@@MMMMMMW4ParticleTexture@@J@Z
       1652  673 0001FBB0 ?Particles_EmptyShells@@YAXPAVCEntity@@PAUShellLaunchData@@@Z
       1653  674 00019CF0 ?Particles_FireBreath@@YAJPAVCEntity@@V?$Vector@M$02@@1MM@Z
       1654  675 00017F20 ?Particles_Fireball01Trail@@YAXPAVCEntity@@@Z
       1655  676 00017F10 ?Particles_Fireball01Trail_Prepare@@YAXPAVCEntity@@@Z
       1656  677 000179A0 ?Particles_FirecrackerTrail@@YAXPAVCEntity@@@Z
       1657  678 00017990 ?Particles_FirecrackerTrail_Prepare@@YAXPAVCEntity@@@Z
       1658  679 0001A6F0 ?Particles_FlameThrower@@YAXABVCPlacement3D@@0MM@Z
       1659  67A 0001BC50 ?Particles_Fountain@@YAXPAVCEntity@@MMW4ParticleTexture@@J@Z
       1660  67B 0001D470 ?Particles_Ghostbuster@@YAXABV?$Vector@M$02@@0JMMM@Z
       1661  67C 00018100 ?Particles_GrenadeTrail@@YAXPAVCEntity@@@Z
       1662  67D 000180F0 ?Particles_GrenadeTrail_Prepare@@YAXPAVCEntity@@@Z
       1663  67E 00022540 ?Particles_HitGround@@YAXPAVCEntity@@MM@Z
       1664  67F 000186C0 ?Particles_LavaBombTrail@@YAXPAVCEntity@@M@Z
       1665  680 000186B0 ?Particles_LavaBombTrail_Prepare@@YAXPAVCEntity@@@Z
       1666  681 0001CEA0 ?Particles_LavaErupting@@YAXPAVCEntity@@MMMMMM@Z
       1667  682 0001EE00 ?Particles_LavaFlow@@YAXPAVCEntity@@MMMMMJ@Z
       1668  683 000184A0 ?Particles_LavaTrail@@YAXPAVCEntity@@@Z
       1669  684 00018490 ?Particles_LavaTrail_Prepare@@YAXPAVCEntity@@@Z
       1670  685 0001E570 ?Particles_Lightning@@YAXV?$Vector@M$02@@0M@Z
       1671  686 0001C650 ?Particles_MetalParts@@YAXPAVCEntity@@MV?$AABBox@M$02@@M@Z
       1672  687 0001D8F0 ?Particles_Rain@@YAXPAVCEntity@@MJMPAVCTextureData@@AAV?$AABBox@M$02@@@Z
       1673  688 0001A040 ?Particles_Regeneration@@YAJPAVCEntity@@MMMH@Z
       1674  689 0001AD60 ?Particles_Rising@@YAXPAVCEntity@@MMMMMMMW4ParticleTexture@@J@Z
       1675  68A 000196F0 ?Particles_RocketTrail@@YAXPAVCEntity@@M@Z
       1676  68B 000196E0 ?Particles_RocketTrail_Prepare@@YAXPAVCEntity@@@Z
       1677  68C 00017640 ?Particles_RomboidTrail@@YAXPAVCEntity@@@Z
       1678  68D 0001C2C0 ?Particles_RunningDust@@YAXPAVCEntity@@@Z
       1679  68E 0001C2B0 ?Particles_RunningDust_Prepare@@YAXPAVCEntity@@@Z
       1680  68F 0001E620 ?Particles_SandFlow@@YAXPAVCEntity@@MMMMMJ@Z
       1681  690 0001DCC0 ?Particles_Snow@@YAXPAVCEntity@@MJ@Z
       1682  691 0001B0C0 ?Particles_Spiral@@YAXPAVCEntity@@MMW4ParticleTexture@@J@Z
       1683  692 00017BA0 ?Particles_SpiralTrail@@YAXPAVCEntity@@@Z
       1684  693 0001AB20 ?Particles_Stardust@@YAXPAVCEntity@@MMW4ParticleTexture@@J@Z
       1685  694 000175A0 ?Particles_ViewerLocal@@YAXPAVCEntity@@@Z
       1686  695 0001EA10 ?Particles_WaterFlow@@YAXPAVCEntity@@MMMMMJ@Z
       1687  696 0001B580 ?Particles_WaterfallFoam@@YAXPAVCEntity@@MMMMMMMJ@Z
       1688  697 00017DE0 ?Particles_WhiteLineTrail@@YAXPAVCEntity@@@Z
       1689  698 00065D60 ?PerformAttack@CEnemyBase@@QAEHABVCEntityEvent@@@Z
       1690  699 000BC230 ?PlayDefaultAnim@CPlayerWeapons@@QAEXXZ
       1691  69A 0009F5B0 ?PlayLightAnim@CPlayer@@QAEXJK@Z
       1692  69B 000B8A50 ?PlayLightAnim@CPlayerWeapons@@QAEXJK@Z
       1693  69C 00165588 ?PlayerAutoAction_enum@@3VCEntityPropertyEnumType@@A
       1694  69D 001654C0 ?PlayerAutoAction_values@@3PAVCEntityPropertyEnumValue@@A
       1695  69E 0005FC30 ?PlayerDestinationPos@CEnemyBase@@UAE?AV?$Vector@M$02@@XZ
       1696  69F 0006B090 ?PlayerDestinationPos@CEnemyFly@@UAE?AV?$Vector@M$02@@XZ
       1697  6A0 000C7930 ?PlayerFlame@CProjectile@@QAEXXZ
       1698  6A1 000C74E0 ?PlayerGrenade@CProjectile@@QAEXXZ
       1699  6A2 000C7660 ?PlayerGrenadeExplosion@CProjectile@@QAEXXZ
       1700  6A3 000C7AA0 ?PlayerLaserRay@CProjectile@@QAEXXZ
       1701  6A4 000C7BB0 ?PlayerLaserWave@CProjectile@@QAEXXZ
       1702  6A5 000C6F00 ?PlayerRocket@CProjectile@@QAEXXZ
       1703  6A6 000C7210 ?PlayerRocketExplosion@CProjectile@@QAEXXZ
       1704  6A7 001626D0 ?PlayerState_enum@@3VCEntityPropertyEnumType@@A
       1705  6A8 001626A8 ?PlayerState_values@@3PAVCEntityPropertyEnumValue@@A
       1706  6A9 001626A0 ?PlayerViewType_enum@@3VCEntityPropertyEnumType@@A
       1707  6AA 00162680 ?PlayerViewType_values@@3PAVCEntityPropertyEnumValue@@A
       1708  6AB 0003A330 ?PostMoving@CCannonBall@@UAEXXZ
       1709  6AC 00069EA0 ?PostMoving@CEnemyDive@@UAEXXZ
       1710  6AD 000A0C00 ?PostMoving@CPlayer@@UAEXXZ
       1711  6AE 000B30F0 ?PostMoving@CPlayerView@@UAEXXZ
       1712  6AF 000C6840 ?PostMoving@CProjectile@@UAEXXZ
       1713  6B0 00068440 ?PreMainLoop@CEnemyBase@@QAEHABVCEntityEvent@@@Z
       1714  6B1 0003A2D0 ?PreMoving@CCannonBall@@UAEXXZ
       1715  6B2 000A0BA0 ?PreMoving@CPlayer@@UAEXXZ
       1716  6B3 000B30C0 ?PreMoving@CPlayerView@@UAEXXZ
       1717  6B4 000C67E0 ?PreMoving@CProjectile@@UAEXXZ
       1718  6B5 000A2A80 ?PreapplyAction@CPlayer@@QAEXABVCPlayerAction@@@Z
       1719  6B6 0005FB50 ?Precache@CEnemyBase@@UAEXXZ
       1720  6B7 000AFBC0 ?Precache@CPlayerAnimator@@UAEXXZ
       1721  6B8 000B6DC0 ?Precache@CPlayerWeapons@@UAEXXZ
       1722  6B9 000B9BF0 ?PrepareBullet@CPlayerWeapons@@QAEXMMM@Z
       1723  6BA 00062AC0 ?PrepareFreeFlyingProjectile@CEnemyBase@@QAEXAAVCPlacement3D@@V?$Vector@M$02@@AAV3@2@Z
       1724  6BB 000626F0 ?PreparePropelledProjectile@CEnemyBase@@QAEXAAVCPlacement3D@@V?$Vector@M$02@@AAV3@2@Z
       1725  6BC 000BC620 ?PrimaryToSecondary@CPlayerWeapons@@QAE?AW4WeaponType@@W42@@Z
       1726  6BD 00007400 ?PrintCenterMessage@@YAXPAVCEntity@@0ABVCTString@@MW4MessageSound@@@Z
       1727  6BE 00006DF0 ?PrintConsole@@YAPBDXZ
       1728  6BF 00006E00 ?PrintStack@@YAPBDPAVCEntity@@@Z
       1729  6C0 000CBD10 ?ProjectileFly@CProjectile@@QAEHABVCEntityEvent@@@Z
       1730  6C1 000CC070 ?ProjectileGuidedFly@CProjectile@@QAEHABVCEntityEvent@@@Z
       1731  6C2 000CBA90 ?ProjectileHitted@CProjectile@@QAEXXZ
       1732  6C3 00168F30 ?ProjectileMovingType_enum@@3VCEntityPropertyEnumType@@A
       1733  6C4 00168F18 ?ProjectileMovingType_values@@3PAVCEntityPropertyEnumValue@@A
       1734  6C5 000CC710 ?ProjectileSlide@CProjectile@@QAEHABVCEntityEvent@@@Z
       1735  6C6 000CB940 ?ProjectileTouch@CProjectile@@QAEXVCEntityPointer@@@Z
       1736  6C7 00168F10 ?ProjectileType_enum@@3VCEntityPropertyEnumType@@A
       1737  6C8 00168DF8 ?ProjectileType_values@@3PAVCEntityPropertyEnumValue@@A
       1738  6C9 000BD0F0 ?PutDown@CPlayerWeapons@@QAEHABVCEntityEvent@@@Z
       1739  6CA 0003AB00 ?RangeDamage@CCannonBall@@QAEXXZ
       1740  6CB 0003A410 ?Read_t@CCannonBall@@UAEXPAVCTStream@@@Z
       1741  6CC 00001F40 ?Read_t@CCompMessageID@@QAEXAAVCTStream@@@Z
       1742  6CD 00060C80 ?Read_t@CEnemyBase@@UAEXPAVCTStream@@@Z
       1743  6CE 000943F0 ?Read_t@CNavigationMarker@@UAEXPAVCTStream@@@Z
       1744  6CF 0009C220 ?Read_t@CPlayer@@UAEXPAVCTStream@@@Z
       1745  6D0 000AFBA0 ?Read_t@CPlayerAnimator@@UAEXPAVCTStream@@@Z
       1746  6D1 000C68D0 ?Read_t@CProjectile@@UAEXPAVCTStream@@@Z
       1747  6D2 000A84C0 ?Rebirth@CPlayer@@QAEHABVCEntityEvent@@@Z
       1748  6D3 000BB470 ?ReceiveAmmo@CPlayerWeapons@@QAEHABVCEntityEvent@@@Z
       1749  6D4 0009F030 ?ReceiveComputerMessage@CPlayer@@QAEXABVCTFileName@@K@Z
       1750  6D5 00060DD0 ?ReceiveDamage@CEnemyBase@@UAEXPAVCEntity@@W4DamageType@@MABV?$Vector@M$02@@2@Z
       1751  6D6 000A1A30 ?ReceiveDamage@CPlayer@@UAEXPAVCEntity@@W4DamageType@@MABV?$Vector@M$02@@2@Z
       1752  6D7 000A22E0 ?ReceiveItem@CPlayer@@UAEHABVCEntityEvent@@@Z
       1753  6D8 000BBAC0 ?ReceivePackAmmo@CPlayerWeapons@@QAEHABVCEntityEvent@@@Z
       1754  6D9 000BAE50 ?ReceiveWeapon@CPlayerWeapons@@QAEHABVCEntityEvent@@@Z
       1755  6DA 000A6EA0 ?RecordEndOfLevelData@CPlayer@@QAEXXZ
       1756  6DB 000C38A0 ?Reload@CPlayerWeapons@@QAEHABVCEntityEvent@@@Z
       1757  6DC 000BED10 ?ReloadColt@CPlayerWeapons@@QAEHABVCEntityEvent@@@Z
       1758  6DD 000BF2D0 ?ReloadDoubleColt@CPlayerWeapons@@QAEHABVCEntityEvent@@@Z
       1759  6DE 000B1FD0 ?ReminderAction@CPlayerAnimator@@QAEHABVCEntityEvent@@@Z
       1760  6DF 00002910 ?RemoveAttachmentFromModel@@YAXAAVCModelObject@@J@Z
       1761  6E0 00061980 ?RemoveFromFuss@CEnemyBase@@QAEXXZ
       1762  6E1 000B19C0 ?RemoveWeapon@CPlayerAnimator@@QAEXXZ
       1763  6E2 000A0710 ?RenderCameraView@CPlayer@@QAEXPAVCDrawPort@@H@Z
       1764  6E3 000B8110 ?RenderCrosshair@CPlayerWeapons@@QAEXAAVCProjection3D@@PAVCDrawPort@@AAVCPlacement3D@@@Z
       1765  6E4 000A0150 ?RenderDummyView@CPlayer@@QAEXPAVCDrawPort@@@Z
       1766  6E5 000A0930 ?RenderGameView@CPlayer@@UAEXPAVCDrawPort@@PAX@Z
       1767  6E6 000A5D30 ?RenderHUD@CPlayer@@QAEXAAVCPerspectiveProjection3D@@PAVCDrawPort@@V?$Vector@M$02@@KKH@Z
       1768  6E7 0003A490 ?RenderParticles@CCannonBall@@UAEXXZ
       1769  6E8 00063FB0 ?RenderParticles@CEnemyBase@@UAEXXZ
       1770  6E9 000A71E0 ?RenderParticles@CPlayer@@UAEXXZ
       1771  6EA 000B3150 ?RenderParticles@CPlayerView@@UAEXXZ
       1772  6EB 000C6C80 ?RenderParticles@CProjectile@@UAEXXZ
       1773  6EC 000A0280 ?RenderPlayerView@CPlayer@@QAEXPAVCDrawPort@@H@Z
       1774  6ED 000B6E20 ?RenderWeaponModel@CPlayerWeapons@@QAEXAAVCPerspectiveProjection3D@@PAVCDrawPort@@V?$Vector@M$02@@KKH@Z
       1775  6EE 000BA500 ?ResetWeaponMovingOffset@CPlayerWeapons@@QAEXXZ
       1776  6EF 00064BE0 ?ReturnToStartPosition@CEnemyBase@@QAEHABVCEntityEvent@@@Z
       1777  6F0 0006B570 ?ReturnToStartPosition@CEnemyFly@@QAEHABVCEntityEvent@@@Z
       1778  6F1 000B1670 ?Rise@CPlayerAnimator@@QAEXXZ
       1779  6F2 000BC560 ?RocketLauncherBoring@CPlayerWeapons@@QAEMXZ
       1780  6F3 000B9220 ?RotateMinigun@CPlayerWeapons@@QAEXXZ
       1781  6F4 0006D4F0 ?RotateToEnemy@CEnemyRunInto@@QAEHABVCEntityEvent@@@Z
       1782  6F5 00063F00 ?RotatingAnim@CEnemyBase@@UAEXXZ
       1783  6F6 000A46C0 ?RoundViewAngle@CPlayer@@QAEXAAMM@Z
       1784  6F7 0006DD50 ?RunAwayFromEnemy@CEnemyRunInto@@QAEHABVCEntityEvent@@@Z
       1785  6F8 0006D820 ?RunIntoEnemy@CEnemyRunInto@@QAEHABVCEntityEvent@@@Z
       1786  6F9 00063EF0 ?RunningAnim@CEnemyBase@@UAEXXZ
       1787  6FA 0009F170 ?SayVoiceMessage@CPlayer@@QAEXABVCTFileName@@@Z
       1788  6FB 0016B050 ?ScorpmanType_enum@@3VCEntityPropertyEnumType@@A
       1789  6FC 0016B038 ?ScorpmanType_values@@3PAVCEntityPropertyEnumValue@@A
       1790  6FD 000BC650 ?SecondaryToPrimary@CPlayerWeapons@@QAE?AW4WeaponType@@W42@@Z
       1791  6FE 00062680 ?SeeEntity@CEnemyBase@@QAEHPAVCEntity@@M@Z
       1792  6FF 000626B0 ?SeeEntityInPlane@CEnemyBase@@QAEHPAVCEntity@@M@Z
       1793  700 00063DD0 ?SeeNotify@CEnemyBase@@QAEXXZ
       1794  701 000BC010 ?SelectNewWeapon@CPlayerWeapons@@QAEXXZ
       1795  702 000BC7A0 ?SelectWeaponChange@CPlayerWeapons@@QAEXJ@Z
       1796  703 000024A0 ?SendInRange@@YAXPAVCEntity@@W4EventEType@@ABV?$AABBox@M$02@@@Z
       1797  704 000022B0 ?SendToTarget@@YAXPAVCEntity@@W4EventEType@@0@Z
       1798  705 000E4D00 ?SendWatchEvent@CWatcher@@QAEXPAVCEntity@@@Z
       1799  706 000AFD50 ?SetAttachment@CPlayerAnimator@@QAEXJ@Z
       1800  707 000B0600 ?SetBodyAnimation@CPlayerAnimator@@QAEXJK@Z
       1801  708 00002280 ?SetBoolFromBoolEType@@YAXAAHW4BoolEType@@@Z
       1802  709 000B3170 ?SetCameraPosition@CPlayerView@@QAEXXZ
       1803  70A 00002830 ?SetComponents@@YAXPAVCEntity@@AAVCModelObject@@KKKKK@Z
       1804  70B 000AFC30 ?SetComponents@CPlayerAnimator@@QAEXPAVCModelObject@@KKKKK@Z
       1805  70C 000A0E10 ?SetConnected@CPlayer@@QAEXXZ
       1806  70D 000B8A90 ?SetCurrentWeaponModel@CPlayerWeapons@@QAEXXZ
       1807  70E 000348C0 ?SetDamage@CBullet@@QAEXM@Z
       1808  70F 0009F9E0 ?SetDefaultMouthPitch@CPlayer@@QAEXXZ
       1809  710 000248D0 ?SetDefaultProperties@CAmmoItem@@UAEXXZ
       1810  711 00025B70 ?SetDefaultProperties@CAmmoPack@@UAEXXZ
       1811  712 000268E0 ?SetDefaultProperties@CAnimationChanger@@UAEXXZ
       1812  713 00027760 ?SetDefaultProperties@CAnimationHub@@UAEXXZ
       1813  714 00028800 ?SetDefaultProperties@CArmorItem@@UAEXXZ
       1814  715 00029530 ?SetDefaultProperties@CBackgroundViewer@@UAEXXZ
       1815  716 0002AAC0 ?SetDefaultProperties@CBasicEffect@@UAEXXZ
       1816  717 0002D900 ?SetDefaultProperties@CBeast@@UAEXXZ
       1817  718 0002FFE0 ?SetDefaultProperties@CBigHead@@UAEXXZ
       1818  719 00030B50 ?SetDefaultProperties@CBlendController@@UAEXXZ
       1819  71A 00031370 ?SetDefaultProperties@CBloodSpray@@UAEXXZ
       1820  71B 00031E60 ?SetDefaultProperties@CBoneman@@UAEXXZ
       1821  71C 00034060 ?SetDefaultProperties@CBouncer@@UAEXXZ
       1822  71D 000347E0 ?SetDefaultProperties@CBullet@@UAEXXZ
       1823  71E 000361B0 ?SetDefaultProperties@CCamera@@UAEXXZ
       1824  71F 00039190 ?SetDefaultProperties@CCameraMarker@@UAEXXZ
       1825  720 0003A210 ?SetDefaultProperties@CCannonBall@@UAEXXZ
       1826  721 0003CE80 ?SetDefaultProperties@CCopier@@UAEXXZ
       1827  722 0003DC50 ?SetDefaultProperties@CCounter@@UAEXXZ
       1828  723 0003EA80 ?SetDefaultProperties@CCrateRider@@UAEXXZ
       1829  724 0003F5C0 ?SetDefaultProperties@CDamager@@UAEXXZ
       1830  725 0003FFD0 ?SetDefaultProperties@CDebris@@UAEXXZ
       1831  726 000416E0 ?SetDefaultProperties@CDestroyableArchitecture@@UAEXXZ
       1832  727 00043DA0 ?SetDefaultProperties@CDevil@@UAEXXZ
       1833  728 000524F0 ?SetDefaultProperties@CDevilMarker@@UAEXXZ
       1834  729 00053470 ?SetDefaultProperties@CDevilProjectile@@UAEXXZ
       1835  72A 00054800 ?SetDefaultProperties@CDoorController@@UAEXXZ
       1836  72B 000563C0 ?SetDefaultProperties@CEffectMarker@@UAEXXZ
       1837  72C 000576D0 ?SetDefaultProperties@CEffector@@UAEXXZ
       1838  72D 00059410 ?SetDefaultProperties@CElemental@@UAEXXZ
       1839  72E 0005F3F0 ?SetDefaultProperties@CEnemyBase@@UAEXXZ
       1840  72F 00068F00 ?SetDefaultProperties@CEnemyCounter@@UAEXXZ
       1841  730 00069CE0 ?SetDefaultProperties@CEnemyDive@@UAEXXZ
       1842  731 0006AFB0 ?SetDefaultProperties@CEnemyFly@@UAEXXZ
       1843  732 0006CB30 ?SetDefaultProperties@CEnemyMarker@@UAEXXZ
       1844  733 0006D350 ?SetDefaultProperties@CEnemyRunInto@@UAEXXZ
       1845  734 0006E7D0 ?SetDefaultProperties@CEnemySpawner@@UAEXXZ
       1846  735 00071510 ?SetDefaultProperties@CEnvironmentBase@@UAEXXZ
       1847  736 00073680 ?SetDefaultProperties@CEnvironmentMarker@@UAEXXZ
       1848  737 00074060 ?SetDefaultProperties@CEruptor@@UAEXXZ
       1849  738 000757E0 ?SetDefaultProperties@CEyeman@@UAEXXZ
       1850  739 00077260 ?SetDefaultProperties@CFish@@UAEXXZ
       1851  73A 000786F0 ?SetDefaultProperties@CFogMarker@@UAEXXZ
       1852  73B 00078E10 ?SetDefaultProperties@CGizmo@@UAEXXZ
       1853  73C 0007AC00 ?SetDefaultProperties@CGlobal@@UAEXXZ
       1854  73D 0007AF50 ?SetDefaultProperties@CGradientMarker@@UAEXXZ
       1855  73E 0007B970 ?SetDefaultProperties@CGravityMarker@@UAEXXZ
       1856  73F 0007C500 ?SetDefaultProperties@CGravityRouter@@UAEXXZ
       1857  740 0007CC50 ?SetDefaultProperties@CHazeMarker@@UAEXXZ
       1858  741 0007D5F0 ?SetDefaultProperties@CHeadman@@UAEXXZ
       1859  742 000809C0 ?SetDefaultProperties@CHealthItem@@UAEXXZ
       1860  743 000819D0 ?SetDefaultProperties@CItem@@UAEXXZ
       1861  744 00082D50 ?SetDefaultProperties@CKeyItem@@UAEXXZ
       1862  745 00084320 ?SetDefaultProperties@CLight@@UAEXXZ
       1863  746 000855A0 ?SetDefaultProperties@CLightning@@UAEXXZ
       1864  747 000865E0 ?SetDefaultProperties@CMarker@@UAEXXZ
       1865  748 00086BD0 ?SetDefaultProperties@CMessageHolder@@UAEXXZ
       1866  749 00087770 ?SetDefaultProperties@CMessageItem@@UAEXXZ
       1867  74A 00087F20 ?SetDefaultProperties@CMirrorMarker@@UAEXXZ
       1868  74B 00088830 ?SetDefaultProperties@CModelDestruction@@UAEXXZ
       1869  74C 0008B040 ?SetDefaultProperties@CModelHolder2@@UAEXXZ
       1870  74D 00089A20 ?SetDefaultProperties@CModelHolder@@UAEXXZ
       1871  74E 0008E050 ?SetDefaultProperties@CMovingBrush@@UAEXXZ
       1872  74F 00091180 ?SetDefaultProperties@CMovingBrushMarker@@UAEXXZ
       1873  750 000918C0 ?SetDefaultProperties@CMusicChanger@@UAEXXZ
       1874  751 00092BB0 ?SetDefaultProperties@CMusicHolder@@UAEXXZ
       1875  752 00094150 ?SetDefaultProperties@CNavigationMarker@@UAEXXZ
       1876  753 00094D20 ?SetDefaultProperties@CParticlesHolder@@UAEXXZ
       1877  754 00095CF0 ?SetDefaultProperties@CPendulum@@UAEXXZ
       1878  755 0009B3A0 ?SetDefaultProperties@CPlayer@@UAEXXZ
       1879  756 000AE2F0 ?SetDefaultProperties@CPlayerActionMarker@@UAEXXZ
       1880  757 000AFA40 ?SetDefaultProperties@CPlayerAnimator@@UAEXXZ
       1881  758 000B2710 ?SetDefaultProperties@CPlayerMarker@@UAEXXZ
       1882  759 000B2FE0 ?SetDefaultProperties@CPlayerView@@UAEXXZ
       1883  75A 000B6B10 ?SetDefaultProperties@CPlayerWeapons@@UAEXXZ
       1884  75B 000C49D0 ?SetDefaultProperties@CPlayerWeaponsEffects@@UAEXXZ
       1885  75C 000C66C0 ?SetDefaultProperties@CProjectile@@UAEXXZ
       1886  75D 000CE3C0 ?SetDefaultProperties@CPyramidSpaceShip@@UAEXXZ
       1887  75E 000D30B0 ?SetDefaultProperties@CPyramidSpaceShipMarker@@UAEXXZ
       1888  75F 000D3950 ?SetDefaultProperties@CReminder@@UAEXXZ
       1889  760 000D4320 ?SetDefaultProperties@CRollingStone@@UAEXXZ
       1890  761 000D5D70 ?SetDefaultProperties@CScorpman@@UAEXXZ
       1891  762 000D8590 ?SetDefaultProperties@CShip@@UAEXXZ
       1892  763 000D99E0 ?SetDefaultProperties@CShipMarker@@UAEXXZ
       1893  764 000DA160 ?SetDefaultProperties@CSoundHolder@@UAEXXZ
       1894  765 000DB070 ?SetDefaultProperties@CStormController@@UAEXXZ
       1895  766 000DC760 ?SetDefaultProperties@CSwitch@@UAEXXZ
       1896  767 000DD6C0 ?SetDefaultProperties@CTeleport@@UAEXXZ
       1897  768 000DE300 ?SetDefaultProperties@CTouchField@@UAEXXZ
       1898  769 000DF530 ?SetDefaultProperties@CTrigger@@UAEXXZ
       1899  76A 000E0CB0 ?SetDefaultProperties@CTwister@@UAEXXZ
       1900  76B 000E1E40 ?SetDefaultProperties@CVoiceHolder@@UAEXXZ
       1901  76C 000E2970 ?SetDefaultProperties@CWalker@@UAEXXZ
       1902  76D 000E5DC0 ?SetDefaultProperties@CWatchPlayers@@UAEXXZ
       1903  76E 000E4B10 ?SetDefaultProperties@CWatcher@@UAEXXZ
       1904  76F 000E6FB0 ?SetDefaultProperties@CWater@@UAEXXZ
       1905  770 000E80E0 ?SetDefaultProperties@CWeaponItem@@UAEXXZ
       1906  771 000E92B0 ?SetDefaultProperties@CWerebull@@UAEXXZ
       1907  772 000EA650 ?SetDefaultProperties@CWoman@@UAEXXZ
       1908  773 000EFAF0 ?SetDefaultProperties@CWorldBase@@UAEXXZ
       1909  774 000F1610 ?SetDefaultProperties@CWorldLink@@UAEXXZ
       1910  775 000F2180 ?SetDefaultProperties@CWorldSettingsController@@UAEXXZ
       1911  776 00061FD0 ?SetDesiredMovement@CEnemyBase@@UAEKXZ
       1912  777 00069FE0 ?SetDesiredMovement@CEnemyDive@@UAEKXZ
       1913  778 0006B2D0 ?SetDesiredMovement@CEnemyFly@@UAEKXZ
       1914  779 0006A170 ?SetEntityPosition@CEnemyDive@@QAEXXZ
       1915  77A 0006B450 ?SetEntityPosition@CEnemyFly@@QAEXXZ
       1916  77B 000B8850 ?SetFlare@CPlayerWeapons@@QAEXJJ@Z
       1917  77C 000A2980 ?SetGameEnd@CPlayer@@QAEXXZ
       1918  77D 000B04F0 ?SetItem@CPlayerAnimator@@QAEXPAVCModelObject@@@Z
       1919  77E 00081DF0 ?SetItemAttachmentAnim@CItem@@QAEXJJ@Z
       1920  77F 00006C00 ?SetPlayerAppearance@@YAHPAVCModelObject@@PAVCPlayerCharacter@@AAVCTString@@H@Z
       1921  780 0000E8B0 ?SetPredictionPair@CEnemyBase@@UAEXPAVCEntity@@@Z
       1922  781 0000D0A0 ?SetPredictionPair@CItem@@UAEXPAVCEntity@@@Z
       1923  782 000098E0 ?SetPredictionPair@CPlayer@@UAEXPAVCEntity@@@Z
       1924  783 00096380 ?SetPredictionPair@CPlayerAnimator@@UAEXPAVCEntity@@@Z
       1925  784 00096D30 ?SetPredictionPair@CPlayerView@@UAEXPAVCEntity@@@Z
       1926  785 00010B80 ?SetPredictionPair@CPlayerWeapons@@UAEXPAVCEntity@@@Z
       1927  786 0000C270 ?SetPredictionPair@CProjectile@@UAEXPAVCEntity@@@Z
       1928  787 0000DF50 ?SetPredictionPair@CWatcher@@UAEXPAVCEntity@@@Z
       1929  788 0005F8D0 ?SetPredictionTime@CEnemyBase@@UAEXM@Z
       1930  789 0009C400 ?SetPredictionTime@CPlayer@@UAEXM@Z
       1931  78A 0009FA10 ?SetRandomMouthPitch@CPlayer@@QAEXMM@Z
       1932  78B 0009FA50 ?SetSpeakMouthPitch@CPlayer@@QAEXXZ
       1933  78C 00061DA0 ?SetSpeedsToDesiredPosition@CEnemyBase@@UAEXABV?$Vector@M$02@@MH@Z
       1934  78D 00061C70 ?SetTargetHard@CEnemyBase@@QAEHPAVCEntity@@@Z
       1935  78E 00061CF0 ?SetTargetHardForce@CEnemyBase@@QAEHPAVCEntity@@@Z
       1936  78F 00061BB0 ?SetTargetNone@CEnemyBase@@QAEXXZ
       1937  790 00061BF0 ?SetTargetSoft@CEnemyBase@@QAEHPAVCEntity@@@Z
       1938  791 000A0D60 ?SetUnconnected@CPlayer@@QAEXXZ
       1939  792 000E4E60 ?SetWatchDelays@CWatcher@@QAEXXZ
       1940  793 000AFE40 ?SetWeapon@CPlayerAnimator@@QAEXXZ
       1941  794 000B96B0 ?Setup3DSoundParameters@CPlayerWeapons@@QAEXXZ
       1942  795 0009F520 ?SetupLightSource@CPlayer@@QAEXXZ
       1943  796 000C6A50 ?SetupLightSource@CProjectile@@QAEXH@Z
       1944  797 0009FD50 ?SetupView@CPlayer@@QAEXPAVCDrawPort@@AAVCAnyProjection3D@@AAPAVCEntity@@AAVCPlacement3D@@AAKH@Z
       1945  798 00160E68 ?ShadowType_enum@@3VCEntityPropertyEnumType@@A
       1946  799 00160E50 ?ShadowType_values@@3PAVCEntityPropertyEnumValue@@A
       1947  79A 00062FE0 ?ShootPredictedProjectile@CEnemyBase@@QAEPAVCEntity@@W4ProjectileType@@V?$Vector@M$02@@AAV4@2@Z
       1948  79B 00062EA0 ?ShootProjectile@CEnemyBase@@QAEPAVCEntity@@W4ProjectileType@@AAV?$Vector@M$02@@1@Z
       1949  79C 00063320 ?ShouldBlowUp@CEnemyBase@@UAEHXZ
       1950  79D 000A1EA0 ?ShouldBlowUp@CPlayer@@QAEHXZ
       1951  79E 00061A70 ?ShouldCeaseAttack@CEnemyBase@@QAEHXZ
       1952  79F 000B1D30 ?ShowFlare@CPlayerAnimator@@QAEXJJJ@Z
       1953  7A0 000B8790 ?ShowFlare@CPlayerWeapons@@QAEXAAVCModelObject@@JJM@Z
       1954  7A1 00081B60 ?ShowItemParticles@CItem@@QAEHXZ
       1955  7A2 00063F70 ?SightSound@CEnemyBase@@UAEXXZ
       1956  7A3 000BC400 ?SingleShotgunBoring@CPlayerWeapons@@QAEMXZ
       1957  7A4 0015D730 ?SoundType_enum@@3VCEntityPropertyEnumType@@A
       1958  7A5 0015D708 ?SoundType_values@@3PAVCEntityPropertyEnumValue@@A
       1959  7A6 000A3820 ?SpawnBubbles@CPlayer@@QAEXJ@Z
       1960  7A7 000357D0 ?SpawnEffect@CBullet@@QAEXABV?$Vector@M$02@@ABVESpawnEffect@@@Z
       1961  7A8 0003AB50 ?SpawnEffect@CCannonBall@@QAEXABVCPlacement3D@@ABVESpawnEffect@@@Z
       1962  7A9 000CBBC0 ?SpawnEffect@CProjectile@@QAEXABVCPlacement3D@@ABVESpawnEffect@@@Z
       1963  7AA 00035130 ?SpawnHitTypeEffect@CBullet@@QAEXW4BulletHitType@@HV?$Vector@M$02@@111@Z
       1964  7AB 000074A0 ?SpawnRangeSound@@YAXPAVCEntity@@0W4SoundType@@M@Z
       1965  7AC 000BA460 ?SpawnRangeSound@CPlayerWeapons@@QAEXM@Z
       1966  7AD 00002650 ?SpawnReminder@@YA?AVCEntityPointer@@PAVCEntity@@MJ@Z
       1967  7AE 000A7060 ?SpawnTeleport@CPlayer@@QAEXXZ
       1968  7AF 00035510 ?SpawnTrail@CBullet@@QAEXXZ
       1969  7B0 00153C58 ?SprayParticlesType_enum@@3VCEntityPropertyEnumType@@A
       1970  7B1 00153C00 ?SprayParticlesType_values@@3PAVCEntityPropertyEnumValue@@A
       1971  7B2 000B1770 ?Stand@CPlayerAnimator@@QAEXXZ
       1972  7B3 000688F0 ?StandardBehavior@CEnemyBase@@QAEHABVCEntityEvent@@@Z
       1973  7B4 00063EC0 ?StandingAnim@CEnemyBase@@UAEXXZ
       1974  7B5 00063ED0 ?StandingAnimFight@CEnemyBase@@UAEXXZ
       1975  7B6 000622F0 ?StartPathFinding@CEnemyBase@@UAEXXZ
       1976  7B7 00069D80 ?StartPathFinding@CEnemyDive@@UAEXXZ
       1977  7B8 0006B180 ?StartPathFinding@CEnemyFly@@UAEXXZ
       1978  7B9 00065740 ?StopAttack@CEnemyBase@@QAEHABVCEntityEvent@@@Z
       1979  7BA 000621B0 ?StopMoving@CEnemyBase@@QAEXXZ
       1980  7BB 000621D0 ?StopRotating@CEnemyBase@@QAEXXZ
       1981  7BC 00062200 ?StopTranslating@CEnemyBase@@QAEXXZ
       1982  7BD 000C41E0 ?Stopped@CPlayerWeapons@@QAEHABVCEntityEvent@@@Z
       1983  7BE 000B0700 ?StoreLast@CPlayerAnimator@@QAEXXZ
       1984  7BF 00081EA0 ?StretchItem@CItem@@QAEXABV?$Vector@M$02@@@Z
       1985  7C0 00061AC0 ?StretchModel@CEnemyBase@@QAEXXZ
       1986  7C1 000B1730 ?Swim@CPlayerAnimator@@QAEXXZ
       1987  7C2 000BE360 ?SwingKnife@CPlayerWeapons@@QAEHABVCEntityEvent@@@Z
       1988  7C3 0016C030 ?SwitchType_enum@@3VCEntityPropertyEnumType@@A
       1989  7C4 0016C020 ?SwitchType_values@@3PAVCEntityPropertyEnumValue@@A
       1990  7C5 000AFD80 ?SyncWeapon@CPlayerAnimator@@QAEXXZ
       1991  7C6 000944C0 ?Target@CNavigationMarker@@QAEAAV1@J@Z
       1992  7C7 000944A0 ?TargetPointer@CNavigationMarker@@QAEAAVCEntityPointer@@J@Z
       1993  7C8 0015A0F0 ?TargetType_enum@@3VCEntityPropertyEnumType@@A
       1994  7C9 0015A0D8 ?TargetType_values@@3PAVCEntityPropertyEnumValue@@A
       1995  7CA 000A6460 ?TeleportPlayer@CPlayer@@QAEXW4WorldLinkType@@@Z
       1996  7CB 000A7240 ?TeleportToAutoMarker@CPlayer@@QAEXPAVCPlayerActionMarker@@@Z
       1997  7CC 000A8170 ?TheEnd@CPlayer@@QAEHABVCEntityEvent@@@Z
       1998  7CD 000BC4B0 ?TommyGunBoring@CPlayerWeapons@@QAEMXZ
       1999  7CE 000C0600 ?TommyGunStart@CPlayerWeapons@@QAEHABVCEntityEvent@@@Z
       2000  7CF 000C06D0 ?TommyGunStop@CPlayerWeapons@@QAEHABVCEntityEvent@@@Z
       2001  7D0 00161318 ?TouchOrDamageEvent_enum@@3VCEntityPropertyEnumType@@A
       2002  7D1 00161300 ?TouchOrDamageEvent_values@@3PAVCEntityPropertyEnumValue@@A
       2003  7D2 000A9ED0 ?TravellingInBeam@CPlayer@@QAEHABVCEntityEvent@@@Z
       2004  7D3 0016CA08 ?TwisterSize_enum@@3VCEntityPropertyEnumType@@A
       2005  7D4 0016C9F0 ?TwisterSize_values@@3PAVCEntityPropertyEnumValue@@A
       2006  7D5 0009BF80 ?UpdateLatency@CPlayer@@QAEXM@Z
       2007  7D6 0009F930 ?UpdateLevelStats@CPlayer@@QAEXXZ
       2008  7D7 000B7B60 ?UpdateTargetingInfo@CPlayerWeapons@@QAEXXZ
       2009  7D8 000A2880 ?UsePressed@CPlayer@@QAEXH@Z
       2010  7D9 0009C040 ?ValidateCharacter@CPlayer@@QAEXXZ
       2011  7DA 001666C8 ?ViewType_enum@@3VCEntityPropertyEnumType@@A
       2012  7DB 001666A8 ?ViewType_values@@3PAVCEntityPropertyEnumValue@@A
       2013  7DC 0016EE78 ?VisibilityBits_enum@@3VCEntityPropertyEnumType@@A
       2014  7DD 0016EDF8 ?VisibilityBits_values@@3PAVCEntityPropertyEnumValue@@A
       2015  7DE 0016CCD8 ?WalkerChar_enum@@3VCEntityPropertyEnumType@@A
       2016  7DF 0016CCC8 ?WalkerChar_values@@3PAVCEntityPropertyEnumValue@@A
       2017  7E0 000C7080 ?WalkerRocket@CProjectile@@QAEXXZ
       2018  7E1 000C7200 ?WalkerRocketExplosion@CProjectile@@QAEXXZ
       2019  7E2 00063EE0 ?WalkingAnim@CEnemyBase@@UAEXXZ
       2020  7E3 001607F0 ?WarpRotation_enum@@3VCEntityPropertyEnumType@@A
       2021  7E4 001607D8 ?WarpRotation_values@@3PAVCEntityPropertyEnumValue@@A
       2022  7E5 000E4F10 ?Watch@CWatcher@@QAEXXZ
       2023  7E6 0016D690 ?WaterSize_enum@@3VCEntityPropertyEnumType@@A
       2024  7E7 0016D678 ?WaterSize_values@@3PAVCEntityPropertyEnumValue@@A
       2025  7E8 00168BD8 ?WeaponEffectType_enum@@3VCEntityPropertyEnumType@@A
       2026  7E9 00168BC8 ?WeaponEffectType_values@@3PAVCEntityPropertyEnumValue@@A
       2027  7EA 0016D8B8 ?WeaponItemType_enum@@3VCEntityPropertyEnumType@@A
       2028  7EB 0016D858 ?WeaponItemType_values@@3PAVCEntityPropertyEnumValue@@A
       2029  7EC 000B7820 ?WeaponMovingOffset@CPlayerWeapons@@QAEXAAV?$Vector@M$02@@@Z
       2030  7ED 000BBFB0 ?WeaponSelectOk@CPlayerWeapons@@QAEHW4WeaponType@@@Z
       2031  7EE 00166800 ?WeaponType_enum@@3VCEntityPropertyEnumType@@A
       2032  7EF 00166798 ?WeaponType_values@@3PAVCEntityPropertyEnumValue@@A
       2033  7F0 000C8690 ?WomanProjectile@CProjectile@@QAEXXZ
       2034  7F1 000A7550 ?WorldChange@CPlayer@@QAEHABVCEntityEvent@@@Z
       2035  7F2 000A76D0 ?WorldChangeDead@CPlayer@@QAEHABVCEntityEvent@@@Z
       2036  7F3 0016FC00 ?WorldLinkType_enum@@3VCEntityPropertyEnumType@@A
       2037  7F4 0016FBF0 ?WorldLinkType_values@@3PAVCEntityPropertyEnumValue@@A
       2038  7F5 000631B0 ?WouldNotLeaveAttackRadius@CEnemyBase@@QAEHXZ
       2039  7F6 00063F80 ?WoundSound@CEnemyBase@@UAEXXZ
       2040  7F7 000A74F0 ?Wounded@CPlayer@@QAEHABVCEntityEvent@@@Z
       2041  7F8 00063CD0 ?WoundedNotify@CEnemyBase@@QAEXABVEDamage@@@Z
       2042  7F9 00001F90 ?Write_t@CCompMessageID@@QAEXAAVCTStream@@@Z
       2043  7FA 0009C140 ?Write_t@CPlayer@@UAEXPAVCTStream@@@Z
       2044  7FB 00180F3C ?cmp_bInitialStart@@3HA
       2045  7FC 00180F38 ?cmp_bUpdateInBackground@@3HA
       2046  7FD 00180F34 ?cmp_ppenDHPlayer@@3PAVCPlayer@@A
       2047  7FE 00180F30 ?cmp_ppenPlayer@@3PAVCPlayer@@A
       2048  7FF 00099370 ?ctl_ComposeActionPacket@@YAXABVCPlayerCharacter@@AAVCPlayerAction@@H@Z
       2049  800 00163158 ?ctl_pvPlayerControls@@3PAXA
       2050  801 0010D24C ?ctl_slPlayerControlsSize@@3JB
       2051  802 00180F40 ?plr_iHiScore@@3JA
       2052  803 00150C78 CAmmoItem_DLLClass
       2053  804 00151568 CAmmoPack_DLLClass
       2054  805 001518B8 CAnimationChanger_DLLClass
       2055  806 00151BF0 CAnimationHub_DLLClass
       2056  807 00151E38 CArmorItem_DLLClass
       2057  808 00152280 CBackgroundViewer_DLLClass
       2058  809 00152600 CBasicEffect_DLLClass
       2059  80A 00153438 CBeast_DLLClass
       2060  80B 001537F0 CBigHead_DLLClass
       2061  80C 00153A80 CBlendController_DLLClass
       2062  80D 00153C90 CBloodSpray_DLLClass
       2063  80E 00153F20 CBoneman_DLLClass
       2064  80F 001542B8 CBouncer_DLLClass
       2065  810 00154418 CBullet_DLLClass
       2066  811 001547B8 CCameraMarker_DLLClass
       2067  812 00154560 CCamera_DLLClass
       2068  813 00154BA0 CCannonBall_DLLClass
       2069  814 00154E28 CCopier_DLLClass
       2070  815 00154FE8 CCounter_DLLClass
       2071  816 00155158 CCrateRider_DLLClass
       2072  817 00155410 CDamager_DLLClass
       2073  818 001555A8 CDebris_DLLClass
       2074  819 00155650 CDestroyableArchitecture_DLLClass
       2075  81A 001584E8 CDevilMarker_DLLClass
       2076  81B 00158828 CDevilProjectile_DLLClass
       2077  81C 001571E8 CDevil_DLLClass
       2078  81D 00158BD8 CDoorController_DLLClass
       2079  81E 00158E28 CEffectMarker_DLLClass
       2080  81F 001591F0 CEffector_DLLClass
       2081  820 00159978 CElemental_DLLClass
       2082  821 0015A800 CEnemyBase_DLLClass
       2083  822 0015AE48 CEnemyCounter_DLLClass
       2084  823 0015AFF0 CEnemyDive_DLLClass
       2085  824 0015B320 CEnemyFly_DLLClass
       2086  825 0015B438 CEnemyMarker_DLLClass
       2087  826 0015B6A8 CEnemyRunInto_DLLClass
       2088  827 0015BAE0 CEnemySpawner_DLLClass
       2089  828 0015BF88 CEnvironmentBase_DLLClass
       2090  829 0015C310 CEnvironmentMarker_DLLClass
       2091  82A 0015C640 CEruptor_DLLClass
       2092  82B 0015C8D8 CEyeman_DLLClass
       2093  82C 0015CD40 CFish_DLLClass
       2094  82D 0015D080 CFogMarker_DLLClass
       2095  82E 0015D348 CGizmo_DLLClass
       2096  82F 0015D748 CGlobal_DLLClass
       2097  830 0015D9C0 CGradientMarker_DLLClass
       2098  831 0015DB30 CGravityMarker_DLLClass
       2099  832 0015DCE0 CGravityRouter_DLLClass
       2100  833 0015DE38 CHazeMarker_DLLClass
       2101  834 0015E310 CHeadman_DLLClass
       2102  835 0015EA50 CHealthItem_DLLClass
       2103  836 0015F020 CItem_DLLClass
       2104  837 0015F1A0 CKeyItem_DLLClass
       2105  838 0015FB80 CLight_DLLClass
       2106  839 00160160 CLightning_DLLClass
       2107  83A 001603B8 CMarker_DLLClass
       2108  83B 00160500 CMessageHolder_DLLClass
       2109  83C 00160648 CMessageItem_DLLClass
       2110  83D 00160808 CMirrorMarker_DLLClass
       2111  83E 001609A0 CModelDestruction_DLLClass
       2112  83F 00160EB0 CModelHolder2_DLLClass
       2113  840 00160C70 CModelHolder_DLLClass
       2114  841 00161A08 CMovingBrushMarker_DLLClass
       2115  842 001614F0 CMovingBrush_DLLClass
       2116  843 00161C60 CMusicChanger_DLLClass
       2117  844 00161E80 CMusicHolder_DLLClass
       2118  845 00162060 CNavigationMarker_DLLClass
       2119  846 00162330 CParticlesHolder_DLLClass
       2120  847 00162570 CPendulum_DLLClass
       2121  848 001655A0 CPlayerActionMarker_DLLClass
       2122  849 001658B0 CPlayerAnimator_DLLClass
       2123  84A 001664F0 CPlayerMarker_DLLClass
       2124  84B 00166700 CPlayerView_DLLClass
       2125  84C 00168CD0 CPlayerWeaponsEffects_DLLClass
       2126  84D 00167278 CPlayerWeapons_DLLClass
       2127  84E 00163058 CPlayer_DLLClass
       2128  84F 001690D8 CProjectile_DLLClass
       2129  850 0016AAA0 CPyramidSpaceShipMarker_DLLClass
       2130  851 0016A4D8 CPyramidSpaceShip_DLLClass
       2131  852 0016ACE0 CReminder_DLLClass
       2132  853 0016AD90 CRollingStone_DLLClass
       2133  854 0016B1E8 CScorpman_DLLClass
       2134  855 0016B988 CShipMarker_DLLClass
       2135  856 0016B778 CShip_DLLClass
       2136  857 0016BB38 CSoundHolder_DLLClass
       2137  858 0016BDA8 CStormController_DLLClass
       2138  859 0016C108 CSwitch_DLLClass
       2139  85A 0016C2B0 CTeleport_DLLClass
       2140  85B 0016C4A0 CTouchField_DLLClass
       2141  85C 0016C6F8 CTrigger_DLLClass
       2142  85D 0016CAA0 CTwister_DLLClass
       2143  85E 0016CBB8 CVoiceHolder_DLLClass
       2144  85F 0016CE40 CWalker_DLLClass
       2145  860 0016D528 CWatchPlayers_DLLClass
       2146  861 0016D3C0 CWatcher_DLLClass
       2147  862 0016D6F8 CWater_DLLClass
       2148  863 0016D930 CWeaponItem_DLLClass
       2149  864 0016E668 CWerebull_DLLClass
       2150  865 0016EAA8 CWoman_DLLClass
       2151  866 0016EE90 CWorldBase_DLLClass
       2152  867 0016FC18 CWorldLink_DLLClass
       2153  868 0016FD40 CWorldSettingsController_DLLClass

  Summary

       3B000 .data
       47000 .rdata
       27000 .reloc
      106000 .text
