LIBRARY ABZBASEMP 
EXPORTS 
??0?$CSTLCompatibleVector@J$01@@QAE@ABV0@@Z 
??0?$CSTLCompatibleVector@J$01@@QAE@ABV?$Vector@J$01@@@Z 
??0?$CSTLCompatibleVector@J$01@@QAE@J@Z 
??0?$CSTLCompatibleVector@J$01@@QAE@JJ@Z 
??0?$CSTLCompatibleVector@J$01@@QAE@JJJ@Z 
??0?$CSTLCompatibleVector@J$01@@QAE@JJJJ@Z 
??0?$CSTLCompatibleVector@J$01@@QAE@XZ 
??0?$CSTLCompatibleVector@J$02@@QAE@ABV0@@Z 
??0?$CSTLCompatibleVector@J$02@@QAE@ABV?$Vector@J$02@@@Z 
??0?$CSTLCompatibleVector@J$02@@QAE@J@Z 
??0?$CSTLCompatibleVector@J$02@@QAE@JJ@Z 
??0?$CSTLCompatibleVector@J$02@@QAE@JJJ@Z 
??0?$CSTLCompatibleVector@J$02@@QAE@JJJJ@Z 
??0?$CSTLCompatibleVector@J$02@@QAE@XZ 
??0?$Vector@J$01@@QAE@J@Z 
??0?$Vector@J$01@@QAE@JJ@Z 
??0?$Vector@J$01@@QAE@JJJ@Z 
??0?$Vector@J$01@@QAE@JJJJ@Z 
??0?$Vector@J$01@@QAE@XZ 
??0?$Vector@J$02@@QAE@J@Z 
??0?$Vector@J$02@@QAE@JJ@Z 
??0?$Vector@J$02@@QAE@JJJ@Z 
??0?$Vector@J$02@@QAE@JJJJ@Z 
??0?$Vector@J$02@@QAE@XZ 
??0CBinarySerializer@@QAE@ABV0@@Z 
??0CBinarySerializer@@QAE@XZ 
??0CEntityDebugKit@@QAE@ABV0@@Z 
??0CEntityDebugKit@@QAE@PAVCWorld@@@Z 
??0CLineIntersection@@QAE@ABV0@@Z 
??0CLineIntersection@@QAE@XZ 
??0CSerializationException@@QAE@ABV0@@Z 
??0CSerializationException@@QAE@V?$basic_string@DV?$char_traits@D@_STL@@V?$allocator@D@2@@_STL@@@Z 
??0CSerializationException@@QAE@XZ 
??0CSerializer@@QAE@ABV0@@Z 
??0CSerializer@@QAE@XZ 
??0CSquareEntity@@QAE@ABV0@@Z 
??0CSquareEntity@@QAE@XZ 
??1CBinarySerializer@@UAE@XZ 
??1CEntityDebugKit@@UAE@XZ 
??1CLineIntersection@@UAE@XZ 
??1CSerializationException@@UAE@XZ 
??1CSerializer@@UAE@XZ 
??1CSquareEntity@@UAE@XZ 
??4?$CSTLCompatibleVector@J$01@@QAEAAV0@ABV0@@Z 
??4?$CSTLCompatibleVector@J$01@@QAEAAV0@ABV?$Vector@J$01@@@Z 
??4?$CSTLCompatibleVector@J$02@@QAEAAV0@ABV0@@Z 
??4?$CSTLCompatibleVector@J$02@@QAEAAV0@ABV?$Vector@J$02@@@Z 
??4?$Vector@J$01@@QAEAAV0@ABV0@@Z 
??4?$Vector@J$02@@QAEAAV0@ABV0@@Z 
??4CBinarySerializer@@QAEAAV0@ABV0@@Z 
??4CEntityDebugKit@@QAEAAV0@ABV0@@Z 
??4CLineIntersection@@QAEAAV0@ABV0@@Z 
??4CSerializationException@@UAEAAV0@ABV0@@Z 
??4CSerializer@@QAEAAV0@ABV0@@Z 
??4CSquareEntity@@QAEAAV0@AAV0@@Z 
??8?$Vector@J$01@@QBEHABV0@@Z 
??8?$Vector@J$02@@QBEHABV0@@Z 
??9?$Vector@J$01@@QBEHABV0@@Z 
??9?$Vector@J$02@@QBEHABV0@@Z 
??D?$Vector@J$01@@QBE?AV0@ABV0@@Z 
??D?$Vector@J$01@@QBE?AV0@ABV?$Matrix@J$01$01@@@Z 
??D?$Vector@J$01@@QBE?AV0@J@Z 
??D?$Vector@J$02@@QBE?AV0@ABV0@@Z 
??D?$Vector@J$02@@QBE?AV0@ABV?$Matrix@J$02$02@@@Z 
??D?$Vector@J$02@@QBE?AV0@J@Z 
??G?$Vector@J$01@@QBE?AV0@ABV0@@Z 
??G?$Vector@J$01@@QBE?AV0@XZ 
??G?$Vector@J$02@@QBE?AV0@ABV0@@Z 
??G?$Vector@J$02@@QBE?AV0@XZ 
??H?$Vector@J$01@@QBE?AV0@ABV0@@Z 
??H?$Vector@J$02@@QBE?AV0@ABV0@@Z 
??K?$Vector@J$01@@QBE?AV0@J@Z 
??K?$Vector@J$02@@QBE?AV0@J@Z 
??L?$Vector@J$01@@QBEJABV0@@Z 
??L?$Vector@J$02@@QBEJABV0@@Z 
??M?$CSTLCompatibleVector@J$01@@QBE_NV?$Vector@J$01@@@Z 
??M?$CSTLCompatibleVector@J$02@@QBE_NV?$Vector@J$02@@@Z 
??R?$Vector@J$01@@QAEAAJH@Z 
??R?$Vector@J$01@@QBEABJH@Z 
??R?$Vector@J$02@@QAEAAJH@Z 
??R?$Vector@J$02@@QBEABJH@Z 
??X?$Vector@J$01@@QAEAAV0@ABV0@@Z 
??X?$Vector@J$01@@QAEAAV0@ABV?$Matrix@J$01$01@@@Z 
??X?$Vector@J$01@@QAEAAV0@J@Z 
??X?$Vector@J$02@@QAEAAV0@ABV0@@Z 
??X?$Vector@J$02@@QAEAAV0@ABV?$Matrix@J$02$02@@@Z 
??X?$Vector@J$02@@QAEAAV0@J@Z 
??Y?$Vector@J$01@@QAEAAV0@ABV0@@Z 
??Y?$Vector@J$02@@QAEAAV0@ABV0@@Z 
??Z?$Vector@J$01@@QAEAAV0@ABV0@@Z 
??Z?$Vector@J$02@@QAEAAV0@ABV0@@Z 
??_0?$Vector@J$01@@QAEAAV0@J@Z 
??_0?$Vector@J$02@@QAEAAV0@J@Z 
??_7CBinarySerializer@@6B@ 
??_7CEntityDebugKit@@6B@ 
??_7CLineIntersection@@6B@ 
??_7CSerializationException@@6B@ 
??_7CSerializer@@6B@ 
??_7CSquareEntity@@6B@ 
?BOTTOM_MASK@CLineIntersection@@0HB 
?Clear@?$Vector@J$01@@QAEXXZ 
?Clear@?$Vector@J$02@@QAEXXZ 
?ClipLine@CLineIntersection@@QAEXAAV?$Vector@M$02@@0@Z 
?Close@CSerializer@@QAEXXZ 
?CreateMask@CLineIntersection@@AAEHABV?$Vector@M$02@@@Z 
?Destroy@CEntityDebugKit@@QAEXPAVCEntity@@@Z 
?EMPTY_RESULT@CLineIntersection@@2V?$Vector@M$02@@B 
?FindXIntersection@CLineIntersection@@QAEMABM@Z 
?FindZIntersection@CLineIntersection@@QAEMABM@Z 
?Flip@?$Vector@J$01@@QAEAAV1@XZ 
?Flip@?$Vector@J$02@@QAEAAV1@XZ 
?GetA@CLineIntersection@@QAEMXZ 
?GetB@CLineIntersection@@QAEMXZ 
?GetFileName@CSerializer@@IAE?AV?$basic_string@DV?$char_traits@D@_STL@@V?$allocator@D@2@@_STL@@XZ 
?GetFileStream@CSerializer@@IAEPAU_iobuf@@XZ 
?GetFormat@CBinarySerializer@@UAE?AW4SerialFormatType@SerialFormat@@XZ 
?GetFormat@CSerializer@@UAE?AW4SerialFormatType@SerialFormat@@XZ 
?HasEndOfFileBeenReached@CSerializer@@QAE_NXZ 
?LEFT_MASK@CLineIntersection@@0HB 
?Length@?$Vector@J$01@@QBEJXZ 
?Length@?$Vector@J$02@@QBEJXZ 
?LoadSKAModel@CSquareEntity@@QAEXVCTFileName@@@Z 
?Main@CSquareEntity@@QAEHABVCEntityEvent@@@Z 
?MakeGreen@CSquareEntity@@QAEX_N@Z 
?ManhattanNorm@?$Vector@J$01@@QBEJXZ 
?ManhattanNorm@?$Vector@J$02@@QBEJXZ 
?MaxNorm@?$Vector@J$01@@QBEJXZ 
?MaxNorm@?$Vector@J$02@@QBEJXZ 
?NO_MASK_SET@CLineIntersection@@0HB 
?Normalize@?$Vector@J$01@@QAEAAV1@XZ 
?Normalize@?$Vector@J$02@@QAEAAV1@XZ 
?Open@CSerializer@@QAEXPBDPAD@Z 
?Open@CSerializer@@QAEXV?$basic_string@DV?$char_traits@D@_STL@@V?$allocator@D@2@@_STL@@PAD@Z 
?PlaceMarker@CEntityDebugKit@@QAEPAVCEntity@@V?$Vector@M$02@@00@Z 
?PlaceMarker@CEntityDebugKit@@QAEPAVCEntity@@V?$Vector@M$02@@0@Z 
?PlaceMarker@CEntityDebugKit@@QAEPAVCEntity@@V?$Vector@M$02@@@Z 
?RIGHT_MASK@CLineIntersection@@0HB 
?ReadChar@CBinarySerializer@@UAEDXZ 
?ReadChar@CSerializer@@UAEDXZ 
?ReadCharPointer@CBinarySerializer@@UAEPBDXZ 
?ReadCharPointer@CSerializer@@UAEPBDXZ 
?ReadFLOAT3D@CBinarySerializer@@UAE?AV?$Vector@M$02@@XZ 
?ReadFLOAT3D@CSerializer@@UAE?AV?$Vector@M$02@@XZ 
?ReadFloat@CBinarySerializer@@UAEMXZ 
?ReadFloat@CSerializer@@UAEMXZ 
?ReadInt@CBinarySerializer@@UAEHXZ 
?ReadInt@CSerializer@@UAEHXZ 
?ReadInteger2D@CBinarySerializer@@UAE?AV?$CSTLCompatibleVector@J$01@@XZ 
?ReadInteger2D@CSerializer@@UAE?AV?$CSTLCompatibleVector@J$01@@XZ 
?ReadString@CBinarySerializer@@UAEABV?$basic_string@DV?$char_traits@D@_STL@@V?$allocator@D@2@@_STL@@XZ 
?ReadString@CSerializer@@UAEABV?$basic_string@DV?$char_traits@D@_STL@@V?$allocator@D@2@@_STL@@XZ 
?ReadUnsignedInt@CBinarySerializer@@UAEIXZ 
?ReadUnsignedInt@CSerializer@@UAEIXZ 
?ReadUnsignedLong@CBinarySerializer@@QAEKXZ 
?RunTest@CLineIntersection@@SAXXZ 
?SafeNormalize@?$Vector@J$01@@QAEAAV1@XZ 
?SafeNormalize@?$Vector@J$02@@QAEAAV1@XZ 
?SetAreaLimits@CLineIntersection@@QAEXABV?$Vector@M$02@@0@Z 
?SetDefaultProperties@CSquareEntity@@UAEXXZ 
?SetLine@CLineIntersection@@QAEXABV?$Vector@M$02@@0@Z 
?SetLocation@CSquareEntity@@QAEXV?$Vector@M$02@@@Z 
?SetSize@CSquareEntity@@QAEXMMM@Z 
?TOP_MASK@CLineIntersection@@0HB 
?TestBottom@CLineIntersection@@AAEHABV?$Vector@M$02@@@Z 
?TestHorizontal@CLineIntersection@@AAEXABHABMAAV?$Vector@M$02@@@Z 
?TestIntersection@CLineIntersection@@QAE?AW4IntersectionResultEnum@1@XZ 
?TestLeft@CLineIntersection@@AAEHABV?$Vector@M$02@@@Z 
?TestRight@CLineIntersection@@AAEHABV?$Vector@M$02@@@Z 
?TestTop@CLineIntersection@@AAEHABV?$Vector@M$02@@@Z 
?TestVertical@CLineIntersection@@AAEXABHABMAAV?$Vector@M$02@@@Z 
?WriteChar@CBinarySerializer@@UAEXD@Z 
?WriteChar@CSerializer@@UAEXD@Z 
?WriteCharPointer@CBinarySerializer@@UAEXPAD@Z 
?WriteCharPointer@CSerializer@@UAEXPAD@Z 
?WriteFLOAT3D@CBinarySerializer@@UAEXV?$Vector@M$02@@@Z 
?WriteFLOAT3D@CSerializer@@UAEXV?$Vector@M$02@@@Z 
?WriteFloat@CBinarySerializer@@UAEXM@Z 
?WriteFloat@CSerializer@@UAEXM@Z 
?WriteInt@CBinarySerializer@@UAEXH@Z 
?WriteInt@CSerializer@@UAEXH@Z 
?WriteInteger2D@CBinarySerializer@@UAEXV?$CSTLCompatibleVector@J$01@@@Z 
?WriteInteger2D@CSerializer@@UAEXV?$CSTLCompatibleVector@J$01@@@Z 
?WriteString@CBinarySerializer@@UAEXAAV?$basic_string@DV?$char_traits@D@_STL@@V?$allocator@D@2@@_STL@@@Z 
?WriteString@CSerializer@@UAEXAAV?$basic_string@DV?$char_traits@D@_STL@@V?$allocator@D@2@@_STL@@@Z 
?WriteUnsignedInt@CBinarySerializer@@UAEXI@Z 
?WriteUnsignedInt@CSerializer@@UAEXI@Z 
?WriteUnsignedLong@CBinarySerializer@@QAEXK@Z 
?what@CSerializationException@@UBEPBDXZ 
CSquareEntity_DLLClass 
