LIBRARY ACCESSMAP 
EXPORTS 
??0?$CStateEvaluator@PAVCAccessMapSearchState@@@@QAE@ABV0@@Z 
??0?$CStateEvaluator@PAVCAccessMapSearchState@@@@QAE@XZ 
??0?$CStateFactory@PAVCAccessMapSearchState@@@@QAE@ABV0@@Z 
??0?$CStateFactory@PAVCAccessMapSearchState@@@@QAE@XZ 
??0?$_List_base@PAVCAccessMapSearchState@@V?$allocator@PAVCAccessMapSearchState@@@_STL@@@_STL@@QAE@ABV01@@Z 
??0?$_List_base@PAVCAccessMapSearchState@@V?$allocator@PAVCAccessMapSearchState@@@_STL@@@_STL@@QAE@ABV?$allocator@PAVCAccessMapSearchState@@@1@@Z 
??0?$_Vector_base@PAVCAccessMapSearchState@@V?$allocator@PAVCAccessMapSearchState@@@_STL@@@_STL@@QAE@ABV01@@Z 
??0?$_Vector_base@PAVCAccessMapSearchState@@V?$allocator@PAVCAccessMapSearchState@@@_STL@@@_STL@@QAE@ABV?$allocator@PAVCAccessMapSearchState@@@1@@Z 
??0?$_Vector_base@PAVCAccessMapSearchState@@V?$allocator@PAVCAccessMapSearchState@@@_STL@@@_STL@@QAE@IABV?$allocator@PAVCAccessMapSearchState@@@1@@Z 
??0?$_Vector_base@V?$CSTLCompatibleVector@J$01@@V?$allocator@V?$CSTLCompatibleVector@J$01@@@_STL@@@_STL@@QAE@ABV01@@Z 
??0?$_Vector_base@V?$CSTLCompatibleVector@J$01@@V?$allocator@V?$CSTLCompatibleVector@J$01@@@_STL@@@_STL@@QAE@ABV?$allocator@V?$CSTLCompatibleVector@J$01@@@1@@Z 
??0?$_Vector_base@V?$CSTLCompatibleVector@J$01@@V?$allocator@V?$CSTLCompatibleVector@J$01@@@_STL@@@_STL@@QAE@IABV?$allocator@V?$CSTLCompatibleVector@J$01@@@1@@Z 
??0?$list@PAVCAccessMapSearchState@@V?$allocator@PAVCAccessMapSearchState@@@_STL@@@_STL@@QAE@ABV01@@Z 
??0?$list@PAVCAccessMapSearchState@@V?$allocator@PAVCAccessMapSearchState@@@_STL@@@_STL@@QAE@ABV?$allocator@PAVCAccessMapSearchState@@@1@@Z 
??0?$list@PAVCAccessMapSearchState@@V?$allocator@PAVCAccessMapSearchState@@@_STL@@@_STL@@QAE@I@Z 
??0?$list@PAVCAccessMapSearchState@@V?$allocator@PAVCAccessMapSearchState@@@_STL@@@_STL@@QAE@IABQAVCAccessMapSearchState@@ABV?$allocator@PAVCAccessMapSearchState@@@1@@Z 
??0?$vector@PAVCAccessMapSearchState@@V?$allocator@PAVCAccessMapSearchState@@@_STL@@@_STL@@QAE@ABV01@@Z 
??0?$vector@PAVCAccessMapSearchState@@V?$allocator@PAVCAccessMapSearchState@@@_STL@@@_STL@@QAE@ABV?$allocator@PAVCAccessMapSearchState@@@1@@Z 
??0?$vector@PAVCAccessMapSearchState@@V?$allocator@PAVCAccessMapSearchState@@@_STL@@@_STL@@QAE@I@Z 
??0?$vector@PAVCAccessMapSearchState@@V?$allocator@PAVCAccessMapSearchState@@@_STL@@@_STL@@QAE@IABQAVCAccessMapSearchState@@ABV?$allocator@PAVCAccessMapSearchState@@@1@@Z 
??0?$vector@V?$CSTLCompatibleVector@J$01@@V?$allocator@V?$CSTLCompatibleVector@J$01@@@_STL@@@_STL@@QAE@ABV01@@Z 
??0?$vector@V?$CSTLCompatibleVector@J$01@@V?$allocator@V?$CSTLCompatibleVector@J$01@@@_STL@@@_STL@@QAE@ABV?$allocator@V?$CSTLCompatibleVector@J$01@@@1@@Z 
??0?$vector@V?$CSTLCompatibleVector@J$01@@V?$allocator@V?$CSTLCompatibleVector@J$01@@@_STL@@@_STL@@QAE@I@Z 
??0?$vector@V?$CSTLCompatibleVector@J$01@@V?$allocator@V?$CSTLCompatibleVector@J$01@@@_STL@@@_STL@@QAE@IABV?$CSTLCompatibleVector@J$01@@ABV?$allocator@V?$CSTLCompatibleVector@J$01@@@1@@Z 
??0CAccessMap@@QAE@ABV0@@Z 
??0CAccessMap@@QAE@XZ 
??0CAccessMapDebugKit@@QAE@ABV0@@Z 
??0CAccessMapDebugKit@@QAE@XZ 
??0CAccessMapIOException@@QAE@ABV0@@Z 
??0CAccessMapIOException@@QAE@V?$basic_string@DV?$char_traits@D@_STL@@V?$allocator@D@2@@_STL@@@Z 
??0CAccessMapIOException@@QAE@XZ 
??0CAccessMapMetaSerializer@@QAE@ABV0@@Z 
??0CAccessMapMetaSerializer@@QAE@XZ 
??0CAccessMapQueryProxy@@QAE@ABV0@@Z 
??0CAccessMapQueryProxy@@QAE@XZ 
??0CAccessMapSearchState@@QAE@ABV0@@Z 
??0CAccessMapSearchState@@QAE@XZ 
??0CAccessMetaMap@@QAE@ABV0@@Z 
??0CAccessMetaMap@@QAE@XZ 
??0CAccessMetaMapQueryProxy@@QAE@ABV0@@Z 
??0CAccessMetaMapQueryProxy@@QAE@PAV?$vector@PAVCAccessMap@@V?$allocator@PAVCAccessMap@@@_STL@@@_STL@@PAVCLinkMap@@@Z 
??0CAccessMetaMapStateFactory@@QAE@ABV0@@Z 
??0CAccessMetaMapStateFactory@@QAE@PAVCAccessMetaMapQueryProxy@@@Z 
??0CCellContainer@@QAE@ABV0@@Z 
??0CCellContainer@@QAE@XZ 
??0CCellContainerFactory@@QAE@XZ 
??0CFlankingPathCellEvaluator@@QAE@XZ 
??0CLinkMap@@QAE@ABV0@@Z 
??0CLinkMap@@QAE@XZ 
??0CMetaPathCellEvaluator@@QAE@ABV0@@Z 
??0CMetaPathCellEvaluator@@QAE@XZ 
??0CPathCell@@QAE@ABV0@@Z 
??0CPathCell@@QAE@XZ 
??0CPathCellAccessMap@@QAE@ABV0@@Z 
??0CPathCellAccessMap@@QAE@XZ 
??0CPathCellAccessMapSerializer@@QAE@ABV0@@Z 
??0CPathCellAccessMapSerializer@@QAE@XZ 
??0CPathCellPathfinder@@QAE@ABV0@@Z 
??0CPathCellPathfinder@@QAE@PAVCAccessMap@@@Z 
??0CPathCellPathfinder@@QAE@PAVCCellContainer@@@Z 
??0CPathCellPathfinder@@QAE@V?$basic_string@DV?$char_traits@D@_STL@@V?$allocator@D@2@@_STL@@@Z 
??0CPathCellPathfinder@@QAE@XZ 
??0CPathCellQueryProxy@@QAE@ABV0@@Z 
??0CPathCellQueryProxy@@QAE@PAVCCellContainer@@@Z 
??0CPathCellSearchStateFactory@@QAE@ABV0@@Z 
??0CPathCellSearchStateFactory@@QAE@XZ 
??0CRepellingPathCellEvaluator@@QAE@ABV0@@Z 
??0CRepellingPathCellEvaluator@@QAE@XZ 
??0CScanLineAccessMap@@QAE@ABV0@@Z 
??0CScanLineAccessMap@@QAE@XZ 
??0CScanLineAccessMapSerializer@@QAE@ABV0@@Z 
??0CScanLineAccessMapSerializer@@QAE@XZ 
??0CScanLineContainer@@QAE@ABV0@@Z 
??0CScanLineContainer@@QAE@XZ 
??0CScanLineContext@@QAE@ABV0@@Z 
??0CScanLineContext@@QAE@V?$Vector@M$02@@0@Z 
??0CScanLineMapPathfinder@@QAE@ABV0@@Z 
??0CScanLineMapPathfinder@@QAE@PAVCScanLineContainer@@PAVCScanLineContext@@@Z 
??0CScanLineMapPathfinder@@QAE@PAVCTerrainBrush@@PAVCWorld@@V?$Vector@M$02@@@Z 
??0CScanLineMapPathfinder@@QAE@XZ 
??0CScanLineQueryProxy@@QAE@ABV0@@Z 
??0CScanLineQueryProxy@@QAE@PAVCScanLineSearchStateMap@@@Z 
??0CScanLineSearchState@@QAE@ABV0@@Z 
??0CScanLineSearchState@@QAE@V?$CSTLCompatibleVector@J$01@@HPAVCScanLineContext@@@Z 
??0CScanLineSearchStateFactory@@QAE@ABV0@@Z 
??0CScanLineSearchStateFactory@@QAE@PAVCScanLineContainer@@PAVCScanLineContext@@@Z 
??0CScanLineSearchStateFactory@@QAE@PAVCScanLineSearchStateMap@@@Z 
??0CScanLineSearchStateMap@@QAE@ABV0@@Z 
??0CScanLineSearchStateMap@@QAE@PAVCScanLineContainer@@PAVCScanLineContext@@@Z 
??0CScanLineSearchStateMap@@QAE@XZ 
??0CShortestPathCellEvaluator@@QAE@ABV0@@Z 
??0CShortestPathCellEvaluator@@QAE@XZ 
??0CTerrainPathMap@@QAE@ABV0@@Z 
??0CTerrainPathMap@@QAE@XZ 
??0CTerrainPathMapFacade@@QAE@ABV0@@Z 
??0CTerrainPathMapFacade@@QAE@XZ 
??1?$CStateEvaluator@PAVCAccessMapSearchState@@@@UAE@XZ 
??1?$CStateFactory@PAVCAccessMapSearchState@@@@UAE@XZ 
??1?$_List_base@PAVCAccessMapSearchState@@V?$allocator@PAVCAccessMapSearchState@@@_STL@@@_STL@@QAE@XZ 
??1?$_Vector_base@PAVCAccessMapSearchState@@V?$allocator@PAVCAccessMapSearchState@@@_STL@@@_STL@@QAE@XZ 
??1?$_Vector_base@V?$CSTLCompatibleVector@J$01@@V?$allocator@V?$CSTLCompatibleVector@J$01@@@_STL@@@_STL@@QAE@XZ 
??1?$list@PAVCAccessMapSearchState@@V?$allocator@PAVCAccessMapSearchState@@@_STL@@@_STL@@QAE@XZ 
??1?$vector@PAVCAccessMapSearchState@@V?$allocator@PAVCAccessMapSearchState@@@_STL@@@_STL@@QAE@XZ 
??1?$vector@V?$CSTLCompatibleVector@J$01@@V?$allocator@V?$CSTLCompatibleVector@J$01@@@_STL@@@_STL@@QAE@XZ 
??1CAccessMap@@UAE@XZ 
??1CAccessMapDebugKit@@UAE@XZ 
??1CAccessMapIOException@@UAE@XZ 
??1CAccessMapMetaSerializer@@UAE@XZ 
??1CAccessMapQueryProxy@@UAE@XZ 
??1CAccessMapSearchState@@UAE@XZ 
??1CAccessMetaMap@@UAE@XZ 
??1CAccessMetaMapQueryProxy@@UAE@XZ 
??1CAccessMetaMapStateFactory@@UAE@XZ 
??1CCellContainer@@UAE@XZ 
??1CCellContainerFactory@@QAE@XZ 
??1CFlankingPathCellEvaluator@@UAE@XZ 
??1CLinkMap@@UAE@XZ 
??1CMetaPathCellEvaluator@@UAE@XZ 
??1CPathCell@@UAE@XZ 
??1CPathCellAccessMap@@UAE@XZ 
??1CPathCellAccessMapSerializer@@UAE@XZ 
??1CPathCellPathfinder@@UAE@XZ 
??1CPathCellQueryProxy@@UAE@XZ 
??1CPathCellSearchStateFactory@@UAE@XZ 
??1CRepellingPathCellEvaluator@@UAE@XZ 
??1CScanLineAccessMap@@UAE@XZ 
??1CScanLineAccessMapSerializer@@UAE@XZ 
??1CScanLineContainer@@UAE@XZ 
??1CScanLineContext@@UAE@XZ 
??1CScanLineMapPathfinder@@UAE@XZ 
??1CScanLineQueryProxy@@UAE@XZ 
??1CScanLineSearchState@@UAE@XZ 
??1CScanLineSearchStateFactory@@UAE@XZ 
??1CScanLineSearchStateMap@@UAE@XZ 
??1CShortestPathCellEvaluator@@UAE@XZ 
??1CTerrainPathMap@@QAE@XZ 
??1CTerrainPathMapFacade@@QAE@XZ 
??4?$CStateEvaluator@PAVCAccessMapSearchState@@@@QAEAAV0@ABV0@@Z 
??4?$CStateFactory@PAVCAccessMapSearchState@@@@QAEAAV0@ABV0@@Z 
??4?$_List_base@PAVCAccessMapSearchState@@V?$allocator@PAVCAccessMapSearchState@@@_STL@@@_STL@@QAEAAV01@ABV01@@Z 
??4?$_Vector_base@PAVCAccessMapSearchState@@V?$allocator@PAVCAccessMapSearchState@@@_STL@@@_STL@@QAEAAV01@ABV01@@Z 
??4?$_Vector_base@V?$CSTLCompatibleVector@J$01@@V?$allocator@V?$CSTLCompatibleVector@J$01@@@_STL@@@_STL@@QAEAAV01@ABV01@@Z 
??4?$list@PAVCAccessMapSearchState@@V?$allocator@PAVCAccessMapSearchState@@@_STL@@@_STL@@QAEAAV01@ABV01@@Z 
??4?$vector@PAVCAccessMapSearchState@@V?$allocator@PAVCAccessMapSearchState@@@_STL@@@_STL@@QAEAAV01@ABV01@@Z 
??4?$vector@V?$CSTLCompatibleVector@J$01@@V?$allocator@V?$CSTLCompatibleVector@J$01@@@_STL@@@_STL@@QAEAAV01@ABV01@@Z 
??4CAccessMap@@QAEAAV0@ABV0@@Z 
??4CAccessMapDebugKit@@QAEAAV0@ABV0@@Z 
??4CAccessMapIOException@@UAEAAV0@ABV0@@Z 
??4CAccessMapMetaSerializer@@QAEAAV0@ABV0@@Z 
??4CAccessMapQueryProxy@@QAEAAV0@ABV0@@Z 
??4CAccessMapSearchState@@UAEAAV0@ABV0@@Z 
??4CAccessMetaMap@@QAEAAV0@ABV0@@Z 
??4CAccessMetaMapQueryProxy@@QAEAAV0@ABV0@@Z 
??4CAccessMetaMapStateFactory@@QAEAAV0@ABV0@@Z 
??4CCellContainer@@QAEAAV0@ABV0@@Z 
??4CCellContainerFactory@@QAEAAV0@ABV0@@Z 
??4CFlankingPathCellEvaluator@@QAEAAV0@ABV0@@Z 
??4CLinkMap@@QAEAAV0@ABV0@@Z 
??4CMetaPathCellEvaluator@@QAEAAV0@ABV0@@Z 
??4CPathCell@@QAEAAV0@ABV0@@Z 
??4CPathCellAccessMap@@QAEAAV0@ABV0@@Z 
??4CPathCellAccessMapSerializer@@QAEAAV0@ABV0@@Z 
??4CPathCellPathfinder@@QAEAAV0@ABV0@@Z 
??4CPathCellQueryProxy@@QAEAAV0@ABV0@@Z 
??4CPathCellSearchStateFactory@@QAEAAV0@ABV0@@Z 
??4CRepellingPathCellEvaluator@@QAEAAV0@ABV0@@Z 
??4CScanLineAccessMap@@QAEAAV0@ABV0@@Z 
??4CScanLineAccessMapSerializer@@QAEAAV0@ABV0@@Z 
??4CScanLineContainer@@QAEAAV0@ABV0@@Z 
??4CScanLineContext@@UAEAAV0@ABV0@@Z 
??4CScanLineMapPathfinder@@QAEAAV0@ABV0@@Z 
??4CScanLineQueryProxy@@QAEAAV0@ABV0@@Z 
??4CScanLineSearchState@@UAEAAV0@ABV0@@Z 
??4CScanLineSearchStateFactory@@QAEAAV0@ABV0@@Z 
??4CScanLineSearchStateMap@@QAEAAV0@ABV0@@Z 
??4CShortestPathCellEvaluator@@QAEAAV0@ABV0@@Z 
??4CTerrainPathMap@@QAEAAV0@ABV0@@Z 
??4CTerrainPathMapFacade@@QAEAAV0@ABV0@@Z 
??A?$vector@PAVCAccessMapSearchState@@V?$allocator@PAVCAccessMapSearchState@@@_STL@@@_STL@@QAEAAPAVCAccessMapSearchState@@I@Z 
??A?$vector@PAVCAccessMapSearchState@@V?$allocator@PAVCAccessMapSearchState@@@_STL@@@_STL@@QBEABQAVCAccessMapSearchState@@I@Z 
??A?$vector@V?$CSTLCompatibleVector@J$01@@V?$allocator@V?$CSTLCompatibleVector@J$01@@@_STL@@@_STL@@QAEAAV?$CSTLCompatibleVector@J$01@@I@Z 
??A?$vector@V?$CSTLCompatibleVector@J$01@@V?$allocator@V?$CSTLCompatibleVector@J$01@@@_STL@@@_STL@@QBEABV?$CSTLCompatibleVector@J$01@@I@Z 
??_7?$CStateEvaluator@PAVCAccessMapSearchState@@@@6B@ 
??_7?$CStateFactory@PAVCAccessMapSearchState@@@@6B@ 
??_7CAccessMap@@6B@ 
??_7CAccessMapDebugKit@@6B@ 
??_7CAccessMapIOException@@6B@ 
??_7CAccessMapMetaSerializer@@6B@ 
??_7CAccessMapQueryProxy@@6B@ 
??_7CAccessMapSearchState@@6B@ 
??_7CAccessMetaMap@@6B@ 
??_7CAccessMetaMapQueryProxy@@6B@ 
??_7CAccessMetaMapStateFactory@@6B@ 
??_7CCellContainer@@6B@ 
??_7CFlankingPathCellEvaluator@@6B@ 
??_7CLinkMap@@6B@ 
??_7CMetaPathCellEvaluator@@6B@ 
??_7CPathCell@@6B@ 
??_7CPathCellAccessMap@@6B@ 
??_7CPathCellAccessMapSerializer@@6B@ 
??_7CPathCellPathfinder@@6B@ 
??_7CPathCellQueryProxy@@6B@ 
??_7CPathCellSearchStateFactory@@6B@ 
??_7CRepellingPathCellEvaluator@@6B@ 
??_7CScanLineAccessMap@@6B@ 
??_7CScanLineAccessMapSerializer@@6B@ 
??_7CScanLineContainer@@6B@ 
??_7CScanLineContext@@6B@ 
??_7CScanLineMapPathfinder@@6B@ 
??_7CScanLineQueryProxy@@6B@ 
??_7CScanLineSearchState@@6B@ 
??_7CScanLineSearchStateFactory@@6B@ 
??_7CScanLineSearchStateMap@@6B@ 
??_7CShortestPathCellEvaluator@@6B@ 
??_F?$list@PAVCAccessMapSearchState@@V?$allocator@PAVCAccessMapSearchState@@@_STL@@@_STL@@QAEXXZ 
??_F?$vector@PAVCAccessMapSearchState@@V?$allocator@PAVCAccessMapSearchState@@@_STL@@@_STL@@QAEXXZ 
??_F?$vector@V?$CSTLCompatibleVector@J$01@@V?$allocator@V?$CSTLCompatibleVector@J$01@@@_STL@@@_STL@@QAEXXZ 
?ACCESSMAP_DIR@CCellContainerFactory@@2VCTString@@B 
?Absorb@CPathCell@@QAEXPAV1@@Z 
?AddIncoming@CPathCell@@AAEXPAV1@@Z 
?AddNeighbour@CPathCell@@QAEXPAV1@@Z 
?AddPathCells@CAccessMapDebugKit@@QAEXABV?$basic_string@DV?$char_traits@D@_STL@@V?$allocator@D@2@@_STL@@@Z 
?AddPathCells@CAccessMapDebugKit@@QAEXABV?$basic_string@DV?$char_traits@D@_STL@@V?$allocator@D@2@@_STL@@V?$Vector@M$02@@@Z 
?AddPathCells@CAccessMapDebugKit@@QAEXPAVCCellContainer@@ABV?$basic_string@DV?$char_traits@D@_STL@@V?$allocator@D@2@@_STL@@@Z 
?AddPathCells@CAccessMapDebugKit@@QAEXPAVCCellContainer@@ABV?$basic_string@DV?$char_traits@D@_STL@@V?$allocator@D@2@@_STL@@V?$Vector@M$02@@@Z 
?AddResults@CLinkMap@@QAE_NPAVCAccessMapSearchState@@PAV?$vector@PAVCAccessMapSearchState@@V?$allocator@PAVCAccessMapSearchState@@@_STL@@@_STL@@@Z 
?AddScan@CScanLineContainer@@QAEXHHH@Z 
?AddScan@CScanLineContainer@@QAEXHHHHH@Z 
?AddScanLine@CScanLineContainer@@QAEXABV?$basic_string@DV?$char_traits@D@_STL@@V?$allocator@D@2@@_STL@@@Z 
?AddSearchSpace@CAccessMap@@UAEXABV?$basic_string@DV?$char_traits@D@_STL@@V?$allocator@D@2@@_STL@@@Z 
?AddSearchSpace@CAccessMetaMap@@UAEXABV?$basic_string@DV?$char_traits@D@_STL@@V?$allocator@D@2@@_STL@@@Z 
?AddSearchSpace@CPathCellAccessMap@@UAEXABV?$basic_string@DV?$char_traits@D@_STL@@V?$allocator@D@2@@_STL@@@Z 
?AddSearchSpace@CScanLineAccessMap@@UAEXABV?$basic_string@DV?$char_traits@D@_STL@@V?$allocator@D@2@@_STL@@@Z 
?AddSearchSpaceFromDirectory@CAccessMap@@UAEXV?$basic_string@DV?$char_traits@D@_STL@@V?$allocator@D@2@@_STL@@@Z 
?AddSearchSpaceFromDirectory@CAccessMetaMap@@UAEXV?$basic_string@DV?$char_traits@D@_STL@@V?$allocator@D@2@@_STL@@@Z 
?AddSearchSpaceFromDirectory@CScanLineAccessMap@@UAEXV?$basic_string@DV?$char_traits@D@_STL@@V?$allocator@D@2@@_STL@@@Z 
?AddSubstractionArea@CTerrainPathMapFacade@@QAEXV?$CBox@M$02@@@Z 
?ApplyFilter@CTerrainPathMap@@QAEXPAVCTerrainPathMapFilter@@@Z 
?ApplyVisitor@CTerrainPathMap@@QAEXAAVCTerrainPathMapVisitor@@@Z 
?BORDER_SIZE@CPathCellQueryProxy@@0MB 
?Begin@CScanLineContainer@@QAE?AU?$_Rb_tree_iterator@U?$pair@$$CBHPAV?$vector@V?$CSTLCompatibleVector@J$01@@V?$allocator@V?$CSTLCompatibleVector@J$01@@@_STL@@@_STL@@@_STL@@U?$_Nonconst_traits@U?$pair@$$CBHPAV?$vector@V?$CSTLCompatibleVector@J$01@@V?$allocator@V?$CSTLCompatibleVector@J$01@@@_STL@@@_STL@@@_STL@@@2@@_STL@@XZ 
?Begin@CScanLineSearchStateMap@@QAE?AU?$_Rb_tree_iterator@U?$pair@$$CBHPAV?$vector@PAVCScanLineSearchState@@V?$allocator@PAVCScanLineSearchState@@@_STL@@@_STL@@@_STL@@U?$_Nonconst_traits@U?$pair@$$CBHPAV?$vector@PAVCScanLineSearchState@@V?$allocator@PAVCScanLineSearchState@@@_STL@@@_STL@@@_STL@@@2@@_STL@@XZ 
?CanMerge@CCellContainer@@AAE_NPAVCPathCell@@0@Z 
?CanPrune@CCellContainer@@AAE_NPAVCPathCell@@0@Z 
?ChangeStrategy@CPathCellPathfinder@@QAEXW4SearchStrategy@AccessMap@@@Z 
?Clear@CLinkMap@@QAEXXZ 
?Clear@CScanLineContainer@@QAEXXZ 
?ClearResultVector@CScanLineSearchStateFactory@@AAEXXZ 
?Close@CPathCell@@QAEXXZ 
?ClosestFloat@CPathCell@@AAEABMABM00@Z 
?Contains@CAccessMapQueryProxy@@UAE_NABV?$Vector@M$02@@@Z 
?Contains@CAccessMapSearchState@@UAE_NV?$Vector@M$02@@@Z 
?Contains@CAccessMetaMapQueryProxy@@UAE_NABV?$Vector@M$02@@@Z 
?Contains@CPathCell@@QAE_NABULocationStruct@@@Z 
?Contains@CPathCell@@QAE_NABV?$Vector@M$02@@@Z 
?Contains@CPathCell@@QAE_NABV?$Vector@M$02@@ABH@Z 
?Contains@CPathCell@@QAE_NPAH@Z 
?Contains@CPathCell@@QAE_NPAV1@@Z 
?Contains@CPathCellQueryProxy@@UAE_NABV?$Vector@M$02@@@Z 
?Contains@CScanLineQueryProxy@@UAE_NABV?$Vector@M$02@@@Z 
?Contains@CScanLineSearchState@@UAE_NV?$Vector@M$02@@@Z 
?ContainsIgnoreY@CPathCell@@QAE_NABV?$Vector@M$02@@@Z 
?ConvertCoordinate@CScanLineContext@@QAE?AV?$CSTLCompatibleVector@J$01@@V?$Vector@M$02@@@Z 
?ConvertScanLine@CScanLineContext@@QAE?AV?$Vector@M$02@@HH@Z 
?ConvertScanLine@CScanLineContext@@QAE?AV?$Vector@M$02@@V?$CSTLCompatibleVector@J$01@@@Z 
?ConvertScanLine@CScanLineContext@@QAE?AV?$Vector@M$02@@V?$CSTLCompatibleVector@J$02@@@Z 
?CopyData@CScanLineContainer@@IAEXPBV?$map@HPAV?$vector@V?$CSTLCompatibleVector@J$01@@V?$allocator@V?$CSTLCompatibleVector@J$01@@@_STL@@@_STL@@U?$less@H@2@V?$allocator@U?$pair@$$CBHPAV?$vector@V?$CSTLCompatibleVector@J$01@@V?$allocator@V?$CSTLCompatibleVector@J$01@@@_STL@@@_STL@@@_STL@@@2@@_STL@@@Z 
?CopyHeightData@CTerrainPathMap@@QAEXPAG@Z 
?CreateCellContainer@CCellContainerFactory@@QAEPAVCCellContainer@@PBD@Z 
?CreateContext@CScanLineContext@@SAPAV1@VCEntityPointer@@@Z 
?CreateHorizontalLink@CScanLineAccessMap@@AAEXPAVCAccessMap@@PAVCLinkMap@@PAPAVCScanLineSearchState@@2H@Z 
?CreateLink@CAccessMap@@UAEXPAV1@PAVCLinkMap@@@Z 
?CreateLink@CAccessMetaMap@@UAEXPAVCAccessMap@@PAVCLinkMap@@@Z 
?CreateLink@CPathCellAccessMap@@UAEXPAVCAccessMap@@PAVCLinkMap@@@Z 
?CreateLink@CScanLineAccessMap@@UAEXPAVCAccessMap@@PAVCLinkMap@@@Z 
?CreatePathMap@CTerrainPathMapFacade@@QAEXPAVCTerrainBrush@@PAVCWorld@@V?$Vector@M$02@@@Z 
?CreatePathMap@CTerrainPathMapFacade@@QAEXVCEntityPointer@@V?$Vector@M$02@@@Z 
?CreateReference@CCellContainerFactory@@AAEPAUPathCellReference@1@PAU_iobuf@@@Z 
?CreateReference@CPathCellAccessMapSerializer@@AAEPAUPathCellReference@1@PAU_iobuf@@@Z 
?CreateState@CScanLineSearchStateFactory@@QAEPAVCAccessMapSearchState@@V?$Vector@M$02@@@Z 
?CreateStates@?$CStateFactory@PAVCAccessMapSearchState@@@@UAEPAV?$vector@PAVCAccessMapSearchState@@V?$allocator@PAVCAccessMapSearchState@@@_STL@@@_STL@@PAVCAccessMapSearchState@@@Z 
?CreateStates@CAccessMetaMapStateFactory@@UAEPAV?$vector@PAVCAccessMapSearchState@@V?$allocator@PAVCAccessMapSearchState@@@_STL@@@_STL@@PAVCAccessMapSearchState@@@Z 
?CreateStates@CPathCellSearchStateFactory@@UAEPAV?$vector@PAVCAccessMapSearchState@@V?$allocator@PAVCAccessMapSearchState@@@_STL@@@_STL@@PAVCAccessMapSearchState@@@Z 
?CreateStates@CScanLineSearchStateFactory@@UAEPAV?$vector@PAVCAccessMapSearchState@@V?$allocator@PAVCAccessMapSearchState@@@_STL@@@_STL@@PAVCAccessMapSearchState@@@Z 
?DEAD_END_VALUE@CRepellingPathCellEvaluator@@2MB 
?DEFAULT_CELL_ALIGNMENT@CPathCell@@2MB 
?Destroy@CPathCellAccessMap@@AAEXXZ 
?Destroy@CScanLineAccessMap@@AAEXXZ 
?DistanceWalkable@CPathCellQueryProxy@@AAE_NV?$Vector@M$02@@0AAM@Z 
?DumpToLog@CPathCell@@QAEXXZ 
?DumpToLogFile@CPathCell@@QAEXPBD@Z 
?ENEMY_IN_SIGHT_VALUE@CRepellingPathCellEvaluator@@2MB 
?End@CScanLineContainer@@QAE?AU?$_Rb_tree_iterator@U?$pair@$$CBHPAV?$vector@V?$CSTLCompatibleVector@J$01@@V?$allocator@V?$CSTLCompatibleVector@J$01@@@_STL@@@_STL@@@_STL@@U?$_Nonconst_traits@U?$pair@$$CBHPAV?$vector@V?$CSTLCompatibleVector@J$01@@V?$allocator@V?$CSTLCompatibleVector@J$01@@@_STL@@@_STL@@@_STL@@@2@@_STL@@XZ 
?End@CScanLineSearchStateMap@@QAE?AU?$_Rb_tree_iterator@U?$pair@$$CBHPAV?$vector@PAVCScanLineSearchState@@V?$allocator@PAVCScanLineSearchState@@@_STL@@@_STL@@@_STL@@U?$_Nonconst_traits@U?$pair@$$CBHPAV?$vector@PAVCScanLineSearchState@@V?$allocator@PAVCScanLineSearchState@@@_STL@@@_STL@@@_STL@@@2@@_STL@@XZ 
?EraseIncoming@CPathCell@@AAEXPAV1@@Z 
?EraseNeighbour@CPathCell@@AAEXPAV1@@Z 
?EvaluateState@CFlankingPathCellEvaluator@@UAEMPAVCAccessMapSearchState@@0@Z 
?EvaluateState@CMetaPathCellEvaluator@@UAEMPAVCAccessMapSearchState@@0@Z 
?EvaluateState@CRepellingPathCellEvaluator@@UAEMPAVCAccessMapSearchState@@0@Z 
?EvaluateState@CShortestPathCellEvaluator@@UAEMPAVCAccessMapSearchState@@0@Z 
?ExcludeCellTypes@CAccessMapQueryProxy@@UAEXK@Z 
?ExcludeCellTypes@CAccessMetaMapQueryProxy@@UAEXK@Z 
?ExcludeCellTypes@CPathCellQueryProxy@@UAEXK@Z 
?ExcludeCellTypes@CScanLineQueryProxy@@UAEXK@Z 
?FindCell@CPathCellQueryProxy@@AAEPAVCPathCell@@ABV?$Vector@M$02@@PAV?$vector@PAVCPathCell@@V?$allocator@PAVCPathCell@@@_STL@@@_STL@@PAV2@@Z 
?FindCell@CScanLineQueryProxy@@AAEPAVCScanLineSearchState@@V?$Vector@M$02@@PAV?$vector@PAVCAccessMapSearchState@@V?$allocator@PAVCAccessMapSearchState@@@_STL@@@_STL@@PAV2@@Z 
?FindNearestSubCell@CCellContainer@@QAEPAV?$vector@PAVCPathCell@@V?$allocator@PAVCPathCell@@@_STL@@@_STL@@ABV?$Vector@M$02@@@Z 
?FindTerrain@CAccessMapDebugKit@@AAEPAVCTerrain@@PAVCWorld@@PAVCScanLineSearchState@@@Z 
?FindVerticalNeighbours@CScanLineSearchStateFactory@@AAEXPAVCScanLineSearchState@@@Z 
?GetAccessMap@CAccessMapSearchState@@QAEPAVCAccessMap@@XZ 
?GetAccessMap@CAccessMetaMapQueryProxy@@AAEPAVCAccessMap@@ABV?$Vector@M$02@@@Z 
?GetAccessMap@CPathCellPathfinder@@QAEPAVCAccessMap@@XZ 
?GetAccessMapCount@CAccessMetaMap@@QAEHXZ 
?GetAlignedMaxVector@CPathCell@@QAE?AV?$Vector@M$02@@XZ 
?GetAlignedMinVector@CPathCell@@QAE?AV?$Vector@M$02@@XZ 
?GetAlignment@CPathCell@@QAEMXZ 
?GetBounds@CAccessMap@@UAE?AV?$CBox@M$02@@XZ 
?GetBounds@CAccessMetaMap@@UAE?AV?$CBox@M$02@@XZ 
?GetBounds@CCellContainer@@QAE?AV?$CBox@M$02@@XZ 
?GetBounds@CPathCellAccessMap@@UAE?AV?$CBox@M$02@@XZ 
?GetBounds@CScanLineAccessMap@@UAE?AV?$CBox@M$02@@XZ 
?GetBounds@CScanLineContainer@@QAE?AV?$CBox@J$02@@XZ 
?GetBounds@CScanLineSearchStateMap@@QAE?AV?$CBox@M$02@@XZ 
?GetBounds@CTerrainPathMap@@QBE?AV?$CBox@M$02@@XZ 
?GetCellContainer@CAccessMapDebugKit@@QAEPAVCCellContainer@@XZ 
?GetCellContainer@CPathCellAccessMap@@QAEPAVCCellContainer@@XZ 
?GetClosestLocation@CAccessMapSearchState@@UAE?AV?$Vector@M$02@@ABV2@@Z 
?GetClosestLocation@CAccessMapSearchState@@UAE?AV?$Vector@M$02@@V2@M@Z 
?GetClosestLocation@CPathCell@@UAE?AV?$Vector@M$02@@ABV2@@Z 
?GetClosestLocation@CPathCell@@UAE?AV?$Vector@M$02@@V2@M@Z 
?GetClosestLocation@CScanLineSearchState@@UAE?AV?$Vector@M$02@@ABV2@@Z 
?GetClosestLocation@CScanLineSearchState@@UAE?AV?$Vector@M$02@@V2@M@Z 
?GetContainer@CCellContainer@@QAEPAV?$map@HPAV?$map@HPAV?$map@HPAV?$vector@PAVCPathCell@@V?$allocator@PAVCPathCell@@@_STL@@@_STL@@U?$less@H@2@V?$allocator@U?$pair@$$CBHPAV?$vector@PAVCPathCell@@V?$allocator@PAVCPathCell@@@_STL@@@_STL@@@_STL@@@2@@_STL@@U?$less@H@2@V?$allocator@U?$pair@$$CBHPAV?$map@HPAV?$vector@PAVCPathCell@@V?$allocator@PAVCPathCell@@@_STL@@@_STL@@U?$less@H@2@V?$allocator@U?$pair@$$CBHPAV?$vector@PAVCPathCell@@V?$allocator@PAVCPathCell@@@_STL@@@_STL@@@_STL@@@2@@_STL@@@_STL@@@2@@_STL@@U?$less@H@2@V?$allocator@U?$pair@$$CBHPAV?$map@HPAV?$map@HPAV?$vector@PAVCPathCell@@V?$allocator@PAVCPathCell@@@_STL@@@_STL@@U?$less@H@2@V?$allocator@U?$pair@$$CBHPAV?$vector@PAVCPathCell@@V?$allocator@PAVCPathCell@@@_STL@@@_STL@@@_STL@@@2@@_STL@@U?$less@H@2@V?$allocator@U?$pair@$$CBHPAV?$map@HPAV?$vector@PAVCPathCell@@V?$allocator@PAVCPathCell@@@_STL@@@_STL@@U?$less@H@2@V?$allocator@U?$pair@$$CBHPAV?$vector@PAVCPathCell@@V?$allocator@PAVCPathCell@@@_STL@@@_STL@@@_STL@@@2@@_STL@@@_STL@@@2@@_STL@@@_STL@@@2@@_STL@@XZ 
?GetContainer@CPathCellQueryProxy@@QAEPAVCCellContainer@@XZ 
?GetContext@CScanLineSearchState@@QAEPAVCScanLineContext@@XZ 
?GetContext@CScanLineSearchStateMap@@QAEPAVCScanLineContext@@XZ 
?GetConversionOffset@CScanLineContext@@QAE?AV?$Vector@M$02@@XZ 
?GetConversionVector@CScanLineContext@@QAE?AV?$Vector@M$02@@XZ 
?GetDebugKit@CPathCellPathfinder@@QAEPAVCAccessMapDebugKit@@XZ 
?GetDestination@CPathCellPathfinder@@QAE?AV?$Vector@M$02@@XZ 
?GetDestination@CShortestPathCellEvaluator@@QAE?AV?$Vector@M$02@@XZ 
?GetDiscreteLocation@CPathCell@@QBEABULocationStruct@@XZ 
?GetDiscreteSize@CPathCell@@QAEXPAH@Z 
?GetFactory@CAccessMap@@UAEPAV?$CStateFactory@PAVCAccessMapSearchState@@@@XZ 
?GetFactory@CAccessMetaMap@@UAEPAV?$CStateFactory@PAVCAccessMapSearchState@@@@XZ 
?GetFarestLocation@CAccessMapSearchState@@UAE?AV?$Vector@M$02@@V2@@Z 
?GetFarestLocation@CPathCell@@UAE?AV?$Vector@M$02@@V2@@Z 
?GetFarestLocation@CScanLineSearchState@@UAE?AV?$Vector@M$02@@V2@@Z 
?GetFirst@CCellContainer@@QAEPAVCPathCell@@XZ 
?GetFlags@CPathCell@@QAEKXZ 
?GetFlankingStrategy@CPathCellPathfinder@@QAEPAVCFlankingPathCellEvaluator@@XZ 
?GetGoalState@?$CStateEvaluator@PAVCAccessMapSearchState@@@@UBEPAVCAccessMapSearchState@@XZ 
?GetGoalState@CFlankingPathCellEvaluator@@UBEPAVCAccessMapSearchState@@XZ 
?GetGoalState@CMetaPathCellEvaluator@@UBEPAVCAccessMapSearchState@@XZ 
?GetGoalState@CShortestPathCellEvaluator@@UBEPAVCAccessMapSearchState@@XZ 
?GetHeight@CAccessMapDebugKit@@QAEMPAVCWorld@@PAVCScanLineSearchState@@@Z 
?GetHeight@CTerrainPathMap@@QBEGHH@Z 
?GetHeight@CTerrainPathMap@@QBEGV?$CSTLCompatibleVector@J$01@@@Z 
?GetHeightData@CTerrainPathMap@@QAEPAGXZ 
?GetIncoming@CPathCell@@AAEPAV1@H@Z 
?GetIncomingCount@CPathCell@@QAEIXZ 
?GetLineNumber@CScanLineSearchState@@QAEHXZ 
?GetLinkCount@CLinkMap@@QAEHXZ 
?GetLocation@CAccessMapSearchState@@UAE?AV?$Vector@M$02@@XZ 
?GetLocation@CPathCell@@UAE?AV?$Vector@M$02@@XZ 
?GetLocation@CScanLineSearchState@@UAE?AV?$Vector@M$02@@XZ 
?GetMap@CLinkMap@@QAEAAV?$map@PAVCAccessMapSearchState@@PAV?$vector@PAVCAccessMapSearchState@@V?$allocator@PAVCAccessMapSearchState@@@_STL@@@_STL@@U?$less@PAVCAccessMapSearchState@@@3@V?$allocator@U?$pair@QAVCAccessMapSearchState@@PAV?$vector@PAVCAccessMapSearchState@@V?$allocator@PAVCAccessMapSearchState@@@_STL@@@_STL@@@_STL@@@3@@_STL@@XZ 
?GetMaxHeight@CAccessMapDebugKit@@QAEMPAVCTerrain@@HH@Z 
?GetMaxValue@CPathCellPathfinder@@QAEMXZ 
?GetMaxVector@CPathCell@@QBEABULocationStruct@@XZ 
?GetMetaLinks@CAccessMetaMapQueryProxy@@QAEPAVCLinkMap@@XZ 
?GetMetaLinks@CLinkMap@@QAEPAV?$vector@PAVCAccessMapSearchState@@V?$allocator@PAVCAccessMapSearchState@@@_STL@@@_STL@@PAVCAccessMapSearchState@@@Z 
?GetMetaMap@CAccessMap@@UAEPAV1@V?$Vector@M$02@@0@Z 
?GetMetaMap@CAccessMetaMap@@UAEPAVCAccessMap@@V?$Vector@M$02@@0@Z 
?GetMetaMap@CPathCellAccessMap@@UAEPAVCAccessMap@@V?$Vector@M$02@@0@Z 
?GetMetaMap@CScanLineAccessMap@@UAEPAVCAccessMap@@V?$Vector@M$02@@0@Z 
?GetMetaPathfinderStrategy@CPathCellPathfinder@@QAEPAVCMetaPathCellEvaluator@@XZ 
?GetMiddleIntersection@CAccessMapSearchState@@UAE?AV?$Vector@M$02@@PAV1@@Z 
?GetMiddleIntersection@CPathCell@@UAE?AV?$Vector@M$02@@PAVCAccessMapSearchState@@@Z 
?GetMinimumDistance@CFlankingPathCellEvaluator@@QAEMXZ 
?GetMinimumDistance@CRepellingPathCellEvaluator@@QAEMXZ 
?GetNearesSearchSpace@CAccessMapQueryProxy@@UAEPAVCAccessMapSearchState@@ABV?$Vector@M$02@@@Z 
?GetNearesSearchSpace@CAccessMetaMapQueryProxy@@UAEPAVCAccessMapSearchState@@ABV?$Vector@M$02@@@Z 
?GetNearesSearchSpace@CPathCellQueryProxy@@UAEPAVCAccessMapSearchState@@ABV?$Vector@M$02@@@Z 
?GetNearesSearchSpace@CScanLineQueryProxy@@UAEPAVCAccessMapSearchState@@ABV?$Vector@M$02@@@Z 
?GetNearestPathCell@CCellContainer@@QAEPAVCPathCell@@ABV?$Vector@M$02@@@Z 
?GetNearestPathCell@CCellContainer@@QAEPAVCPathCell@@PAV?$vector@PAVCPathCell@@V?$allocator@PAVCPathCell@@@_STL@@@_STL@@ABV?$Vector@M$02@@@Z 
?GetNearestPathCellSlow@CCellContainer@@QAEPAVCPathCell@@ABV?$Vector@M$02@@@Z 
?GetNearestSearchSpaceSlow@CAccessMapQueryProxy@@UAEPAVCAccessMapSearchState@@ABV?$Vector@M$02@@@Z 
?GetNearestSearchSpaceSlow@CAccessMetaMapQueryProxy@@UAEPAVCAccessMapSearchState@@ABV?$Vector@M$02@@@Z 
?GetNearestSearchSpaceSlow@CPathCellQueryProxy@@UAEPAVCAccessMapSearchState@@ABV?$Vector@M$02@@@Z 
?GetNeighbour@CPathCell@@QAEPAV1@H@Z 
?GetNeighbourCount@CPathCell@@QAEIXZ 
?GetNeighbours@CAccessMapQueryProxy@@UAEPAV?$vector@PAVCAccessMapSearchState@@V?$allocator@PAVCAccessMapSearchState@@@_STL@@@_STL@@PAVCAccessMapSearchState@@@Z 
?GetNeighbours@CAccessMetaMapQueryProxy@@UAEPAV?$vector@PAVCAccessMapSearchState@@V?$allocator@PAVCAccessMapSearchState@@@_STL@@@_STL@@PAVCAccessMapSearchState@@@Z 
?GetNeighbours@CPathCell@@QAEPAV?$vector@PAVCPathCell@@V?$allocator@PAVCPathCell@@@_STL@@@_STL@@XZ 
?GetNeighbours@CPathCellQueryProxy@@UAEPAV?$vector@PAVCAccessMapSearchState@@V?$allocator@PAVCAccessMapSearchState@@@_STL@@@_STL@@PAVCAccessMapSearchState@@@Z 
?GetNeighbours@CScanLineQueryProxy@@UAEPAV?$vector@PAVCAccessMapSearchState@@V?$allocator@PAVCAccessMapSearchState@@@_STL@@@_STL@@PAVCAccessMapSearchState@@@Z 
?GetNext@CCellContainer@@QAEPAVCPathCell@@XZ 
?GetPathCell@CCellContainer@@QAEPAVCPathCell@@ABULocationStruct@@@Z 
?GetPathCell@CCellContainer@@QAEPAVCPathCell@@HHH@Z 
?GetPathCell@CCellContainer@@QAEPAVCPathCell@@QAH@Z 
?GetPathCell@CCellContainer@@QAEPAVCPathCell@@V?$Vector@M$02@@@Z 
?GetPathCellsInArea@CCellContainer@@QAEXV?$CBox@M$02@@PAV?$vector@PAVCAccessMapSearchState@@V?$allocator@PAVCAccessMapSearchState@@@_STL@@@_STL@@@Z 
?GetProxy@CAccessMap@@UAEPAVCAccessMapQueryProxy@@XZ 
?GetProxy@CAccessMetaMap@@UAEPAVCAccessMapQueryProxy@@XZ 
?GetRepelPoint@CFlankingPathCellEvaluator@@QAE?AV?$Vector@M$02@@XZ 
?GetRepelPoint@CRepellingPathCellEvaluator@@QAE?AV?$Vector@M$02@@XZ 
?GetRepelStrategy@CPathCellPathfinder@@QAEPAVCRepellingPathCellEvaluator@@XZ 
?GetScanCount@CScanLineContainer@@QAEIXZ 
?GetScanLine@CScanLineContainer@@QAEPAV?$vector@V?$CSTLCompatibleVector@J$01@@V?$allocator@V?$CSTLCompatibleVector@J$01@@@_STL@@@_STL@@H@Z 
?GetScanLine@CScanLineSearchState@@QAE?AV?$CSTLCompatibleVector@J$01@@XZ 
?GetScanLine@CScanLineSearchStateMap@@QAEPAV?$vector@PAVCScanLineSearchState@@V?$allocator@PAVCScanLineSearchState@@@_STL@@@_STL@@H@Z 
?GetScanLineContainer@CTerrainPathMapFacade@@QAEPAVCScanLineContainer@@XZ 
?GetScanLineContext@CTerrainPathMapFacade@@QAEPAVCScanLineContext@@XZ 
?GetScanLineCount@CScanLineContainer@@QAEIXZ 
?GetScanLineCount@CScanLineSearchStateMap@@QAEHXZ 
?GetScansInRange@CScanLineContainer@@QAEXV?$CSTLCompatibleVector@J$01@@HPAV?$vector@V?$CSTLCompatibleVector@J$01@@V?$allocator@V?$CSTLCompatibleVector@J$01@@@_STL@@@_STL@@@Z 
?GetScansInRange@CScanLineSearchStateMap@@QAEXV?$CSTLCompatibleVector@J$01@@HPAV?$vector@PAVCAccessMapSearchState@@V?$allocator@PAVCAccessMapSearchState@@@_STL@@@_STL@@@Z 
?GetSearchMap@CScanLineAccessMap@@QAEPAVCScanLineSearchStateMap@@XZ 
?GetSearchState@CAccessMapQueryProxy@@UAEPAVCAccessMapSearchState@@ABV?$Vector@M$02@@@Z 
?GetSearchState@CAccessMetaMapQueryProxy@@UAEPAVCAccessMapSearchState@@ABV?$Vector@M$02@@@Z 
?GetSearchState@CPathCellQueryProxy@@UAEPAVCAccessMapSearchState@@ABV?$Vector@M$02@@@Z 
?GetSearchState@CScanLineQueryProxy@@UAEPAVCAccessMapSearchState@@ABV?$Vector@M$02@@@Z 
?GetSearchState@CScanLineSearchStateMap@@QAEPAVCScanLineSearchState@@V?$CSTLCompatibleVector@J$01@@@Z 
?GetSearchStatesInArea@CAccessMapQueryProxy@@UAEXV?$CBox@M$02@@PAV?$vector@PAVCAccessMapSearchState@@V?$allocator@PAVCAccessMapSearchState@@@_STL@@@_STL@@@Z 
?GetSearchStatesInArea@CAccessMetaMapQueryProxy@@UAEXV?$CBox@M$02@@PAV?$vector@PAVCAccessMapSearchState@@V?$allocator@PAVCAccessMapSearchState@@@_STL@@@_STL@@@Z 
?GetSearchStatesInArea@CPathCellQueryProxy@@UAEXV?$CBox@M$02@@PAV?$vector@PAVCAccessMapSearchState@@V?$allocator@PAVCAccessMapSearchState@@@_STL@@@_STL@@@Z 
?GetSearchStatesInArea@CScanLineQueryProxy@@UAEXV?$CBox@M$02@@PAV?$vector@PAVCAccessMapSearchState@@V?$allocator@PAVCAccessMapSearchState@@@_STL@@@_STL@@@Z 
?GetShortestPath@CPathCellPathfinder@@QAEXPAV?$list@PAVCAccessMapSearchState@@V?$allocator@PAVCAccessMapSearchState@@@_STL@@@_STL@@_N@Z 
?GetShortestPath@CPathCellPathfinder@@QAEXPAV?$vector@PAVCAccessMapSearchState@@V?$allocator@PAVCAccessMapSearchState@@@_STL@@@_STL@@_N@Z 
?GetShortestPath@CScanLineMapPathfinder@@QAEXPAV?$list@PAVCAccessMapSearchState@@V?$allocator@PAVCAccessMapSearchState@@@_STL@@@_STL@@_N@Z 
?GetShortestPathStrategy@CPathCellPathfinder@@QAEPAVCShortestPathCellEvaluator@@XZ 
?GetSize@CAccessMapSearchState@@UAE?AV?$Vector@M$02@@XZ 
?GetSize@CCellContainer@@QAEIXZ 
?GetSize@CPathCell@@UAE?AV?$Vector@M$02@@XZ 
?GetSize@CScanLineSearchState@@UAE?AV?$Vector@M$02@@XZ 
?GetSize@CTerrainPathMap@@QBE?AV?$CSTLCompatibleVector@J$01@@XZ 
?GetString@CPathCell@@QAEXPAD@Z 
?GetTranslationFactor@CTerrainPathMap@@QBE?AV?$Vector@M$02@@XZ 
?GetValue@CAccessMapSearchState@@UAEMXZ 
?GetValue@CPathCell@@UAEMXZ 
?GetWorldCoordinate@CTerrainPathMap@@QAE?AV?$Vector@M$02@@HH@Z 
?GetWorldHeight@CTerrainPathMap@@QAEMV?$Vector@M$02@@@Z 
?HIDE_BONUS@CRepellingPathCellEvaluator@@2MB 
?HasReachedGoalState@?$CStateEvaluator@PAVCAccessMapSearchState@@@@UAE_NPAVCAccessMapSearchState@@@Z 
?HasReachedGoalState@CFlankingPathCellEvaluator@@UAE_NPAVCAccessMapSearchState@@@Z 
?HasReachedGoalState@CMetaPathCellEvaluator@@UAE_NPAVCAccessMapSearchState@@@Z 
?HasReachedGoalState@CRepellingPathCellEvaluator@@UAE_NPAVCAccessMapSearchState@@@Z 
?HasReachedGoalState@CShortestPathCellEvaluator@@UAE_NPAVCAccessMapSearchState@@@Z 
?HasStraightPath@CAccessMapQueryProxy@@UAE_NABV?$Vector@M$02@@0@Z 
?HasStraightPath@CAccessMetaMapQueryProxy@@UAE_NABV?$Vector@M$02@@0@Z 
?HasStraightPath@CPathCellQueryProxy@@UAE_NABV?$Vector@M$02@@0@Z 
?HasStraightPath@CScanLineQueryProxy@@UAE_NABV?$Vector@M$02@@0@Z 
?INACCESSIBLE_NODE@?$CStateEvaluator@PAVCAccessMapSearchState@@@@2MB 
?INVALID_HEIGHT@CTerrainPathMap@@2GB 
?INVALID_SLOPE@CTerrainPathMap@@2GB 
?IS_DANGEROUS_CELL_FLAG@CPathCell@@2KB 
?IS_EDGE_CELL_FLAG@CPathCell@@2KB 
?IS_ON_REMOVE_LIST_FLAG@CPathCell@@2KB 
?IS_OPEN_FLAG@CPathCell@@2KB 
?IS_TERRAIN_CELL_FLAG@CPathCell@@2KB 
?InvalidateArea@CTerrainPathMap@@QAEXV?$CBox@M$02@@@Z 
?IsDangerous@CPathCell@@QAE_NXZ 
?IsEast@CPathCell@@QAE_NPAV1@@Z 
?IsEdgeCell@CPathCell@@QAE_NXZ 
?IsInBorderRegion@CPathCellQueryProxy@@AAE_NABV?$Vector@M$02@@PAVCPathCell@@@Z 
?IsInViewFrustum@CFlankingPathCellEvaluator@@AAEHV?$Vector@M$02@@00M@Z 
?IsNear@CPathCell@@QAE_NV?$Vector@M$02@@M@Z 
?IsNeighbour@CPathCell@@QAE_NPAV1@@Z 
?IsNorth@CPathCell@@QAE_NPAV1@@Z 
?IsOnRemoveList@CPathCell@@QAE_NXZ 
?IsOpen@CPathCell@@QAE_NXZ 
?IsSouth@CPathCell@@QAE_NPAV1@@Z 
?IsTerrainCell@CPathCell@@QAE_NXZ 
?IsValid@?$CStateEvaluator@PAVCAccessMapSearchState@@@@UAE_NXZ 
?IsValid@CAccessMapSearchState@@UAE_NXZ 
?IsValid@CCellContainer@@QAE_NXZ 
?IsValid@CFlankingPathCellEvaluator@@UAE_NXZ 
?IsValid@CMetaPathCellEvaluator@@UAE_NXZ 
?IsValid@CPathCell@@UAE_NXZ 
?IsValid@CPathCellPathfinder@@QAE_NXZ 
?IsValid@CRepellingPathCellEvaluator@@UAE_NXZ 
?IsValid@CScanLineContext@@QAE_NXZ 
?IsValid@CScanLineSearchState@@UAE_NXZ 
?IsValid@CShortestPathCellEvaluator@@UAE_NXZ 
?IsWalkable@CPathCellQueryProxy@@AAE_NABV?$Vector@M$02@@0@Z 
?IsWest@CPathCell@@QAE_NPAV1@@Z 
?LinkNeighbour@CAccessMapDebugKit@@AAEXPAVCCellContainer@@HHHHHH@Z 
?LinkSubMaps@CAccessMetaMap@@UAEXXZ 
?MAX_CELL_PRUNING@CCellContainer@@0IB 
?MapToTerrainCoordinates@CAccessMapDebugKit@@AAE?AV?$CBox@J$01@@PAVCTerrain@@PAVCScanLineSearchState@@@Z 
?Merge@CAccessMapSearchState@@UAEXXZ 
?Merge@CCellContainer@@QAE_NXZ 
?Merge@CPathCell@@UAEXPAVCAccessMapSearchState@@@Z 
?MergeSubCell@CCellContainer@@AAE_NPAV?$vector@PAVCPathCell@@V?$allocator@PAVCPathCell@@@_STL@@@_STL@@@Z 
?PATHCELL_ACCESSMAP_ID@CPathCellAccessMapSerializer@@2PBDB 
?PATHCELL_ACCESSMAP_VERSION_NUMBER@CPathCellAccessMapSerializer@@2HB 
?Prune@CCellContainer@@QAE_NXZ 
?PruneSubCell@CCellContainer@@AAE_NPAV?$vector@PAVCPathCell@@V?$allocator@PAVCPathCell@@@_STL@@@_STL@@@Z 
?PutCell@CCellContainer@@QAEXPAVCPathCell@@@Z 
?PutOnRemoveList@CPathCell@@QAEXXZ 
?ReadAccessMap@CAccessMapMetaSerializer@@UAEPAVCAccessMap@@XZ 
?ReadAccessMap@CPathCellAccessMapSerializer@@UAEPAVCAccessMap@@XZ 
?ReadAccessMap@CScanLineAccessMapSerializer@@UAEPAVCAccessMap@@XZ 
?ReadCScanLineMap@CScanLineAccessMapSerializer@@QAEPAVCScanLineSearchStateMap@@XZ 
?ReadCellContainer@CPathCellAccessMapSerializer@@UAEPAVCCellContainer@@XZ 
?ReadCellFromFile@CPathCellAccessMapSerializer@@AAE_NPAVCPathCell@@PAU_iobuf@@@Z 
?ReadFromFile@CPathCell@@QAEHPAU_iobuf@@@Z 
?RemoveAllNeighbours@CPathCell@@QAEXXZ 
?RemoveCell@CCellContainer@@QAEPAVCPathCell@@PAV2@@Z 
?RemoveIncoming@CPathCell@@AAEXPAV1@@Z 
?RemoveNeighbour@CPathCell@@AAEXPAV1@@Z 
?ResolveReferences@CCellContainerFactory@@AAEXPAV?$vector@PAUPathCellReference@CCellContainerFactory@@V?$allocator@PAUPathCellReference@CCellContainerFactory@@@_STL@@@_STL@@PAVCCellContainer@@@Z 
?ResolveReferences@CPathCellAccessMapSerializer@@AAEXPAV?$vector@PAUPathCellReference@CPathCellAccessMapSerializer@@V?$allocator@PAUPathCellReference@CPathCellAccessMapSerializer@@@_STL@@@_STL@@PAVCCellContainer@@@Z 
?SCANLINE_ACCESSMAP_ID@CScanLineAccessMapSerializer@@2PBDB 
?SUB_CELL_SIZE@CCellContainer@@2HB 
?Search@CPathCellPathfinder@@QAE_NXZ 
?Search@CScanLineMapPathfinder@@QAE_NXZ 
?SetAccessMap@CAccessMapSearchState@@QAEXPAVCAccessMap@@@Z 
?SetAccessMap@CPathCellPathfinder@@QAEXPAVCAccessMap@@@Z 
?SetBounds@CScanLineSearchStateMap@@QAEXV?$Vector@M$02@@0@Z 
?SetBounds@CTerrainPathMap@@QAEXV?$Vector@M$02@@0@Z 
?SetCellContainer@CAccessMapDebugKit@@QAEXPAVCCellContainer@@@Z 
?SetCellContainer@CPathCellAccessMap@@QAEXPAVCCellContainer@@@Z 
?SetDangerousFlag@CPathCell@@QAEX_N@Z 
?SetDestination@CFlankingPathCellEvaluator@@QAEXV?$Vector@M$02@@@Z 
?SetDestination@CMetaPathCellEvaluator@@QAEXV?$Vector@M$02@@@Z 
?SetDestination@CPathCellPathfinder@@QAE_NV?$Vector@M$02@@@Z 
?SetDestination@CScanLineMapPathfinder@@QAE_NV?$Vector@M$02@@@Z 
?SetDestination@CShortestPathCellEvaluator@@QAEXV?$Vector@M$02@@@Z 
?SetEdgeCell@CPathCell@@QAEXXZ 
?SetFactory@CAccessMap@@IAEXPAV?$CStateFactory@PAVCAccessMapSearchState@@@@@Z 
?SetFlags@CPathCell@@QAEXK@Z 
?SetFrustrumDistance@CFlankingPathCellEvaluator@@QAEXM@Z 
?SetFrustrumSize@CFlankingPathCellEvaluator@@QAEXM@Z 
?SetGoalState@?$CStateEvaluator@PAVCAccessMapSearchState@@@@UAEXPAVCAccessMapSearchState@@@Z 
?SetGoalState@CFlankingPathCellEvaluator@@UAEXPAVCAccessMapSearchState@@@Z 
?SetGoalState@CMetaPathCellEvaluator@@UAEXPAVCAccessMapSearchState@@@Z 
?SetGoalState@CRepellingPathCellEvaluator@@UAEXPAVCAccessMapSearchState@@@Z 
?SetGoalState@CShortestPathCellEvaluator@@UAEXPAVCAccessMapSearchState@@@Z 
?SetHeight@CTerrainPathMap@@QAEXHHG@Z 
?SetLocation@CPathCell@@QAEXHHH@Z 
?SetLocation@CPathCell@@QAEXV?$Vector@M$02@@@Z 
?SetMaxSlope@CTerrainPathMapFacade@@QAEXM@Z 
?SetMinimumDistance@CFlankingPathCellEvaluator@@QAEXM@Z 
?SetMinimumDistance@CRepellingPathCellEvaluator@@QAEXM@Z 
?SetNeighboursAsDangerous@CPathCell@@QAEX_N@Z 
?SetOrigin@CPathCellPathfinder@@QAE_NV?$Vector@M$02@@@Z 
?SetOrigin@CScanLineMapPathfinder@@QAE_NV?$Vector@M$02@@@Z 
?SetPreferredDistance@CFlankingPathCellEvaluator@@QAEXM@Z 
?SetProxy@CAccessMap@@IAEXPAVCAccessMapQueryProxy@@@Z 
?SetRepelPoint@CFlankingPathCellEvaluator@@QAEXV?$Vector@M$02@@@Z 
?SetRepelPoint@CRepellingPathCellEvaluator@@QAEXV?$Vector@M$02@@@Z 
?SetRepelPointOrientation@CFlankingPathCellEvaluator@@QAEXV?$Vector@M$02@@@Z 
?SetSearchMap@CScanLineAccessMap@@QAEXPAVCScanLineSearchStateMap@@@Z 
?SetSize@CPathCell@@UAEXHHH@Z 
?SetSize@CTerrainPathMap@@QAEXHH@Z 
?SetStartpoint@CRepellingPathCellEvaluator@@QAEXV?$Vector@M$02@@@Z 
?SetTerrainCell@CPathCell@@QAEX_N@Z 
?SetTranslationFactor@CTerrainPathMap@@QAEXV?$Vector@M$02@@@Z 
?Show@CAccessMapDebugKit@@QAEXPAVCWorld@@@Z 
?Show@CAccessMapQueryProxy@@UAEXPAVCWorld@@@Z 
?Show@CAccessMapSearchState@@UAEXPAVCWorld@@@Z 
?Show@CAccessMetaMapQueryProxy@@UAEXPAVCWorld@@@Z 
?Show@CCellContainer@@QAEXPAVCWorld@@@Z 
?Show@CPathCell@@UAEXPAVCWorld@@@Z 
?Show@CPathCellQueryProxy@@UAEXPAVCWorld@@@Z 
?Show@CScanLineQueryProxy@@UAEXPAVCWorld@@@Z 
?Show@CScanLineSearchState@@UAEXPAVCWorld@@@Z 
?StraightPathDistance@CAccessMapQueryProxy@@UAE_NV?$Vector@M$02@@0AAM@Z 
?StraightPathDistance@CAccessMetaMapQueryProxy@@UAE_NV?$Vector@M$02@@0AAM@Z 
?StraightPathDistance@CPathCellQueryProxy@@UAE_NV?$Vector@M$02@@0AAM@Z 
?StraightPathDistance@CScanLineQueryProxy@@UAE_NV?$Vector@M$02@@0AAM@Z 
?ToString@CAccessMapSearchState@@UAE?AV?$basic_string@DV?$char_traits@D@_STL@@V?$allocator@D@2@@_STL@@XZ 
?ToString@CPathCell@@UAE?AV?$basic_string@DV?$char_traits@D@_STL@@V?$allocator@D@2@@_STL@@XZ 
?ToString@CScanLineSearchState@@UAE?AV?$basic_string@DV?$char_traits@D@_STL@@V?$allocator@D@2@@_STL@@XZ 
?VERSION_NUMBER@CScanLineAccessMapSerializer@@0HB 
?WriteAccessMap@CAccessMapMetaSerializer@@UAEXPAVCAccessMap@@@Z 
?WriteAccessMap@CPathCellAccessMapSerializer@@UAEXPAVCAccessMap@@@Z 
?WriteAccessMap@CPathCellAccessMapSerializer@@UAEXPAVCCellContainer@@@Z 
?WriteAccessMap@CScanLineAccessMapSerializer@@UAEXPAVCAccessMap@@@Z 
?WriteAccessMap@CScanLineAccessMapSerializer@@UAEXPAVCScanLineSearchStateMap@@@Z 
?WriteCellToken@CPathCell@@AAEXPAPADHH@Z 
?WriteToFile@CAccessMapDebugKit@@QAEXABV?$basic_string@DV?$char_traits@D@_STL@@V?$allocator@D@2@@_STL@@@Z 
?WriteToFile@CPathCell@@QAEXPAU_iobuf@@@Z 
?WriteToTGA@CTerrainPathMapFacade@@QAEXPAD@Z 
?_M_clear@?$vector@PAVCAccessMapSearchState@@V?$allocator@PAVCAccessMapSearchState@@@_STL@@@_STL@@IAEXXZ 
?_M_clear@?$vector@V?$CSTLCompatibleVector@J$01@@V?$allocator@V?$CSTLCompatibleVector@J$01@@@_STL@@@_STL@@IAEXXZ 
?_M_create_node@?$list@PAVCAccessMapSearchState@@V?$allocator@PAVCAccessMapSearchState@@@_STL@@@_STL@@IAEPAU?$_List_node@PAVCAccessMapSearchState@@@2@ABQAVCAccessMapSearchState@@@Z 
?_M_create_node@?$list@PAVCAccessMapSearchState@@V?$allocator@PAVCAccessMapSearchState@@@_STL@@@_STL@@IAEPAU?$_List_node@PAVCAccessMapSearchState@@@2@XZ 
?_M_fill_assign@?$list@PAVCAccessMapSearchState@@V?$allocator@PAVCAccessMapSearchState@@@_STL@@@_STL@@QAEXIABQAVCAccessMapSearchState@@@Z 
?_M_fill_assign@?$vector@PAVCAccessMapSearchState@@V?$allocator@PAVCAccessMapSearchState@@@_STL@@@_STL@@QAEXIABQAVCAccessMapSearchState@@@Z 
?_M_fill_assign@?$vector@V?$CSTLCompatibleVector@J$01@@V?$allocator@V?$CSTLCompatibleVector@J$01@@@_STL@@@_STL@@QAEXIABV?$CSTLCompatibleVector@J$01@@@Z 
?_M_fill_insert@?$list@PAVCAccessMapSearchState@@V?$allocator@PAVCAccessMapSearchState@@@_STL@@@_STL@@QAEXU?$_List_iterator@PAVCAccessMapSearchState@@U?$_Nonconst_traits@PAVCAccessMapSearchState@@@_STL@@@2@IABQAVCAccessMapSearchState@@@Z 
?_M_fill_insert@?$vector@PAVCAccessMapSearchState@@V?$allocator@PAVCAccessMapSearchState@@@_STL@@@_STL@@QAEXPAPAVCAccessMapSearchState@@IABQAV3@@Z 
?_M_fill_insert@?$vector@V?$CSTLCompatibleVector@J$01@@V?$allocator@V?$CSTLCompatibleVector@J$01@@@_STL@@@_STL@@QAEXPAV?$CSTLCompatibleVector@J$01@@IABV3@@Z 
?_M_insert_overflow@?$vector@PAVCAccessMapSearchState@@V?$allocator@PAVCAccessMapSearchState@@@_STL@@@_STL@@IAEXPAPAVCAccessMapSearchState@@ABQAV3@ABU__false_type@2@I_N@Z 
?_M_insert_overflow@?$vector@PAVCAccessMapSearchState@@V?$allocator@PAVCAccessMapSearchState@@@_STL@@@_STL@@IAEXPAPAVCAccessMapSearchState@@ABQAV3@ABU__true_type@2@I_N@Z 
?_M_insert_overflow@?$vector@V?$CSTLCompatibleVector@J$01@@V?$allocator@V?$CSTLCompatibleVector@J$01@@@_STL@@@_STL@@IAEXPAV?$CSTLCompatibleVector@J$01@@ABV3@ABU__false_type@2@I_N@Z 
?_M_insert_overflow@?$vector@V?$CSTLCompatibleVector@J$01@@V?$allocator@V?$CSTLCompatibleVector@J$01@@@_STL@@@_STL@@IAEXPAV?$CSTLCompatibleVector@J$01@@ABV3@ABU__true_type@2@I_N@Z 
?_M_range_check@?$vector@PAVCAccessMapSearchState@@V?$allocator@PAVCAccessMapSearchState@@@_STL@@@_STL@@IBEXI@Z 
?_M_range_check@?$vector@V?$CSTLCompatibleVector@J$01@@V?$allocator@V?$CSTLCompatibleVector@J$01@@@_STL@@@_STL@@IBEXI@Z 
?_M_set@?$vector@PAVCAccessMapSearchState@@V?$allocator@PAVCAccessMapSearchState@@@_STL@@@_STL@@IAEXPAPAVCAccessMapSearchState@@00@Z 
?_M_set@?$vector@V?$CSTLCompatibleVector@J$01@@V?$allocator@V?$CSTLCompatibleVector@J$01@@@_STL@@@_STL@@IAEXPAV?$CSTLCompatibleVector@J$01@@00@Z 
?assign@?$list@PAVCAccessMapSearchState@@V?$allocator@PAVCAccessMapSearchState@@@_STL@@@_STL@@QAEXIABQAVCAccessMapSearchState@@@Z 
?assign@?$vector@PAVCAccessMapSearchState@@V?$allocator@PAVCAccessMapSearchState@@@_STL@@@_STL@@QAEXIABQAVCAccessMapSearchState@@@Z 
?assign@?$vector@V?$CSTLCompatibleVector@J$01@@V?$allocator@V?$CSTLCompatibleVector@J$01@@@_STL@@@_STL@@QAEXIABV?$CSTLCompatibleVector@J$01@@@Z 
?at@?$vector@PAVCAccessMapSearchState@@V?$allocator@PAVCAccessMapSearchState@@@_STL@@@_STL@@QAEAAPAVCAccessMapSearchState@@I@Z 
?at@?$vector@PAVCAccessMapSearchState@@V?$allocator@PAVCAccessMapSearchState@@@_STL@@@_STL@@QBEABQAVCAccessMapSearchState@@I@Z 
?at@?$vector@V?$CSTLCompatibleVector@J$01@@V?$allocator@V?$CSTLCompatibleVector@J$01@@@_STL@@@_STL@@QAEAAV?$CSTLCompatibleVector@J$01@@I@Z 
?at@?$vector@V?$CSTLCompatibleVector@J$01@@V?$allocator@V?$CSTLCompatibleVector@J$01@@@_STL@@@_STL@@QBEABV?$CSTLCompatibleVector@J$01@@I@Z 
?back@?$list@PAVCAccessMapSearchState@@V?$allocator@PAVCAccessMapSearchState@@@_STL@@@_STL@@QAEAAPAVCAccessMapSearchState@@XZ 
?back@?$list@PAVCAccessMapSearchState@@V?$allocator@PAVCAccessMapSearchState@@@_STL@@@_STL@@QBEABQAVCAccessMapSearchState@@XZ 
?back@?$vector@PAVCAccessMapSearchState@@V?$allocator@PAVCAccessMapSearchState@@@_STL@@@_STL@@QAEAAPAVCAccessMapSearchState@@XZ 
?back@?$vector@PAVCAccessMapSearchState@@V?$allocator@PAVCAccessMapSearchState@@@_STL@@@_STL@@QBEABQAVCAccessMapSearchState@@XZ 
?back@?$vector@V?$CSTLCompatibleVector@J$01@@V?$allocator@V?$CSTLCompatibleVector@J$01@@@_STL@@@_STL@@QAEAAV?$CSTLCompatibleVector@J$01@@XZ 
?back@?$vector@V?$CSTLCompatibleVector@J$01@@V?$allocator@V?$CSTLCompatibleVector@J$01@@@_STL@@@_STL@@QBEABV?$CSTLCompatibleVector@J$01@@XZ 
?begin@?$list@PAVCAccessMapSearchState@@V?$allocator@PAVCAccessMapSearchState@@@_STL@@@_STL@@QAE?AU?$_List_iterator@PAVCAccessMapSearchState@@U?$_Nonconst_traits@PAVCAccessMapSearchState@@@_STL@@@2@XZ 
?begin@?$list@PAVCAccessMapSearchState@@V?$allocator@PAVCAccessMapSearchState@@@_STL@@@_STL@@QBE?AU?$_List_iterator@PAVCAccessMapSearchState@@U?$_Const_traits@PAVCAccessMapSearchState@@@_STL@@@2@XZ 
?begin@?$vector@PAVCAccessMapSearchState@@V?$allocator@PAVCAccessMapSearchState@@@_STL@@@_STL@@QAEPAPAVCAccessMapSearchState@@XZ 
?begin@?$vector@PAVCAccessMapSearchState@@V?$allocator@PAVCAccessMapSearchState@@@_STL@@@_STL@@QBEPBQAVCAccessMapSearchState@@XZ 
?begin@?$vector@V?$CSTLCompatibleVector@J$01@@V?$allocator@V?$CSTLCompatibleVector@J$01@@@_STL@@@_STL@@QAEPAV?$CSTLCompatibleVector@J$01@@XZ 
?begin@?$vector@V?$CSTLCompatibleVector@J$01@@V?$allocator@V?$CSTLCompatibleVector@J$01@@@_STL@@@_STL@@QBEPBV?$CSTLCompatibleVector@J$01@@XZ 
?capacity@?$vector@PAVCAccessMapSearchState@@V?$allocator@PAVCAccessMapSearchState@@@_STL@@@_STL@@QBEIXZ 
?capacity@?$vector@V?$CSTLCompatibleVector@J$01@@V?$allocator@V?$CSTLCompatibleVector@J$01@@@_STL@@@_STL@@QBEIXZ 
?clear@?$_List_base@PAVCAccessMapSearchState@@V?$allocator@PAVCAccessMapSearchState@@@_STL@@@_STL@@QAEXXZ 
?clear@?$vector@PAVCAccessMapSearchState@@V?$allocator@PAVCAccessMapSearchState@@@_STL@@@_STL@@QAEXXZ 
?clear@?$vector@V?$CSTLCompatibleVector@J$01@@V?$allocator@V?$CSTLCompatibleVector@J$01@@@_STL@@@_STL@@QAEXXZ 
?empty@?$list@PAVCAccessMapSearchState@@V?$allocator@PAVCAccessMapSearchState@@@_STL@@@_STL@@QBE_NXZ 
?empty@?$vector@PAVCAccessMapSearchState@@V?$allocator@PAVCAccessMapSearchState@@@_STL@@@_STL@@QBE_NXZ 
?empty@?$vector@V?$CSTLCompatibleVector@J$01@@V?$allocator@V?$CSTLCompatibleVector@J$01@@@_STL@@@_STL@@QBE_NXZ 
?end@?$list@PAVCAccessMapSearchState@@V?$allocator@PAVCAccessMapSearchState@@@_STL@@@_STL@@QAE?AU?$_List_iterator@PAVCAccessMapSearchState@@U?$_Nonconst_traits@PAVCAccessMapSearchState@@@_STL@@@2@XZ 
?end@?$list@PAVCAccessMapSearchState@@V?$allocator@PAVCAccessMapSearchState@@@_STL@@@_STL@@QBE?AU?$_List_iterator@PAVCAccessMapSearchState@@U?$_Const_traits@PAVCAccessMapSearchState@@@_STL@@@2@XZ 
?end@?$vector@PAVCAccessMapSearchState@@V?$allocator@PAVCAccessMapSearchState@@@_STL@@@_STL@@QAEPAPAVCAccessMapSearchState@@XZ 
?end@?$vector@PAVCAccessMapSearchState@@V?$allocator@PAVCAccessMapSearchState@@@_STL@@@_STL@@QBEPBQAVCAccessMapSearchState@@XZ 
?end@?$vector@V?$CSTLCompatibleVector@J$01@@V?$allocator@V?$CSTLCompatibleVector@J$01@@@_STL@@@_STL@@QAEPAV?$CSTLCompatibleVector@J$01@@XZ 
?end@?$vector@V?$CSTLCompatibleVector@J$01@@V?$allocator@V?$CSTLCompatibleVector@J$01@@@_STL@@@_STL@@QBEPBV?$CSTLCompatibleVector@J$01@@XZ 
?erase@?$list@PAVCAccessMapSearchState@@V?$allocator@PAVCAccessMapSearchState@@@_STL@@@_STL@@QAE?AU?$_List_iterator@PAVCAccessMapSearchState@@U?$_Nonconst_traits@PAVCAccessMapSearchState@@@_STL@@@2@U32@0@Z 
?erase@?$list@PAVCAccessMapSearchState@@V?$allocator@PAVCAccessMapSearchState@@@_STL@@@_STL@@QAE?AU?$_List_iterator@PAVCAccessMapSearchState@@U?$_Nonconst_traits@PAVCAccessMapSearchState@@@_STL@@@2@U32@@Z 
?erase@?$vector@PAVCAccessMapSearchState@@V?$allocator@PAVCAccessMapSearchState@@@_STL@@@_STL@@QAEPAPAVCAccessMapSearchState@@PAPAV3@0@Z 
?erase@?$vector@PAVCAccessMapSearchState@@V?$allocator@PAVCAccessMapSearchState@@@_STL@@@_STL@@QAEPAPAVCAccessMapSearchState@@PAPAV3@@Z 
?erase@?$vector@V?$CSTLCompatibleVector@J$01@@V?$allocator@V?$CSTLCompatibleVector@J$01@@@_STL@@@_STL@@QAEPAV?$CSTLCompatibleVector@J$01@@PAV3@0@Z 
?erase@?$vector@V?$CSTLCompatibleVector@J$01@@V?$allocator@V?$CSTLCompatibleVector@J$01@@@_STL@@@_STL@@QAEPAV?$CSTLCompatibleVector@J$01@@PAV3@@Z 
?front@?$list@PAVCAccessMapSearchState@@V?$allocator@PAVCAccessMapSearchState@@@_STL@@@_STL@@QAEAAPAVCAccessMapSearchState@@XZ 
?front@?$list@PAVCAccessMapSearchState@@V?$allocator@PAVCAccessMapSearchState@@@_STL@@@_STL@@QBEABQAVCAccessMapSearchState@@XZ 
?front@?$vector@PAVCAccessMapSearchState@@V?$allocator@PAVCAccessMapSearchState@@@_STL@@@_STL@@QAEAAPAVCAccessMapSearchState@@XZ 
?front@?$vector@PAVCAccessMapSearchState@@V?$allocator@PAVCAccessMapSearchState@@@_STL@@@_STL@@QBEABQAVCAccessMapSearchState@@XZ 
?front@?$vector@V?$CSTLCompatibleVector@J$01@@V?$allocator@V?$CSTLCompatibleVector@J$01@@@_STL@@@_STL@@QAEAAV?$CSTLCompatibleVector@J$01@@XZ 
?front@?$vector@V?$CSTLCompatibleVector@J$01@@V?$allocator@V?$CSTLCompatibleVector@J$01@@@_STL@@@_STL@@QBEABV?$CSTLCompatibleVector@J$01@@XZ 
?get_allocator@?$_List_base@PAVCAccessMapSearchState@@V?$allocator@PAVCAccessMapSearchState@@@_STL@@@_STL@@QBE?AV?$allocator@PAVCAccessMapSearchState@@@2@XZ 
?get_allocator@?$vector@PAVCAccessMapSearchState@@V?$allocator@PAVCAccessMapSearchState@@@_STL@@@_STL@@QBE?AV?$allocator@PAVCAccessMapSearchState@@@2@XZ 
?get_allocator@?$vector@V?$CSTLCompatibleVector@J$01@@V?$allocator@V?$CSTLCompatibleVector@J$01@@@_STL@@@_STL@@QBE?AV?$allocator@V?$CSTLCompatibleVector@J$01@@@2@XZ 
?insert@?$list@PAVCAccessMapSearchState@@V?$allocator@PAVCAccessMapSearchState@@@_STL@@@_STL@@QAE?AU?$_List_iterator@PAVCAccessMapSearchState@@U?$_Nonconst_traits@PAVCAccessMapSearchState@@@_STL@@@2@U32@@Z 
?insert@?$list@PAVCAccessMapSearchState@@V?$allocator@PAVCAccessMapSearchState@@@_STL@@@_STL@@QAE?AU?$_List_iterator@PAVCAccessMapSearchState@@U?$_Nonconst_traits@PAVCAccessMapSearchState@@@_STL@@@2@U32@ABQAVCAccessMapSearchState@@@Z 
?insert@?$list@PAVCAccessMapSearchState@@V?$allocator@PAVCAccessMapSearchState@@@_STL@@@_STL@@QAEXU?$_List_iterator@PAVCAccessMapSearchState@@U?$_Nonconst_traits@PAVCAccessMapSearchState@@@_STL@@@2@IABQAVCAccessMapSearchState@@@Z 
?insert@?$vector@PAVCAccessMapSearchState@@V?$allocator@PAVCAccessMapSearchState@@@_STL@@@_STL@@QAEPAPAVCAccessMapSearchState@@PAPAV3@@Z 
?insert@?$vector@PAVCAccessMapSearchState@@V?$allocator@PAVCAccessMapSearchState@@@_STL@@@_STL@@QAEPAPAVCAccessMapSearchState@@PAPAV3@ABQAV3@@Z 
?insert@?$vector@PAVCAccessMapSearchState@@V?$allocator@PAVCAccessMapSearchState@@@_STL@@@_STL@@QAEXPAPAVCAccessMapSearchState@@IABQAV3@@Z 
?insert@?$vector@V?$CSTLCompatibleVector@J$01@@V?$allocator@V?$CSTLCompatibleVector@J$01@@@_STL@@@_STL@@QAEPAV?$CSTLCompatibleVector@J$01@@PAV3@@Z 
?insert@?$vector@V?$CSTLCompatibleVector@J$01@@V?$allocator@V?$CSTLCompatibleVector@J$01@@@_STL@@@_STL@@QAEPAV?$CSTLCompatibleVector@J$01@@PAV3@ABV3@@Z 
?insert@?$vector@V?$CSTLCompatibleVector@J$01@@V?$allocator@V?$CSTLCompatibleVector@J$01@@@_STL@@@_STL@@QAEXPAV?$CSTLCompatibleVector@J$01@@IABV3@@Z 
?max_size@?$list@PAVCAccessMapSearchState@@V?$allocator@PAVCAccessMapSearchState@@@_STL@@@_STL@@QBEIXZ 
?max_size@?$vector@PAVCAccessMapSearchState@@V?$allocator@PAVCAccessMapSearchState@@@_STL@@@_STL@@QBEIXZ 
?max_size@?$vector@V?$CSTLCompatibleVector@J$01@@V?$allocator@V?$CSTLCompatibleVector@J$01@@@_STL@@@_STL@@QBEIXZ 
?merge@?$list@PAVCAccessMapSearchState@@V?$allocator@PAVCAccessMapSearchState@@@_STL@@@_STL@@QAEXAAV12@@Z 
?pop_back@?$list@PAVCAccessMapSearchState@@V?$allocator@PAVCAccessMapSearchState@@@_STL@@@_STL@@QAEXXZ 
?pop_back@?$vector@PAVCAccessMapSearchState@@V?$allocator@PAVCAccessMapSearchState@@@_STL@@@_STL@@QAEXXZ 
?pop_back@?$vector@V?$CSTLCompatibleVector@J$01@@V?$allocator@V?$CSTLCompatibleVector@J$01@@@_STL@@@_STL@@QAEXXZ 
?pop_front@?$list@PAVCAccessMapSearchState@@V?$allocator@PAVCAccessMapSearchState@@@_STL@@@_STL@@QAEXXZ 
?push_back@?$list@PAVCAccessMapSearchState@@V?$allocator@PAVCAccessMapSearchState@@@_STL@@@_STL@@QAEXABQAVCAccessMapSearchState@@@Z 
?push_back@?$list@PAVCAccessMapSearchState@@V?$allocator@PAVCAccessMapSearchState@@@_STL@@@_STL@@QAEXXZ 
?push_back@?$vector@PAVCAccessMapSearchState@@V?$allocator@PAVCAccessMapSearchState@@@_STL@@@_STL@@QAEXABQAVCAccessMapSearchState@@@Z 
?push_back@?$vector@PAVCAccessMapSearchState@@V?$allocator@PAVCAccessMapSearchState@@@_STL@@@_STL@@QAEXXZ 
?push_back@?$vector@V?$CSTLCompatibleVector@J$01@@V?$allocator@V?$CSTLCompatibleVector@J$01@@@_STL@@@_STL@@QAEXABV?$CSTLCompatibleVector@J$01@@@Z 
?push_back@?$vector@V?$CSTLCompatibleVector@J$01@@V?$allocator@V?$CSTLCompatibleVector@J$01@@@_STL@@@_STL@@QAEXXZ 
?push_front@?$list@PAVCAccessMapSearchState@@V?$allocator@PAVCAccessMapSearchState@@@_STL@@@_STL@@QAEXABQAVCAccessMapSearchState@@@Z 
?push_front@?$list@PAVCAccessMapSearchState@@V?$allocator@PAVCAccessMapSearchState@@@_STL@@@_STL@@QAEXXZ 
?rbegin@?$list@PAVCAccessMapSearchState@@V?$allocator@PAVCAccessMapSearchState@@@_STL@@@_STL@@QAE?AV?$reverse_iterator@U?$_List_iterator@PAVCAccessMapSearchState@@U?$_Nonconst_traits@PAVCAccessMapSearchState@@@_STL@@@_STL@@@2@XZ 
?rbegin@?$list@PAVCAccessMapSearchState@@V?$allocator@PAVCAccessMapSearchState@@@_STL@@@_STL@@QBE?AV?$reverse_iterator@U?$_List_iterator@PAVCAccessMapSearchState@@U?$_Const_traits@PAVCAccessMapSearchState@@@_STL@@@_STL@@@2@XZ 
?rbegin@?$vector@PAVCAccessMapSearchState@@V?$allocator@PAVCAccessMapSearchState@@@_STL@@@_STL@@QAE?AV?$reverse_iterator@PAPAVCAccessMapSearchState@@@2@XZ 
?rbegin@?$vector@PAVCAccessMapSearchState@@V?$allocator@PAVCAccessMapSearchState@@@_STL@@@_STL@@QBE?AV?$reverse_iterator@PBQAVCAccessMapSearchState@@@2@XZ 
?rbegin@?$vector@V?$CSTLCompatibleVector@J$01@@V?$allocator@V?$CSTLCompatibleVector@J$01@@@_STL@@@_STL@@QAE?AV?$reverse_iterator@PAV?$CSTLCompatibleVector@J$01@@@2@XZ 
?rbegin@?$vector@V?$CSTLCompatibleVector@J$01@@V?$allocator@V?$CSTLCompatibleVector@J$01@@@_STL@@@_STL@@QBE?AV?$reverse_iterator@PBV?$CSTLCompatibleVector@J$01@@@2@XZ 
?remove@?$list@PAVCAccessMapSearchState@@V?$allocator@PAVCAccessMapSearchState@@@_STL@@@_STL@@QAEXABQAVCAccessMapSearchState@@@Z 
?rend@?$list@PAVCAccessMapSearchState@@V?$allocator@PAVCAccessMapSearchState@@@_STL@@@_STL@@QAE?AV?$reverse_iterator@U?$_List_iterator@PAVCAccessMapSearchState@@U?$_Nonconst_traits@PAVCAccessMapSearchState@@@_STL@@@_STL@@@2@XZ 
?rend@?$list@PAVCAccessMapSearchState@@V?$allocator@PAVCAccessMapSearchState@@@_STL@@@_STL@@QBE?AV?$reverse_iterator@U?$_List_iterator@PAVCAccessMapSearchState@@U?$_Const_traits@PAVCAccessMapSearchState@@@_STL@@@_STL@@@2@XZ 
?rend@?$vector@PAVCAccessMapSearchState@@V?$allocator@PAVCAccessMapSearchState@@@_STL@@@_STL@@QAE?AV?$reverse_iterator@PAPAVCAccessMapSearchState@@@2@XZ 
?rend@?$vector@PAVCAccessMapSearchState@@V?$allocator@PAVCAccessMapSearchState@@@_STL@@@_STL@@QBE?AV?$reverse_iterator@PBQAVCAccessMapSearchState@@@2@XZ 
?rend@?$vector@V?$CSTLCompatibleVector@J$01@@V?$allocator@V?$CSTLCompatibleVector@J$01@@@_STL@@@_STL@@QAE?AV?$reverse_iterator@PAV?$CSTLCompatibleVector@J$01@@@2@XZ 
?rend@?$vector@V?$CSTLCompatibleVector@J$01@@V?$allocator@V?$CSTLCompatibleVector@J$01@@@_STL@@@_STL@@QBE?AV?$reverse_iterator@PBV?$CSTLCompatibleVector@J$01@@@2@XZ 
?reserve@?$vector@PAVCAccessMapSearchState@@V?$allocator@PAVCAccessMapSearchState@@@_STL@@@_STL@@QAEXI@Z 
?reserve@?$vector@V?$CSTLCompatibleVector@J$01@@V?$allocator@V?$CSTLCompatibleVector@J$01@@@_STL@@@_STL@@QAEXI@Z 
?resize@?$list@PAVCAccessMapSearchState@@V?$allocator@PAVCAccessMapSearchState@@@_STL@@@_STL@@QAEXI@Z 
?resize@?$list@PAVCAccessMapSearchState@@V?$allocator@PAVCAccessMapSearchState@@@_STL@@@_STL@@QAEXIPAVCAccessMapSearchState@@@Z 
?resize@?$vector@PAVCAccessMapSearchState@@V?$allocator@PAVCAccessMapSearchState@@@_STL@@@_STL@@QAEXI@Z 
?resize@?$vector@PAVCAccessMapSearchState@@V?$allocator@PAVCAccessMapSearchState@@@_STL@@@_STL@@QAEXIPAVCAccessMapSearchState@@@Z 
?resize@?$vector@V?$CSTLCompatibleVector@J$01@@V?$allocator@V?$CSTLCompatibleVector@J$01@@@_STL@@@_STL@@QAEXI@Z 
?resize@?$vector@V?$CSTLCompatibleVector@J$01@@V?$allocator@V?$CSTLCompatibleVector@J$01@@@_STL@@@_STL@@QAEXIV?$CSTLCompatibleVector@J$01@@@Z 
?reverse@?$list@PAVCAccessMapSearchState@@V?$allocator@PAVCAccessMapSearchState@@@_STL@@@_STL@@QAEXXZ 
?size@?$list@PAVCAccessMapSearchState@@V?$allocator@PAVCAccessMapSearchState@@@_STL@@@_STL@@QBEIXZ 
?size@?$vector@PAVCAccessMapSearchState@@V?$allocator@PAVCAccessMapSearchState@@@_STL@@@_STL@@QBEIXZ 
?size@?$vector@V?$CSTLCompatibleVector@J$01@@V?$allocator@V?$CSTLCompatibleVector@J$01@@@_STL@@@_STL@@QBEIXZ 
?sort@?$list@PAVCAccessMapSearchState@@V?$allocator@PAVCAccessMapSearchState@@@_STL@@@_STL@@QAEXXZ 
?splice@?$list@PAVCAccessMapSearchState@@V?$allocator@PAVCAccessMapSearchState@@@_STL@@@_STL@@QAEXU?$_List_iterator@PAVCAccessMapSearchState@@U?$_Nonconst_traits@PAVCAccessMapSearchState@@@_STL@@@2@AAV12@00@Z 
?splice@?$list@PAVCAccessMapSearchState@@V?$allocator@PAVCAccessMapSearchState@@@_STL@@@_STL@@QAEXU?$_List_iterator@PAVCAccessMapSearchState@@U?$_Nonconst_traits@PAVCAccessMapSearchState@@@_STL@@@2@AAV12@0@Z 
?splice@?$list@PAVCAccessMapSearchState@@V?$allocator@PAVCAccessMapSearchState@@@_STL@@@_STL@@QAEXU?$_List_iterator@PAVCAccessMapSearchState@@U?$_Nonconst_traits@PAVCAccessMapSearchState@@@_STL@@@2@AAV12@@Z 
?swap@?$list@PAVCAccessMapSearchState@@V?$allocator@PAVCAccessMapSearchState@@@_STL@@@_STL@@QAEXAAV12@@Z 
?swap@?$vector@PAVCAccessMapSearchState@@V?$allocator@PAVCAccessMapSearchState@@@_STL@@@_STL@@QAEXAAV12@@Z 
?swap@?$vector@V?$CSTLCompatibleVector@J$01@@V?$allocator@V?$CSTLCompatibleVector@J$01@@@_STL@@@_STL@@QAEXAAV12@@Z 
?unique@?$list@PAVCAccessMapSearchState@@V?$allocator@PAVCAccessMapSearchState@@@_STL@@@_STL@@QAEXXZ 
?what@CAccessMapIOException@@UBEPBDXZ 
