LIBRARY BASE 
EXPORTS 
??0CClassManager@base@cfgames@@AAE@XZ 
??0CClassManager@base@cfgames@@QAE@ABV012@@Z 
??0CClassManagerException@base@cfgames@@QAE@ABV012@@Z 
??0CClassManagerException@base@cfgames@@QAE@ABV?$basic_string@DV?$char_traits@D@_STL@@V?$allocator@D@2@@_STL@@@Z 
??0CObject@base@cfgames@@QAE@ABV012@@Z 
??0CObject@base@cfgames@@QAE@XZ 
??0CRandomTable@base@cfgames@@QAE@HMM@Z 
??0_CActivatable@base@cfgames@@QAE@ABV012@@Z 
??0_CActivatable@base@cfgames@@QAE@XZ 
??1CClassManager@base@cfgames@@UAE@XZ 
??1CClassManagerException@base@cfgames@@UAE@XZ 
??1CObject@base@cfgames@@UAE@XZ 
??1CRandomTable@base@cfgames@@QAE@XZ 
??1_CActivatable@base@cfgames@@UAE@XZ 
??4CClassManager@base@cfgames@@QAEAAV012@ABV012@@Z 
??4CClassManagerException@base@cfgames@@QAEAAV012@ABV012@@Z 
??4CObject@base@cfgames@@QAEAAV012@ABV012@@Z 
??4CRandomTable@base@cfgames@@QAEAAV012@ABV012@@Z 
??4_CActivatable@base@cfgames@@QAEAAV012@ABV012@@Z 
??_7CClassManager@base@cfgames@@6B@ 
??_7CClassManagerException@base@cfgames@@6B@ 
??_7CObject@base@cfgames@@6B@ 
??_7_CActivatable@base@cfgames@@6B@ 
?Activate@_CActivatable@base@cfgames@@UAEXXZ 
?CLASS_CODE@CClassManagerException@base@cfgames@@2JB 
?CLASS_CODE@CObject@base@cfgames@@2JB 
?CLASS_NAME@CClassManagerException@base@cfgames@@2PBDB 
?CLASS_NAME@CObject@base@cfgames@@2PBDB 
?Clone@CObject@base@cfgames@@UBEPAV123@XZ 
?CreateClone@CClassManager@base@cfgames@@QAEPAVCObject@23@ABJ@Z 
?Deactivate@_CActivatable@base@cfgames@@UAEXXZ 
?ERROR_CLASS_CODE@CClassManager@base@cfgames@@2JB 
?FindPrototype@CClassManager@base@cfgames@@QAEPBVCObject@23@J@Z 
?Generate@CRandomTable@base@cfgames@@QAEXXZ 
?GenerateClassCode@CClassManager@base@cfgames@@QAEABJPAVCObject@23@@Z 
?GetActivationState@_CActivatable@base@cfgames@@UBEABW4ActivationType@123@XZ 
?GetClassCode@CClassManagerException@base@cfgames@@UBEABJXZ 
?GetClassCode@CObject@base@cfgames@@UBEABJXZ 
?GetClassNameA@CClassManagerException@base@cfgames@@UBEPBDXZ 
?GetClassNameA@CObject@base@cfgames@@UBEPBDXZ 
?GetInstance@CClassManager@base@cfgames@@SAAAV123@XZ 
?GetInstance@CRandomTable@base@cfgames@@SAPAV123@XZ 
?GetNextValue@CRandomTable@base@cfgames@@QAEMXZ 
?Reset@_CActivatable@base@cfgames@@UAEXXZ 
?SetActivation@_CActivatable@base@cfgames@@UAEXW4ActivationType@123@@Z 
?Suspend@_CActivatable@base@cfgames@@UAEXXZ 
?ToString@CClassManagerException@base@cfgames@@UAE?AV?$basic_string@DV?$char_traits@D@_STL@@V?$allocator@D@2@@_STL@@XZ 
?ToString@CObject@base@cfgames@@UAE?AV?$basic_string@DV?$char_traits@D@_STL@@V?$allocator@D@2@@_STL@@XZ 
?currentClassCode@CClassManager@base@cfgames@@0JA 
?instance@CClassManager@base@cfgames@@0PAV123@A 
?instance@CRandomTable@base@cfgames@@0PAV123@A 
