Microsoft (R) COFF/PE Dumper Version 10.00.30319.01
Copyright (C) Microsoft Corporation.  All rights reserved.


Dump of file EntitiesMP.dll

File Type: DLL

  Section contains the following exports for EntitiesMP.dll

    00000000 characteristics
    42DC30D6 time date stamp Tue Jul 19 01:44:38 2005
        0.00 version
           1 ordinal base
        2074 number of functions
        2074 number of names

    ordinal hint RVA      name

          1    0 0000E490 ??0ABZSwitchMarine@@QAE@ABV0@@Z
          2    1 00105790 ??0ABZSwitchMarine@@QAE@XZ
          3    2 000A9DF0 ??0CActor@@QAE@ABV0@@Z
          4    3 000AAA90 ??0CActor@@QAE@XZ
          5    4 000A9CC0 ??0CActorActivate@@QAE@ABV0@@Z
          6    5 000AA150 ??0CActorActivate@@QAE@XZ
          7    6 000A9D10 ??0CActorDeactivate@@QAE@ABV0@@Z
          8    7 000AA190 ??0CActorDeactivate@@QAE@XZ
          9    8 00110620 ??0CBotTrackView@@QAE@ABV0@@Z
         10    9 00110C90 ??0CBotTrackView@@QAE@XZ
         11    A 00110290 ??0CCloseShoulderView@@QAE@ABV0@@Z
         12    B 00110C50 ??0CCloseShoulderView@@QAE@XZ
         13    C 00110420 ??0CCommandView@@QAE@ABV0@@Z
         14    D 00110C70 ??0CCommandView@@QAE@XZ
         15    E 00132C30 ??0CCompMessageID@@QAE@ABV0@@Z
         16    F 00132C10 ??0CCompMessageID@@QAE@XZ
         17   10 0010FE70 ??0CFirstPersonView@@QAE@ABV0@@Z
         18   11 00110BD0 ??0CFirstPersonView@@QAE@XZ
         19   12 0000EB50 ??0CPathBuilder@@QAE@ABV0@@Z
         20   13 00052F10 ??0CPathBuilder@@QAE@XZ
         21   14 00015C70 ??0CPlayer@@QAE@ABV0@@Z
         22   15 0010E120 ??0CPlayer@@QAE@XZ
         23   16 00110D90 ??0CPlayerDeathView@@QAE@ABV0@@Z
         24   17 00110CB0 ??0CPlayerDeathView@@QAE@XZ
         25   18 00110830 ??0CSpectatorView@@QAE@ABV0@@Z
         26   19 00110800 ??0CSpectatorView@@QAE@XZ
         27   1A 000DA4C0 ??0CTeleTypeEntity@@QAE@ABV0@@Z
         28   1B 000DA390 ??0CTeleTypeEntity@@QAE@XZ
         29   1C 00110090 ??0CThirdPersonView@@QAE@ABV0@@Z
         30   1D 00110C30 ??0CThirdPersonView@@QAE@XZ
         31   1E 00133F90 ??0CWorldState@@QAE@ABV0@@Z
         32   1F 0015BCD0 ??0CWorldState@@QAE@XZ
         33   20 00004290 ??0DamageEvent@@QAE@ABV0@@Z
         34   21 0005D9A0 ??0DamageEvent@@QAE@XZ
         35   22 000E8530 ??0EActivate@@QAE@ABV0@@Z
         36   23 000EA040 ??0EActivate@@QAE@XZ
         37   24 000C4FB0 ??0EActivateFullScreenEffects@@QAE@ABV0@@Z
         38   25 000C52B0 ??0EActivateFullScreenEffects@@QAE@XZ
         39   26 000D86B0 ??0EActivateSpaceDebree@@QAE@ABV0@@Z
         40   27 000D8820 ??0EActivateSpaceDebree@@QAE@XZ
         41   28 000A9BC0 ??0EAnimTriggerAndConfigure@@QAE@ABV0@@Z
         42   29 000AA0B0 ??0EAnimTriggerAndConfigure@@QAE@XZ
         43   2A 000F1910 ??0EBrushDeath@@QAE@ABV0@@Z
         44   2B 000F1CA0 ??0EBrushDeath@@QAE@XZ
         45   2C 000F1660 ??0EBrushDestroyed@@QAE@ABV0@@Z
         46   2D 000F1B40 ??0EBrushDestroyed@@QAE@XZ
         47   2E 0000F8F0 ??0ECameraStart@@QAE@ABV0@@Z
         48   2F 00105210 ??0ECameraStart@@QAE@XZ
         49   30 0000FAE0 ??0ECameraStop@@QAE@ABV0@@Z
         50   31 00105290 ??0ECameraStop@@QAE@XZ
         51   32 000E9530 ??0ECenterMessage@@QAE@ABV0@@Z
         52   33 000EAA00 ??0ECenterMessage@@QAE@XZ
         53   34 00001080 ??0EChangeAnim@@QAE@ABV0@@Z
         54   35 000E0080 ??0EChangeAnim@@QAE@XZ
         55   36 00090B10 ??0EChangeMusic@@QAE@ABV0@@Z
         56   37 000F64B0 ??0EChangeMusic@@QAE@XZ
         57   38 000E8D80 ??0ECloseDoor@@QAE@ABV0@@Z
         58   39 000EA490 ??0ECloseDoor@@QAE@XZ
         59   3A 000E9650 ??0EComputerMessage@@QAE@ABV0@@Z
         60   3B 000E8280 ??0EComputerMessage@@QAE@XZ
         61   3C 000E9470 ??0ECredits@@QAE@ABV0@@Z
         62   3D 000EA940 ??0ECredits@@QAE@XZ
         63   3E 000B8BA0 ??0ECutscene@@QAE@ABV0@@Z
         64   3F 000B8D30 ??0ECutscene@@QAE@XZ
         65   40 000E85F0 ??0EDeactivate@@QAE@ABV0@@Z
         66   41 000EA100 ??0EDeactivate@@QAE@XZ
         67   42 000B3D00 ??0EDeactivateEffect@@QAE@ABV0@@Z
         68   43 000CBBE0 ??0EDeactivateEffect@@QAE@XZ
         69   44 000C5080 ??0EDeactivateFullScreenEffects@@QAE@ABV0@@Z
         70   45 000C5310 ??0EDeactivateFullScreenEffects@@QAE@XZ
         71   46 0000DCC0 ??0EDisconnected@@QAE@ABV0@@Z
         72   47 001054B0 ??0EDisconnected@@QAE@XZ
         73   48 000E87C0 ??0EEnd@@QAE@ABV0@@Z
         74   49 000E7F00 ??0EEnd@@QAE@XZ
         75   4A 000E86B0 ??0EEnvironmentStart@@QAE@ABV0@@Z
         76   4B 000E7E80 ??0EEnvironmentStart@@QAE@XZ
         77   4C 000E8730 ??0EEnvironmentStop@@QAE@ABV0@@Z
         78   4D 000E7EC0 ??0EEnvironmentStop@@QAE@XZ
         79   4E 000BF6D0 ??0EExplosion@@QAE@ABV0@@Z
         80   4F 000BF910 ??0EExplosion@@QAE@XZ
         81   50 000F1590 ??0EHit@@QAE@ABV0@@Z
         82   51 000F1AE0 ??0EHit@@QAE@XZ
         83   52 000E9830 ??0EHitBySpaceShipBeam@@QAE@ABV0@@Z
         84   53 000E83A0 ??0EHitBySpaceShipBeam@@QAE@XZ
         85   54 000E9360 ??0EHudPicFX@@QAE@ABV0@@Z
         86   55 000EA880 ??0EHudPicFX@@QAE@XZ
         87   56 000AB2E0 ??0EInitBeacon@@QAE@ABV0@@Z
         88   57 000AB410 ??0EInitBeacon@@QAE@XZ
         89   58 000C4EE0 ??0EInitializeFullScreenEffects@@QAE@ABV0@@Z
         90   59 000C5250 ??0EInitializeFullScreenEffects@@QAE@XZ
         91   5A 0000D740 ??0EInitializePlayer@@QAE@ABV0@@Z
         92   5B 001051D0 ??0EInitializePlayer@@QAE@XZ
         93   5C 000D4390 ??0EInitializeShadowRenderer@@QAE@ABV0@@Z
         94   5D 000D4560 ??0EInitializeShadowRenderer@@QAE@XZ
         95   5E 000E8EB0 ??0EKilledEnemy@@QAE@ABV0@@Z
         96   5F 000EA550 ??0EKilledEnemy@@QAE@XZ
         97   60 000651A0 ??0ELaunchGrenade@@QAE@ABV0@@Z
         98   61 000C6B60 ??0ELaunchGrenade@@QAE@XZ
         99   62 0000E6A0 ??0ELocalTeleTypeMessage@@QAE@ABV0@@Z
        100   63 00105880 ??0ELocalTeleTypeMessage@@QAE@XZ
        101   64 00001210 ??0EModel2Activate@@QAE@ABV0@@Z
        102   65 000EDBC0 ??0EModel2Activate@@QAE@XZ
        103   66 00001290 ??0EModel2Deactivate@@QAE@ABV0@@Z
        104   67 000EDC00 ??0EModel2Deactivate@@QAE@XZ
        105   68 000015B0 ??0EModel3Activate@@QAE@ABV0@@Z
        106   69 000EFC10 ??0EModel3Activate@@QAE@XZ
        107   6A 00001630 ??0EModel3Deactivate@@QAE@ABV0@@Z
        108   6B 000EFC50 ??0EModel3Deactivate@@QAE@XZ
        109   6C 000016B0 ??0EModel3Initialize@@QAE@ABV0@@Z
        110   6D 000EFC90 ??0EModel3Initialize@@QAE@XZ
        111   6E 00001530 ??0EModelDeath@@QAE@ABV0@@Z
        112   6F 000ECC10 ??0EModelDeath@@QAE@XZ
        113   70 000F5B40 ??0EMusicChangerTrigger@@QAE@ABV0@@Z
        114   71 000F5CD0 ??0EMusicChangerTrigger@@QAE@XZ
        115   72 0000DBA0 ??0ENSShepperdEvent@@QAE@ABV0@@Z
        116   73 00105450 ??0ENSShepperdEvent@@QAE@XZ
        117   74 0000DA80 ??0ENSVoiceMessage@@QAE@ABV0@@Z
        118   75 001053F0 ??0ENSVoiceMessage@@QAE@XZ
        119   76 00090CE0 ??0ENetChangeMusic@@QAE@ABV0@@Z
        120   77 000F6540 ??0ENetChangeMusic@@QAE@XZ
        121   78 000013B0 ??0ENetStartSound@@QAE@ABV0@@Z
        122   79 000F83B0 ??0ENetStartSound@@QAE@XZ
        123   7A 00001430 ??0ENetStopSound@@QAE@ABV0@@Z
        124   7B 000F83F0 ??0ENetStopSound@@QAE@XZ
        125   7C 0000E8B0 ??0ENetworkTeleTypeMessage@@QAE@ABV0@@Z
        126   7D 00105980 ??0ENetworkTeleTypeMessage@@QAE@XZ
        127   7E 000E8CC0 ??0EOpenDoor@@QAE@ABV0@@Z
        128   7F 000EA3D0 ??0EOpenDoor@@QAE@XZ
        129   80 00001330 ??0EPlaySoundOnce@@QAE@ABV0@@Z
        130   81 000F8370 ??0EPlaySoundOnce@@QAE@XZ
        131   82 0000DE00 ??0EPlayerDeath@@QAE@ABV0@@Z
        132   83 001079D0 ??0EPlayerDeath@@QAE@XZ
        133   84 0000D960 ??0EPlayerRebirth@@QAE@ABV0@@Z
        134   85 00105390 ??0EPlayerRebirth@@QAE@XZ
        135   86 0000E110 ??0EPlayerStats@@QAE@ABV0@@Z
        136   87 001055F0 ??0EPlayerStats@@QAE@XZ
        137   88 000014B0 ??0ERangeModelDestruction@@QAE@ABV0@@Z
        138   89 000ECBD0 ??0ERangeModelDestruction@@QAE@XZ
        139   8A 0000D860 ??0ERebirth@@QAE@ABV0@@Z
        140   8B 00105330 ??0ERebirth@@QAE@XZ
        141   8C 000E8C30 ??0EReceiveScore@@QAE@ABV0@@Z
        142   8D 000E80E0 ??0EReceiveScore@@QAE@XZ
        143   8E 000E89A0 ??0EReminder@@QAE@ABV0@@Z
        144   8F 000E7FA0 ??0EReminder@@QAE@XZ
        145   90 000E9140 ??0EScroll@@QAE@ABV0@@Z
        146   91 000EA700 ??0EScroll@@QAE@XZ
        147   92 000E8F90 ??0ESecretFound@@QAE@ABV0@@Z
        148   93 000E8180 ??0ESecretFound@@QAE@XZ
        149   94 000909C0 ??0ESetViewer@@QAE@ABV0@@Z
        150   95 000E1500 ??0ESetViewer@@QAE@XZ
        151   96 0000E010 ??0EShowConsole@@QAE@ABV0@@Z
        152   97 00105590 ??0EShowConsole@@QAE@XZ
        153   98 000E9030 ??0ESound@@QAE@ABV0@@Z
        154   99 000EA640 ??0ESound@@QAE@XZ
        155   9A 000E1AA0 ??0ESpawnSpray@@QAE@ABV0@@Z
        156   9B 000E1E30 ??0ESpawnSpray@@QAE@XZ
        157   9C 000E8470 ??0EStart@@QAE@ABV0@@Z
        158   9D 000E9F80 ??0EStart@@QAE@XZ
        159   9E 000E8A30 ??0EStartAttack@@QAE@ABV0@@Z
        160   9F 000E7FE0 ??0EStartAttack@@QAE@XZ
        161   A0 000B3C80 ??0EStartEffect@@QAE@ABV0@@Z
        162   A1 000CBB80 ??0EStartEffect@@QAE@XZ
        163   A2 000F1730 ??0EStartSounds@@QAE@ABV0@@Z
        164   A3 000F1BA0 ??0EStartSounds@@QAE@XZ
        165   A4 000E83F0 ??0EStop@@QAE@ABV0@@Z
        166   A5 000E7DE0 ??0EStop@@QAE@XZ
        167   A6 000E8AB0 ??0EStopAttack@@QAE@ABV0@@Z
        168   A7 000E8020 ??0EStopAttack@@QAE@XZ
        169   A8 000E8B30 ??0EStopBlindness@@QAE@ABV0@@Z
        170   A9 000E8060 ??0EStopBlindness@@QAE@XZ
        171   AA 000E8BB0 ??0EStopDeafness@@QAE@ABV0@@Z
        172   AB 000E80A0 ??0EStopDeafness@@QAE@XZ
        173   AC 000B3C00 ??0EStopEffect@@QAE@ABV0@@Z
        174   AD 000CBB20 ??0EStopEffect@@QAE@XZ
        175   AE 000F1800 ??0EStopSounds@@QAE@ABV0@@Z
        176   AF 000F1C00 ??0EStopSounds@@QAE@XZ
        177   B0 0000E2A0 ??0ESubtitleEvent@@QAE@ABV0@@Z
        178   B1 001056A0 ??0ESubtitleEvent@@QAE@XZ
        179   B2 000E8910 ??0ETeleportMovingBrush@@QAE@ABV0@@Z
        180   B3 000E7F60 ??0ETeleportMovingBrush@@QAE@XZ
        181   B4 000E9250 ??0ETextFX@@QAE@ABV0@@Z
        182   B5 000EA7C0 ??0ETextFX@@QAE@XZ
        183   B6 000E8840 ??0ETrigger@@QAE@ABV0@@Z
        184   B7 000EA220 ??0ETrigger@@QAE@XZ
        185   B8 000E9760 ??0EVoiceMessage@@QAE@ABV0@@Z
        186   B9 000E8310 ??0EVoiceMessage@@QAE@XZ
        187   BA 00001A60 ??0EnterVehicleEvent@@QAE@ABV0@@Z
        188   BB 00058F70 ??0EnterVehicleEvent@@QAE@XZ
        189   BC 00001B00 ??0LeaveVehicleEvent@@QAE@ABV0@@Z
        190   BD 00058FD0 ??0LeaveVehicleEvent@@QAE@XZ
        191   BE 00132BC0 ??0PlayerStats@@QAE@XZ
        192   BF 00002D80 ??0ProxyBash@@QAE@ABV0@@Z
        193   C0 00059B90 ??0ProxyBash@@QAE@XZ
        194   C1 00004950 ??0ProxyBombConfigured@@QAE@ABV0@@Z
        195   C2 0005A520 ??0ProxyBombConfigured@@QAE@XZ
        196   C3 00002AA0 ??0ProxyBurstFire@@QAE@ABV0@@Z
        197   C4 0005D760 ??0ProxyBurstFire@@QAE@XZ
        198   C5 00002B80 ??0ProxyCeaseFire@@QAE@ABV0@@Z
        199   C6 00059A10 ??0ProxyCeaseFire@@QAE@XZ
        200   C7 00004850 ??0ProxyConfigureBomb@@QAE@ABV0@@Z
        201   C8 0005A4C0 ??0ProxyConfigureBomb@@QAE@XZ
        202   C9 00003EF0 ??0ProxyDeath@@QAE@ABV0@@Z
        203   CA 0005D940 ??0ProxyDeath@@QAE@XZ
        204   CB 00003130 ??0ProxyDiscoverBody@@QAE@ABV0@@Z
        205   CC 00059D80 ??0ProxyDiscoverBody@@QAE@XZ
        206   CD 00004050 ??0ProxyDoIdleSpice@@QAE@ABV0@@Z
        207   CE 0005A1C0 ??0ProxyDoIdleSpice@@QAE@XZ
        208   CF 00003BD0 ??0ProxyFall@@QAE@ABV0@@Z
        209   D0 0005A060 ??0ProxyFall@@QAE@XZ
        210   D1 000029C0 ??0ProxyFire@@QAE@ABV0@@Z
        211   D2 0005D6F0 ??0ProxyFire@@QAE@XZ
        212   D3 00002FF0 ??0ProxyFlee@@QAE@ABV0@@Z
        213   D4 00059D20 ??0ProxyFlee@@QAE@XZ
        214   D5 00003640 ??0ProxyFling@@QAE@ABV0@@Z
        215   D6 0005D8E0 ??0ProxyFling@@QAE@XZ
        216   D7 00003790 ??0ProxyGetUp@@QAE@ABV0@@Z
        217   D8 00059EE0 ??0ProxyGetUp@@QAE@XZ
        218   D9 000033A0 ??0ProxyHop@@QAE@ABV0@@Z
        219   DA 0005D820 ??0ProxyHop@@QAE@XZ
        220   DB 00003250 ??0ProxyJump@@QAE@ABV0@@Z
        221   DC 0005D7C0 ??0ProxyJump@@QAE@XZ
        222   DD 00002F50 ??0ProxyLookAround@@QAE@ABV0@@Z
        223   DE 00059CC0 ??0ProxyLookAround@@QAE@XZ
        224   DF 00002590 ??0ProxyNewWeapon@@QAE@ABV0@@Z
        225   E0 000596C0 ??0ProxyNewWeapon@@QAE@XZ
        226   E1 00002280 ??0ProxyPowerupInRange@@QAE@ABV0@@Z
        227   E2 000594E0 ??0ProxyPowerupInRange@@QAE@XZ
        228   E3 00001B80 ??0ProxyPunchThrown@@QAE@ABV0@@Z
        229   E4 00059030 ??0ProxyPunchThrown@@QAE@XZ
        230   E5 000046B0 ??0ProxyReachForBomb@@QAE@ABV0@@Z
        231   E6 0005A420 ??0ProxyReachForBomb@@QAE@XZ
        232   E7 00002C80 ??0ProxyReleaseGrenade@@QAE@ABV0@@Z
        233   E8 00059AD0 ??0ProxyReleaseGrenade@@QAE@XZ
        234   E9 00001C00 ??0ProxyReload@@QAE@ABV0@@Z
        235   EA 00059090 ??0ProxyReload@@QAE@XZ
        236   EB 00001F90 ??0ProxyReplenishHealth@@QAE@ABV0@@Z
        237   EC 00059300 ??0ProxyReplenishHealth@@QAE@XZ
        238   ED 00001CC0 ??0ProxyReplenishPossible@@QAE@ABV0@@Z
        239   EE 00059130 ??0ProxyReplenishPossible@@QAE@XZ
        240   EF 00001E30 ??0ProxyReplenishRequest@@QAE@ABV0@@Z
        241   F0 00059220 ??0ProxyReplenishRequest@@QAE@XZ
        242   F1 00002100 ??0ProxyReplenishWeapon@@QAE@ABV0@@Z
        243   F2 000593F0 ??0ProxyReplenishWeapon@@QAE@XZ
        244   F3 000023F0 ??0ProxyReplenishWeaponInSlot@@QAE@ABV0@@Z
        245   F4 000595D0 ??0ProxyReplenishWeaponInSlot@@QAE@XZ
        246   F5 00002D00 ??0ProxyResetFireAnimation@@QAE@ABV0@@Z
        247   F6 00059B30 ??0ProxyResetFireAnimation@@QAE@XZ
        248   F7 00003890 ??0ProxyResetFling@@QAE@ABV0@@Z
        249   F8 00059F40 ??0ProxyResetFling@@QAE@XZ
        250   F9 000034F0 ??0ProxyRoll@@QAE@ABV0@@Z
        251   FA 0005D880 ??0ProxyRoll@@QAE@XZ
        252   FB 00002E00 ??0ProxySelectWeapon@@QAE@ABV0@@Z
        253   FC 00059BF0 ??0ProxySelectWeapon@@QAE@XZ
        254   FD 00002EA0 ??0ProxySetNewWeapon@@QAE@ABV0@@Z
        255   FE 00059C50 ??0ProxySetNewWeapon@@QAE@XZ
        256   FF 00003AB0 ??0ProxySetStance@@QAE@ABV0@@Z
        257  100 0005A000 ??0ProxySetStance@@QAE@XZ
        258  101 00003DF0 ??0ProxyStop@@QAE@ABV0@@Z
        259  102 0005A120 ??0ProxyStop@@QAE@XZ
        260  103 00004150 ??0ProxyStopIdleSpice@@QAE@ABV0@@Z
        261  104 0005A220 ??0ProxyStopIdleSpice@@QAE@XZ
        262  105 00002910 ??0ProxySyncWeaponAmmo@@QAE@ABV0@@Z
        263  106 00059920 ??0ProxySyncWeaponAmmo@@QAE@XZ
        264  107 00002C00 ??0ProxyThrowGrenade@@QAE@ABV0@@Z
        265  108 00059A70 ??0ProxyThrowGrenade@@QAE@XZ
        266  109 000044D0 ??0ProxyTimedBombInRange@@QAE@ABV0@@Z
        267  10A 0005A340 ??0ProxyTimedBombInRange@@QAE@XZ
        268  10B 00003CF0 ??0ProxyTouchDown@@QAE@ABV0@@Z
        269  10C 0005A0C0 ??0ProxyTouchDown@@QAE@XZ
        270  10D 00002890 ??0ProxyWeaponChangeComplete@@QAE@ABV0@@Z
        271  10E 000598C0 ??0ProxyWeaponChangeComplete@@QAE@XZ
        272  10F 00002710 ??0ProxyWeaponToBack@@QAE@ABV0@@Z
        273  110 000597A0 ??0ProxyWeaponToBack@@QAE@XZ
        274  111 00002810 ??0ProxyWeaponToHand@@QAE@ABV0@@Z
        275  112 00059860 ??0ProxyWeaponToHand@@QAE@XZ
        276  113 00002790 ??0ProxyWeaponToHip@@QAE@ABV0@@Z
        277  114 00059800 ??0ProxyWeaponToHip@@QAE@XZ
        278  115 00003990 ??0ProxyWounded@@QAE@ABV0@@Z
        279  116 00059FA0 ??0ProxyWounded@@QAE@XZ
        280  117 00004A50 ??0RespawnEvent@@QAE@ABV0@@Z
        281  118 0005DA30 ??0RespawnEvent@@QAE@XZ
        282  119 000019B0 ??0SyncDescriptorEvent@@QAE@ABV0@@Z
        283  11A 00058F10 ??0SyncDescriptorEvent@@QAE@XZ
        284  11B 00001850 ??0SyncPositioningEvent@@QAE@ABV0@@Z
        285  11C 0005D660 ??0SyncPositioningEvent@@QAE@XZ
        286  11D 00017E70 ??0TimedBombActive@@QAE@ABV0@@Z
        287  11E 000DC330 ??0TimedBombActive@@QAE@XZ
        288  11F 00017EF0 ??0TimedBombDormant@@QAE@ABV0@@Z
        289  120 000DC3B0 ??0TimedBombDormant@@QAE@XZ
        290  121 00018010 ??0TimedBombToActive@@QAE@ABV0@@Z
        291  122 000DCAB0 ??0TimedBombToActive@@QAE@XZ
        292  123 00018280 ??0TimedBombToDormant@@QAE@ABV0@@Z
        293  124 000DCB70 ??0TimedBombToDormant@@QAE@XZ
        294  125 000017D0 ??0TriggerGameEntity@@QAE@ABV0@@Z
        295  126 00058E70 ??0TriggerGameEntity@@QAE@XZ
        296  127 00101470 ??0WorldLinkEvent@@QAE@ABV0@@Z
        297  128 001015D0 ??0WorldLinkEvent@@QAE@XZ
        298  129 0000E440 ??1ABZSwitchMarine@@UAE@XZ
        299  12A 000A9D70 ??1CActor@@UAE@XZ
        300  12B 000A9CB0 ??1CActorActivate@@UAE@XZ
        301  12C 000A9D00 ??1CActorDeactivate@@UAE@XZ
        302  12D 00110610 ??1CBotTrackView@@UAE@XZ
        303  12E 00110280 ??1CCloseShoulderView@@UAE@XZ
        304  12F 00110410 ??1CCommandView@@UAE@XZ
        305  130 00132C20 ??1CCompMessageID@@QAE@XZ
        306  131 0010FE60 ??1CFirstPersonView@@UAE@XZ
        307  132 00052E10 ??1CPathBuilder@@UAE@XZ
        308  133 00011BE0 ??1CPlayer@@UAE@XZ
        309  134 00110D30 ??1CPlayerDeathView@@UAE@XZ
        310  135 00110820 ??1CSpectatorView@@UAE@XZ
        311  136 000DA420 ??1CTeleTypeEntity@@UAE@XZ
        312  137 00118D40 ??1CThirdPersonView@@UAE@XZ
        313  138 0015B730 ??1CWorldState@@UAE@XZ
        314  139 00004240 ??1DamageEvent@@UAE@XZ
        315  13A 000920A0 ??1EActivate@@UAE@XZ
        316  13B 000C4FA0 ??1EActivateFullScreenEffects@@UAE@XZ
        317  13C 000D8660 ??1EActivateSpaceDebree@@UAE@XZ
        318  13D 000A9B70 ??1EAnimTriggerAndConfigure@@UAE@XZ
        319  13E 000F18C0 ??1EBrushDeath@@UAE@XZ
        320  13F 000F1650 ??1EBrushDestroyed@@UAE@XZ
        321  140 0000F8A0 ??1ECameraStart@@UAE@XZ
        322  141 0000FA90 ??1ECameraStop@@UAE@XZ
        323  142 000922C0 ??1ECenterMessage@@UAE@XZ
        324  143 00001030 ??1EChangeAnim@@UAE@XZ
        325  144 00090AC0 ??1EChangeMusic@@UAE@XZ
        326  145 00092220 ??1ECloseDoor@@UAE@XZ
        327  146 000E9600 ??1EComputerMessage@@UAE@XZ
        328  147 000E9420 ??1ECredits@@UAE@XZ
        329  148 000B8B90 ??1ECutscene@@UAE@XZ
        330  149 0005C420 ??1EDeactivate@@UAE@XZ
        331  14A 000B3CF0 ??1EDeactivateEffect@@UAE@XZ
        332  14B 000C5070 ??1EDeactivateFullScreenEffects@@UAE@XZ
        333  14C 0000DCB0 ??1EDisconnected@@UAE@XZ
        334  14D 000E87B0 ??1EEnd@@UAE@XZ
        335  14E 000920F0 ??1EEnvironmentStart@@UAE@XZ
        336  14F 00092100 ??1EEnvironmentStop@@UAE@XZ
        337  150 000BF680 ??1EExplosion@@UAE@XZ
        338  151 000F1580 ??1EHit@@UAE@XZ
        339  152 000E9820 ??1EHitBySpaceShipBeam@@UAE@XZ
        340  153 000E9310 ??1EHudPicFX@@UAE@XZ
        341  154 000AB2D0 ??1EInitBeacon@@UAE@XZ
        342  155 000C4ED0 ??1EInitializeFullScreenEffects@@UAE@XZ
        343  156 0000D730 ??1EInitializePlayer@@UAE@XZ
        344  157 000D4380 ??1EInitializeShadowRenderer@@UAE@XZ
        345  158 000E8E60 ??1EKilledEnemy@@UAE@XZ
        346  159 00065150 ??1ELaunchGrenade@@UAE@XZ
        347  15A 0000E630 ??1ELocalTeleTypeMessage@@UAE@XZ
        348  15B 00001200 ??1EModel2Activate@@UAE@XZ
        349  15C 00001280 ??1EModel2Deactivate@@UAE@XZ
        350  15D 000015A0 ??1EModel3Activate@@UAE@XZ
        351  15E 00001620 ??1EModel3Deactivate@@UAE@XZ
        352  15F 000016A0 ??1EModel3Initialize@@UAE@XZ
        353  160 00001520 ??1EModelDeath@@UAE@XZ
        354  161 000F5B30 ??1EMusicChangerTrigger@@UAE@XZ
        355  162 0000DB90 ??1ENSShepperdEvent@@UAE@XZ
        356  163 0000DA70 ??1ENSVoiceMessage@@UAE@XZ
        357  164 00090CD0 ??1ENetChangeMusic@@UAE@XZ
        358  165 000013A0 ??1ENetStartSound@@UAE@XZ
        359  166 00001420 ??1ENetStopSound@@UAE@XZ
        360  167 0000E8A0 ??1ENetworkTeleTypeMessage@@UAE@XZ
        361  168 000921D0 ??1EOpenDoor@@UAE@XZ
        362  169 00001320 ??1EPlaySoundOnce@@UAE@XZ
        363  16A 0000DDB0 ??1EPlayerDeath@@UAE@XZ
        364  16B 0000D950 ??1EPlayerRebirth@@UAE@XZ
        365  16C 0000E100 ??1EPlayerStats@@UAE@XZ
        366  16D 000014A0 ??1ERangeModelDestruction@@UAE@XZ
        367  16E 0000D850 ??1ERebirth@@UAE@XZ
        368  16F 000921C0 ??1EReceiveScore@@UAE@XZ
        369  170 000E8990 ??1EReminder@@UAE@XZ
        370  171 000E90F0 ??1EScroll@@UAE@XZ
        371  172 000E8F80 ??1ESecretFound@@UAE@XZ
        372  173 000909B0 ??1ESetViewer@@UAE@XZ
        373  174 0000E000 ??1EShowConsole@@UAE@XZ
        374  175 00092270 ??1ESound@@UAE@XZ
        375  176 000E1A50 ??1ESpawnSpray@@UAE@XZ
        376  177 00092050 ??1EStart@@UAE@XZ
        377  178 00092180 ??1EStartAttack@@UAE@XZ
        378  179 000B3C70 ??1EStartEffect@@UAE@XZ
        379  17A 000F1720 ??1EStartSounds@@UAE@XZ
        380  17B 00092040 ??1EStop@@UAE@XZ
        381  17C 00092190 ??1EStopAttack@@UAE@XZ
        382  17D 000921A0 ??1EStopBlindness@@UAE@XZ
        383  17E 000921B0 ??1EStopDeafness@@UAE@XZ
        384  17F 000B3BF0 ??1EStopEffect@@UAE@XZ
        385  180 000F17F0 ??1EStopSounds@@UAE@XZ
        386  181 0000E250 ??1ESubtitleEvent@@UAE@XZ
        387  182 00092170 ??1ETeleportMovingBrush@@UAE@XZ
        388  183 000E9200 ??1ETextFX@@UAE@XZ
        389  184 00092110 ??1ETrigger@@UAE@XZ
        390  185 000E9710 ??1EVoiceMessage@@UAE@XZ
        391  186 00001A50 ??1EnterVehicleEvent@@UAE@XZ
        392  187 00001AF0 ??1LeaveVehicleEvent@@UAE@XZ
        393  188 00002D70 ??1ProxyBash@@UAE@XZ
        394  189 00004940 ??1ProxyBombConfigured@@UAE@XZ
        395  18A 00002A90 ??1ProxyBurstFire@@UAE@XZ
        396  18B 00002B70 ??1ProxyCeaseFire@@UAE@XZ
        397  18C 00004840 ??1ProxyConfigureBomb@@UAE@XZ
        398  18D 00003EE0 ??1ProxyDeath@@UAE@XZ
        399  18E 00003120 ??1ProxyDiscoverBody@@UAE@XZ
        400  18F 00004040 ??1ProxyDoIdleSpice@@UAE@XZ
        401  190 00003BC0 ??1ProxyFall@@UAE@XZ
        402  191 000029B0 ??1ProxyFire@@UAE@XZ
        403  192 00002FE0 ??1ProxyFlee@@UAE@XZ
        404  193 00003630 ??1ProxyFling@@UAE@XZ
        405  194 00003780 ??1ProxyGetUp@@UAE@XZ
        406  195 00003390 ??1ProxyHop@@UAE@XZ
        407  196 00003240 ??1ProxyJump@@UAE@XZ
        408  197 00002F40 ??1ProxyLookAround@@UAE@XZ
        409  198 00002530 ??1ProxyNewWeapon@@UAE@XZ
        410  199 00002230 ??1ProxyPowerupInRange@@UAE@XZ
        411  19A 00001B70 ??1ProxyPunchThrown@@UAE@XZ
        412  19B 00004660 ??1ProxyReachForBomb@@UAE@XZ
        413  19C 00002C70 ??1ProxyReleaseGrenade@@UAE@XZ
        414  19D 00001BF0 ??1ProxyReload@@UAE@XZ
        415  19E 00001F40 ??1ProxyReplenishHealth@@UAE@XZ
        416  19F 00001C70 ??1ProxyReplenishPossible@@UAE@XZ
        417  1A0 00001DE0 ??1ProxyReplenishRequest@@UAE@XZ
        418  1A1 000020B0 ??1ProxyReplenishWeapon@@UAE@XZ
        419  1A2 000023A0 ??1ProxyReplenishWeaponInSlot@@UAE@XZ
        420  1A3 00002CF0 ??1ProxyResetFireAnimation@@UAE@XZ
        421  1A4 00003880 ??1ProxyResetFling@@UAE@XZ
        422  1A5 000034E0 ??1ProxyRoll@@UAE@XZ
        423  1A6 00002DF0 ??1ProxySelectWeapon@@UAE@XZ
        424  1A7 00002E90 ??1ProxySetNewWeapon@@UAE@XZ
        425  1A8 00003AA0 ??1ProxySetStance@@UAE@XZ
        426  1A9 00003DE0 ??1ProxyStop@@UAE@XZ
        427  1AA 00004140 ??1ProxyStopIdleSpice@@UAE@XZ
        428  1AB 00002900 ??1ProxySyncWeaponAmmo@@UAE@XZ
        429  1AC 00002BF0 ??1ProxyThrowGrenade@@UAE@XZ
        430  1AD 00004480 ??1ProxyTimedBombInRange@@UAE@XZ
        431  1AE 00003CE0 ??1ProxyTouchDown@@UAE@XZ
        432  1AF 00002880 ??1ProxyWeaponChangeComplete@@UAE@XZ
        433  1B0 00002700 ??1ProxyWeaponToBack@@UAE@XZ
        434  1B1 00002800 ??1ProxyWeaponToHand@@UAE@XZ
        435  1B2 00002780 ??1ProxyWeaponToHip@@UAE@XZ
        436  1B3 00003980 ??1ProxyWounded@@UAE@XZ
        437  1B4 00004A40 ??1RespawnEvent@@UAE@XZ
        438  1B5 000019A0 ??1SyncDescriptorEvent@@UAE@XZ
        439  1B6 00001840 ??1SyncPositioningEvent@@UAE@XZ
        440  1B7 00017E60 ??1TimedBombActive@@UAE@XZ
        441  1B8 00017EE0 ??1TimedBombDormant@@UAE@XZ
        442  1B9 00017FC0 ??1TimedBombToActive@@UAE@XZ
        443  1BA 00018230 ??1TimedBombToDormant@@UAE@XZ
        444  1BB 000017C0 ??1TriggerGameEntity@@UAE@XZ
        445  1BC 00101460 ??1WorldLinkEvent@@UAE@XZ
        446  1BD 0000E4F0 ??4ABZSwitchMarine@@QAEAAV0@AAV0@@Z
        447  1BE 000A9F30 ??4CActor@@QAEAAV0@AAV0@@Z
        448  1BF 000A9CE0 ??4CActorActivate@@QAEAAV0@ABV0@@Z
        449  1C0 000A9D30 ??4CActorDeactivate@@QAEAAV0@ABV0@@Z
        450  1C1 001106D0 ??4CBotTrackView@@QAEAAV0@AAV0@@Z
        451  1C2 00110310 ??4CCloseShoulderView@@QAEAAV0@AAV0@@Z
        452  1C3 001104E0 ??4CCommandView@@QAEAAV0@AAV0@@Z
        453  1C4 00132C60 ??4CCompMessageID@@QAEAAV0@ABV0@@Z
        454  1C5 0010FF40 ??4CFirstPersonView@@QAEAAV0@AAV0@@Z
        455  1C6 0000EBD0 ??4CPathBuilder@@QAEAAV0@ABV0@@Z
        456  1C7 000161D0 ??4CPlayer@@QAEAAV0@AAV0@@Z
        457  1C8 00110EC0 ??4CPlayerDeathView@@QAEAAV0@AAV0@@Z
        458  1C9 00110870 ??4CSpectatorView@@QAEAAV0@AAV0@@Z
        459  1CA 000DA5F0 ??4CTeleTypeEntity@@QAEAAV0@AAV0@@Z
        460  1CB 00110150 ??4CThirdPersonView@@QAEAAV0@AAV0@@Z
        461  1CC 00004330 ??4DamageEvent@@QAEAAV0@AAV0@@Z
        462  1CD 00131920 ??4EActivate@@QAEAAV0@ABV0@@Z
        463  1CE 000C4FD0 ??4EActivateFullScreenEffects@@QAEAAV0@ABV0@@Z
        464  1CF 000D8710 ??4EActivateSpaceDebree@@QAEAAV0@ABV0@@Z
        465  1D0 000A9C50 ??4EAnimTriggerAndConfigure@@QAEAAV0@ABV0@@Z
        466  1D1 000F1970 ??4EBrushDeath@@QAEAAV0@AAV0@@Z
        467  1D2 000F1680 ??4EBrushDestroyed@@QAEAAV0@ABV0@@Z
        468  1D3 0000F950 ??4ECameraStart@@QAEAAV0@ABV0@@Z
        469  1D4 0000FB40 ??4ECameraStop@@QAEAAV0@ABV0@@Z
        470  1D5 001328D0 ??4ECenterMessage@@QAEAAV0@ABV0@@Z
        471  1D6 00001120 ??4EChangeAnim@@QAEAAV0@ABV0@@Z
        472  1D7 00090B80 ??4EChangeMusic@@QAEAAV0@ABV0@@Z
        473  1D8 00132140 ??4ECloseDoor@@QAEAAV0@ABV0@@Z
        474  1D9 001329B0 ??4EComputerMessage@@QAEAAV0@ABV0@@Z
        475  1DA 001327E0 ??4ECredits@@QAEAAV0@ABV0@@Z
        476  1DB 000B8BD0 ??4ECutscene@@QAEAAV0@ABV0@@Z
        477  1DC 00131A00 ??4EDeactivate@@QAEAAV0@ABV0@@Z
        478  1DD 000B3D20 ??4EDeactivateEffect@@QAEAAV0@ABV0@@Z
        479  1DE 000C50A0 ??4EDeactivateFullScreenEffects@@QAEAAV0@ABV0@@Z
        480  1DF 0000DCE0 ??4EDisconnected@@QAEAAV0@ABV0@@Z
        481  1E0 00131BC0 ??4EEnd@@QAEAAV0@ABV0@@Z
        482  1E1 00131AE0 ??4EEnvironmentStart@@QAEAAV0@ABV0@@Z
        483  1E2 00131B50 ??4EEnvironmentStop@@QAEAAV0@ABV0@@Z
        484  1E3 000BF760 ??4EExplosion@@QAEAAV0@AAV0@@Z
        485  1E4 000F15B0 ??4EHit@@QAEAAV0@ABV0@@Z
        486  1E5 00132B50 ??4EHitBySpaceShipBeam@@QAEAAV0@ABV0@@Z
        487  1E6 001326F0 ??4EHudPicFX@@QAEAAV0@ABV0@@Z
        488  1E7 000AB300 ??4EInitBeacon@@QAEAAV0@ABV0@@Z
        489  1E8 000C4F00 ??4EInitializeFullScreenEffects@@QAEAAV0@ABV0@@Z
        490  1E9 0000D770 ??4EInitializePlayer@@QAEAAV0@ABV0@@Z
        491  1EA 000D43B0 ??4EInitializeShadowRenderer@@QAEAAV0@ABV0@@Z
        492  1EB 00132220 ??4EKilledEnemy@@QAEAAV0@ABV0@@Z
        493  1EC 00065240 ??4ELaunchGrenade@@QAEAAV0@AAV0@@Z
        494  1ED 0000E750 ??4ELocalTeleTypeMessage@@QAEAAV0@ABV0@@Z
        495  1EE 00001230 ??4EModel2Activate@@QAEAAV0@ABV0@@Z
        496  1EF 000012B0 ??4EModel2Deactivate@@QAEAAV0@ABV0@@Z
        497  1F0 000015D0 ??4EModel3Activate@@QAEAAV0@ABV0@@Z
        498  1F1 00001650 ??4EModel3Deactivate@@QAEAAV0@ABV0@@Z
        499  1F2 000016D0 ??4EModel3Initialize@@QAEAAV0@ABV0@@Z
        500  1F3 00001550 ??4EModelDeath@@QAEAAV0@ABV0@@Z
        501  1F4 000F5B60 ??4EMusicChangerTrigger@@QAEAAV0@ABV0@@Z
        502  1F5 0000DBD0 ??4ENSShepperdEvent@@QAEAAV0@ABV0@@Z
        503  1F6 0000DAB0 ??4ENSVoiceMessage@@QAEAAV0@ABV0@@Z
        504  1F7 00090D10 ??4ENetChangeMusic@@QAEAAV0@ABV0@@Z
        505  1F8 000013D0 ??4ENetStartSound@@QAEAAV0@ABV0@@Z
        506  1F9 00001450 ??4ENetStopSound@@QAEAAV0@ABV0@@Z
        507  1FA 0000E8E0 ??4ENetworkTeleTypeMessage@@QAEAAV0@ABV0@@Z
        508  1FB 00132060 ??4EOpenDoor@@QAEAAV0@ABV0@@Z
        509  1FC 00001350 ??4EPlaySoundOnce@@QAEAAV0@ABV0@@Z
        510  1FD 0000DEA0 ??4EPlayerDeath@@QAEAAV0@AAV0@@Z
        511  1FE 0000D990 ??4EPlayerRebirth@@QAEAAV0@ABV0@@Z
        512  1FF 0000E150 ??4EPlayerStats@@QAEAAV0@ABV0@@Z
        513  200 000014D0 ??4ERangeModelDestruction@@QAEAAV0@ABV0@@Z
        514  201 0000D880 ??4ERebirth@@QAEAAV0@ABV0@@Z
        515  202 00131FE0 ??4EReceiveScore@@QAEAAV0@ABV0@@Z
        516  203 00131DA0 ??4EReminder@@QAEAAV0@ABV0@@Z
        517  204 00132510 ??4EScroll@@QAEAAV0@ABV0@@Z
        518  205 00132320 ??4ESecretFound@@QAEAAV0@ABV0@@Z
        519  206 000909E0 ??4ESetViewer@@QAEAAV0@ABV0@@Z
        520  207 0000E030 ??4EShowConsole@@QAEAAV0@ABV0@@Z
        521  208 00132420 ??4ESound@@QAEAAV0@ABV0@@Z
        522  209 000E1B40 ??4ESpawnSpray@@QAEAAV0@AAV0@@Z
        523  20A 00131840 ??4EStart@@QAEAAV0@ABV0@@Z
        524  20B 00131E20 ??4EStartAttack@@QAEAAV0@ABV0@@Z
        525  20C 000B3CA0 ??4EStartEffect@@QAEAAV0@ABV0@@Z
        526  20D 000F1750 ??4EStartSounds@@QAEAAV0@ABV0@@Z
        527  20E 001317D0 ??4EStop@@QAEAAV0@ABV0@@Z
        528  20F 00131E90 ??4EStopAttack@@QAEAAV0@ABV0@@Z
        529  210 00131F00 ??4EStopBlindness@@QAEAAV0@ABV0@@Z
        530  211 00131F70 ??4EStopDeafness@@QAEAAV0@ABV0@@Z
        531  212 000B3C20 ??4EStopEffect@@QAEAAV0@ABV0@@Z
        532  213 000F1820 ??4EStopSounds@@QAEAAV0@ABV0@@Z
        533  214 0000E300 ??4ESubtitleEvent@@QAEAAV0@ABV0@@Z
        534  215 00131D30 ??4ETeleportMovingBrush@@QAEAAV0@ABV0@@Z
        535  216 00132600 ??4ETextFX@@QAEAAV0@ABV0@@Z
        536  217 00131C30 ??4ETrigger@@QAEAAV0@ABV0@@Z
        537  218 00132A80 ??4EVoiceMessage@@QAEAAV0@ABV0@@Z
        538  219 00001A90 ??4EnterVehicleEvent@@QAEAAV0@ABV0@@Z
        539  21A 00001B20 ??4LeaveVehicleEvent@@QAEAAV0@ABV0@@Z
        540  21B 00132BE0 ??4PlayerStats@@QAEAAU0@ABU0@@Z
        541  21C 00002DA0 ??4ProxyBash@@QAEAAV0@ABV0@@Z
        542  21D 00004970 ??4ProxyBombConfigured@@QAEAAV0@ABV0@@Z
        543  21E 00002AE0 ??4ProxyBurstFire@@QAEAAV0@ABV0@@Z
        544  21F 00002BA0 ??4ProxyCeaseFire@@QAEAAV0@ABV0@@Z
        545  220 00004870 ??4ProxyConfigureBomb@@QAEAAV0@ABV0@@Z
        546  221 00003F30 ??4ProxyDeath@@QAEAAV0@ABV0@@Z
        547  222 00003160 ??4ProxyDiscoverBody@@QAEAAV0@ABV0@@Z
        548  223 00004070 ??4ProxyDoIdleSpice@@QAEAAV0@ABV0@@Z
        549  224 00003C00 ??4ProxyFall@@QAEAAV0@ABV0@@Z
        550  225 00002A00 ??4ProxyFire@@QAEAAV0@ABV0@@Z
        551  226 00003030 ??4ProxyFlee@@QAEAAV0@ABV0@@Z
        552  227 00003680 ??4ProxyFling@@QAEAAV0@ABV0@@Z
        553  228 000037B0 ??4ProxyGetUp@@QAEAAV0@ABV0@@Z
        554  229 000033E0 ??4ProxyHop@@QAEAAV0@ABV0@@Z
        555  22A 00003290 ??4ProxyJump@@QAEAAV0@ABV0@@Z
        556  22B 00002F80 ??4ProxyLookAround@@QAEAAV0@ABV0@@Z
        557  22C 00002620 ??4ProxyNewWeapon@@QAEAAV0@AAV0@@Z
        558  22D 000022E0 ??4ProxyPowerupInRange@@QAEAAV0@AAV0@@Z
        559  22E 00001BA0 ??4ProxyPunchThrown@@QAEAAV0@ABV0@@Z
        560  22F 00004710 ??4ProxyReachForBomb@@QAEAAV0@AAV0@@Z
        561  230 00002CA0 ??4ProxyReleaseGrenade@@QAEAAV0@ABV0@@Z
        562  231 00001C20 ??4ProxyReload@@QAEAAV0@ABV0@@Z
        563  232 00001FF0 ??4ProxyReplenishHealth@@QAEAAV0@AAV0@@Z
        564  233 00001D20 ??4ProxyReplenishPossible@@QAEAAV0@AAV0@@Z
        565  234 00001E90 ??4ProxyReplenishRequest@@QAEAAV0@AAV0@@Z
        566  235 00002170 ??4ProxyReplenishWeapon@@QAEAAV0@AAV0@@Z
        567  236 00002460 ??4ProxyReplenishWeaponInSlot@@QAEAAV0@AAV0@@Z
        568  237 00002D20 ??4ProxyResetFireAnimation@@QAEAAV0@ABV0@@Z
        569  238 000038B0 ??4ProxyResetFling@@QAEAAV0@ABV0@@Z
        570  239 00003530 ??4ProxyRoll@@QAEAAV0@ABV0@@Z
        571  23A 00002E30 ??4ProxySelectWeapon@@QAEAAV0@ABV0@@Z
        572  23B 00002ED0 ??4ProxySetNewWeapon@@QAEAAV0@ABV0@@Z
        573  23C 00003AE0 ??4ProxySetStance@@QAEAAV0@ABV0@@Z
        574  23D 00003E10 ??4ProxyStop@@QAEAAV0@ABV0@@Z
        575  23E 00004170 ??4ProxyStopIdleSpice@@QAEAAV0@ABV0@@Z
        576  23F 00002940 ??4ProxySyncWeaponAmmo@@QAEAAV0@ABV0@@Z
        577  240 00002C20 ??4ProxyThrowGrenade@@QAEAAV0@ABV0@@Z
        578  241 00004530 ??4ProxyTimedBombInRange@@QAEAAV0@AAV0@@Z
        579  242 00003D10 ??4ProxyTouchDown@@QAEAAV0@ABV0@@Z
        580  243 000028B0 ??4ProxyWeaponChangeComplete@@QAEAAV0@ABV0@@Z
        581  244 00002730 ??4ProxyWeaponToBack@@QAEAAV0@ABV0@@Z
        582  245 00002830 ??4ProxyWeaponToHand@@QAEAAV0@ABV0@@Z
        583  246 000027B0 ??4ProxyWeaponToHip@@QAEAAV0@ABV0@@Z
        584  247 000039C0 ??4ProxyWounded@@QAEAAV0@ABV0@@Z
        585  248 00004A90 ??4RespawnEvent@@QAEAAV0@ABV0@@Z
        586  249 000019E0 ??4SyncDescriptorEvent@@QAEAAV0@ABV0@@Z
        587  24A 000018E0 ??4SyncPositioningEvent@@QAEAAV0@ABV0@@Z
        588  24B 00017E90 ??4TimedBombActive@@QAEAAV0@ABV0@@Z
        589  24C 00017F10 ??4TimedBombDormant@@QAEAAV0@ABV0@@Z
        590  24D 00018070 ??4TimedBombToActive@@QAEAAV0@ABV0@@Z
        591  24E 000182E0 ??4TimedBombToDormant@@QAEAAV0@ABV0@@Z
        592  24F 000017F0 ??4TriggerGameEntity@@QAEAAV0@ABV0@@Z
        593  250 00101490 ??4WorldLinkEvent@@QAEAAV0@ABV0@@Z
        594  251 0019A9E4 ??_7ABZSwitchMarine@@6B@
        595  252 001A8608 ??_7CActor@@6B@
        596  253 001A85E8 ??_7CActorActivate@@6B@
        597  254 001A85F8 ??_7CActorDeactivate@@6B@
        598  255 001B69C0 ??_7CBotTrackView@@6B@
        599  256 001B6750 ??_7CCloseShoulderView@@6B@
        600  257 001B6888 ??_7CCommandView@@6B@
        601  258 001B64E0 ??_7CFirstPersonView@@6B@
        602  259 0019AA20 ??_7CPathBuilder@@6B@
        603  25A 0019AF28 ??_7CPlayer@@6B@
        604  25B 001B6C30 ??_7CPlayerDeathView@@6B@
        605  25C 001B6AF8 ??_7CSpectatorView@@6B@
        606  25D 001AF3F8 ??_7CTeleTypeEntity@@6B@
        607  25E 001B6618 ??_7CThirdPersonView@@6B@
        608  25F 001B9800 ??_7CWorldState@@6B@
        609  260 0019A2CC ??_7DamageEvent@@6B@
        610  261 001B1DF4 ??_7EActivate@@6B@
        611  262 001AB980 ??_7EActivateFullScreenEffects@@6B@
        612  263 001AEDB8 ??_7EActivateSpaceDebree@@6B@
        613  264 001A85D8 ??_7EAnimTriggerAndConfigure@@6B@
        614  265 001B32B8 ??_7EBrushDeath@@6B@
        615  266 001B3288 ??_7EBrushDestroyed@@6B@
        616  267 0019AA24 ??_7ECameraStart@@6B@
        617  268 0019AA34 ??_7ECameraStop@@6B@
        618  269 001B1EA4 ??_7ECenterMessage@@6B@
        619  26A 00199F4C ??_7EChangeAnim@@6B@
        620  26B 001A6880 ??_7EChangeMusic@@6B@
        621  26C 001B1E34 ??_7ECloseDoor@@6B@
        622  26D 001B1DB4 ??_7EComputerMessage@@6B@
        623  26E 001B1E94 ??_7ECredits@@6B@
        624  26F 001AA8E0 ??_7ECutscene@@6B@
        625  270 001B1E04 ??_7EDeactivate@@6B@
        626  271 001A9A54 ??_7EDeactivateEffect@@6B@
        627  272 001AB990 ??_7EDeactivateFullScreenEffects@@6B@
        628  273 0019A994 ??_7EDisconnected@@6B@
        629  274 001B1D24 ??_7EEnd@@6B@
        630  275 001B1D04 ??_7EEnvironmentStart@@6B@
        631  276 001B1D14 ??_7EEnvironmentStop@@6B@
        632  277 001AAEC8 ??_7EExplosion@@6B@
        633  278 001B3278 ??_7EHit@@6B@
        634  279 001B1DD4 ??_7EHitBySpaceShipBeam@@6B@
        635  27A 001B1E84 ??_7EHudPicFX@@6B@
        636  27B 001A89DC ??_7EInitBeacon@@6B@
        637  27C 001AB970 ??_7EInitializeFullScreenEffects@@6B@
        638  27D 0019A944 ??_7EInitializePlayer@@6B@
        639  27E 001AE428 ??_7EInitializeShadowRenderer@@6B@
        640  27F 001B1E44 ??_7EKilledEnemy@@6B@
        641  280 001A3804 ??_7ELaunchGrenade@@6B@
        642  281 0019A9F4 ??_7ELocalTeleTypeMessage@@6B@
        643  282 00199F5C ??_7EModel2Activate@@6B@
        644  283 00199F6C ??_7EModel2Deactivate@@6B@
        645  284 00199FCC ??_7EModel3Activate@@6B@
        646  285 00199FDC ??_7EModel3Deactivate@@6B@
        647  286 00199FEC ??_7EModel3Initialize@@6B@
        648  287 00199FBC ??_7EModelDeath@@6B@
        649  288 001B39E4 ??_7EMusicChangerTrigger@@6B@
        650  289 0019A984 ??_7ENSShepperdEvent@@6B@
        651  28A 0019A974 ??_7ENSVoiceMessage@@6B@
        652  28B 001A6890 ??_7ENetChangeMusic@@6B@
        653  28C 00199F8C ??_7ENetStartSound@@6B@
        654  28D 00199F9C ??_7ENetStopSound@@6B@
        655  28E 0019AA04 ??_7ENetworkTeleTypeMessage@@6B@
        656  28F 001B1E24 ??_7EOpenDoor@@6B@
        657  290 00199F7C ??_7EPlaySoundOnce@@6B@
        658  291 0019A9A4 ??_7EPlayerDeath@@6B@
        659  292 0019A964 ??_7EPlayerRebirth@@6B@
        660  293 0019A9C4 ??_7EPlayerStats@@6B@
        661  294 00199FAC ??_7ERangeModelDestruction@@6B@
        662  295 0019A954 ??_7ERebirth@@6B@
        663  296 001B1D94 ??_7EReceiveScore@@6B@
        664  297 001B1D44 ??_7EReminder@@6B@
        665  298 001B1E64 ??_7EScroll@@6B@
        666  299 001B1DA4 ??_7ESecretFound@@6B@
        667  29A 001A6870 ??_7ESetViewer@@6B@
        668  29B 0019A9B4 ??_7EShowConsole@@6B@
        669  29C 001B1E54 ??_7ESound@@6B@
        670  29D 001B0D54 ??_7ESpawnSpray@@6B@
        671  29E 001B1DE4 ??_7EStart@@6B@
        672  29F 001B1D54 ??_7EStartAttack@@6B@
        673  2A0 001A9A44 ??_7EStartEffect@@6B@
        674  2A1 001B3298 ??_7EStartSounds@@6B@
        675  2A2 001B1CF4 ??_7EStop@@6B@
        676  2A3 001B1D64 ??_7EStopAttack@@6B@
        677  2A4 001B1D74 ??_7EStopBlindness@@6B@
        678  2A5 001B1D84 ??_7EStopDeafness@@6B@
        679  2A6 001A9A34 ??_7EStopEffect@@6B@
        680  2A7 001B32A8 ??_7EStopSounds@@6B@
        681  2A8 0019A9D4 ??_7ESubtitleEvent@@6B@
        682  2A9 001B1D34 ??_7ETeleportMovingBrush@@6B@
        683  2AA 001B1E74 ??_7ETextFX@@6B@
        684  2AB 001B1E14 ??_7ETrigger@@6B@
        685  2AC 001B1DC4 ??_7EVoiceMessage@@6B@
        686  2AD 0019A02C ??_7EnterVehicleEvent@@6B@
        687  2AE 0019A03C ??_7LeaveVehicleEvent@@6B@
        688  2AF 0019A18C ??_7ProxyBash@@6B@
        689  2B0 0019A30C ??_7ProxyBombConfigured@@6B@
        690  2B1 0019A13C ??_7ProxyBurstFire@@6B@
        691  2B2 0019A14C ??_7ProxyCeaseFire@@6B@
        692  2B3 0019A2FC ??_7ProxyConfigureBomb@@6B@
        693  2B4 0019A29C ??_7ProxyDeath@@6B@
        694  2B5 0019A1DC ??_7ProxyDiscoverBody@@6B@
        695  2B6 0019A2AC ??_7ProxyDoIdleSpice@@6B@
        696  2B7 0019A26C ??_7ProxyFall@@6B@
        697  2B8 0019A12C ??_7ProxyFire@@6B@
        698  2B9 0019A1CC ??_7ProxyFlee@@6B@
        699  2BA 0019A21C ??_7ProxyFling@@6B@
        700  2BB 0019A22C ??_7ProxyGetUp@@6B@
        701  2BC 0019A1FC ??_7ProxyHop@@6B@
        702  2BD 0019A1EC ??_7ProxyJump@@6B@
        703  2BE 0019A1BC ??_7ProxyLookAround@@6B@
        704  2BF 0019A0CC ??_7ProxyNewWeapon@@6B@
        705  2C0 0019A0AC ??_7ProxyPowerupInRange@@6B@
        706  2C1 0019A04C ??_7ProxyPunchThrown@@6B@
        707  2C2 0019A2EC ??_7ProxyReachForBomb@@6B@
        708  2C3 0019A16C ??_7ProxyReleaseGrenade@@6B@
        709  2C4 0019A05C ??_7ProxyReload@@6B@
        710  2C5 0019A08C ??_7ProxyReplenishHealth@@6B@
        711  2C6 0019A06C ??_7ProxyReplenishPossible@@6B@
        712  2C7 0019A07C ??_7ProxyReplenishRequest@@6B@
        713  2C8 0019A09C ??_7ProxyReplenishWeapon@@6B@
        714  2C9 0019A0BC ??_7ProxyReplenishWeaponInSlot@@6B@
        715  2CA 0019A17C ??_7ProxyResetFireAnimation@@6B@
        716  2CB 0019A23C ??_7ProxyResetFling@@6B@
        717  2CC 0019A20C ??_7ProxyRoll@@6B@
        718  2CD 0019A19C ??_7ProxySelectWeapon@@6B@
        719  2CE 0019A1AC ??_7ProxySetNewWeapon@@6B@
        720  2CF 0019A25C ??_7ProxySetStance@@6B@
        721  2D0 0019A28C ??_7ProxyStop@@6B@
        722  2D1 0019A2BC ??_7ProxyStopIdleSpice@@6B@
        723  2D2 0019A11C ??_7ProxySyncWeaponAmmo@@6B@
        724  2D3 0019A15C ??_7ProxyThrowGrenade@@6B@
        725  2D4 0019A2DC ??_7ProxyTimedBombInRange@@6B@
        726  2D5 0019A27C ??_7ProxyTouchDown@@6B@
        727  2D6 0019A10C ??_7ProxyWeaponChangeComplete@@6B@
        728  2D7 0019A0DC ??_7ProxyWeaponToBack@@6B@
        729  2D8 0019A0FC ??_7ProxyWeaponToHand@@6B@
        730  2D9 0019A0EC ??_7ProxyWeaponToHip@@6B@
        731  2DA 0019A24C ??_7ProxyWounded@@6B@
        732  2DB 0019A31C ??_7RespawnEvent@@6B@
        733  2DC 0019A01C ??_7SyncDescriptorEvent@@6B@
        734  2DD 0019A00C ??_7SyncPositioningEvent@@6B@
        735  2DE 0019B258 ??_7TimedBombActive@@6B@
        736  2DF 0019B268 ??_7TimedBombDormant@@6B@
        737  2E0 0019B278 ??_7TimedBombToActive@@6B@
        738  2E1 0019B288 ??_7TimedBombToDormant@@6B@
        739  2E2 00199FFC ??_7TriggerGameEntity@@6B@
        740  2E3 001B5484 ??_7WorldLinkEvent@@6B@
        741  2E4 0020F248 ?ABZGrenadeType_enum@@3VCEntityPropertyEnumType@@A
        742  2E5 0020F238 ?ABZGrenadeType_values@@3PAVCEntityPropertyEnumValue@@A
        743  2E6 0020F928 ?ABZSideArmType_enum@@3VCEntityPropertyEnumType@@A
        744  2E7 0020F910 ?ABZSideArmType_values@@3PAVCEntityPropertyEnumValue@@A
        745  2E8 0020EBB0 ?ABZWeaponType_enum@@3VCEntityPropertyEnumType@@A
        746  2E9 0020EB00 ?ABZWeaponType_values@@3PAVCEntityPropertyEnumValue@@A
        747  2EA 000D9DC0 ?Active@CTeleTypeEntity@@QAEHABVCEntityEvent@@@Z
        748  2EB 00091180 ?AddAttachmentToModel@@YAXPAVCEntity@@AAVCModelObject@@JKKKKK@Z
        749  2EC 000BDCC0 ?AddEventToList@CCutSceneEntity@@QAE_NABUCSequenceEvent@@@Z
        750  2ED 00103180 ?AddMissionObjectiveManager@CWorldState@@QAEXVCEntityPointer@@@Z
        751  2EE 00104700 ?AddObjective@CMissionObjectiveManagerEntity@@QAE_NABVCEntityPointer@@W4MissionObjectiveType@@@Z
        752  2EF 00104780 ?AddObjectiveAtIndex@CMissionObjectiveManagerEntity@@QAE_NHABVCEntityPointer@@W4MissionObjectiveType@@@Z
        753  2F0 0015CD10 ?AddPersistentMarine@CWorldState@@QAEXPAVCGameBot@@@Z
        754  2F1 0015AF40 ?AddStatusMessage@CWorldState@@QAEXVCStatusMessage@@@Z
        755  2F2 000531F0 ?AddToTargetList@CPathBuilder@@AAEXV?$Vector@M$02@@@Z
        756  2F3 000AAB10 ?AdjustShadingParameters@CActor@@UAEHAAV?$Vector@M$02@@AAK1@Z
        757  2F4 0020EC20 ?AlignmentType_enum@@3VCEntityPropertyEnumType@@A
        758  2F5 0020EC08 ?AlignmentType_values@@3PAVCEntityPropertyEnumValue@@A
        759  2F6 001331E0 ?AngleBetweenNormVectors@@YAMV?$Vector@M$02@@0@Z
        760  2F7 00133710 ?AngleBetweenNormVectors@@YAMV?$Vector@M$02@@0JJJ@Z
        761  2F8 001337F0 ?AngleBetweenVectors@@YAMV?$Vector@M$02@@0@Z
        762  2F9 00133780 ?AngleBetweenVectors@@YAMV?$Vector@M$02@@0JJJ@Z
        763  2FA 0010DD50 ?ApplyAction@CPlayer@@QAEXABVCPlayerAction@@@Z
        764  2FB 0010DFF0 ?ApplyAction@CPlayer@@UAEXABVCPlayerAction@@M@Z
        765  2FC 00118BA0 ?ApplyAction@CSpectatorView@@QAEXABVCPlayerAction@@@Z
        766  2FD 0010ACC0 ?ApplyAnalogueActions@CPlayer@@QAEXABVCPlayerAction@@@Z
        767  2FE 0010B000 ?ApplyButtonActions@CPlayer@@QAEXABVCPlayerAction@@@Z
        768  2FF 001090C0 ?ApplyCommandActions@CPlayer@@QAEXABVCPlayerAction@@@Z
        769  300 001067F0 ?ApplySniperZoom@CPlayer@@QAEXH@Z
        770  301 002168B0 ?BlockAction_enum@@3VCEntityPropertyEnumType@@A
        771  302 00216898 ?BlockAction_values@@3PAVCEntityPropertyEnumValue@@A
        772  303 00213BC8 ?BlurStrengthType_enum@@3VCEntityPropertyEnumType@@A
        773  304 00213B98 ?BlurStrengthType_values@@3PAVCEntityPropertyEnumValue@@A
        774  305 00215D50 ?BoolEType_enum@@3VCEntityPropertyEnumType@@A
        775  306 00215D38 ?BoolEType_values@@3PAVCEntityPropertyEnumValue@@A
        776  307 00212BB4 ?BotEventsType_enum@@3VCEntityPropertyEnumType@@A
        777  308 00212B84 ?BotEventsType_values@@3PAVCEntityPropertyEnumValue@@A
        778  309 002131B0 ?BotSpawnerType_enum@@3VCEntityPropertyEnumType@@A
        779  30A 002131A0 ?BotSpawnerType_values@@3PAVCEntityPropertyEnumValue@@A
        780  30B 00158D80 ?BroadcastMessage@CWorldState@@QAEXPAVCBotMessage@@@Z
        781  30C 00053240 ?BuildLocationList@CPathBuilder@@QAE_NH@Z
        782  30D 00215F50 ?BulletHitType_enum@@3VCEntityPropertyEnumType@@A
        783  30E 00215EF8 ?BulletHitType_values@@3PAVCEntityPropertyEnumValue@@A
        784  30F 001095F0 ?CanConfigureTimedBomb@CPlayer@@QAE_NXZ
        785  310 00158EA0 ?CanQuickLoad@CWorldState@@QAE_NXZ
        786  311 0015B0F0 ?CanQuickSave@CWorldState@@QAE_NXZ
        787  312 00215CF8 ?CauseOfDeath_enum@@3VCEntityPropertyEnumType@@A
        788  313 00215CD0 ?CauseOfDeath_values@@3PAVCEntityPropertyEnumValue@@A
        789  314 00109BA0 ?CheatsEnabled@CPlayer@@QAEHXZ
        790  315 00105800 ?CheckIDs@ABZSwitchMarine@@UAEHXZ
        791  316 000AA170 ?CheckIDs@CActorActivate@@UAEHXZ
        792  317 000AA1B0 ?CheckIDs@CActorDeactivate@@UAEHXZ
        793  318 0005A2C0 ?CheckIDs@DamageEvent@@UAEHXZ
        794  319 000E7E40 ?CheckIDs@EActivate@@UAEHXZ
        795  31A 000C52D0 ?CheckIDs@EActivateFullScreenEffects@@UAEHXZ
        796  31B 000D8120 ?CheckIDs@EActivateSpaceDebree@@UAEHXZ
        797  31C 000AA130 ?CheckIDs@EAnimTriggerAndConfigure@@UAEHXZ
        798  31D 000F1D00 ?CheckIDs@EBrushDeath@@UAEHXZ
        799  31E 000F1B60 ?CheckIDs@EBrushDestroyed@@UAEHXZ
        800  31F 00105270 ?CheckIDs@ECameraStart@@UAEHXZ
        801  320 001052F0 ?CheckIDs@ECameraStop@@UAEHXZ
        802  321 000E8260 ?CheckIDs@ECenterMessage@@UAEHXZ
        803  322 000E0110 ?CheckIDs@EChangeAnim@@UAEHXZ
        804  323 000F6520 ?CheckIDs@EChangeMusic@@UAEHXZ
        805  324 000E8140 ?CheckIDs@ECloseDoor@@UAEHXZ
        806  325 000E82F0 ?CheckIDs@EComputerMessage@@UAEHXZ
        807  326 000E8240 ?CheckIDs@ECredits@@UAEHXZ
        808  327 000B8D50 ?CheckIDs@ECutscene@@UAEHXZ
        809  328 000E7E60 ?CheckIDs@EDeactivate@@UAEHXZ
        810  329 000CBC00 ?CheckIDs@EDeactivateEffect@@UAEHXZ
        811  32A 000C5330 ?CheckIDs@EDeactivateFullScreenEffects@@UAEHXZ
        812  32B 001054D0 ?CheckIDs@EDisconnected@@UAEHXZ
        813  32C 000E7F20 ?CheckIDs@EEnd@@UAEHXZ
        814  32D 000E7EA0 ?CheckIDs@EEnvironmentStart@@UAEHXZ
        815  32E 000E7EE0 ?CheckIDs@EEnvironmentStop@@UAEHXZ
        816  32F 000BF980 ?CheckIDs@EExplosion@@UAEHXZ
        817  330 000F1B00 ?CheckIDs@EHit@@UAEHXZ
        818  331 000E83C0 ?CheckIDs@EHitBySpaceShipBeam@@UAEHXZ
        819  332 000E8220 ?CheckIDs@EHudPicFX@@UAEHXZ
        820  333 000AB430 ?CheckIDs@EInitBeacon@@UAEHXZ
        821  334 000C5270 ?CheckIDs@EInitializeFullScreenEffects@@UAEHXZ
        822  335 001051F0 ?CheckIDs@EInitializePlayer@@UAEHXZ
        823  336 000D4580 ?CheckIDs@EInitializeShadowRenderer@@UAEHXZ
        824  337 000E8160 ?CheckIDs@EKilledEnemy@@UAEHXZ
        825  338 000C6360 ?CheckIDs@ELaunchGrenade@@UAEHXZ
        826  339 00105940 ?CheckIDs@ELocalTeleTypeMessage@@UAEHXZ
        827  33A 000EDBE0 ?CheckIDs@EModel2Activate@@UAEHXZ
        828  33B 000EDC20 ?CheckIDs@EModel2Deactivate@@UAEHXZ
        829  33C 000EFC30 ?CheckIDs@EModel3Activate@@UAEHXZ
        830  33D 000EFC70 ?CheckIDs@EModel3Deactivate@@UAEHXZ
        831  33E 000EFCB0 ?CheckIDs@EModel3Initialize@@UAEHXZ
        832  33F 000ECC30 ?CheckIDs@EModelDeath@@UAEHXZ
        833  340 000F5CF0 ?CheckIDs@EMusicChangerTrigger@@UAEHXZ
        834  341 00105470 ?CheckIDs@ENSShepperdEvent@@UAEHXZ
        835  342 00105410 ?CheckIDs@ENSVoiceMessage@@UAEHXZ
        836  343 000F6570 ?CheckIDs@ENetChangeMusic@@UAEHXZ
        837  344 000F83D0 ?CheckIDs@ENetStartSound@@UAEHXZ
        838  345 000F8410 ?CheckIDs@ENetStopSound@@UAEHXZ
        839  346 001059B0 ?CheckIDs@ENetworkTeleTypeMessage@@UAEHXZ
        840  347 000E8120 ?CheckIDs@EOpenDoor@@UAEHXZ
        841  348 000F8390 ?CheckIDs@EPlaySoundOnce@@UAEHXZ
        842  349 00105550 ?CheckIDs@EPlayerDeath@@UAEHXZ
        843  34A 001053B0 ?CheckIDs@EPlayerRebirth@@UAEHXZ
        844  34B 00105620 ?CheckIDs@EPlayerStats@@UAEHXZ
        845  34C 000ECBF0 ?CheckIDs@ERangeModelDestruction@@UAEHXZ
        846  34D 00105350 ?CheckIDs@ERebirth@@UAEHXZ
        847  34E 000E8100 ?CheckIDs@EReceiveScore@@UAEHXZ
        848  34F 000E7FC0 ?CheckIDs@EReminder@@UAEHXZ
        849  350 000E81E0 ?CheckIDs@EScroll@@UAEHXZ
        850  351 000E81A0 ?CheckIDs@ESecretFound@@UAEHXZ
        851  352 000E1520 ?CheckIDs@ESetViewer@@UAEHXZ
        852  353 001055B0 ?CheckIDs@EShowConsole@@UAEHXZ
        853  354 000E81C0 ?CheckIDs@ESound@@UAEHXZ
        854  355 000E1C20 ?CheckIDs@ESpawnSpray@@UAEHXZ
        855  356 000E7E20 ?CheckIDs@EStart@@UAEHXZ
        856  357 000E8000 ?CheckIDs@EStartAttack@@UAEHXZ
        857  358 000CBBA0 ?CheckIDs@EStartEffect@@UAEHXZ
        858  359 000F1BC0 ?CheckIDs@EStartSounds@@UAEHXZ
        859  35A 000E7E00 ?CheckIDs@EStop@@UAEHXZ
        860  35B 000E8040 ?CheckIDs@EStopAttack@@UAEHXZ
        861  35C 000E8080 ?CheckIDs@EStopBlindness@@UAEHXZ
        862  35D 000E80C0 ?CheckIDs@EStopDeafness@@UAEHXZ
        863  35E 000CBB40 ?CheckIDs@EStopEffect@@UAEHXZ
        864  35F 000F1C20 ?CheckIDs@EStopSounds@@UAEHXZ
        865  360 00105710 ?CheckIDs@ESubtitleEvent@@UAEHXZ
        866  361 000E7F80 ?CheckIDs@ETeleportMovingBrush@@UAEHXZ
        867  362 000E8200 ?CheckIDs@ETextFX@@UAEHXZ
        868  363 000E7F40 ?CheckIDs@ETrigger@@UAEHXZ
        869  364 000E8380 ?CheckIDs@EVoiceMessage@@UAEHXZ
        870  365 00058F90 ?CheckIDs@EnterVehicleEvent@@UAEHXZ
        871  366 00058FF0 ?CheckIDs@LeaveVehicleEvent@@UAEHXZ
        872  367 00059BB0 ?CheckIDs@ProxyBash@@UAEHXZ
        873  368 0005A540 ?CheckIDs@ProxyBombConfigured@@UAEHXZ
        874  369 000599D0 ?CheckIDs@ProxyBurstFire@@UAEHXZ
        875  36A 00059A30 ?CheckIDs@ProxyCeaseFire@@UAEHXZ
        876  36B 0005A4E0 ?CheckIDs@ProxyConfigureBomb@@UAEHXZ
        877  36C 0005A180 ?CheckIDs@ProxyDeath@@UAEHXZ
        878  36D 00059DA0 ?CheckIDs@ProxyDiscoverBody@@UAEHXZ
        879  36E 0005A1E0 ?CheckIDs@ProxyDoIdleSpice@@UAEHXZ
        880  36F 0005A080 ?CheckIDs@ProxyFall@@UAEHXZ
        881  370 00059990 ?CheckIDs@ProxyFire@@UAEHXZ
        882  371 00059D40 ?CheckIDs@ProxyFlee@@UAEHXZ
        883  372 00059EA0 ?CheckIDs@ProxyFling@@UAEHXZ
        884  373 00059F00 ?CheckIDs@ProxyGetUp@@UAEHXZ
        885  374 00059E20 ?CheckIDs@ProxyHop@@UAEHXZ
        886  375 00059DE0 ?CheckIDs@ProxyJump@@UAEHXZ
        887  376 00059CE0 ?CheckIDs@ProxyLookAround@@UAEHXZ
        888  377 00059740 ?CheckIDs@ProxyNewWeapon@@UAEHXZ
        889  378 00059550 ?CheckIDs@ProxyPowerupInRange@@UAEHXZ
        890  379 00059050 ?CheckIDs@ProxyPunchThrown@@UAEHXZ
        891  37A 0005A480 ?CheckIDs@ProxyReachForBomb@@UAEHXZ
        892  37B 00059AF0 ?CheckIDs@ProxyReleaseGrenade@@UAEHXZ
        893  37C 000590B0 ?CheckIDs@ProxyReload@@UAEHXZ
        894  37D 00059370 ?CheckIDs@ProxyReplenishHealth@@UAEHXZ
        895  37E 000591A0 ?CheckIDs@ProxyReplenishPossible@@UAEHXZ
        896  37F 00059280 ?CheckIDs@ProxyReplenishRequest@@UAEHXZ
        897  380 00059460 ?CheckIDs@ProxyReplenishWeapon@@UAEHXZ
        898  381 00059640 ?CheckIDs@ProxyReplenishWeaponInSlot@@UAEHXZ
        899  382 00059B50 ?CheckIDs@ProxyResetFireAnimation@@UAEHXZ
        900  383 00059F60 ?CheckIDs@ProxyResetFling@@UAEHXZ
        901  384 00059E60 ?CheckIDs@ProxyRoll@@UAEHXZ
        902  385 00059C10 ?CheckIDs@ProxySelectWeapon@@UAEHXZ
        903  386 00059C80 ?CheckIDs@ProxySetNewWeapon@@UAEHXZ
        904  387 0005A020 ?CheckIDs@ProxySetStance@@UAEHXZ
        905  388 0005A140 ?CheckIDs@ProxyStop@@UAEHXZ
        906  389 0005A240 ?CheckIDs@ProxyStopIdleSpice@@UAEHXZ
        907  38A 00059950 ?CheckIDs@ProxySyncWeaponAmmo@@UAEHXZ
        908  38B 00059A90 ?CheckIDs@ProxyThrowGrenade@@UAEHXZ
        909  38C 0005A3A0 ?CheckIDs@ProxyTimedBombInRange@@UAEHXZ
        910  38D 0005A0E0 ?CheckIDs@ProxyTouchDown@@UAEHXZ
        911  38E 000598E0 ?CheckIDs@ProxyWeaponChangeComplete@@UAEHXZ
        912  38F 000597C0 ?CheckIDs@ProxyWeaponToBack@@UAEHXZ
        913  390 00059880 ?CheckIDs@ProxyWeaponToHand@@UAEHXZ
        914  391 00059820 ?CheckIDs@ProxyWeaponToHip@@UAEHXZ
        915  392 00059FC0 ?CheckIDs@ProxyWounded@@UAEHXZ
        916  393 0005A580 ?CheckIDs@RespawnEvent@@UAEHXZ
        917  394 00058F30 ?CheckIDs@SyncDescriptorEvent@@UAEHXZ
        918  395 00058ED0 ?CheckIDs@SyncPositioningEvent@@UAEHXZ
        919  396 000DC350 ?CheckIDs@TimedBombActive@@UAEHXZ
        920  397 000DC3D0 ?CheckIDs@TimedBombDormant@@UAEHXZ
        921  398 000DC2F0 ?CheckIDs@TimedBombToActive@@UAEHXZ
        922  399 000DC370 ?CheckIDs@TimedBombToDormant@@UAEHXZ
        923  39A 00058E90 ?CheckIDs@TriggerGameEntity@@UAEHXZ
        924  39B 001015F0 ?CheckIDs@WorldLinkEvent@@UAEHXZ
        925  39C 00109CC0 ?CheckMarineAvailable@CPlayer@@QAEXXZ
        926  39D 002161C0 ?ClasificationBits_enum@@3VCEntityPropertyEnumType@@A
        927  39E 00216140 ?ClasificationBits_values@@3PAVCEntityPropertyEnumValue@@A
        928  39F 00090E00 ?Clear@CCompMessageID@@QAEXXZ
        929  3A0 00106020 ?ClearActionApplied@CPlayer@@UAEXXZ
        930  3A1 00106050 ?ClearReapplyingActions@CPlayer@@UAEXXZ
        931  3A2 0000E5A0 ?ClearToDefault@@YAXAAVABZSwitchMarine@@@Z
        932  3A3 000AA750 ?ClearToDefault@@YAXAAVCActorActivate@@@Z
        933  3A4 000AA810 ?ClearToDefault@@YAXAAVCActorDeactivate@@@Z
        934  3A5 00004410 ?ClearToDefault@@YAXAAVDamageEvent@@@Z
        935  3A6 00131970 ?ClearToDefault@@YAXAAVEActivate@@@Z
        936  3A7 000C5920 ?ClearToDefault@@YAXAAVEActivateFullScreenEffects@@@Z
        937  3A8 000D8A30 ?ClearToDefault@@YAXAAVEActivateSpaceDebree@@@Z
        938  3A9 000AA660 ?ClearToDefault@@YAXAAVEAnimTriggerAndConfigure@@@Z
        939  3AA 000F2AB0 ?ClearToDefault@@YAXAAVEBrushDeath@@@Z
        940  3AB 000F29F0 ?ClearToDefault@@YAXAAVEBrushDestroyed@@@Z
        941  3AC 0000FA00 ?ClearToDefault@@YAXAAVECameraStart@@@Z
        942  3AD 0000FBF0 ?ClearToDefault@@YAXAAVECameraStop@@@Z
        943  3AE 00132920 ?ClearToDefault@@YAXAAVECenterMessage@@@Z
        944  3AF 00001190 ?ClearToDefault@@YAXAAVEChangeAnim@@@Z
        945  3B0 00090C40 ?ClearToDefault@@YAXAAVEChangeMusic@@@Z
        946  3B1 00132190 ?ClearToDefault@@YAXAAVECloseDoor@@@Z
        947  3B2 00132A00 ?ClearToDefault@@YAXAAVEComputerMessage@@@Z
        948  3B3 00132840 ?ClearToDefault@@YAXAAVECredits@@@Z
        949  3B4 000B9E40 ?ClearToDefault@@YAXAAVECutscene@@@Z
        950  3B5 00131A50 ?ClearToDefault@@YAXAAVEDeactivate@@@Z
        951  3B6 000B3D40 ?ClearToDefault@@YAXAAVEDeactivateEffect@@@Z
        952  3B7 000C5960 ?ClearToDefault@@YAXAAVEDeactivateFullScreenEffects@@@Z
        953  3B8 0000DD80 ?ClearToDefault@@YAXAAVEDisconnected@@@Z
        954  3B9 00131C00 ?ClearToDefault@@YAXAAVEEnd@@@Z
        955  3BA 00131B20 ?ClearToDefault@@YAXAAVEEnvironmentStart@@@Z
        956  3BB 00131B90 ?ClearToDefault@@YAXAAVEEnvironmentStop@@@Z
        957  3BC 000BFC70 ?ClearToDefault@@YAXAAVEExplosion@@@Z
        958  3BD 000F29B0 ?ClearToDefault@@YAXAAVEHit@@@Z
        959  3BE 00132B90 ?ClearToDefault@@YAXAAVEHitBySpaceShipBeam@@@Z
        960  3BF 00132750 ?ClearToDefault@@YAXAAVEHudPicFX@@@Z
        961  3C0 000AB8B0 ?ClearToDefault@@YAXAAVEInitBeacon@@@Z
        962  3C1 000C58E0 ?ClearToDefault@@YAXAAVEInitializeFullScreenEffects@@@Z
        963  3C2 0000D810 ?ClearToDefault@@YAXAAVEInitializePlayer@@@Z
        964  3C3 000D48B0 ?ClearToDefault@@YAXAAVEInitializeShadowRenderer@@@Z
        965  3C4 00132280 ?ClearToDefault@@YAXAAVEKilledEnemy@@@Z
        966  3C5 00065330 ?ClearToDefault@@YAXAAVELaunchGrenade@@@Z
        967  3C6 0000E840 ?ClearToDefault@@YAXAAVELocalTeleTypeMessage@@@Z
        968  3C7 00001250 ?ClearToDefault@@YAXAAVEModel2Activate@@@Z
        969  3C8 000012D0 ?ClearToDefault@@YAXAAVEModel2Deactivate@@@Z
        970  3C9 000015F0 ?ClearToDefault@@YAXAAVEModel3Activate@@@Z
        971  3CA 00001670 ?ClearToDefault@@YAXAAVEModel3Deactivate@@@Z
        972  3CB 000016F0 ?ClearToDefault@@YAXAAVEModel3Initialize@@@Z
        973  3CC 00001570 ?ClearToDefault@@YAXAAVEModelDeath@@@Z
        974  3CD 000F6260 ?ClearToDefault@@YAXAAVEMusicChangerTrigger@@@Z
        975  3CE 0000DC70 ?ClearToDefault@@YAXAAVENSShepperdEvent@@@Z
        976  3CF 0000DB50 ?ClearToDefault@@YAXAAVENSVoiceMessage@@@Z
        977  3D0 00090DC0 ?ClearToDefault@@YAXAAVENetChangeMusic@@@Z
        978  3D1 000013F0 ?ClearToDefault@@YAXAAVENetStartSound@@@Z
        979  3D2 00001470 ?ClearToDefault@@YAXAAVENetStopSound@@@Z
        980  3D3 0000E990 ?ClearToDefault@@YAXAAVENetworkTeleTypeMessage@@@Z
        981  3D4 001320B0 ?ClearToDefault@@YAXAAVEOpenDoor@@@Z
        982  3D5 00001370 ?ClearToDefault@@YAXAAVEPlaySoundOnce@@@Z
        983  3D6 0000DF90 ?ClearToDefault@@YAXAAVEPlayerDeath@@@Z
        984  3D7 0000DA30 ?ClearToDefault@@YAXAAVEPlayerRebirth@@@Z
        985  3D8 0000E200 ?ClearToDefault@@YAXAAVEPlayerStats@@@Z
        986  3D9 000014F0 ?ClearToDefault@@YAXAAVERangeModelDestruction@@@Z
        987  3DA 0000D920 ?ClearToDefault@@YAXAAVERebirth@@@Z
        988  3DB 00132020 ?ClearToDefault@@YAXAAVEReceiveScore@@@Z
        989  3DC 00131DE0 ?ClearToDefault@@YAXAAVEReminder@@@Z
        990  3DD 00132570 ?ClearToDefault@@YAXAAVEScroll@@@Z
        991  3DE 00132360 ?ClearToDefault@@YAXAAVESecretFound@@@Z
        992  3DF 00090A80 ?ClearToDefault@@YAXAAVESetViewer@@@Z
        993  3E0 0000E0D0 ?ClearToDefault@@YAXAAVEShowConsole@@@Z
        994  3E1 00132480 ?ClearToDefault@@YAXAAVESound@@@Z
        995  3E2 000E1FF0 ?ClearToDefault@@YAXAAVESpawnSpray@@@Z
        996  3E3 00131890 ?ClearToDefault@@YAXAAVEStart@@@Z
        997  3E4 00131E60 ?ClearToDefault@@YAXAAVEStartAttack@@@Z
        998  3E5 000B3CC0 ?ClearToDefault@@YAXAAVEStartEffect@@@Z
        999  3E6 000F2A30 ?ClearToDefault@@YAXAAVEStartSounds@@@Z
       1000  3E7 00131810 ?ClearToDefault@@YAXAAVEStop@@@Z
       1001  3E8 00131ED0 ?ClearToDefault@@YAXAAVEStopAttack@@@Z
       1002  3E9 00131F40 ?ClearToDefault@@YAXAAVEStopBlindness@@@Z
       1003  3EA 00131FB0 ?ClearToDefault@@YAXAAVEStopDeafness@@@Z
       1004  3EB 000B3C40 ?ClearToDefault@@YAXAAVEStopEffect@@@Z
       1005  3EC 000F2A70 ?ClearToDefault@@YAXAAVEStopSounds@@@Z
       1006  3ED 0000E3B0 ?ClearToDefault@@YAXAAVESubtitleEvent@@@Z
       1007  3EE 00131D70 ?ClearToDefault@@YAXAAVETeleportMovingBrush@@@Z
       1008  3EF 00132660 ?ClearToDefault@@YAXAAVETextFX@@@Z
       1009  3F0 00131CA0 ?ClearToDefault@@YAXAAVETrigger@@@Z
       1010  3F1 00132AD0 ?ClearToDefault@@YAXAAVEVoiceMessage@@@Z
       1011  3F2 00001AB0 ?ClearToDefault@@YAXAAVEnterVehicleEvent@@@Z
       1012  3F3 00001B40 ?ClearToDefault@@YAXAAVLeaveVehicleEvent@@@Z
       1013  3F4 00002DC0 ?ClearToDefault@@YAXAAVProxyBash@@@Z
       1014  3F5 00004A10 ?ClearToDefault@@YAXAAVProxyBombConfigured@@@Z
       1015  3F6 00002B20 ?ClearToDefault@@YAXAAVProxyBurstFire@@@Z
       1016  3F7 00002BC0 ?ClearToDefault@@YAXAAVProxyCeaseFire@@@Z
       1017  3F8 00004910 ?ClearToDefault@@YAXAAVProxyConfigureBomb@@@Z
       1018  3F9 00003FF0 ?ClearToDefault@@YAXAAVProxyDeath@@@Z
       1019  3FA 00003200 ?ClearToDefault@@YAXAAVProxyDiscoverBody@@@Z
       1020  3FB 00004110 ?ClearToDefault@@YAXAAVProxyDoIdleSpice@@@Z
       1021  3FC 00003CA0 ?ClearToDefault@@YAXAAVProxyFall@@@Z
       1022  3FD 00002A40 ?ClearToDefault@@YAXAAVProxyFire@@@Z
       1023  3FE 000030E0 ?ClearToDefault@@YAXAAVProxyFlee@@@Z
       1024  3FF 00003730 ?ClearToDefault@@YAXAAVProxyFling@@@Z
       1025  400 00003850 ?ClearToDefault@@YAXAAVProxyGetUp@@@Z
       1026  401 00003490 ?ClearToDefault@@YAXAAVProxyHop@@@Z
       1027  402 00003340 ?ClearToDefault@@YAXAAVProxyJump@@@Z
       1028  403 00002FA0 ?ClearToDefault@@YAXAAVProxyLookAround@@@Z
       1029  404 00002670 ?ClearToDefault@@YAXAAVProxyNewWeapon@@@Z
       1030  405 00002310 ?ClearToDefault@@YAXAAVProxyPowerupInRange@@@Z
       1031  406 00001BC0 ?ClearToDefault@@YAXAAVProxyPunchThrown@@@Z
       1032  407 000047C0 ?ClearToDefault@@YAXAAVProxyReachForBomb@@@Z
       1033  408 00002CC0 ?ClearToDefault@@YAXAAVProxyReleaseGrenade@@@Z
       1034  409 00001C40 ?ClearToDefault@@YAXAAVProxyReload@@@Z
       1035  40A 00002020 ?ClearToDefault@@YAXAAVProxyReplenishHealth@@@Z
       1036  40B 00001D50 ?ClearToDefault@@YAXAAVProxyReplenishPossible@@@Z
       1037  40C 00001EC0 ?ClearToDefault@@YAXAAVProxyReplenishRequest@@@Z
       1038  40D 000021A0 ?ClearToDefault@@YAXAAVProxyReplenishWeapon@@@Z
       1039  40E 000024A0 ?ClearToDefault@@YAXAAVProxyReplenishWeaponInSlot@@@Z
       1040  40F 00002D40 ?ClearToDefault@@YAXAAVProxyResetFireAnimation@@@Z
       1041  410 00003950 ?ClearToDefault@@YAXAAVProxyResetFling@@@Z
       1042  411 000035E0 ?ClearToDefault@@YAXAAVProxyRoll@@@Z
       1043  412 00002E50 ?ClearToDefault@@YAXAAVProxySelectWeapon@@@Z
       1044  413 00002F00 ?ClearToDefault@@YAXAAVProxySetNewWeapon@@@Z
       1045  414 00003B80 ?ClearToDefault@@YAXAAVProxySetStance@@@Z
       1046  415 00003EB0 ?ClearToDefault@@YAXAAVProxyStop@@@Z
       1047  416 00004210 ?ClearToDefault@@YAXAAVProxyStopIdleSpice@@@Z
       1048  417 00002970 ?ClearToDefault@@YAXAAVProxySyncWeaponAmmo@@@Z
       1049  418 00002C40 ?ClearToDefault@@YAXAAVProxyThrowGrenade@@@Z
       1050  419 000045E0 ?ClearToDefault@@YAXAAVProxyTimedBombInRange@@@Z
       1051  41A 00003DB0 ?ClearToDefault@@YAXAAVProxyTouchDown@@@Z
       1052  41B 000028D0 ?ClearToDefault@@YAXAAVProxyWeaponChangeComplete@@@Z
       1053  41C 00002750 ?ClearToDefault@@YAXAAVProxyWeaponToBack@@@Z
       1054  41D 00002850 ?ClearToDefault@@YAXAAVProxyWeaponToHand@@@Z
       1055  41E 000027D0 ?ClearToDefault@@YAXAAVProxyWeaponToHip@@@Z
       1056  41F 00003A60 ?ClearToDefault@@YAXAAVProxyWounded@@@Z
       1057  420 00004B40 ?ClearToDefault@@YAXAAVRespawnEvent@@@Z
       1058  421 00001A10 ?ClearToDefault@@YAXAAVSyncDescriptorEvent@@@Z
       1059  422 00001970 ?ClearToDefault@@YAXAAVSyncPositioningEvent@@@Z
       1060  423 00017EB0 ?ClearToDefault@@YAXAAVTimedBombActive@@@Z
       1061  424 00017F30 ?ClearToDefault@@YAXAAVTimedBombDormant@@@Z
       1062  425 00018120 ?ClearToDefault@@YAXAAVTimedBombToActive@@@Z
       1063  426 00018390 ?ClearToDefault@@YAXAAVTimedBombToDormant@@@Z
       1064  427 00001810 ?ClearToDefault@@YAXAAVTriggerGameEntity@@@Z
       1065  428 00101830 ?ClearToDefault@@YAXAAVWorldLinkEvent@@@Z
       1066  429 00064E30 ?ClearToDefault@@YAXAAW4ABZGrenadeType@@@Z
       1067  42A 00063F10 ?ClearToDefault@@YAXAAW4ABZSideArmType@@@Z
       1068  42B 00001740 ?ClearToDefault@@YAXAAW4ABZWeaponType@@@Z
       1069  42C 00001770 ?ClearToDefault@@YAXAAW4AlignmentType@@@Z
       1070  42D 000F1A20 ?ClearToDefault@@YAXAAW4BlockAction@@@Z
       1071  42E 000C4EB0 ?ClearToDefault@@YAXAAW4BlurStrengthType@@@Z
       1072  42F 00132390 ?ClearToDefault@@YAXAAW4BoolEType@@@Z
       1073  430 00004B90 ?ClearToDefault@@YAXAAW4BotEventsType@@@Z
       1074  431 000B0C00 ?ClearToDefault@@YAXAAW4BotSpawnerType@@@Z
       1075  432 001323D0 ?ClearToDefault@@YAXAAW4BulletHitType@@@Z
       1076  433 000E8E40 ?ClearToDefault@@YAXAAW4CauseOfDeath@@@Z
       1077  434 00132400 ?ClearToDefault@@YAXAAW4ClasificationBits@@@Z
       1078  435 00017E50 ?ClearToDefault@@YAXAAW4ConfigurationState@@@Z
       1079  436 00001780 ?ClearToDefault@@YAXAAW4CoverType@@@Z
       1080  437 00001300 ?ClearToDefault@@YAXAAW4CustomShadingType@@@Z
       1081  438 000B8C80 ?ClearToDefault@@YAXAAW4CutSceneStateType@@@Z
       1082  439 000D6040 ?ClearToDefault@@YAXAAW4DebreeStates@@@Z
       1083  43A 000E5FB0 ?ClearToDefault@@YAXAAW4DoorType@@@Z
       1084  43B 001323E0 ?ClearToDefault@@YAXAAW4EffectParticlesType@@@Z
       1085  43C 001323B0 ?ClearToDefault@@YAXAAW4EntityInfoBodyType@@@Z
       1086  43D 000017B0 ?ClearToDefault@@YAXAAW4EntityRoleType@@@Z
       1087  43E 001323A0 ?ClearToDefault@@YAXAAW4EventEType@@@Z
       1088  43F 000BF670 ?ClearToDefault@@YAXAAW4ExplosionTypeEnum@@@Z
       1089  440 0002A610 ?ClearToDefault@@YAXAAW4ExplosionTypes@@@Z
       1090  441 000017A0 ?ClearToDefault@@YAXAAW4FiringRateType@@@Z
       1091  442 000E7760 ?ClearToDefault@@YAXAAW4FogAttenuationType@@@Z
       1092  443 000E7770 ?ClearToDefault@@YAXAAW4FogGraduationType2@@@Z
       1093  444 00065130 ?ClearToDefault@@YAXAAW4GrenadeStateEnum@@@Z
       1094  445 00065120 ?ClearToDefault@@YAXAAW4GrenadeTriggerEnum@@@Z
       1095  446 00065140 ?ClearToDefault@@YAXAAW4GrenadeTypeEnum@@@Z
       1096  447 000468D0 ?ClearToDefault@@YAXAAW4GroupBehaviorType@@@Z
       1097  448 000E8E50 ?ClearToDefault@@YAXAAW4KillType@@@Z
       1098  449 00001020 ?ClearToDefault@@YAXAAW4LensFlareType@@@Z
       1099  44A 00001010 ?ClearToDefault@@YAXAAW4LightType@@@Z
       1100  44B 00063F00 ?ClearToDefault@@YAXAAW4MarineFaceType@@@Z
       1101  44C 00001760 ?ClearToDefault@@YAXAAW4MentalConditionType@@@Z
       1102  44D 000E9010 ?ClearToDefault@@YAXAAW4MessageSound@@@Z
       1103  44E 00102C50 ?ClearToDefault@@YAXAAW4MissionObjectiveType@@@Z
       1104  44F 00001720 ?ClearToDefault@@YAXAAW4ModelSurfaceTypes@@@Z
       1105  450 00090AB0 ?ClearToDefault@@YAXAAW4MusicType@@@Z
       1106  451 000C4EC0 ?ClearToDefault@@YAXAAW4NoiseStrengthType@@@Z
       1107  452 00067BE0 ?ClearToDefault@@YAXAAW4PI7SideArmType@@@Z
       1108  453 000B3BE0 ?ClearToDefault@@YAXAAW4ParticleBlendTypes@@@Z
       1109  454 001323C0 ?ClearToDefault@@YAXAAW4ParticleTexture@@@Z
       1110  455 00067BD0 ?ClearToDefault@@YAXAAW4Pi7FaceType@@@Z
       1111  456 00001730 ?ClearToDefault@@YAXAAW4PickupType@@@Z
       1112  457 0000D720 ?ClearToDefault@@YAXAAW4PlayerState@@@Z
       1113  458 000C8CD0 ?ClearToDefault@@YAXAAW4ReplenishWeaponType@@@Z
       1114  459 000C8CC0 ?ClearToDefault@@YAXAAW4ReplenisherType@@@Z
       1115  45A 000A9B60 ?ClearToDefault@@YAXAAW4SequenceEventTypes@@@Z
       1116  45B 00001310 ?ClearToDefault@@YAXAAW4ShadowType@@@Z
       1117  45C 000E9020 ?ClearToDefault@@YAXAAW4SoundType@@@Z
       1118  45D 000E1D40 ?ClearToDefault@@YAXAAW4SprayParticlesType@@@Z
       1119  45E 00001790 ?ClearToDefault@@YAXAAW4TalkativityType@@@Z
       1120  45F 00017E40 ?ClearToDefault@@YAXAAW4TimedBombControllerEnum@@@Z
       1121  460 000DE070 ?ClearToDefault@@YAXAAW4TimedBombFieldType@@@Z
       1122  461 000DE080 ?ClearToDefault@@YAXAAW4TimedBombSignalState@@@Z
       1123  462 00017E30 ?ClearToDefault@@YAXAAW4TimedBombStateEnum@@@Z
       1124  463 000B3150 ?ClearToDefault@@YAXAAW4TouchFieldType@@@Z
       1125  464 000F1A30 ?ClearToDefault@@YAXAAW4TouchOrDamageEvent@@@Z
       1126  465 00001750 ?ClearToDefault@@YAXAAW4TrainingType@@@Z
       1127  466 00132410 ?ClearToDefault@@YAXAAW4VisibilityBits@@@Z
       1128  467 000EC6E0 ?ClearToDefault@@YAXAAW4WarpRotation@@@Z
       1129  468 0000EB40 ?ClearToDefault@@YAXAAW4WaypointType@@@Z
       1130  469 001323F0 ?ClearToDefault@@YAXAAW4WeaponBits@@@Z
       1131  46A 00101450 ?ClearToDefault@@YAXAAW4WorldLinkType@@@Z
       1132  46B 0000ECC0 ?ClearToDefault@@YAXAAW4coverpointType@@@Z
       1133  46C 0000EB30 ?ClearToDefault@@YAXAAW4triggerEffectType@@@Z
       1134  46D 00109BE0 ?ClipRotation@CPlayer@@QAEXW4PlayerState@@PAV?$Vector@M$02@@@Z
       1135  46E 0010FD50 ?ComposePlayerAction@@YAXPBVCWorld@@ABVCPlayerCharacter@@AAVCPlayerControls@@AAVCPlayerAction@@@Z
       1136  46F 00215088 ?ConfigurationState_enum@@3VCEntityPropertyEnumType@@A
       1137  470 00215068 ?ConfigurationState_values@@3PAVCEntityPropertyEnumValue@@A
       1138  471 000BDAE0 ?Copy@CCutSceneEntity@@UAEXAAVCEntity@@K@Z
       1139  472 0005A7F0 ?Copy@CGameEntity@@UAEXAAVCEntity@@K@Z
       1140  473 00104560 ?Copy@CMissionObjectiveManagerEntity@@UAEXAAVCEntity@@K@Z
       1141  474 001060A0 ?Copy@CPlayer@@UAEXAAVCEntity@@K@Z
       1142  475 0020EC68 ?CoverType_enum@@3VCEntityPropertyEnumType@@A
       1143  476 0020EC28 ?CoverType_values@@3PAVCEntityPropertyEnumValue@@A
       1144  477 0010ABC0 ?CreateRotationFromAction@CPlayer@@QAE?AV?$Vector@M$02@@ABVCPlayerAction@@@Z
       1145  478 00106070 ?CreateTranslationFromAction@CPlayer@@QAE?AV?$Vector@M$02@@ABVCPlayerAction@@@Z
       1146  479 002166B8 ?CustomShadingType_enum@@3VCEntityPropertyEnumType@@A
       1147  47A 00216690 ?CustomShadingType_values@@3PAVCEntityPropertyEnumValue@@A
       1148  47B 00213810 ?CutSceneStateType_enum@@3VCEntityPropertyEnumType@@A
       1149  47C 002137E8 ?CutSceneStateType_values@@3PAVCEntityPropertyEnumValue@@A
       1150  47D 000918E0 ?DamageStrength@@YAMW4EntityInfoBodyType@@W4DamageType@@@Z
       1151  47E 0010F3F0 ?Death@CPlayer@@QAEHABVCEntityEvent@@@Z
       1152  47F 00214B78 ?DebreeStates_enum@@3VCEntityPropertyEnumType@@A
       1153  480 00214B58 ?DebreeStates_values@@3PAVCEntityPropertyEnumValue@@A
       1154  481 00106740 ?Disconnect@CPlayer@@UAEXXZ
       1155  482 001068A0 ?DispatchVoiceMessage@CPlayer@@QAEXJ@Z
       1156  483 00133680 ?DistanceTo@@YAMPAVCEntity@@0@Z
       1157  484 00109980 ?DoMoving@CPlayer@@UAEXXZ
       1158  485 00215910 ?DoorType_enum@@3VCEntityPropertyEnumType@@A
       1159  486 002158F0 ?DoorType_values@@3PAVCEntityPropertyEnumValue@@A
       1160  487 00107BB0 ?DumpToConsole@CPlayer@@UAEXXZ
       1161  488 00215FA0 ?EffectParticlesType_enum@@3VCEntityPropertyEnumType@@A
       1162  489 00215F58 ?EffectParticlesType_values@@3PAVCEntityPropertyEnumValue@@A
       1163  48A 00215E28 ?EntityInfoBodyType_enum@@3VCEntityPropertyEnumType@@A
       1164  48B 00215DD8 ?EntityInfoBodyType_values@@3PAVCEntityPropertyEnumValue@@A
       1165  48C 0020ED08 ?EntityRoleType_enum@@3VCEntityPropertyEnumType@@A
       1166  48D 0020ECD8 ?EntityRoleType_values@@3PAVCEntityPropertyEnumValue@@A
       1167  48E 00215DD0 ?EventEType_enum@@3VCEntityPropertyEnumType@@A
       1168  48F 00215D58 ?EventEType_values@@3PAVCEntityPropertyEnumValue@@A
       1169  490 00213990 ?ExplosionTypeEnum_enum@@3VCEntityPropertyEnumType@@A
       1170  491 00213980 ?ExplosionTypeEnum_values@@3PAVCEntityPropertyEnumValue@@A
       1171  492 00213AD0 ?ExplosionTypes_enum@@3VCEntityPropertyEnumType@@A
       1172  493 00213A48 ?ExplosionTypes_values@@3PAVCEntityPropertyEnumValue@@A
       1173  494 00106810 ?ExplosionView@CPlayer@@QAEXM@Z
       1174  495 00106170 ?FindMusicHolder@CPlayer@@QAEXXZ
       1175  496 0010ADF0 ?FindNearestVehicle@CPlayer@@QAEPAVCGameEntity@@V?$Vector@M$02@@@Z
       1176  497 00159CB0 ?FindNearestWaypoint@CWorldState@@QAEPAVCWaypointEntity@@PAV?$vector@VCEntityPointer@@V?$allocator@VCEntityPointer@@@_STL@@@_STL@@PAV?$vector@PAVCWaypointEntity@@V?$allocator@PAVCWaypointEntity@@@_STL@@@4@V?$Vector@M$02@@@Z
       1177  498 0015BA30 ?FindNearestWaypoint@CWorldState@@QAEPAVCWaypointEntity@@V?$Vector@M$02@@@Z
       1178  499 0020ECD0 ?FiringRateType_enum@@3VCEntityPropertyEnumType@@A
       1179  49A 0020ECA8 ?FiringRateType_values@@3PAVCEntityPropertyEnumValue@@A
       1180  49B 00096C80 ?FixupCausedToPlayer@@YAPAVCEntity@@PAV1@0H@Z
       1181  49C 00215BC0 ?FogAttenuationType_enum@@3VCEntityPropertyEnumType@@A
       1182  49D 00215BA8 ?FogAttenuationType_values@@3PAVCEntityPropertyEnumValue@@A
       1183  49E 00215BE0 ?FogGraduationType2_enum@@3VCEntityPropertyEnumType@@A
       1184  49F 00215BC8 ?FogGraduationType2_values@@3PAVCEntityPropertyEnumValue@@A
       1185  4A0 0015C730 ?GetAccessMap@CWorldState@@QAEPAVCAccessMap@@XZ
       1186  4A1 00107AE0 ?GetAdapter@CPlayer@@QAEPAVCEntityAdapter@@XZ
       1187  4A2 001598F0 ?GetAlivePlayableMarineCount@CWorldState@@QAEIXZ
       1188  4A3 00107A50 ?GetAnimatedModel@CPlayer@@QAEPAVCHumanAnimatedModel@@XZ
       1189  4A4 00158FD0 ?GetBeacons@CWorldState@@QAEAAV?$vector@PAVCBeaconEntity@@V?$allocator@PAVCBeaconEntity@@@_STL@@@_STL@@XZ
       1190  4A5 00158FF0 ?GetBehaviorConfigs@CWorldState@@QAEPAVCBehaviorConfigCache@@XZ
       1191  4A6 0001C7C0 ?GetCoverPoints@CWorldState@@QAEPAVCCoverPointContainer@@XZ
       1192  4A7 000B8FD0 ?GetCutSceneLength@CCutSceneEntity@@QAEHXZ
       1193  4A8 00158FB0 ?GetCutScenesRunning@CWorldState@@QBEPBV?$list@VCEntityPointer@@V?$allocator@VCEntityPointer@@@_STL@@@_STL@@XZ
       1194  4A9 0010CA20 ?GetDeathmatchStartMarker@CPlayer@@QAEPAVCEntity@@XZ
       1195  4AA 000A9D60 ?GetDescription@CActor@@UBEABVCTString@@XZ
       1196  4AB 00158FA0 ?GetDifficulty@CWorldState@@QAEPAVCDifficultySettings@@XZ
       1197  4AC 001066B0 ?GetEntityInfo@CPlayer@@UAEPAXXZ
       1198  4AD 00096590 ?GetEntityInfoPosition@@YAXPAVCEntity@@PAMAAV?$Vector@M$02@@@Z
       1199  4AE 000BA250 ?GetEventAtIndex@CCutSceneEntity@@QAEPBUCSequenceEvent@@H@Z
       1200  4AF 000BA210 ?GetEventAtIndex@CCutSceneEntity@@QAE_NHAAUCSequenceEvent@@@Z
       1201  4B0 000B8FA0 ?GetEventList@CCutSceneEntity@@QAEPAV?$vector@UCSequenceEvent@@V?$allocator@UCSequenceEvent@@@_STL@@@_STL@@XZ
       1202  4B1 000B8F90 ?GetEventList@CCutSceneEntity@@QBEPBV?$vector@UCSequenceEvent@@V?$allocator@UCSequenceEvent@@@_STL@@@_STL@@XZ
       1203  4B2 000B8F80 ?GetEventListSize@CCutSceneEntity@@QAEHXZ
       1204  4B3 00158E20 ?GetFoeTeam@CWorldState@@QAEPAVCBotGroup@@XZ
       1205  4B4 00095E00 ?GetGameDamageMultiplier@@YAMXZ
       1206  4B5 00107A80 ?GetGameEntity@CPlayer@@QAEPAVCGameEntity@@XZ
       1207  4B6 00107B00 ?GetGameEntityState@CPlayer@@QAE?AW4PlayerState@@XZ
       1208  4B7 00106130 ?GetGameSpyPlayerInfo@CPlayer@@UAEXJAAVCTString@@@Z
       1209  4B8 00158E50 ?GetInactiveBots@CWorldState@@QAEPAVCBotGroup@@XZ
       1210  4B9 00115000 ?GetLerpedPlacement@CBotTrackView@@UBE?AVCPlacement3D@@XZ
       1211  4BA 00115B60 ?GetLerpedPlacement@CCloseShoulderView@@UBE?AVCPlacement3D@@XZ
       1212  4BB 00116E40 ?GetLerpedPlacement@CCommandView@@UBE?AVCPlacement3D@@XZ
       1213  4BC 00117B40 ?GetLerpedPlacement@CFirstPersonView@@UBE?AVCPlacement3D@@XZ
       1214  4BD 00117F10 ?GetLerpedPlacement@CPlayerDeathView@@UBE?AVCPlacement3D@@XZ
       1215  4BE 00119700 ?GetLerpedPlacement@CThirdPersonView@@UBE?AVCPlacement3D@@XZ
       1216  4BF 00106120 ?GetLightSource@CPlayer@@UAEPAVCLightSource@@XZ
       1217  4C0 00158E60 ?GetListeners@CWorldState@@QAEPAV?$list@PAVCBotMessageListener@@V?$allocator@PAVCBotMessageListener@@@_STL@@@_STL@@XZ
       1218  4C1 001599B0 ?GetLocalPlayer@CWorldState@@QAEPAVCPlayer@@XZ
       1219  4C2 0015B0B0 ?GetLocallyPlayedMarine@CWorldState@@QAEPAVCGameBot@@XZ
       1220  4C3 0015A560 ?GetMarinePlayerID@CWorldState@@QAEKPAVCGameBot@@@Z
       1221  4C4 00158E30 ?GetMarineTeam@CWorldState@@QAEPAVCBotGroup@@XZ
       1222  4C5 00158DB0 ?GetMilliSecondsSinceInit@CWorldState@@QAEJXZ
       1223  4C6 00158FE0 ?GetMissionObjectiveLabels@CWorldState@@QAEAAV?$vector@PAVCMissionObjectiveLabel@@V?$allocator@PAVCMissionObjectiveLabel@@@_STL@@@_STL@@XZ
       1224  4C7 001316A0 ?GetMissionObjectiveManager@CWorldState@@QBE?AVCEntityPointer@@XZ
       1225  4C8 00106160 ?GetModelForRendering@CPlayer@@UAEPAVCModelObject@@XZ
       1226  4C9 00158E40 ?GetNPCTeam@CWorldState@@QAEPAVCBotGroup@@XZ
       1227  4CA 000A9D50 ?GetName@CActor@@UBEABVCTString@@XZ
       1228  4CB 000D9D30 ?GetName@CTeleTypeEntity@@UBEABVCTString@@XZ
       1229  4CC 001037C0 ?GetNumOfObjectives@CMissionObjectiveManagerEntity@@QAEHW4MissionObjectiveType@@@Z
       1230  4CD 00103830 ?GetObjective@CMissionObjectiveManagerEntity@@QAE_NW4MissionObjectiveType@@HAAVCEntityPointer@@@Z
       1231  4CE 001038D0 ?GetObjectiveByName@CMissionObjectiveManagerEntity@@QAE_NABVCTString@@W4MissionObjectiveType@@AAVCEntityPointer@@@Z
       1232  4CF 00103910 ?GetObjectiveList@CMissionObjectiveManagerEntity@@QAEPBV?$vector@VCEntityPointer@@V?$allocator@VCEntityPointer@@@_STL@@@_STL@@W4MissionObjectiveType@@@Z
       1233  4D0 00103880 ?GetObjectiveName@CMissionObjectiveManagerEntity@@QAE_NW4MissionObjectiveType@@HAAVCTString@@@Z
       1234  4D1 001598E0 ?GetPlayableMarine@CWorldState@@QAEPAVCGameBot@@I@Z
       1235  4D2 001598B0 ?GetPlayableMarineIndex@CWorldState@@QAEHPBVCGameBot@@@Z
       1236  4D3 0015B020 ?GetPlayedMarine@CWorldState@@QAEPAVCGameBot@@ABK@Z
       1237  4D4 0015BAD0 ?GetPlayedMarineIndex@CWorldState@@QAEHK@Z
       1238  4D5 00158DF0 ?GetPlayerControllableMarines@CWorldState@@QAEPAVCBotGroup@@XZ
       1239  4D6 00158E00 ?GetPlayerControllableMarinesPersistent@CWorldState@@QAEPAV?$vector@PAVCGameBot@@V?$allocator@PAVCGameBot@@@_STL@@@_STL@@XZ
       1240  4D7 00096630 ?GetPositionCastRay@@YAXPAVCEntity@@0AAV?$Vector@M$02@@1@Z
       1241  4D8 00158FC0 ?GetReplenishers@CWorldState@@QAEAAV?$vector@PAVCReplenisherBase@@V?$allocator@PAVCReplenisherBase@@@_STL@@@_STL@@XZ
       1242  4D9 00092310 ?GetSP@@YAPBVCSessionProperties@@XZ
       1243  4DA 00158E80 ?GetShouldShowAlignment@CWorldState@@QAEHXZ
       1244  4DB 00105780 ?GetSizeOf@ABZSwitchMarine@@UAEJXZ
       1245  4DC 000AA140 ?GetSizeOf@CActorActivate@@UAEJXZ
       1246  4DD 000AA180 ?GetSizeOf@CActorDeactivate@@UAEJXZ
       1247  4DE 0005A2B0 ?GetSizeOf@DamageEvent@@UAEJXZ
       1248  4DF 000E7E30 ?GetSizeOf@EActivate@@UAEJXZ
       1249  4E0 000C52A0 ?GetSizeOf@EActivateFullScreenEffects@@UAEJXZ
       1250  4E1 000D8110 ?GetSizeOf@EActivateSpaceDebree@@UAEJXZ
       1251  4E2 000AA0A0 ?GetSizeOf@EAnimTriggerAndConfigure@@UAEJXZ
       1252  4E3 000F1C90 ?GetSizeOf@EBrushDeath@@UAEJXZ
       1253  4E4 000F1B30 ?GetSizeOf@EBrushDestroyed@@UAEJXZ
       1254  4E5 00105200 ?GetSizeOf@ECameraStart@@UAEJXZ
       1255  4E6 00105280 ?GetSizeOf@ECameraStop@@UAEJXZ
       1256  4E7 000E8250 ?GetSizeOf@ECenterMessage@@UAEJXZ
       1257  4E8 000E0070 ?GetSizeOf@EChangeAnim@@UAEJXZ
       1258  4E9 000F64A0 ?GetSizeOf@EChangeMusic@@UAEJXZ
       1259  4EA 000E8130 ?GetSizeOf@ECloseDoor@@UAEJXZ
       1260  4EB 000E8270 ?GetSizeOf@EComputerMessage@@UAEJXZ
       1261  4EC 000E8230 ?GetSizeOf@ECredits@@UAEJXZ
       1262  4ED 000B8D20 ?GetSizeOf@ECutscene@@UAEJXZ
       1263  4EE 000E7E50 ?GetSizeOf@EDeactivate@@UAEJXZ
       1264  4EF 000CBBD0 ?GetSizeOf@EDeactivateEffect@@UAEJXZ
       1265  4F0 000C5300 ?GetSizeOf@EDeactivateFullScreenEffects@@UAEJXZ
       1266  4F1 001054A0 ?GetSizeOf@EDisconnected@@UAEJXZ
       1267  4F2 000E7EF0 ?GetSizeOf@EEnd@@UAEJXZ
       1268  4F3 000E7E70 ?GetSizeOf@EEnvironmentStart@@UAEJXZ
       1269  4F4 000E7EB0 ?GetSizeOf@EEnvironmentStop@@UAEJXZ
       1270  4F5 000BF900 ?GetSizeOf@EExplosion@@UAEJXZ
       1271  4F6 000F1AD0 ?GetSizeOf@EHit@@UAEJXZ
       1272  4F7 000E8390 ?GetSizeOf@EHitBySpaceShipBeam@@UAEJXZ
       1273  4F8 000E8210 ?GetSizeOf@EHudPicFX@@UAEJXZ
       1274  4F9 000AB400 ?GetSizeOf@EInitBeacon@@UAEJXZ
       1275  4FA 000C5240 ?GetSizeOf@EInitializeFullScreenEffects@@UAEJXZ
       1276  4FB 001051C0 ?GetSizeOf@EInitializePlayer@@UAEJXZ
       1277  4FC 000D4550 ?GetSizeOf@EInitializeShadowRenderer@@UAEJXZ
       1278  4FD 000E8150 ?GetSizeOf@EKilledEnemy@@UAEJXZ
       1279  4FE 000C6350 ?GetSizeOf@ELaunchGrenade@@UAEJXZ
       1280  4FF 00105870 ?GetSizeOf@ELocalTeleTypeMessage@@UAEJXZ
       1281  500 000EDBB0 ?GetSizeOf@EModel2Activate@@UAEJXZ
       1282  501 000EDBF0 ?GetSizeOf@EModel2Deactivate@@UAEJXZ
       1283  502 000EFC00 ?GetSizeOf@EModel3Activate@@UAEJXZ
       1284  503 000EFC40 ?GetSizeOf@EModel3Deactivate@@UAEJXZ
       1285  504 000EFC80 ?GetSizeOf@EModel3Initialize@@UAEJXZ
       1286  505 000ECC00 ?GetSizeOf@EModelDeath@@UAEJXZ
       1287  506 000F5CC0 ?GetSizeOf@EMusicChangerTrigger@@UAEJXZ
       1288  507 00105440 ?GetSizeOf@ENSShepperdEvent@@UAEJXZ
       1289  508 001053E0 ?GetSizeOf@ENSVoiceMessage@@UAEJXZ
       1290  509 000F6530 ?GetSizeOf@ENetChangeMusic@@UAEJXZ
       1291  50A 000F83A0 ?GetSizeOf@ENetStartSound@@UAEJXZ
       1292  50B 000F83E0 ?GetSizeOf@ENetStopSound@@UAEJXZ
       1293  50C 00105970 ?GetSizeOf@ENetworkTeleTypeMessage@@UAEJXZ
       1294  50D 000E8110 ?GetSizeOf@EOpenDoor@@UAEJXZ
       1295  50E 000F8360 ?GetSizeOf@EPlaySoundOnce@@UAEJXZ
       1296  50F 00105540 ?GetSizeOf@EPlayerDeath@@UAEJXZ
       1297  510 00105380 ?GetSizeOf@EPlayerRebirth@@UAEJXZ
       1298  511 001055E0 ?GetSizeOf@EPlayerStats@@UAEJXZ
       1299  512 000ECBC0 ?GetSizeOf@ERangeModelDestruction@@UAEJXZ
       1300  513 00105320 ?GetSizeOf@ERebirth@@UAEJXZ
       1301  514 000E80D0 ?GetSizeOf@EReceiveScore@@UAEJXZ
       1302  515 000E7F90 ?GetSizeOf@EReminder@@UAEJXZ
       1303  516 000E81D0 ?GetSizeOf@EScroll@@UAEJXZ
       1304  517 000E8170 ?GetSizeOf@ESecretFound@@UAEJXZ
       1305  518 000E14F0 ?GetSizeOf@ESetViewer@@UAEJXZ
       1306  519 00105580 ?GetSizeOf@EShowConsole@@UAEJXZ
       1307  51A 000E81B0 ?GetSizeOf@ESound@@UAEJXZ
       1308  51B 000E1C10 ?GetSizeOf@ESpawnSpray@@UAEJXZ
       1309  51C 000E7E10 ?GetSizeOf@EStart@@UAEJXZ
       1310  51D 000E7FD0 ?GetSizeOf@EStartAttack@@UAEJXZ
       1311  51E 000CBB70 ?GetSizeOf@EStartEffect@@UAEJXZ
       1312  51F 000F1B90 ?GetSizeOf@EStartSounds@@UAEJXZ
       1313  520 000E7DD0 ?GetSizeOf@EStop@@UAEJXZ
       1314  521 000E8010 ?GetSizeOf@EStopAttack@@UAEJXZ
       1315  522 000E8050 ?GetSizeOf@EStopBlindness@@UAEJXZ
       1316  523 000E8090 ?GetSizeOf@EStopDeafness@@UAEJXZ
       1317  524 000CBB10 ?GetSizeOf@EStopEffect@@UAEJXZ
       1318  525 000F1BF0 ?GetSizeOf@EStopSounds@@UAEJXZ
       1319  526 00105690 ?GetSizeOf@ESubtitleEvent@@UAEJXZ
       1320  527 000E7F50 ?GetSizeOf@ETeleportMovingBrush@@UAEJXZ
       1321  528 000E81F0 ?GetSizeOf@ETextFX@@UAEJXZ
       1322  529 000E7F30 ?GetSizeOf@ETrigger@@UAEJXZ
       1323  52A 000E8300 ?GetSizeOf@EVoiceMessage@@UAEJXZ
       1324  52B 00058F60 ?GetSizeOf@EnterVehicleEvent@@UAEJXZ
       1325  52C 00058FC0 ?GetSizeOf@LeaveVehicleEvent@@UAEJXZ
       1326  52D 00059B80 ?GetSizeOf@ProxyBash@@UAEJXZ
       1327  52E 0005A510 ?GetSizeOf@ProxyBombConfigured@@UAEJXZ
       1328  52F 000599C0 ?GetSizeOf@ProxyBurstFire@@UAEJXZ
       1329  530 00059A00 ?GetSizeOf@ProxyCeaseFire@@UAEJXZ
       1330  531 0005A4B0 ?GetSizeOf@ProxyConfigureBomb@@UAEJXZ
       1331  532 0005A170 ?GetSizeOf@ProxyDeath@@UAEJXZ
       1332  533 00059D70 ?GetSizeOf@ProxyDiscoverBody@@UAEJXZ
       1333  534 0005A1B0 ?GetSizeOf@ProxyDoIdleSpice@@UAEJXZ
       1334  535 0005A050 ?GetSizeOf@ProxyFall@@UAEJXZ
       1335  536 00059980 ?GetSizeOf@ProxyFire@@UAEJXZ
       1336  537 00059D10 ?GetSizeOf@ProxyFlee@@UAEJXZ
       1337  538 00059E90 ?GetSizeOf@ProxyFling@@UAEJXZ
       1338  539 00059ED0 ?GetSizeOf@ProxyGetUp@@UAEJXZ
       1339  53A 00059E10 ?GetSizeOf@ProxyHop@@UAEJXZ
       1340  53B 00059DD0 ?GetSizeOf@ProxyJump@@UAEJXZ
       1341  53C 00059CB0 ?GetSizeOf@ProxyLookAround@@UAEJXZ
       1342  53D 000596B0 ?GetSizeOf@ProxyNewWeapon@@UAEJXZ
       1343  53E 000594D0 ?GetSizeOf@ProxyPowerupInRange@@UAEJXZ
       1344  53F 00059020 ?GetSizeOf@ProxyPunchThrown@@UAEJXZ
       1345  540 0005A410 ?GetSizeOf@ProxyReachForBomb@@UAEJXZ
       1346  541 00059AC0 ?GetSizeOf@ProxyReleaseGrenade@@UAEJXZ
       1347  542 00059080 ?GetSizeOf@ProxyReload@@UAEJXZ
       1348  543 000592F0 ?GetSizeOf@ProxyReplenishHealth@@UAEJXZ
       1349  544 00059120 ?GetSizeOf@ProxyReplenishPossible@@UAEJXZ
       1350  545 00059210 ?GetSizeOf@ProxyReplenishRequest@@UAEJXZ
       1351  546 000593E0 ?GetSizeOf@ProxyReplenishWeapon@@UAEJXZ
       1352  547 000595C0 ?GetSizeOf@ProxyReplenishWeaponInSlot@@UAEJXZ
       1353  548 00059B20 ?GetSizeOf@ProxyResetFireAnimation@@UAEJXZ
       1354  549 00059F30 ?GetSizeOf@ProxyResetFling@@UAEJXZ
       1355  54A 00059E50 ?GetSizeOf@ProxyRoll@@UAEJXZ
       1356  54B 00059BE0 ?GetSizeOf@ProxySelectWeapon@@UAEJXZ
       1357  54C 00059C40 ?GetSizeOf@ProxySetNewWeapon@@UAEJXZ
       1358  54D 00059FF0 ?GetSizeOf@ProxySetStance@@UAEJXZ
       1359  54E 0005A110 ?GetSizeOf@ProxyStop@@UAEJXZ
       1360  54F 0005A210 ?GetSizeOf@ProxyStopIdleSpice@@UAEJXZ
       1361  550 00059910 ?GetSizeOf@ProxySyncWeaponAmmo@@UAEJXZ
       1362  551 00059A60 ?GetSizeOf@ProxyThrowGrenade@@UAEJXZ
       1363  552 0005A330 ?GetSizeOf@ProxyTimedBombInRange@@UAEJXZ
       1364  553 0005A0B0 ?GetSizeOf@ProxyTouchDown@@UAEJXZ
       1365  554 000598B0 ?GetSizeOf@ProxyWeaponChangeComplete@@UAEJXZ
       1366  555 00059790 ?GetSizeOf@ProxyWeaponToBack@@UAEJXZ
       1367  556 00059850 ?GetSizeOf@ProxyWeaponToHand@@UAEJXZ
       1368  557 000597F0 ?GetSizeOf@ProxyWeaponToHip@@UAEJXZ
       1369  558 00059F90 ?GetSizeOf@ProxyWounded@@UAEJXZ
       1370  559 0005A570 ?GetSizeOf@RespawnEvent@@UAEJXZ
       1371  55A 00058F00 ?GetSizeOf@SyncDescriptorEvent@@UAEJXZ
       1372  55B 00058EC0 ?GetSizeOf@SyncPositioningEvent@@UAEJXZ
       1373  55C 000DC320 ?GetSizeOf@TimedBombActive@@UAEJXZ
       1374  55D 000DC3A0 ?GetSizeOf@TimedBombDormant@@UAEJXZ
       1375  55E 000DC2E0 ?GetSizeOf@TimedBombToActive@@UAEJXZ
       1376  55F 000DC360 ?GetSizeOf@TimedBombToDormant@@UAEJXZ
       1377  560 00058E60 ?GetSizeOf@TriggerGameEntity@@UAEJXZ
       1378  561 001015C0 ?GetSizeOf@WorldLinkEvent@@UAEJXZ
       1379  562 00158E10 ?GetSquadLeader@CWorldState@@QAEPAVCGameBot@@XZ
       1380  563 000B9020 ?GetStartOffset@CCutSceneEntity@@QAEJXZ
       1381  564 0011FBC0 ?GetStatusMessages@CWorldState@@QAEPAV?$list@VCStatusMessage@@V?$allocator@VCStatusMessage@@@_STL@@@_STL@@XZ
       1382  565 0010CD90 ?GetTeleportingOffset@CPlayer@@QAE?AV?$Vector@M$02@@XZ
       1383  566 0015CA30 ?GetVehicleAccessMap@CWorldState@@QAEPAVCAccessMap@@XZ
       1384  567 00095EC0 ?GetWSC@@YAPAVCWorldSettingsController@@PAVCEntity@@@Z
       1385  568 00158E70 ?GetWaypoints@CWorldState@@QAEPAV?$vector@VCEntityPointer@@V?$allocator@VCEntityPointer@@@_STL@@@_STL@@XZ
       1386  569 00159650 ?GetWeaponLoadoutConfigFilename@CWorldState@@QAE?BV?$basic_string@DV?$char_traits@D@_STL@@V?$allocator@D@2@@_STL@@XZ
       1387  56A 00106800 ?GetWorldState@CPlayer@@QAEPAVCWorldState@@XZ
       1388  56B 00213D98 ?GrenadeStateEnum_enum@@3VCEntityPropertyEnumType@@A
       1389  56C 00213D88 ?GrenadeStateEnum_values@@3PAVCEntityPropertyEnumValue@@A
       1390  56D 00213D80 ?GrenadeTriggerEnum_enum@@3VCEntityPropertyEnumType@@A
       1391  56E 00213D70 ?GrenadeTriggerEnum_values@@3PAVCEntityPropertyEnumValue@@A
       1392  56F 00213DD0 ?GrenadeTypeEnum_enum@@3VCEntityPropertyEnumType@@A
       1393  570 00213DA0 ?GrenadeTypeEnum_values@@3PAVCEntityPropertyEnumValue@@A
       1394  571 00212EF8 ?GroupBehaviorType_enum@@3VCEntityPropertyEnumType@@A
       1395  572 00212EC8 ?GroupBehaviorType_values@@3PAVCEntityPropertyEnumValue@@A
       1396  573 000AA400 ?H0x0bcd0003_Main_01@CActor@@QAEHABVCEntityEvent@@@Z
       1397  574 000AA550 ?H0x0bcd0004_Main_02@CActor@@QAEHABVCEntityEvent@@@Z
       1398  575 000DA990 ?H0x0bd20001_Active_01@CTeleTypeEntity@@QAEHABVCEntityEvent@@@Z
       1399  576 000D9E40 ?H0x0bd20002_Active_02@CTeleTypeEntity@@QAEHABVCEntityEvent@@@Z
       1400  577 000D9F40 ?H0x0bd20004_Inactive_01@CTeleTypeEntity@@QAEHABVCEntityEvent@@@Z
       1401  578 000D9FD0 ?H0x0bd20005_Inactive_02@CTeleTypeEntity@@QAEHABVCEntityEvent@@@Z
       1402  579 000DA050 ?H0x0bd20006_Inactive_03@CTeleTypeEntity@@QAEHABVCEntityEvent@@@Z
       1403  57A 000DA0E0 ?H0x0bd20007_Inactive_04@CTeleTypeEntity@@QAEHABVCEntityEvent@@@Z
       1404  57B 000D9EC0 ?H0x0bd20008_Inactive_05@CTeleTypeEntity@@QAEHABVCEntityEvent@@@Z
       1405  57C 000DA150 ?H0x0bd20009_Inactive_06@CTeleTypeEntity@@QAEHABVCEntityEvent@@@Z
       1406  57D 000DA270 ?H0x0bd2000a_Main_01@CTeleTypeEntity@@QAEHABVCEntityEvent@@@Z
       1407  57E 000DA300 ?H0x0bd2000b_Main_02@CTeleTypeEntity@@QAEHABVCEntityEvent@@@Z
       1408  57F 00114630 ?H0x13880000_Main_01@CBotTrackView@@QAEHABVCEntityEvent@@@Z
       1409  580 00114720 ?H0x13880001_Main_02@CBotTrackView@@QAEHABVCEntityEvent@@@Z
       1410  581 00115740 ?H0x13890000_Main_01@CCloseShoulderView@@QAEHABVCEntityEvent@@@Z
       1411  582 00115830 ?H0x13890001_Main_02@CCloseShoulderView@@QAEHABVCEntityEvent@@@Z
       1412  583 00117800 ?H0x138a0000_Main_01@CFirstPersonView@@QAEHABVCEntityEvent@@@Z
       1413  584 00117930 ?H0x138a0001_Main_02@CFirstPersonView@@QAEHABVCEntityEvent@@@Z
       1414  585 00118090 ?H0x138b0000_Main_01@CPlayerDeathView@@QAEHABVCEntityEvent@@@Z
       1415  586 00118150 ?H0x138b0001_Main_02@CPlayerDeathView@@QAEHABVCEntityEvent@@@Z
       1416  587 00119F50 ?H0x138c0000_Main_01@CThirdPersonView@@QAEHABVCEntityEvent@@@Z
       1417  588 00118E90 ?H0x138c0001_Main_02@CThirdPersonView@@QAEHABVCEntityEvent@@@Z
       1418  589 00118AB0 ?H0x138d0000_Main_01@CSpectatorView@@QAEHABVCEntityEvent@@@Z
       1419  58A 00118B30 ?H0x138d0001_Main_02@CSpectatorView@@QAEHABVCEntityEvent@@@Z
       1420  58B 001164B0 ?H0x13b40000_Main_01@CCommandView@@QAEHABVCEntityEvent@@@Z
       1421  58C 00116570 ?H0x13b40001_Main_02@CCommandView@@QAEHABVCEntityEvent@@@Z
       1422  58D 001069B0 ?H0x17840012_WorldChangeDead_01@CPlayer@@QAEHABVCEntityEvent@@@Z
       1423  58E 00106A60 ?H0x17840013_WorldChangeDead_02@CPlayer@@QAEHABVCEntityEvent@@@Z
       1424  58F 00106AE0 ?H0x17840015_Death_01@CPlayer@@QAEHABVCEntityEvent@@@Z
       1425  590 00106C00 ?H0x17840016_Death_02@CPlayer@@QAEHABVCEntityEvent@@@Z
       1426  591 0010D8B0 ?H0x17840018_Main_01@CPlayer@@QAEHABVCEntityEvent@@@Z
       1427  592 00106EC0 ?H0x17840019_Main_02@CPlayer@@QAEHABVCEntityEvent@@@Z
       1428  593 00106F30 ?H0x1784001a_Main_03@CPlayer@@QAEHABVCEntityEvent@@@Z
       1429  594 00107090 ?H0x1784001b_Main_04@CPlayer@@QAEHABVCEntityEvent@@@Z
       1430  595 00107120 ?H0x1784001c_Main_05@CPlayer@@QAEHABVCEntityEvent@@@Z
       1431  596 00106FB0 ?H0x1784001d_Main_06@CPlayer@@QAEHABVCEntityEvent@@@Z
       1432  597 00107190 ?H0x1784001e_Main_07@CPlayer@@QAEHABVCEntityEvent@@@Z
       1433  598 0010E5E0 ?H0x1784001f_Main_08@CPlayer@@QAEHABVCEntityEvent@@@Z
       1434  599 00107210 ?H0x17840020_Main_09@CPlayer@@QAEHABVCEntityEvent@@@Z
       1435  59A 000AA3A0 ?HandleAnimPauseEvent@CActor@@UAEXJ@Z
       1436  59B 000AA2D0 ?HandleAnimStartEvent@CActor@@UAEXJPBVEAnimTriggerAndConfigure@@@Z
       1437  59C 000AA390 ?HandleAnimStopEvent@CActor@@UAEXJ@Z
       1438  59D 000AA3B0 ?HandleAnimUpdateEvent@CActor@@UAEXJPBVEAnimTriggerAndConfigure@@@Z
       1439  59E 0010AF60 ?HandleEnterVehicleAction@CPlayer@@QAEXPAVCGameBot@@PAVCGameEntity@@@Z
       1440  59F 000AA1F0 ?HandleEvent@CActor@@UAEHABVCEntityEvent@@@Z
       1441  5A0 0010A720 ?HandleEvent@CPlayer@@UAEHABVCEntityEvent@@@Z
       1442  5A1 00106090 ?HandleExitVehicleAction@CPlayer@@QAEXPAVCGameBot@@PAVCGameEntity@@@Z
       1443  5A2 0010AFB0 ?HandleVehicleAction@CPlayer@@QAEXXZ
       1444  5A3 0010A040 ?HoldPosition@CPlayer@@QAEXXZ
       1445  5A4 000D9E50 ?Inactive@CTeleTypeEntity@@QAEHABVCEntityEvent@@@Z
       1446  5A5 0015B310 ?InflictRangeDamage@CWorldState@@QAEXABV?$Vector@M$02@@PAVCEntity@@_NMMW4DamageType@@M222@Z
       1447  5A6 0015A6D0 ?InflictRangeDamage@CWorldState@@QAEXABV?$Vector@M$02@@PAVCEntity@@_NMMW4DamageType@@MPAV?$vector@PAVCGameBot@@V?$allocator@PAVCGameBot@@@_STL@@@_STL@@@Z
       1448  5A7 000AAFE0 ?InitModelHolder@CActor@@QAEXXZ
       1449  5A8 00106250 ?InitTeleTypeFontStock@CPlayer@@QAEXXZ
       1450  5A9 00106190 ?InitTeleTypeSoundStock@CPlayer@@QAEXXZ
       1451  5AA 0010DBD0 ?InitializeFromNet@CPlayer@@UAEXXZ
       1452  5AB 0010CCF0 ?InitializeInput@CPlayer@@QAEXXZ
       1453  5AC 0010E000 ?InitializePlayedMarine@CPlayer@@QAEXXZ
       1454  5AD 0010E2F0 ?InitializePlayer@CPlayer@@UAEXXZ
       1455  5AE 00109DD0 ?InitializeViewManager@CPlayer@@QAEXXZ
       1456  5AF 00106000 ?IsActionApplied@CPlayer@@UAEHXZ
       1457  5B0 001066A0 ?IsConnected@CPlayer@@QBEHXZ
       1458  5B1 0015A6B0 ?IsCutSceneRunning@CWorldState@@QBE_NXZ
       1459  5B2 0010A690 ?IsHacking@CPlayer@@QAE_NXZ
       1460  5B3 00103330 ?IsObjectiveComplete@CMissionObjectiveManagerEntity@@QAEHQAVCEntityPointer@@@Z
       1461  5B4 00106EB0 ?IsPlayerActionAllowed@CWorldState@@QBE?B_NXZ
       1462  5B5 00106030 ?IsReapplyingActions@CPlayer@@UAEHXZ
       1463  5B6 00114500 ?IsSentOverNet@CBotTrackView@@UAEHXZ
       1464  5B7 00115630 ?IsSentOverNet@CCloseShoulderView@@UAEHXZ
       1465  5B8 00116370 ?IsSentOverNet@CCommandView@@UAEHXZ
       1466  5B9 001176E0 ?IsSentOverNet@CFirstPersonView@@UAEHXZ
       1467  5BA 00117EE0 ?IsSentOverNet@CPlayerDeathView@@UAEHXZ
       1468  5BB 00118920 ?IsSentOverNet@CSpectatorView@@UAEHXZ
       1469  5BC 00118D60 ?IsSentOverNet@CThirdPersonView@@UAEHXZ
       1470  5BD 000AA1E0 ?IsTargetable@CActor@@UBEHXZ
       1471  5BE 000D9D40 ?IsTargetable@CTeleTypeEntity@@UBEHXZ
       1472  5BF 00052FC0 ?IsValid@CPathBuilder@@QAE_NXZ
       1473  5C0 00092AD0 ?KickEntity@@YAXPAVCEntity@@V?$Vector@M$02@@@Z
       1474  5C1 00215D20 ?KillType_enum@@3VCEntityPropertyEnumType@@A
       1475  5C2 00215D00 ?KillType_values@@3PAVCEntityPropertyEnumValue@@A
       1476  5C3 00216460 ?LensFlareType_enum@@3VCEntityPropertyEnumType@@A
       1477  5C4 002163F8 ?LensFlareType_values@@3PAVCEntityPropertyEnumValue@@A
       1478  5C5 00096F00 ?LerpPlacementsPrecise@@YA?AVCPlacement3D@@ABV1@0M@Z
       1479  5C6 00105FE0 ?LevelChangePlayerClear@CPlayer@@QAEXXZ
       1480  5C7 002163F0 ?LightType_enum@@3VCEntityPropertyEnumType@@A
       1481  5C8 002163C8 ?LightType_values@@3PAVCEntityPropertyEnumValue@@A
       1482  5C9 00109670 ?ListenFromEntity@CPlayer@@QAEXPAVCEntity@@ABVCPlacement3D@@@Z
       1483  5CA 000911F0 ?LoadSkaModel@@YAXAAVCModelInstance@@PAVCEntity@@J@Z
       1484  5CB 001BF9B0 ?MAX_STATUS_MESSAGE_QUEUE_SIZE@CWorldState@@2IB
       1485  5CC 001BF9B4 ?MIN_TIME_BETWEEN_SAVES@CWorldState@@2JB
       1486  5CD 000AB1E0 ?Main@CActor@@QAEHABVCEntityEvent@@@Z
       1487  5CE 00114530 ?Main@CBotTrackView@@QAEHABVCEntityEvent@@@Z
       1488  5CF 00115660 ?Main@CCloseShoulderView@@QAEHABVCEntityEvent@@@Z
       1489  5D0 001163A0 ?Main@CCommandView@@QAEHABVCEntityEvent@@@Z
       1490  5D1 00117710 ?Main@CFirstPersonView@@QAEHABVCEntityEvent@@@Z
       1491  5D2 00106D20 ?Main@CPlayer@@QAEHABVCEntityEvent@@@Z
       1492  5D3 00117F80 ?Main@CPlayerDeathView@@QAEHABVCEntityEvent@@@Z
       1493  5D4 001189B0 ?Main@CSpectatorView@@QAEHABVCEntityEvent@@@Z
       1494  5D5 000DA160 ?Main@CTeleTypeEntity@@QAEHABVCEntityEvent@@@Z
       1495  5D6 00118D90 ?Main@CThirdPersonView@@QAEHABVCEntityEvent@@@Z
       1496  5D7 00159130 ?Main@CWorldState@@QAEHABVCEntityEvent@@@Z
       1497  5D8 00105720 ?MakeCopy@ABZSwitchMarine@@UAEPAVCEntityEvent@@XZ
       1498  5D9 000AAA50 ?MakeCopy@CActorActivate@@UAEPAVCEntityEvent@@XZ
       1499  5DA 000AAA70 ?MakeCopy@CActorDeactivate@@UAEPAVCEntityEvent@@XZ
       1500  5DB 0005A250 ?MakeCopy@DamageEvent@@UAEPAVCEntityEvent@@XZ
       1501  5DC 000E9FE0 ?MakeCopy@EActivate@@UAEPAVCEntityEvent@@XZ
       1502  5DD 000C5280 ?MakeCopy@EActivateFullScreenEffects@@UAEPAVCEntityEvent@@XZ
       1503  5DE 000D87C0 ?MakeCopy@EActivateSpaceDebree@@UAEPAVCEntityEvent@@XZ
       1504  5DF 000AA9F0 ?MakeCopy@EAnimTriggerAndConfigure@@UAEPAVCEntityEvent@@XZ
       1505  5E0 000F1C30 ?MakeCopy@EBrushDeath@@UAEPAVCEntityEvent@@XZ
       1506  5E1 000F1B10 ?MakeCopy@EBrushDestroyed@@UAEPAVCEntityEvent@@XZ
       1507  5E2 00107910 ?MakeCopy@ECameraStart@@UAEPAVCEntityEvent@@XZ
       1508  5E3 00107970 ?MakeCopy@ECameraStop@@UAEPAVCEntityEvent@@XZ
       1509  5E4 000EA9A0 ?MakeCopy@ECenterMessage@@UAEPAVCEntityEvent@@XZ
       1510  5E5 000E02A0 ?MakeCopy@EChangeAnim@@UAEPAVCEntityEvent@@XZ
       1511  5E6 000F6C60 ?MakeCopy@EChangeMusic@@UAEPAVCEntityEvent@@XZ
       1512  5E7 000EA430 ?MakeCopy@ECloseDoor@@UAEPAVCEntityEvent@@XZ
       1513  5E8 000EAA70 ?MakeCopy@EComputerMessage@@UAEPAVCEntityEvent@@XZ
       1514  5E9 000EA8E0 ?MakeCopy@ECredits@@UAEPAVCEntityEvent@@XZ
       1515  5EA 000B8D00 ?MakeCopy@ECutscene@@UAEPAVCEntityEvent@@XZ
       1516  5EB 000EA0A0 ?MakeCopy@EDeactivate@@UAEPAVCEntityEvent@@XZ
       1517  5EC 000CBBB0 ?MakeCopy@EDeactivateEffect@@UAEPAVCEntityEvent@@XZ
       1518  5ED 000C52E0 ?MakeCopy@EDeactivateFullScreenEffects@@UAEPAVCEntityEvent@@XZ
       1519  5EE 00105480 ?MakeCopy@EDisconnected@@UAEPAVCEntityEvent@@XZ
       1520  5EF 000EA1A0 ?MakeCopy@EEnd@@UAEPAVCEntityEvent@@XZ
       1521  5F0 000EA160 ?MakeCopy@EEnvironmentStart@@UAEPAVCEntityEvent@@XZ
       1522  5F1 000EA180 ?MakeCopy@EEnvironmentStop@@UAEPAVCEntityEvent@@XZ
       1523  5F2 000BF8A0 ?MakeCopy@EExplosion@@UAEPAVCEntityEvent@@XZ
       1524  5F3 000F1AB0 ?MakeCopy@EHit@@UAEPAVCEntityEvent@@XZ
       1525  5F4 000EAB30 ?MakeCopy@EHitBySpaceShipBeam@@UAEPAVCEntityEvent@@XZ
       1526  5F5 000EA820 ?MakeCopy@EHudPicFX@@UAEPAVCEntityEvent@@XZ
       1527  5F6 000ABA30 ?MakeCopy@EInitBeacon@@UAEPAVCEntityEvent@@XZ
       1528  5F7 000C5220 ?MakeCopy@EInitializeFullScreenEffects@@UAEPAVCEntityEvent@@XZ
       1529  5F8 001051A0 ?MakeCopy@EInitializePlayer@@UAEPAVCEntityEvent@@XZ
       1530  5F9 000D4530 ?MakeCopy@EInitializeShadowRenderer@@UAEPAVCEntityEvent@@XZ
       1531  5FA 000EA4F0 ?MakeCopy@EKilledEnemy@@UAEPAVCEntityEvent@@XZ
       1532  5FB 000C62F0 ?MakeCopy@ELaunchGrenade@@UAEPAVCEntityEvent@@XZ
       1533  5FC 00105810 ?MakeCopy@ELocalTeleTypeMessage@@UAEPAVCEntityEvent@@XZ
       1534  5FD 000EE000 ?MakeCopy@EModel2Activate@@UAEPAVCEntityEvent@@XZ
       1535  5FE 000EE020 ?MakeCopy@EModel2Deactivate@@UAEPAVCEntityEvent@@XZ
       1536  5FF 000EFF20 ?MakeCopy@EModel3Activate@@UAEPAVCEntityEvent@@XZ
       1537  600 000EFF40 ?MakeCopy@EModel3Deactivate@@UAEPAVCEntityEvent@@XZ
       1538  601 000EFF60 ?MakeCopy@EModel3Initialize@@UAEPAVCEntityEvent@@XZ
       1539  602 000ECEB0 ?MakeCopy@EModelDeath@@UAEPAVCEntityEvent@@XZ
       1540  603 000F6410 ?MakeCopy@EMusicChangerTrigger@@UAEPAVCEntityEvent@@XZ
       1541  604 00105420 ?MakeCopy@ENSShepperdEvent@@UAEPAVCEntityEvent@@XZ
       1542  605 001053C0 ?MakeCopy@ENSVoiceMessage@@UAEPAVCEntityEvent@@XZ
       1543  606 000F6CC0 ?MakeCopy@ENetChangeMusic@@UAEPAVCEntityEvent@@XZ
       1544  607 000F8E40 ?MakeCopy@ENetStartSound@@UAEPAVCEntityEvent@@XZ
       1545  608 000F8E60 ?MakeCopy@ENetStopSound@@UAEPAVCEntityEvent@@XZ
       1546  609 00105950 ?MakeCopy@ENetworkTeleTypeMessage@@UAEPAVCEntityEvent@@XZ
       1547  60A 000EA370 ?MakeCopy@EOpenDoor@@UAEPAVCEntityEvent@@XZ
       1548  60B 000F8E20 ?MakeCopy@EPlaySoundOnce@@UAEPAVCEntityEvent@@XZ
       1549  60C 001054E0 ?MakeCopy@EPlayerDeath@@UAEPAVCEntityEvent@@XZ
       1550  60D 00105360 ?MakeCopy@EPlayerRebirth@@UAEPAVCEntityEvent@@XZ
       1551  60E 001055C0 ?MakeCopy@EPlayerStats@@UAEPAVCEntityEvent@@XZ
       1552  60F 000ECE90 ?MakeCopy@ERangeModelDestruction@@UAEPAVCEntityEvent@@XZ
       1553  610 00105300 ?MakeCopy@ERebirth@@UAEPAVCEntityEvent@@XZ
       1554  611 000EA350 ?MakeCopy@EReceiveScore@@UAEPAVCEntityEvent@@XZ
       1555  612 000EA2B0 ?MakeCopy@EReminder@@UAEPAVCEntityEvent@@XZ
       1556  613 000EA6A0 ?MakeCopy@EScroll@@UAEPAVCEntityEvent@@XZ
       1557  614 000EA5C0 ?MakeCopy@ESecretFound@@UAEPAVCEntityEvent@@XZ
       1558  615 000E18D0 ?MakeCopy@ESetViewer@@UAEPAVCEntityEvent@@XZ
       1559  616 00105560 ?MakeCopy@EShowConsole@@UAEPAVCEntityEvent@@XZ
       1560  617 000EA5E0 ?MakeCopy@ESound@@UAEPAVCEntityEvent@@XZ
       1561  618 000E1DD0 ?MakeCopy@ESpawnSpray@@UAEPAVCEntityEvent@@XZ
       1562  619 000E9F20 ?MakeCopy@EStart@@UAEPAVCEntityEvent@@XZ
       1563  61A 000EA2D0 ?MakeCopy@EStartAttack@@UAEPAVCEntityEvent@@XZ
       1564  61B 000CBB50 ?MakeCopy@EStartEffect@@UAEPAVCEntityEvent@@XZ
       1565  61C 000F1B70 ?MakeCopy@EStartSounds@@UAEPAVCEntityEvent@@XZ
       1566  61D 000E9F00 ?MakeCopy@EStop@@UAEPAVCEntityEvent@@XZ
       1567  61E 000EA2F0 ?MakeCopy@EStopAttack@@UAEPAVCEntityEvent@@XZ
       1568  61F 000EA310 ?MakeCopy@EStopBlindness@@UAEPAVCEntityEvent@@XZ
       1569  620 000EA330 ?MakeCopy@EStopDeafness@@UAEPAVCEntityEvent@@XZ
       1570  621 000CBAF0 ?MakeCopy@EStopEffect@@UAEPAVCEntityEvent@@XZ
       1571  622 000F1BD0 ?MakeCopy@EStopSounds@@UAEPAVCEntityEvent@@XZ
       1572  623 00105630 ?MakeCopy@ESubtitleEvent@@UAEPAVCEntityEvent@@XZ
       1573  624 000EA290 ?MakeCopy@ETeleportMovingBrush@@UAEPAVCEntityEvent@@XZ
       1574  625 000EA760 ?MakeCopy@ETextFX@@UAEPAVCEntityEvent@@XZ
       1575  626 000EA1C0 ?MakeCopy@ETrigger@@UAEPAVCEntityEvent@@XZ
       1576  627 000EAAD0 ?MakeCopy@EVoiceMessage@@UAEPAVCEntityEvent@@XZ
       1577  628 00058F40 ?MakeCopy@EnterVehicleEvent@@UAEPAVCEntityEvent@@XZ
       1578  629 00058FA0 ?MakeCopy@LeaveVehicleEvent@@UAEPAVCEntityEvent@@XZ
       1579  62A 00059B60 ?MakeCopy@ProxyBash@@UAEPAVCEntityEvent@@XZ
       1580  62B 0005A4F0 ?MakeCopy@ProxyBombConfigured@@UAEPAVCEntityEvent@@XZ
       1581  62C 000599A0 ?MakeCopy@ProxyBurstFire@@UAEPAVCEntityEvent@@XZ
       1582  62D 000599E0 ?MakeCopy@ProxyCeaseFire@@UAEPAVCEntityEvent@@XZ
       1583  62E 0005A490 ?MakeCopy@ProxyConfigureBomb@@UAEPAVCEntityEvent@@XZ
       1584  62F 0005A150 ?MakeCopy@ProxyDeath@@UAEPAVCEntityEvent@@XZ
       1585  630 00059D50 ?MakeCopy@ProxyDiscoverBody@@UAEPAVCEntityEvent@@XZ
       1586  631 0005A190 ?MakeCopy@ProxyDoIdleSpice@@UAEPAVCEntityEvent@@XZ
       1587  632 0005A030 ?MakeCopy@ProxyFall@@UAEPAVCEntityEvent@@XZ
       1588  633 00059960 ?MakeCopy@ProxyFire@@UAEPAVCEntityEvent@@XZ
       1589  634 00059CF0 ?MakeCopy@ProxyFlee@@UAEPAVCEntityEvent@@XZ
       1590  635 00059E70 ?MakeCopy@ProxyFling@@UAEPAVCEntityEvent@@XZ
       1591  636 00059EB0 ?MakeCopy@ProxyGetUp@@UAEPAVCEntityEvent@@XZ
       1592  637 00059DF0 ?MakeCopy@ProxyHop@@UAEPAVCEntityEvent@@XZ
       1593  638 00059DB0 ?MakeCopy@ProxyJump@@UAEPAVCEntityEvent@@XZ
       1594  639 00059C90 ?MakeCopy@ProxyLookAround@@UAEPAVCEntityEvent@@XZ
       1595  63A 00059650 ?MakeCopy@ProxyNewWeapon@@UAEPAVCEntityEvent@@XZ
       1596  63B 00059470 ?MakeCopy@ProxyPowerupInRange@@UAEPAVCEntityEvent@@XZ
       1597  63C 00059000 ?MakeCopy@ProxyPunchThrown@@UAEPAVCEntityEvent@@XZ
       1598  63D 0005A3B0 ?MakeCopy@ProxyReachForBomb@@UAEPAVCEntityEvent@@XZ
       1599  63E 00059AA0 ?MakeCopy@ProxyReleaseGrenade@@UAEPAVCEntityEvent@@XZ
       1600  63F 00059060 ?MakeCopy@ProxyReload@@UAEPAVCEntityEvent@@XZ
       1601  640 00059290 ?MakeCopy@ProxyReplenishHealth@@UAEPAVCEntityEvent@@XZ
       1602  641 000590C0 ?MakeCopy@ProxyReplenishPossible@@UAEPAVCEntityEvent@@XZ
       1603  642 000591B0 ?MakeCopy@ProxyReplenishRequest@@UAEPAVCEntityEvent@@XZ
       1604  643 00059380 ?MakeCopy@ProxyReplenishWeapon@@UAEPAVCEntityEvent@@XZ
       1605  644 00059560 ?MakeCopy@ProxyReplenishWeaponInSlot@@UAEPAVCEntityEvent@@XZ
       1606  645 00059B00 ?MakeCopy@ProxyResetFireAnimation@@UAEPAVCEntityEvent@@XZ
       1607  646 00059F10 ?MakeCopy@ProxyResetFling@@UAEPAVCEntityEvent@@XZ
       1608  647 00059E30 ?MakeCopy@ProxyRoll@@UAEPAVCEntityEvent@@XZ
       1609  648 00059BC0 ?MakeCopy@ProxySelectWeapon@@UAEPAVCEntityEvent@@XZ
       1610  649 00059C20 ?MakeCopy@ProxySetNewWeapon@@UAEPAVCEntityEvent@@XZ
       1611  64A 00059FD0 ?MakeCopy@ProxySetStance@@UAEPAVCEntityEvent@@XZ
       1612  64B 0005A0F0 ?MakeCopy@ProxyStop@@UAEPAVCEntityEvent@@XZ
       1613  64C 0005A1F0 ?MakeCopy@ProxyStopIdleSpice@@UAEPAVCEntityEvent@@XZ
       1614  64D 000598F0 ?MakeCopy@ProxySyncWeaponAmmo@@UAEPAVCEntityEvent@@XZ
       1615  64E 00059A40 ?MakeCopy@ProxyThrowGrenade@@UAEPAVCEntityEvent@@XZ
       1616  64F 0005A2D0 ?MakeCopy@ProxyTimedBombInRange@@UAEPAVCEntityEvent@@XZ
       1617  650 0005A090 ?MakeCopy@ProxyTouchDown@@UAEPAVCEntityEvent@@XZ
       1618  651 00059890 ?MakeCopy@ProxyWeaponChangeComplete@@UAEPAVCEntityEvent@@XZ
       1619  652 00059770 ?MakeCopy@ProxyWeaponToBack@@UAEPAVCEntityEvent@@XZ
       1620  653 00059830 ?MakeCopy@ProxyWeaponToHand@@UAEPAVCEntityEvent@@XZ
       1621  654 000597D0 ?MakeCopy@ProxyWeaponToHip@@UAEPAVCEntityEvent@@XZ
       1622  655 00059F70 ?MakeCopy@ProxyWounded@@UAEPAVCEntityEvent@@XZ
       1623  656 0005A550 ?MakeCopy@RespawnEvent@@UAEPAVCEntityEvent@@XZ
       1624  657 00058EE0 ?MakeCopy@SyncDescriptorEvent@@UAEPAVCEntityEvent@@XZ
       1625  658 00058EA0 ?MakeCopy@SyncPositioningEvent@@UAEPAVCEntityEvent@@XZ
       1626  659 000DC300 ?MakeCopy@TimedBombActive@@UAEPAVCEntityEvent@@XZ
       1627  65A 000DC380 ?MakeCopy@TimedBombDormant@@UAEPAVCEntityEvent@@XZ
       1628  65B 000DCA50 ?MakeCopy@TimedBombToActive@@UAEPAVCEntityEvent@@XZ
       1629  65C 000DCB10 ?MakeCopy@TimedBombToDormant@@UAEPAVCEntityEvent@@XZ
       1630  65D 00058E40 ?MakeCopy@TriggerGameEntity@@UAEPAVCEntityEvent@@XZ
       1631  65E 001015A0 ?MakeCopy@WorldLinkEvent@@UAEPAVCEntityEvent@@XZ
       1632  65F 00109A80 ?MarineDied@CPlayer@@QAEXPAVCEntity@@0@Z
       1633  660 0020F908 ?MarineFaceType_enum@@3VCEntityPropertyEnumType@@A
       1634  661 0020F8E8 ?MarineFaceType_values@@3PAVCEntityPropertyEnumValue@@A
       1635  662 0020EC00 ?MentalConditionType_enum@@3VCEntityPropertyEnumType@@A
       1636  663 0020EBE8 ?MentalConditionType_values@@3PAVCEntityPropertyEnumValue@@A
       1637  664 00215E40 ?MessageSound_enum@@3VCEntityPropertyEnumType@@A
       1638  665 00215E30 ?MessageSound_values@@3PAVCEntityPropertyEnumValue@@A
       1639  666 00217600 ?MissionObjectiveType_enum@@3VCEntityPropertyEnumType@@A
       1640  667 002175E0 ?MissionObjectiveType_values@@3PAVCEntityPropertyEnumValue@@A
       1641  668 002167C8 ?ModelSurfaceTypes_enum@@3VCEntityPropertyEnumType@@A
       1642  669 00216790 ?ModelSurfaceTypes_values@@3PAVCEntityPropertyEnumValue@@A
       1643  66A 00106870 ?MovementShakeView@CPlayer@@QAEXH@Z
       1644  66B 00216BE8 ?MusicType_enum@@3VCEntityPropertyEnumType@@A
       1645  66C 00216BC0 ?MusicType_values@@3PAVCEntityPropertyEnumValue@@A
       1646  66D 00090E90 ?NewMessage@CCompMessageID@@QAEXABVCTFileName@@@Z
       1647  66E 00213C00 ?NoiseStrengthType_enum@@3VCEntityPropertyEnumType@@A
       1648  66F 00213BD0 ?NoiseStrengthType_values@@3PAVCEntityPropertyEnumValue@@A
       1649  670 00115620 ?OnCreation@CCloseShoulderView@@UAEXXZ
       1650  671 001176D0 ?OnCreation@CFirstPersonView@@UAEXXZ
       1651  672 00118D50 ?OnCreation@CThirdPersonView@@UAEXXZ
       1652  673 0015CDD0 ?OnCreation@CWorldState@@UAEXXZ
       1653  674 00105FF0 ?OnEnd@CPlayer@@UAEXXZ
       1654  675 002118A8 ?PI7SideArmType_enum@@3VCEntityPropertyEnumType@@A
       1655  676 00211890 ?PI7SideArmType_values@@3PAVCEntityPropertyEnumValue@@A
       1656  677 00214338 ?ParticleBlendTypes_enum@@3VCEntityPropertyEnumType@@A
       1657  678 002142F8 ?ParticleBlendTypes_values@@3PAVCEntityPropertyEnumValue@@A
       1658  679 00215EC0 ?ParticleTexture_enum@@3VCEntityPropertyEnumType@@A
       1659  67A 00215E48 ?ParticleTexture_values@@3PAVCEntityPropertyEnumValue@@A
       1660  67B 00211888 ?Pi7FaceType_enum@@3VCEntityPropertyEnumType@@A
       1661  67C 00211878 ?Pi7FaceType_values@@3PAVCEntityPropertyEnumValue@@A
       1662  67D 00214468 ?PickupType_enum@@3VCEntityPropertyEnumType@@A
       1663  67E 00214428 ?PickupType_values@@3PAVCEntityPropertyEnumValue@@A
       1664  67F 00159E30 ?PlaceCubeAtLocation@CWorldState@@QAEPAVCEntity@@V?$Vector@M$02@@@Z
       1665  680 00158C40 ?PlaceMarker@CWorldState@@QAEPAVCEntity@@PAV2@V?$Vector@M$02@@11@Z
       1666  681 00159DB0 ?PlaceMarker@CWorldState@@QAEPAVCEntity@@PAV2@V?$Vector@M$02@@1@Z
       1667  682 0015A0A0 ?PlaceMarker@CWorldState@@QAEPAVCEntity@@PAV2@V?$Vector@M$02@@@Z
       1668  683 0015A530 ?PlaceMarkerAtLocation@CWorldState@@QAEPAVCEntity@@V?$Vector@M$02@@@Z
       1669  684 00159F60 ?PlaceSphereAtLocation@CWorldState@@QAEPAVCEntity@@V?$Vector@M$02@@@Z
       1670  685 00106150 ?PlayLightAnim@CPlayer@@QAEXJK@Z
       1671  686 0015C680 ?PlayNextAvailableMarine@CWorldState@@QAEHPAVCPlayer@@@Z
       1672  687 001067E0 ?PlayPowerUpSound@CPlayer@@QAEXXZ
       1673  688 001064C0 ?PlayTeleTypeSound@CPlayer@@QAEXXZ
       1674  689 00109E90 ?PlayVoiceMessage@CPlayer@@QAEXJ@Z
       1675  68A 00109300 ?PlayerInteracted@CPlayer@@QAEX_N@Z
       1676  68B 00217D38 ?PlayerState_enum@@3VCEntityPropertyEnumType@@A
       1677  68C 00217D10 ?PlayerState_values@@3PAVCEntityPropertyEnumValue@@A
       1678  68D 001152F0 ?PostMoving@CBotTrackView@@UAEXXZ
       1679  68E 00115E20 ?PostMoving@CCloseShoulderView@@UAEXXZ
       1680  68F 001170F0 ?PostMoving@CCommandView@@UAEXXZ
       1681  690 00117D60 ?PostMoving@CFirstPersonView@@UAEXXZ
       1682  691 001099D0 ?PostMoving@CPlayer@@UAEXXZ
       1683  692 00118350 ?PostMoving@CPlayerDeathView@@UAEXXZ
       1684  693 00119A00 ?PostMoving@CThirdPersonView@@UAEXXZ
       1685  694 00109930 ?PreMoving@CPlayer@@UAEXXZ
       1686  695 000AA1C0 ?Precache@CActor@@UAEXXZ
       1687  696 0010F520 ?PrescanAnalogueInput@@YAXPBVCWorld@@ABVCPlayerCharacter@@AAVCPlayerControls@@@Z
       1688  697 00096E50 ?PrintCenterMessage@@YAXPAVCEntity@@0ABVCTString@@MW4MessageSound@@@Z
       1689  698 000918C0 ?PrintConsole@@YAPBDXZ
       1690  699 0015A5B0 ?PrintPlayableMarines@CWorldState@@QAEXPAVCDrawPort@@@Z
       1691  69A 000918D0 ?PrintStack@@YAPBDPAVCEntity@@@Z
       1692  69B 001064E0 ?PrintSubtitles@CPlayer@@QAEXPAVCDrawPort@@@Z
       1693  69C 00109750 ?PrintTeleTypeMessage@CPlayer@@QAEXPAVCDrawPort@@@Z
       1694  69D 00159720 ?ProcessWeaponLoadout@CWorldState@@QAEXXZ
       1695  69E 00158F30 ?QuickLoad@CWorldState@@QAEXXZ
       1696  69F 001599C0 ?QuickLoadRequested@CWorldState@@SAXXZ
       1697  6A0 00158EC0 ?QuickSave@CWorldState@@QAEXXZ
       1698  6A1 0015BB30 ?QuickSaveRequested@CWorldState@@SAXXZ
       1699  6A2 00107CF0 ?Read_net@CPlayer@@UAEXPAVCNetworkMessage@@M@Z
       1700  6A3 00108930 ?Read_net_brief@CPlayer@@UAEXPAVCNetworkMessage@@M@Z
       1701  6A4 00114510 ?Read_t@CBotTrackView@@UAEXPAVCTStream@@H@Z
       1702  6A5 00115640 ?Read_t@CCloseShoulderView@@UAEXPAVCTStream@@H@Z
       1703  6A6 00116380 ?Read_t@CCommandView@@UAEXPAVCTStream@@H@Z
       1704  6A7 00090E20 ?Read_t@CCompMessageID@@QAEXAAVCTStream@@@Z
       1705  6A8 000BD9B0 ?Read_t@CCutSceneEntity@@UAEXPAVCTStream@@H@Z
       1706  6A9 001176F0 ?Read_t@CFirstPersonView@@UAEXPAVCTStream@@H@Z
       1707  6AA 000CAC40 ?Read_t@CMissionObjectiveLabel@@UAEXPAVCTStream@@H@Z
       1708  6AB 001044E0 ?Read_t@CMissionObjectiveManagerEntity@@UAEXPAVCTStream@@H@Z
       1709  6AC 000CE4E0 ?Read_t@CPickup@@UAEXPAVCTStream@@H@Z
       1710  6AD 001094A0 ?Read_t@CPlayer@@UAEXPAVCTStream@@H@Z
       1711  6AE 00117EF0 ?Read_t@CPlayerDeathView@@UAEXPAVCTStream@@H@Z
       1712  6AF 000D0730 ?Read_t@CPowerupBase@@UAEXPAVCTStream@@H@Z
       1713  6B0 000D3E20 ?Read_t@CReplenisherBase@@UAEXPAVCTStream@@H@Z
       1714  6B1 000D5B00 ?Read_t@CSingleUseMarineReplenisher@@UAEXPAVCTStream@@H@Z
       1715  6B2 00118930 ?Read_t@CSpectatorView@@UAEXPAVCTStream@@H@Z
       1716  6B3 00118D70 ?Read_t@CThirdPersonView@@UAEXPAVCTStream@@H@Z
       1717  6B4 000DF510 ?Read_t@CTimedBombField@@UAEXPAVCTStream@@H@Z
       1718  6B5 00157020 ?Read_t@CTracer@@UAEXPAVCTStream@@H@Z
       1719  6B6 00106C80 ?Rebirth@CPlayer@@QAEHABVCEntityEvent@@@Z
       1720  6B7 00109A40 ?ReceiveDamage@CPlayer@@UAEXPAVCEntity@@W4DamageType@@MABV?$Vector@M$02@@2@Z
       1721  6B8 001066D0 ?ReceiveItem@CPlayer@@UAEHABVCEntityEvent@@@Z
       1722  6B9 00106840 ?RecoilView@CPlayer@@QAEXM@Z
       1723  6BA 00053110 ?ReducePath@CPathBuilder@@QAEXPAV?$vector@V?$Vector@M$02@@V?$allocator@V?$Vector@M$02@@@_STL@@@_STL@@PAVCAccessMap@@H@Z
       1724  6BB 001060B0 ?ReenterVehicle@CPlayer@@QAEXPAVCEntity@@@Z
       1725  6BC 0010E5A0 ?RegisterEffectEntity@CPlayer@@QAEXPAVCEntity@@@Z
       1726  6BD 0010A100 ?Regroup@CPlayer@@QAEXXZ
       1727  6BE 000911C0 ?RemoveAttachmentFromModel@@YAXAAVCModelObject@@J@Z
       1728  6BF 000BBCD0 ?RemoveEventFromList@CCutSceneEntity@@QAE_NABUCSequenceEvent@@@Z
       1729  6C0 000BBD70 ?RemoveEventFromList@CCutSceneEntity@@QAE_NH@Z
       1730  6C1 00103DB0 ?RemoveObjective@CMissionObjectiveManagerEntity@@QAE_NABVCEntityPointer@@@Z
       1731  6C2 00103E30 ?RemoveObjectiveByName@CMissionObjectiveManagerEntity@@QAE_NABVCTString@@W4MissionObjectiveType@@@Z
       1732  6C3 0015B050 ?RemovePlayer@CWorldState@@QAEXPAVCPlayer@@@Z
       1733  6C4 0010C400 ?RenderCameraView@CPlayer@@QAEXPAVCDrawPort@@H@Z
       1734  6C5 00106310 ?RenderDummyView@CPlayer@@QAEXPAVCDrawPort@@@Z
       1735  6C6 0010C650 ?RenderGameView@CPlayer@@UAEXPAVCDrawPort@@PAX@Z
       1736  6C7 00109E60 ?RenderParticles@CPlayer@@UAEXXZ
       1737  6C8 0010BE40 ?RenderPlayerView@CPlayer@@QAEXPAVCDrawPort@@H@Z
       1738  6C9 002148F0 ?ReplenishWeaponType_enum@@3VCEntityPropertyEnumType@@A
       1739  6CA 002147E8 ?ReplenishWeaponType_values@@3PAVCEntityPropertyEnumValue@@A
       1740  6CB 002147E0 ?ReplenisherType_enum@@3VCEntityPropertyEnumType@@A
       1741  6CC 002147A0 ?ReplenisherType_values@@3PAVCEntityPropertyEnumValue@@A
       1742  6CD 001160A0 ?ResetLerpInfo@CCloseShoulderView@@QAEXXZ
       1743  6CE 00117390 ?ResetLerpInfo@CCommandView@@QAEXM@Z
       1744  6CF 00119CC0 ?ResetLerpInfo@CThirdPersonView@@QAEXM@Z
       1745  6D0 00052E90 ?SelectNextCell@CPathBuilder@@AAEPAPAVCAccessMapSearchState@@PAPAV2@PAV?$vector@PAVCAccessMapSearchState@@V?$allocator@PAVCAccessMapSearchState@@@_STL@@@_STL@@@Z
       1746  6D1 00109000 ?SendChangeStanceToGroup@CPlayer@@QAEXXZ
       1747  6D2 00109360 ?SendCommand@CPlayer@@QAEXPAVCGameBot@@HH@Z
       1748  6D3 000927A0 ?SendInRange@@YAXPAVCEntity@@W4EventEType@@ABV?$AABBox@M$02@@@Z
       1749  6D4 000DA8E0 ?SendTeleTypeMessage@CTeleTypeEntity@@QAEXK@Z
       1750  6D5 00092320 ?SendToTarget@@YAXPAVCEntity@@W4EventEType@@00H@Z
       1751  6D6 002153C0 ?SequenceEventTypes_enum@@3VCEntityPropertyEnumType@@A
       1752  6D7 00215388 ?SequenceEventTypes_values@@3PAVCEntityPropertyEnumValue@@A
       1753  6D8 00106010 ?SetActionApplied@CPlayer@@UAEXXZ
       1754  6D9 00090FF0 ?SetBoolFromBoolEType@@YAXAAHW4BoolEType@@@Z
       1755  6DA 000910F0 ?SetComponents@@YAXPAVCEntity@@AAVCModelObject@@KKKKK@Z
       1756  6DB 00106650 ?SetConnected@CPlayer@@QAEXXZ
       1757  6DC 000B8FE0 ?SetCutSceneLength@CCutSceneEntity@@QAEXH@Z
       1758  6DD 0015B200 ?SetCutSceneRunning@CWorldState@@QAEX_NVCEntityPointer@@@Z
       1759  6DE 000A67D0 ?SetDefaultProperties@C2DRainEffect@@UAEXXZ
       1760  6DF 000A94C0 ?SetDefaultProperties@CAccesMapEntity@@UAEXXZ
       1761  6E0 000AAEB0 ?SetDefaultProperties@CActor@@UAEXXZ
       1762  6E1 000E0300 ?SetDefaultProperties@CAnimationChanger@@UAEXXZ
       1763  6E2 000E0EC0 ?SetDefaultProperties@CAnimationHub@@UAEXXZ
       1764  6E3 000E18F0 ?SetDefaultProperties@CBackgroundViewer@@UAEXXZ
       1765  6E4 000AB440 ?SetDefaultProperties@CBeaconEntity@@UAEXXZ
       1766  6E5 000ABE10 ?SetDefaultProperties@CBehaviorChanger@@UAEXXZ
       1767  6E6 000ACEE0 ?SetDefaultProperties@CBloodSplatter@@UAEXXZ
       1768  6E7 000E2220 ?SetDefaultProperties@CBloodSpray@@UAEXXZ
       1769  6E8 000AF960 ?SetDefaultProperties@CBotCloaker@@UAEXXZ
       1770  6E9 000B0380 ?SetDefaultProperties@CBotEventTrackerWrapper@@UAEXXZ
       1771  6EA 0006A690 ?SetDefaultProperties@CBotGroupEntity@@UAEXXZ
       1772  6EB 000B0FE0 ?SetDefaultProperties@CBotSpawnerEntity@@UAEXXZ
       1773  6EC 001147F0 ?SetDefaultProperties@CBotTrackView@@UAEXXZ
       1774  6ED 00153F80 ?SetDefaultProperties@CBulletCase@@UAEXXZ
       1775  6EE 00154CE0 ?SetDefaultProperties@CBulletHitEffect@@UAEXXZ
       1776  6EF 000E3BB0 ?SetDefaultProperties@CCamera@@UAEXXZ
       1777  6F0 000E5C90 ?SetDefaultProperties@CCameraMarker@@UAEXXZ
       1778  6F1 00115900 ?SetDefaultProperties@CCloseShoulderView@@UAEXXZ
       1779  6F2 000B1C80 ?SetDefaultProperties@CCloudStorm@@UAEXXZ
       1780  6F3 00116650 ?SetDefaultProperties@CCommandView@@UAEXXZ
       1781  6F4 000B3770 ?SetDefaultProperties@CContainerField@@UAEXXZ
       1782  6F5 000B4360 ?SetDefaultProperties@CCounterEntity@@UAEXXZ
       1783  6F6 000B4D20 ?SetDefaultProperties@CCoverPoint@@UAEXXZ
       1784  6F7 000B53F0 ?SetDefaultProperties@CCube@@UAEXXZ
       1785  6F8 000B6E50 ?SetDefaultProperties@CCustomExplosion@@UAEXXZ
       1786  6F9 000B81A0 ?SetDefaultProperties@CCustomNozzleFlare@@UAEXXZ
       1787  6FA 000B9F20 ?SetDefaultProperties@CCutSceneEntity@@UAEXXZ
       1788  6FB 000BEF50 ?SetDefaultProperties@CDeadBodyEntity@@UAEXXZ
       1789  6FC 00067670 ?SetDefaultProperties@CDemoEntity@@UAEXXZ
       1790  6FD 000BFD80 ?SetDefaultProperties@CDestructiveExplosion@@UAEXXZ
       1791  6FE 000E6FD0 ?SetDefaultProperties@CDoorController@@UAEXXZ
       1792  6FF 000C1630 ?SetDefaultProperties@CExplosionEntity@@UAEXXZ
       1793  700 001176C0 ?SetDefaultProperties@CFirstPersonView@@UAEXXZ
       1794  701 000E77F0 ?SetDefaultProperties@CFogMarker@@UAEXXZ
       1795  702 000C5340 ?SetDefaultProperties@CFullScreenEffectsController@@UAEXXZ
       1796  703 0005F460 ?SetDefaultProperties@CGameEntity@@UAEXXZ
       1797  704 000C5C10 ?SetDefaultProperties@CGameOverTrigger@@UAEXXZ
       1798  705 000E83D0 ?SetDefaultProperties@CGlobal@@UAEXXZ
       1799  706 000C6060 ?SetDefaultProperties@CGodModeToggle@@UAEXXZ
       1800  707 000C6E50 ?SetDefaultProperties@CGrenade@@UAEXXZ
       1801  708 000EB0A0 ?SetDefaultProperties@CHazeMarker@@UAEXXZ
       1802  709 000640A0 ?SetDefaultProperties@CHologramMarineEntity@@UAEXXZ
       1803  70A 000C81D0 ?SetDefaultProperties@CIdleSkaController@@UAEXXZ
       1804  70B 00155D10 ?SetDefaultProperties@CImpactEffect@@UAEXXZ
       1805  70C 000C8600 ?SetDefaultProperties@CInGameDialog@@UAEXXZ
       1806  70D 000EB710 ?SetDefaultProperties@CLight@@UAEXXZ
       1807  70E 00064EB0 ?SetDefaultProperties@CMarineEntity@@UAEXXZ
       1808  70F 000C8D50 ?SetDefaultProperties@CMarineReplenisher@@UAEXXZ
       1809  710 000EC5F0 ?SetDefaultProperties@CMarker@@UAEXXZ
       1810  711 000EC760 ?SetDefaultProperties@CMirrorMarker@@UAEXXZ
       1811  712 00102820 ?SetDefaultProperties@CMissionObjectiveEntity@@UAEXXZ
       1812  713 000CA390 ?SetDefaultProperties@CMissionObjectiveLabel@@UAEXXZ
       1813  714 001031F0 ?SetDefaultProperties@CMissionObjectiveManagerEntity@@UAEXXZ
       1814  715 000ECC40 ?SetDefaultProperties@CModelDestruction@@UAEXXZ
       1815  716 000EE8A0 ?SetDefaultProperties@CModelHolder2@@UAEXXZ
       1816  717 000F09A0 ?SetDefaultProperties@CModelHolder3@@UAEXXZ
       1817  718 000ED230 ?SetDefaultProperties@CModelHolder@@UAEXXZ
       1818  719 000F3AA0 ?SetDefaultProperties@CMovingBrush@@UAEXXZ
       1819  71A 000F58B0 ?SetDefaultProperties@CMovingBrushMarker@@UAEXXZ
       1820  71B 000CAD30 ?SetDefaultProperties@CMultiReplenisher@@UAEXXZ
       1821  71C 000F5D00 ?SetDefaultProperties@CMusicChanger@@UAEXXZ
       1822  71D 000F6D20 ?SetDefaultProperties@CMusicHolder@@UAEXXZ
       1823  71E 00065410 ?SetDefaultProperties@CNPCMarineEntity@@UAEXXZ
       1824  71F 000CC7B0 ?SetDefaultProperties@CParticleEmitter@@UAEXXZ
       1825  720 0006CA10 ?SetDefaultProperties@CPathCellEntity@@UAEXXZ
       1826  721 00067CE0 ?SetDefaultProperties@CPi7Entity@@UAEXXZ
       1827  722 000CE460 ?SetDefaultProperties@CPickup@@UAEXXZ
       1828  723 0010A430 ?SetDefaultProperties@CPlayer@@UAEXXZ
       1829  724 00117ED0 ?SetDefaultProperties@CPlayerDeathView@@UAEXXZ
       1830  725 000F7EE0 ?SetDefaultProperties@CPlayerMarker@@UAEXXZ
       1831  726 000CF740 ?SetDefaultProperties@CPowerupBase@@UAEXXZ
       1832  727 000D0A80 ?SetDefaultProperties@CRandomBotSpawnerEntity@@UAEXXZ
       1833  728 000D20A0 ?SetDefaultProperties@CRandomTrigger@@UAEXXZ
       1834  729 000D2F70 ?SetDefaultProperties@CReplenisherBase@@UAEXXZ
       1835  72A 000D4290 ?SetDefaultProperties@CShadowCasterEntity@@UAEXXZ
       1836  72B 000D4590 ?SetDefaultProperties@CShadowController@@UAEXXZ
       1837  72C 000D4AA0 ?SetDefaultProperties@CSingleUseMarineReplenisher@@UAEXXZ
       1838  72D 000F8420 ?SetDefaultProperties@CSoundHolder@@UAEXXZ
       1839  72E 000D6BE0 ?SetDefaultProperties@CSpaceDebree@@UAEXXZ
       1840  72F 000D8B80 ?SetDefaultProperties@CSpaceDebreeController@@UAEXXZ
       1841  730 00118910 ?SetDefaultProperties@CSpectatorView@@UAEXXZ
       1842  731 000D94B0 ?SetDefaultProperties@CSphere@@UAEXXZ
       1843  732 000D99C0 ?SetDefaultProperties@CStartupLocationEntity@@UAEXXZ
       1844  733 000DA7D0 ?SetDefaultProperties@CTeleTypeEntity@@UAEXXZ
       1845  734 000DAD50 ?SetDefaultProperties@CTerrainAccessMapBuilder@@UAEXXZ
       1846  735 000F9220 ?SetDefaultProperties@CTerrainEntity@@UAEXXZ
       1847  736 000DBD70 ?SetDefaultProperties@CTerrainHole@@UAEXXZ
       1848  737 00066D80 ?SetDefaultProperties@CTestMarineEntity@@UAEXXZ
       1849  738 00118F60 ?SetDefaultProperties@CThirdPersonView@@UAEXXZ
       1850  739 000F9680 ?SetDefaultProperties@CTimeController@@UAEXXZ
       1851  73A 000DCBD0 ?SetDefaultProperties@CTimedBomb@@UAEXXZ
       1852  73B 000DE740 ?SetDefaultProperties@CTimedBombField@@UAEXXZ
       1853  73C 000FAB30 ?SetDefaultProperties@CTouchField@@UAEXXZ
       1854  73D 00156890 ?SetDefaultProperties@CTracer@@UAEXXZ
       1855  73E 000FBBC0 ?SetDefaultProperties@CTrigger@@UAEXXZ
       1856  73F 001349B0 ?SetDefaultProperties@CTutorialEntity@@UAEXXZ
       1857  740 001351B0 ?SetDefaultProperties@CTutorialStep@@UAEXXZ
       1858  741 000FC730 ?SetDefaultProperties@CVoiceHolder@@UAEXXZ
       1859  742 000DF860 ?SetDefaultProperties@CWaypointEntity@@UAEXXZ
       1860  743 000FE190 ?SetDefaultProperties@CWorldBase@@UAEXXZ
       1861  744 00101600 ?SetDefaultProperties@CWorldLink@@UAEXXZ
       1862  745 00102050 ?SetDefaultProperties@CWorldSettingsController@@UAEXXZ
       1863  746 00159120 ?SetDefaultProperties@CWorldState@@UAEXXZ
       1864  747 00052EE0 ?SetDestination@CPathBuilder@@QAEXV?$Vector@M$02@@@Z
       1865  748 001066E0 ?SetGameEnd@CPlayer@@QAEXXZ
       1866  749 0010A6B0 ?SetHacking@CPlayer@@QAEXVCEntityPointer@@@Z
       1867  74A 00118220 ?SetHitInfo@CPlayerDeathView@@QAEX_NPAVCEntity@@@Z
       1868  74B 00159940 ?SetLocalPlayer@CWorldState@@QAEXVCEntityPointer@@@Z
       1869  74C 00107C50 ?SetMultiplayerClass@CPlayer@@QAEXXZ
       1870  74D 00052EB0 ?SetOrigin@CPathBuilder@@QAEXV?$Vector@M$02@@@Z
       1871  74E 00118950 ?SetPlacement@CSpectatorView@@QAEXABVCPlacement3D@@@Z
       1872  74F 0015C1E0 ?SetPlayedMarine@CWorldState@@QAEXABKPAVCGameBot@@@Z
       1873  750 00103170 ?SetPlayerActionAllowed@CWorldState@@QAEX_N@Z
       1874  751 000918B0 ?SetPlayerAppearance@@YAHPAVCModelInstance@@PAVCPlayerCharacter@@AAVCTString@@H@Z
       1875  752 00095CC0 ?SetPlayerAppearance@@YAHPAVCModelObject@@PAVCPlayerCharacter@@AAVCTString@@H@Z
       1876  753 000530E0 ?SetProcessedPathContainer@CPathBuilder@@QAEXPAV?$vector@V?$Vector@M$02@@V?$allocator@V?$Vector@M$02@@@_STL@@@_STL@@@Z
       1877  754 00106040 ?SetReapplyingActions@CPlayer@@UAEXXZ
       1878  755 00052E20 ?SetSearchStates@CPathBuilder@@QAEXPAV?$vector@PAVCAccessMapSearchState@@V?$allocator@PAVCAccessMapSearchState@@@_STL@@@_STL@@@Z
       1879  756 00158E90 ?SetShouldShowAlignment@CWorldState@@QAEXH@Z
       1880  757 000B8FF0 ?SetStartOffset@CCutSceneEntity@@QAEHJ@Z
       1881  758 0010C980 ?SetUnconnected@CPlayer@@QAEXXZ
       1882  759 00158DE0 ?SetWeaponLoadoutConfigFilename@CWorldState@@QAEXABV?$basic_string@DV?$char_traits@D@_STL@@V?$allocator@D@2@@_STL@@@Z
       1883  75A 00106140 ?SetupLightSource@CPlayer@@QAEXXZ
       1884  75B 0010B970 ?SetupView@CPlayer@@QAEXPAVCDrawPort@@AAVCAnyProjection3D@@AAPAVCEntity@@AAVCPlacement3D@@AAKH@Z
       1885  75C 002166D8 ?ShadowType_enum@@3VCEntityPropertyEnumType@@A
       1886  75D 002166C0 ?ShadowType_values@@3PAVCEntityPropertyEnumValue@@A
       1887  75E 000BEE70 ?ShiftEvents@CCutSceneEntity@@QAEXHHW4SequenceEventTypes@@@Z
       1888  75F 0010F130 ?ShowMissionFailedMessage@CPlayer@@QAEXXZ
       1889  760 00052F30 ?ShowPathList@CPathBuilder@@QAEXPAVCGameBot@@PAV?$vector@V?$Vector@M$02@@V?$allocator@V?$Vector@M$02@@@_STL@@@_STL@@@Z
       1890  761 000530C0 ?ShowTargetList@CPathBuilder@@QAEXPAVCGameBot@@@Z
       1891  762 0010F290 ?ShowTeleTypeMessage@CPlayer@@QAEXPBDMMMM@Z
       1892  763 00215EF0 ?SoundType_enum@@3VCEntityPropertyEnumType@@A
       1893  764 00215EC8 ?SoundType_values@@3PAVCEntityPropertyEnumValue@@A
       1894  765 00092AA0 ?SpawnFlame@@YA?AVCEntityPointer@@PAVCEntity@@0ABV?$Vector@M$02@@@Z
       1895  766 00096B90 ?SpawnRangeSound@@YAXPAVCEntity@@0W4SoundType@@M@Z
       1896  767 00092A70 ?SpawnReminder@@YA?AVCEntityPointer@@PAVCEntity@@MJ@Z
       1897  768 00216030 ?SprayParticlesType_enum@@3VCEntityPropertyEnumType@@A
       1898  769 00215FA8 ?SprayParticlesType_values@@3PAVCEntityPropertyEnumValue@@A
       1899  76A 00096AA0 ?StartDebugTrigger@@YAXPAVCEntity@@@Z
       1900  76B 00091280 ?StartSkaAnim@@YAXPAVCEntity@@JKJM@Z
       1901  76C 000912C0 ?StartSkaAnimStr@@YAXPAVCModelInstance@@VCTString@@KJM@Z
       1902  76D 0015C200 ?StopPlayingMarine@CWorldState@@QAEXPAVCPlayer@@@Z
       1903  76E 0015C2C0 ?SwitchToPlayableMarine@CWorldState@@QAE_NPAVCPlayer@@I@Z
       1904  76F 0020ECA0 ?TalkativityType_enum@@3VCEntityPropertyEnumType@@A
       1905  770 0020EC70 ?TalkativityType_values@@3PAVCEntityPropertyEnumValue@@A
       1906  771 0010CE50 ?TeleportPlayer@CPlayer@@QAEXW4WorldLinkType@@@Z
       1907  772 00215060 ?TimedBombControllerEnum_enum@@3VCEntityPropertyEnumType@@A
       1908  773 00215040 ?TimedBombControllerEnum_values@@3PAVCEntityPropertyEnumValue@@A
       1909  774 00215248 ?TimedBombFieldType_enum@@3VCEntityPropertyEnumType@@A
       1910  775 00215230 ?TimedBombFieldType_values@@3PAVCEntityPropertyEnumValue@@A
       1911  776 00215270 ?TimedBombSignalState_enum@@3VCEntityPropertyEnumType@@A
       1912  777 00215250 ?TimedBombSignalState_values@@3PAVCEntityPropertyEnumValue@@A
       1913  778 00215038 ?TimedBombStateEnum_enum@@3VCEntityPropertyEnumType@@A
       1914  779 00215018 ?TimedBombStateEnum_values@@3PAVCEntityPropertyEnumValue@@A
       1915  77A 002170B8 ?TouchFieldType_enum@@3VCEntityPropertyEnumType@@A
       1916  77B 00217070 ?TouchFieldType_values@@3PAVCEntityPropertyEnumValue@@A
       1917  77C 002168D0 ?TouchOrDamageEvent_enum@@3VCEntityPropertyEnumType@@A
       1918  77D 002168B8 ?TouchOrDamageEvent_values@@3PAVCEntityPropertyEnumValue@@A
       1919  77E 0020EBE0 ?TrainingType_enum@@3VCEntityPropertyEnumType@@A
       1920  77F 0020EBB8 ?TrainingType_values@@3PAVCEntityPropertyEnumValue@@A
       1921  780 00106180 ?UpdateLevelStats@CPlayer@@QAEXXZ
       1922  781 0010A930 ?UpdatePositioning@CPlayer@@QAEXXZ
       1923  782 00052F00 ?UseEdges@CPathBuilder@@QAEX_N@Z
       1924  783 00216248 ?VisibilityBits_enum@@3VCEntityPropertyEnumType@@A
       1925  784 002161C8 ?VisibilityBits_values@@3PAVCEntityPropertyEnumValue@@A
       1926  785 00216540 ?WarpRotation_enum@@3VCEntityPropertyEnumType@@A
       1927  786 00216528 ?WarpRotation_values@@3PAVCEntityPropertyEnumValue@@A
       1928  787 00215408 ?WaypointType_enum@@3VCEntityPropertyEnumType@@A
       1929  788 002153E8 ?WaypointType_values@@3PAVCEntityPropertyEnumValue@@A
       1930  789 00216138 ?WeaponBits_enum@@3VCEntityPropertyEnumType@@A
       1931  78A 00216038 ?WeaponBits_values@@3PAVCEntityPropertyEnumValue@@A
       1932  78B 0010D690 ?WorldChange@CPlayer@@QAEHABVCEntityEvent@@@Z
       1933  78C 0010A1C0 ?WorldChangeDead@CPlayer@@QAEHABVCEntityEvent@@@Z
       1934  78D 00217448 ?WorldLinkType_enum@@3VCEntityPropertyEnumType@@A
       1935  78E 00217438 ?WorldLinkType_values@@3PAVCEntityPropertyEnumValue@@A
       1936  78F 00106940 ?Wounded@CPlayer@@QAEHABVCEntityEvent@@@Z
       1937  790 001082D0 ?Write_net@CPlayer@@UAEXPAVCNetworkMessage@@@Z
       1938  791 00108C10 ?Write_net_brief@CPlayer@@UAEXPAVCNetworkMessage@@@Z
       1939  792 00114520 ?Write_t@CBotTrackView@@UAEXPAVCTStream@@H@Z
       1940  793 00115650 ?Write_t@CCloseShoulderView@@UAEXPAVCTStream@@H@Z
       1941  794 00116390 ?Write_t@CCommandView@@UAEXPAVCTStream@@H@Z
       1942  795 00090E60 ?Write_t@CCompMessageID@@QAEXAAVCTStream@@@Z
       1943  796 000BED50 ?Write_t@CCutSceneEntity@@UAEXPAVCTStream@@H@Z
       1944  797 00117700 ?Write_t@CFirstPersonView@@UAEXPAVCTStream@@H@Z
       1945  798 00103740 ?Write_t@CMissionObjectiveManagerEntity@@UAEXPAVCTStream@@H@Z
       1946  799 000CE550 ?Write_t@CPickup@@UAEXPAVCTStream@@H@Z
       1947  79A 00109440 ?Write_t@CPlayer@@UAEXPAVCTStream@@H@Z
       1948  79B 00117F00 ?Write_t@CPlayerDeathView@@UAEXPAVCTStream@@H@Z
       1949  79C 000CF840 ?Write_t@CPowerupBase@@UAEXPAVCTStream@@H@Z
       1950  79D 000D3420 ?Write_t@CReplenisherBase@@UAEXPAVCTStream@@H@Z
       1951  79E 000D51E0 ?Write_t@CSingleUseMarineReplenisher@@UAEXPAVCTStream@@H@Z
       1952  79F 00118940 ?Write_t@CSpectatorView@@UAEXPAVCTStream@@H@Z
       1953  7A0 00118D80 ?Write_t@CThirdPersonView@@UAEXPAVCTStream@@H@Z
       1954  7A1 000DE7B0 ?Write_t@CTimedBombField@@UAEXPAVCTStream@@H@Z
       1955  7A2 00156250 ?Write_t@CTracer@@UAEXPAVCTStream@@H@Z
       1956  7A3 0022FAE0 ?aiCallCounters@CWorldState@@2V?$map@V?$basic_string@DV?$char_traits@D@_STL@@V?$allocator@D@2@@_STL@@JU?$less@V?$basic_string@DV?$char_traits@D@_STL@@V?$allocator@D@2@@_STL@@@2@V?$allocator@U?$pair@$$CBV?$basic_string@DV?$char_traits@D@_STL@@V?$allocator@D@2@@_STL@@J@_STL@@@2@@_STL@@A
       1957  7A4 0022FAEC ?aiMessageCounters@CWorldState@@2V?$map@V?$basic_string@DV?$char_traits@D@_STL@@V?$allocator@D@2@@_STL@@JU?$less@V?$basic_string@DV?$char_traits@D@_STL@@V?$allocator@D@2@@_STL@@@2@V?$allocator@U?$pair@$$CBV?$basic_string@DV?$char_traits@D@_STL@@V?$allocator@D@2@@_STL@@J@_STL@@@2@@_STL@@A
       1958  7A5 0022FAD4 ?aiProfileTimers@CWorldState@@2V?$map@V?$basic_string@DV?$char_traits@D@_STL@@V?$allocator@D@2@@_STL@@JU?$less@V?$basic_string@DV?$char_traits@D@_STL@@V?$allocator@D@2@@_STL@@@2@V?$allocator@U?$pair@$$CBV?$basic_string@DV?$char_traits@D@_STL@@V?$allocator@D@2@@_STL@@J@_STL@@@2@@_STL@@A
       1959  7A6 0022A740 ?cmp_bInitialStart@@3HA
       1960  7A7 0022A73C ?cmp_bUpdateInBackground@@3HA
       1961  7A8 0022A738 ?cmp_ppenDHPlayer@@3PAVCPlayer@@A
       1962  7A9 0022A734 ?cmp_ppenPlayer@@3PAVCPlayer@@A
       1963  7AA 00213530 ?coverpointType_enum@@3VCEntityPropertyEnumType@@A
       1964  7AB 002134F8 ?coverpointType_values@@3PAVCEntityPropertyEnumValue@@A
       1965  7AC 0022A744 ?plr_iHiScore@@3JA
       1966  7AD 00219708 ?rollDelay@CWorldState@@2MA
       1967  7AE 002135F8 ?triggerEffectType_enum@@3VCEntityPropertyEnumType@@A
       1968  7AF 002135B8 ?triggerEffectType_values@@3PAVCEntityPropertyEnumValue@@A
       1969  7B0 0022FACC ?variables@CWorldState@@2PAVCConsoleVariables@@A
       1970  7B1 00212C30 C2DRainEffect_DLLClass
       1971  7B2 00212D18 CAccesMapEntity_DLLClass
       1972  7B3 00212DC8 CActor_DLLClass
       1973  7B4 002154B0 CAnimationChanger_DLLClass
       1974  7B5 002155C0 CAnimationHub_DLLClass
       1975  7B6 00215630 CBackgroundViewer_DLLClass
       1976  7B7 00212E78 CBeaconEntity_DLLClass
       1977  7B8 00212F10 CBehaviorChanger_DLLClass
       1978  7B9 00212FD0 CBloodSplatter_DLLClass
       1979  7BA 002156C0 CBloodSpray_DLLClass
       1980  7BB 00213030 CBotCloaker_DLLClass
       1981  7BC 00213150 CBotEventTrackerWrapper_DLLClass
       1982  7BD 00211980 CBotGroupEntity_DLLClass
       1983  7BE 00213238 CBotSpawnerEntity_DLLClass
       1984  7BF 00218028 CBotTrackView_DLLClass
       1985  7C0 00219430 CBulletCase_DLLClass
       1986  7C1 00219520 CBulletHitEffect_DLLClass
       1987  7C2 002158A0 CCameraMarker_DLLClass
       1988  7C3 00215830 CCamera_DLLClass
       1989  7C4 002180B0 CCloseShoulderView_DLLClass
       1990  7C5 002132F8 CCloudStorm_DLLClass
       1991  7C6 00218168 CCommandView_DLLClass
       1992  7C7 00213408 CContainerField_DLLClass
       1993  7C8 002134A8 CCounterEntity_DLLClass
       1994  7C9 00213568 CCoverPoint_DLLClass
       1995  7CA 00213610 CCube_DLLClass
       1996  7CB 002136D0 CCustomExplosion_DLLClass
       1997  7CC 00213790 CCustomNozzleFlare_DLLClass
       1998  7CD 00213890 CCutSceneEntity_DLLClass
       1999  7CE 00213930 CDeadBodyEntity_DLLClass
       2000  7CF 00210AC0 CDemoEntity_DLLClass
       2001  7D0 002139F8 CDestructiveExplosion_DLLClass
       2002  7D1 00215B58 CDoorController_DLLClass
       2003  7D2 00213B48 CExplosionEntity_DLLClass
       2004  7D3 002181E8 CFirstPersonView_DLLClass
       2005  7D4 00215BF8 CFogMarker_DLLClass
       2006  7D5 00213C60 CFullScreenEffectsController_DLLClass
       2007  7D6 0020F168 CGameEntity_DLLClass
       2008  7D7 00213CC0 CGameOverTrigger_DLLClass
       2009  7D8 00216318 CGlobal_DLLClass
       2010  7D9 00213D20 CGodModeToggle_DLLClass
       2011  7DA 00213EA8 CGrenade_DLLClass
       2012  7DB 00216378 CHazeMarker_DLLClass
       2013  7DC 0020F1E0 CHologramMarineEntity_DLLClass
       2014  7DD 00213F28 CIdleSkaController_DLLClass
       2015  7DE 002195D0 CImpactEffect_DLLClass
       2016  7DF 00213FE8 CInGameDialog_DLLClass
       2017  7E0 00216478 CLight_DLLClass
       2018  7E1 0020F260 CMarineEntity_DLLClass
       2019  7E2 002140F8 CMarineReplenisher_DLLClass
       2020  7E3 002164D8 CMarker_DLLClass
       2021  7E4 00216558 CMirrorMarker_DLLClass
       2022  7E5 00217590 CMissionObjectiveEntity_DLLClass
       2023  7E6 00214198 CMissionObjectiveLabel_DLLClass
       2024  7E7 00217678 CMissionObjectiveManagerEntity_DLLClass
       2025  7E8 002165D0 CModelDestruction_DLLClass
       2026  7E9 00216728 CModelHolder2_DLLClass
       2027  7EA 00216820 CModelHolder3_DLLClass
       2028  7EB 00216630 CModelHolder_DLLClass
       2029  7EC 00216AC0 CMovingBrushMarker_DLLClass
       2030  7ED 00216A60 CMovingBrush_DLLClass
       2031  7EE 002142A8 CMultiReplenisher_DLLClass
       2032  7EF 00216B70 CMusicChanger_DLLClass
       2033  7F0 00216C98 CMusicHolder_DLLClass
       2034  7F1 0020F940 CNPCMarineEntity_DLLClass
       2035  7F2 002143D8 CParticleEmitter_DLLClass
       2036  7F3 002119F8 CPathCellEntity_DLLClass
       2037  7F4 002118C0 CPi7Entity_DLLClass
       2038  7F5 002144A0 CPickup_DLLClass
       2039  7F6 00218268 CPlayerDeathView_DLLClass
       2040  7F7 00216CF8 CPlayerMarker_DLLClass
       2041  7F8 00217FA8 CPlayer_DLLClass
       2042  7F9 00214590 CPowerupBase_DLLClass
       2043  7FA 002145F0 CRandomBotSpawnerEntity_DLLClass
       2044  7FB 00214750 CRandomTrigger_DLLClass
       2045  7FC 00214908 CReplenisherBase_DLLClass
       2046  7FD 00214968 CShadowCasterEntity_DLLClass
       2047  7FE 002149F8 CShadowController_DLLClass
       2048  7FF 00214B08 CSingleUseMarineReplenisher_DLLClass
       2049  800 00216E00 CSoundHolder_DLLClass
       2050  801 00214CC0 CSpaceDebreeController_DLLClass
       2051  802 00214BF0 CSpaceDebree_DLLClass
       2052  803 002182E8 CSpectatorView_DLLClass
       2053  804 00214D20 CSphere_DLLClass
       2054  805 00214DA0 CStartupLocationEntity_DLLClass
       2055  806 00214EC0 CTeleTypeEntity_DLLClass
       2056  807 00214F48 CTerrainAccessMapBuilder_DLLClass
       2057  808 00216E80 CTerrainEntity_DLLClass
       2058  809 00214FC8 CTerrainHole_DLLClass
       2059  80A 0020F9A0 CTestMarineEntity_DLLClass
       2060  80B 002183A0 CThirdPersonView_DLLClass
       2061  80C 00217020 CTimeController_DLLClass
       2062  80D 00215338 CTimedBombField_DLLClass
       2063  80E 002151E0 CTimedBomb_DLLClass
       2064  80F 002171A0 CTouchField_DLLClass
       2065  810 002196A0 CTracer_DLLClass
       2066  811 00217300 CTrigger_DLLClass
       2067  812 00218C30 CTutorialEntity_DLLClass
       2068  813 00218CE0 CTutorialStep_DLLClass
       2069  814 00217380 CVoiceHolder_DLLClass
       2070  815 00215420 CWaypointEntity_DLLClass
       2071  816 002173E8 CWorldBase_DLLClass
       2072  817 00217470 CWorldLink_DLLClass
       2073  818 002174D0 CWorldSettingsController_DLLClass
       2074  819 00219728 CWorldState_DLLClass

  Summary

       23000 .data
       74000 .rdata
       33000 .reloc
      198000 .text
