LIBRARY GAMEMP 
EXPORTS 
??0CKeyDefinition@@QAE@ABV0@@Z 
??0CKeyDefinition@@QAE@XZ 
??0CMenu@@QAE@ABV0@@Z 
??0CMenu@@QAE@XZ 
??0CMenuArrow@@QAE@ABV0@@Z 
??0CMenuArrow@@QAE@XZ 
??0CMenuBackground@@QAE@ABV0@@Z 
??0CMenuBackground@@QAE@XZ 
??0CMenuButton@@QAE@ABV0@@Z 
??0CMenuButton@@QAE@XZ 
??0CMenuEdit@@QAE@ABV0@@Z 
??0CMenuEdit@@QAE@XZ 
??0CMenuEditButton@@QAE@ABV0@@Z 
??0CMenuEditButton@@QAE@XZ 
??0CMenuEditTrigger@@QAE@ABV0@@Z 
??0CMenuEditTrigger@@QAE@XZ 
??0CMenuFileButton@@QAE@ABV0@@Z 
??0CMenuFileButton@@QAE@XZ 
??0CMenuGadget@@QAE@ABV0@@Z 
??0CMenuGadget@@QAE@XZ 
??0CMenuLevelButton@@QAE@ABV0@@Z 
??0CMenuLevelButton@@QAE@XZ 
??0CMenuModel@@QAE@ABV0@@Z 
??0CMenuModel@@QAE@XZ 
??0CMenuServerList@@QAE@ABV0@@Z 
??0CMenuServerList@@QAE@XZ 
??0CMenuSlider@@QAE@ABV0@@Z 
??0CMenuSlider@@QAE@XZ 
??0CMenuSystem@@QAE@ABV0@@Z 
??0CMenuSystem@@QAE@XZ 
??0CMenuTitle@@QAE@ABV0@@Z 
??0CMenuTitle@@QAE@XZ 
??0CMenuTrigger@@QAE@ABV0@@Z 
??0CMenuTrigger@@QAE@XZ 
??0CScrollButton@@QAE@ABV0@@Z 
??0CScrollButton@@QAE@XZ 
??0CScrollImage@@QAE@ABV0@@Z 
??0CScrollImage@@QAE@XZ 
??0CScrollText@@QAE@ABV0@@Z 
??0CScrollText@@QAE@XZ 
??0CTextureButton@@QAE@ABV0@@Z 
??0CTextureButton@@QAE@XZ 
??0CTextureLabel@@QAE@ABV0@@Z 
??0CTextureLabel@@QAE@XZ 
??1CKeyDefinition@@UAE@XZ 
??1CMenu@@UAE@XZ 
??1CMenuArrow@@UAE@XZ 
??1CMenuBackground@@QAE@XZ 
??1CMenuButton@@UAE@XZ 
??1CMenuEdit@@UAE@XZ 
??1CMenuEditButton@@UAE@XZ 
??1CMenuEditTrigger@@UAE@XZ 
??1CMenuFileButton@@UAE@XZ 
??1CMenuGadget@@UAE@XZ 
??1CMenuLevelButton@@UAE@XZ 
??1CMenuModel@@UAE@XZ 
??1CMenuServerList@@UAE@XZ 
??1CMenuSlider@@UAE@XZ 
??1CMenuSystem@@QAE@XZ 
??1CMenuTitle@@UAE@XZ 
??1CMenuTrigger@@UAE@XZ 
??1CScrollButton@@UAE@XZ 
??1CScrollImage@@UAE@XZ 
??1CScrollText@@UAE@XZ 
??1CTextureButton@@UAE@XZ 
??1CTextureLabel@@UAE@XZ 
??4CKeyDefinition@@QAEAAV0@ABV0@@Z 
??4CMenu@@QAEAAV0@ABV0@@Z 
??4CMenuArrow@@QAEAAV0@ABV0@@Z 
??4CMenuBackground@@QAEAAV0@ABV0@@Z 
??4CMenuButton@@QAEAAV0@ABV0@@Z 
??4CMenuEdit@@QAEAAV0@ABV0@@Z 
??4CMenuEditButton@@QAEAAV0@ABV0@@Z 
??4CMenuEditTrigger@@QAEAAV0@ABV0@@Z 
??4CMenuFileButton@@QAEAAV0@ABV0@@Z 
??4CMenuGadget@@QAEAAV0@ABV0@@Z 
??4CMenuLevelButton@@QAEAAV0@ABV0@@Z 
??4CMenuModel@@QAEAAV0@ABV0@@Z 
??4CMenuServerList@@QAEAAV0@ABV0@@Z 
??4CMenuSlider@@QAEAAV0@ABV0@@Z 
??4CMenuSystem@@QAEAAV0@ABV0@@Z 
??4CMenuSystemPtr@@QAEAAU0@ABU0@@Z 
??4CMenuTitle@@QAEAAV0@ABV0@@Z 
??4CMenuTrigger@@QAEAAV0@ABV0@@Z 
??4CScrollButton@@QAEAAV0@ABV0@@Z 
??4CScrollImage@@QAEAAV0@ABV0@@Z 
??4CScrollText@@QAEAAV0@ABV0@@Z 
??4CTextureButton@@QAEAAV0@ABV0@@Z 
??4CTextureLabel@@QAEAAV0@ABV0@@Z 
??4MenuActions@CMenu@@QAEAAU01@ABU01@@Z 
??CCMenuSystemPtr@@QAEPAVCMenuSystem@@XZ 
??_7CKeyDefinition@@6B@ 
??_7CMenu@@6B@ 
??_7CMenuArrow@@6B@ 
??_7CMenuButton@@6B@ 
??_7CMenuEdit@@6B@ 
??_7CMenuEditButton@@6B@ 
??_7CMenuEditTrigger@@6B@ 
??_7CMenuFileButton@@6B@ 
??_7CMenuGadget@@6B@ 
??_7CMenuLevelButton@@6B@ 
??_7CMenuModel@@6B@ 
??_7CMenuServerList@@6B@ 
??_7CMenuSlider@@6B@ 
??_7CMenuTitle@@6B@ 
??_7CMenuTrigger@@6B@ 
??_7CScrollButton@@6B@ 
??_7CScrollImage@@6B@ 
??_7CScrollText@@6B@ 
??_7CTextureButton@@6B@ 
??_7CTextureLabel@@6B@ 
?Activate@CMenuSystem@@QAEXXZ 
?AdjustFirstOnScreen@CMenuServerList@@QAEXXZ 
?Appear@CKeyDefinition@@UAEXXZ 
?Appear@CMenuGadget@@UAEXXZ 
?ApplyCurrentPosition@CMenuSlider@@QAEXXZ 
?ApplyCurrentSelection@CMenuEditTrigger@@QAEXXZ 
?ApplyCurrentSelection@CMenuTrigger@@QAEXXZ 
?ApplyGivenPosition@CMenuSlider@@QAEXJJJ@Z 
?Back@MenuActions@CMenu@@SAXXZ 
?BoxArrow@@YA?AV?$AABBox@M$01@@H@Z 
?BoxBack@@YA?AV?$AABBox@M$01@@XZ 
?BoxBigLeft@@YA?AV?$AABBox@M$01@@M@Z 
?BoxBigRight@@YA?AV?$AABBox@M$01@@M@Z 
?BoxBigRow@@YA?AV?$AABBox@M$01@@M@Z 
?BoxChangePlayer@@YA?AV?$AABBox@M$01@@JJ@Z 
?BoxInfoTable@@YA?AV?$AABBox@M$01@@J@Z 
?BoxKeyRow@@YA?AV?$AABBox@M$01@@M@Z 
?BoxLargeRow@@YA?AV?$AABBox@M$01@@M@Z 
?BoxLeftColumn@@YA?AV?$AABBox@M$01@@M@Z 
?BoxMBButtonBkg@@YA?AV?$AABBox@M$01@@XZ 
?BoxMBScrollBkg@@YA?AV?$AABBox@M$01@@XZ 
?BoxMBStartButton@@YA?AV?$AABBox@M$01@@XZ 
?BoxMBTextBkg@@YA?AV?$AABBox@M$01@@XZ 
?BoxMBTextDown@@YA?AV?$AABBox@M$01@@XZ 
?BoxMBTextScroll@@YA?AV?$AABBox@M$01@@XZ 
?BoxMBTextUp@@YA?AV?$AABBox@M$01@@XZ 
?BoxMBTitle@@YA?AV?$AABBox@M$01@@XZ 
?BoxMediumLeft@@YA?AV?$AABBox@M$01@@M@Z 
?BoxMediumMiddle@@YA?AV?$AABBox@M$01@@M@Z 
?BoxMediumRight@@YA?AV?$AABBox@M$01@@M@Z 
?BoxMediumRow@@YA?AV?$AABBox@M$01@@M@Z 
?BoxNext@@YA?AV?$AABBox@M$01@@XZ 
?BoxNoDown@@YA?AV?$AABBox@M$01@@M@Z 
?BoxNoUp@@YA?AV?$AABBox@M$01@@MM@Z 
?BoxPlayerEdit@@YA?AV?$AABBox@M$01@@M@Z 
?BoxPlayerModel@@YA?AV?$AABBox@M$01@@XZ 
?BoxPlayerModelName@@YA?AV?$AABBox@M$01@@XZ 
?BoxPlayerSwitch@@YA?AV?$AABBox@M$01@@M@Z 
?BoxPopup@@YA?AV?$AABBox@M$01@@XZ 
?BoxPopupLabel@@YA?AV?$AABBox@M$01@@XZ 
?BoxPopupNoLarge@@YA?AV?$AABBox@M$01@@XZ 
?BoxPopupNoSmall@@YA?AV?$AABBox@M$01@@XZ 
?BoxPopupYesLarge@@YA?AV?$AABBox@M$01@@XZ 
?BoxPopupYesSmall@@YA?AV?$AABBox@M$01@@XZ 
?BoxSaveLoad@@YA?AV?$AABBox@M$01@@M@Z 
?BoxTitle@@YA?AV?$AABBox@M$01@@XZ 
?BoxVersion@@YA?AV?$AABBox@M$01@@XZ 
?ChangeToMenu@CMenuSystem@@QAEXPAVCMenu@@@Z 
?Clear@CMenuEdit@@QAEXXZ 
?CompareSessions@CMenuServerList@@SAHPBX0@Z 
?Deactivate@CMenuSystem@@QAEXXZ 
?DefineControl@CKeyDefinition@@QAEXUHControl@@@Z 
?DeleteConfirmed@CMenuFileButton@@SAXXZ 
?DeleteGame@CMenuFileButton@@QAEXXZ 
?Destruct@CMenu@@UAEXXZ 
?Destruct@CMenuBackground@@QAEXXZ 
?Destruct@CMenuGadget@@QAEXXZ 
?Destruct@CMenuSystem@@QAEXXZ 
?Disable@CMenuGadget@@UAEXXZ 
?Disappear@CKeyDefinition@@UAEXXZ 
?Disappear@CMenuGadget@@UAEXXZ 
?DoLoad@CMenuFileButton@@QAEXXZ 
?DoSave@CMenuFileButton@@QAEXXZ 
?Enable@CMenuGadget@@UAEXXZ 
?EndMenu@CMenu@@UAEXXZ 
?FadeIn@CMenuSystem@@QAEXM@Z 
?FadeOut@CMenuSystem@@QAEXM@Z 
?FillListItems@CMenu@@UAEXXZ 
?FixupBackButton@CMenuSystem@@QAEXPAVCMenu@@@Z 
?FloatBoxToPixBox@@YA?AV?$AABBox@J$01@@PBVCDrawPort@@ABV?$AABBox@M$01@@@Z 
?ForceMouseFocus@CMenuSystem@@QAEXPAVCMenuGadget@@@Z 
?FormatText@CScrollText@@QAEXPAVCDrawPort@@J@Z 
?GetBackground@CMenuSystem@@QAEPAVCMenuBackground@@XZ 
?GetCharOffset@CMenuButton@@QAEJPAVCDrawPort@@J@Z 
?GetCharOffset@CMenuEditButton@@QAEJPAVCDrawPort@@J@Z 
?GetCurrentColor@CMenuGadget@@UAEKXZ 
?GetCurrentMenu@CMenuSystem@@QAEPAVCMenu@@XZ 
?GetDrawPort@CMenuSystem@@QAEPAVCDrawPort@@XZ 
?GetInGameMenu@CMenuSystem@@QAEPAVCMenu@@XZ 
?GetLastActivatedGadget@CMenuSystem@@QAEPAVCMenuGadget@@XZ 
?GetLoadSaveMenu@CMenuSystem@@QAEPAVCMenu@@XZ 
?GetMainMenu@CMenuSystem@@QAEPAVCMenu@@XZ 
?GetMainWindowHandle@CMenuSystem@@QAEPAUHWND__@@XZ 
?GetMissionBriefingMenu@CMenuSystem@@QAEPAVCMenu@@XZ 
?GetMousePosition@CMenuSystem@@QAEXAAJ0@Z 
?GetNewLoopValue@CMenuEditTrigger@@QAEJHJJ@Z 
?GetNewLoopValue@CMenuTrigger@@QAEJHJJ@Z 
?GetParentMenu@CMenuSystem@@QAEPAVCMenu@@XZ 
?GetRenderingBox@CScrollButton@@QAEXAAV?$AABBox@M$01@@@Z 
?GetScrollBarFullBox@CMenuServerList@@QAE?AV?$AABBox@J$01@@XZ 
?GetScrollBarHandleBox@CMenuServerList@@QAE?AV?$AABBox@J$01@@XZ 
?GetSliderBox@CMenuServerList@@QAE?AV?$AABBox@J$01@@JJJV2@@Z 
?GetSliderBox@CMenuSlider@@QAE?AV?$AABBox@J$01@@XZ 
?GoToParent@MenuActions@CMenu@@SAXXZ 
?HideMouseCursor@CMenuSystem@@QAEXXZ 
?HideThumbnail@CMenuSystem@@QAEXXZ 
?InRootMenu@CMenuSystem@@QAEHXZ 
?Initialize@CMenu@@UAEXPAV1@PAVCMenuGadget@@_N@Z 
?Initialize@CMenuBackground@@QAEXXZ 
?Initialize@CMenuButton@@QAEXABV?$AABBox@M$01@@W4FontSizesType@CMenuSystem@@PBD22PAVCMenuGadget@@3P6AXXZPAVCMenu@@HJH@Z 
?Initialize@CMenuEditButton@@QAEXABV?$AABBox@M$01@@W4FontSizesType@CMenuSystem@@PBD22PAVCMenuGadget@@3P6AXXZPAVCMenu@@HJH@Z 
?Initialize@CMenuEditTrigger@@QAEXABV?$AABBox@M$01@@W4FontSizesType@CMenuSystem@@PBDPAVCTString@@J2PAVCMenuGadget@@4P6AXJ@Z5PAVCMenu@@@Z 
?Initialize@CMenuGadget@@QAEXPBDHH@Z 
?Initialize@CMenuServerList@@QAEXABV?$AABBox@M$01@@PAVCMenuGadget@@1PAVCMenuEditButton@@PAVCMenuEdit@@P6AXXZ@Z 
?Initialize@CMenuSlider@@QAEXABV?$AABBox@M$01@@W4FontSizesType@CMenuSystem@@PBD2PAVCMenuGadget@@3P6AXXZP6AXJ@ZJJJ@Z 
?Initialize@CMenuSystem@@QAEXPAUHWND__@@@Z 
?Initialize@CMenuTitle@@QAEXABV?$AABBox@M$01@@PBD@Z 
?Initialize@CMenuTrigger@@QAEXABV?$AABBox@M$01@@W4FontSizesType@CMenuSystem@@PBDPAVCTranslatedString@@J2PAVCMenuGadget@@4P6AXJ@Z5PAVCMenu@@@Z 
?Initialize@CScrollImage@@QAEXABV?$AABBox@M$01@@HHH@Z 
?Initialize@CScrollText@@QAEXABV?$AABBox@M$01@@VCTString@@@Z 
?Initialize@CTextureButton@@QAEXABV?$AABBox@M$01@@HHVCTString@@11PAVCMenuGadget@@2P6AXXZH_N@Z 
?Initialize@CTextureLabel@@QAEXABV?$AABBox@M$01@@HHVCTString@@PAVCMenuGadget@@2@Z 
?InitializeWeather@CMenuBackground@@AAEXXZ 
?IsActive@CMenuSystem@@QAEHXZ 
?IsDefiningKey@CMenuSystem@@QAEHXZ 
?IsEditting@CMenuSystem@@QAEHXZ 
?IsMissionBriefingActive@CMenuSystem@@QAEHXZ 
?IsSeparator@CMenuGadget@@UAEHXZ 
?IsVisible@CMenuSystem@@QAEHXZ 
?KillAllFocuses@CMenu@@QAEXXZ 
?KillAllFocusses@CMenuSystem@@QAEXXZ 
?LoadTextFile@CScrollText@@QAEXVCTString@@@Z 
?MissionFailed@CMenuSystem@@QAEXXZ 
?OnActivate@CKeyDefinition@@UAEXXZ 
?OnActivate@CMenuArrow@@UAEXXZ 
?OnActivate@CMenuButton@@UAEXXZ 
?OnActivate@CMenuEdit@@UAEXXZ 
?OnActivate@CMenuEditButton@@UAEXXZ 
?OnActivate@CMenuFileButton@@UAEXXZ 
?OnActivate@CMenuGadget@@UAEXXZ 
?OnActivate@CMenuLevelButton@@UAEXXZ 
?OnActivate@CTextureButton@@UAEXXZ 
?OnChar@CMenu@@UAEHUtagMSG@@@Z 
?OnChar@CMenuEdit@@UAEHUtagMSG@@@Z 
?OnChar@CMenuGadget@@UAEHUtagMSG@@@Z 
?OnChar@CMenuSystem@@QAEXUtagMSG@@@Z 
?OnFadeEnd@CMenu@@UAEXH@Z 
?OnFadeStart@CMenu@@UAEXH@Z 
?OnKeyDown@CKeyDefinition@@UAEHH@Z 
?OnKeyDown@CMenu@@UAEHH@Z 
?OnKeyDown@CMenuEdit@@UAEHH@Z 
?OnKeyDown@CMenuEditTrigger@@UAEHH@Z 
?OnKeyDown@CMenuFileButton@@UAEHH@Z 
?OnKeyDown@CMenuGadget@@UAEHH@Z 
?OnKeyDown@CMenuServerList@@UAEHH@Z 
?OnKeyDown@CMenuSlider@@UAEHH@Z 
?OnKeyDown@CMenuSystem@@QAEXH@Z 
?OnKeyDown@CMenuTrigger@@UAEHH@Z 
?OnKeyDown@CScrollImage@@UAEHH@Z 
?OnKeyDown@CScrollText@@UAEHH@Z 
?OnKeyUp@CMenu@@UAEHH@Z 
?OnKeyUp@CMenuSystem@@QAEXH@Z 
?OnKillFocus@CMenuEdit@@UAEXXZ 
?OnKillFocus@CMenuFileButton@@UAEXXZ 
?OnKillFocus@CMenuGadget@@UAEXXZ 
?OnKillFocus@CMenuServerList@@UAEXXZ 
?OnMouseMove@CMenuSystem@@QAEXJJ@Z 
?OnMouseOver@CMenuGadget@@UAEXJJ@Z 
?OnMouseOver@CMenuServerList@@UAEXJJ@Z 
?OnMouseOver@CScrollButton@@UAEXJJ@Z 
?OnMouseOver@CScrollImage@@UAEXJJ@Z 
?OnMouseOver@CScrollText@@UAEXJJ@Z 
?OnMouseOver@CTextureButton@@UAEXJJ@Z 
?OnSetFocus@CMenuFileButton@@UAEXXZ 
?OnSetFocus@CMenuGadget@@UAEXXZ 
?OnSetFocus@CMenuLevelButton@@UAEXXZ 
?OnSetFocus@CMenuServerList@@UAEXXZ 
?OnSetNextInList@CMenuEditTrigger@@QAEXH@Z 
?OnSetNextInList@CMenuTrigger@@QAEXH@Z 
?OnStringCanceled@CMenuEdit@@UAEXXZ 
?OnStringCanceled@CMenuFileButton@@UAEXXZ 
?OnStringChanged@CMenuEdit@@UAEXXZ 
?OnStringChanged@CMenuFileButton@@UAEXXZ 
?PauseSound@CMenuSystem@@QAEXXZ 
?PixBoxToFloatBox@@YA?AV?$AABBox@M$01@@PBVCDrawPort@@ABV?$AABBox@J$01@@@Z 
?PlaySoundA@CMenuSystem@@QAEXPAVCSoundData@@@Z 
?PlaySoundA@CMenuSystem@@QAEXW4SoundsType@1@@Z 
?PrintInBox@CMenuServerList@@QAEXPAVCDrawPort@@JJJVCTString@@K@Z 
?RefreshText@CMenuFileButton@@QAEXXZ 
?Render2DTexture@CMenuBackground@@AAEXPAVCDrawPort@@PAVCTextureObject@@MMMMMMMMMMMMK@Z 
?Render@CKeyDefinition@@UAEXPAVCDrawPort@@@Z 
?Render@CMenu@@UAEXPAVCDrawPort@@@Z 
?Render@CMenuArrow@@UAEXPAVCDrawPort@@@Z 
?Render@CMenuBackground@@QAEXPAVCDrawPort@@H@Z 
?Render@CMenuButton@@UAEXPAVCDrawPort@@@Z 
?Render@CMenuEdit@@UAEXPAVCDrawPort@@@Z 
?Render@CMenuEditButton@@UAEXPAVCDrawPort@@@Z 
?Render@CMenuEditTrigger@@UAEXPAVCDrawPort@@@Z 
?Render@CMenuFileButton@@UAEXPAVCDrawPort@@@Z 
?Render@CMenuGadget@@UAEXPAVCDrawPort@@@Z 
?Render@CMenuModel@@UAEXPAVCDrawPort@@@Z 
?Render@CMenuServerList@@UAEXPAVCDrawPort@@@Z 
?Render@CMenuSlider@@UAEXPAVCDrawPort@@@Z 
?Render@CMenuTitle@@UAEXPAVCDrawPort@@@Z 
?Render@CMenuTrigger@@UAEXPAVCDrawPort@@@Z 
?Render@CScrollButton@@UAEXPAVCDrawPort@@@Z 
?Render@CScrollImage@@UAEXPAVCDrawPort@@@Z 
?Render@CScrollText@@UAEXPAVCDrawPort@@@Z 
?Render@CTextureButton@@UAEXPAVCDrawPort@@@Z 
?Render@CTextureLabel@@UAEXPAVCDrawPort@@@Z 
?RenderBackdrop@CMenuBackground@@AAEXPAVCDrawPort@@@Z 
?RenderBackground@CMenuSystem@@QAEXPAVCDrawPort@@H@Z 
?RenderClouds@CMenuBackground@@AAEXPAVCDrawPort@@MMM@Z 
?RenderCredits@CMenuBackground@@AAEXPAVCDrawPort@@H@Z 
?RenderDroplets@CMenuBackground@@AAEXPAVCDrawPort@@@Z 
?RenderFading@CMenuSystem@@AAEXPAVCDrawPort@@@Z 
?RenderLogos@CMenuBackground@@QAEXPAVCDrawPort@@@Z 
?RenderMouseCursor@CMenuSystem@@QAEXPAVCDrawPort@@@Z 
?RenderRain@CMenuBackground@@AAEXPAVCDrawPort@@MMM@Z 
?RenderWeather@CMenuBackground@@AAEXPAVCDrawPort@@@Z 
?ResumeSound@CMenuSystem@@QAEXXZ 
?RewindSound@CMenuSystem@@QAEXXZ 
?SampleOffsets@CMenuBackground@@AAEXPAVCPlayer@@@Z 
?SampleTimeStamp@CMenuBackground@@AAEXXZ 
?SaveConfirmed@CMenuFileButton@@SAXXZ 
?SaveDescription@CMenuFileButton@@QAEXXZ 
?SaveGame@CMenuFileButton@@QAEX_N@Z 
?Scroll@CScrollImage@@QAEXM@Z 
?Scroll@CScrollText@@QAEXM@Z 
?ScrollLineDown@CScrollImage@@QAEXXZ 
?ScrollLineDown@CScrollText@@QAEXXZ 
?ScrollLineUp@CScrollImage@@QAEXXZ 
?ScrollLineUp@CScrollText@@QAEXXZ 
?ScrollList@CMenu@@QAEXJ@Z 
?ScrollPageDown@CScrollImage@@QAEXXZ 
?ScrollPageDown@CScrollText@@QAEXXZ 
?ScrollPageUp@CScrollImage@@QAEXXZ 
?ScrollPageUp@CScrollText@@QAEXXZ 
?SetControlBindingNames@CKeyDefinition@@QAEXH@Z 
?SetDefiningKey@CMenuSystem@@QAEXH@Z 
?SetEditting@CMenuSystem@@QAEXH@Z 
?SetFontBig@@YAXPAVCDrawPort@@@Z 
?SetFontMedium@@YAXPAVCDrawPort@@@Z 
?SetFontSize@CMenuSystem@@QAEXPAVCDrawPort@@W4FontSizesType@1@@Z 
?SetFontSmall@@YAXPAVCDrawPort@@@Z 
?SetFontTitle@@YAXPAVCDrawPort@@@Z 
?SetImage@CScrollImage@@QAEXHABVCTString@@@Z 
?SetLastActivatedGadget@CMenuSystem@@QAEXPAVCMenuGadget@@@Z 
?SetLoadSaveMenu@CMenuFileButton@@QAEXPAVCLoadSaveMenu@@@Z 
?SetMenuLerping@CMenuSystem@@AAEXXZ 
?SetMouseUsedLast@CMenuSystem@@QAEXH@Z 
?SetSize@CScrollImage@@QAEXH@Z 
?SetText@CMenuButton@@QAEXVCTString@@@Z 
?SetText@CMenuEditButton@@QAEXVCTString@@@Z 
?SetVisible@CMenuSystem@@QAEXH@Z 
?ShowMouseCursor@CMenuSystem@@QAEXXZ 
?ShowThumbnail@CMenuSystem@@QAEXABVCTFileName@@@Z 
?SliderPixToIndex@CMenuServerList@@QAEJJJJV?$AABBox@J$01@@@Z 
?SortAndFilterServers@CMenuServerList@@QAEXXZ 
?StartBackgroundMusic@CMenuSystem@@QAEXXZ 
?StartCampaignGame@CMenuSystem@@QAEXPAVCMenu@@@Z 
?StartEdit@CMenuFileButton@@QAEXXZ 
?StartMenu@CMenu@@UAEXXZ 
?StartMenu@CMenuSystem@@QAEXPAD@Z 
?StartNetworkGame@CMenuSystem@@QAEXPAVCMenu@@@Z 
?StopBackgroundMusic@CMenuSystem@@QAEXXZ 
?StopMenu@CMenuSystem@@QAEXH@Z 
?StopSound@CMenuSystem@@QAEXXZ 
?Think@CKeyDefinition@@UAEXXZ 
?Think@CMenu@@UAEXXZ 
?Think@CMenuGadget@@UAEXXZ 
?UpdateDroplets@CMenuBackground@@AAEXXZ 
?UpdateMenu@CMenuSystem@@QAEXPAVCDrawPort@@H@Z 
?UpdateMissionBriefing@CMenuSystem@@QAEXPAVCDrawPort@@@Z 
?UpdateMouseFocus@CMenuSystem@@AAEXPAVCDrawPort@@J@Z 
?UpdateWeather@CMenuBackground@@AAEXXZ 
?UpdateWind@CMenuBackground@@AAEXXZ 
?editBuffers@CMenuServerList@@2PAVCTString@@A 
?fileToDelete@CMenuFileButton@@2PAV1@A 
?fileToSave@CMenuFileButton@@2PAV1@A 
?lastSortColumn@CMenuServerList@@2JA 
?lastSortOrder@CMenuServerList@@2HA 
?menuSystem@CMenuSystemPtr@@2PAVCMenuSystem@@A 
?originalDescription@CMenuFileButton@@2VCTString@@A 
?tempDescription@CMenuFileButton@@2VCTString@@A 
GAME_Create 
GAME_Destroy 
