Microsoft (R) COFF/PE Dumper Version 10.00.30319.01
Copyright (C) Microsoft Corporation.  All rights reserved.


Dump of file EntitiesMP.dll

File Type: DLL

  Section contains the following exports for EntitiesMP.dll

    00000000 characteristics
    411F9F45 time date stamp Sun Aug 15 20:37:09 2004
        0.00 version
           1 ordinal base
        2036 number of functions
        2036 number of names

    ordinal hint RVA      name

          1    0 0000D790 ??0ABZSwitchMarine@@QAE@ABV0@@Z
          2    1 00156620 ??0ABZSwitchMarine@@QAE@XZ
          3    2 000D1BF0 ??0CActor@@QAE@ABV0@@Z
          4    3 000D2A20 ??0CActor@@QAE@XZ
          5    4 000D19D0 ??0CActorActivate@@QAE@ABV0@@Z
          6    5 000D2850 ??0CActorActivate@@QAE@XZ
          7    6 000D1AD0 ??0CActorDeactivate@@QAE@ABV0@@Z
          8    7 000D28B0 ??0CActorDeactivate@@QAE@XZ
          9    8 00141440 ??0CBotTrackView@@QAE@ABV0@@Z
         10    9 00141420 ??0CBotTrackView@@QAE@XZ
         11    A 00143050 ??0CCloseShoulderView@@QAE@ABV0@@Z
         12    B 00143030 ??0CCloseShoulderView@@QAE@XZ
         13    C 00144A80 ??0CCommandView@@QAE@ABV0@@Z
         14    D 00144A60 ??0CCommandView@@QAE@XZ
         15    E 00170730 ??0CCompMessageID@@QAE@ABV0@@Z
         16    F 00170710 ??0CCompMessageID@@QAE@XZ
         17   10 001469F0 ??0CFirstPersonView@@QAE@ABV0@@Z
         18   11 00146980 ??0CFirstPersonView@@QAE@XZ
         19   12 000115F0 ??0CPathBuilder@@QAE@ABV0@@Z
         20   13 00052470 ??0CPathBuilder@@QAE@XZ
         21   14 0000DE10 ??0CPlayer@@QAE@ABV0@@Z
         22   15 0015AA70 ??0CPlayer@@QAE@XZ
         23   16 00147F70 ??0CPlayerDeathView@@QAE@ABV0@@Z
         24   17 00147EC0 ??0CPlayerDeathView@@QAE@XZ
         25   18 00149550 ??0CSpectatorView@@QAE@ABV0@@Z
         26   19 00149530 ??0CSpectatorView@@QAE@XZ
         27   1A 00109950 ??0CTeleTypeEntity@@QAE@ABV0@@Z
         28   1B 001098B0 ??0CTeleTypeEntity@@QAE@XZ
         29   1C 0014A3F0 ??0CThirdPersonView@@QAE@ABV0@@Z
         30   1D 0014A3D0 ??0CThirdPersonView@@QAE@XZ
         31   1E 0016D360 ??0CWorldState@@QAE@ABV0@@Z
         32   1F 00195EE0 ??0CWorldState@@QAE@XZ
         33   20 00004E50 ??0DamageEvent@@QAE@ABV0@@Z
         34   21 0006C620 ??0DamageEvent@@QAE@XZ
         35   22 0016EA80 ??0EActivate@@QAE@ABV0@@Z
         36   23 0011D450 ??0EActivate@@QAE@XZ
         37   24 00107330 ??0EActivateSpaceDebree@@QAE@ABV0@@Z
         38   25 00107C70 ??0EActivateSpaceDebree@@QAE@XZ
         39   26 000D1730 ??0EAnimTriggerAndConfigure@@QAE@ABV0@@Z
         40   27 000D2760 ??0EAnimTriggerAndConfigure@@QAE@XZ
         41   28 00127AD0 ??0EBrushDeath@@QAE@ABV0@@Z
         42   29 00129340 ??0EBrushDeath@@QAE@XZ
         43   2A 001277D0 ??0EBrushDestroyed@@QAE@ABV0@@Z
         44   2B 001291E0 ??0EBrushDestroyed@@QAE@XZ
         45   2C 0000C930 ??0ECameraStart@@QAE@ABV0@@Z
         46   2D 00155F60 ??0ECameraStart@@QAE@XZ
         47   2E 0000CB50 ??0ECameraStop@@QAE@ABV0@@Z
         48   2F 00156030 ??0ECameraStop@@QAE@XZ
         49   30 0016FCD0 ??0ECenterMessage@@QAE@ABV0@@Z
         50   31 0011E210 ??0ECenterMessage@@QAE@XZ
         51   32 00001020 ??0EChangeAnim@@QAE@ABV0@@Z
         52   33 00111600 ??0EChangeAnim@@QAE@XZ
         53   34 000B5010 ??0EChangeMusic@@QAE@ABV0@@Z
         54   35 0012E760 ??0EChangeMusic@@QAE@XZ
         55   36 0016F340 ??0ECloseDoor@@QAE@ABV0@@Z
         56   37 0011DBB0 ??0ECloseDoor@@QAE@XZ
         57   38 0016FE20 ??0EComputerMessage@@QAE@ABV0@@Z
         58   39 0011E340 ??0EComputerMessage@@QAE@XZ
         59   3A 0016FBA0 ??0ECredits@@QAE@ABV0@@Z
         60   3B 0011E100 ??0ECredits@@QAE@XZ
         61   3C 000E2A50 ??0ECutscene@@QAE@ABV0@@Z
         62   3D 000E3340 ??0ECutscene@@QAE@XZ
         63   3E 0016EB90 ??0EDeactivate@@QAE@ABV0@@Z
         64   3F 0011D520 ??0EDeactivate@@QAE@XZ
         65   40 0016D150 ??0EDeactivateEffect@@QAE@ABV0@@Z
         66   41 000FA450 ??0EDeactivateEffect@@QAE@XZ
         67   42 0000CF90 ??0EDisconnected@@QAE@ABV0@@Z
         68   43 001561D0 ??0EDisconnected@@QAE@XZ
         69   44 0016ED60 ??0EEnd@@QAE@ABV0@@Z
         70   45 0011D6A0 ??0EEnd@@QAE@XZ
         71   46 0016ECA0 ??0EEnvironmentStart@@QAE@ABV0@@Z
         72   47 0011D5E0 ??0EEnvironmentStart@@QAE@XZ
         73   48 0016ED00 ??0EEnvironmentStop@@QAE@ABV0@@Z
         74   49 0011D640 ??0EEnvironmentStop@@QAE@XZ
         75   4A 00060AD0 ??0EExplosion@@QAE@ABV0@@Z
         76   4B 000EAF30 ??0EExplosion@@QAE@XZ
         77   4C 001276D0 ??0EHit@@QAE@ABV0@@Z
         78   4D 00129180 ??0EHit@@QAE@XZ
         79   4E 00170080 ??0EHitBySpaceShipBeam@@QAE@ABV0@@Z
         80   4F 0011E550 ??0EHitBySpaceShipBeam@@QAE@XZ
         81   50 0016FA70 ??0EHudPicFX@@QAE@ABV0@@Z
         82   51 0011E030 ??0EHudPicFX@@QAE@XZ
         83   52 000D3410 ??0EInitBeacon@@QAE@ABV0@@Z
         84   53 000D39D0 ??0EInitBeacon@@QAE@XZ
         85   54 0000C810 ??0EInitializePlayer@@QAE@ABV0@@Z
         86   55 00155EE0 ??0EInitializePlayer@@QAE@XZ
         87   56 00101440 ??0EInitializeShadowRenderer@@QAE@ABV0@@Z
         88   57 00101950 ??0EInitializeShadowRenderer@@QAE@XZ
         89   58 0016F470 ??0EKilledEnemy@@QAE@ABV0@@Z
         90   59 0011DC90 ??0EKilledEnemy@@QAE@XZ
         91   5A 00056AC0 ??0ELaunchGrenade@@QAE@ABV0@@Z
         92   5B 000F2A10 ??0ELaunchGrenade@@QAE@XZ
         93   5C 0000D980 ??0ELocalTeleTypeMessage@@QAE@ABV0@@Z
         94   5D 00156780 ??0ELocalTeleTypeMessage@@QAE@XZ
         95   5E 000012F0 ??0EModel2Activate@@QAE@ABV0@@Z
         96   5F 00123850 ??0EModel2Activate@@QAE@XZ
         97   60 000013F0 ??0EModel2Deactivate@@QAE@ABV0@@Z
         98   61 001238B0 ??0EModel2Deactivate@@QAE@XZ
         99   62 00001A10 ??0EModel3Activate@@QAE@ABV0@@Z
        100   63 00126230 ??0EModel3Activate@@QAE@XZ
        101   64 00001B10 ??0EModel3Deactivate@@QAE@ABV0@@Z
        102   65 00126290 ??0EModel3Deactivate@@QAE@XZ
        103   66 00001C10 ??0EModel3Initialize@@QAE@ABV0@@Z
        104   67 001262F0 ??0EModel3Initialize@@QAE@XZ
        105   68 00001910 ??0EModelDeath@@QAE@ABV0@@Z
        106   69 00121630 ??0EModelDeath@@QAE@XZ
        107   6A 0012CB50 ??0EMusicChangerTrigger@@QAE@ABV0@@Z
        108   6B 0012D250 ??0EMusicChangerTrigger@@QAE@XZ
        109   6C 000B5250 ??0ENetChangeMusic@@QAE@ABV0@@Z
        110   6D 0012E850 ??0ENetChangeMusic@@QAE@XZ
        111   6E 00001610 ??0ENetStartSound@@QAE@ABV0@@Z
        112   6F 00130B60 ??0ENetStartSound@@QAE@XZ
        113   70 00001710 ??0ENetStopSound@@QAE@ABV0@@Z
        114   71 00130BC0 ??0ENetStopSound@@QAE@XZ
        115   72 0000DCF0 ??0ENetworkTeleTypeMessage@@QAE@ABV0@@Z
        116   73 001568D0 ??0ENetworkTeleTypeMessage@@QAE@XZ
        117   74 0016F230 ??0EOpenDoor@@QAE@ABV0@@Z
        118   75 0011DAE0 ??0EOpenDoor@@QAE@XZ
        119   76 00001510 ??0EPlaySoundOnce@@QAE@ABV0@@Z
        120   77 00130B00 ??0EPlaySoundOnce@@QAE@XZ
        121   78 0000D090 ??0EPlayerDeath@@QAE@ABV0@@Z
        122   79 001562B0 ??0EPlayerDeath@@QAE@XZ
        123   7A 0000CE70 ??0EPlayerRebirth@@QAE@ABV0@@Z
        124   7B 00156160 ??0EPlayerRebirth@@QAE@XZ
        125   7C 0000D430 ??0EPlayerStats@@QAE@ABV0@@Z
        126   7D 00156430 ??0EPlayerStats@@QAE@XZ
        127   7E 00001810 ??0ERangeModelDestruction@@QAE@ABV0@@Z
        128   7F 001215D0 ??0ERangeModelDestruction@@QAE@XZ
        129   80 0000CD70 ??0ERebirth@@QAE@ABV0@@Z
        130   81 001560F0 ??0ERebirth@@QAE@XZ
        131   82 0016F1B0 ??0EReceiveScore@@QAE@ABV0@@Z
        132   83 0011DA60 ??0EReceiveScore@@QAE@XZ
        133   84 0016EFB0 ??0EReminder@@QAE@ABV0@@Z
        134   85 0011D860 ??0EReminder@@QAE@XZ
        135   86 0016F810 ??0EScroll@@QAE@ABV0@@Z
        136   87 0011DE90 ??0EScroll@@QAE@XZ
        137   88 0016F5C0 ??0ESecretFound@@QAE@ABV0@@Z
        138   89 0011DD50 ??0ESecretFound@@QAE@XZ
        139   8A 000B4F00 ??0ESetViewer@@QAE@ABV0@@Z
        140   8B 001133D0 ??0ESetViewer@@QAE@XZ
        141   8C 0000D330 ??0EShowConsole@@QAE@ABV0@@Z
        142   8D 001563B0 ??0EShowConsole@@QAE@XZ
        143   8E 0016F6E0 ??0ESound@@QAE@ABV0@@Z
        144   8F 0011DDC0 ??0ESound@@QAE@XZ
        145   90 001135C0 ??0ESpawnSpray@@QAE@ABV0@@Z
        146   91 00114010 ??0ESpawnSpray@@QAE@XZ
        147   92 0016E970 ??0EStart@@QAE@ABV0@@Z
        148   93 0011D380 ??0EStart@@QAE@XZ
        149   94 0016F030 ??0EStartAttack@@QAE@ABV0@@Z
        150   95 0011D8D0 ??0EStartAttack@@QAE@XZ
        151   96 0016D0F0 ??0EStartEffect@@QAE@ABV0@@Z
        152   97 000FA3F0 ??0EStartEffect@@QAE@XZ
        153   98 001278D0 ??0EStartSounds@@QAE@ABV0@@Z
        154   99 00129240 ??0EStartSounds@@QAE@XZ
        155   9A 0016E910 ??0EStop@@QAE@ABV0@@Z
        156   9B 0011D310 ??0EStop@@QAE@XZ
        157   9C 0016F090 ??0EStopAttack@@QAE@ABV0@@Z
        158   9D 0011D930 ??0EStopAttack@@QAE@XZ
        159   9E 0016F0F0 ??0EStopBlindness@@QAE@ABV0@@Z
        160   9F 0011D990 ??0EStopBlindness@@QAE@XZ
        161   A0 0016F150 ??0EStopDeafness@@QAE@ABV0@@Z
        162   A1 0011D9F0 ??0EStopDeafness@@QAE@XZ
        163   A2 0016D090 ??0EStopEffect@@QAE@ABV0@@Z
        164   A3 000FA390 ??0EStopEffect@@QAE@XZ
        165   A4 001279D0 ??0EStopSounds@@QAE@ABV0@@Z
        166   A5 001292A0 ??0EStopSounds@@QAE@XZ
        167   A6 0000D580 ??0ESubtitleEvent@@QAE@ABV0@@Z
        168   A7 001564F0 ??0ESubtitleEvent@@QAE@XZ
        169   A8 0016EF50 ??0ETeleportMovingBrush@@QAE@ABV0@@Z
        170   A9 0011D7F0 ??0ETeleportMovingBrush@@QAE@XZ
        171   AA 0016F940 ??0ETextFX@@QAE@ABV0@@Z
        172   AB 0011DF60 ??0ETextFX@@QAE@XZ
        173   AC 0016EDC0 ??0ETrigger@@QAE@ABV0@@Z
        174   AD 0011D720 ??0ETrigger@@QAE@XZ
        175   AE 0016FF50 ??0EVoiceMessage@@QAE@ABV0@@Z
        176   AF 0011E470 ??0EVoiceMessage@@QAE@XZ
        177   B0 001700E0 ??0PlayerStats@@QAE@XZ
        178   B1 00003740 ??0ProxyBash@@QAE@ABV0@@Z
        179   B2 0006BB40 ??0ProxyBash@@QAE@XZ
        180   B3 00005570 ??0ProxyBombConfigured@@QAE@ABV0@@Z
        181   B4 0006C970 ??0ProxyBombConfigured@@QAE@XZ
        182   B5 000031D0 ??0ProxyBurstFire@@QAE@ABV0@@Z
        183   B6 0006B920 ??0ProxyBurstFire@@QAE@XZ
        184   B7 00003340 ??0ProxyCeaseFire@@QAE@ABV0@@Z
        185   B8 0006B9C0 ??0ProxyCeaseFire@@QAE@XZ
        186   B9 00005470 ??0ProxyConfigureBomb@@QAE@ABV0@@Z
        187   BA 0006C910 ??0ProxyConfigureBomb@@QAE@XZ
        188   BB 00004AE0 ??0ProxyDeath@@QAE@ABV0@@Z
        189   BC 0006C440 ??0ProxyDeath@@QAE@XZ
        190   BD 0002D330 ??0ProxyDeathThroe@@QAE@ABV0@@Z
        191   BE 000741A0 ??0ProxyDeathThroe@@QAE@XZ
        192   BF 00003D20 ??0ProxyDiscoverBody@@QAE@ABV0@@Z
        193   C0 0006BDB0 ??0ProxyDiscoverBody@@QAE@XZ
        194   C1 00004C50 ??0ProxyDoIdleSpice@@QAE@ABV0@@Z
        195   C2 0006C4E0 ??0ProxyDoIdleSpice@@QAE@XZ
        196   C3 000047C0 ??0ProxyFall@@QAE@ABV0@@Z
        197   C4 0006C2F0 ??0ProxyFall@@QAE@XZ
        198   C5 00003060 ??0ProxyFire@@QAE@ABV0@@Z
        199   C6 0006B860 ??0ProxyFire@@QAE@XZ
        200   C7 00003C00 ??0ProxyFlee@@QAE@ABV0@@Z
        201   C8 0006BD30 ??0ProxyFlee@@QAE@XZ
        202   C9 00004230 ??0ProxyFling@@QAE@ABV0@@Z
        203   CA 0006C080 ??0ProxyFling@@QAE@XZ
        204   CB 00004380 ??0ProxyGetUp@@QAE@ABV0@@Z
        205   CC 0006C120 ??0ProxyGetUp@@QAE@XZ
        206   CD 00003F90 ??0ProxyHop@@QAE@ABV0@@Z
        207   CE 0006BF00 ??0ProxyHop@@QAE@XZ
        208   CF 00003E40 ??0ProxyJump@@QAE@ABV0@@Z
        209   D0 0006BE40 ??0ProxyJump@@QAE@XZ
        210   D1 00003AE0 ??0ProxyLookAround@@QAE@ABV0@@Z
        211   D2 0006BCB0 ??0ProxyLookAround@@QAE@XZ
        212   D3 00002170 ??0ProxyPunchThrown@@QAE@ABV0@@Z
        213   D4 0006B160 ??0ProxyPunchThrown@@QAE@XZ
        214   D5 000052A0 ??0ProxyReachForBomb@@QAE@ABV0@@Z
        215   D6 0006C860 ??0ProxyReachForBomb@@QAE@XZ
        216   D7 00003540 ??0ProxyReleaseGrenade@@QAE@ABV0@@Z
        217   D8 0006BA80 ??0ProxyReleaseGrenade@@QAE@XZ
        218   D9 00002270 ??0ProxyReload@@QAE@ABV0@@Z
        219   DA 0006B1C0 ??0ProxyReload@@QAE@XZ
        220   DB 00002730 ??0ProxyReplenishHealth@@QAE@ABV0@@Z
        221   DC 0006B470 ??0ProxyReplenishHealth@@QAE@XZ
        222   DD 00002370 ??0ProxyReplenishPossible@@QAE@ABV0@@Z
        223   DE 0006B270 ??0ProxyReplenishPossible@@QAE@XZ
        224   DF 00002560 ??0ProxyReplenishRequest@@QAE@ABV0@@Z
        225   E0 0006B370 ??0ProxyReplenishRequest@@QAE@XZ
        226   E1 00002920 ??0ProxyReplenishWeapon@@QAE@ABV0@@Z
        227   E2 0006B580 ??0ProxyReplenishWeapon@@QAE@XZ
        228   E3 00003640 ??0ProxyResetFireAnimation@@QAE@ABV0@@Z
        229   E4 0006BAE0 ??0ProxyResetFireAnimation@@QAE@XZ
        230   E5 00004480 ??0ProxyResetFling@@QAE@ABV0@@Z
        231   E6 0006C180 ??0ProxyResetFling@@QAE@XZ
        232   E7 000040E0 ??0ProxyRoll@@QAE@ABV0@@Z
        233   E8 0006BFC0 ??0ProxyRoll@@QAE@XZ
        234   E9 00003840 ??0ProxySelectWeapon@@QAE@ABV0@@Z
        235   EA 0006BBB0 ??0ProxySelectWeapon@@QAE@XZ
        236   EB 000039A0 ??0ProxySetNewWeapon@@QAE@ABV0@@Z
        237   EC 0006BC30 ??0ProxySetNewWeapon@@QAE@XZ
        238   ED 000046A0 ??0ProxySetStance@@QAE@ABV0@@Z
        239   EE 0006C270 ??0ProxySetStance@@QAE@XZ
        240   EF 000049E0 ??0ProxyStop@@QAE@ABV0@@Z
        241   F0 0006C3C0 ??0ProxyStop@@QAE@XZ
        242   F1 00004D50 ??0ProxyStopIdleSpice@@QAE@ABV0@@Z
        243   F2 0006C540 ??0ProxyStopIdleSpice@@QAE@XZ
        244   F3 00002F20 ??0ProxySyncWeaponAmmo@@QAE@ABV0@@Z
        245   F4 0006B7D0 ??0ProxySyncWeaponAmmo@@QAE@XZ
        246   F5 00003440 ??0ProxyThrowGrenade@@QAE@ABV0@@Z
        247   F6 0006BA20 ??0ProxyThrowGrenade@@QAE@XZ
        248   F7 000050D0 ??0ProxyTimedBombInRange@@QAE@ABV0@@Z
        249   F8 0006C770 ??0ProxyTimedBombInRange@@QAE@XZ
        250   F9 000048E0 ??0ProxyTouchDown@@QAE@ABV0@@Z
        251   FA 0006C360 ??0ProxyTouchDown@@QAE@XZ
        252   FB 00002E20 ??0ProxyWeaponChangeComplete@@QAE@ABV0@@Z
        253   FC 0006B760 ??0ProxyWeaponChangeComplete@@QAE@XZ
        254   FD 00002B20 ??0ProxyWeaponToBack@@QAE@ABV0@@Z
        255   FE 0006B640 ??0ProxyWeaponToBack@@QAE@XZ
        256   FF 00002D20 ??0ProxyWeaponToHand@@QAE@ABV0@@Z
        257  100 0006B700 ??0ProxyWeaponToHand@@QAE@XZ
        258  101 00002C20 ??0ProxyWeaponToHip@@QAE@ABV0@@Z
        259  102 0006B6A0 ??0ProxyWeaponToHip@@QAE@XZ
        260  103 00004580 ??0ProxyWounded@@QAE@ABV0@@Z
        261  104 0006C1F0 ??0ProxyWounded@@QAE@XZ
        262  105 00005670 ??0RespawnEvent@@QAE@ABV0@@Z
        263  106 0006C9F0 ??0RespawnEvent@@QAE@XZ
        264  107 00002050 ??0SyncDescriptorEvent@@QAE@ABV0@@Z
        265  108 0006B0F0 ??0SyncDescriptorEvent@@QAE@XZ
        266  109 00001EA0 ??0SyncPositioningEvent@@QAE@ABV0@@Z
        267  10A 0006B010 ??0SyncPositioningEvent@@QAE@XZ
        268  10B 00014D40 ??0TimedBombActive@@QAE@ABV0@@Z
        269  10C 0010D200 ??0TimedBombActive@@QAE@XZ
        270  10D 00015060 ??0TimedBombDormant@@QAE@ABV0@@Z
        271  10E 0010D330 ??0TimedBombDormant@@QAE@XZ
        272  10F 00014B20 ??0TimedBombToActive@@QAE@ABV0@@Z
        273  110 0010D140 ??0TimedBombToActive@@QAE@XZ
        274  111 00014E40 ??0TimedBombToDormant@@QAE@ABV0@@Z
        275  112 0010D270 ??0TimedBombToDormant@@QAE@XZ
        276  113 00001DA0 ??0TriggerGameEntity@@QAE@ABV0@@Z
        277  114 0006AF70 ??0TriggerGameEntity@@QAE@XZ
        278  115 0013BAD0 ??0WorldLinkEvent@@QAE@ABV0@@Z
        279  116 0013C090 ??0WorldLinkEvent@@QAE@XZ
        280  117 0000D830 ??1ABZSwitchMarine@@UAE@XZ
        281  118 000D1EF0 ??1CActor@@UAE@XZ
        282  119 000D1A10 ??1CActorActivate@@UAE@XZ
        283  11A 000D1B10 ??1CActorDeactivate@@UAE@XZ
        284  11B 00141D60 ??1CBotTrackView@@UAE@XZ
        285  11C 00143910 ??1CCloseShoulderView@@UAE@XZ
        286  11D 001453B0 ??1CCommandView@@UAE@XZ
        287  11E 001707C0 ??1CCompMessageID@@QAE@XZ
        288  11F 001472E0 ??1CFirstPersonView@@UAE@XZ
        289  120 00052490 ??1CPathBuilder@@UAE@XZ
        290  121 0000F070 ??1CPlayer@@UAE@XZ
        291  122 00148890 ??1CPlayerDeathView@@UAE@XZ
        292  123 00149D80 ??1CSpectatorView@@UAE@XZ
        293  124 00109C80 ??1CTeleTypeEntity@@UAE@XZ
        294  125 0014B200 ??1CThirdPersonView@@UAE@XZ
        295  126 001963F0 ??1CWorldState@@UAE@XZ
        296  127 00004F50 ??1DamageEvent@@UAE@XZ
        297  128 00006130 ??1EActivate@@UAE@XZ
        298  129 001073A0 ??1EActivateSpaceDebree@@UAE@XZ
        299  12A 000D1840 ??1EAnimTriggerAndConfigure@@UAE@XZ
        300  12B 00127B60 ??1EBrushDeath@@UAE@XZ
        301  12C 00127810 ??1EBrushDestroyed@@UAE@XZ
        302  12D 0000C9A0 ??1ECameraStart@@UAE@XZ
        303  12E 0000CBC0 ??1ECameraStop@@UAE@XZ
        304  12F 000073E0 ??1ECenterMessage@@UAE@XZ
        305  130 00001150 ??1EChangeAnim@@UAE@XZ
        306  131 000B50E0 ??1EChangeMusic@@UAE@XZ
        307  132 00006BD0 ??1ECloseDoor@@UAE@XZ
        308  133 000074C0 ??1EComputerMessage@@UAE@XZ
        309  134 000072D0 ??1ECredits@@UAE@XZ
        310  135 000E2AA0 ??1ECutscene@@UAE@XZ
        311  136 00006240 ??1EDeactivate@@UAE@XZ
        312  137 00005E50 ??1EDeactivateEffect@@UAE@XZ
        313  138 0000CFD0 ??1EDisconnected@@UAE@XZ
        314  139 00006490 ??1EEnd@@UAE@XZ
        315  13A 00006350 ??1EEnvironmentStart@@UAE@XZ
        316  13B 000063F0 ??1EEnvironmentStop@@UAE@XZ
        317  13C 00060BB0 ??1EExplosion@@UAE@XZ
        318  13D 00127710 ??1EHit@@UAE@XZ
        319  13E 00007680 ??1EHitBySpaceShipBeam@@UAE@XZ
        320  13F 000071C0 ??1EHudPicFX@@UAE@XZ
        321  140 000D3450 ??1EInitBeacon@@UAE@XZ
        322  141 0000C860 ??1EInitializePlayer@@UAE@XZ
        323  142 00101480 ??1EInitializeShadowRenderer@@UAE@XZ
        324  143 00006CE0 ??1EKilledEnemy@@UAE@XZ
        325  144 00056BE0 ??1ELaunchGrenade@@UAE@XZ
        326  145 0000DAF0 ??1ELocalTeleTypeMessage@@UAE@XZ
        327  146 00001330 ??1EModel2Activate@@UAE@XZ
        328  147 00001430 ??1EModel2Deactivate@@UAE@XZ
        329  148 00001A50 ??1EModel3Activate@@UAE@XZ
        330  149 00001B50 ??1EModel3Deactivate@@UAE@XZ
        331  14A 00001C50 ??1EModel3Initialize@@UAE@XZ
        332  14B 00001950 ??1EModelDeath@@UAE@XZ
        333  14C 0012CB90 ??1EMusicChangerTrigger@@UAE@XZ
        334  14D 000B52C0 ??1ENetChangeMusic@@UAE@XZ
        335  14E 00001650 ??1ENetStartSound@@UAE@XZ
        336  14F 00001750 ??1ENetStopSound@@UAE@XZ
        337  150 0000DD40 ??1ENetworkTeleTypeMessage@@UAE@XZ
        338  151 00006AC0 ??1EOpenDoor@@UAE@XZ
        339  152 00001550 ??1EPlaySoundOnce@@UAE@XZ
        340  153 0000D1A0 ??1EPlayerDeath@@UAE@XZ
        341  154 0000CEC0 ??1EPlayerRebirth@@UAE@XZ
        342  155 0000D4A0 ??1EPlayerStats@@UAE@XZ
        343  156 00001850 ??1ERangeModelDestruction@@UAE@XZ
        344  157 0000CDB0 ??1ERebirth@@UAE@XZ
        345  158 00006A20 ??1EReceiveScore@@UAE@XZ
        346  159 00006700 ??1EReminder@@UAE@XZ
        347  15A 00006FA0 ??1EScroll@@UAE@XZ
        348  15B 00006DF0 ??1ESecretFound@@UAE@XZ
        349  15C 000B4F40 ??1ESetViewer@@UAE@XZ
        350  15D 0000D370 ??1EShowConsole@@UAE@XZ
        351  15E 00006E90 ??1ESound@@UAE@XZ
        352  15F 001136C0 ??1ESpawnSpray@@UAE@XZ
        353  160 00006020 ??1EStart@@UAE@XZ
        354  161 000067A0 ??1EStartAttack@@UAE@XZ
        355  162 00005DB0 ??1EStartEffect@@UAE@XZ
        356  163 00127910 ??1EStartSounds@@UAE@XZ
        357  164 00005F80 ??1EStop@@UAE@XZ
        358  165 00006840 ??1EStopAttack@@UAE@XZ
        359  166 000068E0 ??1EStopBlindness@@UAE@XZ
        360  167 00006980 ??1EStopDeafness@@UAE@XZ
        361  168 00005D10 ??1EStopEffect@@UAE@XZ
        362  169 00127A10 ??1EStopSounds@@UAE@XZ
        363  16A 0000D630 ??1ESubtitleEvent@@UAE@XZ
        364  16B 00006660 ??1ETeleportMovingBrush@@UAE@XZ
        365  16C 000070B0 ??1ETextFX@@UAE@XZ
        366  16D 00006530 ??1ETrigger@@UAE@XZ
        367  16E 000075A0 ??1EVoiceMessage@@UAE@XZ
        368  16F 00003780 ??1ProxyBash@@UAE@XZ
        369  170 000055B0 ??1ProxyBombConfigured@@UAE@XZ
        370  171 00003260 ??1ProxyBurstFire@@UAE@XZ
        371  172 00003380 ??1ProxyCeaseFire@@UAE@XZ
        372  173 000054B0 ??1ProxyConfigureBomb@@UAE@XZ
        373  174 00004B70 ??1ProxyDeath@@UAE@XZ
        374  175 0002D370 ??1ProxyDeathThroe@@UAE@XZ
        375  176 00003D70 ??1ProxyDiscoverBody@@UAE@XZ
        376  177 00004C90 ??1ProxyDoIdleSpice@@UAE@XZ
        377  178 00004810 ??1ProxyFall@@UAE@XZ
        378  179 000030F0 ??1ProxyFire@@UAE@XZ
        379  17A 00003C50 ??1ProxyFlee@@UAE@XZ
        380  17B 000042A0 ??1ProxyFling@@UAE@XZ
        381  17C 000043C0 ??1ProxyGetUp@@UAE@XZ
        382  17D 00004000 ??1ProxyHop@@UAE@XZ
        383  17E 00003EB0 ??1ProxyJump@@UAE@XZ
        384  17F 00003B30 ??1ProxyLookAround@@UAE@XZ
        385  180 000021B0 ??1ProxyPunchThrown@@UAE@XZ
        386  181 00005330 ??1ProxyReachForBomb@@UAE@XZ
        387  182 00003580 ??1ProxyReleaseGrenade@@UAE@XZ
        388  183 000022B0 ??1ProxyReload@@UAE@XZ
        389  184 000027D0 ??1ProxyReplenishHealth@@UAE@XZ
        390  185 00002410 ??1ProxyReplenishPossible@@UAE@XZ
        391  186 000025F0 ??1ProxyReplenishRequest@@UAE@XZ
        392  187 000029D0 ??1ProxyReplenishWeapon@@UAE@XZ
        393  188 00003680 ??1ProxyResetFireAnimation@@UAE@XZ
        394  189 000044C0 ??1ProxyResetFling@@UAE@XZ
        395  18A 00004150 ??1ProxyRoll@@UAE@XZ
        396  18B 000038D0 ??1ProxySelectWeapon@@UAE@XZ
        397  18C 00003A10 ??1ProxySetNewWeapon@@UAE@XZ
        398  18D 000046F0 ??1ProxySetStance@@UAE@XZ
        399  18E 00004A20 ??1ProxyStop@@UAE@XZ
        400  18F 00004D90 ??1ProxyStopIdleSpice@@UAE@XZ
        401  190 00002F90 ??1ProxySyncWeaponAmmo@@UAE@XZ
        402  191 00003480 ??1ProxyThrowGrenade@@UAE@XZ
        403  192 00005160 ??1ProxyTimedBombInRange@@UAE@XZ
        404  193 00004920 ??1ProxyTouchDown@@UAE@XZ
        405  194 00002E60 ??1ProxyWeaponChangeComplete@@UAE@XZ
        406  195 00002B60 ??1ProxyWeaponToBack@@UAE@XZ
        407  196 00002D60 ??1ProxyWeaponToHand@@UAE@XZ
        408  197 00002C60 ??1ProxyWeaponToHip@@UAE@XZ
        409  198 000045D0 ??1ProxyWounded@@UAE@XZ
        410  199 000056E0 ??1RespawnEvent@@UAE@XZ
        411  19A 000020A0 ??1SyncDescriptorEvent@@UAE@XZ
        412  19B 00001F50 ??1SyncPositioningEvent@@UAE@XZ
        413  19C 00014D80 ??1TimedBombActive@@UAE@XZ
        414  19D 000150A0 ??1TimedBombDormant@@UAE@XZ
        415  19E 00014B90 ??1TimedBombToActive@@UAE@XZ
        416  19F 00014EB0 ??1TimedBombToDormant@@UAE@XZ
        417  1A0 00001DE0 ??1TriggerGameEntity@@UAE@XZ
        418  1A1 0013BB10 ??1WorldLinkEvent@@UAE@XZ
        419  1A2 0000D800 ??4ABZSwitchMarine@@QAEAAV0@AAV0@@Z
        420  1A3 000D1D80 ??4CActor@@QAEAAV0@AAV0@@Z
        421  1A4 000D19F0 ??4CActorActivate@@QAEAAV0@ABV0@@Z
        422  1A5 000D1AF0 ??4CActorDeactivate@@QAEAAV0@ABV0@@Z
        423  1A6 001418E0 ??4CBotTrackView@@QAEAAV0@AAV0@@Z
        424  1A7 001434C0 ??4CCloseShoulderView@@QAEAAV0@AAV0@@Z
        425  1A8 00144F30 ??4CCommandView@@QAEAAV0@AAV0@@Z
        426  1A9 00170770 ??4CCompMessageID@@QAEAAV0@ABV0@@Z
        427  1AA 00146E80 ??4CFirstPersonView@@QAEAAV0@AAV0@@Z
        428  1AB 00011670 ??4CPathBuilder@@QAEAAV0@ABV0@@Z
        429  1AC 0000E810 ??4CPlayer@@QAEAAV0@AAV0@@Z
        430  1AD 00148410 ??4CPlayerDeathView@@QAEAAV0@AAV0@@Z
        431  1AE 00149980 ??4CSpectatorView@@QAEAAV0@AAV0@@Z
        432  1AF 00109AE0 ??4CTeleTypeEntity@@QAEAAV0@AAV0@@Z
        433  1B0 0014A8A0 ??4CThirdPersonView@@QAEAAV0@AAV0@@Z
        434  1B1 00004EF0 ??4DamageEvent@@QAEAAV0@AAV0@@Z
        435  1B2 0016EAB0 ??4EActivate@@QAEAAV0@ABV0@@Z
        436  1B3 00107360 ??4EActivateSpaceDebree@@QAEAAV0@ABV0@@Z
        437  1B4 000D17D0 ??4EAnimTriggerAndConfigure@@QAEAAV0@ABV0@@Z
        438  1B5 00127B30 ??4EBrushDeath@@QAEAAV0@AAV0@@Z
        439  1B6 001277F0 ??4EBrushDestroyed@@QAEAAV0@ABV0@@Z
        440  1B7 0000C960 ??4ECameraStart@@QAEAAV0@ABV0@@Z
        441  1B8 0000CB80 ??4ECameraStop@@QAEAAV0@ABV0@@Z
        442  1B9 0016FD40 ??4ECenterMessage@@QAEAAV0@ABV0@@Z
        443  1BA 000010D0 ??4EChangeAnim@@QAEAAV0@ABV0@@Z
        444  1BB 000B5090 ??4EChangeMusic@@QAEAAV0@ABV0@@Z
        445  1BC 0016F370 ??4ECloseDoor@@QAEAAV0@ABV0@@Z
        446  1BD 0016FE90 ??4EComputerMessage@@QAEAAV0@ABV0@@Z
        447  1BE 0016FBE0 ??4ECredits@@QAEAAV0@ABV0@@Z
        448  1BF 000E2A80 ??4ECutscene@@QAEAAV0@ABV0@@Z
        449  1C0 0016EBC0 ??4EDeactivate@@QAEAAV0@ABV0@@Z
        450  1C1 0016D170 ??4EDeactivateEffect@@QAEAAV0@ABV0@@Z
        451  1C2 0000CFB0 ??4EDisconnected@@QAEAAV0@ABV0@@Z
        452  1C3 0016ED80 ??4EEnd@@QAEAAV0@ABV0@@Z
        453  1C4 0016ECC0 ??4EEnvironmentStart@@QAEAAV0@ABV0@@Z
        454  1C5 0016ED20 ??4EEnvironmentStop@@QAEAAV0@ABV0@@Z
        455  1C6 00060B60 ??4EExplosion@@QAEAAV0@AAV0@@Z
        456  1C7 001276F0 ??4EHit@@QAEAAV0@ABV0@@Z
        457  1C8 001700A0 ??4EHitBySpaceShipBeam@@QAEAAV0@ABV0@@Z
        458  1C9 0016FAB0 ??4EHudPicFX@@QAEAAV0@ABV0@@Z
        459  1CA 000D3430 ??4EInitBeacon@@QAEAAV0@ABV0@@Z
        460  1CB 0000C840 ??4EInitializePlayer@@QAEAAV0@ABV0@@Z
        461  1CC 00101460 ??4EInitializeShadowRenderer@@QAEAAV0@ABV0@@Z
        462  1CD 0016F4C0 ??4EKilledEnemy@@QAEAAV0@ABV0@@Z
        463  1CE 00056B70 ??4ELaunchGrenade@@QAEAAV0@AAV0@@Z
        464  1CF 0000DA40 ??4ELocalTeleTypeMessage@@QAEAAV0@ABV0@@Z
        465  1D0 00001310 ??4EModel2Activate@@QAEAAV0@ABV0@@Z
        466  1D1 00001410 ??4EModel2Deactivate@@QAEAAV0@ABV0@@Z
        467  1D2 00001A30 ??4EModel3Activate@@QAEAAV0@ABV0@@Z
        468  1D3 00001B30 ??4EModel3Deactivate@@QAEAAV0@ABV0@@Z
        469  1D4 00001C30 ??4EModel3Initialize@@QAEAAV0@ABV0@@Z
        470  1D5 00001930 ??4EModelDeath@@QAEAAV0@ABV0@@Z
        471  1D6 0012CB70 ??4EMusicChangerTrigger@@QAEAAV0@ABV0@@Z
        472  1D7 000B5290 ??4ENetChangeMusic@@QAEAAV0@ABV0@@Z
        473  1D8 00001630 ??4ENetStartSound@@QAEAAV0@ABV0@@Z
        474  1D9 00001730 ??4ENetStopSound@@QAEAAV0@ABV0@@Z
        475  1DA 0000DD20 ??4ENetworkTeleTypeMessage@@QAEAAV0@ABV0@@Z
        476  1DB 0016F260 ??4EOpenDoor@@QAEAAV0@ABV0@@Z
        477  1DC 00001530 ??4EPlaySoundOnce@@QAEAAV0@ABV0@@Z
        478  1DD 0000D130 ??4EPlayerDeath@@QAEAAV0@AAV0@@Z
        479  1DE 0000CEA0 ??4EPlayerRebirth@@QAEAAV0@ABV0@@Z
        480  1DF 0000D470 ??4EPlayerStats@@QAEAAV0@ABV0@@Z
        481  1E0 00001830 ??4ERangeModelDestruction@@QAEAAV0@ABV0@@Z
        482  1E1 0000CD90 ??4ERebirth@@QAEAAV0@ABV0@@Z
        483  1E2 0016F1E0 ??4EReceiveScore@@QAEAAV0@ABV0@@Z
        484  1E3 0016EFE0 ??4EReminder@@QAEAAV0@ABV0@@Z
        485  1E4 0016F850 ??4EScroll@@QAEAAV0@ABV0@@Z
        486  1E5 0016F5E0 ??4ESecretFound@@QAEAAV0@ABV0@@Z
        487  1E6 000B4F20 ??4ESetViewer@@QAEAAV0@ABV0@@Z
        488  1E7 0000D350 ??4EShowConsole@@QAEAAV0@ABV0@@Z
        489  1E8 0016F720 ??4ESound@@QAEAAV0@ABV0@@Z
        490  1E9 00113660 ??4ESpawnSpray@@QAEAAV0@AAV0@@Z
        491  1EA 0016E9A0 ??4EStart@@QAEAAV0@ABV0@@Z
        492  1EB 0016F050 ??4EStartAttack@@QAEAAV0@ABV0@@Z
        493  1EC 0016D110 ??4EStartEffect@@QAEAAV0@ABV0@@Z
        494  1ED 001278F0 ??4EStartSounds@@QAEAAV0@ABV0@@Z
        495  1EE 0016E930 ??4EStop@@QAEAAV0@ABV0@@Z
        496  1EF 0016F0B0 ??4EStopAttack@@QAEAAV0@ABV0@@Z
        497  1F0 0016F110 ??4EStopBlindness@@QAEAAV0@ABV0@@Z
        498  1F1 0016F170 ??4EStopDeafness@@QAEAAV0@ABV0@@Z
        499  1F2 0016D0B0 ??4EStopEffect@@QAEAAV0@ABV0@@Z
        500  1F3 001279F0 ??4EStopSounds@@QAEAAV0@ABV0@@Z
        501  1F4 0000D5F0 ??4ESubtitleEvent@@QAEAAV0@ABV0@@Z
        502  1F5 0016EF70 ??4ETeleportMovingBrush@@QAEAAV0@ABV0@@Z
        503  1F6 0016F980 ??4ETextFX@@QAEAAV0@ABV0@@Z
        504  1F7 0016EE00 ??4ETrigger@@QAEAAV0@ABV0@@Z
        505  1F8 0016FFC0 ??4EVoiceMessage@@QAEAAV0@ABV0@@Z
        506  1F9 00170100 ??4PlayerStats@@QAEAAU0@ABU0@@Z
        507  1FA 00003760 ??4ProxyBash@@QAEAAV0@ABV0@@Z
        508  1FB 00005590 ??4ProxyBombConfigured@@QAEAAV0@ABV0@@Z
        509  1FC 00003220 ??4ProxyBurstFire@@QAEAAV0@ABV0@@Z
        510  1FD 00003360 ??4ProxyCeaseFire@@QAEAAV0@ABV0@@Z
        511  1FE 00005490 ??4ProxyConfigureBomb@@QAEAAV0@ABV0@@Z
        512  1FF 00004B30 ??4ProxyDeath@@QAEAAV0@ABV0@@Z
        513  200 0002D350 ??4ProxyDeathThroe@@QAEAAV0@ABV0@@Z
        514  201 00003D50 ??4ProxyDiscoverBody@@QAEAAV0@ABV0@@Z
        515  202 00004C70 ??4ProxyDoIdleSpice@@QAEAAV0@ABV0@@Z
        516  203 000047F0 ??4ProxyFall@@QAEAAV0@ABV0@@Z
        517  204 000030B0 ??4ProxyFire@@QAEAAV0@ABV0@@Z
        518  205 00003C30 ??4ProxyFlee@@QAEAAV0@ABV0@@Z
        519  206 00004270 ??4ProxyFling@@QAEAAV0@ABV0@@Z
        520  207 000043A0 ??4ProxyGetUp@@QAEAAV0@ABV0@@Z
        521  208 00003FD0 ??4ProxyHop@@QAEAAV0@ABV0@@Z
        522  209 00003E80 ??4ProxyJump@@QAEAAV0@ABV0@@Z
        523  20A 00003B10 ??4ProxyLookAround@@QAEAAV0@ABV0@@Z
        524  20B 00002190 ??4ProxyPunchThrown@@QAEAAV0@ABV0@@Z
        525  20C 00005300 ??4ProxyReachForBomb@@QAEAAV0@AAV0@@Z
        526  20D 00003560 ??4ProxyReleaseGrenade@@QAEAAV0@ABV0@@Z
        527  20E 00002290 ??4ProxyReload@@QAEAAV0@ABV0@@Z
        528  20F 000027A0 ??4ProxyReplenishHealth@@QAEAAV0@AAV0@@Z
        529  210 000023E0 ??4ProxyReplenishPossible@@QAEAAV0@AAV0@@Z
        530  211 000025C0 ??4ProxyReplenishRequest@@QAEAAV0@AAV0@@Z
        531  212 00002990 ??4ProxyReplenishWeapon@@QAEAAV0@AAV0@@Z
        532  213 00003660 ??4ProxyResetFireAnimation@@QAEAAV0@ABV0@@Z
        533  214 000044A0 ??4ProxyResetFling@@QAEAAV0@ABV0@@Z
        534  215 00004120 ??4ProxyRoll@@QAEAAV0@ABV0@@Z
        535  216 00003870 ??4ProxySelectWeapon@@QAEAAV0@ABV0@@Z
        536  217 000039E0 ??4ProxySetNewWeapon@@QAEAAV0@ABV0@@Z
        537  218 000046D0 ??4ProxySetStance@@QAEAAV0@ABV0@@Z
        538  219 00004A00 ??4ProxyStop@@QAEAAV0@ABV0@@Z
        539  21A 00004D70 ??4ProxyStopIdleSpice@@QAEAAV0@ABV0@@Z
        540  21B 00002F60 ??4ProxySyncWeaponAmmo@@QAEAAV0@ABV0@@Z
        541  21C 00003460 ??4ProxyThrowGrenade@@QAEAAV0@ABV0@@Z
        542  21D 00005130 ??4ProxyTimedBombInRange@@QAEAAV0@AAV0@@Z
        543  21E 00004900 ??4ProxyTouchDown@@QAEAAV0@ABV0@@Z
        544  21F 00002E40 ??4ProxyWeaponChangeComplete@@QAEAAV0@ABV0@@Z
        545  220 00002B40 ??4ProxyWeaponToBack@@QAEAAV0@ABV0@@Z
        546  221 00002D40 ??4ProxyWeaponToHand@@QAEAAV0@ABV0@@Z
        547  222 00002C40 ??4ProxyWeaponToHip@@QAEAAV0@ABV0@@Z
        548  223 000045B0 ??4ProxyWounded@@QAEAAV0@ABV0@@Z
        549  224 000056B0 ??4RespawnEvent@@QAEAAV0@ABV0@@Z
        550  225 00002080 ??4SyncDescriptorEvent@@QAEAAV0@ABV0@@Z
        551  226 00001F00 ??4SyncPositioningEvent@@QAEAAV0@ABV0@@Z
        552  227 00014D60 ??4TimedBombActive@@QAEAAV0@ABV0@@Z
        553  228 00015080 ??4TimedBombDormant@@QAEAAV0@ABV0@@Z
        554  229 00014B50 ??4TimedBombToActive@@QAEAAV0@ABV0@@Z
        555  22A 00014E70 ??4TimedBombToDormant@@QAEAAV0@ABV0@@Z
        556  22B 00001DC0 ??4TriggerGameEntity@@QAEAAV0@ABV0@@Z
        557  22C 0013BAF0 ??4WorldLinkEvent@@QAEAAV0@ABV0@@Z
        558  22D 001C36F8 ??_7ABZSwitchMarine@@6B@
        559  22E 001CBA58 ??_7CActor@@6B@
        560  22F 001CBA38 ??_7CActorActivate@@6B@
        561  230 001CBA48 ??_7CActorDeactivate@@6B@
        562  231 001D1580 ??_7CBotTrackView@@6B@
        563  232 001D16B8 ??_7CCloseShoulderView@@6B@
        564  233 001D17F0 ??_7CCommandView@@6B@
        565  234 001D1928 ??_7CFirstPersonView@@6B@
        566  235 001C39D4 ??_7CPathBuilder@@6B@
        567  236 001C3728 ??_7CPlayer@@6B@
        568  237 001D1A60 ??_7CPlayerDeathView@@6B@
        569  238 001D1B98 ??_7CSpectatorView@@6B@
        570  239 001CE800 ??_7CTeleTypeEntity@@6B@
        571  23A 001D1CD0 ??_7CThirdPersonView@@6B@
        572  23B 001D30D0 ??_7CWorldState@@6B@
        573  23C 001C334C ??_7DamageEvent@@6B@
        574  23D 001CF8E8 ??_7EActivate@@6B@
        575  23E 001CE4AC ??_7EActivateSpaceDebree@@6B@
        576  23F 001CBA28 ??_7EAnimTriggerAndConfigure@@6B@
        577  240 001D0368 ??_7EBrushDeath@@6B@
        578  241 001D0338 ??_7EBrushDestroyed@@6B@
        579  242 001C3668 ??_7ECameraStart@@6B@
        580  243 001C3678 ??_7ECameraStop@@6B@
        581  244 001CFA48 ??_7ECenterMessage@@6B@
        582  245 001C301C ??_7EChangeAnim@@6B@
        583  246 001CB52C ??_7EChangeMusic@@6B@
        584  247 001CF9C8 ??_7ECloseDoor@@6B@
        585  248 001CFA58 ??_7EComputerMessage@@6B@
        586  249 001CFA38 ??_7ECredits@@6B@
        587  24A 001CCA30 ??_7ECutscene@@6B@
        588  24B 001CF8F8 ??_7EDeactivate@@6B@
        589  24C 001CD9BC ??_7EDeactivateEffect@@6B@
        590  24D 001C36A8 ??_7EDisconnected@@6B@
        591  24E 001CF928 ??_7EEnd@@6B@
        592  24F 001CF908 ??_7EEnvironmentStart@@6B@
        593  250 001CF918 ??_7EEnvironmentStop@@6B@
        594  251 001C7E9C ??_7EExplosion@@6B@
        595  252 001D0328 ??_7EHit@@6B@
        596  253 001CFA78 ??_7EHitBySpaceShipBeam@@6B@
        597  254 001CFA28 ??_7EHudPicFX@@6B@
        598  255 001CBB80 ??_7EInitBeacon@@6B@
        599  256 001C3658 ??_7EInitializePlayer@@6B@
        600  257 001CDFA0 ??_7EInitializeShadowRenderer@@6B@
        601  258 001CF9D8 ??_7EKilledEnemy@@6B@
        602  259 001C66B4 ??_7ELaunchGrenade@@6B@
        603  25A 001C3708 ??_7ELocalTeleTypeMessage@@6B@
        604  25B 001C302C ??_7EModel2Activate@@6B@
        605  25C 001C303C ??_7EModel2Deactivate@@6B@
        606  25D 001C309C ??_7EModel3Activate@@6B@
        607  25E 001C30AC ??_7EModel3Deactivate@@6B@
        608  25F 001C30BC ??_7EModel3Initialize@@6B@
        609  260 001C308C ??_7EModelDeath@@6B@
        610  261 001D05C0 ??_7EMusicChangerTrigger@@6B@
        611  262 001CB53C ??_7ENetChangeMusic@@6B@
        612  263 001C305C ??_7ENetStartSound@@6B@
        613  264 001C306C ??_7ENetStopSound@@6B@
        614  265 001C3718 ??_7ENetworkTeleTypeMessage@@6B@
        615  266 001CF9B8 ??_7EOpenDoor@@6B@
        616  267 001C304C ??_7EPlaySoundOnce@@6B@
        617  268 001C36B8 ??_7EPlayerDeath@@6B@
        618  269 001C3698 ??_7EPlayerRebirth@@6B@
        619  26A 001C36D8 ??_7EPlayerStats@@6B@
        620  26B 001C307C ??_7ERangeModelDestruction@@6B@
        621  26C 001C3688 ??_7ERebirth@@6B@
        622  26D 001CF9A8 ??_7EReceiveScore@@6B@
        623  26E 001CF958 ??_7EReminder@@6B@
        624  26F 001CFA08 ??_7EScroll@@6B@
        625  270 001CF9E8 ??_7ESecretFound@@6B@
        626  271 001CB51C ??_7ESetViewer@@6B@
        627  272 001C36C8 ??_7EShowConsole@@6B@
        628  273 001CF9F8 ??_7ESound@@6B@
        629  274 001CF228 ??_7ESpawnSpray@@6B@
        630  275 001CF8D8 ??_7EStart@@6B@
        631  276 001CF968 ??_7EStartAttack@@6B@
        632  277 001CD9AC ??_7EStartEffect@@6B@
        633  278 001D0348 ??_7EStartSounds@@6B@
        634  279 001CF8C8 ??_7EStop@@6B@
        635  27A 001CF978 ??_7EStopAttack@@6B@
        636  27B 001CF988 ??_7EStopBlindness@@6B@
        637  27C 001CF998 ??_7EStopDeafness@@6B@
        638  27D 001CD99C ??_7EStopEffect@@6B@
        639  27E 001D0358 ??_7EStopSounds@@6B@
        640  27F 001C36E8 ??_7ESubtitleEvent@@6B@
        641  280 001CF948 ??_7ETeleportMovingBrush@@6B@
        642  281 001CFA18 ??_7ETextFX@@6B@
        643  282 001CF938 ??_7ETrigger@@6B@
        644  283 001CFA68 ??_7EVoiceMessage@@6B@
        645  284 001C320C ??_7ProxyBash@@6B@
        646  285 001C338C ??_7ProxyBombConfigured@@6B@
        647  286 001C31BC ??_7ProxyBurstFire@@6B@
        648  287 001C31CC ??_7ProxyCeaseFire@@6B@
        649  288 001C337C ??_7ProxyConfigureBomb@@6B@
        650  289 001C331C ??_7ProxyDeath@@6B@
        651  28A 001C4A70 ??_7ProxyDeathThroe@@6B@
        652  28B 001C325C ??_7ProxyDiscoverBody@@6B@
        653  28C 001C332C ??_7ProxyDoIdleSpice@@6B@
        654  28D 001C32EC ??_7ProxyFall@@6B@
        655  28E 001C31AC ??_7ProxyFire@@6B@
        656  28F 001C324C ??_7ProxyFlee@@6B@
        657  290 001C329C ??_7ProxyFling@@6B@
        658  291 001C32AC ??_7ProxyGetUp@@6B@
        659  292 001C327C ??_7ProxyHop@@6B@
        660  293 001C326C ??_7ProxyJump@@6B@
        661  294 001C323C ??_7ProxyLookAround@@6B@
        662  295 001C30FC ??_7ProxyPunchThrown@@6B@
        663  296 001C336C ??_7ProxyReachForBomb@@6B@
        664  297 001C31EC ??_7ProxyReleaseGrenade@@6B@
        665  298 001C310C ??_7ProxyReload@@6B@
        666  299 001C313C ??_7ProxyReplenishHealth@@6B@
        667  29A 001C311C ??_7ProxyReplenishPossible@@6B@
        668  29B 001C312C ??_7ProxyReplenishRequest@@6B@
        669  29C 001C314C ??_7ProxyReplenishWeapon@@6B@
        670  29D 001C31FC ??_7ProxyResetFireAnimation@@6B@
        671  29E 001C32BC ??_7ProxyResetFling@@6B@
        672  29F 001C328C ??_7ProxyRoll@@6B@
        673  2A0 001C321C ??_7ProxySelectWeapon@@6B@
        674  2A1 001C322C ??_7ProxySetNewWeapon@@6B@
        675  2A2 001C32DC ??_7ProxySetStance@@6B@
        676  2A3 001C330C ??_7ProxyStop@@6B@
        677  2A4 001C333C ??_7ProxyStopIdleSpice@@6B@
        678  2A5 001C319C ??_7ProxySyncWeaponAmmo@@6B@
        679  2A6 001C31DC ??_7ProxyThrowGrenade@@6B@
        680  2A7 001C335C ??_7ProxyTimedBombInRange@@6B@
        681  2A8 001C32FC ??_7ProxyTouchDown@@6B@
        682  2A9 001C318C ??_7ProxyWeaponChangeComplete@@6B@
        683  2AA 001C315C ??_7ProxyWeaponToBack@@6B@
        684  2AB 001C317C ??_7ProxyWeaponToHand@@6B@
        685  2AC 001C316C ??_7ProxyWeaponToHip@@6B@
        686  2AD 001C32CC ??_7ProxyWounded@@6B@
        687  2AE 001C339C ??_7RespawnEvent@@6B@
        688  2AF 001C30EC ??_7SyncDescriptorEvent@@6B@
        689  2B0 001C30DC ??_7SyncPositioningEvent@@6B@
        690  2B1 001C3AC4 ??_7TimedBombActive@@6B@
        691  2B2 001C3AE4 ??_7TimedBombDormant@@6B@
        692  2B3 001C3AB4 ??_7TimedBombToActive@@6B@
        693  2B4 001C3AD4 ??_7TimedBombToDormant@@6B@
        694  2B5 001C30CC ??_7TriggerGameEntity@@6B@
        695  2B6 001D1110 ??_7WorldLinkEvent@@6B@
        696  2B7 0024BC58 ??_C@_0EE@KPB@WARNING?5?3?5Player?$CFld?5Unable?5to?5sw@
        697  2B8 0024BCF0 ??_C@_0EK@KAHJ@WARNING?5?3?5Player?$CFld?5Unable?5to?5sw@
        698  2B9 0024BCA0 ??_C@_0EN@KDNG@WARNING?5?3?5Player?$CFld?5Unable?5to?5sw@
        699  2BA 0024BD40 ??_C@_0FI@OOFG@WARNING?5?3?5Player?$CFld?5Unable?5to?5sw@
        700  2BB 0024BC48 ??_C@_0P@NHAC@?$CFd?$CJ?5Player?5?$CFld?$AA@
        701  2BC 0021F418 ?ABZGrenadeType_enum@@3VCEntityPropertyEnumType@@A
        702  2BD 0021F408 ?ABZGrenadeType_values@@3PAVCEntityPropertyEnumValue@@A
        703  2BE 0021FB60 ?ABZSideArmType_enum@@3VCEntityPropertyEnumType@@A
        704  2BF 0021FB48 ?ABZSideArmType_values@@3PAVCEntityPropertyEnumValue@@A
        705  2C0 0022ABD0 ?ABZWeaponType_enum@@3VCEntityPropertyEnumType@@A
        706  2C1 0022AB20 ?ABZWeaponType_values@@3PAVCEntityPropertyEnumValue@@A
        707  2C2 0010A5E0 ?Active@CTeleTypeEntity@@QAEHABVCEntityEvent@@@Z
        708  2C3 000B6050 ?AddAttachmentToModel@@YAXPAVCEntity@@AAVCModelObject@@JKKKKK@Z
        709  2C4 000E4340 ?AddEventToList@CCutSceneEntity@@QAE_NABUCSequenceEvent@@@Z
        710  2C5 0016D2B0 ?AddMissionObjectiveManager@CWorldState@@QAEXVCEntityPointer@@@Z
        711  2C6 0013FC80 ?AddObjective@CMissionObjectiveManagerEntity@@QAE_NABVCEntityPointer@@W4MissionObjectiveType@@@Z
        712  2C7 0013FD00 ?AddObjectiveAtIndex@CMissionObjectiveManagerEntity@@QAE_NHABVCEntityPointer@@W4MissionObjectiveType@@@Z
        713  2C8 00198C30 ?AddPersistentMarine@CWorldState@@QAEXPAVCGameBot@@@Z
        714  2C9 00196E70 ?AddStatusMessage@CWorldState@@QAEXVCStatusMessage@@@Z
        715  2CA 00052990 ?AddToTargetList@CPathBuilder@@AAEXV?$Vector@M$02@@@Z
        716  2CB 000D2AE0 ?AdjustShadingParameters@CActor@@UAEHAAV?$Vector@M$02@@AAK1@Z
        717  2CC 0022AC40 ?AlignmentType_enum@@3VCEntityPropertyEnumType@@A
        718  2CD 0022AC28 ?AlignmentType_values@@3PAVCEntityPropertyEnumValue@@A
        719  2CE 00170300 ?AngleBetweenNormVectors@@YAMV?$Vector@M$02@@0@Z
        720  2CF 00170180 ?AngleBetweenNormVectors@@YAMV?$Vector@M$02@@0JJJ@Z
        721  2D0 001705E0 ?AngleBetweenVectors@@YAMV?$Vector@M$02@@0@Z
        722  2D1 00170320 ?AngleBetweenVectors@@YAMV?$Vector@M$02@@0JJJ@Z
        723  2D2 001599B0 ?ApplyAction@CPlayer@@QAEXABVCPlayerAction@@@Z
        724  2D3 0015AA60 ?ApplyAction@CPlayer@@UAEXABVCPlayerAction@@M@Z
        725  2D4 0014A0B0 ?ApplyAction@CSpectatorView@@QAEXABVCPlayerAction@@@Z
        726  2D5 00159DB0 ?ApplyAnalogueActions@CPlayer@@QAEXABVCPlayerAction@@@Z
        727  2D6 00159EA0 ?ApplyButtonActions@CPlayer@@QAEXABVCPlayerAction@@@Z
        728  2D7 0015A700 ?ApplyCommandActions@CPlayer@@QAEXABVCPlayerAction@@@Z
        729  2D8 0015CAA0 ?ApplySniperZoom@CPlayer@@QAEXH@Z
        730  2D9 00240410 ?BlockAction_enum@@3VCEntityPropertyEnumType@@A
        731  2DA 002403F8 ?BlockAction_values@@3PAVCEntityPropertyEnumValue@@A
        732  2DB 0023EB18 ?BoolEType_enum@@3VCEntityPropertyEnumType@@A
        733  2DC 0023EB00 ?BoolEType_values@@3PAVCEntityPropertyEnumValue@@A
        734  2DD 002356D0 ?BotEventsType_enum@@3VCEntityPropertyEnumType@@A
        735  2DE 002356A0 ?BotEventsType_values@@3PAVCEntityPropertyEnumValue@@A
        736  2DF 002372E4 ?BotSpawnerType_enum@@3VCEntityPropertyEnumType@@A
        737  2E0 002372D4 ?BotSpawnerType_values@@3PAVCEntityPropertyEnumValue@@A
        738  2E1 00196E40 ?BroadcastMessage@CWorldState@@QAEXPAVCBotMessage@@@Z
        739  2E2 00052520 ?BuildLocationList@CPathBuilder@@QAE_NH@Z
        740  2E3 0023ED18 ?BulletHitType_enum@@3VCEntityPropertyEnumType@@A
        741  2E4 0023ECC0 ?BulletHitType_values@@3PAVCEntityPropertyEnumValue@@A
        742  2E5 0015AEB0 ?CanConfigureTimedBomb@CPlayer@@QAE_NXZ
        743  2E6 001983E0 ?CanQuickLoad@CWorldState@@QAE_NXZ
        744  2E7 001982D0 ?CanQuickSave@CWorldState@@QAE_NXZ
        745  2E8 0023EAC0 ?CauseOfDeath_enum@@3VCEntityPropertyEnumType@@A
        746  2E9 0023EA98 ?CauseOfDeath_values@@3PAVCEntityPropertyEnumValue@@A
        747  2EA 0015CAB0 ?CheatsEnabled@CPlayer@@QAEHXZ
        748  2EB 00156690 ?CheckIDs@ABZSwitchMarine@@UAEHXZ
        749  2EC 000D2860 ?CheckIDs@CActorActivate@@UAEHXZ
        750  2ED 000D28C0 ?CheckIDs@CActorDeactivate@@UAEHXZ
        751  2EE 0006C6E0 ?CheckIDs@DamageEvent@@UAEHXZ
        752  2EF 0011D4C0 ?CheckIDs@EActivate@@UAEHXZ
        753  2F0 00107CE0 ?CheckIDs@EActivateSpaceDebree@@UAEHXZ
        754  2F1 000D2800 ?CheckIDs@EAnimTriggerAndConfigure@@UAEHXZ
        755  2F2 001293A0 ?CheckIDs@EBrushDeath@@UAEHXZ
        756  2F3 001291F0 ?CheckIDs@EBrushDestroyed@@UAEHXZ
        757  2F4 00155FD0 ?CheckIDs@ECameraStart@@UAEHXZ
        758  2F5 001560A0 ?CheckIDs@ECameraStop@@UAEHXZ
        759  2F6 0011E2A0 ?CheckIDs@ECenterMessage@@UAEHXZ
        760  2F7 001116A0 ?CheckIDs@EChangeAnim@@UAEHXZ
        761  2F8 0012E7F0 ?CheckIDs@EChangeMusic@@UAEHXZ
        762  2F9 0011DC20 ?CheckIDs@ECloseDoor@@UAEHXZ
        763  2FA 0011E3D0 ?CheckIDs@EComputerMessage@@UAEHXZ
        764  2FB 0011E170 ?CheckIDs@ECredits@@UAEHXZ
        765  2FC 000E3360 ?CheckIDs@ECutscene@@UAEHXZ
        766  2FD 0011D590 ?CheckIDs@EDeactivate@@UAEHXZ
        767  2FE 000FA460 ?CheckIDs@EDeactivateEffect@@UAEHXZ
        768  2FF 001561E0 ?CheckIDs@EDisconnected@@UAEHXZ
        769  300 0011D6B0 ?CheckIDs@EEnd@@UAEHXZ
        770  301 0011D5F0 ?CheckIDs@EEnvironmentStart@@UAEHXZ
        771  302 0011D650 ?CheckIDs@EEnvironmentStop@@UAEHXZ
        772  303 000EAFB0 ?CheckIDs@EExplosion@@UAEHXZ
        773  304 00129190 ?CheckIDs@EHit@@UAEHXZ
        774  305 0011E560 ?CheckIDs@EHitBySpaceShipBeam@@UAEHXZ
        775  306 0011E0A0 ?CheckIDs@EHudPicFX@@UAEHXZ
        776  307 000D39E0 ?CheckIDs@EInitBeacon@@UAEHXZ
        777  308 00155F00 ?CheckIDs@EInitializePlayer@@UAEHXZ
        778  309 00101960 ?CheckIDs@EInitializeShadowRenderer@@UAEHXZ
        779  30A 0011DD00 ?CheckIDs@EKilledEnemy@@UAEHXZ
        780  30B 000F2AB0 ?CheckIDs@ELaunchGrenade@@UAEHXZ
        781  30C 00156870 ?CheckIDs@ELocalTeleTypeMessage@@UAEHXZ
        782  30D 00123860 ?CheckIDs@EModel2Activate@@UAEHXZ
        783  30E 001238C0 ?CheckIDs@EModel2Deactivate@@UAEHXZ
        784  30F 00126240 ?CheckIDs@EModel3Activate@@UAEHXZ
        785  310 001262A0 ?CheckIDs@EModel3Deactivate@@UAEHXZ
        786  311 00126300 ?CheckIDs@EModel3Initialize@@UAEHXZ
        787  312 00121640 ?CheckIDs@EModelDeath@@UAEHXZ
        788  313 0012D260 ?CheckIDs@EMusicChangerTrigger@@UAEHXZ
        789  314 0012E870 ?CheckIDs@ENetChangeMusic@@UAEHXZ
        790  315 00130B70 ?CheckIDs@ENetStartSound@@UAEHXZ
        791  316 00130BD0 ?CheckIDs@ENetStopSound@@UAEHXZ
        792  317 001568F0 ?CheckIDs@ENetworkTeleTypeMessage@@UAEHXZ
        793  318 0011DB50 ?CheckIDs@EOpenDoor@@UAEHXZ
        794  319 00130B10 ?CheckIDs@EPlaySoundOnce@@UAEHXZ
        795  31A 00156360 ?CheckIDs@EPlayerDeath@@UAEHXZ
        796  31B 00156180 ?CheckIDs@EPlayerRebirth@@UAEHXZ
        797  31C 00156450 ?CheckIDs@EPlayerStats@@UAEHXZ
        798  31D 001215E0 ?CheckIDs@ERangeModelDestruction@@UAEHXZ
        799  31E 00156100 ?CheckIDs@ERebirth@@UAEHXZ
        800  31F 0011DA80 ?CheckIDs@EReceiveScore@@UAEHXZ
        801  320 0011D880 ?CheckIDs@EReminder@@UAEHXZ
        802  321 0011DF00 ?CheckIDs@EScroll@@UAEHXZ
        803  322 0011DD60 ?CheckIDs@ESecretFound@@UAEHXZ
        804  323 001133E0 ?CheckIDs@ESetViewer@@UAEHXZ
        805  324 001563C0 ?CheckIDs@EShowConsole@@UAEHXZ
        806  325 0011DE30 ?CheckIDs@ESound@@UAEHXZ
        807  326 001140A0 ?CheckIDs@ESpawnSpray@@UAEHXZ
        808  327 0011D3F0 ?CheckIDs@EStart@@UAEHXZ
        809  328 0011D8E0 ?CheckIDs@EStartAttack@@UAEHXZ
        810  329 000FA400 ?CheckIDs@EStartEffect@@UAEHXZ
        811  32A 00129250 ?CheckIDs@EStartSounds@@UAEHXZ
        812  32B 0011D320 ?CheckIDs@EStop@@UAEHXZ
        813  32C 0011D940 ?CheckIDs@EStopAttack@@UAEHXZ
        814  32D 0011D9A0 ?CheckIDs@EStopBlindness@@UAEHXZ
        815  32E 0011DA00 ?CheckIDs@EStopDeafness@@UAEHXZ
        816  32F 000FA3A0 ?CheckIDs@EStopEffect@@UAEHXZ
        817  330 001292B0 ?CheckIDs@EStopSounds@@UAEHXZ
        818  331 00156580 ?CheckIDs@ESubtitleEvent@@UAEHXZ
        819  332 0011D800 ?CheckIDs@ETeleportMovingBrush@@UAEHXZ
        820  333 0011DFD0 ?CheckIDs@ETextFX@@UAEHXZ
        821  334 0011D7A0 ?CheckIDs@ETrigger@@UAEHXZ
        822  335 0011E500 ?CheckIDs@EVoiceMessage@@UAEHXZ
        823  336 0006BB50 ?CheckIDs@ProxyBash@@UAEHXZ
        824  337 0006C980 ?CheckIDs@ProxyBombConfigured@@UAEHXZ
        825  338 0006B970 ?CheckIDs@ProxyBurstFire@@UAEHXZ
        826  339 0006B9D0 ?CheckIDs@ProxyCeaseFire@@UAEHXZ
        827  33A 0006C920 ?CheckIDs@ProxyConfigureBomb@@UAEHXZ
        828  33B 0006C490 ?CheckIDs@ProxyDeath@@UAEHXZ
        829  33C 000741B0 ?CheckIDs@ProxyDeathThroe@@UAEHXZ
        830  33D 0006BDD0 ?CheckIDs@ProxyDiscoverBody@@UAEHXZ
        831  33E 0006C4F0 ?CheckIDs@ProxyDoIdleSpice@@UAEHXZ
        832  33F 0006C310 ?CheckIDs@ProxyFall@@UAEHXZ
        833  340 0006B8B0 ?CheckIDs@ProxyFire@@UAEHXZ
        834  341 0006BD50 ?CheckIDs@ProxyFlee@@UAEHXZ
        835  342 0006C0D0 ?CheckIDs@ProxyFling@@UAEHXZ
        836  343 0006C130 ?CheckIDs@ProxyGetUp@@UAEHXZ
        837  344 0006BF50 ?CheckIDs@ProxyHop@@UAEHXZ
        838  345 0006BE90 ?CheckIDs@ProxyJump@@UAEHXZ
        839  346 0006BCD0 ?CheckIDs@ProxyLookAround@@UAEHXZ
        840  347 0006B170 ?CheckIDs@ProxyPunchThrown@@UAEHXZ
        841  348 0006C8C0 ?CheckIDs@ProxyReachForBomb@@UAEHXZ
        842  349 0006BA90 ?CheckIDs@ProxyReleaseGrenade@@UAEHXZ
        843  34A 0006B1D0 ?CheckIDs@ProxyReload@@UAEHXZ
        844  34B 0006B4E0 ?CheckIDs@ProxyReplenishHealth@@UAEHXZ
        845  34C 0006B2E0 ?CheckIDs@ProxyReplenishPossible@@UAEHXZ
        846  34D 0006B3D0 ?CheckIDs@ProxyReplenishRequest@@UAEHXZ
        847  34E 0006B5F0 ?CheckIDs@ProxyReplenishWeapon@@UAEHXZ
        848  34F 0006BAF0 ?CheckIDs@ProxyResetFireAnimation@@UAEHXZ
        849  350 0006C190 ?CheckIDs@ProxyResetFling@@UAEHXZ
        850  351 0006C010 ?CheckIDs@ProxyRoll@@UAEHXZ
        851  352 0006BBD0 ?CheckIDs@ProxySelectWeapon@@UAEHXZ
        852  353 0006BC50 ?CheckIDs@ProxySetNewWeapon@@UAEHXZ
        853  354 0006C290 ?CheckIDs@ProxySetStance@@UAEHXZ
        854  355 0006C3D0 ?CheckIDs@ProxyStop@@UAEHXZ
        855  356 0006C550 ?CheckIDs@ProxyStopIdleSpice@@UAEHXZ
        856  357 0006B7F0 ?CheckIDs@ProxySyncWeaponAmmo@@UAEHXZ
        857  358 0006BA30 ?CheckIDs@ProxyThrowGrenade@@UAEHXZ
        858  359 0006C7D0 ?CheckIDs@ProxyTimedBombInRange@@UAEHXZ
        859  35A 0006C370 ?CheckIDs@ProxyTouchDown@@UAEHXZ
        860  35B 0006B770 ?CheckIDs@ProxyWeaponChangeComplete@@UAEHXZ
        861  35C 0006B650 ?CheckIDs@ProxyWeaponToBack@@UAEHXZ
        862  35D 0006B710 ?CheckIDs@ProxyWeaponToHand@@UAEHXZ
        863  35E 0006B6B0 ?CheckIDs@ProxyWeaponToHip@@UAEHXZ
        864  35F 0006C210 ?CheckIDs@ProxyWounded@@UAEHXZ
        865  360 0006CA40 ?CheckIDs@RespawnEvent@@UAEHXZ
        866  361 0006B110 ?CheckIDs@SyncDescriptorEvent@@UAEHXZ
        867  362 0006B090 ?CheckIDs@SyncPositioningEvent@@UAEHXZ
        868  363 0010D210 ?CheckIDs@TimedBombActive@@UAEHXZ
        869  364 0010D340 ?CheckIDs@TimedBombDormant@@UAEHXZ
        870  365 0010D1B0 ?CheckIDs@TimedBombToActive@@UAEHXZ
        871  366 0010D2E0 ?CheckIDs@TimedBombToDormant@@UAEHXZ
        872  367 0006AF80 ?CheckIDs@TriggerGameEntity@@UAEHXZ
        873  368 0013C0A0 ?CheckIDs@WorldLinkEvent@@UAEHXZ
        874  369 0015CE40 ?CheckMarineAvailable@CPlayer@@QAEXXZ
        875  36A 0023EF88 ?ClasificationBits_enum@@3VCEntityPropertyEnumType@@A
        876  36B 0023EF08 ?ClasificationBits_values@@3PAVCEntityPropertyEnumValue@@A
        877  36C 000B5390 ?Clear@CCompMessageID@@QAEXXZ
        878  36D 00159970 ?ClearActionApplied@CPlayer@@UAEXXZ
        879  36E 001599A0 ?ClearReapplyingActions@CPlayer@@UAEXXZ
        880  36F 0000D910 ?ClearToDefault@@YAXAAVABZSwitchMarine@@@Z
        881  370 000D1AB0 ?ClearToDefault@@YAXAAVCActorActivate@@@Z
        882  371 000D1BB0 ?ClearToDefault@@YAXAAVCActorDeactivate@@@Z
        883  372 00005030 ?ClearToDefault@@YAXAAVDamageEvent@@@Z
        884  373 0016EAF0 ?ClearToDefault@@YAXAAVEActivate@@@Z
        885  374 001074B0 ?ClearToDefault@@YAXAAVEActivateSpaceDebree@@@Z
        886  375 000D1920 ?ClearToDefault@@YAXAAVEAnimTriggerAndConfigure@@@Z
        887  376 00127C40 ?ClearToDefault@@YAXAAVEBrushDeath@@@Z
        888  377 001278B0 ?ClearToDefault@@YAXAAVEBrushDestroyed@@@Z
        889  378 0000CAB0 ?ClearToDefault@@YAXAAVECameraStart@@@Z
        890  379 0000CCD0 ?ClearToDefault@@YAXAAVECameraStop@@@Z
        891  37A 0016FD90 ?ClearToDefault@@YAXAAVECenterMessage@@@Z
        892  37B 00001230 ?ClearToDefault@@YAXAAVEChangeAnim@@@Z
        893  37C 000B51C0 ?ClearToDefault@@YAXAAVEChangeMusic@@@Z
        894  37D 0016F3B0 ?ClearToDefault@@YAXAAVECloseDoor@@@Z
        895  37E 0016FED0 ?ClearToDefault@@YAXAAVEComputerMessage@@@Z
        896  37F 0016FC30 ?ClearToDefault@@YAXAAVECredits@@@Z
        897  380 000E2B40 ?ClearToDefault@@YAXAAVECutscene@@@Z
        898  381 0016EC00 ?ClearToDefault@@YAXAAVEDeactivate@@@Z
        899  382 0016D190 ?ClearToDefault@@YAXAAVEDeactivateEffect@@@Z
        900  383 0000D070 ?ClearToDefault@@YAXAAVEDisconnected@@@Z
        901  384 0016EDA0 ?ClearToDefault@@YAXAAVEEnd@@@Z
        902  385 0016ECE0 ?ClearToDefault@@YAXAAVEEnvironmentStart@@@Z
        903  386 0016ED40 ?ClearToDefault@@YAXAAVEEnvironmentStop@@@Z
        904  387 00060C90 ?ClearToDefault@@YAXAAVEExplosion@@@Z
        905  388 001277B0 ?ClearToDefault@@YAXAAVEHit@@@Z
        906  389 001700C0 ?ClearToDefault@@YAXAAVEHitBySpaceShipBeam@@@Z
        907  38A 0016FB00 ?ClearToDefault@@YAXAAVEHudPicFX@@@Z
        908  38B 000D34F0 ?ClearToDefault@@YAXAAVEInitBeacon@@@Z
        909  38C 0000C900 ?ClearToDefault@@YAXAAVEInitializePlayer@@@Z
        910  38D 00101520 ?ClearToDefault@@YAXAAVEInitializeShadowRenderer@@@Z
        911  38E 0016F510 ?ClearToDefault@@YAXAAVEKilledEnemy@@@Z
        912  38F 00056CC0 ?ClearToDefault@@YAXAAVELaunchGrenade@@@Z
        913  390 0000DBF0 ?ClearToDefault@@YAXAAVELocalTeleTypeMessage@@@Z
        914  391 000013D0 ?ClearToDefault@@YAXAAVEModel2Activate@@@Z
        915  392 000014D0 ?ClearToDefault@@YAXAAVEModel2Deactivate@@@Z
        916  393 00001AF0 ?ClearToDefault@@YAXAAVEModel3Activate@@@Z
        917  394 00001BF0 ?ClearToDefault@@YAXAAVEModel3Deactivate@@@Z
        918  395 00001CF0 ?ClearToDefault@@YAXAAVEModel3Initialize@@@Z
        919  396 000019F0 ?ClearToDefault@@YAXAAVEModelDeath@@@Z
        920  397 0012CC30 ?ClearToDefault@@YAXAAVEMusicChangerTrigger@@@Z
        921  398 000B5360 ?ClearToDefault@@YAXAAVENetChangeMusic@@@Z
        922  399 000016F0 ?ClearToDefault@@YAXAAVENetStartSound@@@Z
        923  39A 000017F0 ?ClearToDefault@@YAXAAVENetStopSound@@@Z
        924  39B 0000DDE0 ?ClearToDefault@@YAXAAVENetworkTeleTypeMessage@@@Z
        925  39C 0016F2A0 ?ClearToDefault@@YAXAAVEOpenDoor@@@Z
        926  39D 000015F0 ?ClearToDefault@@YAXAAVEPlaySoundOnce@@@Z
        927  39E 0000D280 ?ClearToDefault@@YAXAAVEPlayerDeath@@@Z
        928  39F 0000CF60 ?ClearToDefault@@YAXAAVEPlayerRebirth@@@Z
        929  3A0 0000D540 ?ClearToDefault@@YAXAAVEPlayerStats@@@Z
        930  3A1 000018F0 ?ClearToDefault@@YAXAAVERangeModelDestruction@@@Z
        931  3A2 0000CE50 ?ClearToDefault@@YAXAAVERebirth@@@Z
        932  3A3 0016F200 ?ClearToDefault@@YAXAAVEReceiveScore@@@Z
        933  3A4 0016F000 ?ClearToDefault@@YAXAAVEReminder@@@Z
        934  3A5 0016F8A0 ?ClearToDefault@@YAXAAVEScroll@@@Z
        935  3A6 0016F600 ?ClearToDefault@@YAXAAVESecretFound@@@Z
        936  3A7 000B4FE0 ?ClearToDefault@@YAXAAVESetViewer@@@Z
        937  3A8 0000D410 ?ClearToDefault@@YAXAAVEShowConsole@@@Z
        938  3A9 0016F770 ?ClearToDefault@@YAXAAVESound@@@Z
        939  3AA 001137A0 ?ClearToDefault@@YAXAAVESpawnSpray@@@Z
        940  3AB 0016E9E0 ?ClearToDefault@@YAXAAVEStart@@@Z
        941  3AC 0016F070 ?ClearToDefault@@YAXAAVEStartAttack@@@Z
        942  3AD 0016D130 ?ClearToDefault@@YAXAAVEStartEffect@@@Z
        943  3AE 001279B0 ?ClearToDefault@@YAXAAVEStartSounds@@@Z
        944  3AF 0016E950 ?ClearToDefault@@YAXAAVEStop@@@Z
        945  3B0 0016F0D0 ?ClearToDefault@@YAXAAVEStopAttack@@@Z
        946  3B1 0016F130 ?ClearToDefault@@YAXAAVEStopBlindness@@@Z
        947  3B2 0016F190 ?ClearToDefault@@YAXAAVEStopDeafness@@@Z
        948  3B3 0016D0D0 ?ClearToDefault@@YAXAAVEStopEffect@@@Z
        949  3B4 00127AB0 ?ClearToDefault@@YAXAAVEStopSounds@@@Z
        950  3B5 0000D710 ?ClearToDefault@@YAXAAVESubtitleEvent@@@Z
        951  3B6 0016EF90 ?ClearToDefault@@YAXAAVETeleportMovingBrush@@@Z
        952  3B7 0016F9D0 ?ClearToDefault@@YAXAAVETextFX@@@Z
        953  3B8 0016EE70 ?ClearToDefault@@YAXAAVETrigger@@@Z
        954  3B9 00170000 ?ClearToDefault@@YAXAAVEVoiceMessage@@@Z
        955  3BA 00003820 ?ClearToDefault@@YAXAAVProxyBash@@@Z
        956  3BB 00005650 ?ClearToDefault@@YAXAAVProxyBombConfigured@@@Z
        957  3BC 00003300 ?ClearToDefault@@YAXAAVProxyBurstFire@@@Z
        958  3BD 00003420 ?ClearToDefault@@YAXAAVProxyCeaseFire@@@Z
        959  3BE 00005550 ?ClearToDefault@@YAXAAVProxyConfigureBomb@@@Z
        960  3BF 00004C10 ?ClearToDefault@@YAXAAVProxyDeath@@@Z
        961  3C0 0002D410 ?ClearToDefault@@YAXAAVProxyDeathThroe@@@Z
        962  3C1 00003E10 ?ClearToDefault@@YAXAAVProxyDiscoverBody@@@Z
        963  3C2 00004D30 ?ClearToDefault@@YAXAAVProxyDoIdleSpice@@@Z
        964  3C3 000048B0 ?ClearToDefault@@YAXAAVProxyFall@@@Z
        965  3C4 00003190 ?ClearToDefault@@YAXAAVProxyFire@@@Z
        966  3C5 00003CF0 ?ClearToDefault@@YAXAAVProxyFlee@@@Z
        967  3C6 00004340 ?ClearToDefault@@YAXAAVProxyFling@@@Z
        968  3C7 00004460 ?ClearToDefault@@YAXAAVProxyGetUp@@@Z
        969  3C8 000040A0 ?ClearToDefault@@YAXAAVProxyHop@@@Z
        970  3C9 00003F50 ?ClearToDefault@@YAXAAVProxyJump@@@Z
        971  3CA 00003BD0 ?ClearToDefault@@YAXAAVProxyLookAround@@@Z
        972  3CB 00002250 ?ClearToDefault@@YAXAAVProxyPunchThrown@@@Z
        973  3CC 00005410 ?ClearToDefault@@YAXAAVProxyReachForBomb@@@Z
        974  3CD 00003620 ?ClearToDefault@@YAXAAVProxyReleaseGrenade@@@Z
        975  3CE 00002350 ?ClearToDefault@@YAXAAVProxyReload@@@Z
        976  3CF 000028B0 ?ClearToDefault@@YAXAAVProxyReplenishHealth@@@Z
        977  3D0 000024F0 ?ClearToDefault@@YAXAAVProxyReplenishPossible@@@Z
        978  3D1 000026D0 ?ClearToDefault@@YAXAAVProxyReplenishRequest@@@Z
        979  3D2 00002AB0 ?ClearToDefault@@YAXAAVProxyReplenishWeapon@@@Z
        980  3D3 00003720 ?ClearToDefault@@YAXAAVProxyResetFireAnimation@@@Z
        981  3D4 00004560 ?ClearToDefault@@YAXAAVProxyResetFling@@@Z
        982  3D5 000041F0 ?ClearToDefault@@YAXAAVProxyRoll@@@Z
        983  3D6 00003970 ?ClearToDefault@@YAXAAVProxySelectWeapon@@@Z
        984  3D7 00003AB0 ?ClearToDefault@@YAXAAVProxySetNewWeapon@@@Z
        985  3D8 00004790 ?ClearToDefault@@YAXAAVProxySetStance@@@Z
        986  3D9 00004AC0 ?ClearToDefault@@YAXAAVProxyStop@@@Z
        987  3DA 00004E30 ?ClearToDefault@@YAXAAVProxyStopIdleSpice@@@Z
        988  3DB 00003030 ?ClearToDefault@@YAXAAVProxySyncWeaponAmmo@@@Z
        989  3DC 00003520 ?ClearToDefault@@YAXAAVProxyThrowGrenade@@@Z
        990  3DD 00005240 ?ClearToDefault@@YAXAAVProxyTimedBombInRange@@@Z
        991  3DE 000049C0 ?ClearToDefault@@YAXAAVProxyTouchDown@@@Z
        992  3DF 00002F00 ?ClearToDefault@@YAXAAVProxyWeaponChangeComplete@@@Z
        993  3E0 00002C00 ?ClearToDefault@@YAXAAVProxyWeaponToBack@@@Z
        994  3E1 00002E00 ?ClearToDefault@@YAXAAVProxyWeaponToHand@@@Z
        995  3E2 00002D00 ?ClearToDefault@@YAXAAVProxyWeaponToHip@@@Z
        996  3E3 00004670 ?ClearToDefault@@YAXAAVProxyWounded@@@Z
        997  3E4 00005780 ?ClearToDefault@@YAXAAVRespawnEvent@@@Z
        998  3E5 00002140 ?ClearToDefault@@YAXAAVSyncDescriptorEvent@@@Z
        999  3E6 00001FF0 ?ClearToDefault@@YAXAAVSyncPositioningEvent@@@Z
       1000  3E7 00014E20 ?ClearToDefault@@YAXAAVTimedBombActive@@@Z
       1001  3E8 00015140 ?ClearToDefault@@YAXAAVTimedBombDormant@@@Z
       1002  3E9 00014CA0 ?ClearToDefault@@YAXAAVTimedBombToActive@@@Z
       1003  3EA 00014FC0 ?ClearToDefault@@YAXAAVTimedBombToDormant@@@Z
       1004  3EB 00001E80 ?ClearToDefault@@YAXAAVTriggerGameEntity@@@Z
       1005  3EC 0013BBB0 ?ClearToDefault@@YAXAAVWorldLinkEvent@@@Z
       1006  3ED 00059190 ?ClearToDefault@@YAXAAW4ABZGrenadeType@@@Z
       1007  3EE 00058200 ?ClearToDefault@@YAXAAW4ABZSideArmType@@@Z
       1008  3EF 00001D20 ?ClearToDefault@@YAXAAW4ABZWeaponType@@@Z
       1009  3F0 00001D50 ?ClearToDefault@@YAXAAW4AlignmentType@@@Z
       1010  3F1 00127CA0 ?ClearToDefault@@YAXAAW4BlockAction@@@Z
       1011  3F2 0016F620 ?ClearToDefault@@YAXAAW4BoolEType@@@Z
       1012  3F3 000057C0 ?ClearToDefault@@YAXAAW4BotEventsType@@@Z
       1013  3F4 000D9690 ?ClearToDefault@@YAXAAW4BotSpawnerType@@@Z
       1014  3F5 0016F680 ?ClearToDefault@@YAXAAW4BulletHitType@@@Z
       1015  3F6 0016F450 ?ClearToDefault@@YAXAAW4CauseOfDeath@@@Z
       1016  3F7 0016F6C0 ?ClearToDefault@@YAXAAW4ClasificationBits@@@Z
       1017  3F8 0005D310 ?ClearToDefault@@YAXAAW4ColonistFaceType@@@Z
       1018  3F9 00014B10 ?ClearToDefault@@YAXAAW4ConfigurationState@@@Z
       1019  3FA 00001D60 ?ClearToDefault@@YAXAAW4CoverType@@@Z
       1020  3FB 000014F0 ?ClearToDefault@@YAXAAW4CustomShadingType@@@Z
       1021  3FC 000E2B70 ?ClearToDefault@@YAXAAW4CutSceneStateType@@@Z
       1022  3FD 001048A0 ?ClearToDefault@@YAXAAW4DebreeStates@@@Z
       1023  3FE 0011A190 ?ClearToDefault@@YAXAAW4DoorType@@@Z
       1024  3FF 0016F690 ?ClearToDefault@@YAXAAW4EffectParticlesType@@@Z
       1025  400 00062CD0 ?ClearToDefault@@YAXAAW4EngineerFaceTypes@@@Z
       1026  401 0016F640 ?ClearToDefault@@YAXAAW4EntityInfoBodyType@@@Z
       1027  402 00001D90 ?ClearToDefault@@YAXAAW4EntityRoleType@@@Z
       1028  403 0016F630 ?ClearToDefault@@YAXAAW4EventEType@@@Z
       1029  404 00060AC0 ?ClearToDefault@@YAXAAW4ExplosionTypeEnum@@@Z
       1030  405 000266F0 ?ClearToDefault@@YAXAAW4ExplosionTypes@@@Z
       1031  406 00001D80 ?ClearToDefault@@YAXAAW4FiringRateType@@@Z
       1032  407 0011BBE0 ?ClearToDefault@@YAXAAW4FogAttenuationType@@@Z
       1033  408 0011BBF0 ?ClearToDefault@@YAXAAW4FogGraduationType2@@@Z
       1034  409 00056AA0 ?ClearToDefault@@YAXAAW4GrenadeStateEnum@@@Z
       1035  40A 00056A90 ?ClearToDefault@@YAXAAW4GrenadeTriggerEnum@@@Z
       1036  40B 00056AB0 ?ClearToDefault@@YAXAAW4GrenadeTypeEnum@@@Z
       1037  40C 000468B0 ?ClearToDefault@@YAXAAW4GroupBehaviorType@@@Z
       1038  40D 0016F460 ?ClearToDefault@@YAXAAW4KillType@@@Z
       1039  40E 00001010 ?ClearToDefault@@YAXAAW4LensFlareType@@@Z
       1040  40F 00001000 ?ClearToDefault@@YAXAAW4LightType@@@Z
       1041  410 000581F0 ?ClearToDefault@@YAXAAW4MarineFaceType@@@Z
       1042  411 00001D40 ?ClearToDefault@@YAXAAW4MentalConditionType@@@Z
       1043  412 000F6B90 ?ClearToDefault@@YAXAAW4MercWeaponType@@@Z
       1044  413 00056D70 ?ClearToDefault@@YAXAAW4MercenaryFaceType@@@Z
       1045  414 00056D80 ?ClearToDefault@@YAXAAW4MercenaryStartupType@@@Z
       1046  415 0016F650 ?ClearToDefault@@YAXAAW4MessageSound@@@Z
       1047  416 0013E9F0 ?ClearToDefault@@YAXAAW4MissionObjectiveType@@@Z
       1048  417 00001D10 ?ClearToDefault@@YAXAAW4ModelSurfaceTypes@@@Z
       1049  418 000B5000 ?ClearToDefault@@YAXAAW4MusicType@@@Z
       1050  419 0005FCE0 ?ClearToDefault@@YAXAAW4PI7SideArmType@@@Z
       1051  41A 0016D080 ?ClearToDefault@@YAXAAW4ParticleBlendTypes@@@Z
       1052  41B 0016F660 ?ClearToDefault@@YAXAAW4ParticleTexture@@@Z
       1053  41C 0002D310 ?ClearToDefault@@YAXAAW4PhysicsBitsHigh@@@Z
       1054  41D 0002D300 ?ClearToDefault@@YAXAAW4PhysicsBitsLow@@@Z
       1055  41E 0002D320 ?ClearToDefault@@YAXAAW4PhysicsFlagComboType@@@Z
       1056  41F 0005FCD0 ?ClearToDefault@@YAXAAW4Pi7FaceType@@@Z
       1057  420 0000C800 ?ClearToDefault@@YAXAAW4PlayerState@@@Z
       1058  421 000F5540 ?ClearToDefault@@YAXAAW4ReplenishWeaponType@@@Z
       1059  422 000F5530 ?ClearToDefault@@YAXAAW4ReplenisherType@@@Z
       1060  423 000D1580 ?ClearToDefault@@YAXAAW4SequenceEventTypes@@@Z
       1061  424 00001500 ?ClearToDefault@@YAXAAW4ShadowType@@@Z
       1062  425 00066A90 ?ClearToDefault@@YAXAAW4SideArm@@@Z
       1063  426 00064A70 ?ClearToDefault@@YAXAAW4SolgovSoldierSideArmType@@@Z
       1064  427 0016F670 ?ClearToDefault@@YAXAAW4SoundType@@@Z
       1065  428 0016F6A0 ?ClearToDefault@@YAXAAW4SprayParticlesType@@@Z
       1066  429 0005EAF0 ?ClearToDefault@@YAXAAW4SwarmBotType@@@Z
       1067  42A 00001D70 ?ClearToDefault@@YAXAAW4TalkativityType@@@Z
       1068  42B 00014B00 ?ClearToDefault@@YAXAAW4TimedBombControllerEnum@@@Z
       1069  42C 0010EA90 ?ClearToDefault@@YAXAAW4TimedBombFieldType@@@Z
       1070  42D 0010EAA0 ?ClearToDefault@@YAXAAW4TimedBombSignalState@@@Z
       1071  42E 00014AF0 ?ClearToDefault@@YAXAAW4TimedBombStateEnum@@@Z
       1072  42F 000DBEE0 ?ClearToDefault@@YAXAAW4TouchFieldType@@@Z
       1073  430 00127CB0 ?ClearToDefault@@YAXAAW4TouchOrDamageEvent@@@Z
       1074  431 00001D30 ?ClearToDefault@@YAXAAW4TrainingType@@@Z
       1075  432 0016F6D0 ?ClearToDefault@@YAXAAW4VisibilityBits@@@Z
       1076  433 00120B70 ?ClearToDefault@@YAXAAW4WarpRotation@@@Z
       1077  434 000115E0 ?ClearToDefault@@YAXAAW4WaypointType@@@Z
       1078  435 0016F6B0 ?ClearToDefault@@YAXAAW4WeaponBits@@@Z
       1079  436 0013BAC0 ?ClearToDefault@@YAXAAW4WorldLinkType@@@Z
       1080  437 00011780 ?ClearToDefault@@YAXAAW4coverpointType@@@Z
       1081  438 000115D0 ?ClearToDefault@@YAXAAW4triggerEffectType@@@Z
       1082  439 0015CAF0 ?ClipRotation@CPlayer@@QAEXW4PlayerState@@PAV?$Vector@M$02@@@Z
       1083  43A 00223620 ?ColonistFaceType_enum@@3VCEntityPropertyEnumType@@A
       1084  43B 00223580 ?ColonistFaceType_values@@3PAVCEntityPropertyEnumValue@@A
       1085  43C 0015F8A0 ?ComposePlayerAction@@YAXPBVCWorld@@ABVCPlayerCharacter@@AAVCPlayerControls@@AAVCPlayerAction@@@Z
       1086  43D 0023CCC0 ?ConfigurationState_enum@@3VCEntityPropertyEnumType@@A
       1087  43E 0023CCA0 ?ConfigurationState_values@@3PAVCEntityPropertyEnumValue@@A
       1088  43F 000E40F0 ?Copy@CCutSceneEntity@@UAEXAAVCEntity@@K@Z
       1089  440 0006E290 ?Copy@CGameEntity@@UAEXAAVCEntity@@K@Z
       1090  441 0013F910 ?Copy@CMissionObjectiveManagerEntity@@UAEXAAVCEntity@@K@Z
       1091  442 0015ACC0 ?Copy@CPlayer@@UAEXAAVCEntity@@K@Z
       1092  443 0022AC88 ?CoverType_enum@@3VCEntityPropertyEnumType@@A
       1093  444 0022AC48 ?CoverType_values@@3PAVCEntityPropertyEnumValue@@A
       1094  445 00159CC0 ?CreateRotationFromAction@CPlayer@@QAE?AV?$Vector@M$02@@ABVCPlayerAction@@@Z
       1095  446 00159C90 ?CreateTranslationFromAction@CPlayer@@QAE?AV?$Vector@M$02@@ABVCPlayerAction@@@Z
       1096  447 0023FEA8 ?CustomShadingType_enum@@3VCEntityPropertyEnumType@@A
       1097  448 0023FE80 ?CustomShadingType_values@@3PAVCEntityPropertyEnumValue@@A
       1098  449 00238220 ?CutSceneStateType_enum@@3VCEntityPropertyEnumType@@A
       1099  44A 002381F8 ?CutSceneStateType_values@@3PAVCEntityPropertyEnumValue@@A
       1100  44B 000BA8C0 ?DamageStrength@@YAMW4EntityInfoBodyType@@W4DamageType@@@Z
       1101  44C 0015E260 ?Death@CPlayer@@QAEHABVCEntityEvent@@@Z
       1102  44D 0023BE18 ?DebreeStates_enum@@3VCEntityPropertyEnumType@@A
       1103  44E 0023BDF8 ?DebreeStates_values@@3PAVCEntityPropertyEnumValue@@A
       1104  44F 0015CA00 ?Disconnect@CPlayer@@UAEXXZ
       1105  450 00170130 ?DistanceTo@@YAMPAVCEntity@@0@Z
       1106  451 0015C650 ?DoMoving@CPlayer@@UAEXXZ
       1107  452 0023E4C0 ?DoorType_enum@@3VCEntityPropertyEnumType@@A
       1108  453 0023E4A0 ?DoorType_values@@3PAVCEntityPropertyEnumValue@@A
       1109  454 00157220 ?DumpToConsole@CPlayer@@UAEXXZ
       1110  455 0023ED68 ?EffectParticlesType_enum@@3VCEntityPropertyEnumType@@A
       1111  456 0023ED20 ?EffectParticlesType_values@@3PAVCEntityPropertyEnumValue@@A
       1112  457 0022686C ?EngineerFaceTypes_enum@@3VCEntityPropertyEnumType@@A
       1113  458 0022685C ?EngineerFaceTypes_values@@3PAVCEntityPropertyEnumValue@@A
       1114  459 0023EBF0 ?EntityInfoBodyType_enum@@3VCEntityPropertyEnumType@@A
       1115  45A 0023EBA0 ?EntityInfoBodyType_values@@3PAVCEntityPropertyEnumValue@@A
       1116  45B 0022AD28 ?EntityRoleType_enum@@3VCEntityPropertyEnumType@@A
       1117  45C 0022ACF8 ?EntityRoleType_values@@3PAVCEntityPropertyEnumValue@@A
       1118  45D 0023EB98 ?EventEType_enum@@3VCEntityPropertyEnumType@@A
       1119  45E 0023EB20 ?EventEType_values@@3PAVCEntityPropertyEnumValue@@A
       1120  45F 00238700 ?ExplosionTypeEnum_enum@@3VCEntityPropertyEnumType@@A
       1121  460 002386F0 ?ExplosionTypeEnum_values@@3PAVCEntityPropertyEnumValue@@A
       1122  461 00238AA8 ?ExplosionTypes_enum@@3VCEntityPropertyEnumType@@A
       1123  462 00238A20 ?ExplosionTypes_values@@3PAVCEntityPropertyEnumValue@@A
       1124  463 0015DD60 ?ExplosionView@CPlayer@@QAEXM@Z
       1125  464 0015AE90 ?FindMusicHolder@CPlayer@@QAEXXZ
       1126  465 00196850 ?FindNearestWaypoint@CWorldState@@QAEPAVCWaypointEntity@@PAV?$vector@VCEntityPointer@@V?$allocator@VCEntityPointer@@@_STL@@@_STL@@PAV?$vector@PAVCWaypointEntity@@V?$allocator@PAVCWaypointEntity@@@_STL@@@4@V?$Vector@M$02@@@Z
       1127  466 00196770 ?FindNearestWaypoint@CWorldState@@QAEPAVCWaypointEntity@@V?$Vector@M$02@@@Z
       1128  467 0022ACF0 ?FiringRateType_enum@@3VCEntityPropertyEnumType@@A
       1129  468 0022ACC8 ?FiringRateType_values@@3PAVCEntityPropertyEnumValue@@A
       1130  469 000BAA60 ?FixupCausedToPlayer@@YAPAVCEntity@@PAV1@0H@Z
       1131  46A 0023E7F8 ?FogAttenuationType_enum@@3VCEntityPropertyEnumType@@A
       1132  46B 0023E7E0 ?FogAttenuationType_values@@3PAVCEntityPropertyEnumValue@@A
       1133  46C 0023E818 ?FogGraduationType2_enum@@3VCEntityPropertyEnumType@@A
       1134  46D 0023E800 ?FogGraduationType2_values@@3PAVCEntityPropertyEnumValue@@A
       1135  46E 00197F90 ?GetAccessMap@CWorldState@@QAEPAVCAccessMap@@XZ
       1136  46F 001571C0 ?GetAdapter@CPlayer@@QAEPAVCEntityAdapter@@XZ
       1137  470 001978B0 ?GetAlivePlayableMarineCount@CWorldState@@QAEIXZ
       1138  471 00157140 ?GetAnimatedModel@CPlayer@@QAEPAVCHumanAnimatedModel@@XZ
       1139  472 00198650 ?GetBeacons@CWorldState@@QAEAAV?$vector@PAVCBeaconEntity@@V?$allocator@PAVCBeaconEntity@@@_STL@@@_STL@@XZ
       1140  473 00198C20 ?GetBehaviorConfigs@CWorldState@@QAEPAVCBehaviorConfigCache@@XZ
       1141  474 0016D280 ?GetCoverPoints@CWorldState@@QAEPAVCCoverPointContainer@@XZ
       1142  475 000E5C80 ?GetCutSceneLength@CCutSceneEntity@@QAEHXZ
       1143  476 00198630 ?GetCutScenesRunning@CWorldState@@QBEPBV?$list@VCEntityPointer@@V?$allocator@VCEntityPointer@@@_STL@@@_STL@@XZ
       1144  477 0015CBC0 ?GetDeathmatchStartMarker@CPlayer@@QAEPAVCEntity@@XZ
       1145  478 000D1BE0 ?GetDescription@CActor@@UBEABVCTString@@XZ
       1146  479 00198620 ?GetDifficulty@CWorldState@@QAEPAVCDifficultySettings@@XZ
       1147  47A 0015C850 ?GetEntityInfo@CPlayer@@UAEPAXXZ
       1148  47B 000B5600 ?GetEntityInfoPosition@@YAXPAVCEntity@@PAMAAV?$Vector@M$02@@@Z
       1149  47C 000E48C0 ?GetEventAtIndex@CCutSceneEntity@@QAEPBUCSequenceEvent@@H@Z
       1150  47D 000E47C0 ?GetEventAtIndex@CCutSceneEntity@@QAE_NHAAUCSequenceEvent@@@Z
       1151  47E 000E4910 ?GetEventList@CCutSceneEntity@@QAEPAV?$vector@UCSequenceEvent@@V?$allocator@UCSequenceEvent@@@_STL@@@_STL@@XZ
       1152  47F 000E4900 ?GetEventList@CCutSceneEntity@@QBEPBV?$vector@UCSequenceEvent@@V?$allocator@UCSequenceEvent@@@_STL@@@_STL@@XZ
       1153  480 000E47B0 ?GetEventListSize@CCutSceneEntity@@QAEHXZ
       1154  481 00197EA0 ?GetFoeTeam@CWorldState@@QAEPAVCBotGroup@@XZ
       1155  482 000BB1D0 ?GetGameDamageMultiplier@@YAMXZ
       1156  483 00157170 ?GetGameEntity@CPlayer@@QAEPAVCGameEntity@@XZ
       1157  484 001571E0 ?GetGameEntityState@CPlayer@@QAE?AW4PlayerState@@XZ
       1158  485 0015AE50 ?GetGameSpyPlayerInfo@CPlayer@@UAEXJAAVCTString@@@Z
       1159  486 00197ED0 ?GetInactiveBots@CWorldState@@QAEPAVCBotGroup@@XZ
       1160  487 00142240 ?GetLerpedPlacement@CBotTrackView@@UBE?AVCPlacement3D@@XZ
       1161  488 00143D10 ?GetLerpedPlacement@CCloseShoulderView@@UBE?AVCPlacement3D@@XZ
       1162  489 001458D0 ?GetLerpedPlacement@CCommandView@@UBE?AVCPlacement3D@@XZ
       1163  48A 00147650 ?GetLerpedPlacement@CFirstPersonView@@UBE?AVCPlacement3D@@XZ
       1164  48B 00148C90 ?GetLerpedPlacement@CPlayerDeathView@@UBE?AVCPlacement3D@@XZ
       1165  48C 0014B250 ?GetLerpedPlacement@CThirdPersonView@@UBE?AVCPlacement3D@@XZ
       1166  48D 0015AE40 ?GetLightSource@CPlayer@@UAEPAVCLightSource@@XZ
       1167  48E 00197EE0 ?GetListeners@CWorldState@@QAEPAV?$list@PAVCBotMessageListener@@V?$allocator@PAVCBotMessageListener@@@_STL@@@_STL@@XZ
       1168  48F 00197F80 ?GetLocalPlayer@CWorldState@@QAEPAVCPlayer@@XZ
       1169  490 00197E30 ?GetLocallyPlayedMarine@CWorldState@@QAEPAVCGameBot@@XZ
       1170  491 001975E0 ?GetMarinePlayerID@CWorldState@@QAEKPAVCGameBot@@@Z
       1171  492 00197EB0 ?GetMarineTeam@CWorldState@@QAEPAVCBotGroup@@XZ
       1172  493 00196F60 ?GetMilliSecondsSinceInit@CWorldState@@QAEJXZ
       1173  494 00198660 ?GetMissionObjectiveLabels@CWorldState@@QAEAAV?$vector@PAVCMissionObjectiveLabel@@V?$allocator@PAVCMissionObjectiveLabel@@@_STL@@@_STL@@XZ
       1174  495 0016D330 ?GetMissionObjectiveManager@CWorldState@@QBE?AVCEntityPointer@@XZ
       1175  496 0015AE80 ?GetModelForRendering@CPlayer@@UAEPAVCModelObject@@XZ
       1176  497 00197EC0 ?GetNPCTeam@CWorldState@@QAEPAVCBotGroup@@XZ
       1177  498 000D1BD0 ?GetName@CActor@@UBEABVCTString@@XZ
       1178  499 00109890 ?GetName@CTeleTypeEntity@@UBEABVCTString@@XZ
       1179  49A 0013FB00 ?GetNumOfObjectives@CMissionObjectiveManagerEntity@@QAEHW4MissionObjectiveType@@@Z
       1180  49B 0013FF40 ?GetObjective@CMissionObjectiveManagerEntity@@QAE_NW4MissionObjectiveType@@HAAVCEntityPointer@@@Z
       1181  49C 00140040 ?GetObjectiveByName@CMissionObjectiveManagerEntity@@QAE_NABVCTString@@W4MissionObjectiveType@@AAVCEntityPointer@@@Z
       1182  49D 00140090 ?GetObjectiveList@CMissionObjectiveManagerEntity@@QAEPBV?$vector@VCEntityPointer@@V?$allocator@VCEntityPointer@@@_STL@@@_STL@@W4MissionObjectiveType@@@Z
       1183  49E 0013FFC0 ?GetObjectiveName@CMissionObjectiveManagerEntity@@QAE_NW4MissionObjectiveType@@HAAVCTString@@@Z
       1184  49F 00197730 ?GetPlayableMarine@CWorldState@@QAEPAVCGameBot@@I@Z
       1185  4A0 00197550 ?GetPlayableMarineIndex@CWorldState@@QAEHPBVCGameBot@@@Z
       1186  4A1 00197750 ?GetPlayedMarine@CWorldState@@QAEPAVCGameBot@@ABK@Z
       1187  4A2 00197580 ?GetPlayedMarineIndex@CWorldState@@QAEHK@Z
       1188  4A3 00197E10 ?GetPlayerControllableMarines@CWorldState@@QAEPAVCBotGroup@@XZ
       1189  4A4 00197E20 ?GetPlayerControllableMarinesPersistent@CWorldState@@QAEPAV?$vector@PAVCGameBot@@V?$allocator@PAVCGameBot@@@_STL@@@_STL@@XZ
       1190  4A5 000B56C0 ?GetPositionCastRay@@YAXPAVCEntity@@0AAV?$Vector@M$02@@1@Z
       1191  4A6 00198640 ?GetReplenishers@CWorldState@@QAEAAV?$vector@PAVCReplenisherBase@@V?$allocator@PAVCReplenisherBase@@@_STL@@@_STL@@XZ
       1192  4A7 00170120 ?GetSP@@YAPBVCSessionProperties@@XZ
       1193  4A8 00198250 ?GetShouldShowAlignment@CWorldState@@QAEHXZ
       1194  4A9 00156610 ?GetSizeOf@ABZSwitchMarine@@UAEJXZ
       1195  4AA 000D2840 ?GetSizeOf@CActorActivate@@UAEJXZ
       1196  4AB 000D28A0 ?GetSizeOf@CActorDeactivate@@UAEJXZ
       1197  4AC 0006C610 ?GetSizeOf@DamageEvent@@UAEJXZ
       1198  4AD 0011D440 ?GetSizeOf@EActivate@@UAEJXZ
       1199  4AE 00107C60 ?GetSizeOf@EActivateSpaceDebree@@UAEJXZ
       1200  4AF 000D2750 ?GetSizeOf@EAnimTriggerAndConfigure@@UAEJXZ
       1201  4B0 00129330 ?GetSizeOf@EBrushDeath@@UAEJXZ
       1202  4B1 001291D0 ?GetSizeOf@EBrushDestroyed@@UAEJXZ
       1203  4B2 00155F50 ?GetSizeOf@ECameraStart@@UAEJXZ
       1204  4B3 00156020 ?GetSizeOf@ECameraStop@@UAEJXZ
       1205  4B4 0011E200 ?GetSizeOf@ECenterMessage@@UAEJXZ
       1206  4B5 001115F0 ?GetSizeOf@EChangeAnim@@UAEJXZ
       1207  4B6 0012E750 ?GetSizeOf@EChangeMusic@@UAEJXZ
       1208  4B7 0011DBA0 ?GetSizeOf@ECloseDoor@@UAEJXZ
       1209  4B8 0011E330 ?GetSizeOf@EComputerMessage@@UAEJXZ
       1210  4B9 0011E0F0 ?GetSizeOf@ECredits@@UAEJXZ
       1211  4BA 000E3330 ?GetSizeOf@ECutscene@@UAEJXZ
       1212  4BB 0011D510 ?GetSizeOf@EDeactivate@@UAEJXZ
       1213  4BC 000FA440 ?GetSizeOf@EDeactivateEffect@@UAEJXZ
       1214  4BD 001561C0 ?GetSizeOf@EDisconnected@@UAEJXZ
       1215  4BE 0011D690 ?GetSizeOf@EEnd@@UAEJXZ
       1216  4BF 0011D5D0 ?GetSizeOf@EEnvironmentStart@@UAEJXZ
       1217  4C0 0011D630 ?GetSizeOf@EEnvironmentStop@@UAEJXZ
       1218  4C1 000EAF20 ?GetSizeOf@EExplosion@@UAEJXZ
       1219  4C2 00129170 ?GetSizeOf@EHit@@UAEJXZ
       1220  4C3 0011E540 ?GetSizeOf@EHitBySpaceShipBeam@@UAEJXZ
       1221  4C4 0011E020 ?GetSizeOf@EHudPicFX@@UAEJXZ
       1222  4C5 000D39C0 ?GetSizeOf@EInitBeacon@@UAEJXZ
       1223  4C6 00155ED0 ?GetSizeOf@EInitializePlayer@@UAEJXZ
       1224  4C7 00101940 ?GetSizeOf@EInitializeShadowRenderer@@UAEJXZ
       1225  4C8 0011DC80 ?GetSizeOf@EKilledEnemy@@UAEJXZ
       1226  4C9 000F2A00 ?GetSizeOf@ELaunchGrenade@@UAEJXZ
       1227  4CA 00156770 ?GetSizeOf@ELocalTeleTypeMessage@@UAEJXZ
       1228  4CB 00123840 ?GetSizeOf@EModel2Activate@@UAEJXZ
       1229  4CC 001238A0 ?GetSizeOf@EModel2Deactivate@@UAEJXZ
       1230  4CD 00126220 ?GetSizeOf@EModel3Activate@@UAEJXZ
       1231  4CE 00126280 ?GetSizeOf@EModel3Deactivate@@UAEJXZ
       1232  4CF 001262E0 ?GetSizeOf@EModel3Initialize@@UAEJXZ
       1233  4D0 00121620 ?GetSizeOf@EModelDeath@@UAEJXZ
       1234  4D1 0012D240 ?GetSizeOf@EMusicChangerTrigger@@UAEJXZ
       1235  4D2 0012E840 ?GetSizeOf@ENetChangeMusic@@UAEJXZ
       1236  4D3 00130B50 ?GetSizeOf@ENetStartSound@@UAEJXZ
       1237  4D4 00130BB0 ?GetSizeOf@ENetStopSound@@UAEJXZ
       1238  4D5 001568C0 ?GetSizeOf@ENetworkTeleTypeMessage@@UAEJXZ
       1239  4D6 0011DAD0 ?GetSizeOf@EOpenDoor@@UAEJXZ
       1240  4D7 00130AF0 ?GetSizeOf@EPlaySoundOnce@@UAEJXZ
       1241  4D8 001562A0 ?GetSizeOf@EPlayerDeath@@UAEJXZ
       1242  4D9 00156150 ?GetSizeOf@EPlayerRebirth@@UAEJXZ
       1243  4DA 00156420 ?GetSizeOf@EPlayerStats@@UAEJXZ
       1244  4DB 001215C0 ?GetSizeOf@ERangeModelDestruction@@UAEJXZ
       1245  4DC 001560E0 ?GetSizeOf@ERebirth@@UAEJXZ
       1246  4DD 0011DA50 ?GetSizeOf@EReceiveScore@@UAEJXZ
       1247  4DE 0011D850 ?GetSizeOf@EReminder@@UAEJXZ
       1248  4DF 0011DE80 ?GetSizeOf@EScroll@@UAEJXZ
       1249  4E0 0011DD40 ?GetSizeOf@ESecretFound@@UAEJXZ
       1250  4E1 001133C0 ?GetSizeOf@ESetViewer@@UAEJXZ
       1251  4E2 001563A0 ?GetSizeOf@EShowConsole@@UAEJXZ
       1252  4E3 0011DDB0 ?GetSizeOf@ESound@@UAEJXZ
       1253  4E4 00114000 ?GetSizeOf@ESpawnSpray@@UAEJXZ
       1254  4E5 0011D370 ?GetSizeOf@EStart@@UAEJXZ
       1255  4E6 0011D8C0 ?GetSizeOf@EStartAttack@@UAEJXZ
       1256  4E7 000FA3E0 ?GetSizeOf@EStartEffect@@UAEJXZ
       1257  4E8 00129230 ?GetSizeOf@EStartSounds@@UAEJXZ
       1258  4E9 0011D300 ?GetSizeOf@EStop@@UAEJXZ
       1259  4EA 0011D920 ?GetSizeOf@EStopAttack@@UAEJXZ
       1260  4EB 0011D980 ?GetSizeOf@EStopBlindness@@UAEJXZ
       1261  4EC 0011D9E0 ?GetSizeOf@EStopDeafness@@UAEJXZ
       1262  4ED 000FA380 ?GetSizeOf@EStopEffect@@UAEJXZ
       1263  4EE 00129290 ?GetSizeOf@EStopSounds@@UAEJXZ
       1264  4EF 001564E0 ?GetSizeOf@ESubtitleEvent@@UAEJXZ
       1265  4F0 0011D7E0 ?GetSizeOf@ETeleportMovingBrush@@UAEJXZ
       1266  4F1 0011DF50 ?GetSizeOf@ETextFX@@UAEJXZ
       1267  4F2 0011D710 ?GetSizeOf@ETrigger@@UAEJXZ
       1268  4F3 0011E460 ?GetSizeOf@EVoiceMessage@@UAEJXZ
       1269  4F4 0006BB30 ?GetSizeOf@ProxyBash@@UAEJXZ
       1270  4F5 0006C960 ?GetSizeOf@ProxyBombConfigured@@UAEJXZ
       1271  4F6 0006B910 ?GetSizeOf@ProxyBurstFire@@UAEJXZ
       1272  4F7 0006B9B0 ?GetSizeOf@ProxyCeaseFire@@UAEJXZ
       1273  4F8 0006C900 ?GetSizeOf@ProxyConfigureBomb@@UAEJXZ
       1274  4F9 0006C430 ?GetSizeOf@ProxyDeath@@UAEJXZ
       1275  4FA 00074190 ?GetSizeOf@ProxyDeathThroe@@UAEJXZ
       1276  4FB 0006BDA0 ?GetSizeOf@ProxyDiscoverBody@@UAEJXZ
       1277  4FC 0006C4D0 ?GetSizeOf@ProxyDoIdleSpice@@UAEJXZ
       1278  4FD 0006C2E0 ?GetSizeOf@ProxyFall@@UAEJXZ
       1279  4FE 0006B850 ?GetSizeOf@ProxyFire@@UAEJXZ
       1280  4FF 0006BD20 ?GetSizeOf@ProxyFlee@@UAEJXZ
       1281  500 0006C070 ?GetSizeOf@ProxyFling@@UAEJXZ
       1282  501 0006C110 ?GetSizeOf@ProxyGetUp@@UAEJXZ
       1283  502 0006BEF0 ?GetSizeOf@ProxyHop@@UAEJXZ
       1284  503 0006BE30 ?GetSizeOf@ProxyJump@@UAEJXZ
       1285  504 0006BCA0 ?GetSizeOf@ProxyLookAround@@UAEJXZ
       1286  505 0006B150 ?GetSizeOf@ProxyPunchThrown@@UAEJXZ
       1287  506 0006C850 ?GetSizeOf@ProxyReachForBomb@@UAEJXZ
       1288  507 0006BA70 ?GetSizeOf@ProxyReleaseGrenade@@UAEJXZ
       1289  508 0006B1B0 ?GetSizeOf@ProxyReload@@UAEJXZ
       1290  509 0006B460 ?GetSizeOf@ProxyReplenishHealth@@UAEJXZ
       1291  50A 0006B260 ?GetSizeOf@ProxyReplenishPossible@@UAEJXZ
       1292  50B 0006B360 ?GetSizeOf@ProxyReplenishRequest@@UAEJXZ
       1293  50C 0006B570 ?GetSizeOf@ProxyReplenishWeapon@@UAEJXZ
       1294  50D 0006BAD0 ?GetSizeOf@ProxyResetFireAnimation@@UAEJXZ
       1295  50E 0006C170 ?GetSizeOf@ProxyResetFling@@UAEJXZ
       1296  50F 0006BFB0 ?GetSizeOf@ProxyRoll@@UAEJXZ
       1297  510 0006BBA0 ?GetSizeOf@ProxySelectWeapon@@UAEJXZ
       1298  511 0006BC20 ?GetSizeOf@ProxySetNewWeapon@@UAEJXZ
       1299  512 0006C260 ?GetSizeOf@ProxySetStance@@UAEJXZ
       1300  513 0006C3B0 ?GetSizeOf@ProxyStop@@UAEJXZ
       1301  514 0006C530 ?GetSizeOf@ProxyStopIdleSpice@@UAEJXZ
       1302  515 0006B7C0 ?GetSizeOf@ProxySyncWeaponAmmo@@UAEJXZ
       1303  516 0006BA10 ?GetSizeOf@ProxyThrowGrenade@@UAEJXZ
       1304  517 0006C760 ?GetSizeOf@ProxyTimedBombInRange@@UAEJXZ
       1305  518 0006C350 ?GetSizeOf@ProxyTouchDown@@UAEJXZ
       1306  519 0006B750 ?GetSizeOf@ProxyWeaponChangeComplete@@UAEJXZ
       1307  51A 0006B630 ?GetSizeOf@ProxyWeaponToBack@@UAEJXZ
       1308  51B 0006B6F0 ?GetSizeOf@ProxyWeaponToHand@@UAEJXZ
       1309  51C 0006B690 ?GetSizeOf@ProxyWeaponToHip@@UAEJXZ
       1310  51D 0006C1E0 ?GetSizeOf@ProxyWounded@@UAEJXZ
       1311  51E 0006C9E0 ?GetSizeOf@RespawnEvent@@UAEJXZ
       1312  51F 0006B0E0 ?GetSizeOf@SyncDescriptorEvent@@UAEJXZ
       1313  520 0006B000 ?GetSizeOf@SyncPositioningEvent@@UAEJXZ
       1314  521 0010D1F0 ?GetSizeOf@TimedBombActive@@UAEJXZ
       1315  522 0010D320 ?GetSizeOf@TimedBombDormant@@UAEJXZ
       1316  523 0010D130 ?GetSizeOf@TimedBombToActive@@UAEJXZ
       1317  524 0010D260 ?GetSizeOf@TimedBombToDormant@@UAEJXZ
       1318  525 0006AF60 ?GetSizeOf@TriggerGameEntity@@UAEJXZ
       1319  526 0013C080 ?GetSizeOf@WorldLinkEvent@@UAEJXZ
       1320  527 00197E90 ?GetSquadLeader@CWorldState@@QAEPAVCGameBot@@XZ
       1321  528 000E5CD0 ?GetStartOffset@CCutSceneEntity@@QAEJXZ
       1322  529 0016D270 ?GetStatusMessages@CWorldState@@QAEPAV?$list@VCStatusMessage@@V?$allocator@VCStatusMessage@@@_STL@@@_STL@@XZ
       1323  52A 0015D300 ?GetTeleportingOffset@CPlayer@@QAE?AV?$Vector@M$02@@XZ
       1324  52B 000BB290 ?GetWSC@@YAPAVCWorldSettingsController@@PAVCEntity@@@Z
       1325  52C 00197EF0 ?GetWaypoints@CWorldState@@QAEPAV?$vector@VCEntityPointer@@V?$allocator@VCEntityPointer@@@_STL@@@_STL@@XZ
       1326  52D 00196FB0 ?GetWeaponLoadoutConfigFilename@CWorldState@@QAE?BV?$basic_string@DV?$char_traits@D@_STL@@V?$allocator@D@2@@_STL@@XZ
       1327  52E 0015DD50 ?GetWorldState@CPlayer@@QAEPAVCWorldState@@XZ
       1328  52F 00239318 ?GrenadeStateEnum_enum@@3VCEntityPropertyEnumType@@A
       1329  530 00239308 ?GrenadeStateEnum_values@@3PAVCEntityPropertyEnumValue@@A
       1330  531 00239300 ?GrenadeTriggerEnum_enum@@3VCEntityPropertyEnumType@@A
       1331  532 002392F0 ?GrenadeTriggerEnum_values@@3PAVCEntityPropertyEnumValue@@A
       1332  533 00239350 ?GrenadeTypeEnum_enum@@3VCEntityPropertyEnumType@@A
       1333  534 00239320 ?GrenadeTypeEnum_values@@3PAVCEntityPropertyEnumValue@@A
       1334  535 00236590 ?GroupBehaviorType_enum@@3VCEntityPropertyEnumType@@A
       1335  536 00236560 ?GroupBehaviorType_values@@3PAVCEntityPropertyEnumValue@@A
       1336  537 000D3290 ?H0x0bcd0003_Main_01@CActor@@QAEHABVCEntityEvent@@@Z
       1337  538 000D3380 ?H0x0bcd0004_Main_02@CActor@@QAEHABVCEntityEvent@@@Z
       1338  539 0010A650 ?H0x0bd20001_Active_01@CTeleTypeEntity@@QAEHABVCEntityEvent@@@Z
       1339  53A 0010A740 ?H0x0bd20002_Active_02@CTeleTypeEntity@@QAEHABVCEntityEvent@@@Z
       1340  53B 0010A820 ?H0x0bd20004_Inactive_01@CTeleTypeEntity@@QAEHABVCEntityEvent@@@Z
       1341  53C 0010A890 ?H0x0bd20005_Inactive_02@CTeleTypeEntity@@QAEHABVCEntityEvent@@@Z
       1342  53D 0010A900 ?H0x0bd20006_Inactive_03@CTeleTypeEntity@@QAEHABVCEntityEvent@@@Z
       1343  53E 0010A980 ?H0x0bd20007_Inactive_04@CTeleTypeEntity@@QAEHABVCEntityEvent@@@Z
       1344  53F 0010A7B0 ?H0x0bd20008_Inactive_05@CTeleTypeEntity@@QAEHABVCEntityEvent@@@Z
       1345  540 0010A9E0 ?H0x0bd20009_Inactive_06@CTeleTypeEntity@@QAEHABVCEntityEvent@@@Z
       1346  541 0010AAB0 ?H0x0bd2000a_Main_01@CTeleTypeEntity@@QAEHABVCEntityEvent@@@Z
       1347  542 0010AB30 ?H0x0bd2000b_Main_02@CTeleTypeEntity@@QAEHABVCEntityEvent@@@Z
       1348  543 00142E20 ?H0x13880000_Main_01@CBotTrackView@@QAEHABVCEntityEvent@@@Z
       1349  544 00142ED0 ?H0x13880001_Main_02@CBotTrackView@@QAEHABVCEntityEvent@@@Z
       1350  545 001448C0 ?H0x13890000_Main_01@CCloseShoulderView@@QAEHABVCEntityEvent@@@Z
       1351  546 00144970 ?H0x13890001_Main_02@CCloseShoulderView@@QAEHABVCEntityEvent@@@Z
       1352  547 00147D20 ?H0x138a0000_Main_01@CFirstPersonView@@QAEHABVCEntityEvent@@@Z
       1353  548 00147E10 ?H0x138a0001_Main_02@CFirstPersonView@@QAEHABVCEntityEvent@@@Z
       1354  549 001493C0 ?H0x138b0000_Main_01@CPlayerDeathView@@QAEHABVCEntityEvent@@@Z
       1355  54A 00149450 ?H0x138b0001_Main_02@CPlayerDeathView@@QAEHABVCEntityEvent@@@Z
       1356  54B 0014C290 ?H0x138c0000_Main_01@CThirdPersonView@@QAEHABVCEntityEvent@@@Z
       1357  54C 0014C350 ?H0x138c0001_Main_02@CThirdPersonView@@QAEHABVCEntityEvent@@@Z
       1358  54D 0014A270 ?H0x138d0000_Main_01@CSpectatorView@@QAEHABVCEntityEvent@@@Z
       1359  54E 0014A2E0 ?H0x138d0001_Main_02@CSpectatorView@@QAEHABVCEntityEvent@@@Z
       1360  54F 00146870 ?H0x13b40000_Main_01@CCommandView@@QAEHABVCEntityEvent@@@Z
       1361  550 00146910 ?H0x13b40001_Main_02@CCommandView@@QAEHABVCEntityEvent@@@Z
       1362  551 0015E150 ?H0x17840010_WorldChangeDead_01@CPlayer@@QAEHABVCEntityEvent@@@Z
       1363  552 0015E1F0 ?H0x17840011_WorldChangeDead_02@CPlayer@@QAEHABVCEntityEvent@@@Z
       1364  553 0015E380 ?H0x17840013_Death_01@CPlayer@@QAEHABVCEntityEvent@@@Z
       1365  554 0015E480 ?H0x17840014_Death_02@CPlayer@@QAEHABVCEntityEvent@@@Z
       1366  555 0015E6D0 ?H0x17840016_Main_01@CPlayer@@QAEHABVCEntityEvent@@@Z
       1367  556 0015EA30 ?H0x17840017_Main_02@CPlayer@@QAEHABVCEntityEvent@@@Z
       1368  557 0015EA90 ?H0x17840018_Main_03@CPlayer@@QAEHABVCEntityEvent@@@Z
       1369  558 0015EBA0 ?H0x17840019_Main_04@CPlayer@@QAEHABVCEntityEvent@@@Z
       1370  559 0015EC20 ?H0x1784001a_Main_05@CPlayer@@QAEHABVCEntityEvent@@@Z
       1371  55A 0015EB00 ?H0x1784001b_Main_06@CPlayer@@QAEHABVCEntityEvent@@@Z
       1372  55B 0015EC80 ?H0x1784001c_Main_07@CPlayer@@QAEHABVCEntityEvent@@@Z
       1373  55C 0015ECF0 ?H0x1784001d_Main_08@CPlayer@@QAEHABVCEntityEvent@@@Z
       1374  55D 0015F740 ?H0x1784001e_Main_09@CPlayer@@QAEHABVCEntityEvent@@@Z
       1375  55E 000D3190 ?HandleAnimPauseEvent@CActor@@UAEXJ@Z
       1376  55F 000D30B0 ?HandleAnimStartEvent@CActor@@UAEXJPBVEAnimTriggerAndConfigure@@@Z
       1377  560 000D3170 ?HandleAnimStopEvent@CActor@@UAEXJ@Z
       1378  561 000D31A0 ?HandleAnimUpdateEvent@CActor@@UAEXJPBVEAnimTriggerAndConfigure@@@Z
       1379  562 000D2FD0 ?HandleEvent@CActor@@UAEHABVCEntityEvent@@@Z
       1380  563 00157540 ?HandleEvent@CPlayer@@UAEHABVCEntityEvent@@@Z
       1381  564 0010A750 ?Inactive@CTeleTypeEntity@@QAEHABVCEntityEvent@@@Z
       1382  565 00198670 ?InflictRangeDamage@CWorldState@@QAEXABV?$Vector@M$02@@PAVCEntity@@_NMMW4DamageType@@M222@Z
       1383  566 00198710 ?InflictRangeDamage@CWorldState@@QAEXABV?$Vector@M$02@@PAVCEntity@@_NMMW4DamageType@@MPAV?$vector@PAVCGameBot@@V?$allocator@PAVCGameBot@@@_STL@@@_STL@@@Z
       1384  567 000D2DC0 ?InitModelHolder@CActor@@QAEXXZ
       1385  568 0015AFC0 ?InitTeleTypeFontStock@CPlayer@@QAEXXZ
       1386  569 0015AEF0 ?InitTeleTypeSoundStock@CPlayer@@QAEXXZ
       1387  56A 00157900 ?InitializeFromNet@CPlayer@@UAEXXZ
       1388  56B 0015D0F0 ?InitializeInput@CPlayer@@QAEXXZ
       1389  56C 0015D190 ?InitializePlayedMarine@CPlayer@@QAEXXZ
       1390  56D 0015CF50 ?InitializePlayer@CPlayer@@UAEXXZ
       1391  56E 0015D290 ?InitializeViewManager@CPlayer@@QAEXXZ
       1392  56F 00159950 ?IsActionApplied@CPlayer@@UAEHXZ
       1393  570 0015C7F0 ?IsConnected@CPlayer@@QBEHXZ
       1394  571 001984E0 ?IsCutSceneRunning@CWorldState@@QBE_NXZ
       1395  572 001400C0 ?IsObjectiveComplete@CMissionObjectiveManagerEntity@@QAEHQAVCEntityPointer@@@Z
       1396  573 0016D2A0 ?IsPlayerActionAllowed@CWorldState@@QBE?B_NXZ
       1397  574 00159980 ?IsReapplyingActions@CPlayer@@UAEHXZ
       1398  575 00142210 ?IsSentOverNet@CBotTrackView@@UAEHXZ
       1399  576 00143CE0 ?IsSentOverNet@CCloseShoulderView@@UAEHXZ
       1400  577 001458A0 ?IsSentOverNet@CCommandView@@UAEHXZ
       1401  578 00147620 ?IsSentOverNet@CFirstPersonView@@UAEHXZ
       1402  579 00148C60 ?IsSentOverNet@CPlayerDeathView@@UAEHXZ
       1403  57A 0014A050 ?IsSentOverNet@CSpectatorView@@UAEHXZ
       1404  57B 0014B220 ?IsSentOverNet@CThirdPersonView@@UAEHXZ
       1405  57C 000D2AD0 ?IsTargetable@CActor@@UBEHXZ
       1406  57D 001098A0 ?IsTargetable@CTeleTypeEntity@@UBEHXZ
       1407  57E 00052C60 ?IsValid@CPathBuilder@@QAE_NXZ
       1408  57F 000B5F40 ?KickEntity@@YAXPAVCEntity@@V?$Vector@M$02@@@Z
       1409  580 0023EAE8 ?KillType_enum@@3VCEntityPropertyEnumType@@A
       1410  581 0023EAC8 ?KillType_values@@3PAVCEntityPropertyEnumValue@@A
       1411  582 0023F580 ?LensFlareType_enum@@3VCEntityPropertyEnumType@@A
       1412  583 0023F518 ?LensFlareType_values@@3PAVCEntityPropertyEnumValue@@A
       1413  584 000BAB30 ?LerpPlacementsPrecise@@YA?AVCPlacement3D@@ABV1@0M@Z
       1414  585 001572C0 ?LevelChangePlayerClear@CPlayer@@QAEXXZ
       1415  586 0023F510 ?LightType_enum@@3VCEntityPropertyEnumType@@A
       1416  587 0023F4E8 ?LightType_values@@3PAVCEntityPropertyEnumValue@@A
       1417  588 0015B600 ?ListenFromEntity@CPlayer@@QAEXPAVCEntity@@ABVCPlacement3D@@@Z
       1418  589 000B60B0 ?LoadSkaModel@@YAXAAVCModelInstance@@PAVCEntity@@J@Z
       1419  58A 001D4EF4 ?MAX_STATUS_MESSAGE_QUEUE_SIZE@CWorldState@@2IB
       1420  58B 001D4EF8 ?MIN_TIME_BETWEEN_SAVES@CWorldState@@2JB
       1421  58C 000D31F0 ?Main@CActor@@QAEHABVCEntityEvent@@@Z
       1422  58D 00142D70 ?Main@CBotTrackView@@QAEHABVCEntityEvent@@@Z
       1423  58E 00144820 ?Main@CCloseShoulderView@@QAEHABVCEntityEvent@@@Z
       1424  58F 001467B0 ?Main@CCommandView@@QAEHABVCEntityEvent@@@Z
       1425  590 00147C80 ?Main@CFirstPersonView@@QAEHABVCEntityEvent@@@Z
       1426  591 0015E550 ?Main@CPlayer@@QAEHABVCEntityEvent@@@Z
       1427  592 00149300 ?Main@CPlayerDeathView@@QAEHABVCEntityEvent@@@Z
       1428  593 0014A1C0 ?Main@CSpectatorView@@QAEHABVCEntityEvent@@@Z
       1429  594 0010A9F0 ?Main@CTeleTypeEntity@@QAEHABVCEntityEvent@@@Z
       1430  595 0014C1E0 ?Main@CThirdPersonView@@QAEHABVCEntityEvent@@@Z
       1431  596 00199020 ?Main@CWorldState@@QAEHABVCEntityEvent@@@Z
       1432  597 00156590 ?MakeCopy@ABZSwitchMarine@@UAEPAVCEntityEvent@@XZ
       1433  598 000D2810 ?MakeCopy@CActorActivate@@UAEPAVCEntityEvent@@XZ
       1434  599 000D2870 ?MakeCopy@CActorDeactivate@@UAEPAVCEntityEvent@@XZ
       1435  59A 0006C560 ?MakeCopy@DamageEvent@@UAEPAVCEntityEvent@@XZ
       1436  59B 0011D400 ?MakeCopy@EActivate@@UAEPAVCEntityEvent@@XZ
       1437  59C 00107C20 ?MakeCopy@EActivateSpaceDebree@@UAEPAVCEntityEvent@@XZ
       1438  59D 000D26B0 ?MakeCopy@EAnimTriggerAndConfigure@@UAEPAVCEntityEvent@@XZ
       1439  59E 001292C0 ?MakeCopy@EBrushDeath@@UAEPAVCEntityEvent@@XZ
       1440  59F 001291A0 ?MakeCopy@EBrushDestroyed@@UAEPAVCEntityEvent@@XZ
       1441  5A0 00155F10 ?MakeCopy@ECameraStart@@UAEPAVCEntityEvent@@XZ
       1442  5A1 00155FE0 ?MakeCopy@ECameraStop@@UAEPAVCEntityEvent@@XZ
       1443  5A2 0011E180 ?MakeCopy@ECenterMessage@@UAEPAVCEntityEvent@@XZ
       1444  5A3 00111530 ?MakeCopy@EChangeAnim@@UAEPAVCEntityEvent@@XZ
       1445  5A4 0012E6C0 ?MakeCopy@EChangeMusic@@UAEPAVCEntityEvent@@XZ
       1446  5A5 0011DB60 ?MakeCopy@ECloseDoor@@UAEPAVCEntityEvent@@XZ
       1447  5A6 0011E2B0 ?MakeCopy@EComputerMessage@@UAEPAVCEntityEvent@@XZ
       1448  5A7 0011E0B0 ?MakeCopy@ECredits@@UAEPAVCEntityEvent@@XZ
       1449  5A8 000E32F0 ?MakeCopy@ECutscene@@UAEPAVCEntityEvent@@XZ
       1450  5A9 0011D4D0 ?MakeCopy@EDeactivate@@UAEPAVCEntityEvent@@XZ
       1451  5AA 000FA410 ?MakeCopy@EDeactivateEffect@@UAEPAVCEntityEvent@@XZ
       1452  5AB 00156190 ?MakeCopy@EDisconnected@@UAEPAVCEntityEvent@@XZ
       1453  5AC 0011D660 ?MakeCopy@EEnd@@UAEPAVCEntityEvent@@XZ
       1454  5AD 0011D5A0 ?MakeCopy@EEnvironmentStart@@UAEPAVCEntityEvent@@XZ
       1455  5AE 0011D600 ?MakeCopy@EEnvironmentStop@@UAEPAVCEntityEvent@@XZ
       1456  5AF 000EAE80 ?MakeCopy@EExplosion@@UAEPAVCEntityEvent@@XZ
       1457  5B0 00129140 ?MakeCopy@EHit@@UAEPAVCEntityEvent@@XZ
       1458  5B1 0011E510 ?MakeCopy@EHitBySpaceShipBeam@@UAEPAVCEntityEvent@@XZ
       1459  5B2 0011DFE0 ?MakeCopy@EHudPicFX@@UAEPAVCEntityEvent@@XZ
       1460  5B3 000D3990 ?MakeCopy@EInitBeacon@@UAEPAVCEntityEvent@@XZ
       1461  5B4 00155E90 ?MakeCopy@EInitializePlayer@@UAEPAVCEntityEvent@@XZ
       1462  5B5 00101910 ?MakeCopy@EInitializeShadowRenderer@@UAEPAVCEntityEvent@@XZ
       1463  5B6 0011DC30 ?MakeCopy@EKilledEnemy@@UAEPAVCEntityEvent@@XZ
       1464  5B7 000F2940 ?MakeCopy@ELaunchGrenade@@UAEPAVCEntityEvent@@XZ
       1465  5B8 001566A0 ?MakeCopy@ELocalTeleTypeMessage@@UAEPAVCEntityEvent@@XZ
       1466  5B9 00123810 ?MakeCopy@EModel2Activate@@UAEPAVCEntityEvent@@XZ
       1467  5BA 00123870 ?MakeCopy@EModel2Deactivate@@UAEPAVCEntityEvent@@XZ
       1468  5BB 001261F0 ?MakeCopy@EModel3Activate@@UAEPAVCEntityEvent@@XZ
       1469  5BC 00126250 ?MakeCopy@EModel3Deactivate@@UAEPAVCEntityEvent@@XZ
       1470  5BD 001262B0 ?MakeCopy@EModel3Initialize@@UAEPAVCEntityEvent@@XZ
       1471  5BE 001215F0 ?MakeCopy@EModelDeath@@UAEPAVCEntityEvent@@XZ
       1472  5BF 0012D210 ?MakeCopy@EMusicChangerTrigger@@UAEPAVCEntityEvent@@XZ
       1473  5C0 0012E800 ?MakeCopy@ENetChangeMusic@@UAEPAVCEntityEvent@@XZ
       1474  5C1 00130B20 ?MakeCopy@ENetStartSound@@UAEPAVCEntityEvent@@XZ
       1475  5C2 00130B80 ?MakeCopy@ENetStopSound@@UAEPAVCEntityEvent@@XZ
       1476  5C3 00156880 ?MakeCopy@ENetworkTeleTypeMessage@@UAEPAVCEntityEvent@@XZ
       1477  5C4 0011DA90 ?MakeCopy@EOpenDoor@@UAEPAVCEntityEvent@@XZ
       1478  5C5 00130AC0 ?MakeCopy@EPlaySoundOnce@@UAEPAVCEntityEvent@@XZ
       1479  5C6 001561F0 ?MakeCopy@EPlayerDeath@@UAEPAVCEntityEvent@@XZ
       1480  5C7 00156110 ?MakeCopy@EPlayerRebirth@@UAEPAVCEntityEvent@@XZ
       1481  5C8 001563D0 ?MakeCopy@EPlayerStats@@UAEPAVCEntityEvent@@XZ
       1482  5C9 00121590 ?MakeCopy@ERangeModelDestruction@@UAEPAVCEntityEvent@@XZ
       1483  5CA 001560B0 ?MakeCopy@ERebirth@@UAEPAVCEntityEvent@@XZ
       1484  5CB 0011DA10 ?MakeCopy@EReceiveScore@@UAEPAVCEntityEvent@@XZ
       1485  5CC 0011D810 ?MakeCopy@EReminder@@UAEPAVCEntityEvent@@XZ
       1486  5CD 0011DE40 ?MakeCopy@EScroll@@UAEPAVCEntityEvent@@XZ
       1487  5CE 0011DD10 ?MakeCopy@ESecretFound@@UAEPAVCEntityEvent@@XZ
       1488  5CF 00113390 ?MakeCopy@ESetViewer@@UAEPAVCEntityEvent@@XZ
       1489  5D0 00156370 ?MakeCopy@EShowConsole@@UAEPAVCEntityEvent@@XZ
       1490  5D1 0011DD70 ?MakeCopy@ESound@@UAEPAVCEntityEvent@@XZ
       1491  5D2 00113F50 ?MakeCopy@ESpawnSpray@@UAEPAVCEntityEvent@@XZ
       1492  5D3 0011D330 ?MakeCopy@EStart@@UAEPAVCEntityEvent@@XZ
       1493  5D4 0011D890 ?MakeCopy@EStartAttack@@UAEPAVCEntityEvent@@XZ
       1494  5D5 000FA3B0 ?MakeCopy@EStartEffect@@UAEPAVCEntityEvent@@XZ
       1495  5D6 00129200 ?MakeCopy@EStartSounds@@UAEPAVCEntityEvent@@XZ
       1496  5D7 0011D2D0 ?MakeCopy@EStop@@UAEPAVCEntityEvent@@XZ
       1497  5D8 0011D8F0 ?MakeCopy@EStopAttack@@UAEPAVCEntityEvent@@XZ
       1498  5D9 0011D950 ?MakeCopy@EStopBlindness@@UAEPAVCEntityEvent@@XZ
       1499  5DA 0011D9B0 ?MakeCopy@EStopDeafness@@UAEPAVCEntityEvent@@XZ
       1500  5DB 000FA350 ?MakeCopy@EStopEffect@@UAEPAVCEntityEvent@@XZ
       1501  5DC 00129260 ?MakeCopy@EStopSounds@@UAEPAVCEntityEvent@@XZ
       1502  5DD 00156460 ?MakeCopy@ESubtitleEvent@@UAEPAVCEntityEvent@@XZ
       1503  5DE 0011D7B0 ?MakeCopy@ETeleportMovingBrush@@UAEPAVCEntityEvent@@XZ
       1504  5DF 0011DF10 ?MakeCopy@ETextFX@@UAEPAVCEntityEvent@@XZ
       1505  5E0 0011D6C0 ?MakeCopy@ETrigger@@UAEPAVCEntityEvent@@XZ
       1506  5E1 0011E3E0 ?MakeCopy@EVoiceMessage@@UAEPAVCEntityEvent@@XZ
       1507  5E2 0006BB00 ?MakeCopy@ProxyBash@@UAEPAVCEntityEvent@@XZ
       1508  5E3 0006C930 ?MakeCopy@ProxyBombConfigured@@UAEPAVCEntityEvent@@XZ
       1509  5E4 0006B8C0 ?MakeCopy@ProxyBurstFire@@UAEPAVCEntityEvent@@XZ
       1510  5E5 0006B980 ?MakeCopy@ProxyCeaseFire@@UAEPAVCEntityEvent@@XZ
       1511  5E6 0006C8D0 ?MakeCopy@ProxyConfigureBomb@@UAEPAVCEntityEvent@@XZ
       1512  5E7 0006C3E0 ?MakeCopy@ProxyDeath@@UAEPAVCEntityEvent@@XZ
       1513  5E8 00074160 ?MakeCopy@ProxyDeathThroe@@UAEPAVCEntityEvent@@XZ
       1514  5E9 0006BD60 ?MakeCopy@ProxyDiscoverBody@@UAEPAVCEntityEvent@@XZ
       1515  5EA 0006C4A0 ?MakeCopy@ProxyDoIdleSpice@@UAEPAVCEntityEvent@@XZ
       1516  5EB 0006C2A0 ?MakeCopy@ProxyFall@@UAEPAVCEntityEvent@@XZ
       1517  5EC 0006B800 ?MakeCopy@ProxyFire@@UAEPAVCEntityEvent@@XZ
       1518  5ED 0006BCE0 ?MakeCopy@ProxyFlee@@UAEPAVCEntityEvent@@XZ
       1519  5EE 0006C020 ?MakeCopy@ProxyFling@@UAEPAVCEntityEvent@@XZ
       1520  5EF 0006C0E0 ?MakeCopy@ProxyGetUp@@UAEPAVCEntityEvent@@XZ
       1521  5F0 0006BEA0 ?MakeCopy@ProxyHop@@UAEPAVCEntityEvent@@XZ
       1522  5F1 0006BDE0 ?MakeCopy@ProxyJump@@UAEPAVCEntityEvent@@XZ
       1523  5F2 0006BC60 ?MakeCopy@ProxyLookAround@@UAEPAVCEntityEvent@@XZ
       1524  5F3 0006B120 ?MakeCopy@ProxyPunchThrown@@UAEPAVCEntityEvent@@XZ
       1525  5F4 0006C7E0 ?MakeCopy@ProxyReachForBomb@@UAEPAVCEntityEvent@@XZ
       1526  5F5 0006BA40 ?MakeCopy@ProxyReleaseGrenade@@UAEPAVCEntityEvent@@XZ
       1527  5F6 0006B180 ?MakeCopy@ProxyReload@@UAEPAVCEntityEvent@@XZ
       1528  5F7 0006B3E0 ?MakeCopy@ProxyReplenishHealth@@UAEPAVCEntityEvent@@XZ
       1529  5F8 0006B1E0 ?MakeCopy@ProxyReplenishPossible@@UAEPAVCEntityEvent@@XZ
       1530  5F9 0006B2F0 ?MakeCopy@ProxyReplenishRequest@@UAEPAVCEntityEvent@@XZ
       1531  5FA 0006B4F0 ?MakeCopy@ProxyReplenishWeapon@@UAEPAVCEntityEvent@@XZ
       1532  5FB 0006BAA0 ?MakeCopy@ProxyResetFireAnimation@@UAEPAVCEntityEvent@@XZ
       1533  5FC 0006C140 ?MakeCopy@ProxyResetFling@@UAEPAVCEntityEvent@@XZ
       1534  5FD 0006BF60 ?MakeCopy@ProxyRoll@@UAEPAVCEntityEvent@@XZ
       1535  5FE 0006BB60 ?MakeCopy@ProxySelectWeapon@@UAEPAVCEntityEvent@@XZ
       1536  5FF 0006BBE0 ?MakeCopy@ProxySetNewWeapon@@UAEPAVCEntityEvent@@XZ
       1537  600 0006C220 ?MakeCopy@ProxySetStance@@UAEPAVCEntityEvent@@XZ
       1538  601 0006C380 ?MakeCopy@ProxyStop@@UAEPAVCEntityEvent@@XZ
       1539  602 0006C500 ?MakeCopy@ProxyStopIdleSpice@@UAEPAVCEntityEvent@@XZ
       1540  603 0006B780 ?MakeCopy@ProxySyncWeaponAmmo@@UAEPAVCEntityEvent@@XZ
       1541  604 0006B9E0 ?MakeCopy@ProxyThrowGrenade@@UAEPAVCEntityEvent@@XZ
       1542  605 0006C6F0 ?MakeCopy@ProxyTimedBombInRange@@UAEPAVCEntityEvent@@XZ
       1543  606 0006C320 ?MakeCopy@ProxyTouchDown@@UAEPAVCEntityEvent@@XZ
       1544  607 0006B720 ?MakeCopy@ProxyWeaponChangeComplete@@UAEPAVCEntityEvent@@XZ
       1545  608 0006B600 ?MakeCopy@ProxyWeaponToBack@@UAEPAVCEntityEvent@@XZ
       1546  609 0006B6C0 ?MakeCopy@ProxyWeaponToHand@@UAEPAVCEntityEvent@@XZ
       1547  60A 0006B660 ?MakeCopy@ProxyWeaponToHip@@UAEPAVCEntityEvent@@XZ
       1548  60B 0006C1A0 ?MakeCopy@ProxyWounded@@UAEPAVCEntityEvent@@XZ
       1549  60C 0006C990 ?MakeCopy@RespawnEvent@@UAEPAVCEntityEvent@@XZ
       1550  60D 0006B0A0 ?MakeCopy@SyncDescriptorEvent@@UAEPAVCEntityEvent@@XZ
       1551  60E 0006AF90 ?MakeCopy@SyncPositioningEvent@@UAEPAVCEntityEvent@@XZ
       1552  60F 0010D1C0 ?MakeCopy@TimedBombActive@@UAEPAVCEntityEvent@@XZ
       1553  610 0010D2F0 ?MakeCopy@TimedBombDormant@@UAEPAVCEntityEvent@@XZ
       1554  611 0010D0F0 ?MakeCopy@TimedBombToActive@@UAEPAVCEntityEvent@@XZ
       1555  612 0010D220 ?MakeCopy@TimedBombToDormant@@UAEPAVCEntityEvent@@XZ
       1556  613 0006AF30 ?MakeCopy@TriggerGameEntity@@UAEPAVCEntityEvent@@XZ
       1557  614 0013C050 ?MakeCopy@WorldLinkEvent@@UAEPAVCEntityEvent@@XZ
       1558  615 0015C880 ?MarineDied@CPlayer@@QAEXPAVCEntity@@0@Z
       1559  616 0021FB40 ?MarineFaceType_enum@@3VCEntityPropertyEnumType@@A
       1560  617 0021FB20 ?MarineFaceType_values@@3PAVCEntityPropertyEnumValue@@A
       1561  618 0022AC20 ?MentalConditionType_enum@@3VCEntityPropertyEnumType@@A
       1562  619 0022AC08 ?MentalConditionType_values@@3PAVCEntityPropertyEnumValue@@A
       1563  61A 0023A49C ?MercWeaponType_enum@@3VCEntityPropertyEnumType@@A
       1564  61B 0023A484 ?MercWeaponType_values@@3PAVCEntityPropertyEnumValue@@A
       1565  61C 0021E840 ?MercenaryFaceType_enum@@3VCEntityPropertyEnumType@@A
       1566  61D 0021E7F0 ?MercenaryFaceType_values@@3PAVCEntityPropertyEnumValue@@A
       1567  61E 0021E868 ?MercenaryStartupType_enum@@3VCEntityPropertyEnumType@@A
       1568  61F 0021E848 ?MercenaryStartupType_values@@3PAVCEntityPropertyEnumValue@@A
       1569  620 0023EC08 ?MessageSound_enum@@3VCEntityPropertyEnumType@@A
       1570  621 0023EBF8 ?MessageSound_values@@3PAVCEntityPropertyEnumValue@@A
       1571  622 00242798 ?MissionObjectiveType_enum@@3VCEntityPropertyEnumType@@A
       1572  623 00242778 ?MissionObjectiveType_values@@3PAVCEntityPropertyEnumValue@@A
       1573  624 002401F8 ?ModelSurfaceTypes_enum@@3VCEntityPropertyEnumType@@A
       1574  625 002401C8 ?ModelSurfaceTypes_values@@3PAVCEntityPropertyEnumValue@@A
       1575  626 00240D48 ?MusicType_enum@@3VCEntityPropertyEnumType@@A
       1576  627 00240D20 ?MusicType_values@@3PAVCEntityPropertyEnumValue@@A
       1577  628 000B5460 ?NewMessage@CCompMessageID@@QAEXABVCTFileName@@@Z
       1578  629 00143CD0 ?OnCreation@CCloseShoulderView@@UAEXXZ
       1579  62A 00147610 ?OnCreation@CFirstPersonView@@UAEXXZ
       1580  62B 0014B210 ?OnCreation@CThirdPersonView@@UAEXXZ
       1581  62C 001966E0 ?OnCreation@CWorldState@@UAEXXZ
       1582  62D 001572D0 ?OnEnd@CPlayer@@UAEXXZ
       1583  62E 002262D0 ?PI7SideArmType_enum@@3VCEntityPropertyEnumType@@A
       1584  62F 002262B8 ?PI7SideArmType_values@@3PAVCEntityPropertyEnumValue@@A
       1585  630 0023A8E8 ?ParticleBlendTypes_enum@@3VCEntityPropertyEnumType@@A
       1586  631 0023A8A8 ?ParticleBlendTypes_values@@3PAVCEntityPropertyEnumValue@@A
       1587  632 0023EC88 ?ParticleTexture_enum@@3VCEntityPropertyEnumType@@A
       1588  633 0023EC10 ?ParticleTexture_values@@3PAVCEntityPropertyEnumValue@@A
       1589  634 0022BD40 ?PhysicsBitsHigh_enum@@3VCEntityPropertyEnumType@@A
       1590  635 0022BCC0 ?PhysicsBitsHigh_values@@3PAVCEntityPropertyEnumValue@@A
       1591  636 0022BCB8 ?PhysicsBitsLow_enum@@3VCEntityPropertyEnumType@@A
       1592  637 0022BC38 ?PhysicsBitsLow_values@@3PAVCEntityPropertyEnumValue@@A
       1593  638 0022BD90 ?PhysicsFlagComboType_enum@@3VCEntityPropertyEnumType@@A
       1594  639 0022BD48 ?PhysicsFlagComboType_values@@3PAVCEntityPropertyEnumValue@@A
       1595  63A 002262B0 ?Pi7FaceType_enum@@3VCEntityPropertyEnumType@@A
       1596  63B 002262A0 ?Pi7FaceType_values@@3PAVCEntityPropertyEnumValue@@A
       1597  63C 00196980 ?PlaceCubeAtLocation@CWorldState@@QAEPAVCEntity@@V?$Vector@M$02@@@Z
       1598  63D 00196AD0 ?PlaceMarker@CWorldState@@QAEPAVCEntity@@PAV2@V?$Vector@M$02@@11@Z
       1599  63E 00196910 ?PlaceMarker@CWorldState@@QAEPAVCEntity@@PAV2@V?$Vector@M$02@@1@Z
       1600  63F 00196DE0 ?PlaceMarker@CWorldState@@QAEPAVCEntity@@PAV2@V?$Vector@M$02@@@Z
       1601  640 00196DB0 ?PlaceMarkerAtLocation@CWorldState@@QAEPAVCEntity@@V?$Vector@M$02@@@Z
       1602  641 00196C40 ?PlaceSphereAtLocation@CWorldState@@QAEPAVCEntity@@V?$Vector@M$02@@@Z
       1603  642 0015AE70 ?PlayLightAnim@CPlayer@@QAEXJK@Z
       1604  643 00197830 ?PlayNextAvailableMarine@CWorldState@@QAEHPAVCPlayer@@@Z
       1605  644 0015CA90 ?PlayPowerUpSound@CPlayer@@QAEXXZ
       1606  645 0015B8A0 ?PlayTeleTypeSound@CPlayer@@QAEXXZ
       1607  646 0015A950 ?PlayerInteracted@CPlayer@@QAEX_N@Z
       1608  647 002446F8 ?PlayerState_enum@@3VCEntityPropertyEnumType@@A
       1609  648 002446D0 ?PlayerState_values@@3PAVCEntityPropertyEnumValue@@A
       1610  649 00142660 ?PostMoving@CBotTrackView@@UAEXXZ
       1611  64A 00144150 ?PostMoving@CCloseShoulderView@@UAEXXZ
       1612  64B 00145CB0 ?PostMoving@CCommandView@@UAEXXZ
       1613  64C 00147A40 ?PostMoving@CFirstPersonView@@UAEXXZ
       1614  64D 0015C6A0 ?PostMoving@CPlayer@@UAEXXZ
       1615  64E 00148CE0 ?PostMoving@CPlayerDeathView@@UAEXXZ
       1616  64F 0014B6C0 ?PostMoving@CThirdPersonView@@UAEXXZ
       1617  650 0015C600 ?PreMoving@CPlayer@@UAEXXZ
       1618  651 000D2AB0 ?Precache@CActor@@UAEXXZ
       1619  652 0015F7D0 ?PrescanAnalogueInput@@YAXPBVCWorld@@ABVCPlayerCharacter@@AAVCPlayerControls@@@Z
       1620  653 000BA8D0 ?PrintCenterMessage@@YAXPAVCEntity@@0ABVCTString@@MW4MessageSound@@@Z
       1621  654 000BA760 ?PrintConsole@@YAPBDXZ
       1622  655 00197630 ?PrintPlayableMarines@CWorldState@@QAEXPAVCDrawPort@@@Z
       1623  656 000BA770 ?PrintStack@@YAPBDPAVCEntity@@@Z
       1624  657 0015BAA0 ?PrintSubtitles@CPlayer@@QAEXPAVCDrawPort@@@Z
       1625  658 0015B8C0 ?PrintTeleTypeMessage@CPlayer@@QAEXPAVCDrawPort@@@Z
       1626  659 00197050 ?ProcessWeaponLoadout@CWorldState@@QAEXXZ
       1627  65A 00198470 ?QuickLoad@CWorldState@@QAEXXZ
       1628  65B 001982A0 ?QuickLoadRequested@CWorldState@@SAXXZ
       1629  65C 00198400 ?QuickSave@CWorldState@@QAEXXZ
       1630  65D 00198270 ?QuickSaveRequested@CWorldState@@SAXXZ
       1631  65E 00157BF0 ?Read_net@CPlayer@@UAEXPAVCNetworkMessage@@M@Z
       1632  65F 00158E90 ?Read_net_brief@CPlayer@@UAEXPAVCNetworkMessage@@M@Z
       1633  660 00142220 ?Read_t@CBotTrackView@@UAEXPAVCTStream@@H@Z
       1634  661 00143CF0 ?Read_t@CCloseShoulderView@@UAEXPAVCTStream@@H@Z
       1635  662 001458B0 ?Read_t@CCommandView@@UAEXPAVCTStream@@H@Z
       1636  663 000B53C0 ?Read_t@CCompMessageID@@QAEXAAVCTStream@@@Z
       1637  664 000E3930 ?Read_t@CCutSceneEntity@@UAEXPAVCTStream@@H@Z
       1638  665 00147630 ?Read_t@CFirstPersonView@@UAEXPAVCTStream@@H@Z
       1639  666 000F8010 ?Read_t@CMissionObjectiveLabel@@UAEXPAVCTStream@@H@Z
       1640  667 0013F780 ?Read_t@CMissionObjectiveManagerEntity@@UAEXPAVCTStream@@H@Z
       1641  668 0015AD30 ?Read_t@CPlayer@@UAEXPAVCTStream@@H@Z
       1642  669 00148C70 ?Read_t@CPlayerDeathView@@UAEXPAVCTStream@@H@Z
       1643  66A 000FFDC0 ?Read_t@CReplenisherBase@@UAEXPAVCTStream@@H@Z
       1644  66B 00102290 ?Read_t@CSingleUseMarineReplenisher@@UAEXPAVCTStream@@H@Z
       1645  66C 00103E30 ?Read_t@CSonicExplosion@@UAEXPAVCTStream@@H@Z
       1646  66D 0014A060 ?Read_t@CSpectatorView@@UAEXPAVCTStream@@H@Z
       1647  66E 0014B230 ?Read_t@CThirdPersonView@@UAEXPAVCTStream@@H@Z
       1648  66F 0010F130 ?Read_t@CTimedBombField@@UAEXPAVCTStream@@H@Z
       1649  670 00180080 ?Read_t@CTracer@@UAEXPAVCTStream@@H@Z
       1650  671 0015E4D0 ?Rebirth@CPlayer@@QAEHABVCEntityEvent@@@Z
       1651  672 0015C800 ?ReceiveDamage@CPlayer@@UAEXPAVCEntity@@W4DamageType@@MABV?$Vector@M$02@@2@Z
       1652  673 0015C870 ?ReceiveItem@CPlayer@@UAEHABVCEntityEvent@@@Z
       1653  674 0015DD90 ?RecoilView@CPlayer@@QAEXM@Z
       1654  675 00052B10 ?ReducePath@CPathBuilder@@QAEXPAV?$vector@V?$Vector@M$02@@V?$allocator@V?$Vector@M$02@@@_STL@@@_STL@@PAVCAccessMap@@H@Z
       1655  676 0015DC10 ?RegisterEffectEntity@CPlayer@@QAEXPAVCEntity@@@Z
       1656  677 000B6090 ?RemoveAttachmentFromModel@@YAXAAVCModelObject@@J@Z
       1657  678 000E44D0 ?RemoveEventFromList@CCutSceneEntity@@QAE_NABUCSequenceEvent@@@Z
       1658  679 000E4670 ?RemoveEventFromList@CCutSceneEntity@@QAE_NH@Z
       1659  67A 0013FDC0 ?RemoveObjective@CMissionObjectiveManagerEntity@@QAE_NABVCEntityPointer@@@Z
       1660  67B 0013FE80 ?RemoveObjectiveByName@CMissionObjectiveManagerEntity@@QAE_NABVCTString@@W4MissionObjectiveType@@@Z
       1661  67C 001978F0 ?RemovePlayer@CWorldState@@QAEXPAVCPlayer@@@Z
       1662  67D 0015C110 ?RenderCameraView@CPlayer@@QAEXPAVCDrawPort@@H@Z
       1663  67E 0015B6D0 ?RenderDummyView@CPlayer@@QAEXPAVCDrawPort@@@Z
       1664  67F 0015C350 ?RenderGameView@CPlayer@@UAEXPAVCDrawPort@@PAX@Z
       1665  680 0015DD20 ?RenderParticles@CPlayer@@UAEXXZ
       1666  681 0015BC00 ?RenderPlayerView@CPlayer@@QAEXPAVCDrawPort@@H@Z
       1667  682 0023B3E0 ?ReplenishWeaponType_enum@@3VCEntityPropertyEnumType@@A
       1668  683 0023B2D8 ?ReplenishWeaponType_values@@3PAVCEntityPropertyEnumValue@@A
       1669  684 0023B2D0 ?ReplenisherType_enum@@3VCEntityPropertyEnumType@@A
       1670  685 0023B290 ?ReplenisherType_values@@3PAVCEntityPropertyEnumValue@@A
       1671  686 001444D0 ?ResetLerpInfo@CCloseShoulderView@@QAEXXZ
       1672  687 00146470 ?ResetLerpInfo@CCommandView@@QAEXM@Z
       1673  688 0014BE60 ?ResetLerpInfo@CThirdPersonView@@QAEXM@Z
       1674  689 00052A90 ?SelectNextCell@CPathBuilder@@AAEPAPAVCAccessMapSearchState@@PAPAV2@PAV?$vector@PAVCAccessMapSearchState@@V?$allocator@PAVCAccessMapSearchState@@@_STL@@@_STL@@@Z
       1675  68A 0015A650 ?SendChangeStanceToGroup@CPlayer@@QAEXXZ
       1676  68B 0015A9A0 ?SendCommand@CPlayer@@QAEXPAVCGameBot@@HH@Z
       1677  68C 000B5C10 ?SendInRange@@YAXPAVCEntity@@W4EventEType@@ABV?$AABBox@M$02@@@Z
       1678  68D 0010A540 ?SendTeleTypeMessage@CTeleTypeEntity@@QAEXK@Z
       1679  68E 000B5780 ?SendToTarget@@YAXPAVCEntity@@W4EventEType@@00H@Z
       1680  68F 0023D688 ?SequenceEventTypes_enum@@3VCEntityPropertyEnumType@@A
       1681  690 0023D650 ?SequenceEventTypes_values@@3PAVCEntityPropertyEnumValue@@A
       1682  691 00159960 ?SetActionApplied@CPlayer@@UAEXXZ
       1683  692 000B5750 ?SetBoolFromBoolEType@@YAXAAHW4BoolEType@@@Z
       1684  693 000B5FB0 ?SetComponents@@YAXPAVCEntity@@AAVCModelObject@@KKKKK@Z
       1685  694 0015C7B0 ?SetConnected@CPlayer@@QAEXXZ
       1686  695 000E5C90 ?SetCutSceneLength@CCutSceneEntity@@QAEXH@Z
       1687  696 00198500 ?SetCutSceneRunning@CWorldState@@QAEX_NVCEntityPointer@@@Z
       1688  697 000CE190 ?SetDefaultProperties@C2DRainEffect@@UAEXXZ
       1689  698 000D0830 ?SetDefaultProperties@CAccesMapEntity@@UAEXXZ
       1690  699 000D28D0 ?SetDefaultProperties@CActor@@UAEXXZ
       1691  69A 001116B0 ?SetDefaultProperties@CAnimationChanger@@UAEXXZ
       1692  69B 00112660 ?SetDefaultProperties@CAnimationHub@@UAEXXZ
       1693  69C 001133F0 ?SetDefaultProperties@CBackgroundViewer@@UAEXXZ
       1694  69D 000D39F0 ?SetDefaultProperties@CBeaconEntity@@UAEXXZ
       1695  69E 000D41F0 ?SetDefaultProperties@CBehaviorChanger@@UAEXXZ
       1696  69F 000D4EC0 ?SetDefaultProperties@CBloodSplatter@@UAEXXZ
       1697  6A0 001140B0 ?SetDefaultProperties@CBloodSpray@@UAEXXZ
       1698  6A1 000D8220 ?SetDefaultProperties@CBotCloaker@@UAEXXZ
       1699  6A2 000D8AA0 ?SetDefaultProperties@CBotEventTrackerWrapper@@UAEXXZ
       1700  6A3 00077C00 ?SetDefaultProperties@CBotGroupEntity@@UAEXXZ
       1701  6A4 000D9B20 ?SetDefaultProperties@CBotSpawnerEntity@@UAEXXZ
       1702  6A5 00142160 ?SetDefaultProperties@CBotTrackView@@UAEXXZ
       1703  6A6 0017CB40 ?SetDefaultProperties@CBulletCase@@UAEXXZ
       1704  6A7 0017D730 ?SetDefaultProperties@CBulletHitEffect@@UAEXXZ
       1705  6A8 00115440 ?SetDefaultProperties@CCamera@@UAEXXZ
       1706  6A9 00119E50 ?SetDefaultProperties@CCameraMarker@@UAEXXZ
       1707  6AA 000621D0 ?SetDefaultProperties@CCarrierCartEntity@@UAEXXZ
       1708  6AB 00143C40 ?SetDefaultProperties@CCloseShoulderView@@UAEXXZ
       1709  6AC 000DAAC0 ?SetDefaultProperties@CCloudStorm@@UAEXXZ
       1710  6AD 0005DB30 ?SetDefaultProperties@CColonistEntity@@UAEXXZ
       1711  6AE 001457F0 ?SetDefaultProperties@CCommandView@@UAEXXZ
       1712  6AF 000DC510 ?SetDefaultProperties@CContainerField@@UAEXXZ
       1713  6B0 000DD110 ?SetDefaultProperties@CCounterEntity@@UAEXXZ
       1714  6B1 000DDBF0 ?SetDefaultProperties@CCoverPoint@@UAEXXZ
       1715  6B2 000DE770 ?SetDefaultProperties@CCube@@UAEXXZ
       1716  6B3 000E08C0 ?SetDefaultProperties@CCustomExplosion@@UAEXXZ
       1717  6B4 000E2140 ?SetDefaultProperties@CCustomNozzleFlare@@UAEXXZ
       1718  6B5 000E3390 ?SetDefaultProperties@CCutSceneEntity@@UAEXXZ
       1719  6B6 000EA240 ?SetDefaultProperties@CDeadBodyEntity@@UAEXXZ
       1720  6B7 0005CDA0 ?SetDefaultProperties@CDemoEntity@@UAEXXZ
       1721  6B8 000EAFC0 ?SetDefaultProperties@CDestructiveExplosion@@UAEXXZ
       1722  6B9 000662F0 ?SetDefaultProperties@CDiv91BattleDroidEntity@@UAEXXZ
       1723  6BA 000657D0 ?SetDefaultProperties@CDiv91Entity@@UAEXXZ
       1724  6BB 00067950 ?SetDefaultProperties@CDiv91SpiderDroidEntity@@UAEXXZ
       1725  6BC 0011A8C0 ?SetDefaultProperties@CDoorController@@UAEXXZ
       1726  6BD 00062FC0 ?SetDefaultProperties@CEngineerEntity@@UAEXXZ
       1727  6BE 000ED630 ?SetDefaultProperties@CExplosionEntity@@UAEXXZ
       1728  6BF 00147600 ?SetDefaultProperties@CFirstPersonView@@UAEXXZ
       1729  6C0 0011C230 ?SetDefaultProperties@CFogMarker@@UAEXXZ
       1730  6C1 0006CA50 ?SetDefaultProperties@CGameEntity@@UAEXXZ
       1731  6C2 000F1C90 ?SetDefaultProperties@CGameOverTrigger@@UAEXXZ
       1732  6C3 0011E570 ?SetDefaultProperties@CGlobal@@UAEXXZ
       1733  6C4 000F2290 ?SetDefaultProperties@CGodModeToggle@@UAEXXZ
       1734  6C5 00064010 ?SetDefaultProperties@CGrassBot@@UAEXXZ
       1735  6C6 000F2AC0 ?SetDefaultProperties@CGrenade@@UAEXXZ
       1736  6C7 0011EB30 ?SetDefaultProperties@CHazeMarker@@UAEXXZ
       1737  6C8 00058490 ?SetDefaultProperties@CHologramMarineEntity@@UAEXXZ
       1738  6C9 000F4940 ?SetDefaultProperties@CIdleSkaController@@UAEXXZ
       1739  6CA 0017EAC0 ?SetDefaultProperties@CImpactEffect@@UAEXXZ
       1740  6CB 000F4FF0 ?SetDefaultProperties@CInGameDialog@@UAEXXZ
       1741  6CC 0011F920 ?SetDefaultProperties@CLight@@UAEXXZ
       1742  6CD 000741C0 ?SetDefaultProperties@CMachineGameEntity@@UAEXXZ
       1743  6CE 00059450 ?SetDefaultProperties@CMarineEntity@@UAEXXZ
       1744  6CF 000F5AA0 ?SetDefaultProperties@CMarineReplenisher@@UAEXXZ
       1745  6D0 00120930 ?SetDefaultProperties@CMarker@@UAEXXZ
       1746  6D1 000F7150 ?SetDefaultProperties@CMercWeaponPickUpField@@UAEXXZ
       1747  6D2 00057030 ?SetDefaultProperties@CMercenaryEntity@@UAEXXZ
       1748  6D3 00120F00 ?SetDefaultProperties@CMirrorMarker@@UAEXXZ
       1749  6D4 0013E070 ?SetDefaultProperties@CMissionObjectiveEntity@@UAEXXZ
       1750  6D5 000F7F70 ?SetDefaultProperties@CMissionObjectiveLabel@@UAEXXZ
       1751  6D6 0013EF80 ?SetDefaultProperties@CMissionObjectiveManagerEntity@@UAEXXZ
       1752  6D7 00121650 ?SetDefaultProperties@CModelDestruction@@UAEXXZ
       1753  6D8 001238D0 ?SetDefaultProperties@CModelHolder2@@UAEXXZ
       1754  6D9 00126310 ?SetDefaultProperties@CModelHolder3@@UAEXXZ
       1755  6DA 00121E70 ?SetDefaultProperties@CModelHolder@@UAEXXZ
       1756  6DB 001293B0 ?SetDefaultProperties@CMovingBrush@@UAEXXZ
       1757  6DC 0012C930 ?SetDefaultProperties@CMovingBrushMarker@@UAEXXZ
       1758  6DD 000F89B0 ?SetDefaultProperties@CMultiReplenisher@@UAEXXZ
       1759  6DE 0012D270 ?SetDefaultProperties@CMusicChanger@@UAEXXZ
       1760  6DF 0012E8C0 ?SetDefaultProperties@CMusicHolder@@UAEXXZ
       1761  6E0 00059950 ?SetDefaultProperties@CNPCMarineEntity@@UAEXXZ
       1762  6E1 0005E9F0 ?SetDefaultProperties@CPanicEntity@@UAEXXZ
       1763  6E2 000FA470 ?SetDefaultProperties@CParticleEmitter@@UAEXXZ
       1764  6E3 0007A870 ?SetDefaultProperties@CPathCellEntity@@UAEXXZ
       1765  6E4 00060050 ?SetDefaultProperties@CPi7Entity@@UAEXXZ
       1766  6E5 00156E40 ?SetDefaultProperties@CPlayer@@UAEXXZ
       1767  6E6 00148C50 ?SetDefaultProperties@CPlayerDeathView@@UAEXXZ
       1768  6E7 0012FFD0 ?SetDefaultProperties@CPlayerMarker@@UAEXXZ
       1769  6E8 000FCE90 ?SetDefaultProperties@CRandomBotSpawnerEntity@@UAEXXZ
       1770  6E9 000FE400 ?SetDefaultProperties@CRandomTrigger@@UAEXXZ
       1771  6EA 000FFBA0 ?SetDefaultProperties@CReplenisherBase@@UAEXXZ
       1772  6EB 00063950 ?SetDefaultProperties@CSentryGun@@UAEXXZ
       1773  6EC 00101220 ?SetDefaultProperties@CShadowCasterEntity@@UAEXXZ
       1774  6ED 00101970 ?SetDefaultProperties@CShadowController@@UAEXXZ
       1775  6EE 00102240 ?SetDefaultProperties@CSingleUseMarineReplenisher@@UAEXXZ
       1776  6EF 00064D60 ?SetDefaultProperties@CSolgovSoldierEntity@@UAEXXZ
       1777  6F0 00103B80 ?SetDefaultProperties@CSonicExplosion@@UAEXXZ
       1778  6F1 00130BE0 ?SetDefaultProperties@CSoundHolder@@UAEXXZ
       1779  6F2 00105870 ?SetDefaultProperties@CSpaceDebree@@UAEXXZ
       1780  6F3 00107DD0 ?SetDefaultProperties@CSpaceDebreeController@@UAEXXZ
       1781  6F4 0014A040 ?SetDefaultProperties@CSpectatorView@@UAEXXZ
       1782  6F5 00108E30 ?SetDefaultProperties@CSphere@@UAEXXZ
       1783  6F6 00109530 ?SetDefaultProperties@CStartupLocationEntity@@UAEXXZ
       1784  6F7 0005EE20 ?SetDefaultProperties@CSwarmBot@@UAEXXZ
       1785  6F8 0010A3E0 ?SetDefaultProperties@CTeleTypeEntity@@UAEXXZ
       1786  6F9 0010B0C0 ?SetDefaultProperties@CTerrainAccessMapBuilder@@UAEXXZ
       1787  6FA 00131910 ?SetDefaultProperties@CTerrainEntity@@UAEXXZ
       1788  6FB 0010C0D0 ?SetDefaultProperties@CTerrainHole@@UAEXXZ
       1789  6FC 0005B1A0 ?SetDefaultProperties@CTestMarineEntity@@UAEXXZ
       1790  6FD 0014B150 ?SetDefaultProperties@CThirdPersonView@@UAEXXZ
       1791  6FE 00131FF0 ?SetDefaultProperties@CTimeController@@UAEXXZ
       1792  6FF 0010D350 ?SetDefaultProperties@CTimedBomb@@UAEXXZ
       1793  700 0010EE80 ?SetDefaultProperties@CTimedBombField@@UAEXXZ
       1794  701 00133240 ?SetDefaultProperties@CTouchField@@UAEXXZ
       1795  702 0017F970 ?SetDefaultProperties@CTracer@@UAEXXZ
       1796  703 00134900 ?SetDefaultProperties@CTrigger@@UAEXXZ
       1797  704 00066CC0 ?SetDefaultProperties@CTrogloEngineerEntity@@UAEXXZ
       1798  705 0005B720 ?SetDefaultProperties@CTrogloGatlingEntity@@UAEXXZ
       1799  706 0005C150 ?SetDefaultProperties@CTrogloSMGEntity@@UAEXXZ
       1800  707 00171080 ?SetDefaultProperties@CTutorialEntity@@UAEXXZ
       1801  708 00171BE0 ?SetDefaultProperties@CTutorialStep@@UAEXXZ
       1802  709 00135BD0 ?SetDefaultProperties@CVoiceHolder@@UAEXXZ
       1803  70A 00110570 ?SetDefaultProperties@CWaypointEntity@@UAEXXZ
       1804  70B 0013AD10 ?SetDefaultProperties@CWorldBase@@UAEXXZ
       1805  70C 0013C0B0 ?SetDefaultProperties@CWorldLink@@UAEXXZ
       1806  70D 0013CE00 ?SetDefaultProperties@CWorldSettingsController@@UAEXXZ
       1807  70E 00199010 ?SetDefaultProperties@CWorldState@@UAEXXZ
       1808  70F 00052AF0 ?SetDestination@CPathBuilder@@QAEXV?$Vector@M$02@@@Z
       1809  710 0015C990 ?SetGameEnd@CPlayer@@QAEXXZ
       1810  711 00149230 ?SetHitInfo@CPlayerDeathView@@QAEX_NPAVCEntity@@@Z
       1811  712 00197F00 ?SetLocalPlayer@CWorldState@@QAEXVCEntityPointer@@@Z
       1812  713 00157A70 ?SetMultiplayerClass@CPlayer@@QAEXXZ
       1813  714 00052AC0 ?SetOrigin@CPathBuilder@@QAEXV?$Vector@M$02@@@Z
       1814  715 0014A080 ?SetPlacement@CSpectatorView@@QAEXABVCPlacement3D@@@Z
       1815  716 001977B0 ?SetPlayedMarine@CWorldState@@QAEXABKPAVCGameBot@@@Z
       1816  717 0016D290 ?SetPlayerActionAllowed@CWorldState@@QAEX_N@Z
       1817  718 000BA750 ?SetPlayerAppearance@@YAHPAVCModelInstance@@PAVCPlayerCharacter@@AAVCTString@@H@Z
       1818  719 000BA500 ?SetPlayerAppearance@@YAHPAVCModelObject@@PAVCPlayerCharacter@@AAVCTString@@H@Z
       1819  71A 00052930 ?SetProcessedPathContainer@CPathBuilder@@QAEXPAV?$vector@V?$Vector@M$02@@V?$allocator@V?$Vector@M$02@@@_STL@@@_STL@@@Z
       1820  71B 00159990 ?SetReapplyingActions@CPlayer@@UAEXXZ
       1821  71C 000524A0 ?SetSearchStates@CPathBuilder@@QAEXPAV?$vector@PAVCAccessMapSearchState@@V?$allocator@PAVCAccessMapSearchState@@@_STL@@@_STL@@@Z
       1822  71D 00198260 ?SetShouldShowAlignment@CWorldState@@QAEXH@Z
       1823  71E 000E5CA0 ?SetStartOffset@CCutSceneEntity@@QAEHJ@Z
       1824  71F 0015C720 ?SetUnconnected@CPlayer@@QAEXXZ
       1825  720 00196FA0 ?SetWeaponLoadoutConfigFilename@CWorldState@@QAEXABV?$basic_string@DV?$char_traits@D@_STL@@V?$allocator@D@2@@_STL@@@Z
       1826  721 0015AE60 ?SetupLightSource@CPlayer@@QAEXXZ
       1827  722 0015B080 ?SetupView@CPlayer@@QAEXPAVCDrawPort@@AAVCAnyProjection3D@@AAPAVCEntity@@AAVCPlacement3D@@AAKH@Z
       1828  723 0023FEC8 ?ShadowType_enum@@3VCEntityPropertyEnumType@@A
       1829  724 0023FEB0 ?ShadowType_values@@3PAVCEntityPropertyEnumValue@@A
       1830  725 000E4920 ?ShiftEvents@CCutSceneEntity@@QAEXHHW4SequenceEventTypes@@@Z
       1831  726 001572E0 ?ShowMissionFailedMessage@CPlayer@@QAEXXZ
       1832  727 00052A00 ?ShowPathList@CPathBuilder@@QAEXPAVCGameBot@@PAV?$vector@V?$Vector@M$02@@V?$allocator@V?$Vector@M$02@@@_STL@@@_STL@@@Z
       1833  728 000529E0 ?ShowTargetList@CPathBuilder@@QAEXPAVCGameBot@@@Z
       1834  729 00157410 ?ShowTeleTypeMessage@CPlayer@@QAEXPBDMMMM@Z
       1835  72A 0022A1A4 ?SideArm_enum@@3VCEntityPropertyEnumType@@A
       1836  72B 0022A194 ?SideArm_values@@3PAVCEntityPropertyEnumValue@@A
       1837  72C 00228F58 ?SolgovSoldierSideArmType_enum@@3VCEntityPropertyEnumType@@A
       1838  72D 00228F40 ?SolgovSoldierSideArmType_values@@3PAVCEntityPropertyEnumValue@@A
       1839  72E 0023ECB8 ?SoundType_enum@@3VCEntityPropertyEnumType@@A
       1840  72F 0023EC90 ?SoundType_values@@3PAVCEntityPropertyEnumValue@@A
       1841  730 000B5F20 ?SpawnFlame@@YA?AVCEntityPointer@@PAVCEntity@@0ABV?$Vector@M$02@@@Z
       1842  731 000BA970 ?SpawnRangeSound@@YAXPAVCEntity@@0W4SoundType@@M@Z
       1843  732 000B5E10 ?SpawnReminder@@YA?AVCEntityPointer@@PAVCEntity@@MJ@Z
       1844  733 0023EDF8 ?SprayParticlesType_enum@@3VCEntityPropertyEnumType@@A
       1845  734 0023ED70 ?SprayParticlesType_values@@3PAVCEntityPropertyEnumValue@@A
       1846  735 000BA780 ?StartDebugTrigger@@YAXPAVCEntity@@@Z
       1847  736 000B6140 ?StartSkaAnim@@YAXPAVCEntity@@JKJM@Z
       1848  737 000B6180 ?StartSkaAnimStr@@YAXPAVCModelInstance@@VCTString@@KJM@Z
       1849  738 00197980 ?StopPlayingMarine@CWorldState@@QAEXPAVCPlayer@@@Z
       1850  739 00224CAC ?SwarmBotType_enum@@3VCEntityPropertyEnumType@@A
       1851  73A 00224C9C ?SwarmBotType_values@@3PAVCEntityPropertyEnumValue@@A
       1852  73B 00197A80 ?SwitchToPlayableMarine@CWorldState@@QAE_NPAVCPlayer@@I@Z
       1853  73C 0022ACC0 ?TalkativityType_enum@@3VCEntityPropertyEnumType@@A
       1854  73D 0022AC90 ?TalkativityType_values@@3PAVCEntityPropertyEnumValue@@A
       1855  73E 0015D3B0 ?TeleportPlayer@CPlayer@@QAEXW4WorldLinkType@@@Z
       1856  73F 0023CC98 ?TimedBombControllerEnum_enum@@3VCEntityPropertyEnumType@@A
       1857  740 0023CC78 ?TimedBombControllerEnum_values@@3PAVCEntityPropertyEnumValue@@A
       1858  741 0023D350 ?TimedBombFieldType_enum@@3VCEntityPropertyEnumType@@A
       1859  742 0023D338 ?TimedBombFieldType_values@@3PAVCEntityPropertyEnumValue@@A
       1860  743 0023D378 ?TimedBombSignalState_enum@@3VCEntityPropertyEnumType@@A
       1861  744 0023D358 ?TimedBombSignalState_values@@3PAVCEntityPropertyEnumValue@@A
       1862  745 0023CC70 ?TimedBombStateEnum_enum@@3VCEntityPropertyEnumType@@A
       1863  746 0023CC50 ?TimedBombStateEnum_values@@3PAVCEntityPropertyEnumValue@@A
       1864  747 00241678 ?TouchFieldType_enum@@3VCEntityPropertyEnumType@@A
       1865  748 00241630 ?TouchFieldType_values@@3PAVCEntityPropertyEnumValue@@A
       1866  749 00240430 ?TouchOrDamageEvent_enum@@3VCEntityPropertyEnumType@@A
       1867  74A 00240418 ?TouchOrDamageEvent_values@@3PAVCEntityPropertyEnumValue@@A
       1868  74B 0022AC00 ?TrainingType_enum@@3VCEntityPropertyEnumType@@A
       1869  74C 0022ABD8 ?TrainingType_values@@3PAVCEntityPropertyEnumValue@@A
       1870  74D 0015AEA0 ?UpdateLevelStats@CPlayer@@QAEXXZ
       1871  74E 00157690 ?UpdatePositioning@CPlayer@@QAEXXZ
       1872  74F 00052C50 ?UseEdges@CPathBuilder@@QAEX_N@Z
       1873  750 0023F010 ?VisibilityBits_enum@@3VCEntityPropertyEnumType@@A
       1874  751 0023EF90 ?VisibilityBits_values@@3PAVCEntityPropertyEnumValue@@A
       1875  752 0023FAC8 ?WarpRotation_enum@@3VCEntityPropertyEnumType@@A
       1876  753 0023FAB0 ?WarpRotation_values@@3PAVCEntityPropertyEnumValue@@A
       1877  754 0023D6D0 ?WaypointType_enum@@3VCEntityPropertyEnumType@@A
       1878  755 0023D6B0 ?WaypointType_values@@3PAVCEntityPropertyEnumValue@@A
       1879  756 0023EF00 ?WeaponBits_enum@@3VCEntityPropertyEnumType@@A
       1880  757 0023EE00 ?WeaponBits_values@@3PAVCEntityPropertyEnumValue@@A
       1881  758 0015DE20 ?WorldChange@CPlayer@@QAEHABVCEntityEvent@@@Z
       1882  759 0015E010 ?WorldChangeDead@CPlayer@@QAEHABVCEntityEvent@@@Z
       1883  75A 00242360 ?WorldLinkType_enum@@3VCEntityPropertyEnumType@@A
       1884  75B 00242350 ?WorldLinkType_values@@3PAVCEntityPropertyEnumValue@@A
       1885  75C 0015DDC0 ?Wounded@CPlayer@@QAEHABVCEntityEvent@@@Z
       1886  75D 00158260 ?Write_net@CPlayer@@UAEXPAVCNetworkMessage@@@Z
       1887  75E 00159220 ?Write_net_brief@CPlayer@@UAEXPAVCNetworkMessage@@@Z
       1888  75F 00142230 ?Write_t@CBotTrackView@@UAEXPAVCTStream@@H@Z
       1889  760 00143D00 ?Write_t@CCloseShoulderView@@UAEXPAVCTStream@@H@Z
       1890  761 001458C0 ?Write_t@CCommandView@@UAEXPAVCTStream@@H@Z
       1891  762 000B5410 ?Write_t@CCompMessageID@@QAEXAAVCTStream@@@Z
       1892  763 000E3DB0 ?Write_t@CCutSceneEntity@@UAEXPAVCTStream@@H@Z
       1893  764 00147640 ?Write_t@CFirstPersonView@@UAEXPAVCTStream@@H@Z
       1894  765 0013F890 ?Write_t@CMissionObjectiveManagerEntity@@UAEXPAVCTStream@@H@Z
       1895  766 0015ACE0 ?Write_t@CPlayer@@UAEXPAVCTStream@@H@Z
       1896  767 00148C80 ?Write_t@CPlayerDeathView@@UAEXPAVCTStream@@H@Z
       1897  768 000FFED0 ?Write_t@CReplenisherBase@@UAEXPAVCTStream@@H@Z
       1898  769 00102390 ?Write_t@CSingleUseMarineReplenisher@@UAEXPAVCTStream@@H@Z
       1899  76A 0014A070 ?Write_t@CSpectatorView@@UAEXPAVCTStream@@H@Z
       1900  76B 0014B240 ?Write_t@CThirdPersonView@@UAEXPAVCTStream@@H@Z
       1901  76C 0010F240 ?Write_t@CTimedBombField@@UAEXPAVCTStream@@H@Z
       1902  76D 001800B0 ?Write_t@CTracer@@UAEXPAVCTStream@@H@Z
       1903  76E 00261C20 ?aiCallCounters@CWorldState@@2V?$map@V?$basic_string@DV?$char_traits@D@_STL@@V?$allocator@D@2@@_STL@@JU?$less@V?$basic_string@DV?$char_traits@D@_STL@@V?$allocator@D@2@@_STL@@@2@V?$allocator@U?$pair@$$CBV?$basic_string@DV?$char_traits@D@_STL@@V?$allocator@D@2@@_STL@@J@_STL@@@2@@_STL@@A
       1904  76F 00261C10 ?aiMessageCounters@CWorldState@@2V?$map@V?$basic_string@DV?$char_traits@D@_STL@@V?$allocator@D@2@@_STL@@JU?$less@V?$basic_string@DV?$char_traits@D@_STL@@V?$allocator@D@2@@_STL@@@2@V?$allocator@U?$pair@$$CBV?$basic_string@DV?$char_traits@D@_STL@@V?$allocator@D@2@@_STL@@J@_STL@@@2@@_STL@@A
       1905  770 00261C30 ?aiProfileTimers@CWorldState@@2V?$map@V?$basic_string@DV?$char_traits@D@_STL@@V?$allocator@D@2@@_STL@@JU?$less@V?$basic_string@DV?$char_traits@D@_STL@@V?$allocator@D@2@@_STL@@@2@V?$allocator@U?$pair@$$CBV?$basic_string@DV?$char_traits@D@_STL@@V?$allocator@D@2@@_STL@@J@_STL@@@2@@_STL@@A
       1906  771 0025F5F4 ?cmp_bInitialStart@@3HA
       1907  772 0025F5F0 ?cmp_bUpdateInBackground@@3HA
       1908  773 0025F5EC ?cmp_ppenDHPlayer@@3PAVCPlayer@@A
       1909  774 0025F5E8 ?cmp_ppenPlayer@@3PAVCPlayer@@A
       1910  775 00237920 ?coverpointType_enum@@3VCEntityPropertyEnumType@@A
       1911  776 002378E8 ?coverpointType_values@@3PAVCEntityPropertyEnumValue@@A
       1912  777 0025F5F8 ?plr_iHiScore@@3JA
       1913  778 0024B9F0 ?rollDelay@CWorldState@@2MA
       1914  779 00237B90 ?triggerEffectType_enum@@3VCEntityPropertyEnumType@@A
       1915  77A 00237B50 ?triggerEffectType_values@@3PAVCEntityPropertyEnumValue@@A
       1916  77B 00261C40 ?variables@CWorldState@@2PAVCConsoleVariables@@A
       1917  77C 002357B0 C2DRainEffect_DLLClass
       1918  77D 00235E58 CAccesMapEntity_DLLClass
       1919  77E 00236130 CActor_DLLClass
       1920  77F 0023D878 CAnimationChanger_DLLClass
       1921  780 0023DBB8 CAnimationHub_DLLClass
       1922  781 0023DDA0 CBackgroundViewer_DLLClass
       1923  782 00236488 CBeaconEntity_DLLClass
       1924  783 002365A8 CBehaviorChanger_DLLClass
       1925  784 002367A0 CBloodSplatter_DLLClass
       1926  785 0023DEE8 CBloodSpray_DLLClass
       1927  786 00236970 CBotCloaker_DLLClass
       1928  787 00236B20 CBotEventTrackerWrapper_DLLClass
       1929  788 0022C3B0 CBotGroupEntity_DLLClass
       1930  789 00237370 CBotSpawnerEntity_DLLClass
       1931  78A 00242AB8 CBotTrackView_DLLClass
       1932  78B 00247E20 CBulletCase_DLLClass
       1933  78C 00247FD0 CBulletHitEffect_DLLClass
       1934  78D 0023E320 CCameraMarker_DLLClass
       1935  78E 0023E068 CCamera_DLLClass
       1936  78F 002264B0 CCarrierCartEntity_DLLClass
       1937  790 00242B58 CCloseShoulderView_DLLClass
       1938  791 002374D0 CCloudStorm_DLLClass
       1939  792 00223638 CColonistEntity_DLLClass
       1940  793 00242BF0 CCommandView_DLLClass
       1941  794 002376E8 CContainerField_DLLClass
       1942  795 00237860 CCounterEntity_DLLClass
       1943  796 00237958 CCoverPoint_DLLClass
       1944  797 00237BA8 CCube_DLLClass
       1945  798 00237D68 CCustomExplosion_DLLClass
       1946  799 002380B0 CCustomNozzleFlare_DLLClass
       1947  79A 002382A0 CCutSceneEntity_DLLClass
       1948  79B 00238628 CDeadBodyEntity_DLLClass
       1949  79C 002227A0 CDemoEntity_DLLClass
       1950  79D 00238768 CDestructiveExplosion_DLLClass
       1951  79E 00229160 CDiv91BattleDroidEntity_DLLClass
       1952  79F 002290C0 CDiv91Entity_DLLClass
       1953  7A0 0022A2E0 CDiv91SpiderDroidEntity_DLLClass
       1954  7A1 0023E708 CDoorController_DLLClass
       1955  7A2 00226888 CEngineerEntity_DLLClass
       1956  7A3 00238B20 CExplosionEntity_DLLClass
       1957  7A4 00242C88 CFirstPersonView_DLLClass
       1958  7A5 0023E830 CFogMarker_DLLClass
       1959  7A6 0022B148 CGameEntity_DLLClass
       1960  7A7 00239130 CGameOverTrigger_DLLClass
       1961  7A8 0023F0E0 CGlobal_DLLClass
       1962  7A9 002391F8 CGodModeToggle_DLLClass
       1963  7AA 00227290 CGrassBot_DLLClass
       1964  7AB 00239428 CGrenade_DLLClass
       1965  7AC 0023F378 CHazeMarker_DLLClass
       1966  7AD 0021F338 CHologramMarineEntity_DLLClass
       1967  7AE 00239908 CIdleSkaController_DLLClass
       1968  7AF 002481C0 CImpactEffect_DLLClass
       1969  7B0 002399F8 CInGameDialog_DLLClass
       1970  7B1 0023F598 CLight_DLLClass
       1971  7B2 0022BEB8 CMachineGameEntity_DLLClass
       1972  7B3 0021F430 CMarineEntity_DLLClass
       1973  7B4 00239C38 CMarineReplenisher_DLLClass
       1974  7B5 0023FA10 CMarker_DLLClass
       1975  7B6 0023A518 CMercWeaponPickUpField_DLLClass
       1976  7B7 0021E880 CMercenaryEntity_DLLClass
       1977  7B8 0023FAE0 CMirrorMarker_DLLClass
       1978  7B9 002426A0 CMissionObjectiveEntity_DLLClass
       1979  7BA 0023A648 CMissionObjectiveLabel_DLLClass
       1980  7BB 00242810 CMissionObjectiveManagerEntity_DLLClass
       1981  7BC 0023FC50 CModelDestruction_DLLClass
       1982  7BD 0023FF18 CModelHolder2_DLLClass
       1983  7BE 00240250 CModelHolder3_DLLClass
       1984  7BF 0023FD58 CModelHolder_DLLClass
       1985  7C0 00240A08 CMovingBrushMarker_DLLClass
       1986  7C1 002405C0 CMovingBrush_DLLClass
       1987  7C2 0023A7F8 CMultiReplenisher_DLLClass
       1988  7C3 00240BE0 CMusicChanger_DLLClass
       1989  7C4 00240DF8 CMusicHolder_DLLClass
       1990  7C5 0021FB78 CNPCMarineEntity_DLLClass
       1991  7C6 00223E68 CPanicEntity_DLLClass
       1992  7C7 0023A988 CParticleEmitter_DLLClass
       1993  7C8 0022C4C0 CPathCellEntity_DLLClass
       1994  7C9 002262E8 CPi7Entity_DLLClass
       1995  7CA 00242D20 CPlayerDeathView_DLLClass
       1996  7CB 00240F80 CPlayerMarker_DLLClass
       1997  7CC 002448D0 CPlayer_DLLClass
       1998  7CD 0023AE30 CRandomBotSpawnerEntity_DLLClass
       1999  7CE 0023B038 CRandomTrigger_DLLClass
       2000  7CF 0023B3F8 CReplenisherBase_DLLClass
       2001  7D0 00226A50 CSentryGun_DLLClass
       2002  7D1 0023B840 CShadowCasterEntity_DLLClass
       2003  7D2 0023B9A0 CShadowController_DLLClass
       2004  7D3 0023BAD8 CSingleUseMarineReplenisher_DLLClass
       2005  7D4 00228F70 CSolgovSoldierEntity_DLLClass
       2006  7D5 0023BCD8 CSonicExplosion_DLLClass
       2007  7D6 002411A8 CSoundHolder_DLLClass
       2008  7D7 0023C3D0 CSpaceDebreeController_DLLClass
       2009  7D8 0023BE90 CSpaceDebree_DLLClass
       2010  7D9 00242DB8 CSpectatorView_DLLClass
       2011  7DA 0023C598 CSphere_DLLClass
       2012  7DB 0023C620 CStartupLocationEntity_DLLClass
       2013  7DC 00224CC8 CSwarmBot_DLLClass
       2014  7DD 0023C8B8 CTeleTypeEntity_DLLClass
       2015  7DE 0023C9F8 CTerrainAccessMapBuilder_DLLClass
       2016  7DF 00241300 CTerrainEntity_DLLClass
       2017  7E0 0023CBE0 CTerrainHole_DLLClass
       2018  7E1 0021FD68 CTestMarineEntity_DLLClass
       2019  7E2 00242E48 CThirdPersonView_DLLClass
       2020  7E3 002414E8 CTimeController_DLLClass
       2021  7E4 0023D440 CTimedBombField_DLLClass
       2022  7E5 0023CE18 CTimedBomb_DLLClass
       2023  7E6 00241760 CTouchField_DLLClass
       2024  7E7 002482C0 CTracer_DLLClass
       2025  7E8 00241908 CTrigger_DLLClass
       2026  7E9 0022A1C0 CTrogloEngineerEntity_DLLClass
       2027  7EA 00220748 CTrogloGatlingEntity_DLLClass
       2028  7EB 00221618 CTrogloSMGEntity_DLLClass
       2029  7EC 00247378 CTutorialEntity_DLLClass
       2030  7ED 00247448 CTutorialStep_DLLClass
       2031  7EE 00241988 CVoiceHolder_DLLClass
       2032  7EF 0023D6E8 CWaypointEntity_DLLClass
       2033  7F0 002419F8 CWorldBase_DLLClass
       2034  7F1 00242388 CWorldLink_DLLClass
       2035  7F2 002424C0 CWorldSettingsController_DLLClass
       2036  7F3 0024BA10 CWorldState_DLLClass

  Summary

       4A000 .data
        C000 .idata
       55000 .rdata
       3F000 .reloc
      1C2000 .text
